 Drgraf_d32

 Timestamp is 444d823e (Mon Apr 24 18:58:22 2006)

 Preferred load address is 00400000

 Start         Length     Name                   Class
 0001:00000000 00036598H .text                   CODE
 0001:000365a0 000038f3H .text$AFX_CORE3         CODE
 0001:00039ea0 00001058H .text$AFX_INIT          CODE
 0001:0003af00 000029c3H .text$x                 CODE
 0002:00000000 0000148cH .idata$5                DATA
 0002:00001490 0000908cH .rdata                  DATA
 0002:0000a520 0000144cH .rdata$r                DATA
 0002:0000b970 00002ee0H .xdata$x                DATA
 0002:0000e850 0000035cH .idata$2                DATA
 0002:0000ebac 00000014H .idata$3                DATA
 0002:0000ebc0 0000148cH .idata$4                DATA
 0002:0001004c 00006636H .idata$6                DATA
 0002:00016690 00000037H .edata                  DATA
 0003:00000000 00000004H .CRT$XCA                DATA
 0003:00000004 00000004H .CRT$XCL                DATA
 0003:00000008 00000028H .CRT$XCU                DATA
 0003:00000030 00000004H .CRT$XCZ                DATA
 0003:00000034 00000004H .CRT$XIA                DATA
 0003:00000038 00000004H .CRT$XIZ                DATA
 0003:00000040 00001f01H .data                   DATA
 0003:00001f48 000003c0H .bss                    DATA
 0004:00000000 00001024H .rsrc$01                DATA
 0004:00001030 00106ab8H .rsrc$02                DATA

  Address         Publics by Value              Rva+Base     Lib:Object

 0001:00000000       ?CreateObject@C12View@@SGPAVCObject@@XZ 00401000 f   12view.obj
 0001:00000070       ?_GetBaseClass@C12View@@KGPAUCRuntimeClass@@XZ 00401070 f   12view.obj
 0001:00000090       ?GetRuntimeClass@C12View@@UBEPAUCRuntimeClass@@XZ 00401090 f   12view.obj
 0001:000000b0       ?_GetBaseMessageMap@C12View@@KGPBUAFX_MSGMAP@@XZ 004010b0 f   12view.obj
 0001:000000d0       ?GetMessageMap@C12View@@MBEPBUAFX_MSGMAP@@XZ 004010d0 f   12view.obj
 0001:000000f0       ??0C12View@@IAE@XZ         004010f0 f   12view.obj
 0001:00000130       ?GetViewNum@CDrawView@@UAEHXZ 00401130 f i 12view.obj
 0001:00000150       ?GetViewMapMode@CDrawView@@UAEHXZ 00401150 f i 12view.obj
 0001:00000170       ?GetDocSize@CDrawView@@UAE?AVCSize@@XZ 00401170 f i 12view.obj
 0001:000001a0       ?GetFOV@CDrawView@@UAE?AVCSize@@XZ 004011a0 f i 12view.obj
 0001:000001d0       ?SetFOV@CDrawView@@UAEXVCSize@@@Z 004011d0 f i 12view.obj
 0001:00000200       ?GetViewSize@CDrawView@@UAE?AVCSize@@XZ 00401200 f i 12view.obj
 0001:00000230       ?SetViewSize@CDrawView@@UAEXVCSize@@@Z 00401230 f i 12view.obj
 0001:00000260       ?GetCW@CDrawView@@UAE?AUWORLD@@XZ 00401260 f i 12view.obj
 0001:00000290       ?SetCW@CDrawView@@UAEXUWORLD@@@Z 00401290 f i 12view.obj
 0001:000002c0       ?GetCWDim@CDrawView@@UAEXPAN0@Z 004012c0 f i 12view.obj
 0001:00000310       ?SetCWDim@CDrawView@@UAEXNN@Z 00401310 f i 12view.obj
 0001:00000350       ?GetZoomFac@CDrawView@@UAEXPAN0@Z 00401350 f i 12view.obj
 0001:000003a0       ?SetZoomFac@CDrawView@@UAEXNN@Z 004013a0 f i 12view.obj
 0001:000003e0       ?GetViewScale@CDrawView@@UAEXPAN0@Z 004013e0 f i 12view.obj
 0001:00000430       ?SetViewScale@CDrawView@@UAEXNN@Z 00401430 f i 12view.obj
 0001:00000470       ?IsShrinkOn@CDrawView@@UAEHXZ 00401470 f i 12view.obj
 0001:00000490       ?SetShrinkOn@CDrawView@@UAEXH@Z 00401490 f i 12view.obj
 0001:000004c0       ?GetShrink@CDrawView@@UAENXZ 004014c0 f i 12view.obj
 0001:000004e0       ?SetShrink@CDrawView@@UAEXN@Z 004014e0 f i 12view.obj
 0001:00000510       ?IsParallel@CDrawView@@UAEHXZ 00401510 f i 12view.obj
 0001:00000530       ?SetParallel@CDrawView@@UAEXH@Z 00401530 f i 12view.obj
 0001:00000560       ?IsCulling3D@CDrawView@@UAEHXZ 00401560 f i 12view.obj
 0001:00000580       ?SetCulling3D@CDrawView@@UAEXH@Z 00401580 f i 12view.obj
 0001:000005b0       ?IsCulling2D@CDrawView@@UAEHXZ 004015b0 f i 12view.obj
 0001:000005d0       ?SetCulling2D@CDrawView@@UAEXH@Z 004015d0 f i 12view.obj
 0001:00000600       ?GetVRP@CDrawView@@UAE?AUWORLD@@XZ 00401600 f i 12view.obj
 0001:00000630       ?SetVRP@CDrawView@@UAEXUWORLD@@@Z 00401630 f i 12view.obj
 0001:00000660       ?GetVPN@CDrawView@@UAE?AUWORLD@@XZ 00401660 f i 12view.obj
 0001:00000690       ?SetVPN@CDrawView@@UAEXUWORLD@@@Z 00401690 f i 12view.obj
 0001:000006c0       ?GetVUP@CDrawView@@UAE?AUWORLD@@XZ 004016c0 f i 12view.obj
 0001:000006f0       ?SetVUP@CDrawView@@UAEXUWORLD@@@Z 004016f0 f i 12view.obj
 0001:00000720       ?GetVDir@CDrawView@@UAE?AUWORLD@@XZ 00401720 f i 12view.obj
 0001:00000750       ?SetVDir@CDrawView@@UAEXUWORLD@@@Z 00401750 f i 12view.obj
 0001:00000780       ?GetPRP@CDrawView@@UAE?AUWORLD@@XZ 00401780 f i 12view.obj
 0001:000007b0       ?SetPRP@CDrawView@@UAEXUWORLD@@@Z 004017b0 f i 12view.obj
 0001:000007e0       ?GetUmin@CDrawView@@UAENXZ 004017e0 f i 12view.obj
 0001:00000800       ?SetUmin@CDrawView@@UAEXN@Z 00401800 f i 12view.obj
 0001:00000830       ?GetUmax@CDrawView@@UAENXZ 00401830 f i 12view.obj
 0001:00000850       ?SetUmax@CDrawView@@UAEXN@Z 00401850 f i 12view.obj
 0001:00000880       ?GeVmin@CDrawView@@UAENXZ  00401880 f i 12view.obj
 0001:000008a0       ?SetVmin@CDrawView@@UAEXN@Z 004018a0 f i 12view.obj
 0001:000008d0       ?GetVmax@CDrawView@@UAENXZ 004018d0 f i 12view.obj
 0001:000008f0       ?SetVmax@CDrawView@@UAEXN@Z 004018f0 f i 12view.obj
 0001:00000920       ?GetFront@CDrawView@@UAENXZ 00401920 f i 12view.obj
 0001:00000940       ?SetFront@CDrawView@@UAEXN@Z 00401940 f i 12view.obj
 0001:00000970       ?GetBack@CDrawView@@UAENXZ 00401970 f i 12view.obj
 0001:00000990       ?SetBack@CDrawView@@UAEXN@Z 00401990 f i 12view.obj
 0001:000009c0       ?GetzMin@CDrawView@@UAENXZ 004019c0 f i 12view.obj
 0001:000009e0       ?SetzMin@CDrawView@@UAEXN@Z 004019e0 f i 12view.obj
 0001:00000a10       ?GetVPmin@CDrawView@@UAE?AUWORLD@@XZ 00401a10 f i 12view.obj
 0001:00000a40       ?SetVPmin@CDrawView@@UAEXUWORLD@@@Z 00401a40 f i 12view.obj
 0001:00000a70       ?GetVPmax@CDrawView@@UAE?AUWORLD@@XZ 00401a70 f i 12view.obj
 0001:00000aa0       ?SetVPmax@CDrawView@@UAEXUWORLD@@@Z 00401aa0 f i 12view.obj
 0001:00000ad0       ?GetScalevv3DToLP@CDrawView@@UAEXPAN0@Z 00401ad0 f i 12view.obj
 0001:00000b20       ?GetOpMode@CDrawView@@UAE?AW4OPMODE@@XZ 00401b20 f i 12view.obj
 0001:00000b40       ?SetOpMode@CDrawView@@UAEXW4OPMODE@@@Z 00401b40 f i 12view.obj
 0001:00000b70       ?GetRnMode@CDrawView@@UAE?AW4RENDITION@@XZ 00401b70 f i 12view.obj
 0001:00000b90       ?SetRnMode@CDrawView@@UAEXW4RENDITION@@@Z 00401b90 f i 12view.obj
 0001:00000bc0       ?IsRendChanged@CDrawView@@UAEHXZ 00401bc0 f i 12view.obj
 0001:00000be0       ?SetRendChanged@CDrawView@@UAEXH@Z 00401be0 f i 12view.obj
 0001:00000c10       ?GetGenMode@CDrawView@@UAE?AW4GENERATE@@XZ 00401c10 f i 12view.obj
 0001:00000c30       ??_EC12View@@UAEPAXI@Z     00401c30 f i 12view.obj
 0001:00000c30       ??_GC12View@@UAEPAXI@Z     00401c30 f i 12view.obj
 0001:00000c70       ??1C12View@@UAE@XZ         00401c70 f   12view.obj
 0001:00000ca0       ?OnInitialUpdate@C12View@@MAEXXZ 00401ca0 f   12view.obj
 0001:00000cf0       ?OnUpdate@C12View@@MAEXPAVCView@@JPAVCObject@@@Z 00401cf0 f   12view.obj
 0001:00000d80       ?GetObjectMgr@CDrGrafDoc@@QAEPAVCObjectMgr@@XZ 00401d80 f i 12view.obj
 0001:00000da0       ?GetActiveObjectIndex@C12View@@UAEHXZ 00401da0 f   12view.obj
 0001:00000dd0       ?GetObjectCount@C12View@@UAEHXZ 00401dd0 f   12view.obj
 0001:00000e00       ?ChangeSelectionNextObjectIndex@C12View@@UAEXH@Z 00401e00 f   12view.obj
 0001:00000e40       ?ChangeSelectionToObjectIndex@C12View@@UAEXH@Z 00401e40 f   12view.obj
 0001:00000e80       ?OnDrawObject@C12View@@UAEXPAVCDC@@HHH@Z 00401e80 f   12view.obj
 0001:00000ed0       ?OnDraw@C12View@@UAEXPAVCDC@@@Z 00401ed0 f   12view.obj
 0001:00000f90       ?OnPreparePrinting@C12View@@MAEHPAUCPrintInfo@@@Z 00401f90 f   12view.obj
 0001:00000fc0       ?OnBeginPrinting@C12View@@MAEXPAVCDC@@PAUCPrintInfo@@@Z 00401fc0 f   12view.obj
 0001:00000fe0       ?OnEndPrinting@C12View@@MAEXPAVCDC@@PAUCPrintInfo@@@Z 00401fe0 f   12view.obj
 0001:00001000       ?IsSelected@C12View@@MBEHPBVCObject@@@Z 00402000 f   12view.obj
 0001:00001030       ?OnInsertObject@C12View@@IAEXXZ 00402030 f   12view.obj
 0001:00001300       ??1AFX_EXCEPTION_LINK@@QAE@XZ 00402300 f i 12view.obj
 0001:00001320       ?OnCancelEditCntr@C12View@@IAEXXZ 00402320 f   12view.obj
 0001:000013b0       ?OnSetFocus@C12View@@IAEXPAVCWnd@@@Z 004023b0 f   12view.obj
 0001:00001460       ?GetActiveViewNumber@CDrGrafFrame@@QAEHXZ 00402460 f i 12view.obj
 0001:00001480       ?SetActiveViewNumber@CDrGrafFrame@@QAEXH@Z 00402480 f i 12view.obj
 0001:000014b0       ?OnMouseActivate@C12View@@IAEHPAVCWnd@@II@Z 004024b0 f   12view.obj
 0001:00001510       ?OnCancelEditSrvr@C12View@@IAEXXZ 00402510 f   12view.obj
 0001:00001540       ?AssertValid@C12View@@UBEXXZ 00402540 f   12view.obj
 0001:00001560       ?Dump@C12View@@UBEXAAVCDumpContext@@@Z 00402560 f   12view.obj
 0001:00001590       ?GetDocument@C12View@@QAEPAVCDrGrafDoc@@XZ 00402590 f   12view.obj
 0001:000015e0       ?OnCreate@C12View@@IAEHPAUtagCREATESTRUCTA@@@Z 004025e0 f   12view.obj
 0001:00001610       ?OnMouseMove@C12View@@IAEXIVCPoint@@@Z 00402610 f   12view.obj
 0001:00001640       ?OnLButtonDown@C12View@@IAEXIVCPoint@@@Z 00402640 f   12view.obj
 0001:00001680       ?OnLButtonUp@C12View@@IAEXIVCPoint@@@Z 00402680 f   12view.obj
 0001:000016b0       ?OnRButtonDown@C12View@@IAEXIVCPoint@@@Z 004026b0 f   12view.obj
 0001:000016f0       ?OnRButtonUp@C12View@@IAEXIVCPoint@@@Z 004026f0 f   12view.obj
 0001:00001720       ?CreateObject@C23View@@SGPAVCObject@@XZ 00402720 f   23view.obj
 0001:00001790       ?_GetBaseClass@C23View@@KGPAUCRuntimeClass@@XZ 00402790 f   23view.obj
 0001:000017b0       ?GetRuntimeClass@C23View@@UBEPAUCRuntimeClass@@XZ 004027b0 f   23view.obj
 0001:000017d0       ?_GetBaseMessageMap@C23View@@KGPBUAFX_MSGMAP@@XZ 004027d0 f   23view.obj
 0001:000017f0       ?GetMessageMap@C23View@@MBEPBUAFX_MSGMAP@@XZ 004027f0 f   23view.obj
 0001:00001810       ??0C23View@@IAE@XZ         00402810 f   23view.obj
 0001:00001850       ??_EC23View@@UAEPAXI@Z     00402850 f i 23view.obj
 0001:00001850       ??_GC23View@@UAEPAXI@Z     00402850 f i 23view.obj
 0001:00001890       ??1C23View@@UAE@XZ         00402890 f   23view.obj
 0001:000018c0       ?OnInitialUpdate@C23View@@MAEXXZ 004028c0 f   23view.obj
 0001:00001920       ?OnUpdate@C23View@@MAEXPAVCView@@JPAVCObject@@@Z 00402920 f   23view.obj
 0001:000019b0       ?GetActiveObjectIndex@C23View@@UAEHXZ 004029b0 f   23view.obj
 0001:000019e0       ?GetObjectCount@C23View@@UAEHXZ 004029e0 f   23view.obj
 0001:00001a10       ?ChangeSelectionNextObjectIndex@C23View@@UAEXH@Z 00402a10 f   23view.obj
 0001:00001a50       ?ChangeSelectionToObjectIndex@C23View@@UAEXH@Z 00402a50 f   23view.obj
 0001:00001a90       ?OnDrawObject@C23View@@UAEXPAVCDC@@HHH@Z 00402a90 f   23view.obj
 0001:00001ae0       ?OnDraw@C23View@@UAEXPAVCDC@@@Z 00402ae0 f   23view.obj
 0001:00001ba0       ?OnPreparePrinting@C23View@@MAEHPAUCPrintInfo@@@Z 00402ba0 f   23view.obj
 0001:00001bd0       ?OnBeginPrinting@C23View@@MAEXPAVCDC@@PAUCPrintInfo@@@Z 00402bd0 f   23view.obj
 0001:00001bf0       ?OnEndPrinting@C23View@@MAEXPAVCDC@@PAUCPrintInfo@@@Z 00402bf0 f   23view.obj
 0001:00001c10       ?IsSelected@C23View@@MBEHPBVCObject@@@Z 00402c10 f   23view.obj
 0001:00001c40       ?OnInsertObject@C23View@@IAEXXZ 00402c40 f   23view.obj
 0001:00001f10       ?OnCancelEditCntr@C23View@@IAEXXZ 00402f10 f   23view.obj
 0001:00001fa0       ?OnSetFocus@C23View@@IAEXPAVCWnd@@@Z 00402fa0 f   23view.obj
 0001:00002050       ?OnMouseActivate@C23View@@IAEHPAVCWnd@@II@Z 00403050 f   23view.obj
 0001:000020b0       ?OnCancelEditSrvr@C23View@@IAEXXZ 004030b0 f   23view.obj
 0001:000020e0       ?AssertValid@C23View@@UBEXXZ 004030e0 f   23view.obj
 0001:00002100       ?Dump@C23View@@UBEXAAVCDumpContext@@@Z 00403100 f   23view.obj
 0001:00002130       ?GetDocument@C23View@@QAEPAVCDrGrafDoc@@XZ 00403130 f   23view.obj
 0001:00002180       ?OnCreate@C23View@@IAEHPAUtagCREATESTRUCTA@@@Z 00403180 f   23view.obj
 0001:000021b0       ?OnMouseMove@C23View@@IAEXIVCPoint@@@Z 004031b0 f   23view.obj
 0001:000021e0       ?OnLButtonDown@C23View@@IAEXIVCPoint@@@Z 004031e0 f   23view.obj
 0001:00002220       ?OnLButtonUp@C23View@@IAEXIVCPoint@@@Z 00403220 f   23view.obj
 0001:00002250       ?OnRButtonDown@C23View@@IAEXIVCPoint@@@Z 00403250 f   23view.obj
 0001:00002290       ?OnRButtonUp@C23View@@IAEXIVCPoint@@@Z 00403290 f   23view.obj
 0001:000022c0       ?CreateObject@C31View@@SGPAVCObject@@XZ 004032c0 f   31view.obj
 0001:00002330       ?_GetBaseClass@C31View@@KGPAUCRuntimeClass@@XZ 00403330 f   31view.obj
 0001:00002350       ?GetRuntimeClass@C31View@@UBEPAUCRuntimeClass@@XZ 00403350 f   31view.obj
 0001:00002370       ?_GetBaseMessageMap@C31View@@KGPBUAFX_MSGMAP@@XZ 00403370 f   31view.obj
 0001:00002390       ?GetMessageMap@C31View@@MBEPBUAFX_MSGMAP@@XZ 00403390 f   31view.obj
 0001:000023b0       ??0C31View@@IAE@XZ         004033b0 f   31view.obj
 0001:000023f0       ??_EC31View@@UAEPAXI@Z     004033f0 f i 31view.obj
 0001:000023f0       ??_GC31View@@UAEPAXI@Z     004033f0 f i 31view.obj
 0001:00002430       ??1C31View@@UAE@XZ         00403430 f   31view.obj
 0001:00002460       ?OnInitialUpdate@C31View@@MAEXXZ 00403460 f   31view.obj
 0001:000024c0       ?OnUpdate@C31View@@MAEXPAVCView@@JPAVCObject@@@Z 004034c0 f   31view.obj
 0001:00002550       ?GetActiveObjectIndex@C31View@@UAEHXZ 00403550 f   31view.obj
 0001:00002580       ?GetObjectCount@C31View@@UAEHXZ 00403580 f   31view.obj
 0001:000025b0       ?ChangeSelectionNextObjectIndex@C31View@@UAEXH@Z 004035b0 f   31view.obj
 0001:000025f0       ?ChangeSelectionToObjectIndex@C31View@@UAEXH@Z 004035f0 f   31view.obj
 0001:00002630       ?OnDrawObject@C31View@@UAEXPAVCDC@@HHH@Z 00403630 f   31view.obj
 0001:00002680       ?OnDraw@C31View@@UAEXPAVCDC@@@Z 00403680 f   31view.obj
 0001:00002740       ?OnPreparePrinting@C31View@@MAEHPAUCPrintInfo@@@Z 00403740 f   31view.obj
 0001:00002770       ?OnBeginPrinting@C31View@@MAEXPAVCDC@@PAUCPrintInfo@@@Z 00403770 f   31view.obj
 0001:00002790       ?OnEndPrinting@C31View@@MAEXPAVCDC@@PAUCPrintInfo@@@Z 00403790 f   31view.obj
 0001:000027b0       ?IsSelected@C31View@@MBEHPBVCObject@@@Z 004037b0 f   31view.obj
 0001:000027e0       ?OnInsertObject@C31View@@IAEXXZ 004037e0 f   31view.obj
 0001:00002ab0       ?OnCancelEditCntr@C31View@@IAEXXZ 00403ab0 f   31view.obj
 0001:00002b40       ?OnSetFocus@C31View@@IAEXPAVCWnd@@@Z 00403b40 f   31view.obj
 0001:00002bf0       ?OnMouseActivate@C31View@@IAEHPAVCWnd@@II@Z 00403bf0 f   31view.obj
 0001:00002c50       ?OnCancelEditSrvr@C31View@@IAEXXZ 00403c50 f   31view.obj
 0001:00002c80       ?AssertValid@C31View@@UBEXXZ 00403c80 f   31view.obj
 0001:00002ca0       ?Dump@C31View@@UBEXAAVCDumpContext@@@Z 00403ca0 f   31view.obj
 0001:00002cd0       ?GetDocument@C31View@@QAEPAVCDrGrafDoc@@XZ 00403cd0 f   31view.obj
 0001:00002d20       ?OnCreate@C31View@@IAEHPAUtagCREATESTRUCTA@@@Z 00403d20 f   31view.obj
 0001:00002d50       ?OnMouseMove@C31View@@IAEXIVCPoint@@@Z 00403d50 f   31view.obj
 0001:00002d80       ?OnLButtonDown@C31View@@IAEXIVCPoint@@@Z 00403d80 f   31view.obj
 0001:00002dc0       ?OnLButtonUp@C31View@@IAEXIVCPoint@@@Z 00403dc0 f   31view.obj
 0001:00002df0       ?OnRButtonDown@C31View@@IAEXIVCPoint@@@Z 00403df0 f   31view.obj
 0001:00002e30       ?OnRButtonUp@C31View@@IAEXIVCPoint@@@Z 00403e30 f   31view.obj
 0001:00002e60       ?CreateObject@C3DView@@SGPAVCObject@@XZ 00403e60 f   3dview.obj
 0001:00002ed0       ?_GetBaseClass@C3DView@@KGPAUCRuntimeClass@@XZ 00403ed0 f   3dview.obj
 0001:00002ef0       ?GetRuntimeClass@C3DView@@UBEPAUCRuntimeClass@@XZ 00403ef0 f   3dview.obj
 0001:00002f10       ?_GetBaseMessageMap@C3DView@@KGPBUAFX_MSGMAP@@XZ 00403f10 f   3dview.obj
 0001:00002f30       ?GetMessageMap@C3DView@@MBEPBUAFX_MSGMAP@@XZ 00403f30 f   3dview.obj
 0001:00002f50       ??0C3DView@@IAE@XZ         00403f50 f   3dview.obj
 0001:00002f90       ??_EC3DView@@UAEPAXI@Z     00403f90 f i 3dview.obj
 0001:00002f90       ??_GC3DView@@UAEPAXI@Z     00403f90 f i 3dview.obj
 0001:00002fd0       ??1C3DView@@UAE@XZ         00403fd0 f   3dview.obj
 0001:00003000       ?OnInitialUpdate@C3DView@@MAEXXZ 00404000 f   3dview.obj
 0001:00003050       ?OnUpdate@C3DView@@UAEXPAVCView@@JPAVCObject@@@Z 00404050 f   3dview.obj
 0001:000030e0       ?GetActiveObjectIndex@C3DView@@UAEHXZ 004040e0 f   3dview.obj
 0001:00003110       ?GetObjectCount@C3DView@@UAEHXZ 00404110 f   3dview.obj
 0001:00003140       ?ChangeSelectionNextObjectIndex@C3DView@@UAEXH@Z 00404140 f   3dview.obj
 0001:00003180       ?ChangeSelectionToObjectIndex@C3DView@@UAEXH@Z 00404180 f   3dview.obj
 0001:000031c0       ?OnDrawObject@C3DView@@UAEXPAVCDC@@HHH@Z 004041c0 f   3dview.obj
 0001:00003210       ?OnDraw@C3DView@@UAEXPAVCDC@@@Z 00404210 f   3dview.obj
 0001:000032d0       ?OnPreparePrinting@C3DView@@MAEHPAUCPrintInfo@@@Z 004042d0 f   3dview.obj
 0001:00003300       ?OnBeginPrinting@C3DView@@MAEXPAVCDC@@PAUCPrintInfo@@@Z 00404300 f   3dview.obj
 0001:00003320       ?OnEndPrinting@C3DView@@MAEXPAVCDC@@PAUCPrintInfo@@@Z 00404320 f   3dview.obj
 0001:00003340       ?IsSelected@C3DView@@MBEHPBVCObject@@@Z 00404340 f   3dview.obj
 0001:00003370       ?OnInsertObject@C3DView@@IAEXXZ 00404370 f   3dview.obj
 0001:00003640       ?OnCancelEditCntr@C3DView@@IAEXXZ 00404640 f   3dview.obj
 0001:000036d0       ?OnSetFocus@C3DView@@IAEXPAVCWnd@@@Z 004046d0 f   3dview.obj
 0001:00003780       ?OnMouseActivate@C3DView@@IAEHPAVCWnd@@II@Z 00404780 f   3dview.obj
 0001:000038a0       ?AssertValid@C3DView@@UBEXXZ 004048a0 f   3dview.obj
 0001:000038c0       ?Dump@C3DView@@UBEXAAVCDumpContext@@@Z 004048c0 f   3dview.obj
 0001:000038f0       ?GetDocument@C3DView@@QAEPAVCDrGrafDoc@@XZ 004048f0 f   3dview.obj
 0001:00003940       ?OnCreate@C3DView@@IAEHPAUtagCREATESTRUCTA@@@Z 00404940 f   3dview.obj
 0001:00003970       ?OnMouseMove@C3DView@@IAEXIVCPoint@@@Z 00404970 f   3dview.obj
 0001:000039a0       ?OnLButtonDown@C3DView@@IAEXIVCPoint@@@Z 004049a0 f   3dview.obj
 0001:000039e0       ?OnLButtonUp@C3DView@@IAEXIVCPoint@@@Z 004049e0 f   3dview.obj
 0001:00003a10       ?OnRButtonDown@C3DView@@IAEXIVCPoint@@@Z 00404a10 f   3dview.obj
 0001:00003a50       ?OnRButtonUp@C3DView@@IAEXIVCPoint@@@Z 00404a50 f   3dview.obj
 0001:00003a80       ?_GetBaseMessageMap@CAboutBox@@KGPBUAFX_MSGMAP@@XZ 00404a80 f   Aboutbox.obj
 0001:00003aa0       ?GetMessageMap@CAboutBox@@MBEPBUAFX_MSGMAP@@XZ 00404aa0 f   Aboutbox.obj
 0001:00003ac0       ??0CAboutBox@@QAE@PAVCWnd@@@Z 00404ac0 f   Aboutbox.obj
 0001:00003b60       ??_GCAboutBox@@UAEPAXI@Z   00404b60 f i Aboutbox.obj
 0001:00003b60       ??_ECAboutBox@@UAEPAXI@Z   00404b60 f i Aboutbox.obj
 0001:00003ba0       ??1CBitmapButton@@UAE@XZ   00404ba0 f i Aboutbox.obj
 0001:00003c20       ??0CBigIcon@@QAE@XZ        00404c20 f i Aboutbox.obj
 0001:00003c50       ??1CBigIcon@@UAE@XZ        00404c50 f i Aboutbox.obj
 0001:00003c70       ??1CAboutBox@@UAE@XZ       00404c70 f i Aboutbox.obj
 0001:00003ce0       ??_ECBigIcon@@UAEPAXI@Z    00404ce0 f i Aboutbox.obj
 0001:00003ce0       ??_GCBigIcon@@UAEPAXI@Z    00404ce0 f i Aboutbox.obj
 0001:00003d20       ?DoDataExchange@CAboutBox@@MAEXPAVCDataExchange@@@Z 00404d20 f   Aboutbox.obj
 0001:00003d50       ?OnInitDialog@CAboutBox@@MAEHXZ 00404d50 f   Aboutbox.obj
 0001:00003ea0       ?_GetBaseMessageMap@CSplashWnd@@KGPBUAFX_MSGMAP@@XZ 00404ea0 f   Aboutbox.obj
 0001:00003ec0       ?GetMessageMap@CSplashWnd@@MBEPBUAFX_MSGMAP@@XZ 00404ec0 f   Aboutbox.obj
 0001:00003ee0       ?DoDataExchange@CSplashWnd@@MAEXPAVCDataExchange@@@Z 00404ee0 f   Aboutbox.obj
 0001:00003f10       ?Create@CSplashWnd@@QAEHPAVCWnd@@@Z 00404f10 f   Aboutbox.obj
 0001:00003f60       ?OnInitDialog@CSplashWnd@@MAEHXZ 00404f60 f   Aboutbox.obj
 0001:00003fb0       ?_GetBaseMessageMap@CBigIcon@@KGPBUAFX_MSGMAP@@XZ 00404fb0 f   Aboutbox.obj
 0001:00003fd0       ?GetMessageMap@CBigIcon@@MBEPBUAFX_MSGMAP@@XZ 00404fd0 f   Aboutbox.obj
 0001:00003ff0       ?SizeToContent@CBigIcon@@QAEXXZ 00404ff0 f   Aboutbox.obj
 0001:00004040       ?DrawItem@CBigIcon@@MAEXPAUtagDRAWITEMSTRUCT@@@Z 00405040 f   Aboutbox.obj
 0001:00004320       ?OnEraseBkgnd@CBigIcon@@IAEHPAVCDC@@@Z 00405320 f   Aboutbox.obj
 0001:00004340       ?CreateObject@CAppDlgMgr@@SGPAVCObject@@XZ 00405340 f   ADlgMgr.obj
 0001:000043b0       ?_GetBaseClass@CAppDlgMgr@@KGPAUCRuntimeClass@@XZ 004053b0 f   ADlgMgr.obj
 0001:000043d0       ?GetRuntimeClass@CAppDlgMgr@@UBEPAUCRuntimeClass@@XZ 004053d0 f   ADlgMgr.obj
 0001:00004430       ??0AFX_CLASSINIT@@QAE@PAUCRuntimeClass@@@Z 00405430 f i ADlgMgr.obj
 0001:00004460       ??5@YGAAVCArchive@@AAV0@AAPAVCAppDlgMgr@@@Z 00405460 f   ADlgMgr.obj
 0001:00004490       ??0CAppDlgMgr@@QAE@XZ      00405490 f   ADlgMgr.obj
 0001:000044c0       ??_GCAppDlgMgr@@UAEPAXI@Z  004054c0 f i ADlgMgr.obj
 0001:000044c0       ??_ECAppDlgMgr@@UAEPAXI@Z  004054c0 f i ADlgMgr.obj
 0001:00004500       ??1CAppDlgMgr@@UAE@XZ      00405500 f   ADlgMgr.obj
 0001:00004530       ?SetResource@CAppDlgMgr@@IAEPAUHINSTANCE__@@XZ 00405530 f   ADlgMgr.obj
 0001:000045e0       ?RestoreResource@CAppDlgMgr@@IAEXPAUHINSTANCE__@@@Z 004055e0 f   ADlgMgr.obj
 0001:00004660       ?DebugList_AddString@CAppDlgMgr@@QAEHAAVCString@@@Z 00405660 f   ADlgMgr.obj
 0001:000046d0       ?IsDebugCTim@CDrGrafFrame@@QAEHXZ 004056d0 f i ADlgMgr.obj
 0001:000046f0       ?GetDlg_CTim@CDrGrafFrame@@QAEPAVCDlg_CTim@@XZ 004056f0 f i ADlgMgr.obj
 0001:00004710       ?Serialize@CAppDlgMgr@@UAEXAAVCArchive@@@Z 00405710 f   ADlgMgr.obj
 0001:00004760       ?CreateObject@CAxDataVu@@SGPAVCObject@@XZ 00405760 f   AxDataVu.obj
 0001:000047d0       ?_GetBaseClass@CAxDataVu@@KGPAUCRuntimeClass@@XZ 004057d0 f   AxDataVu.obj
 0001:000047f0       ?GetRuntimeClass@CAxDataVu@@UBEPAUCRuntimeClass@@XZ 004057f0 f   AxDataVu.obj
 0001:00004810       ??0CAxDataVu@@IAE@XZ       00405810 f   AxDataVu.obj
 0001:00004840       ?CalculateRowMetrics@CRowView@@MAEXPAVCDC@@@Z 00405840 f i AxDataVu.obj
 0001:00004880       ??_ECAxDataVu@@MAEPAXI@Z   00405880 f i AxDataVu.obj
 0001:00004880       ??_GCAxDataVu@@MAEPAXI@Z   00405880 f i AxDataVu.obj
 0001:000048c0       ??1CAxDataVu@@MAE@XZ       004058c0 f   AxDataVu.obj
 0001:00004920       ?_GetBaseMessageMap@CAxDataVu@@KGPBUAFX_MSGMAP@@XZ 00405920 f   AxDataVu.obj
 0001:00004940       ?GetMessageMap@CAxDataVu@@MBEPBUAFX_MSGMAP@@XZ 00405940 f   AxDataVu.obj
 0001:00004960       ?OnUpdate@CAxDataVu@@UAEXPAVCView@@JPAVCObject@@@Z 00405960 f   AxDataVu.obj
 0001:000049c0       ?GetRowWidthHeight@CAxDataVu@@UAEXPAVCDC@@AAH1@Z 004059c0 f   AxDataVu.obj
 0001:00004ac0       ?GetDocument@CDrGrafApp@@QAEPAVCDrGrafDoc@@XZ 00405ac0 f i AxDataVu.obj
 0001:00004ae0       ?GetActiveRow@CAxDataVu@@UAEHXZ 00405ae0 f   AxDataVu.obj
 0001:00004b20       ?GetDocument@CAxDataVu@@QAEPAVCDrGrafDoc@@XZ 00405b20 f i AxDataVu.obj
 0001:00004b70       ?GetRowCount@CAxDataVu@@UAEHXZ 00405b70 f   AxDataVu.obj
 0001:00004bb0       ?GetAxObjMgr@CDrGrafDoc@@QAEPAVCAxObjMgr@@XZ 00405bb0 f i AxDataVu.obj
 0001:00004bd0       ?ChangeSelectionNextRow@CAxDataVu@@UAEXH@Z 00405bd0 f   AxDataVu.obj
 0001:00004c10       ?ChangeSelectionToRow@CAxDataVu@@UAEXH@Z 00405c10 f   AxDataVu.obj
 0001:00004c50       ?OnDrawRow@CAxDataVu@@UAEXPAVCDC@@HHH@Z 00405c50 f   AxDataVu.obj
 0001:00004db0       ?OnLButtonDown@CAxDataVu@@IAEXIVCPoint@@@Z 00405db0 f   AxDataVu.obj
 0001:00004eb0       ?_GetBaseClass@CAxDrawVu@@KGPAUCRuntimeClass@@XZ 00405eb0 f   AxDrawVu.obj
 0001:00004ed0       ?GetRuntimeClass@CAxDrawVu@@UBEPAUCRuntimeClass@@XZ 00405ed0 f   AxDrawVu.obj
 0001:00004ef0       ?_GetBaseMessageMap@CAxDrawVu@@KGPBUAFX_MSGMAP@@XZ 00405ef0 f   AxDrawVu.obj
 0001:00004f10       ?GetMessageMap@CAxDrawVu@@MBEPBUAFX_MSGMAP@@XZ 00405f10 f   AxDrawVu.obj
 0001:00004f30       ?AssertValid@CAxDrawVu@@UBEXXZ 00405f30 f   AxDrawVu.obj
 0001:00004f50       ?Dump@CAxDrawVu@@UBEXAAVCDumpContext@@@Z 00405f50 f   AxDrawVu.obj
 0001:00004f80       ??0CAxDrawVu@@IAE@XZ       00405f80 f   AxDrawVu.obj
 0001:00005120       ??0CDVM_Genr@@QAE@XZ       00406120 f i AxDrawVu.obj
 0001:00005150       ??1CDVM_Genr@@UAE@XZ       00406150 f i AxDrawVu.obj
 0001:00005180       ??_GCDVM_Genr@@UAEPAXI@Z   00406180 f i AxDrawVu.obj
 0001:00005180       ??_ECDVM_Genr@@UAEPAXI@Z   00406180 f i AxDrawVu.obj
 0001:000051c0       ??0CDVM_Edit@@QAE@XZ       004061c0 f i AxDrawVu.obj
 0001:000051f0       ??1CDVM_Edit@@UAE@XZ       004061f0 f i AxDrawVu.obj
 0001:00005220       ??_ECDVM_Edit@@UAEPAXI@Z   00406220 f i AxDrawVu.obj
 0001:00005220       ??_GCDVM_Edit@@UAEPAXI@Z   00406220 f i AxDrawVu.obj
 0001:00005260       ??0CDVM_Del@@QAE@XZ        00406260 f i AxDrawVu.obj
 0001:00005290       ??1CDVM_Del@@UAE@XZ        00406290 f i AxDrawVu.obj
 0001:000052c0       ??_ECDVM_Del@@UAEPAXI@Z    004062c0 f i AxDrawVu.obj
 0001:000052c0       ??_GCDVM_Del@@UAEPAXI@Z    004062c0 f i AxDrawVu.obj
 0001:00005300       ?GetViewNum@CAxDrawVu@@UAEHXZ 00406300 f i AxDrawVu.obj
 0001:00005320       ?GetViewMapMode@CAxDrawVu@@UAEHXZ 00406320 f i AxDrawVu.obj
 0001:00005340       ?GetDocSize@CAxDrawVu@@UAE?AVCSize@@XZ 00406340 f i AxDrawVu.obj
 0001:00005370       ?GetFOV@CAxDrawVu@@UAE?AVCSize@@XZ 00406370 f i AxDrawVu.obj
 0001:000053a0       ?SetFOV@CAxDrawVu@@UAEXVCSize@@@Z 004063a0 f i AxDrawVu.obj
 0001:000053d0       ?GetViewSize@CAxDrawVu@@UAE?AVCSize@@XZ 004063d0 f i AxDrawVu.obj
 0001:00005400       ?SetViewSize@CAxDrawVu@@UAEXVCSize@@@Z 00406400 f i AxDrawVu.obj
 0001:00005430       ?GetCW@CAxDrawVu@@UAE?AUWORLD@@XZ 00406430 f i AxDrawVu.obj
 0001:00005460       ?SetCW@CAxDrawVu@@UAEXUWORLD@@@Z 00406460 f i AxDrawVu.obj
 0001:00005490       ?GetCWDim@CAxDrawVu@@UAEXPAN0@Z 00406490 f i AxDrawVu.obj
 0001:000054e0       ?SetCWDim@CAxDrawVu@@UAEXNN@Z 004064e0 f i AxDrawVu.obj
 0001:00005520       ?GetZoomFac@CAxDrawVu@@UAEXPAN0@Z 00406520 f i AxDrawVu.obj
 0001:00005570       ?SetZoomFac@CAxDrawVu@@UAEXNN@Z 00406570 f i AxDrawVu.obj
 0001:000055b0       ?GetViewScale@CAxDrawVu@@UAEXPAN0@Z 004065b0 f i AxDrawVu.obj
 0001:00005600       ?SetViewScale@CAxDrawVu@@UAEXNN@Z 00406600 f i AxDrawVu.obj
 0001:00005640       ?GetScalevv3DToLP@CAxDrawVu@@UAEXPAN0@Z 00406640 f i AxDrawVu.obj
 0001:00005690       ?GetOpMode@CAxDrawVu@@UAE?AW4OPMODE@@XZ 00406690 f i AxDrawVu.obj
 0001:000056b0       ?SetOpMode@CAxDrawVu@@UAEXW4OPMODE@@@Z 004066b0 f i AxDrawVu.obj
 0001:000056e0       ?GetGenMode@CAxDrawVu@@UAE?AW4GENERATE@@XZ 004066e0 f i AxDrawVu.obj
 0001:00005700       ??_GCAxDrawVu@@UAEPAXI@Z   00406700 f i AxDrawVu.obj
 0001:00005700       ??_ECAxDrawVu@@UAEPAXI@Z   00406700 f i AxDrawVu.obj
 0001:00005740       ??1CAxisDraw@@UAE@XZ       00406740 f i AxDrawVu.obj
 0001:00005760       ??1CAxDrawVu@@UAE@XZ       00406760 f   AxDrawVu.obj
 0001:00005810       ?PreCreateWindow@CAxDrawVu@@MAEHAAUtagCREATESTRUCTA@@@Z 00406810 f   AxDrawVu.obj
 0001:00005870       ?OnCommandHelp@CAxDrawVu@@QAEJIJ@Z 00406870 f   AxDrawVu.obj
 0001:000058d0       ?OnHelpHitTest@CAxDrawVu@@QAEJIJ@Z 004068d0 f   AxDrawVu.obj
 0001:00005900       ?OnPrepareDC@CAxDrawVu@@UAEXPAVCDC@@PAUCPrintInfo@@@Z 00406900 f   AxDrawVu.obj
 0001:000059a0       ?SetScalevv3DToLP@CAxDrawVu@@UAEXXZ 004069a0 f   AxDrawVu.obj
 0001:00005a30       ?GetMatrix@CAxDrawVu@@UAEPAUMATRIX@@W4MATRICES@@@Z 00406a30 f   AxDrawVu.obj
 0001:00005ac0       ?SetMatrix@CAxDrawVu@@UAEXW4MATRICES@@PAUMATRIX@@@Z 00406ac0 f   AxDrawVu.obj
 0001:00005b60       ?OnInitialUpdate@CAxDrawVu@@UAEXXZ 00406b60 f   AxDrawVu.obj
 0001:000061d0       ?GetOperStat@CDrGrafFrame@@QAEPAVCStatCntl@@XZ 004071d0 f i AxDrawVu.obj
 0001:000061f0       ?GetCurrStat@CDrGrafFrame@@QAEPAVCStatCntl@@XZ 004071f0 f i AxDrawVu.obj
 0001:00006210       ?UpdateAllOtherMatButLocal@CAxDrawVu@@IAEXXZ 00407210 f   AxDrawVu.obj
 0001:00006290       ?UpdateViewMatrix@CAxDrawVu@@UAEXXZ 00407290 f   AxDrawVu.obj
 0001:000063d0       ?UpdatePerToParMatrix@CAxDrawVu@@UAEXXZ 004073d0 f   AxDrawVu.obj
 0001:00006480       ?UpdateCombinedMatrix@CAxDrawVu@@UAEXXZ 00407480 f   AxDrawVu.obj
 0001:00006510       ?UpdateWin3DtoViewPort3DMatrix@CAxDrawVu@@UAEXXZ 00407510 f   AxDrawVu.obj
 0001:000065b0       ?UpdatePenultimateMatrix@CAxDrawVu@@UAEXXZ 004075b0 f   AxDrawVu.obj
 0001:00006640       ?UpdateUltimateMatrix@CAxDrawVu@@UAEXXZ 00407640 f   AxDrawVu.obj
 0001:00006670       ?UpdateObject@CAxDrawVu@@UAEXHHH@Z 00407670 f   AxDrawVu.obj
 0001:00006a50       ?OnDraw@CAxDrawVu@@UAEXPAVCDC@@@Z 00407a50 f   AxDrawVu.obj
 0001:00006b80       ?ShowScreenGrid@CAxDrawVu@@IAEXPAVCDC@@@Z 00407b80 f   AxDrawVu.obj
 0001:00006d40       ?ShowCurrentOptions@CAxDrawVu@@IAEXPAVCDC@@@Z 00407d40 f   AxDrawVu.obj
 0001:00006d60       ?GoDoAxis@CAxDrawVu@@IAEXPAVCDC@@@Z 00407d60 f   AxDrawVu.obj
 0001:00006d80       ?GoDoPoint@CAxDrawVu@@IAEXPAVCDC@@PAUtagPOINT@@AAVCString@@@Z 00407d80 f   AxDrawVu.obj
 0001:00006e20       ?GoDoLine@CAxDrawVu@@IAEXPAVCDC@@PAUtagPOINT@@1@Z 00407e20 f   AxDrawVu.obj
 0001:00006e70       ?GetObjectReadyforRender@CAxDrawVu@@UAEXPAVCDC@@PAVCDrObject@@H@Z 00407e70 f   AxDrawVu.obj
 0001:00006fb0       ?Pack_NSBools@CAxDrawVu@@IAEXQAH@Z 00407fb0 f   AxDrawVu.obj
 0001:00007080       ?GoRender@CAxDrawVu@@MAEXPAVCDC@@VCRect@@HH@Z 00408080 f   AxDrawVu.obj
 0001:000071c0       ?Transform@CAxDrawVu@@UAEXPAUWORLD@@0@Z 004081c0 f   AxDrawVu.obj
 0001:00007240       ?Project@CAxDrawVu@@UAEXPAUWORLD@@0H@Z 00408240 f   AxDrawVu.obj
 0001:00007330       ?MouseActivateViewMatUpdate@CAxDrawVu@@IAEXXZ 00408330 f   AxDrawVu.obj
 0001:000075b0       ?SetOpMode@CDrGrafFrame@@QAEXW4OPMODE@@@Z 004085b0 f i AxDrawVu.obj
 0001:000075e0       ?GetCurMenuID@CDrGrafFrame@@QAEIXZ 004085e0 f i AxDrawVu.obj
 0001:00007600       ?GetOperBox@CDrGrafFrame@@QAEPAVCMainBox@@XZ 00408600 f i AxDrawVu.obj
 0001:00007620       ?GetIGenBox@CDrGrafFrame@@QAEPAVCIGenBox@@XZ 00408620 f i AxDrawVu.obj
 0001:00007640       ?GetCntlBox@CDrGrafFrame@@QAEPAVCCntlBox@@XZ 00408640 f i AxDrawVu.obj
 0001:00007660       ?GetDrawBox@CDrGrafFrame@@QAEPAVCDrawBox@@XZ 00408660 f i AxDrawVu.obj
 0001:00007680       ?GetCntlStat@CDrGrafFrame@@QAEPAVCStatCntl@@XZ 00408680 f i AxDrawVu.obj
 0001:000076a0       ?GetIGenStat@CDrGrafFrame@@QAEPAVCStatCntl@@XZ 004086a0 f i AxDrawVu.obj
 0001:000076c0       ?GetDrawStat@CDrGrafFrame@@QAEPAVCStatCntl@@XZ 004086c0 f i AxDrawVu.obj
 0001:000076e0       ?GetAutoAcceptStat@CDrGrafFrame@@QAEPAVCStatCntl@@XZ 004086e0 f i AxDrawVu.obj
 0001:00007700       ?GetSingleSegStat@CDrGrafFrame@@QAEPAVCStatCntl@@XZ 00408700 f i AxDrawVu.obj
 0001:00007720       ?GetBLineStat@CDrGrafFrame@@QAEPAVCStatCntl@@XZ 00408720 f i AxDrawVu.obj
 0001:00007740       ?OnKeyDown@CAxDrawVu@@QAEXIII@Z 00408740 f   AxDrawVu.obj
 0001:00007840       ?OnCreate@CAxDrawVu@@QAEHPAUtagCREATESTRUCTA@@@Z 00408840 f   AxDrawVu.obj
 0001:000078d0       ?ShowAxes@CAxDrawVu@@IAEXXZ 004088d0 f   AxDrawVu.obj
 0001:000079b0       ?OnOptionAxison@CAxDrawVu@@QAEXXZ 004089b0 f   AxDrawVu.obj
 0001:00007a00       ?OnKillFocus@CAxDrawVu@@QAEXPAVCWnd@@@Z 00408a00 f   AxDrawVu.obj
 0001:00007a30       ?OnUpdateOptionAxison@CAxDrawVu@@QAEXPAVCCmdUI@@@Z 00408a30 f   AxDrawVu.obj
 0001:00007a70       ?OnOptionPenchange@CAxDrawVu@@QAEXXZ 00408a70 f   AxDrawVu.obj
 0001:00007aa0       ?OnUpdateOptionPenchange@CAxDrawVu@@QAEXPAVCCmdUI@@@Z 00408aa0 f   AxDrawVu.obj
 0001:00007ac0       ?OnOptionRefresh@CAxDrawVu@@QAEXXZ 00408ac0 f   AxDrawVu.obj
 0001:00007ae0       ?OnUpdateOptionRefresh@CAxDrawVu@@QAEXPAVCCmdUI@@@Z 00408ae0 f   AxDrawVu.obj
 0001:00007b00       ?OnEraseBkgnd@CAxDrawVu@@QAEHPAVCDC@@@Z 00408b00 f   AxDrawVu.obj
 0001:00007bb0       ?OnSetFocus@CAxDrawVu@@QAEXPAVCWnd@@@Z 00408bb0 f   AxDrawVu.obj
 0001:00007be0       ?OnNoShowCNodes@CAxDrawVu@@QAEXXZ 00408be0 f   AxDrawVu.obj
 0001:00007c20       ?OnUpdateNoShowCNodes@CAxDrawVu@@QAEXPAVCCmdUI@@@Z 00408c20 f   AxDrawVu.obj
 0001:00007c50       ?OnNoShowCNLabel@CAxDrawVu@@QAEXXZ 00408c50 f   AxDrawVu.obj
 0001:00007c90       ?OnUpdateNoShowCNLabel@CAxDrawVu@@QAEXPAVCCmdUI@@@Z 00408c90 f   AxDrawVu.obj
 0001:00007cc0       ?OnNoShowNodes@CAxDrawVu@@QAEXXZ 00408cc0 f   AxDrawVu.obj
 0001:00007d00       ?OnUpdateNoShowNodes@CAxDrawVu@@QAEXPAVCCmdUI@@@Z 00408d00 f   AxDrawVu.obj
 0001:00007d30       ?OnNoshowMnodes@CAxDrawVu@@QAEXXZ 00408d30 f   AxDrawVu.obj
 0001:00007d70       ?OnNoShowNLabel@CAxDrawVu@@QAEXXZ 00408d70 f   AxDrawVu.obj
 0001:00007db0       ?OnUpdateNoShowNLabel@CAxDrawVu@@QAEXPAVCCmdUI@@@Z 00408db0 f   AxDrawVu.obj
 0001:00007de0       ?OnUpdateNoshowMnodes@CAxDrawVu@@QAEXPAVCCmdUI@@@Z 00408de0 f   AxDrawVu.obj
 0001:00007e10       ?OnNoshowMnlabel@CAxDrawVu@@QAEXXZ 00408e10 f   AxDrawVu.obj
 0001:00007e50       ?OnUpdateNoshowMnlabel@CAxDrawVu@@QAEXPAVCCmdUI@@@Z 00408e50 f   AxDrawVu.obj
 0001:00007e80       ?OnNoShowCShape@CAxDrawVu@@QAEXXZ 00408e80 f   AxDrawVu.obj
 0001:00007ec0       ?OnUpdateNoShowCShape@CAxDrawVu@@QAEXPAVCCmdUI@@@Z 00408ec0 f   AxDrawVu.obj
 0001:00007ef0       ?OnNoshowCentroid@CAxDrawVu@@QAEXXZ 00408ef0 f   AxDrawVu.obj
 0001:00007f30       ?OnUpdateNoshowCentroid@CAxDrawVu@@QAEXPAVCCmdUI@@@Z 00408f30 f   AxDrawVu.obj
 0001:00007f60       ?OnNoshowDCurve@CAxDrawVu@@QAEXXZ 00408f60 f   AxDrawVu.obj
 0001:00007fa0       ?OnUpdateNoshowDCurve@CAxDrawVu@@QAEXPAVCCmdUI@@@Z 00408fa0 f   AxDrawVu.obj
 0001:00007fd0       ?OnNoshowPCurve@CAxDrawVu@@QAEXXZ 00408fd0 f   AxDrawVu.obj
 0001:00008010       ?OnUpdateNoshowPCurve@CAxDrawVu@@QAEXPAVCCmdUI@@@Z 00409010 f   AxDrawVu.obj
 0001:00008040       ?SetSceneChangedOnNoShow@CAxDrawVu@@UAEXXZ 00409040 f   AxDrawVu.obj
 0001:00008090       ?OnModeDesign@CAxDrawVu@@QAEXXZ 00409090 f   AxDrawVu.obj
 0001:000080c0       ?OnUpdateModeDesign@CAxDrawVu@@QAEXPAVCCmdUI@@@Z 004090c0 f   AxDrawVu.obj
 0001:000080f0       ?OnModeInterpolate@CAxDrawVu@@QAEXXZ 004090f0 f   AxDrawVu.obj
 0001:00008120       ?OnUpdateModeInterpolate@CAxDrawVu@@QAEXPAVCCmdUI@@@Z 00409120 f   AxDrawVu.obj
 0001:00008150       ?GetList@CAxDrawVu@@IAEPAVCDListMgr@@I@Z 00409150 f   AxDrawVu.obj
 0001:000081a0       ?ShowCountBox@CAxDrawVu@@IAEXPBDH@Z 004091a0 f   AxDrawVu.obj
 0001:00008290       ?OnSummaryNodeMesh@CAxDrawVu@@QAEXXZ 00409290 f   AxDrawVu.obj
 0001:00008320       ?OnSummaryCurveDirty@CAxDrawVu@@QAEXXZ 00409320 f   AxDrawVu.obj
 0001:000083b0       ?OnSummaryCurvePosted@CAxDrawVu@@QAEXXZ 004093b0 f   AxDrawVu.obj
 0001:00008440       ?OnSummaryNodeAlltypes@CAxDrawVu@@QAEXXZ 00409440 f   AxDrawVu.obj
 0001:000084c0       ?OnSummaryNodeControl@CAxDrawVu@@QAEXXZ 004094c0 f   AxDrawVu.obj
 0001:00008550       ?MouseMove@CAxDrawVu@@IAEXIVCPoint@@@Z 00409550 f   AxDrawVu.obj
 0001:00008690       ?IsMeshMode@CDrGrafFrame@@QAEHXZ 00409690 f i AxDrawVu.obj
 0001:000086b0       ?GetCurrentOperID@CDrGrafFrame@@QAEIXZ 004096b0 f i AxDrawVu.obj
 0001:000086d0       ?GetLastStatCntlHit@CDrGrafFrame@@QAEPAVCStatCntl@@XZ 004096d0 f i AxDrawVu.obj
 0001:000086f0       ?SetLastStatCntlHit@CDrGrafFrame@@QAEXPAVCStatCntl@@@Z 004096f0 f i AxDrawVu.obj
 0001:00008720       ?LButtonDown@CAxDrawVu@@IAEXIVCPoint@@@Z 00409720 f   AxDrawVu.obj
 0001:00008830       ?LButtonUp@CAxDrawVu@@IAEXIVCPoint@@@Z 00409830 f   AxDrawVu.obj
 0001:00008940       ?RButtonDown@CAxDrawVu@@IAEXIVCPoint@@@Z 00409940 f   AxDrawVu.obj
 0001:00008a50       ?RButtonUp@CAxDrawVu@@IAEXIVCPoint@@@Z 00409a50 f   AxDrawVu.obj
 0001:00008b60       ?OnViewModeGenerator@CAxDrawVu@@QAEXXZ 00409b60 f   AxDrawVu.obj
 0001:00008bd0       ?SetMeshMode@CDrGrafFrame@@QAEXH@Z 00409bd0 f i AxDrawVu.obj
 0001:00008c00       ?OnUpdateViewModeGenerator@CAxDrawVu@@QAEXPAVCCmdUI@@@Z 00409c00 f   AxDrawVu.obj
 0001:00008c30       ?OnViewModeMesh@CAxDrawVu@@QAEXXZ 00409c30 f   AxDrawVu.obj
 0001:00008ca0       ?OnUpdateViewModeMesh@CAxDrawVu@@QAEXPAVCCmdUI@@@Z 00409ca0 f   AxDrawVu.obj
 0001:00008cd0       ?CreateObject@CBanner@@SGPAVCObject@@XZ 00409cd0 f   Banner.obj
 0001:00008d40       ?_GetBaseClass@CBanner@@KGPAUCRuntimeClass@@XZ 00409d40 f   Banner.obj
 0001:00008d60       ?GetRuntimeClass@CBanner@@UBEPAUCRuntimeClass@@XZ 00409d60 f   Banner.obj
 0001:00008dc0       ??5@YGAAVCArchive@@AAV0@AAPAVCBanner@@@Z 00409dc0 f   Banner.obj
 0001:00008df0       ?_GetBaseMessageMap@CBanner@@KGPBUAFX_MSGMAP@@XZ 00409df0 f   Banner.obj
 0001:00008e10       ?GetMessageMap@CBanner@@MBEPBUAFX_MSGMAP@@XZ 00409e10 f   Banner.obj
 0001:00008e30       ?AssertValid@CBanner@@UBEXXZ 00409e30 f   Banner.obj
 0001:00008e50       ?Dump@CBanner@@UBEXAAVCDumpContext@@@Z 00409e50 f   Banner.obj
 0001:00008e80       ??0CBanner@@QAE@XZ         00409e80 f   Banner.obj
 0001:00008ed0       ??_ECBanner@@UAEPAXI@Z     00409ed0 f i Banner.obj
 0001:00008ed0       ??_GCBanner@@UAEPAXI@Z     00409ed0 f i Banner.obj
 0001:00008f10       ??1CBanner@@UAE@XZ         00409f10 f   Banner.obj
 0001:00008ff0       ?LoadImageDIB@CBanner@@AAEXPAVCDC@@H@Z 00409ff0 f   Banner.obj
 0001:00009110       ?GetNrScanLines@CMDIB@@QAEIXZ 0040a110 f i Banner.obj
 0001:00009130       ?GetPVBits@CMDIB@@QAEPAXXZ 0040a130 f i Banner.obj
 0001:00009150       ?GetBitsInfo@CMDIB@@QAEPAUtagBITMAPINFO@@XZ 0040a150 f i Banner.obj
 0001:00009170       ?GetDIBWidth@CMDIB@@QAEKXZ 0040a170 f i Banner.obj
 0001:00009190       ?GetDIBHeight@CMDIB@@QAEKXZ 0040a190 f i Banner.obj
 0001:000091b0       ?LoadImageDIBfromFile@CBanner@@AAEHPAVCMDIB@@PAD@Z 0040a1b0 f   Banner.obj
 0001:000093d0       ?InitDIBData@CBanner@@AAEXXZ 0040a3d0 f   Banner.obj
 0001:00009590       ?ReplaceHDIB@CBanner@@AAEXPAUHDIB__@@@Z 0040a590 f   Banner.obj
 0001:000095d0       ?Init@CBanner@@QAEXH@Z     0040a5d0 f   Banner.obj
 0001:00009710       ??0CMDIB@@QAE@XZ           0040a710 f i Banner.obj
 0001:00009740       ??_GCMDIB@@UAEPAXI@Z       0040a740 f i Banner.obj
 0001:00009740       ??_ECMDIB@@UAEPAXI@Z       0040a740 f i Banner.obj
 0001:00009780       ??1CMDIB@@UAE@XZ           0040a780 f i Banner.obj
 0001:000097b0       ?Create@CBanner@@QAEHXZ    0040a7b0 f   Banner.obj
 0001:00009880       ?DissolveDot@CBanner@@QAEXPAVCDC@@AAVCRect@@@Z 0040a880 f   Banner.obj
 0001:00009900       ?DissolveRect@CBanner@@QAEXPAVCDC@@AAVCRect@@@Z 0040a900 f   Banner.obj
 0001:00009a30       ?Dog_N_PonyShow@CBanner@@QAEXPAVCDC@@AAVCRect@@@Z 0040aa30 f   Banner.obj
 0001:00009c40       ?GetHDIB@CBanner@@QBEPAUHDIB__@@XZ 0040ac40 f i Banner.obj
 0001:00009c60       ?GetDocPalette@CBanner@@QBEPAVCPalette@@XZ 0040ac60 f i Banner.obj
 0001:00009c80       ?OnEraseBkgnd@CBanner@@IAEHPAVCDC@@@Z 0040ac80 f   Banner.obj
 0001:00009ca0       ?OnPaint@CBanner@@IAEXXZ   0040aca0 f   Banner.obj
 0001:00009f60       ?_GetBaseClass@CClock@@KGPAUCRuntimeClass@@XZ 0040af60 f   Clock.obj
 0001:00009f80       ?GetRuntimeClass@CClock@@UBEPAUCRuntimeClass@@XZ 0040af80 f   Clock.obj
 0001:00009fa0       ??0CClock@@QAE@XZ          0040afa0 f   Clock.obj
 0001:00009fd0       ??_ECClock@@UAEPAXI@Z      0040afd0 f i Clock.obj
 0001:00009fd0       ??_GCClock@@UAEPAXI@Z      0040afd0 f i Clock.obj
 0001:0000a010       ??1CClock@@UAE@XZ          0040b010 f   Clock.obj
 0001:0000a040       ?SetInternational@CClock@@QAEXXZ 0040b040 f   Clock.obj
 0001:0000a1e0       ?GetTimeDate@CClock@@QAEXPAVCString@@0@Z 0040b1e0 f   Clock.obj
 0001:0000a330       ?CreateObject@CDrGrafCntrItem@@SGPAVCObject@@XZ 0040b330 f   Cntritem.obj
 0001:0000a3b0       ?_GetBaseClass@CDrGrafCntrItem@@KGPAUCRuntimeClass@@XZ 0040b3b0 f   Cntritem.obj
 0001:0000a3d0       ?GetRuntimeClass@CDrGrafCntrItem@@UBEPAUCRuntimeClass@@XZ 0040b3d0 f   Cntritem.obj
 0001:0000a430       ??5@YGAAVCArchive@@AAV0@AAPAVCDrGrafCntrItem@@@Z 0040b430 f   Cntritem.obj
 0001:0000a460       ??0CDrGrafCntrItem@@QAE@PAVCDrGrafDoc@@@Z 0040b460 f   Cntritem.obj
 0001:0000a490       ??_ECDrGrafCntrItem@@UAEPAXI@Z 0040b490 f i Cntritem.obj
 0001:0000a490       ??_GCDrGrafCntrItem@@UAEPAXI@Z 0040b490 f i Cntritem.obj
 0001:0000a4d0       ??1CDrGrafCntrItem@@UAE@XZ 0040b4d0 f   Cntritem.obj
 0001:0000a500       ?OnChange@CDrGrafCntrItem@@UAEXW4OLE_NOTIFICATION@@K@Z 0040b500 f   Cntritem.obj
 0001:0000a560       ?GetDocument@CDrGrafCntrItem@@QAEPAVCDrGrafDoc@@XZ 0040b560 f i Cntritem.obj
 0001:0000a580       ?OnChangeItemPosition@CDrGrafCntrItem@@MAEHABVCRect@@@Z 0040b580 f   Cntritem.obj
 0001:0000a5d0       ?OnGetItemPosition@CDrGrafCntrItem@@MAEXAAVCRect@@@Z 0040b5d0 f   Cntritem.obj
 0001:0000a620       ?OnActivate@CDrGrafCntrItem@@UAEXXZ 0040b620 f   Cntritem.obj
 0001:0000a6a0       ?GetActiveView@CDrGrafCntrItem@@QAEPAVCDrawView@@XZ 0040b6a0 f i Cntritem.obj
 0001:0000a6c0       ?OnDeactivateUI@CDrGrafCntrItem@@MAEXH@Z 0040b6c0 f   Cntritem.obj
 0001:0000a6f0       ?Serialize@CDrGrafCntrItem@@UAEXAAVCArchive@@@Z 0040b6f0 f   Cntritem.obj
 0001:0000a740       ?CanActivate@CDrGrafCntrItem@@MAEHXZ 0040b740 f   Cntritem.obj
 0001:0000a7d0       ?AssertValid@CDrGrafCntrItem@@UBEXXZ 0040b7d0 f   Cntritem.obj
 0001:0000a7f0       ?Dump@CDrGrafCntrItem@@UBEXAAVCDumpContext@@@Z 0040b7f0 f   Cntritem.obj
 0001:0000a820       ?CreateObject@CDataView@@SGPAVCObject@@XZ 0040b820 f   Dataview.obj
 0001:0000a890       ?_GetBaseClass@CDataView@@KGPAUCRuntimeClass@@XZ 0040b890 f   Dataview.obj
 0001:0000a8b0       ?GetRuntimeClass@CDataView@@UBEPAUCRuntimeClass@@XZ 0040b8b0 f   Dataview.obj
 0001:0000a8d0       ??0CDataView@@IAE@XZ       0040b8d0 f   Dataview.obj
 0001:0000a900       ??_GCDataView@@MAEPAXI@Z   0040b900 f i Dataview.obj
 0001:0000a900       ??_ECDataView@@MAEPAXI@Z   0040b900 f i Dataview.obj
 0001:0000a940       ??1CDataView@@MAE@XZ       0040b940 f   Dataview.obj
 0001:0000a9a0       ?_GetBaseMessageMap@CDataView@@KGPBUAFX_MSGMAP@@XZ 0040b9a0 f   Dataview.obj
 0001:0000a9c0       ?GetMessageMap@CDataView@@MBEPBUAFX_MSGMAP@@XZ 0040b9c0 f   Dataview.obj
 0001:0000a9e0       ?OnUpdate@CDataView@@UAEXPAVCView@@JPAVCObject@@@Z 0040b9e0 f   Dataview.obj
 0001:0000aa40       ?GetRowWidthHeight@CDataView@@UAEXPAVCDC@@AAH1@Z 0040ba40 f   Dataview.obj
 0001:0000ab40       ?GetActiveRow@CDataView@@UAEHXZ 0040bb40 f   Dataview.obj
 0001:0000ab80       ?GetDocument@CDataView@@QAEPAVCDrGrafDoc@@XZ 0040bb80 f i Dataview.obj
 0001:0000abd0       ?GetRowCount@CDataView@@UAEHXZ 0040bbd0 f   Dataview.obj
 0001:0000ac10       ?ChangeSelectionNextRow@CDataView@@UAEXH@Z 0040bc10 f   Dataview.obj
 0001:0000ac50       ?ChangeSelectionToRow@CDataView@@UAEXH@Z 0040bc50 f   Dataview.obj
 0001:0000ac90       ?OnDrawRow@CDataView@@UAEXPAVCDC@@HHH@Z 0040bc90 f   Dataview.obj
 0001:0000adf0       ?OnLButtonDown@CDataView@@IAEXIVCPoint@@@Z 0040bdf0 f   Dataview.obj
 0001:0000aef0       ?OnLButtonDblClk@CDataView@@IAEXIVCPoint@@@Z 0040bef0 f   Dataview.obj
 0001:0000af50       ?OnSetFocus@CDataView@@IAEXPAVCWnd@@@Z 0040bf50 f   Dataview.obj
 0001:0000afa0       ?CreateObject@CDeckView@@SGPAVCObject@@XZ 0040bfa0 f   DeckView.obj
 0001:0000b010       ?_GetBaseClass@CDeckView@@KGPAUCRuntimeClass@@XZ 0040c010 f   DeckView.obj
 0001:0000b030       ?GetRuntimeClass@CDeckView@@UBEPAUCRuntimeClass@@XZ 0040c030 f   DeckView.obj
 0001:0000b050       ?_GetBaseMessageMap@CDeckView@@KGPBUAFX_MSGMAP@@XZ 0040c050 f   DeckView.obj
 0001:0000b070       ?GetMessageMap@CDeckView@@MBEPBUAFX_MSGMAP@@XZ 0040c070 f   DeckView.obj
 0001:0000b090       ??0CDeckView@@IAE@XZ       0040c090 f   DeckView.obj
 0001:0000b150       ?CalculateCardMetrics@CDeckView@@MAEXPAVCDC@@@Z 0040c150 f i DeckView.obj
 0001:0000b190       ??_GCDeckView@@UAEPAXI@Z   0040c190 f i DeckView.obj
 0001:0000b190       ??_ECDeckView@@UAEPAXI@Z   0040c190 f i DeckView.obj
 0001:0000b1d0       ??1CDeckView@@UAE@XZ       0040c1d0 f   DeckView.obj
 0001:0000b240       ?OnDeckFormatFix@CDeckView@@IAEXXZ 0040c240 f   DeckView.obj
 0001:0000b270       ?SetFormatted@CDeckMgr@@QAEXH@Z 0040c270 f i DeckView.obj
 0001:0000b290       ?GetDeckMgr@CDeckView@@QAEPAVCDeckMgr@@XZ 0040c290 f i DeckView.obj
 0001:0000b2b0       ?OnUpdateDeckFormatFix@CDeckView@@IAEXPAVCCmdUI@@@Z 0040c2b0 f   DeckView.obj
 0001:0000b2e0       ?IsFormatted@CDeckMgr@@QAEHXZ 0040c2e0 f i DeckView.obj
 0001:0000b300       ?OnDeckFormatFree@CDeckView@@IAEXXZ 0040c300 f   DeckView.obj
 0001:0000b330       ?OnUpdateDeckFormatFree@CDeckView@@IAEXPAVCCmdUI@@@Z 0040c330 f   DeckView.obj
 0001:0000b370       ?OnPrepareDC@CDeckView@@UAEXPAVCDC@@PAUCPrintInfo@@@Z 0040c370 f   DeckView.obj
 0001:0000b490       ?OnDraw@CDeckView@@UAEXPAVCDC@@@Z 0040c490 f   DeckView.obj
 0001:0000b640       ?GetDeckList@CDeckMgr@@QAEPAV?$CList@VCString@@V1@@@XZ 0040c640 f i DeckView.obj
 0001:0000b660       ?AssertValid@CDeckView@@UBEXXZ 0040c660 f   DeckView.obj
 0001:0000b680       ?Dump@CDeckView@@UBEXAAVCDumpContext@@@Z 0040c680 f   DeckView.obj
 0001:0000b6b0       ?GetDocument@CDeckView@@QAEPAVCDrGrafDoc@@XZ 0040c6b0 f   DeckView.obj
 0001:0000b700       ?OnCreate@CDeckView@@IAEHPAUtagCREATESTRUCTA@@@Z 0040c700 f   DeckView.obj
 0001:0000b730       ?OnInitialUpdate@CDeckView@@UAEXXZ 0040c730 f   DeckView.obj
 0001:0000b760       ?UpdateScrollSizes@CDeckView@@MAEXXZ 0040c760 f   DeckView.obj
 0001:0000b8a0       ?GetCardWidthHeightCount@CDeckView@@IAEXPAVCDC@@AAH11@Z 0040c8a0 f   DeckView.obj
 0001:0000ba00       ?LastViewableCard@CDeckView@@MAEHXZ 0040ca00 f   DeckView.obj
 0001:0000ba40       ?OnUpdate@CDeckView@@MAEXPAVCView@@JPAVCObject@@@Z 0040ca40 f   DeckView.obj
 0001:0000ba90       ?OnBeginPrinting@CDeckView@@MAEXPAVCDC@@PAUCPrintInfo@@@Z 0040ca90 f   DeckView.obj
 0001:0000bba0       ?GetCardCount@CDeckView@@IAEHXZ 0040cba0 f i DeckView.obj
 0001:0000bbc0       ?OnEndPrinting@CDeckView@@MAEXPAVCDC@@PAUCPrintInfo@@@Z 0040cbc0 f   DeckView.obj
 0001:0000bbf0       ?OnEndPrintPreview@CDeckView@@MAEXPAVCDC@@PAUCPrintInfo@@UtagPOINT@@PAVCPreviewView@@@Z 0040cbf0 f   DeckView.obj
 0001:0000bc30       ?OnPreparePrinting@CDeckView@@MAEHPAUCPrintInfo@@@Z 0040cc30 f   DeckView.obj
 0001:0000bc60       ?OnPrint@CDeckView@@MAEXPAVCDC@@PAUCPrintInfo@@@Z 0040cc60 f   DeckView.obj
 0001:0000be50       ?OnSetFocus@CDeckView@@IAEXPAVCWnd@@@Z 0040ce50 f   DeckView.obj
 0001:0000bf40       ?GetEDimBox@CDrGrafFrame@@QAEPAVCEDimBox@@XZ 0040cf40 f i DeckView.obj
 0001:0000bf60       ?PrintPageHeader@CDeckView@@AAEXPAVCDC@@@Z 0040cf60 f   DeckView.obj
 0001:0000c200       ?PrintPageFooter@CDeckView@@AAEXPAVCDC@@@Z 0040d200 f   DeckView.obj
 0001:0000c430       ?GetCount@?$CList@VCString@@V1@@@QBEHXZ 0040d430 f i DeckView.obj
 0001:0000c450       ?IsEmpty@?$CList@VCString@@V1@@@QBEHXZ 0040d450 f i DeckView.obj
 0001:0000c480       ?GetHeadPosition@?$CList@VCString@@V1@@@QBEPAU__POSITION@@XZ 0040d480 f i DeckView.obj
 0001:0000c4a0       ?GetNext@?$CList@VCString@@V1@@@QAEAAVCString@@AAPAU__POSITION@@@Z 0040d4a0 f i DeckView.obj
 0001:0000c500       ?FindIndex@?$CList@VCString@@V1@@@QBEPAU__POSITION@@H@Z 0040d500 f i DeckView.obj
 0001:0000c590       ??0CDlg_CTim@@QAE@PAVCWnd@@@Z 0040d590 f   Dlg_CTim.obj
 0001:0000c650       ??_ECDlg_CTim@@UAEPAXI@Z   0040d650 f i Dlg_CTim.obj
 0001:0000c650       ??_GCDlg_CTim@@UAEPAXI@Z   0040d650 f i Dlg_CTim.obj
 0001:0000c690       ??1CDlg_CTim@@UAE@XZ       0040d690 f i Dlg_CTim.obj
 0001:0000c700       ?DoDataExchange@CDlg_CTim@@MAEXPAVCDataExchange@@@Z 0040d700 f   Dlg_CTim.obj
 0001:0000c730       ?_GetBaseMessageMap@CDlg_CTim@@KGPBUAFX_MSGMAP@@XZ 0040d730 f   Dlg_CTim.obj
 0001:0000c750       ?GetMessageMap@CDlg_CTim@@MBEPBUAFX_MSGMAP@@XZ 0040d750 f   Dlg_CTim.obj
 0001:0000c770       ?OnInitDialog@CDlg_CTim@@MAEHXZ 0040d770 f   Dlg_CTim.obj
 0001:0000c7d0       ?Create@CDlg_CTim@@QAEHXZ  0040d7d0 f   Dlg_CTim.obj
 0001:0000c8c0       ?EmptyListAllString@CDlg_CTim@@QAEXI@Z 0040d8c0 f   Dlg_CTim.obj
 0001:0000c920       ?OnOK@CDlg_CTim@@MAEXXZ    0040d920 f   Dlg_CTim.obj
 0001:0000c940       ?OnCancel@CDlg_CTim@@MAEXXZ 0040d940 f   Dlg_CTim.obj
 0001:0000c960       ??_9@$BMM@AE               0040d960 f i Dlg_CTim.obj
 0001:0000c970       ??_9@$BNA@AE               0040d970 f i Dlg_CTim.obj
 0001:0000c980       ??0CDlg_NoELem@@QAE@PAVCWnd@@@Z 0040d980 f   Dlg_NoEL.obj
 0001:0000cb30       ??_GCDlg_NoELem@@UAEPAXI@Z 0040db30 f i Dlg_NoEL.obj
 0001:0000cb30       ??_ECDlg_NoELem@@UAEPAXI@Z 0040db30 f i Dlg_NoEL.obj
 0001:0000cb70       ??1CDlg_NoELem@@UAE@XZ     0040db70 f i Dlg_NoEL.obj
 0001:0000cbe0       ?DoDataExchange@CDlg_NoELem@@MAEXPAVCDataExchange@@@Z 0040dbe0 f   Dlg_NoEL.obj
 0001:0000cdb0       ?_GetBaseMessageMap@CDlg_NoELem@@KGPBUAFX_MSGMAP@@XZ 0040ddb0 f   Dlg_NoEL.obj
 0001:0000cdd0       ?GetMessageMap@CDlg_NoELem@@MBEPBUAFX_MSGMAP@@XZ 0040ddd0 f   Dlg_NoEL.obj
 0001:0000cdf0       ?OnInitDialog@CDlg_NoELem@@MAEHXZ 0040ddf0 f   Dlg_NoEL.obj
 0001:0000ce60       ?OnNoshowAll@CDlg_NoELem@@IAEXXZ 0040de60 f   Dlg_NoEL.obj
 0001:0000cf70       ?OnNoshowNone@CDlg_NoELem@@IAEXXZ 0040df70 f   Dlg_NoEL.obj
 0001:0000d080       ??0CDlg_NoLabELem@@QAE@PAVCWnd@@@Z 0040e080 f   Dlg_NoLE.obj
 0001:0000d220       ??_GCDlg_NoLabELem@@UAEPAXI@Z 0040e220 f i Dlg_NoLE.obj
 0001:0000d220       ??_ECDlg_NoLabELem@@UAEPAXI@Z 0040e220 f i Dlg_NoLE.obj
 0001:0000d260       ??1CDlg_NoLabELem@@UAE@XZ  0040e260 f i Dlg_NoLE.obj
 0001:0000d2d0       ?DoDataExchange@CDlg_NoLabELem@@MAEXPAVCDataExchange@@@Z 0040e2d0 f   Dlg_NoLE.obj
 0001:0000d4a0       ?_GetBaseMessageMap@CDlg_NoLabELem@@KGPBUAFX_MSGMAP@@XZ 0040e4a0 f   Dlg_NoLE.obj
 0001:0000d4c0       ?GetMessageMap@CDlg_NoLabELem@@MBEPBUAFX_MSGMAP@@XZ 0040e4c0 f   Dlg_NoLE.obj
 0001:0000d4e0       ?OnInitDialog@CDlg_NoLabELem@@MAEHXZ 0040e4e0 f   Dlg_NoLE.obj
 0001:0000d550       ?OnNoshowAll@CDlg_NoLabELem@@IAEXXZ 0040e550 f   Dlg_NoLE.obj
 0001:0000d660       ?OnNoshowNone@CDlg_NoLabELem@@IAEXXZ 0040e660 f   Dlg_NoLE.obj
 0001:0000d770       ??0CDlg_Shrink@@QAE@PAVCWnd@@@Z 0040e770 f   Dlg_Shrink.obj
 0001:0000d840       ??_ECDlg_Shrink@@UAEPAXI@Z 0040e840 f i Dlg_Shrink.obj
 0001:0000d840       ??_GCDlg_Shrink@@UAEPAXI@Z 0040e840 f i Dlg_Shrink.obj
 0001:0000d880       ??1CDlg_Shrink@@UAE@XZ     0040e880 f i Dlg_Shrink.obj
 0001:0000d8f0       ?DoDataExchange@CDlg_Shrink@@MAEXPAVCDataExchange@@@Z 0040e8f0 f   Dlg_Shrink.obj
 0001:0000d950       ?_GetBaseMessageMap@CDlg_Shrink@@KGPBUAFX_MSGMAP@@XZ 0040e950 f   Dlg_Shrink.obj
 0001:0000d970       ?GetMessageMap@CDlg_Shrink@@MBEPBUAFX_MSGMAP@@XZ 0040e970 f   Dlg_Shrink.obj
 0001:0000d990       ?OnInitDialog@CDlg_Shrink@@MAEHXZ 0040e990 f   Dlg_Shrink.obj
 0001:0000d9f0       ?_GetBaseClass@CDrawView@@KGPAUCRuntimeClass@@XZ 0040e9f0 f   Drawview.obj
 0001:0000da10       ?GetRuntimeClass@CDrawView@@UBEPAUCRuntimeClass@@XZ 0040ea10 f   Drawview.obj
 0001:0000da30       ?_GetBaseMessageMap@CDrawView@@KGPBUAFX_MSGMAP@@XZ 0040ea30 f   Drawview.obj
 0001:0000da50       ?GetMessageMap@CDrawView@@MBEPBUAFX_MSGMAP@@XZ 0040ea50 f   Drawview.obj
 0001:0000da70       ?AssertValid@CDrawView@@UBEXXZ 0040ea70 f   Drawview.obj
 0001:0000da90       ?Dump@CDrawView@@UBEXAAVCDumpContext@@@Z 0040ea90 f   Drawview.obj
 0001:0000dac0       ??0CDrawView@@IAE@XZ       0040eac0 f   Drawview.obj
 0001:0000e090       ??0CDVM_CreO@@QAE@XZ       0040f090 f i Drawview.obj
 0001:0000e0c0       ??1CDVM_CreO@@UAE@XZ       0040f0c0 f i Drawview.obj
 0001:0000e0f0       ??_ECDVM_CreO@@UAEPAXI@Z   0040f0f0 f i Drawview.obj
 0001:0000e0f0       ??_GCDVM_CreO@@UAEPAXI@Z   0040f0f0 f i Drawview.obj
 0001:0000e130       ??0CDVM_Post@@QAE@XZ       0040f130 f i Drawview.obj
 0001:0000e160       ??1CDVM_Post@@UAE@XZ       0040f160 f i Drawview.obj
 0001:0000e190       ??_GCDVM_Post@@UAEPAXI@Z   0040f190 f i Drawview.obj
 0001:0000e190       ??_ECDVM_Post@@UAEPAXI@Z   0040f190 f i Drawview.obj
 0001:0000e1d0       ??0CDVM_CreM@@QAE@XZ       0040f1d0 f i Drawview.obj
 0001:0000e200       ??1CDVM_CreM@@UAE@XZ       0040f200 f i Drawview.obj
 0001:0000e230       ??_ECDVM_CreM@@UAEPAXI@Z   0040f230 f i Drawview.obj
 0001:0000e230       ??_GCDVM_CreM@@UAEPAXI@Z   0040f230 f i Drawview.obj
 0001:0000e270       ??0CDVM_Mdit@@QAE@XZ       0040f270 f i Drawview.obj
 0001:0000e2a0       ??1CDVM_Mdit@@UAE@XZ       0040f2a0 f i Drawview.obj
 0001:0000e2d0       ??_ECDVM_Mdit@@UAEPAXI@Z   0040f2d0 f i Drawview.obj
 0001:0000e2d0       ??_GCDVM_Mdit@@UAEPAXI@Z   0040f2d0 f i Drawview.obj
 0001:0000e310       ??_GCDrawView@@UAEPAXI@Z   0040f310 f i Drawview.obj
 0001:0000e310       ??_ECDrawView@@UAEPAXI@Z   0040f310 f i Drawview.obj
 0001:0000e350       ??_ECViewInfo@@UAEPAXI@Z   0040f350 f i Drawview.obj
 0001:0000e350       ??_GCViewInfo@@UAEPAXI@Z   0040f350 f i Drawview.obj
 0001:0000e390       ??1CDrawView@@UAE@XZ       0040f390 f   Drawview.obj
 0001:0000e4d0       ?PreCreateWindow@CDrawView@@MAEHAAUtagCREATESTRUCTA@@@Z 0040f4d0 f   Drawview.obj
 0001:0000e530       ?OnCommandHelp@CDrawView@@QAEJIJ@Z 0040f530 f   Drawview.obj
 0001:0000e5e0       ?OnHelpHitTest@CDrawView@@QAEJIJ@Z 0040f5e0 f   Drawview.obj
 0001:0000e660       ?OnPrepareDC@CDrawView@@UAEXPAVCDC@@PAUCPrintInfo@@@Z 0040f660 f   Drawview.obj
 0001:0000e700       ?OnSize@CDrawView@@QAEXIHH@Z 0040f700 f   Drawview.obj
 0001:0000e820       ?SetScalevv3DToLP@CDrawView@@UAEXXZ 0040f820 f   Drawview.obj
 0001:0000e8b0       ?GetMatrix@CDrawView@@UAEPAUMATRIX@@W4MATRICES@@@Z 0040f8b0 f   Drawview.obj
 0001:0000e940       ?SetMatrix@CDrawView@@UAEXW4MATRICES@@PAUMATRIX@@@Z 0040f940 f   Drawview.obj
 0001:0000e9e0       ?OnInitialUpdate@CDrawView@@UAEXXZ 0040f9e0 f   Drawview.obj
 0001:0000f410       ?UpdateAllOtherMatButLocal@CDrawView@@IAEXXZ 00410410 f   Drawview.obj
 0001:0000f490       ?UpdateViewMatrix@CDrawView@@UAEXXZ 00410490 f   Drawview.obj
 0001:0000f5d0       ?UpdatePerToParMatrix@CDrawView@@UAEXXZ 004105d0 f   Drawview.obj
 0001:0000f680       ?UpdateCombinedMatrix@CDrawView@@UAEXXZ 00410680 f   Drawview.obj
 0001:0000f710       ?UpdateWin3DtoViewPort3DMatrix@CDrawView@@UAEXXZ 00410710 f   Drawview.obj
 0001:0000f7b0       ?UpdatePenultimateMatrix@CDrawView@@UAEXXZ 004107b0 f   Drawview.obj
 0001:0000f840       ?UpdateUltimateMatrix@CDrawView@@UAEXXZ 00410840 f   Drawview.obj
 0001:0000f870       ?UpdateObject@CDrawView@@UAEXHHH@Z 00410870 f   Drawview.obj
 0001:0000fc50       ?OnDraw@CDrawView@@UAEXPAVCDC@@@Z 00410c50 f   Drawview.obj
 0001:0000fd90       ?ShowScreenGrid@CDrawView@@IAEXPAVCDC@@@Z 00410d90 f   Drawview.obj
 0001:0000ff50       ?ShowCurrentOptions@CDrawView@@IAEXPAVCDC@@@Z 00410f50 f   Drawview.obj
 0001:00010810       ?GetCurrentCntlID@CDrGrafFrame@@QAEIXZ 00411810 f i Drawview.obj
 0001:00010830       ?GetCurrentIGenID@CDrGrafFrame@@QAEIXZ 00411830 f i Drawview.obj
 0001:00010850       ??_GCString@@QAEPAXI@Z     00411850 f i Drawview.obj
 0001:00010890       ?GoDoAxis@CDrawView@@IAEXPAVCDC@@@Z 00411890 f   Drawview.obj
 0001:000108b0       ?GoDoHouse@CDrawView@@IAEXPAVCDC@@@Z 004118b0 f   Drawview.obj
 0001:00010fb0       ?GoDoViewControls@CDrawView@@IAEXPAVCDC@@@Z 00411fb0 f   Drawview.obj
 0001:00011600       ?GoDoPoint@CDrawView@@IAEXPAVCDC@@PAUtagPOINT@@AAVCString@@@Z 00412600 f   Drawview.obj
 0001:000116a0       ?GoDoLine@CDrawView@@IAEXPAVCDC@@PAUtagPOINT@@1@Z 004126a0 f   Drawview.obj
 0001:000116f0       ?GetObjectReadyforRender@CDrawView@@UAEXPAVCDC@@PAVCDrObject@@H@Z 004126f0 f   Drawview.obj
 0001:00011980       ?Pack_NSBools@CDrawView@@IAEXQAH@Z 00412980 f   Drawview.obj
 0001:00011da0       ?GoRender@CDrawView@@MAEXPAVCDC@@VCRect@@HH@Z 00412da0 f   Drawview.obj
 0001:000121f0       ?Transform@CDrawView@@UAEXPAUWORLD@@0@Z 004131f0 f   Drawview.obj
 0001:00012270       ?Project@CDrawView@@UAEXPAUWORLD@@0H@Z 00413270 f   Drawview.obj
 0001:00012360       ?MouseActivateViewMatUpdate@CDrawView@@IAEXXZ 00413360 f   Drawview.obj
 0001:000125e0       ?OnKeyDown@CDrawView@@QAEXIII@Z 004135e0 f   Drawview.obj
 0001:000126e0       ?OnCreate@CDrawView@@QAEHPAUtagCREATESTRUCTA@@@Z 004136e0 f   Drawview.obj
 0001:00012770       ?On3dAmbientlight@CDrawView@@QAEXXZ 00413770 f   Drawview.obj
 0001:00012790       ?OnUpdate3dAmbientlight@CDrawView@@QAEXPAVCCmdUI@@@Z 00413790 f   Drawview.obj
 0001:000127b0       ?On3dEyeposition@CDrawView@@QAEXXZ 004137b0 f   Drawview.obj
 0001:00012d10       ?OnGoodByeEyePos@CDrawView@@QAEJIJ@Z 00413d10 f   Drawview.obj
 0001:00012d40       ?OnUpdateEyePos@CDrawView@@QAEJIJ@Z 00413d40 f   Drawview.obj
 0001:000133d0       ?OnUpdate3dEyeposition@CDrawView@@QAEXPAVCCmdUI@@@Z 004143d0 f   Drawview.obj
 0001:00013410       ?On3dLightsource@CDrawView@@QAEXXZ 00414410 f   Drawview.obj
 0001:00013430       ?OnUpdate3dLightsource@CDrawView@@QAEXPAVCCmdUI@@@Z 00414430 f   Drawview.obj
 0001:00013450       ?On3dProjectionParallel@CDrawView@@QAEXXZ 00414450 f   Drawview.obj
 0001:000134b0       ?OnUpdate3dProjectionParallel@CDrawView@@QAEXPAVCCmdUI@@@Z 004144b0 f   Drawview.obj
 0001:000134e0       ?On3dProjectionPerspective@CDrawView@@QAEXXZ 004144e0 f   Drawview.obj
 0001:00013540       ?OnUpdate3dProjectionPerspective@CDrawView@@QAEXPAVCCmdUI@@@Z 00414540 f   Drawview.obj
 0001:00013570       ?On3dRendering@CDrawView@@QAEXXZ 00414570 f   Drawview.obj
 0001:00013590       ?OnUpdate3dRendering@CDrawView@@QAEXPAVCCmdUI@@@Z 00414590 f   Drawview.obj
 0001:000135b0       ?ShowAxes@CDrawView@@IAEXXZ 004145b0 f   Drawview.obj
 0001:00013690       ?OnOptionAxison@CDrawView@@QAEXXZ 00414690 f   Drawview.obj
 0001:000136e0       ?OnKillFocus@CDrawView@@QAEXPAVCWnd@@@Z 004146e0 f   Drawview.obj
 0001:00013710       ?OnUpdateOptionAxison@CDrawView@@QAEXPAVCCmdUI@@@Z 00414710 f   Drawview.obj
 0001:00013750       ?OnOptionCursor@CDrawView@@QAEXXZ 00414750 f   Drawview.obj
 0001:00013770       ?OnUpdateOptionCursor@CDrawView@@QAEXPAVCCmdUI@@@Z 00414770 f   Drawview.obj
 0001:00013790       ?OnOptionPenchange@CDrawView@@QAEXXZ 00414790 f   Drawview.obj
 0001:000137c0       ?OnUpdateOptionPenchange@CDrawView@@QAEXPAVCCmdUI@@@Z 004147c0 f   Drawview.obj
 0001:000137e0       ?OnOptionRefresh@CDrawView@@QAEXXZ 004147e0 f   Drawview.obj
 0001:00013800       ?OnUpdateOptionRefresh@CDrawView@@QAEXPAVCCmdUI@@@Z 00414800 f   Drawview.obj
 0001:00013820       ?OnEraseBkgnd@CDrawView@@QAEHPAVCDC@@@Z 00414820 f   Drawview.obj
 0001:000138d0       ?OnSetFocus@CDrawView@@QAEXPAVCWnd@@@Z 004148d0 f   Drawview.obj
 0001:00013900       ?OnHScroll@CDrawView@@QAEXIIPAVCScrollBar@@@Z 00414900 f   Drawview.obj
 0001:00013940       ?OnVScroll@CDrawView@@QAEXIIPAVCScrollBar@@@Z 00414940 f   Drawview.obj
 0001:00013980       ?OnNoshowElements@CDrawView@@QAEXXZ 00414980 f   Drawview.obj
 0001:00013cd0       ?OnUpdateNoshowElements@CDrawView@@QAEXPAVCCmdUI@@@Z 00414cd0 f   Drawview.obj
 0001:00013cf0       ?OnNoshowLabelElements@CDrawView@@QAEXXZ 00414cf0 f   Drawview.obj
 0001:00014040       ?OnNoShowCNLabel@CDrawView@@QAEXXZ 00415040 f   Drawview.obj
 0001:00014080       ?OnUpdateNoShowCNLabel@CDrawView@@QAEXPAVCCmdUI@@@Z 00415080 f   Drawview.obj
 0001:000140b0       ?OnNoShowCNodes@CDrawView@@QAEXXZ 004150b0 f   Drawview.obj
 0001:000140f0       ?OnUpdateNoShowCNodes@CDrawView@@QAEXPAVCCmdUI@@@Z 004150f0 f   Drawview.obj
 0001:00014120       ?OnNoShowNLabel@CDrawView@@QAEXXZ 00415120 f   Drawview.obj
 0001:00014160       ?OnUpdateNoShowNLabel@CDrawView@@QAEXPAVCCmdUI@@@Z 00415160 f   Drawview.obj
 0001:00014190       ?OnNoShowNodes@CDrawView@@QAEXXZ 00415190 f   Drawview.obj
 0001:000141d0       ?OnUpdateNoShowNodes@CDrawView@@QAEXPAVCCmdUI@@@Z 004151d0 f   Drawview.obj
 0001:00014200       ?OnNoShowCShape@CDrawView@@QAEXXZ 00415200 f   Drawview.obj
 0001:00014240       ?OnNoshowMnlabel@CDrawView@@QAEXXZ 00415240 f   Drawview.obj
 0001:00014280       ?OnUpdateNoshowMnlabel@CDrawView@@QAEXPAVCCmdUI@@@Z 00415280 f   Drawview.obj
 0001:000142b0       ?OnNoshowMnodes@CDrawView@@QAEXXZ 004152b0 f   Drawview.obj
 0001:000142f0       ?OnUpdateNoshowMnodes@CDrawView@@QAEXPAVCCmdUI@@@Z 004152f0 f   Drawview.obj
 0001:00014320       ?OnUpdateNoShowCShape@CDrawView@@QAEXPAVCCmdUI@@@Z 00415320 f   Drawview.obj
 0001:00014350       ?On3dFsPainter@CDrawView@@QAEXXZ 00415350 f   Drawview.obj
 0001:000143b0       ?OnUpdate3dFsPainter@CDrawView@@QAEXPAVCCmdUI@@@Z 004153b0 f   Drawview.obj
 0001:000143e0       ?On3dFsZbuffer@CDrawView@@QAEXXZ 004153e0 f   Drawview.obj
 0001:00014440       ?OnUpdate3dFsZbuffer@CDrawView@@QAEXPAVCCmdUI@@@Z 00415440 f   Drawview.obj
 0001:00014470       ?On3dCulling3D@CDrawView@@QAEXXZ 00415470 f   Drawview.obj
 0001:000144c0       ?OnUpdate3dCulling3D@CDrawView@@QAEXPAVCCmdUI@@@Z 004154c0 f   Drawview.obj
 0001:000144f0       ?On3dWfHidden@CDrawView@@QAEXXZ 004154f0 f   Drawview.obj
 0001:00014550       ?OnUpdate3dWfHidden@CDrawView@@QAEXPAVCCmdUI@@@Z 00415550 f   Drawview.obj
 0001:00014580       ?On3dWfPure@CDrawView@@QAEXXZ 00415580 f   Drawview.obj
 0001:000145e0       ?OnUpdate3dWfPure@CDrawView@@QAEXPAVCCmdUI@@@Z 004155e0 f   Drawview.obj
 0001:00014610       ?On3dZbGouraud@CDrawView@@QAEXXZ 00415610 f   Drawview.obj
 0001:00014670       ?OnUpdate3dZbGouraud@CDrawView@@QAEXPAVCCmdUI@@@Z 00415670 f   Drawview.obj
 0001:000146a0       ?On3dZbPhong@CDrawView@@QAEXXZ 004156a0 f   Drawview.obj
 0001:00014700       ?OnUpdate3dZbPhong@CDrawView@@QAEXPAVCCmdUI@@@Z 00415700 f   Drawview.obj
 0001:00014730       ?On3dShrinkOn@CDrawView@@QAEXXZ 00415730 f   Drawview.obj
 0001:000148c0       ?OnUpdate3dShrinkOn@CDrawView@@QAEXPAVCCmdUI@@@Z 004158c0 f   Drawview.obj
 0001:000148f0       ?OnNoshowCentroid@CDrawView@@QAEXXZ 004158f0 f   Drawview.obj
 0001:00014930       ?OnUpdateNoshowCentroid@CDrawView@@QAEXPAVCCmdUI@@@Z 00415930 f   Drawview.obj
 0001:00014960       ?OnNoshowDCurve@CDrawView@@QAEXXZ 00415960 f   Drawview.obj
 0001:000149a0       ?OnUpdateNoshowDCurve@CDrawView@@QAEXPAVCCmdUI@@@Z 004159a0 f   Drawview.obj
 0001:000149d0       ?OnNoshowDObject@CDrawView@@QAEXXZ 004159d0 f   Drawview.obj
 0001:00014a10       ?OnUpdateNoshowDObject@CDrawView@@QAEXPAVCCmdUI@@@Z 00415a10 f   Drawview.obj
 0001:00014a40       ?OnNoshowDPatch@CDrawView@@QAEXXZ 00415a40 f   Drawview.obj
 0001:00014a80       ?OnUpdateNoshowDPatch@CDrawView@@QAEXPAVCCmdUI@@@Z 00415a80 f   Drawview.obj
 0001:00014ab0       ?OnNoshowDSolid@CDrawView@@QAEXXZ 00415ab0 f   Drawview.obj
 0001:00014af0       ?OnUpdateNoshowDSolid@CDrawView@@QAEXPAVCCmdUI@@@Z 00415af0 f   Drawview.obj
 0001:00014b20       ?OnNoshowDProfile_C@CDrawView@@QAEXXZ 00415b20 f   Drawview.obj
 0001:00014b60       ?OnUpdateNoshowDProfile_C@CDrawView@@QAEXPAVCCmdUI@@@Z 00415b60 f   Drawview.obj
 0001:00014b90       ?OnNoshowDProfile_P@CDrawView@@QAEXXZ 00415b90 f   Drawview.obj
 0001:00014bd0       ?OnUpdateNoshowDProfile_P@CDrawView@@QAEXPAVCCmdUI@@@Z 00415bd0 f   Drawview.obj
 0001:00014c00       ?OnNoshowDProfile_S@CDrawView@@QAEXXZ 00415c00 f   Drawview.obj
 0001:00014c40       ?OnUpdateNoshowDProfile_S@CDrawView@@QAEXPAVCCmdUI@@@Z 00415c40 f   Drawview.obj
 0001:00014c70       ?OnNoshowNormals@CDrawView@@QAEXXZ 00415c70 f   Drawview.obj
 0001:00014cb0       ?OnUpdateNoshowNormals@CDrawView@@QAEXPAVCCmdUI@@@Z 00415cb0 f   Drawview.obj
 0001:00014ce0       ?OnNoshowPCurve@CDrawView@@QAEXXZ 00415ce0 f   Drawview.obj
 0001:00014d20       ?OnUpdateNoshowPCurve@CDrawView@@QAEXPAVCCmdUI@@@Z 00415d20 f   Drawview.obj
 0001:00014d50       ?OnNoshowPObject@CDrawView@@QAEXXZ 00415d50 f   Drawview.obj
 0001:00014d90       ?OnUpdateNoshowPObject@CDrawView@@QAEXPAVCCmdUI@@@Z 00415d90 f   Drawview.obj
 0001:00014dc0       ?OnNoshowPPatch@CDrawView@@QAEXXZ 00415dc0 f   Drawview.obj
 0001:00014e00       ?OnUpdateNoshowPPatch@CDrawView@@QAEXPAVCCmdUI@@@Z 00415e00 f   Drawview.obj
 0001:00014e30       ?OnNoshowPSolid@CDrawView@@QAEXXZ 00415e30 f   Drawview.obj
 0001:00014e70       ?OnUpdateNoshowPSolid@CDrawView@@QAEXPAVCCmdUI@@@Z 00415e70 f   Drawview.obj
 0001:00014ea0       ?OnNoshowPProfile_C@CDrawView@@QAEXXZ 00415ea0 f   Drawview.obj
 0001:00014ee0       ?OnUpdateNoshowPProfile_C@CDrawView@@QAEXPAVCCmdUI@@@Z 00415ee0 f   Drawview.obj
 0001:00014f10       ?OnNoshowPProfile_P@CDrawView@@QAEXXZ 00415f10 f   Drawview.obj
 0001:00014f50       ?OnUpdateNoshowPProfile_P@CDrawView@@QAEXPAVCCmdUI@@@Z 00415f50 f   Drawview.obj
 0001:00014f80       ?OnNoshowPProfile_S@CDrawView@@QAEXXZ 00415f80 f   Drawview.obj
 0001:00014fc0       ?OnUpdateNoshowPProfile_S@CDrawView@@QAEXPAVCCmdUI@@@Z 00415fc0 f   Drawview.obj
 0001:00014ff0       ?OnNoshowVcBcp@CDrawView@@QAEXXZ 00415ff0 f   Drawview.obj
 0001:00015030       ?OnUpdateNoshowVcBcp@CDrawView@@QAEXPAVCCmdUI@@@Z 00416030 f   Drawview.obj
 0001:00015060       ?OnNoshowVcCvv@CDrawView@@QAEXXZ 00416060 f   Drawview.obj
 0001:000150a0       ?OnUpdateNoshowVcCvv@CDrawView@@QAEXPAVCCmdUI@@@Z 004160a0 f   Drawview.obj
 0001:000150d0       ?OnNoshowVcFcp@CDrawView@@QAEXXZ 004160d0 f   Drawview.obj
 0001:00015110       ?OnUpdateNoshowVcFcp@CDrawView@@QAEXPAVCCmdUI@@@Z 00416110 f   Drawview.obj
 0001:00015140       ?OnNoshowVcPlane@CDrawView@@QAEXXZ 00416140 f   Drawview.obj
 0001:00015180       ?OnUpdateNoshowVcPlane@CDrawView@@QAEXPAVCCmdUI@@@Z 00416180 f   Drawview.obj
 0001:000151b0       ?OnNoshowVcPrp@CDrawView@@QAEXXZ 004161b0 f   Drawview.obj
 0001:000151f0       ?OnUpdateNoshowVcPrp@CDrawView@@QAEXPAVCCmdUI@@@Z 004161f0 f   Drawview.obj
 0001:00015220       ?OnNoshowVcVcs@CDrawView@@QAEXXZ 00416220 f   Drawview.obj
 0001:00015260       ?OnUpdateNoshowVcVcs@CDrawView@@QAEXPAVCCmdUI@@@Z 00416260 f   Drawview.obj
 0001:00015290       ?OnNoshowVcVdir@CDrawView@@QAEXXZ 00416290 f   Drawview.obj
 0001:000152d0       ?OnUpdateNoshowVcVdir@CDrawView@@QAEXPAVCCmdUI@@@Z 004162d0 f   Drawview.obj
 0001:00015300       ?OnNoshowVcVpn@CDrawView@@QAEXXZ 00416300 f   Drawview.obj
 0001:00015340       ?OnUpdateNoshowVcVpn@CDrawView@@QAEXPAVCCmdUI@@@Z 00416340 f   Drawview.obj
 0001:00015370       ?OnNoshowVcVrp@CDrawView@@QAEXXZ 00416370 f   Drawview.obj
 0001:000153b0       ?OnUpdateNoshowVcVrp@CDrawView@@QAEXPAVCCmdUI@@@Z 004163b0 f   Drawview.obj
 0001:000153e0       ?OnNoshowVcVup@CDrawView@@QAEXXZ 004163e0 f   Drawview.obj
 0001:00015420       ?OnUpdateNoshowVcVup@CDrawView@@QAEXPAVCCmdUI@@@Z 00416420 f   Drawview.obj
 0001:00015450       ?OnNoshowVcVv@CDrawView@@QAEXXZ 00416450 f   Drawview.obj
 0001:00015490       ?OnUpdateNoshowVcVv@CDrawView@@QAEXPAVCCmdUI@@@Z 00416490 f   Drawview.obj
 0001:000154c0       ?OnNoshowVcWc@CDrawView@@QAEXXZ 004164c0 f   Drawview.obj
 0001:00015500       ?OnUpdateNoshowVcWc@CDrawView@@QAEXPAVCCmdUI@@@Z 00416500 f   Drawview.obj
 0001:00015530       ?OnNoshowVcWcs@CDrawView@@QAEXXZ 00416530 f   Drawview.obj
 0001:00015570       ?OnUpdateNoshowVcWcs@CDrawView@@QAEXPAVCCmdUI@@@Z 00416570 f   Drawview.obj
 0001:000155a0       ?SetSceneChangedOnNoShow@CDrawView@@UAEXXZ 004165a0 f   Drawview.obj
 0001:000155f0       ?OnModeDesign@CDrawView@@QAEXXZ 004165f0 f   Drawview.obj
 0001:00015620       ?OnUpdateModeDesign@CDrawView@@QAEXPAVCCmdUI@@@Z 00416620 f   Drawview.obj
 0001:00015650       ?OnModeInterpolate@CDrawView@@QAEXXZ 00416650 f   Drawview.obj
 0001:00015680       ?OnUpdateModeInterpolate@CDrawView@@QAEXPAVCCmdUI@@@Z 00416680 f   Drawview.obj
 0001:000156b0       ?GetList@CDrawView@@IAEPAVCDListMgr@@I@Z 004166b0 f   Drawview.obj
 0001:00015700       ?ShowCountBox@CDrawView@@IAEXPBDH@Z 00416700 f   Drawview.obj
 0001:000157f0       ?OnSummaryCurveDirty@CDrawView@@QAEXXZ 004167f0 f   Drawview.obj
 0001:00015880       ?OnSummaryCurvePosted@CDrawView@@QAEXXZ 00416880 f   Drawview.obj
 0001:00015910       ?OnSummaryElements@CDrawView@@QAEXXZ 00416910 f   Drawview.obj
 0001:00015930       ?OnSummaryNodeAlltypes@CDrawView@@QAEXXZ 00416930 f   Drawview.obj
 0001:000159b0       ?OnSummaryNodeControl@CDrawView@@QAEXXZ 004169b0 f   Drawview.obj
 0001:00015a40       ?OnSummaryNodeMesh@CDrawView@@QAEXXZ 00416a40 f   Drawview.obj
 0001:00015ad0       ?OnSummaryObject@CDrawView@@QAEXXZ 00416ad0 f   Drawview.obj
 0001:00015af0       ?OnSummaryPatchDirty@CDrawView@@QAEXXZ 00416af0 f   Drawview.obj
 0001:00015b80       ?OnSummaryPatchPosted@CDrawView@@QAEXXZ 00416b80 f   Drawview.obj
 0001:00015c10       ?OnSummarySolidDirty@CDrawView@@QAEXXZ 00416c10 f   Drawview.obj
 0001:00015ca0       ?OnSummarySolidPosted@CDrawView@@QAEXXZ 00416ca0 f   Drawview.obj
 0001:00015d30       ?OnNoshowLinearsupportRigid@CDrawView@@QAEXXZ 00416d30 f   Drawview.obj
 0001:00015d70       ?OnUpdateNoshowLinearsupportRigid@CDrawView@@QAEXPAVCCmdUI@@@Z 00416d70 f   Drawview.obj
 0001:00015da0       ?OnNoshowLinearsupportSnubber@CDrawView@@QAEXXZ 00416da0 f   Drawview.obj
 0001:00015de0       ?OnUpdateNoshowLinearsupportSnubber@CDrawView@@QAEXPAVCCmdUI@@@Z 00416de0 f   Drawview.obj
 0001:00015e10       ?OnNoshowLinearsupportSpring@CDrawView@@QAEXXZ 00416e10 f   Drawview.obj
 0001:00015e50       ?OnUpdateNoshowLinearsupportSpring@CDrawView@@QAEXPAVCCmdUI@@@Z 00416e50 f   Drawview.obj
 0001:00015e80       ?OnSummaryLinearsupportRigid@CDrawView@@QAEXXZ 00416e80 f   Drawview.obj
 0001:00015f00       ?OnSummaryLinearsupportSnubber@CDrawView@@QAEXXZ 00416f00 f   Drawview.obj
 0001:00015fc0       ?OnSummaryLinearsupportSpring@CDrawView@@QAEXXZ 00416fc0 f   Drawview.obj
 0001:00016080       ?OnNoshowStaticForce@CDrawView@@QAEXXZ 00417080 f   Drawview.obj
 0001:000160c0       ?OnUpdateNoshowStaticForce@CDrawView@@QAEXPAVCCmdUI@@@Z 004170c0 f   Drawview.obj
 0001:000160f0       ?OnNoshowStaticDisplace@CDrawView@@QAEXXZ 004170f0 f   Drawview.obj
 0001:00016130       ?OnUpdateNoshowStaticDisplace@CDrawView@@QAEXPAVCCmdUI@@@Z 00417130 f   Drawview.obj
 0001:00016160       ?OnNoshowStaticPressure@CDrawView@@QAEXXZ 00417160 f   Drawview.obj
 0001:000161a0       ?OnUpdateNoshowStaticPressure@CDrawView@@QAEXPAVCCmdUI@@@Z 004171a0 f   Drawview.obj
 0001:000161d0       ?OnNoshowStaticThermal@CDrawView@@QAEXXZ 004171d0 f   Drawview.obj
 0001:00016210       ?OnUpdateNoshowStaticThermal@CDrawView@@QAEXPAVCCmdUI@@@Z 00417210 f   Drawview.obj
 0001:00016240       ?OnNoshowStaticLumpWt@CDrawView@@QAEXXZ 00417240 f   Drawview.obj
 0001:00016280       ?OnUpdateNoshowStaticLumpWt@CDrawView@@QAEXPAVCCmdUI@@@Z 00417280 f   Drawview.obj
 0001:000162b0       ?OnSummaryStaticForce@CDrawView@@QAEXXZ 004172b0 f   Drawview.obj
 0001:00016400       ?OnSummaryStaticDisplace@CDrawView@@QAEXXZ 00417400 f   Drawview.obj
 0001:00016540       ?OnSummaryStaticPressure@CDrawView@@QAEXXZ 00417540 f   Drawview.obj
 0001:00016680       ?OnSummaryStaticThermal@CDrawView@@QAEXXZ 00417680 f   Drawview.obj
 0001:000167c0       ?OnSummaryStaticLumpWt@CDrawView@@QAEXXZ 004177c0 f   Drawview.obj
 0001:00016800       ?MouseMove@CDrawView@@IAEXIVCPoint@@@Z 00417800 f   Drawview.obj
 0001:000169f0       ?LButtonDown@CDrawView@@IAEXIVCPoint@@@Z 004179f0 f   Drawview.obj
 0001:00016ba0       ?LButtonUp@CDrawView@@IAEXIVCPoint@@@Z 00417ba0 f   Drawview.obj
 0001:00016d50       ?RButtonDown@CDrawView@@IAEXIVCPoint@@@Z 00417d50 f   Drawview.obj
 0001:00016f00       ?RButtonUp@CDrawView@@IAEXIVCPoint@@@Z 00417f00 f   Drawview.obj
 0001:000170b0       ?OnViewModeGenerator@CDrawView@@QAEXXZ 004180b0 f   Drawview.obj
 0001:00017170       ?SetCurrentModeID@CDrGrafFrame@@QAEXW4ALLMODES@@@Z 00418170 f i Drawview.obj
 0001:000171a0       ?OnUpdateViewModeGenerator@CDrawView@@QAEXPAVCCmdUI@@@Z 004181a0 f   Drawview.obj
 0001:000171d0       ?OnViewModeMesh@CDrawView@@QAEXXZ 004181d0 f   Drawview.obj
 0001:00017290       ?OnUpdateViewModeMesh@CDrawView@@QAEXPAVCCmdUI@@@Z 00418290 f   Drawview.obj
 0001:000172c0       ?OnNoshowlabelsDCurve@CDrawView@@QAEXXZ 004182c0 f   Drawview.obj
 0001:000172f0       ?OnUpdateNoshowlabelsDCurve@CDrawView@@QAEXPAVCCmdUI@@@Z 004182f0 f   Drawview.obj
 0001:00017320       ?OnNoshowlabelsDObject@CDrawView@@QAEXXZ 00418320 f   Drawview.obj
 0001:00017350       ?OnUpdateNoshowlabelsDObject@CDrawView@@QAEXPAVCCmdUI@@@Z 00418350 f   Drawview.obj
 0001:00017380       ?OnNoshowlabelsDPatch@CDrawView@@QAEXXZ 00418380 f   Drawview.obj
 0001:000173b0       ?OnUpdateNoshowlabelsDPatch@CDrawView@@QAEXPAVCCmdUI@@@Z 004183b0 f   Drawview.obj
 0001:000173e0       ?OnNoshowlabelsDProfileS@CDrawView@@QAEXXZ 004183e0 f   Drawview.obj
 0001:00017410       ?OnUpdateNoshowlabelsDProfileS@CDrawView@@QAEXPAVCCmdUI@@@Z 00418410 f   Drawview.obj
 0001:00017440       ?OnNoshowlabelsDSolid@CDrawView@@QAEXXZ 00418440 f   Drawview.obj
 0001:00017470       ?OnUpdateNoshowlabelsDSolid@CDrawView@@QAEXPAVCCmdUI@@@Z 00418470 f   Drawview.obj
 0001:000174a0       ?OnNoshowlabelsLinearsupportRigid@CDrawView@@QAEXXZ 004184a0 f   Drawview.obj
 0001:000174d0       ?OnUpdateNoshowlabelsLinearsupportRigid@CDrawView@@QAEXPAVCCmdUI@@@Z 004184d0 f   Drawview.obj
 0001:00017500       ?OnNoshowlabelsLinearsupportSpring@CDrawView@@QAEXXZ 00418500 f   Drawview.obj
 0001:00017530       ?OnUpdateNoshowlabelsLinearsupportSpring@CDrawView@@QAEXPAVCCmdUI@@@Z 00418530 f   Drawview.obj
 0001:00017560       ?OnNoshowlabelsPCurve@CDrawView@@QAEXXZ 00418560 f   Drawview.obj
 0001:00017590       ?OnUpdateNoshowlabelsPCurve@CDrawView@@QAEXPAVCCmdUI@@@Z 00418590 f   Drawview.obj
 0001:000175c0       ?OnNoshowlabelsPObject@CDrawView@@QAEXXZ 004185c0 f   Drawview.obj
 0001:000175f0       ?OnUpdateNoshowlabelsPObject@CDrawView@@QAEXPAVCCmdUI@@@Z 004185f0 f   Drawview.obj
 0001:00017620       ?OnNoshowlabelsPPatch@CDrawView@@QAEXXZ 00418620 f   Drawview.obj
 0001:00017650       ?OnUpdateNoshowlabelsPPatch@CDrawView@@QAEXPAVCCmdUI@@@Z 00418650 f   Drawview.obj
 0001:00017680       ?OnNoshowlabelsPSolid@CDrawView@@QAEXXZ 00418680 f   Drawview.obj
 0001:000176b0       ?OnUpdateNoshowlabelsPSolid@CDrawView@@QAEXPAVCCmdUI@@@Z 004186b0 f   Drawview.obj
 0001:000176e0       ?OnNoshowlabelsStaticDisplace@CDrawView@@QAEXXZ 004186e0 f   Drawview.obj
 0001:00017710       ?OnUpdateNoshowlabelsStaticDisplace@CDrawView@@QAEXPAVCCmdUI@@@Z 00418710 f   Drawview.obj
 0001:00017740       ?OnNoshowlabelsStaticForce@CDrawView@@QAEXXZ 00418740 f   Drawview.obj
 0001:00017770       ?OnUpdateNoshowlabelsStaticForce@CDrawView@@QAEXPAVCCmdUI@@@Z 00418770 f   Drawview.obj
 0001:000177a0       ?OnNoshowlabelsStaticGravity@CDrawView@@QAEXXZ 004187a0 f   Drawview.obj
 0001:000177d0       ?OnUpdateNoshowlabelsStaticGravity@CDrawView@@QAEXPAVCCmdUI@@@Z 004187d0 f   Drawview.obj
 0001:00017800       ?OnNoshowlabelsStaticLumpwt@CDrawView@@QAEXXZ 00418800 f   Drawview.obj
 0001:00017830       ?OnUpdateNoshowlabelsStaticLumpwt@CDrawView@@QAEXPAVCCmdUI@@@Z 00418830 f   Drawview.obj
 0001:00017860       ?OnNoshowlabelsStaticThermal@CDrawView@@QAEXXZ 00418860 f   Drawview.obj
 0001:00017890       ?OnUpdateNoshowlabelsStaticThermal@CDrawView@@QAEXPAVCCmdUI@@@Z 00418890 f   Drawview.obj
 0001:000178c0       ?CreateObject@CDrGrafChildFrame@@SGPAVCObject@@XZ 004188c0 f   Drgracfm.obj
 0001:00017930       ?_GetBaseClass@CDrGrafChildFrame@@KGPAUCRuntimeClass@@XZ 00418930 f   Drgracfm.obj
 0001:00017950       ?GetRuntimeClass@CDrGrafChildFrame@@UBEPAUCRuntimeClass@@XZ 00418950 f   Drgracfm.obj
 0001:00017970       ?ActivateFrame@CDrGrafChildFrame@@MAEXH@Z 00418970 f   Drgracfm.obj
 0001:000179a0       ?Initialize@CDrGrafChildFrame@@SAXXZ 004189a0 f   Drgracfm.obj
 0001:000179e0       ?Terminate@CDrGrafChildFrame@@SAXXZ 004189e0 f   Drgracfm.obj
 0001:00017a30       ??0CDrGrafChildFrame@@IAE@XZ 00418a30 f   Drgracfm.obj
 0001:00017a60       ??_ECDrGrafChildFrame@@MAEPAXI@Z 00418a60 f i Drgracfm.obj
 0001:00017a60       ??_GCDrGrafChildFrame@@MAEPAXI@Z 00418a60 f i Drgracfm.obj
 0001:00017aa0       ??1CDrGrafChildFrame@@MAE@XZ 00418aa0 f   Drgracfm.obj
 0001:00017ad0       ??1CMDIChildWnd@@UAE@XZ    00418ad0 f i Drgracfm.obj
 0001:00017af0       ?PreCreateWindow@CDrGrafChildFrame@@UAEHAAUtagCREATESTRUCTA@@@Z 00418af0 f   Drgracfm.obj
 0001:00017c70       ?GetSBarTop@CDrGrafFrame@@QAEPAVCTopStatusBar@@XZ 00418c70 f i Drgracfm.obj
 0001:00017c90       ?GetSBarBot@CDrGrafFrame@@QAEPAVCBotStatusBar@@XZ 00418c90 f i Drgracfm.obj
 0001:00017cb0       ?_GetBaseMessageMap@CDrGrafChildFrame@@KGPBUAFX_MSGMAP@@XZ 00418cb0 f   Drgracfm.obj
 0001:00017cd0       ?GetMessageMap@CDrGrafChildFrame@@MBEPBUAFX_MSGMAP@@XZ 00418cd0 f   Drgracfm.obj
 0001:00017cf0       ?OnCommandHelp@CDrGrafChildFrame@@QAEJIJ@Z 00418cf0 f   Drgracfm.obj
 0001:00017dc0       ?GetOpMode@CDrGrafFrame@@QAE?AW4OPMODE@@XZ 00418dc0 f i Drgracfm.obj
 0001:00017de0       ?OnSize@CDrGrafChildFrame@@QAEXIHH@Z 00418de0 f   Drgracfm.obj
 0001:00017e50       ?OnMDIActivate@CDrGrafChildFrame@@QAEXHPAVCWnd@@0@Z 00418e50 f   Drgracfm.obj
 0001:00017e90       ?OnCreate@CDrGrafChildFrame@@QAEHPAUtagCREATESTRUCTA@@@Z 00418e90 f   Drgracfm.obj
 0001:00017ed0       ?OnContextHelp@CDrGrafChildFrame@@QAEXXZ 00418ed0 f   Drgracfm.obj
 0001:00017f00       ?OnUpdateContextHelp@CDrGrafChildFrame@@QAEXPAVCCmdUI@@@Z 00418f00 f   Drgracfm.obj
 0001:00017f20       ?CreateObject@CDrGrafDoc@@SGPAVCObject@@XZ 00418f20 f   Drgradoc.obj
 0001:00017f90       ?_GetBaseClass@CDrGrafDoc@@KGPAUCRuntimeClass@@XZ 00418f90 f   Drgradoc.obj
 0001:00017fb0       ?GetRuntimeClass@CDrGrafDoc@@UBEPAUCRuntimeClass@@XZ 00418fb0 f   Drgradoc.obj
 0001:00017fd0       ?_GetBaseMessageMap@CDrGrafDoc@@KGPBUAFX_MSGMAP@@XZ 00418fd0 f   Drgradoc.obj
 0001:00017ff0       ?GetMessageMap@CDrGrafDoc@@MBEPBUAFX_MSGMAP@@XZ 00418ff0 f   Drgradoc.obj
 0001:00018010       ?_GetBaseDispatchMap@CDrGrafDoc@@KGPBUAFX_DISPMAP@@XZ 00419010 f   Drgradoc.obj
 0001:00018030       ?GetDispatchMap@CDrGrafDoc@@MBEPBUAFX_DISPMAP@@XZ 00419030 f   Drgradoc.obj
 0001:00018050       ?_GetBaseInterfaceMap@CDrGrafDoc@@KGPBUAFX_INTERFACEMAP@@XZ 00419050 f   Drgradoc.obj
 0001:00018070       ?GetInterfaceMap@CDrGrafDoc@@MBEPBUAFX_INTERFACEMAP@@XZ 00419070 f   Drgradoc.obj
 0001:00018090       ??0CDrGrafDoc@@IAE@XZ      00419090 f   Drgradoc.obj
 0001:00018150       ??_ECDrGrafDoc@@UAEPAXI@Z  00419150 f i Drgradoc.obj
 0001:00018150       ??_GCDrGrafDoc@@UAEPAXI@Z  00419150 f i Drgradoc.obj
 0001:00018190       ??1CDrGrafDoc@@UAE@XZ      00419190 f   Drgradoc.obj
 0001:00018240       ?OnNewDocument@CDrGrafDoc@@UAEHXZ 00419240 f   Drgradoc.obj
 0001:00018290       ?OnOpenDocument@CDrGrafDoc@@UAEHPBD@Z 00419290 f   Drgradoc.obj
 0001:000182d0       ?OnCloseDocument@CDrGrafDoc@@UAEXXZ 004192d0 f   Drgradoc.obj
 0001:00018370       ?GetStatusBar@CDrGrafFrame@@QAEPAVCStatusBar@@XZ 00419370 f i Drgradoc.obj
 0001:00018390       ?GetDefaultMenu@CDrGrafDoc@@UAEPAUHMENU__@@XZ 00419390 f   Drgradoc.obj
 0001:000183b0       ?ReadDefaults@CDrGrafDoc@@IAEXXZ 004193b0 f   Drgradoc.obj
 0001:000183d0       ?Init@CDrGrafDoc@@IAEXXZ   004193d0 f   Drgradoc.obj
 0001:00018450       ?GetMsObjMgr@CDrGrafDoc@@QAEPAVCMsObjMgr@@XZ 00419450 f i Drgradoc.obj
 0001:00018470       ?OnGetEmbeddedItem@CDrGrafDoc@@MAEPAVCOleServerItem@@XZ 00419470 f   Drgradoc.obj
 0001:00018500       ?AssertValid@CDrGrafDoc@@UBEXXZ 00419500 f   Drgradoc.obj
 0001:00018520       ?Dump@CDrGrafDoc@@UBEXAAVCDumpContext@@@Z 00419520 f   Drgradoc.obj
 0001:00018550       ?OnEditClearAll@CDrGrafDoc@@IAEXXZ 00419550 f   Drgradoc.obj
 0001:00018610       ?OnUpdateEditClearAll@CDrGrafDoc@@IAEXPAVCCmdUI@@@Z 00419610 f   Drgradoc.obj
 0001:00018650       ?DeleteContents@CDrGrafDoc@@MAEXXZ 00419650 f   Drgradoc.obj
 0001:00018820       ?OnSpecLayer@CDrGrafDoc@@IAEXXZ 00419820 f   Drgradoc.obj
 0001:00018850       ?OnSpecObj3d@CDrGrafDoc@@IAEXXZ 00419850 f   Drgradoc.obj
 0001:00018870       ?OnUpdateSpecObj3d@CDrGrafDoc@@IAEXPAVCCmdUI@@@Z 00419870 f   Drgradoc.obj
 0001:00018890       ?OnSpecPatch@CDrGrafDoc@@IAEXXZ 00419890 f   Drgradoc.obj
 0001:000188b0       ?OnUpdateSpecPatch@CDrGrafDoc@@IAEXPAVCCmdUI@@@Z 004198b0 f   Drgradoc.obj
 0001:000188d0       ?OnMeshOff@CDrGrafDoc@@IAEXXZ 004198d0 f   Drgradoc.obj
 0001:00018920       ?OnUpdateMeshOff@CDrGrafDoc@@IAEXPAVCCmdUI@@@Z 00419920 f   Drgradoc.obj
 0001:00018960       ?OnMeshLinr@CDrGrafDoc@@IAEXXZ 00419960 f   Drgradoc.obj
 0001:000189b0       ?OnUpdateMeshLinr@CDrGrafDoc@@IAEXPAVCCmdUI@@@Z 004199b0 f   Drgradoc.obj
 0001:00018a00       ?OnMeshQuad@CDrGrafDoc@@IAEXXZ 00419a00 f   Drgradoc.obj
 0001:00018a50       ?OnUpdateMeshQuad@CDrGrafDoc@@IAEXPAVCCmdUI@@@Z 00419a50 f   Drgradoc.obj
 0001:00018aa0       ?OnMeshHerm@CDrGrafDoc@@IAEXXZ 00419aa0 f   Drgradoc.obj
 0001:00018af0       ?OnUpdateMeshHerm@CDrGrafDoc@@IAEXPAVCCmdUI@@@Z 00419af0 f   Drgradoc.obj
 0001:00018b40       ?OnMeshBspl@CDrGrafDoc@@IAEXXZ 00419b40 f   Drgradoc.obj
 0001:00018b90       ?OnUpdateMeshBspl@CDrGrafDoc@@IAEXPAVCCmdUI@@@Z 00419b90 f   Drgradoc.obj
 0001:00018be0       ?OnMeshBezi@CDrGrafDoc@@IAEXXZ 00419be0 f   Drgradoc.obj
 0001:00018c30       ?OnUpdateMeshBezi@CDrGrafDoc@@IAEXPAVCCmdUI@@@Z 00419c30 f   Drgradoc.obj
 0001:00018c80       ?OnViewDatabaseSheetform@CDrGrafDoc@@IAEXXZ 00419c80 f   Drgradoc.obj
 0001:00018ca0       ?OnUpdateViewDatabaseSheetform@CDrGrafDoc@@IAEXPAVCCmdUI@@@Z 00419ca0 f   Drgradoc.obj
 0001:00018cd0       ?OnSpecDoubleratio@CDrGrafDoc@@IAEXXZ 00419cd0 f   Drgradoc.obj
 0001:00018cf0       ?OnSpecColinear@CDrGrafDoc@@IAEXXZ 00419cf0 f   Drgradoc.obj
 0001:00018d10       ?OnSpecCoplanar@CDrGrafDoc@@IAEXXZ 00419d10 f   Drgradoc.obj
 0001:00018d30       ?Serialize@CDrGrafDoc@@UAEXAAVCArchive@@@Z 00419d30 f   Drgradoc.obj
 0001:00018d80       ?_GetBaseMessageMap@CDrGrafApp@@KGPBUAFX_MSGMAP@@XZ 00419d80 f   Drgraf.obj
 0001:00018da0       ?GetMessageMap@CDrGrafApp@@MBEPBUAFX_MSGMAP@@XZ 00419da0 f   Drgraf.obj
 0001:00018dc0       ??0CDrGrafApp@@QAE@XZ      00419dc0 f   Drgraf.obj
 0001:00018eb0       ??_ECDrGrafApp@@UAEPAXI@Z  00419eb0 f i Drgraf.obj
 0001:00018eb0       ??_GCDrGrafApp@@UAEPAXI@Z  00419eb0 f i Drgraf.obj
 0001:00018ef0       ??1COleTemplateServer@@UAE@XZ 00419ef0 f i Drgraf.obj
 0001:00018f10       ??0CSplashWnd@@QAE@XZ      00419f10 f i Drgraf.obj
 0001:00018f90       ??_GCSplashWnd@@UAEPAXI@Z  00419f90 f i Drgraf.obj
 0001:00018f90       ??_ECSplashWnd@@UAEPAXI@Z  00419f90 f i Drgraf.obj
 0001:00018fd0       ??1CSplashWnd@@UAE@XZ      00419fd0 f i Drgraf.obj
 0001:00019040       ??1CDrGrafApp@@UAE@XZ      0041a040 f   Drgraf.obj
 0001:00019170       ?InitInstance@CDrGrafApp@@UAEHXZ 0041a170 f   Drgraf.obj
 0001:000194c0       ?RegisterNewClasses@CDrGrafApp@@IAEHXZ 0041a4c0 f   Drgraf.obj
 0001:00019670       ?SetDocument@CDrGrafApp@@QAEXXZ 0041a670 f   Drgraf.obj
 0001:00019700       ?InitDLLs@CDrGrafApp@@IAEXXZ 0041a700 f   Drgraf.obj
 0001:000197f0       ?SetDocument@CDrGrafApp@@QAEXPAVCDrGrafDoc@@@Z 0041a7f0 f   Drgraf.obj
 0001:00019820       ?CreateBannerWnd@CDrGrafApp@@QAEHPAVCBanner@@@Z 0041a820 f   Drgraf.obj
 0001:00019850       ?ShowBanner@CDrGrafApp@@IAEHXZ 0041a850 f   Drgraf.obj
 0001:00019a40       ?SetDestroy@CBanner@@QAEXH@Z 0041aa40 f i Drgraf.obj
 0001:00019a60       ?CreateMainFrame@CDrGrafApp@@IAEHPAVCDrGrafFrame@@@Z 0041aa60 f   Drgraf.obj
 0001:00019b30       ?RegisterDocTemplates@CDrGrafApp@@IAEXXZ 0041ab30 f   Drgraf.obj
 0001:00019f30       ?OnAppAbout@CDrGrafApp@@IAEXXZ 0041af30 f   Drgraf.obj
 0001:00019fa0       ?OnIdle@CDrGrafApp@@UAEHJ@Z 0041afa0 f   Drgraf.obj
 0001:00019fd0       ?OnAppExit@CDrGrafApp@@IAEXXZ 0041afd0 f   Drgraf.obj
 0001:00019ff0       ?OnUpdateAppExit@CDrGrafApp@@IAEXPAVCCmdUI@@@Z 0041aff0 f   Drgraf.obj
 0001:0001a010       ?OnContextHelp@CDrGrafApp@@IAEXXZ 0041b010 f   Drgraf.obj
 0001:0001a030       ?OnUpdateContextHelp@CDrGrafApp@@IAEXPAVCCmdUI@@@Z 0041b030 f   Drgraf.obj
 0001:0001a050       ?OnFileClose@CDrGrafApp@@IAEXXZ 0041b050 f   Drgraf.obj
 0001:0001a070       ?OnUpdateFileClose@CDrGrafApp@@IAEXPAVCCmdUI@@@Z 0041b070 f   Drgraf.obj
 0001:0001a090       ?OnFileNew@CDrGrafApp@@IAEXXZ 0041b090 f   Drgraf.obj
 0001:0001a140       ?OnUpdateFileNew@CDrGrafApp@@IAEXPAVCCmdUI@@@Z 0041b140 f   Drgraf.obj
 0001:0001a160       ?OnFileOpen@CDrGrafApp@@IAEXXZ 0041b160 f   Drgraf.obj
 0001:0001a240       ?OnUpdateFileOpen@CDrGrafApp@@IAEXPAVCCmdUI@@@Z 0041b240 f   Drgraf.obj
 0001:0001a260       ?OnFilePrint@CDrGrafApp@@IAEXXZ 0041b260 f   Drgraf.obj
 0001:0001a280       ?OnUpdateFilePrint@CDrGrafApp@@IAEXPAVCCmdUI@@@Z 0041b280 f   Drgraf.obj
 0001:0001a2a0       ?OnFilePrintPreview@CDrGrafApp@@IAEXXZ 0041b2a0 f   Drgraf.obj
 0001:0001a2c0       ?OnUpdateFilePrintPreview@CDrGrafApp@@IAEXPAVCCmdUI@@@Z 0041b2c0 f   Drgraf.obj
 0001:0001a2e0       ?OnFileSave@CDrGrafApp@@IAEXXZ 0041b2e0 f   Drgraf.obj
 0001:0001a300       ?OnUpdateFileSave@CDrGrafApp@@IAEXPAVCCmdUI@@@Z 0041b300 f   Drgraf.obj
 0001:0001a320       ?OnFileSaveAs@CDrGrafApp@@IAEXXZ 0041b320 f   Drgraf.obj
 0001:0001a340       ?OnUpdateFileSaveAs@CDrGrafApp@@IAEXPAVCCmdUI@@@Z 0041b340 f   Drgraf.obj
 0001:0001a360       ?OpenDocumentFile@CDrGrafApp@@UAEPAVCDocument@@PBD@Z 0041b360 f   Drgraf.obj
 0001:0001a4a0       ??0CFileStatus@@QAE@XZ     0041b4a0 f i Drgraf.obj
 0001:0001a4e0       ?UpdateIniFileWithDocPath@CDrGrafApp@@QAEXPBD@Z 0041b4e0 f   Drgraf.obj
 0001:0001a510       ?GetDocPathFromIniFile@CDrGrafApp@@QAE?AVCString@@XZ 0041b510 f   Drgraf.obj
 0001:0001a550       ?PreTranslateMessage@CDrGrafApp@@UAEHPAUtagMSG@@@Z 0041b550 f   Drgraf.obj
 0001:0001a580       ?_GetBaseClass@CDrGrafFrame@@KGPAUCRuntimeClass@@XZ 0041b580 f   Drgrafrm.obj
 0001:0001a5a0       ?GetRuntimeClass@CDrGrafFrame@@UBEPAUCRuntimeClass@@XZ 0041b5a0 f   Drgrafrm.obj
 0001:0001a5c0       ?_GetBaseMessageMap@CDrGrafFrame@@KGPBUAFX_MSGMAP@@XZ 0041b5c0 f   Drgrafrm.obj
 0001:0001a5e0       ?GetMessageMap@CDrGrafFrame@@MBEPBUAFX_MSGMAP@@XZ 0041b5e0 f   Drgrafrm.obj
 0001:0001a600       ??0CDrGrafFrame@@QAE@XZ    0041b600 f   Drgrafrm.obj
 0001:0001ac50       ??1CTopStatusBar@@UAE@XZ   0041bc50 f i Drgrafrm.obj
 0001:0001ac80       ??_GCTopStatusBar@@UAEPAXI@Z 0041bc80 f i Drgrafrm.obj
 0001:0001ac80       ??_ECTopStatusBar@@UAEPAXI@Z 0041bc80 f i Drgrafrm.obj
 0001:0001acc0       ??1CBotStatusBar@@UAE@XZ   0041bcc0 f i Drgrafrm.obj
 0001:0001acf0       ??_ECBotStatusBar@@UAEPAXI@Z 0041bcf0 f i Drgrafrm.obj
 0001:0001acf0       ??_GCBotStatusBar@@UAEPAXI@Z 0041bcf0 f i Drgrafrm.obj
 0001:0001ad30       ?ReSetIGenOpen@CDrGrafFrame@@QAEXHH@Z 0041bd30 f i Drgrafrm.obj
 0001:0001ad60       ?ReSetCntlOpen@CDrGrafFrame@@QAEXHH@Z 0041bd60 f i Drgrafrm.obj
 0001:0001ad90       ?SetMouseBoxType@CDrGrafFrame@@QAEXI@Z 0041bd90 f i Drgrafrm.obj
 0001:0001adc0       ?GetInitMenu@CDrGrafFrame@@QAEPAVCMenu@@XZ 0041bdc0 f i Drgrafrm.obj
 0001:0001ade0       ?GetInputMenu@CDrGrafFrame@@QAEPAVCMenu@@XZ 0041bde0 f i Drgrafrm.obj
 0001:0001ae00       ?GetOutputMenu@CDrGrafFrame@@QAEPAVCMenu@@XZ 0041be00 f i Drgrafrm.obj
 0001:0001ae20       ??_ECDrGrafFrame@@UAEPAXI@Z 0041be20 f i Drgrafrm.obj
 0001:0001ae20       ??_GCDrGrafFrame@@UAEPAXI@Z 0041be20 f i Drgrafrm.obj
 0001:0001ae60       ??1CMDIFrameWnd@@UAE@XZ    0041be60 f i Drgrafrm.obj
 0001:0001ae80       ??1CDrGrafFrame@@UAE@XZ    0041be80 f   Drgrafrm.obj
 0001:0001b310       ?SwitchMenu@CDrGrafFrame@@QAEXI@Z 0041c310 f   Drgrafrm.obj
 0001:0001b470       ?GetAuxInputMenu@CDrGrafFrame@@QAEPAVCMenu@@XZ 0041c470 f i Drgrafrm.obj
 0001:0001b490       ?GetMessageBar@CDrGrafFrame@@UAEPAVCWnd@@XZ 0041c490 f   Drgrafrm.obj
 0001:0001b4e0       ?OnCreate@CDrGrafFrame@@IAEHPAUtagCREATESTRUCTA@@@Z 0041c4e0 f   Drgrafrm.obj
 0001:0001beb0       ?GetMGenBox@CDrGrafFrame@@QAEPAVCMGenBox@@XZ 0041ceb0 f i Drgrafrm.obj
 0001:0001bed0       ?GetModeStat@CDrGrafFrame@@QAEPAVCStatCntl@@XZ 0041ced0 f i Drgrafrm.obj
 0001:0001bef0       ?GetSpawnStat@CDrGrafFrame@@QAEPAVCStatCntl@@XZ 0041cef0 f i Drgrafrm.obj
 0001:0001bf10       ?GetSnapStat@CDrGrafFrame@@QAEPAVCStatCntl@@XZ 0041cf10 f i Drgrafrm.obj
 0001:0001bf30       ?AssertValid@CDrGrafFrame@@UBEXXZ 0041cf30 f   Drgrafrm.obj
 0001:0001bf50       ?Dump@CDrGrafFrame@@UBEXAAVCDumpContext@@@Z 0041cf50 f   Drgrafrm.obj
 0001:0001bf80       ?Init@CDrGrafFrame@@QAEXXZ 0041cf80 f   Drgrafrm.obj
 0001:0001d260       ?SetInfo@CStatCntl@@QAEXVCPoint@@VCString@@IIKKIIUtagLOGFONTA@@K@Z 0041e260 f i Drgrafrm.obj
 0001:0001d330       ?GetDLDMouse@CEditMgr@@QAEPAVCDLDEdit@@XZ 0041e330 f i Drgrafrm.obj
 0001:0001d350       ?GetDLDMouse@CMditMgr@@QAEPAVCSolMdit@@XZ 0041e350 f i Drgrafrm.obj
 0001:0001d370       ?GetDLDMouse@CDelMgr@@QAEPAVCDLDDel@@XZ 0041e370 f i Drgrafrm.obj
 0001:0001d390       ?GetProbDimLim@CDrGrafFrame@@QAE?AW4PROBDIMLIM@@XZ 0041e390 f i Drgrafrm.obj
 0001:0001d3b0       ?GetElemDimLim@CDrGrafFrame@@QAE?AW4ELEMDIMLIM@@XZ 0041e3b0 f i Drgrafrm.obj
 0001:0001d3d0       ?GetPostMgr@CDrGrafFrame@@QAEPAVCPostMgr@@XZ 0041e3d0 f i Drgrafrm.obj
 0001:0001d3f0       ?GetDelMgr@CDrGrafFrame@@QAEPAVCDelMgr@@XZ 0041e3f0 f i Drgrafrm.obj
 0001:0001d410       ?GetEditMgr@CDrGrafFrame@@QAEPAVCEditMgr@@XZ 0041e410 f i Drgrafrm.obj
 0001:0001d430       ?GetMditMgr@CDrGrafFrame@@QAEPAVCMditMgr@@XZ 0041e430 f i Drgrafrm.obj
 0001:0001d450       ?GetCreOpMgr@CDrGrafFrame@@QAEPAVCCreOpMgr@@XZ 0041e450 f i Drgrafrm.obj
 0001:0001d470       ?GetCreOMMgr@CDrGrafFrame@@QAEPAVCCreOMMgr@@XZ 0041e470 f i Drgrafrm.obj
 0001:0001d490       ?GetMouseMgr@CDrGrafFrame@@QAEPAVCMouseMgr@@XZ 0041e490 f i Drgrafrm.obj
 0001:0001d4b0       ??1CProbElemDim@@UAE@XZ    0041e4b0 f i Drgrafrm.obj
 0001:0001d540       ?SizeRectDlgIn@CDrGrafFrame@@QAEXAAVCRect@@@Z 0041e540 f   Drgrafrm.obj
 0001:0001d610       ?OnCreateorActivateF_MIn@CDrGrafFrame@@IAEJIJ@Z 0041e610 f   Drgrafrm.obj
 0001:0001d650       ?GetDLDMouse@CMouseMgr@@QAEPAVCDLDMouse@@XZ 0041e650 f i Drgrafrm.obj
 0001:0001d670       ?OnGoodByeF_MIn@CDrGrafFrame@@IAEJIJ@Z 0041e670 f   Drgrafrm.obj
 0001:0001d6b0       ?OnUpdateF_MIn@CDrGrafFrame@@IAEJIJ@Z 0041e6b0 f   Drgrafrm.obj
 0001:0001d6f0       ?OnCancelF_MIn@CDrGrafFrame@@IAEJIJ@Z 0041e6f0 f   Drgrafrm.obj
 0001:0001d730       ?OnCreateorActivateD_RIn@CDrGrafFrame@@IAEJIJ@Z 0041e730 f   Drgrafrm.obj
 0001:0001d770       ?OnGoodByeD_RIn@CDrGrafFrame@@IAEJIJ@Z 0041e770 f   Drgrafrm.obj
 0001:0001d7b0       ?OnUpdateD_RIn@CDrGrafFrame@@IAEJIJ@Z 0041e7b0 f   Drgrafrm.obj
 0001:0001d7f0       ?OnCancelD_RIn@CDrGrafFrame@@IAEJIJ@Z 0041e7f0 f   Drgrafrm.obj
 0001:0001d830       ?OnCreateorActivatePrsIn@CDrGrafFrame@@IAEJIJ@Z 0041e830 f   Drgrafrm.obj
 0001:0001d870       ?OnGoodByePrsIn@CDrGrafFrame@@IAEJIJ@Z 0041e870 f   Drgrafrm.obj
 0001:0001d8b0       ?OnUpdatePrsIn@CDrGrafFrame@@IAEJIJ@Z 0041e8b0 f   Drgrafrm.obj
 0001:0001d8f0       ?OnCancelPrsIn@CDrGrafFrame@@IAEJIJ@Z 0041e8f0 f   Drgrafrm.obj
 0001:0001d930       ?OnCreateorActivateThrIn@CDrGrafFrame@@IAEJIJ@Z 0041e930 f   Drgrafrm.obj
 0001:0001d970       ?OnGoodByeThrIn@CDrGrafFrame@@IAEJIJ@Z 0041e970 f   Drgrafrm.obj
 0001:0001d9b0       ?OnUpdateThrIn@CDrGrafFrame@@IAEJIJ@Z 0041e9b0 f   Drgrafrm.obj
 0001:0001d9f0       ?OnCancelThrIn@CDrGrafFrame@@IAEJIJ@Z 0041e9f0 f   Drgrafrm.obj
 0001:0001da30       ?OnCreateorActivateLWtIn@CDrGrafFrame@@IAEJIJ@Z 0041ea30 f   Drgrafrm.obj
 0001:0001da70       ?OnGoodByeLWtIn@CDrGrafFrame@@IAEJIJ@Z 0041ea70 f   Drgrafrm.obj
 0001:0001dab0       ?OnUpdateLWtIn@CDrGrafFrame@@IAEJIJ@Z 0041eab0 f   Drgrafrm.obj
 0001:0001daf0       ?OnCancelLWtIn@CDrGrafFrame@@IAEJIJ@Z 0041eaf0 f   Drgrafrm.obj
 0001:0001db30       ?OnCreateorActivateSupIn@CDrGrafFrame@@IAEJIJ@Z 0041eb30 f   Drgrafrm.obj
 0001:0001db70       ?OnGoodByeSupIn@CDrGrafFrame@@IAEJIJ@Z 0041eb70 f   Drgrafrm.obj
 0001:0001dbb0       ?OnUpdateSupIn@CDrGrafFrame@@IAEJIJ@Z 0041ebb0 f   Drgrafrm.obj
 0001:0001dbf0       ?OnCancelSupIn@CDrGrafFrame@@IAEJIJ@Z 0041ebf0 f   Drgrafrm.obj
 0001:0001dc30       ?OnCreateorActivateNodIn@CDrGrafFrame@@IAEJIJ@Z 0041ec30 f   Drgrafrm.obj
 0001:0001dc70       ?OnGoodByeNodIn@CDrGrafFrame@@IAEJIJ@Z 0041ec70 f   Drgrafrm.obj
 0001:0001dcb0       ?OnUpdateNodIn@CDrGrafFrame@@IAEJIJ@Z 0041ecb0 f   Drgrafrm.obj
 0001:0001dcf0       ?OnCancelNodIn@CDrGrafFrame@@IAEJIJ@Z 0041ecf0 f   Drgrafrm.obj
 0001:0001dd30       ?OnCreateorActivateLQCIn@CDrGrafFrame@@IAEJIJ@Z 0041ed30 f   Drgrafrm.obj
 0001:0001dd70       ?OnGoodByeLQCIn@CDrGrafFrame@@IAEJIJ@Z 0041ed70 f   Drgrafrm.obj
 0001:0001ddb0       ?OnUpdateLQCIn@CDrGrafFrame@@IAEJIJ@Z 0041edb0 f   Drgrafrm.obj
 0001:0001ddf0       ?OnCancelLQCIn@CDrGrafFrame@@IAEJIJ@Z 0041edf0 f   Drgrafrm.obj
 0001:0001de30       ?OnCreateorActivateCrcIn@CDrGrafFrame@@IAEJIJ@Z 0041ee30 f   Drgrafrm.obj
 0001:0001de70       ?OnGoodByeCrcIn@CDrGrafFrame@@IAEJIJ@Z 0041ee70 f   Drgrafrm.obj
 0001:0001deb0       ?OnUpdateCrcIn@CDrGrafFrame@@IAEJIJ@Z 0041eeb0 f   Drgrafrm.obj
 0001:0001def0       ?OnCancelCrcIn@CDrGrafFrame@@IAEJIJ@Z 0041eef0 f   Drgrafrm.obj
 0001:0001df30       ?OnCreateorActivatePatIn@CDrGrafFrame@@IAEJIJ@Z 0041ef30 f   Drgrafrm.obj
 0001:0001df70       ?OnGoodByePatIn@CDrGrafFrame@@IAEJIJ@Z 0041ef70 f   Drgrafrm.obj
 0001:0001dfb0       ?OnUpdatePatIn@CDrGrafFrame@@IAEJIJ@Z 0041efb0 f   Drgrafrm.obj
 0001:0001dff0       ?OnCancelPatIn@CDrGrafFrame@@IAEJIJ@Z 0041eff0 f   Drgrafrm.obj
 0001:0001e030       ?OnCreateorActivateSolIn@CDrGrafFrame@@IAEJIJ@Z 0041f030 f   Drgrafrm.obj
 0001:0001e070       ?OnGoodByeSolIn@CDrGrafFrame@@IAEJIJ@Z 0041f070 f   Drgrafrm.obj
 0001:0001e0b0       ?OnUpdateSolIn@CDrGrafFrame@@IAEJIJ@Z 0041f0b0 f   Drgrafrm.obj
 0001:0001e0f0       ?OnCancelSolIn@CDrGrafFrame@@IAEJIJ@Z 0041f0f0 f   Drgrafrm.obj
 0001:0001e130       ?OnCreateorActivateO3DIn@CDrGrafFrame@@IAEJIJ@Z 0041f130 f   Drgrafrm.obj
 0001:0001e170       ?OnGoodByeO3DIn@CDrGrafFrame@@IAEJIJ@Z 0041f170 f   Drgrafrm.obj
 0001:0001e1b0       ?OnUpdateO3DIn@CDrGrafFrame@@IAEJIJ@Z 0041f1b0 f   Drgrafrm.obj
 0001:0001e1f0       ?OnCancelO3DIn@CDrGrafFrame@@IAEJIJ@Z 0041f1f0 f   Drgrafrm.obj
 0001:0001e230       ?OnCreateorActivateCreIn@CDrGrafFrame@@IAEJIJ@Z 0041f230 f   Drgrafrm.obj
 0001:0001e290       ?OnGoodByeCreIn@CDrGrafFrame@@IAEJIJ@Z 0041f290 f   Drgrafrm.obj
 0001:0001e2f0       ?OnUpdateCreIn@CDrGrafFrame@@IAEJIJ@Z 0041f2f0 f   Drgrafrm.obj
 0001:0001e350       ?OnCancelCreIn@CDrGrafFrame@@IAEJIJ@Z 0041f350 f   Drgrafrm.obj
 0001:0001e3b0       ?OnCreateorActivateFE0In@CDrGrafFrame@@IAEJIJ@Z 0041f3b0 f   Drgrafrm.obj
 0001:0001e3f0       ?GetDLDMouse@CPostMgr@@QAEPAVCPatPost@@XZ 0041f3f0 f i Drgrafrm.obj
 0001:0001e410       ?OnGoodByeFE0In@CDrGrafFrame@@IAEJIJ@Z 0041f410 f   Drgrafrm.obj
 0001:0001e450       ?OnUpdateFE0In@CDrGrafFrame@@IAEJIJ@Z 0041f450 f   Drgrafrm.obj
 0001:0001e490       ?OnCancelFE0In@CDrGrafFrame@@IAEJIJ@Z 0041f490 f   Drgrafrm.obj
 0001:0001e4d0       ?OnCreateorActivateFE1In@CDrGrafFrame@@IAEJIJ@Z 0041f4d0 f   Drgrafrm.obj
 0001:0001e510       ?OnGoodByeFE1In@CDrGrafFrame@@IAEJIJ@Z 0041f510 f   Drgrafrm.obj
 0001:0001e550       ?OnUpdateFE1In@CDrGrafFrame@@IAEJIJ@Z 0041f550 f   Drgrafrm.obj
 0001:0001e590       ?OnCancelFE1In@CDrGrafFrame@@IAEJIJ@Z 0041f590 f   Drgrafrm.obj
 0001:0001e5d0       ?OnCreateorActivateFE2In@CDrGrafFrame@@IAEJIJ@Z 0041f5d0 f   Drgrafrm.obj
 0001:0001e610       ?OnGoodByeFE2In@CDrGrafFrame@@IAEJIJ@Z 0041f610 f   Drgrafrm.obj
 0001:0001e650       ?OnUpdateFE2In@CDrGrafFrame@@IAEJIJ@Z 0041f650 f   Drgrafrm.obj
 0001:0001e690       ?OnCancelFE2In@CDrGrafFrame@@IAEJIJ@Z 0041f690 f   Drgrafrm.obj
 0001:0001e6d0       ?OnCreateorActivateFE3In@CDrGrafFrame@@IAEJIJ@Z 0041f6d0 f   Drgrafrm.obj
 0001:0001e700       ?OnGoodByeFE3In@CDrGrafFrame@@IAEJIJ@Z 0041f700 f   Drgrafrm.obj
 0001:0001e730       ?OnUpdateFE3In@CDrGrafFrame@@IAEJIJ@Z 0041f730 f   Drgrafrm.obj
 0001:0001e760       ?OnCancelFE3In@CDrGrafFrame@@IAEJIJ@Z 0041f760 f   Drgrafrm.obj
 0001:0001e790       ?InitialShowWindow@CDrGrafFrame@@QAEXI@Z 0041f790 f   Drgrafrm.obj
 0001:0001e900       ?OnClose@CDrGrafFrame@@IAEXXZ 0041f900 f   Drgrafrm.obj
 0001:0001eab0       ?CreateOrActivateFrame@CDrGrafFrame@@QAEXPAVCDocTemplate@@PAUCRuntimeClass@@@Z 0041fab0 f   Drgrafrm.obj
 0001:0001eda0       ?CloseView@CDrGrafFrame@@QAEXPAUCRuntimeClass@@@Z 0041fda0 f   Drgrafrm.obj
 0001:0001ef20       ?Create@CIGenBox@@QAEHPAVCWnd@@VCRect@@@Z 0041ff20 f   Drgrafrm.obj
 0001:0001efe0       ?Create@CMGenBox@@QAEHPAVCWnd@@VCRect@@@Z 0041ffe0 f   Drgrafrm.obj
 0001:0001f0a0       ?Create@CMainBox@@QAEHPAVCWnd@@VCRect@@@Z 004200a0 f   Drgrafrm.obj
 0001:0001f160       ?Create@CCntlBox@@QAEHPAVCWnd@@VCRect@@@Z 00420160 f   Drgrafrm.obj
 0001:0001f220       ?Create@CEDimBox@@QAEHPAVCWnd@@VCRect@@@Z 00420220 f   Drgrafrm.obj
 0001:0001f2e0       ?Create@CDrawBox@@QAEHPAVCWnd@@VCRect@@@Z 004202e0 f   Drgrafrm.obj
 0001:0001f3a0       ?OnDeckDreampipe@CDrGrafFrame@@IAEXXZ 004203a0 f   Drgrafrm.obj
 0001:0001f3c0       ?OnUpdateDeckDreampipe@CDrGrafFrame@@IAEXPAVCCmdUI@@@Z 004203c0 f   Drgrafrm.obj
 0001:0001f3e0       ?OnDeckSap@CDrGrafFrame@@IAEXXZ 004203e0 f   Drgrafrm.obj
 0001:0001f400       ?OnUpdateDeckSap@CDrGrafFrame@@IAEXPAVCCmdUI@@@Z 00420400 f   Drgrafrm.obj
 0001:0001f420       ?OnDeckTab@CDrGrafFrame@@IAEXXZ 00420420 f   Drgrafrm.obj
 0001:0001f440       ?OnUpdateDeckTab@CDrGrafFrame@@IAEXPAVCCmdUI@@@Z 00420440 f   Drgrafrm.obj
 0001:0001f460       ?OnOptionAxison@CDrGrafFrame@@IAEXXZ 00420460 f   Drgrafrm.obj
 0001:0001f480       ?OnUpdateOptionAxison@CDrGrafFrame@@IAEXPAVCCmdUI@@@Z 00420480 f   Drgrafrm.obj
 0001:0001f4a0       ?OnOptionMode@CDrGrafFrame@@IAEJIJ@Z 004204a0 f   Drgrafrm.obj
 0001:0001f5b0       ?OnOptionAutoacceptOn@CDrGrafFrame@@IAEXXZ 004205b0 f   Drgrafrm.obj
 0001:0001f690       ?OnUpdateOptionAutoacceptOn@CDrGrafFrame@@IAEXPAVCCmdUI@@@Z 00420690 f   Drgrafrm.obj
 0001:0001f6f0       ?OnOptionSingleSegOn@CDrGrafFrame@@IAEXXZ 004206f0 f   Drgrafrm.obj
 0001:0001f7d0       ?OnUpdateOptionSingleSegOn@CDrGrafFrame@@IAEXPAVCCmdUI@@@Z 004207d0 f   Drgrafrm.obj
 0001:0001f830       ?OnOptionSpawnOn@CDrGrafFrame@@IAEXXZ 00420830 f   Drgrafrm.obj
 0001:0001f940       ?OnUpdateOptionSpawnOn@CDrGrafFrame@@IAEXPAVCCmdUI@@@Z 00420940 f   Drgrafrm.obj
 0001:0001f9a0       ?OnOptionBlineOn@CDrGrafFrame@@IAEXXZ 004209a0 f   Drgrafrm.obj
 0001:0001fad0       ?GetMouseBoxType@CDrGrafFrame@@QAEIXZ 00420ad0 f i Drgrafrm.obj
 0001:0001faf0       ?OnUpdateOptionBlineOn@CDrGrafFrame@@IAEXPAVCCmdUI@@@Z 00420af0 f   Drgrafrm.obj
 0001:0001fb50       ?OnOptionDialogon@CDrGrafFrame@@IAEXXZ 00420b50 f   Drgrafrm.obj
 0001:0001fba0       ?OnUpdateOptionDialogon@CDrGrafFrame@@IAEXPAVCCmdUI@@@Z 00420ba0 f   Drgrafrm.obj
 0001:0001fc00       ?OnOptionPenchange@CDrGrafFrame@@IAEXXZ 00420c00 f   Drgrafrm.obj
 0001:0001fc20       ?OnUpdateOptionPenchange@CDrGrafFrame@@IAEXPAVCCmdUI@@@Z 00420c20 f   Drgrafrm.obj
 0001:0001fc40       ?OnOptionRefresh@CDrGrafFrame@@IAEXXZ 00420c40 f   Drgrafrm.obj
 0001:0001fc80       ?OnOptionRubberband@CDrGrafFrame@@IAEXXZ 00420c80 f   Drgrafrm.obj
 0001:0001fcd0       ?OnUpdateOptionRubberband@CDrGrafFrame@@IAEXPAVCCmdUI@@@Z 00420cd0 f   Drgrafrm.obj
 0001:0001fd30       ?OnView12view@CDrGrafFrame@@IAEXXZ 00420d30 f   Drgrafrm.obj
 0001:0001fe00       ?Get12ViewTemplate@CDrGrafApp@@QAEPAVCMultiDocTemplate@@XZ 00420e00 f i Drgrafrm.obj
 0001:0001fe20       ?OnUpdateView12view@CDrGrafFrame@@IAEXPAVCCmdUI@@@Z 00420e20 f   Drgrafrm.obj
 0001:0001fe80       ?OnView23view@CDrGrafFrame@@IAEXXZ 00420e80 f   Drgrafrm.obj
 0001:0001ff40       ?Get23ViewTemplate@CDrGrafApp@@QAEPAVCMultiDocTemplate@@XZ 00420f40 f i Drgrafrm.obj
 0001:0001ff60       ?OnUpdateView23view@CDrGrafFrame@@IAEXPAVCCmdUI@@@Z 00420f60 f   Drgrafrm.obj
 0001:0001ffc0       ?OnView31view@CDrGrafFrame@@IAEXXZ 00420fc0 f   Drgrafrm.obj
 0001:00020080       ?Get31ViewTemplate@CDrGrafApp@@QAEPAVCMultiDocTemplate@@XZ 00421080 f i Drgrafrm.obj
 0001:000200a0       ?OnUpdateView31view@CDrGrafFrame@@IAEXPAVCCmdUI@@@Z 004210a0 f   Drgrafrm.obj
 0001:00020100       ?OnView3dview@CDrGrafFrame@@IAEXXZ 00421100 f   Drgrafrm.obj
 0001:00020250       ?Get3DViewTemplate@CDrGrafApp@@QAEPAVCMultiDocTemplate@@XZ 00421250 f i Drgrafrm.obj
 0001:00020270       ?OnUpdateView3dview@CDrGrafFrame@@IAEXPAVCCmdUI@@@Z 00421270 f   Drgrafrm.obj
 0001:000202d0       ?OnAddl3dview@CDrGrafFrame@@QAEXXZ 004212d0 f   Drgrafrm.obj
 0001:00020390       ?OnViewDataview@CDrGrafFrame@@IAEXXZ 00421390 f   Drgrafrm.obj
 0001:00020430       ?GetDataViewTemplate@CDrGrafApp@@QAEPAVCMultiDocTemplate@@XZ 00421430 f i Drgrafrm.obj
 0001:00020450       ?OnUpdateViewDataview@CDrGrafFrame@@IAEXPAVCCmdUI@@@Z 00421450 f   Drgrafrm.obj
 0001:000204b0       ?OnViewMeshDataview@CDrGrafFrame@@IAEXXZ 004214b0 f   Drgrafrm.obj
 0001:00020550       ?GetMeshDataViewTemplate@CDrGrafApp@@QAEPAVCMultiDocTemplate@@XZ 00421550 f i Drgrafrm.obj
 0001:00020570       ?OnUpdateViewMeshDataview@CDrGrafFrame@@IAEXPAVCCmdUI@@@Z 00421570 f   Drgrafrm.obj
 0001:000205d0       ?OnViewDeckview@CDrGrafFrame@@IAEXXZ 004215d0 f   Drgrafrm.obj
 0001:00020670       ?GetDeckViewTemplate@CDrGrafApp@@QAEPAVCMultiDocTemplate@@XZ 00421670 f i Drgrafrm.obj
 0001:00020690       ?OnUpdateViewDeckview@CDrGrafFrame@@IAEXPAVCCmdUI@@@Z 00421690 f   Drgrafrm.obj
 0001:000206f0       ?OnViewInputstatusControls@CDrGrafFrame@@IAEXXZ 004216f0 f   Drgrafrm.obj
 0001:00020730       ?OnUpdateViewInputstatusControls@CDrGrafFrame@@IAEXPAVCCmdUI@@@Z 00421730 f   Drgrafrm.obj
 0001:00020770       ?OnViewInputstatusDecorators@CDrGrafFrame@@IAEXXZ 00421770 f   Drgrafrm.obj
 0001:000207b0       ?OnUpdateViewInputstatusDecorators@CDrGrafFrame@@IAEXPAVCCmdUI@@@Z 004217b0 f   Drgrafrm.obj
 0001:000207f0       ?OnViewInputstatusGenerator@CDrGrafFrame@@IAEXXZ 004217f0 f   Drgrafrm.obj
 0001:00020830       ?OnUpdateViewInputstatusGenerator@CDrGrafFrame@@IAEXPAVCCmdUI@@@Z 00421830 f   Drgrafrm.obj
 0001:00020870       ?OnViewInputstatusCurrent@CDrGrafFrame@@IAEXXZ 00421870 f   Drgrafrm.obj
 0001:000208b0       ?OnUpdateViewInputstatusCurrent@CDrGrafFrame@@IAEXPAVCCmdUI@@@Z 004218b0 f   Drgrafrm.obj
 0001:000208f0       ?OnViewInputstatusOperations@CDrGrafFrame@@IAEXXZ 004218f0 f   Drgrafrm.obj
 0001:00020930       ?OnUpdateViewInputstatusOperations@CDrGrafFrame@@IAEXPAVCCmdUI@@@Z 00421930 f   Drgrafrm.obj
 0001:00020970       ?OnViewOperbox@CDrGrafFrame@@IAEXXZ 00421970 f   Drgrafrm.obj
 0001:000209b0       ?OnUpdateViewOperbox@CDrGrafFrame@@IAEXPAVCCmdUI@@@Z 004219b0 f   Drgrafrm.obj
 0001:000209f0       ?OnViewDrawbox@CDrGrafFrame@@IAEXXZ 004219f0 f   Drgrafrm.obj
 0001:00020a30       ?OnUpdateViewDrawbox@CDrGrafFrame@@IAEXPAVCCmdUI@@@Z 00421a30 f   Drgrafrm.obj
 0001:00020a70       ?OnModeChange@CDrGrafFrame@@QAEXXZ 00421a70 f   Drgrafrm.obj
 0001:00020a90       ?OnViewCntlbox@CDrGrafFrame@@IAEXXZ 00421a90 f   Drgrafrm.obj
 0001:00020bd0       ?OnUpdateViewCntlbox@CDrGrafFrame@@IAEXPAVCCmdUI@@@Z 00421bd0 f   Drgrafrm.obj
 0001:00020c40       ?OnViewGenbox@CDrGrafFrame@@IAEXXZ 00421c40 f   Drgrafrm.obj
 0001:00020cb0       ?OnUpdateViewGenbox@CDrGrafFrame@@IAEXPAVCCmdUI@@@Z 00421cb0 f   Drgrafrm.obj
 0001:00020d20       ?OnViewSBarBot@CDrGrafFrame@@IAEXXZ 00421d20 f   Drgrafrm.obj
 0001:00020d80       ?OnUpdateViewSBarBot@CDrGrafFrame@@IAEXPAVCCmdUI@@@Z 00421d80 f   Drgrafrm.obj
 0001:00020dd0       ?OnViewSBarTop@CDrGrafFrame@@IAEXXZ 00421dd0 f   Drgrafrm.obj
 0001:00020e30       ?OnUpdateViewSBarTop@CDrGrafFrame@@IAEXPAVCCmdUI@@@Z 00421e30 f   Drgrafrm.obj
 0001:00020e80       ?OnSpecPaper@CDrGrafFrame@@IAEXXZ 00421e80 f   Drgrafrm.obj
 0001:00020ea0       ?OnSpecsTolerances@CDrGrafFrame@@IAEXXZ 00421ea0 f   Drgrafrm.obj
 0001:00020ed0       ?OnSpecPrecision@CDrGrafFrame@@IAEXXZ 00421ed0 f   Drgrafrm.obj
 0001:00020f00       ?OnSpecScalefactor@CDrGrafFrame@@IAEXXZ 00421f00 f   Drgrafrm.obj
 0001:00020f30       ?OnSpecUnits@CDrGrafFrame@@IAEXXZ 00421f30 f   Drgrafrm.obj
 0001:00020f60       ?GetViewPointer@CDrGrafFrame@@QAEPAVCView@@PAUCRuntimeClass@@@Z 00421f60 f   Drgrafrm.obj
 0001:00021030       ?AnyOtherInputViewVisible@CDrGrafFrame@@QAEHXZ 00422030 f   Drgrafrm.obj
 0001:000210f0       ?ModeLessOff@CDrGrafFrame@@QAEXXZ 004220f0 f   Drgrafrm.obj
 0001:000211e0       ?GetSolCreOp@CCreOpMgr@@QAEPAVCO3DCreOp@@XZ 004221e0 f i Drgrafrm.obj
 0001:00021200       ?ModeLessOff_Mesh@CDrGrafFrame@@QAEXXZ 00422200 f   Drgrafrm.obj
 0001:00021220       ?OnResetCntlOpen@CDrGrafFrame@@IAEJIJ@Z 00422220 f   Drgrafrm.obj
 0001:000214d0       ?ReSetEDimOpen@CDrGrafFrame@@QAEXHH@Z 004224d0 f i Drgrafrm.obj
 0001:00021500       ?OnResetIGenOpen@CDrGrafFrame@@IAEJIJ@Z 00422500 f   Drgrafrm.obj
 0001:000217e0       ?OnResetCntlOpen_Mesh@CDrGrafFrame@@IAEJIJ@Z 004227e0 f   Drgrafrm.obj
 0001:00021980       ?OnResetIGenOpen_Mesh@CDrGrafFrame@@IAEJIJ@Z 00422980 f   Drgrafrm.obj
 0001:00021c60       ?OnResetCntlOpen_Auxi@CDrGrafFrame@@IAEJIJ@Z 00422c60 f   Drgrafrm.obj
 0001:00021e00       ?OnResetIGenOpen_Auxi@CDrGrafFrame@@IAEJIJ@Z 00422e00 f   Drgrafrm.obj
 0001:000220e0       ?OnResetVaskID@CDrGrafFrame@@IAEJIJ@Z 004230e0 f   Drgrafrm.obj
 0001:00022100       ?OnResetMaskID@CDrGrafFrame@@IAEJIJ@Z 00423100 f   Drgrafrm.obj
 0001:00022450       ?SetIGenBoxStatus@CDrGrafFrame@@QAEXH@Z 00423450 f i Drgrafrm.obj
 0001:00022480       ?SetActiveToolType@CDrGrafFrame@@QAEXH@Z 00423480 f i Drgrafrm.obj
 0001:000224b0       ?OnResetXaskID@CDrGrafFrame@@IAEJIJ@Z 004234b0 f   Drgrafrm.obj
 0001:00022880       ?OnResetTaskID@CDrGrafFrame@@IAEJIJ@Z 00423880 f   Drgrafrm.obj
 0001:00022b00       ?UpdateSpawnStat@CDrGrafFrame@@QAEXAAVCString@@@Z 00423b00 f   Drgrafrm.obj
 0001:00022b50       ?SetText@CStatCntl@@QAEXAAVCString@@@Z 00423b50 f i Drgrafrm.obj
 0001:00022b80       ?UpdateBLineStat@CDrGrafFrame@@QAEXAAVCString@@@Z 00423b80 f   Drgrafrm.obj
 0001:00022bd0       ?UpdateSnapStat@CDrGrafFrame@@QAEXAAVCString@@@Z 00423bd0 f   Drgrafrm.obj
 0001:00022c20       ?UpdateAutoAcceptStat@CDrGrafFrame@@QAEXAAVCString@@@Z 00423c20 f   Drgrafrm.obj
 0001:00022c70       ?UpdateSingleSegStat@CDrGrafFrame@@QAEXAAVCString@@@Z 00423c70 f   Drgrafrm.obj
 0001:00022cc0       ?UpdateCntlStat@CDrGrafFrame@@QAEXAAVCString@@@Z 00423cc0 f   Drgrafrm.obj
 0001:00022d10       ?UpdateIGenStat@CDrGrafFrame@@QAEXAAVCString@@@Z 00423d10 f   Drgrafrm.obj
 0001:00022d60       ?UpdateOperStat@CDrGrafFrame@@QAEXAAVCString@@@Z 00423d60 f   Drgrafrm.obj
 0001:00022db0       ?UpdateModeStat@CDrGrafFrame@@QAEXAAVCString@@@Z 00423db0 f   Drgrafrm.obj
 0001:00022e00       ?OnUpdateStatCntls@CDrGrafFrame@@IAEJIJ@Z 00423e00 f   Drgrafrm.obj
 0001:00022e20       ?UpdateStaticControls@CDrGrafFrame@@QAEXXZ 00423e20 f   Drgrafrm.obj
 0001:00022e90       ?UpdateCurrStat@CDrGrafFrame@@QAEXAAVCString@@@Z 00423e90 f i Drgrafrm.obj
 0001:00022ee0       ?OnResetModeLess_Auxi@CDrGrafFrame@@IAEJIJ@Z 00423ee0 f   Drgrafrm.obj
 0001:00022f10       ?GetActiveToolType@CDrGrafFrame@@QAEHXZ 00423f10 f i Drgrafrm.obj
 0001:00022f30       ?ModeLessOn_Auxi@CDrGrafFrame@@QAEXXZ 00423f30 f   Drgrafrm.obj
 0001:000230f0       ?GetSolCreOp@CCreOMMgr@@QAEPAVCPatCreOM@@XZ 004240f0 f i Drgrafrm.obj
 0001:00023110       ?OnResetModeLess_Mesh@CDrGrafFrame@@IAEJIJ@Z 00424110 f   Drgrafrm.obj
 0001:00023140       ?ModeLessOn_Mesh@CDrGrafFrame@@QAEXXZ 00424140 f   Drgrafrm.obj
 0001:00023410       ?OnResetModeLess@CDrGrafFrame@@IAEJIJ@Z 00424410 f   Drgrafrm.obj
 0001:00023440       ?ModeLessOn@CDrGrafFrame@@QAEXXZ 00424440 f   Drgrafrm.obj
 0001:00023a30       ?OnModeInput@CDrGrafFrame@@QAEXXZ 00424a30 f   Drgrafrm.obj
 0001:00023af0       ?OnModeOutput@CDrGrafFrame@@QAEXXZ 00424af0 f   Drgrafrm.obj
 0001:00023bb0       ?OnTimer@CDrGrafFrame@@IAEXI@Z 00424bb0 f   Drgrafrm.obj
 0001:00023d50       ?OnSettingChange@CDrGrafFrame@@IAEXIPBD@Z 00424d50 f   Drgrafrm.obj
 0001:00023dc0       ?OnWindowNew3dView@CDrGrafFrame@@IAEXXZ 00424dc0 f   Drgrafrm.obj
 0001:00023eb0       ?OnUpdateWindowNew3dView@CDrGrafFrame@@IAEXPAVCCmdUI@@@Z 00424eb0 f   Drgrafrm.obj
 0001:00023ed0       ?OnDebugCalctime@CDrGrafFrame@@IAEXXZ 00424ed0 f   Drgrafrm.obj
 0001:00023f30       ?OnUpdateDebugCalctime@CDrGrafFrame@@IAEXPAVCCmdUI@@@Z 00424f30 f   Drgrafrm.obj
 0001:00023f70       ?OnViewAllview@CDrGrafFrame@@IAEXXZ 00424f70 f   Drgrafrm.obj
 0001:000240b0       ?OnUpdateViewAllview@CDrGrafFrame@@IAEXPAVCCmdUI@@@Z 004250b0 f   Drgrafrm.obj
 0001:00024110       ?OnViewSpectra@CDrGrafFrame@@IAEXXZ 00425110 f   Drgrafrm.obj
 0001:000241b0       ?GetSpecViewTemplate@CDrGrafApp@@QAEPAVCMultiDocTemplate@@XZ 004251b0 f i Drgrafrm.obj
 0001:000241d0       ?OnUpdateViewSpectra@CDrGrafFrame@@IAEXPAVCCmdUI@@@Z 004251d0 f   Drgrafrm.obj
 0001:000241f0       ?OnViewDatabaseFormdata@CDrGrafFrame@@IAEXXZ 004251f0 f   Drgrafrm.obj
 0001:00024290       ?GetFormViewTemplate@CDrGrafApp@@QAEPAVCMultiDocTemplate@@XZ 00425290 f i Drgrafrm.obj
 0001:000242b0       ?OnUpdateViewDatabaseFormdata@CDrGrafFrame@@IAEXPAVCCmdUI@@@Z 004252b0 f   Drgrafrm.obj
 0001:000242d0       ?OnUpdateModeAuxilliarySpatial@CDrGrafFrame@@IAEXPAVCCmdUI@@@Z 004252d0 f   Drgrafrm.obj
 0001:000242f0       ?OnModeAuxilliarySpectral@CDrGrafFrame@@IAEXXZ 004252f0 f   Drgrafrm.obj
 0001:00024440       ?OnUpdateModeAuxilliarySpectral@CDrGrafFrame@@IAEXPAVCCmdUI@@@Z 00425440 f   Drgrafrm.obj
 0001:00024460       ?OnModeAuxilliaryTemporal@CDrGrafFrame@@IAEXXZ 00425460 f   Drgrafrm.obj
 0001:00024480       ?OnUpdateModeAuxilliaryTemporal@CDrGrafFrame@@IAEXPAVCCmdUI@@@Z 00425480 f   Drgrafrm.obj
 0001:000244a0       ?OnOptionSnaponObjmerg@CDrGrafFrame@@IAEXXZ 004254a0 f   Drgrafrm.obj
 0001:00024580       ?OnUpdateOptionSnaponObjmerg@CDrGrafFrame@@IAEXPAVCCmdUI@@@Z 00425580 f   Drgrafrm.obj
 0001:000245e0       ?CreateObject@CDrSplitFrm@@SGPAVCObject@@XZ 004255e0 f   DrSplit.obj
 0001:00024650       ?_GetBaseClass@CDrSplitFrm@@KGPAUCRuntimeClass@@XZ 00425650 f   DrSplit.obj
 0001:00024670       ?GetRuntimeClass@CDrSplitFrm@@UBEPAUCRuntimeClass@@XZ 00425670 f   DrSplit.obj
 0001:00024690       ??0CDrSplitFrm@@IAE@XZ     00425690 f   DrSplit.obj
 0001:00024700       ??_ECDrSplitFrm@@UAEPAXI@Z 00425700 f i DrSplit.obj
 0001:00024700       ??_GCDrSplitFrm@@UAEPAXI@Z 00425700 f i DrSplit.obj
 0001:00024740       ??1CDrSplitFrm@@UAE@XZ     00425740 f   DrSplit.obj
 0001:000247a0       ?OnCreateClient@CDrSplitFrm@@UAEHPAUtagCREATESTRUCTA@@PAUCCreateContext@@@Z 004257a0 f   DrSplit.obj
 0001:000249a0       ?_GetBaseMessageMap@CDrSplitFrm@@KGPBUAFX_MSGMAP@@XZ 004259a0 f   DrSplit.obj
 0001:000249c0       ?GetMessageMap@CDrSplitFrm@@MBEPBUAFX_MSGMAP@@XZ 004259c0 f   DrSplit.obj
 0001:000249e0       ?_GetBaseClass@CDrSplitWnd@@KGPAUCRuntimeClass@@XZ 004259e0 f   DrSplit.obj
 0001:00024a00       ?GetRuntimeClass@CDrSplitWnd@@UBEPAUCRuntimeClass@@XZ 00425a00 f   DrSplit.obj
 0001:00024a20       ??0CDrSplitWnd@@QAE@XZ     00425a20 f   DrSplit.obj
 0001:00024a50       ??_GCDrSplitWnd@@UAEPAXI@Z 00425a50 f i DrSplit.obj
 0001:00024a50       ??_ECDrSplitWnd@@UAEPAXI@Z 00425a50 f i DrSplit.obj
 0001:00024a90       ??1CDrSplitWnd@@UAE@XZ     00425a90 f   DrSplit.obj
 0001:00024ac0       ?GetActivePane@CDrSplitWnd@@UAEPAVCWnd@@PAH0@Z 00425ac0 f   DrSplit.obj
 0001:00024c20       ??0CTopStatusBar@@QAE@XZ   00425c20 f   Drstatus.obj
 0001:00024c50       ?OnUpdateCmdUI@CTopStatusBar@@UAEXPAVCFrameWnd@@H@Z 00425c50 f   Drstatus.obj
 0001:00024c70       ?Init@CTopStatusBar@@QAEHXZ 00425c70 f   Drstatus.obj
 0001:00024ef0       ?UpdateStatusBar@CTopStatusBar@@QAEXPAVCClientDC@@@Z 00425ef0 f   Drstatus.obj
 0001:00025220       ?IsIGenBoxActive@CDrGrafFrame@@QAEHXZ 00426220 f i Drstatus.obj
 0001:00025240       ?GetActiveObjectType@CDrGrafFrame@@QAEHXZ 00426240 f i Drstatus.obj
 0001:00025260       ?IsDrawBoxActive@CDrGrafFrame@@QAEHXZ 00426260 f i Drstatus.obj
 0001:00025280       ??0CBotStatusBar@@QAE@XZ   00426280 f   Drstatus.obj
 0001:000252b0       ?OnUpdateCmdUI@CBotStatusBar@@UAEXPAVCFrameWnd@@H@Z 004262b0 f   Drstatus.obj
 0001:000252d0       ?Init@CBotStatusBar@@QAEHXZ 004262d0 f   Drstatus.obj
 0001:000254b0       ?UpdateStatusBar@CBotStatusBar@@QAEXPAVCClientDC@@@Z 004264b0 f   Drstatus.obj
 0001:00025fc0       ?CreateObject@CDVM_CreM@@SGPAVCObject@@XZ 00426fc0 f   DVM_CreM.obj
 0001:00026040       ?_GetBaseClass@CDVM_CreM@@KGPAUCRuntimeClass@@XZ 00427040 f   DVM_CreM.obj
 0001:00026060       ?GetRuntimeClass@CDVM_CreM@@UBEPAUCRuntimeClass@@XZ 00427060 f   DVM_CreM.obj
 0001:00026080       ?MouseMove@CDVM_CreM@@QAEXPAVCView@@IVCPoint@@@Z 00427080 f   DVM_CreM.obj
 0001:000263a0       ?GetDBMouse@CMouseMgr@@QAEPAVCDBMouse@@XZ 004273a0 f i DVM_CreM.obj
 0001:000263c0       ?LButtonDown@CDVM_CreM@@QAEXPAVCView@@IVCPoint@@@Z 004273c0 f   DVM_CreM.obj
 0001:000266a0       ?LButtonUp@CDVM_CreM@@QAEXPAVCView@@IVCPoint@@@Z 004276a0 f   DVM_CreM.obj
 0001:00026980       ?RButtonDown@CDVM_CreM@@QAEXPAVCView@@IVCPoint@@@Z 00427980 f   DVM_CreM.obj
 0001:00026c60       ?RButtonUp@CDVM_CreM@@QAEXPAVCView@@IVCPoint@@@Z 00427c60 f   DVM_CreM.obj
 0001:00026f40       ?CreateObject@CDVM_CreO@@SGPAVCObject@@XZ 00427f40 f   DVM_CreO.obj
 0001:00026fc0       ?_GetBaseClass@CDVM_CreO@@KGPAUCRuntimeClass@@XZ 00427fc0 f   DVM_CreO.obj
 0001:00026fe0       ?GetRuntimeClass@CDVM_CreO@@UBEPAUCRuntimeClass@@XZ 00427fe0 f   DVM_CreO.obj
 0001:00027000       ?MouseMove@CDVM_CreO@@QAEXPAVCView@@IVCPoint@@@Z 00428000 f   DVM_CreO.obj
 0001:00027390       ?LButtonDown@CDVM_CreO@@QAEXPAVCView@@IVCPoint@@@Z 00428390 f   DVM_CreO.obj
 0001:000276e0       ?LButtonUp@CDVM_CreO@@QAEXPAVCView@@IVCPoint@@@Z 004286e0 f   DVM_CreO.obj
 0001:00027a30       ?RButtonDown@CDVM_CreO@@QAEXPAVCView@@IVCPoint@@@Z 00428a30 f   DVM_CreO.obj
 0001:00027d80       ?RButtonUp@CDVM_CreO@@QAEXPAVCView@@IVCPoint@@@Z 00428d80 f   DVM_CreO.obj
 0001:000280d0       ?CreateObject@CDVM_Del@@SGPAVCObject@@XZ 004290d0 f   DVM_Del.obj
 0001:00028150       ?_GetBaseClass@CDVM_Del@@KGPAUCRuntimeClass@@XZ 00429150 f   DVM_Del.obj
 0001:00028170       ?GetRuntimeClass@CDVM_Del@@UBEPAUCRuntimeClass@@XZ 00429170 f   DVM_Del.obj
 0001:00028190       ?MouseMove@CDVM_Del@@QAEXPAVCView@@IVCPoint@@@Z 00429190 f   DVM_Del.obj
 0001:00028590       ?LButtonDown@CDVM_Del@@QAEXPAVCView@@IVCPoint@@@Z 00429590 f   DVM_Del.obj
 0001:00028950       ?LButtonUp@CDVM_Del@@QAEXPAVCView@@IVCPoint@@@Z 00429950 f   DVM_Del.obj
 0001:00028d10       ?RButtonDown@CDVM_Del@@QAEXPAVCView@@IVCPoint@@@Z 00429d10 f   DVM_Del.obj
 0001:000290d0       ?RButtonUp@CDVM_Del@@QAEXPAVCView@@IVCPoint@@@Z 0042a0d0 f   DVM_Del.obj
 0001:00029490       ?CreateObject@CDVM_Edit@@SGPAVCObject@@XZ 0042a490 f   DVM_Edit.obj
 0001:00029510       ?_GetBaseClass@CDVM_Edit@@KGPAUCRuntimeClass@@XZ 0042a510 f   DVM_Edit.obj
 0001:00029530       ?GetRuntimeClass@CDVM_Edit@@UBEPAUCRuntimeClass@@XZ 0042a530 f   DVM_Edit.obj
 0001:00029550       ?MouseMove@CDVM_Edit@@QAEXPAVCView@@IVCPoint@@@Z 0042a550 f   DVM_Edit.obj
 0001:00029950       ?LButtonDown@CDVM_Edit@@QAEXPAVCView@@IVCPoint@@@Z 0042a950 f   DVM_Edit.obj
 0001:00029d10       ?LButtonUp@CDVM_Edit@@QAEXPAVCView@@IVCPoint@@@Z 0042ad10 f   DVM_Edit.obj
 0001:0002a0d0       ?RButtonDown@CDVM_Edit@@QAEXPAVCView@@IVCPoint@@@Z 0042b0d0 f   DVM_Edit.obj
 0001:0002a490       ?RButtonUp@CDVM_Edit@@QAEXPAVCView@@IVCPoint@@@Z 0042b490 f   DVM_Edit.obj
 0001:0002a850       ?CreateObject@CDVM_Genr@@SGPAVCObject@@XZ 0042b850 f   DVM_Genr.obj
 0001:0002a8d0       ?_GetBaseClass@CDVM_Genr@@KGPAUCRuntimeClass@@XZ 0042b8d0 f   DVM_Genr.obj
 0001:0002a8f0       ?GetRuntimeClass@CDVM_Genr@@UBEPAUCRuntimeClass@@XZ 0042b8f0 f   DVM_Genr.obj
 0001:0002a910       ?ResetDlg_NOD@CDVM_Genr@@IAEHI@Z 0042b910 f   DVM_Genr.obj
 0001:0002aa00       ?GetNodInDlg@CNodMouse@@QAEPAVCDlg_NodI@@XZ 0042ba00 f i DVM_Genr.obj
 0001:0002aa20       ?ResetDlg_CUR@CDVM_Genr@@IAEHI@Z 0042ba20 f   DVM_Genr.obj
 0001:0002ace0       ?GetLQCInDlg@CCurMouse@@QAEPAVCDlg_LQCI@@XZ 0042bce0 f i DVM_Genr.obj
 0001:0002ad00       ?GetCrcInDlg@CCurMouse@@QAEPAVCDlg_CrcI@@XZ 0042bd00 f i DVM_Genr.obj
 0001:0002ad20       ?ResetDlg_PAT@CDVM_Genr@@IAEHI@Z 0042bd20 f   DVM_Genr.obj
 0001:0002ae60       ?GetPatSheet@CPatMouse@@QAEPAVCSheet_PATI@@XZ 0042be60 f i DVM_Genr.obj
 0001:0002ae80       ?ResetDlg_SOL@CDVM_Genr@@IAEHI@Z 0042be80 f   DVM_Genr.obj
 0001:0002afc0       ?GetSolSheet@CSolMouse@@QAEPAVCSheet_SOLI@@XZ 0042bfc0 f i DVM_Genr.obj
 0001:0002afe0       ?MouseMove@CDVM_Genr@@QAEXPAVCView@@IVCPoint@@@Z 0042bfe0 f   DVM_Genr.obj
 0001:0002b420       ?LButtonDown@CDVM_Genr@@QAEXPAVCView@@IVCPoint@@@Z 0042c420 f   DVM_Genr.obj
 0001:0002b910       ?LButtonUp@CDVM_Genr@@QAEXPAVCView@@IVCPoint@@@Z 0042c910 f   DVM_Genr.obj
 0001:0002bde0       ?RButtonDown@CDVM_Genr@@QAEXPAVCView@@IVCPoint@@@Z 0042cde0 f   DVM_Genr.obj
 0001:0002c2e0       ?RButtonUp@CDVM_Genr@@QAEXPAVCView@@IVCPoint@@@Z 0042d2e0 f   DVM_Genr.obj
 0001:0002c7e0       ?CreateObject@CDVM_Mdit@@SGPAVCObject@@XZ 0042d7e0 f   DVM_Mdit.obj
 0001:0002c860       ?_GetBaseClass@CDVM_Mdit@@KGPAUCRuntimeClass@@XZ 0042d860 f   DVM_Mdit.obj
 0001:0002c880       ?GetRuntimeClass@CDVM_Mdit@@UBEPAUCRuntimeClass@@XZ 0042d880 f   DVM_Mdit.obj
 0001:0002c8a0       ?MouseMove@CDVM_Mdit@@QAEXPAVCView@@IVCPoint@@@Z 0042d8a0 f   DVM_Mdit.obj
 0001:0002cbd0       ?LButtonDown@CDVM_Mdit@@QAEXPAVCView@@IVCPoint@@@Z 0042dbd0 f   DVM_Mdit.obj
 0001:0002cec0       ?LButtonUp@CDVM_Mdit@@QAEXPAVCView@@IVCPoint@@@Z 0042dec0 f   DVM_Mdit.obj
 0001:0002d1b0       ?RButtonDown@CDVM_Mdit@@QAEXPAVCView@@IVCPoint@@@Z 0042e1b0 f   DVM_Mdit.obj
 0001:0002d4a0       ?RButtonUp@CDVM_Mdit@@QAEXPAVCView@@IVCPoint@@@Z 0042e4a0 f   DVM_Mdit.obj
 0001:0002d790       ?CreateObject@CDVM_Post@@SGPAVCObject@@XZ 0042e790 f   DVM_Post.obj
 0001:0002d810       ?_GetBaseClass@CDVM_Post@@KGPAUCRuntimeClass@@XZ 0042e810 f   DVM_Post.obj
 0001:0002d830       ?GetRuntimeClass@CDVM_Post@@UBEPAUCRuntimeClass@@XZ 0042e830 f   DVM_Post.obj
 0001:0002d850       ?MouseMove@CDVM_Post@@QAEXPAVCView@@IVCPoint@@@Z 0042e850 f   DVM_Post.obj
 0001:0002db10       ?LButtonDown@CDVM_Post@@QAEXPAVCView@@IVCPoint@@@Z 0042eb10 f   DVM_Post.obj
 0001:0002dda0       ?LButtonUp@CDVM_Post@@QAEXPAVCView@@IVCPoint@@@Z 0042eda0 f   DVM_Post.obj
 0001:0002e020       ?RButtonDown@CDVM_Post@@QAEXPAVCView@@IVCPoint@@@Z 0042f020 f   DVM_Post.obj
 0001:0002e2a0       ?RButtonUp@CDVM_Post@@QAEXPAVCView@@IVCPoint@@@Z 0042f2a0 f   DVM_Post.obj
 0001:0002e520       ?CreateObject@CHsDataVu@@SGPAVCObject@@XZ 0042f520 f   HsDataVu.obj
 0001:0002e590       ?_GetBaseClass@CHsDataVu@@KGPAUCRuntimeClass@@XZ 0042f590 f   HsDataVu.obj
 0001:0002e5b0       ?GetRuntimeClass@CHsDataVu@@UBEPAUCRuntimeClass@@XZ 0042f5b0 f   HsDataVu.obj
 0001:0002e5d0       ??0CHsDataVu@@IAE@XZ       0042f5d0 f   HsDataVu.obj
 0001:0002e600       ??_ECHsDataVu@@MAEPAXI@Z   0042f600 f i HsDataVu.obj
 0001:0002e600       ??_GCHsDataVu@@MAEPAXI@Z   0042f600 f i HsDataVu.obj
 0001:0002e640       ??1CHsDataVu@@MAE@XZ       0042f640 f   HsDataVu.obj
 0001:0002e6a0       ?_GetBaseMessageMap@CHsDataVu@@KGPBUAFX_MSGMAP@@XZ 0042f6a0 f   HsDataVu.obj
 0001:0002e6c0       ?GetMessageMap@CHsDataVu@@MBEPBUAFX_MSGMAP@@XZ 0042f6c0 f   HsDataVu.obj
 0001:0002e6e0       ?OnLButtonDblClk@CHsDataVu@@IAEXIVCPoint@@@Z 0042f6e0 f   HsDataVu.obj
 0001:0002e740       ?OnSetFocus@CHsDataVu@@IAEXPAVCWnd@@@Z 0042f740 f   HsDataVu.obj
 0001:0002e790       ?CreateObject@CHsDrawVu@@SGPAVCObject@@XZ 0042f790 f   HsDrawVu.obj
 0001:0002e800       ?_GetBaseClass@CHsDrawVu@@KGPAUCRuntimeClass@@XZ 0042f800 f   HsDrawVu.obj
 0001:0002e820       ?GetRuntimeClass@CHsDrawVu@@UBEPAUCRuntimeClass@@XZ 0042f820 f   HsDrawVu.obj
 0001:0002e840       ?_GetBaseMessageMap@CHsDrawVu@@KGPBUAFX_MSGMAP@@XZ 0042f840 f   HsDrawVu.obj
 0001:0002e860       ?GetMessageMap@CHsDrawVu@@MBEPBUAFX_MSGMAP@@XZ 0042f860 f   HsDrawVu.obj
 0001:0002e880       ??0CHsDrawVu@@IAE@XZ       0042f880 f   HsDrawVu.obj
 0001:0002e8c0       ??_GCHsDrawVu@@UAEPAXI@Z   0042f8c0 f i HsDrawVu.obj
 0001:0002e8c0       ??_ECHsDrawVu@@UAEPAXI@Z   0042f8c0 f i HsDrawVu.obj
 0001:0002e900       ??1CHsDrawVu@@UAE@XZ       0042f900 f   HsDrawVu.obj
 0001:0002e930       ?OnInitialUpdate@CHsDrawVu@@MAEXXZ 0042f930 f   HsDrawVu.obj
 0001:0002e980       ?OnUpdate@CHsDrawVu@@MAEXPAVCView@@JPAVCObject@@@Z 0042f980 f   HsDrawVu.obj
 0001:0002ea10       ?GetActiveObjectIndex@CHsDrawVu@@UAEHXZ 0042fa10 f   HsDrawVu.obj
 0001:0002ea40       ?GetObjectCount@CHsDrawVu@@UAEHXZ 0042fa40 f   HsDrawVu.obj
 0001:0002ea70       ?ChangeSelectionNextObjectIndex@CHsDrawVu@@UAEXH@Z 0042fa70 f   HsDrawVu.obj
 0001:0002eab0       ?ChangeSelectionToObjectIndex@CHsDrawVu@@UAEXH@Z 0042fab0 f   HsDrawVu.obj
 0001:0002eaf0       ?OnDrawObject@CHsDrawVu@@UAEXPAVCDC@@HHH@Z 0042faf0 f   HsDrawVu.obj
 0001:0002eb40       ?OnDraw@CHsDrawVu@@UAEXPAVCDC@@@Z 0042fb40 f   HsDrawVu.obj
 0001:0002ec00       ?OnPreparePrinting@CHsDrawVu@@MAEHPAUCPrintInfo@@@Z 0042fc00 f   HsDrawVu.obj
 0001:0002ec30       ?OnBeginPrinting@CHsDrawVu@@MAEXPAVCDC@@PAUCPrintInfo@@@Z 0042fc30 f   HsDrawVu.obj
 0001:0002ec50       ?OnEndPrinting@CHsDrawVu@@MAEXPAVCDC@@PAUCPrintInfo@@@Z 0042fc50 f   HsDrawVu.obj
 0001:0002ec70       ?IsSelected@CHsDrawVu@@MBEHPBVCObject@@@Z 0042fc70 f   HsDrawVu.obj
 0001:0002eca0       ?OnInsertObject@CHsDrawVu@@IAEXXZ 0042fca0 f   HsDrawVu.obj
 0001:0002ef70       ?OnCancelEditCntr@CHsDrawVu@@IAEXXZ 0042ff70 f   HsDrawVu.obj
 0001:0002f000       ?OnSetFocus@CHsDrawVu@@IAEXPAVCWnd@@@Z 00430000 f   HsDrawVu.obj
 0001:0002f0b0       ?OnMouseActivate@CHsDrawVu@@IAEHPAVCWnd@@II@Z 004300b0 f   HsDrawVu.obj
 0001:0002f110       ?OnCancelEditSrvr@CHsDrawVu@@IAEXXZ 00430110 f   HsDrawVu.obj
 0001:0002f140       ?AssertValid@CHsDrawVu@@UBEXXZ 00430140 f   HsDrawVu.obj
 0001:0002f160       ?Dump@CHsDrawVu@@UBEXAAVCDumpContext@@@Z 00430160 f   HsDrawVu.obj
 0001:0002f190       ?GetDocument@CHsDrawVu@@QAEPAVCDrGrafDoc@@XZ 00430190 f   HsDrawVu.obj
 0001:0002f1e0       ?OnCreate@CHsDrawVu@@IAEHPAUtagCREATESTRUCTA@@@Z 004301e0 f   HsDrawVu.obj
 0001:0002f210       ?OnMouseMove@CHsDrawVu@@IAEXIVCPoint@@@Z 00430210 f   HsDrawVu.obj
 0001:0002f240       ?OnLButtonDown@CHsDrawVu@@IAEXIVCPoint@@@Z 00430240 f   HsDrawVu.obj
 0001:0002f270       ?OnLButtonUp@CHsDrawVu@@IAEXIVCPoint@@@Z 00430270 f   HsDrawVu.obj
 0001:0002f2a0       ?OnRButtonDown@CHsDrawVu@@IAEXIVCPoint@@@Z 004302a0 f   HsDrawVu.obj
 0001:0002f2d0       ?OnRButtonUp@CHsDrawVu@@IAEXIVCPoint@@@Z 004302d0 f   HsDrawVu.obj
 0001:0002f300       ?SetDIBInfo@CMDIB@@QAEHXZ  00430300 f   Mdib.obj
 0001:0002f3a0       ?GetDIBInfo@CMDIB@@QAEHPAIPAXPAUtagBITMAPINFO@@PAK3@Z 004303a0 f   Mdib.obj
 0001:0002f3f0       ?DIBWidth@CMDIB@@QAEKPAD@Z 004303f0 f   Mdib.obj
 0001:0002f430       ?DIBHeight@CMDIB@@QAEKPAD@Z 00430430 f   Mdib.obj
 0001:0002f470       ?CreateDIBPalette@CMDIB@@QAEHPAUHDIB__@@PAVCPalette@@@Z 00430470 f   Mdib.obj
 0001:0002f640       ?FindDIBBits@CMDIB@@QAEPADPAD@Z 00430640 f   Mdib.obj
 0001:0002f670       ?PaletteSize@CMDIB@@QAEGPAD@Z 00430670 f   Mdib.obj
 0001:0002f6c0       ?DIBNumColors@CMDIB@@QAEGPAD@Z 004306c0 f   Mdib.obj
 0001:0002f750       ?PaintDIB@CMDIB@@QAEHPAUHDC__@@PAUtagRECT@@PAUHDIB__@@1PAVCPalette@@K@Z 00430750 f   Mdib.obj
 0001:0002f9e0       ?ReadDIBFile@CMDIB@@QAEPAUHDIB__@@AAVCFile@@@Z 004309e0 f   Mdib.obj
 0001:0002faa0       ?CreateObject@CMsDataVu@@SGPAVCObject@@XZ 00430aa0 f   MsDataVu.obj
 0001:0002fb10       ?_GetBaseClass@CMsDataVu@@KGPAUCRuntimeClass@@XZ 00430b10 f   MsDataVu.obj
 0001:0002fb30       ?GetRuntimeClass@CMsDataVu@@UBEPAUCRuntimeClass@@XZ 00430b30 f   MsDataVu.obj
 0001:0002fb50       ??0CMsDataVu@@IAE@XZ       00430b50 f   MsDataVu.obj
 0001:0002fb80       ??_GCMsDataVu@@MAEPAXI@Z   00430b80 f i MsDataVu.obj
 0001:0002fb80       ??_ECMsDataVu@@MAEPAXI@Z   00430b80 f i MsDataVu.obj
 0001:0002fbc0       ??1CMsDataVu@@MAE@XZ       00430bc0 f   MsDataVu.obj
 0001:0002fc20       ?_GetBaseMessageMap@CMsDataVu@@KGPBUAFX_MSGMAP@@XZ 00430c20 f   MsDataVu.obj
 0001:0002fc40       ?GetMessageMap@CMsDataVu@@MBEPBUAFX_MSGMAP@@XZ 00430c40 f   MsDataVu.obj
 0001:0002fc60       ?OnUpdate@CMsDataVu@@UAEXPAVCView@@JPAVCObject@@@Z 00430c60 f   MsDataVu.obj
 0001:0002fcc0       ?GetRowWidthHeight@CMsDataVu@@UAEXPAVCDC@@AAH1@Z 00430cc0 f   MsDataVu.obj
 0001:0002fdc0       ?GetActiveRow@CMsDataVu@@UAEHXZ 00430dc0 f   MsDataVu.obj
 0001:0002fe00       ?GetDocument@CMsDataVu@@QAEPAVCDrGrafDoc@@XZ 00430e00 f i MsDataVu.obj
 0001:0002fe50       ?GetRowCount@CMsDataVu@@UAEHXZ 00430e50 f   MsDataVu.obj
 0001:0002fe90       ?ChangeSelectionNextRow@CMsDataVu@@UAEXH@Z 00430e90 f   MsDataVu.obj
 0001:0002fed0       ?ChangeSelectionToRow@CMsDataVu@@UAEXH@Z 00430ed0 f   MsDataVu.obj
 0001:0002ff10       ?OnDrawRow@CMsDataVu@@UAEXPAVCDC@@HHH@Z 00430f10 f   MsDataVu.obj
 0001:00030070       ?OnLButtonDown@CMsDataVu@@IAEXIVCPoint@@@Z 00431070 f   MsDataVu.obj
 0001:00030170       ?OnLButtonDblClk@CMsDataVu@@IAEXIVCPoint@@@Z 00431170 f   MsDataVu.obj
 0001:000301d0       ?OnSetFocus@CMsDataVu@@IAEXPAVCWnd@@@Z 004311d0 f   MsDataVu.obj
 0001:000302a0       ??0GLOBAL_DATA@@QAE@XZ     004312a0 f   Oldglob.obj
 0001:00030460       ??1GLOBAL_DATA@@QAE@XZ     00431460 f   Oldglob.obj
 0001:00030500       ?UpdateSysColors@GLOBAL_DATA@@QAEXXZ 00431500 f   Oldglob.obj
 0001:00030760       ?UpdateSysMetrics@GLOBAL_DATA@@QAEXXZ 00431760 f   Oldglob.obj
 0001:000307e0       ?_GetPanePtr@COldStatusBar@@IBEPAUAFX_STATUSPANE@@H@Z 004317e0 f i Oldstat.obj
 0001:000309c0       ??0CProbElemDim@@QAE@PAVCWnd@@@Z 004319c0 f   ProbElemDim.obj
 0001:00030aa0       ??_GCProbElemDim@@UAEPAXI@Z 00431aa0 f i ProbElemDim.obj
 0001:00030aa0       ??_ECProbElemDim@@UAEPAXI@Z 00431aa0 f i ProbElemDim.obj
 0001:00030ae0       ?DoDataExchange@CProbElemDim@@MAEXPAVCDataExchange@@@Z 00431ae0 f   ProbElemDim.obj
 0001:00030b30       ?_GetBaseMessageMap@CProbElemDim@@KGPBUAFX_MSGMAP@@XZ 00431b30 f   ProbElemDim.obj
 0001:00030b50       ?GetMessageMap@CProbElemDim@@MBEPBUAFX_MSGMAP@@XZ 00431b50 f   ProbElemDim.obj
 0001:00030b70       ?OnSelchangeComboElemdim@CProbElemDim@@IAEXXZ 00431b70 f   ProbElemDim.obj
 0001:00030c80       ?OnSelchangeComboProbdim@CProbElemDim@@IAEXXZ 00431c80 f   ProbElemDim.obj
 0001:00030df0       ?OnInitDialog@CProbElemDim@@MAEHXZ 00431df0 f   ProbElemDim.obj
 0001:00030f20       ?OnCancel@CProbElemDim@@MAEXXZ 00431f20 f   ProbElemDim.obj
 0001:00030f40       ?OnOK@CProbElemDim@@MAEXXZ 00431f40 f   ProbElemDim.obj
 0001:00030f70       ?_GetBaseClass@CRowView@@KGPAUCRuntimeClass@@XZ 00431f70 f   Rowview.obj
 0001:00030f90       ?GetRuntimeClass@CRowView@@UBEPAUCRuntimeClass@@XZ 00431f90 f   Rowview.obj
 0001:00030fb0       ?_GetBaseMessageMap@CRowView@@KGPBUAFX_MSGMAP@@XZ 00431fb0 f   Rowview.obj
 0001:00030fd0       ?GetMessageMap@CRowView@@MBEPBUAFX_MSGMAP@@XZ 00431fd0 f   Rowview.obj
 0001:00030ff0       ??0CRowView@@QAE@XZ        00431ff0 f   Rowview.obj
 0001:00031030       ??_GCRowView@@MAEPAXI@Z    00432030 f i Rowview.obj
 0001:00031030       ??_ECRowView@@MAEPAXI@Z    00432030 f i Rowview.obj
 0001:00031070       ??1CRowView@@MAE@XZ        00432070 f   Rowview.obj
 0001:000310a0       ?OnInitialUpdate@CRowView@@MAEXXZ 004320a0 f   Rowview.obj
 0001:000310e0       ?UpdateRow@CRowView@@UAEXH@Z 004320e0 f   Rowview.obj
 0001:00031330       ?UpdateScrollSizes@CRowView@@MAEXXZ 00432330 f   Rowview.obj
 0001:000314b0       ?OnDraw@CRowView@@MAEXPAVCDC@@@Z 004324b0 f   Rowview.obj
 0001:00031600       ?RowToYPos@CRowView@@MAEHH@Z 00432600 f   Rowview.obj
 0001:00031630       ?RowToWndRect@CRowView@@MAE?AVCRect@@PAVCDC@@H@Z 00432630 f   Rowview.obj
 0001:000316b0       ?LastViewableRow@CRowView@@MAEHXZ 004326b0 f   Rowview.obj
 0001:000316e0       ?RectLPtoRowRange@CRowView@@MAEXABVCRect@@AAH1H@Z 004326e0 f   Rowview.obj
 0001:00031790       ?OnPrepareDC@CRowView@@MAEXPAVCDC@@PAUCPrintInfo@@@Z 00432790 f   Rowview.obj
 0001:000317d0       ?OnPreparePrinting@CRowView@@MAEHPAUCPrintInfo@@@Z 004327d0 f   Rowview.obj
 0001:00031800       ?OnBeginPrinting@CRowView@@MAEXPAVCDC@@PAUCPrintInfo@@@Z 00432800 f   Rowview.obj
 0001:000318b0       ?OnPrint@CRowView@@MAEXPAVCDC@@PAUCPrintInfo@@@Z 004328b0 f   Rowview.obj
 0001:00031970       ?OnSize@CRowView@@IAEXIHH@Z 00432970 f   Rowview.obj
 0001:000319b0       ?OnKeyDown@CRowView@@IAEXIII@Z 004329b0 f   Rowview.obj
 0001:00031ab0       ?OnLButtonDown@CRowView@@IAEXIVCPoint@@@Z 00432ab0 f   Rowview.obj
 0001:00031bb0       ?OnSetFocus@CRowView@@IAEXPAVCWnd@@@Z 00432bb0 f   Rowview.obj
 0001:00031c80       ?CreateObject@CSpDataVu@@SGPAVCObject@@XZ 00432c80 f   SpDataVu.obj
 0001:00031cf0       ?_GetBaseClass@CSpDataVu@@KGPAUCRuntimeClass@@XZ 00432cf0 f   SpDataVu.obj
 0001:00031d10       ?GetRuntimeClass@CSpDataVu@@UBEPAUCRuntimeClass@@XZ 00432d10 f   SpDataVu.obj
 0001:00031d30       ??0CSpDataVu@@IAE@XZ       00432d30 f   SpDataVu.obj
 0001:00031d60       ??_GCSpDataVu@@MAEPAXI@Z   00432d60 f i SpDataVu.obj
 0001:00031d60       ??_ECSpDataVu@@MAEPAXI@Z   00432d60 f i SpDataVu.obj
 0001:00031da0       ??1CSpDataVu@@MAE@XZ       00432da0 f   SpDataVu.obj
 0001:00031e00       ?_GetBaseMessageMap@CSpDataVu@@KGPBUAFX_MSGMAP@@XZ 00432e00 f   SpDataVu.obj
 0001:00031e20       ?GetMessageMap@CSpDataVu@@MBEPBUAFX_MSGMAP@@XZ 00432e20 f   SpDataVu.obj
 0001:00031e40       ?OnLButtonDblClk@CSpDataVu@@IAEXIVCPoint@@@Z 00432e40 f   SpDataVu.obj
 0001:00031ea0       ?OnSetFocus@CSpDataVu@@IAEXPAVCWnd@@@Z 00432ea0 f   SpDataVu.obj
 0001:00031ef0       ?CreateObject@CSpDrawVu@@SGPAVCObject@@XZ 00432ef0 f   SpDrawVu.obj
 0001:00031f60       ?_GetBaseClass@CSpDrawVu@@KGPAUCRuntimeClass@@XZ 00432f60 f   SpDrawVu.obj
 0001:00031f80       ?GetRuntimeClass@CSpDrawVu@@UBEPAUCRuntimeClass@@XZ 00432f80 f   SpDrawVu.obj
 0001:00031fa0       ?_GetBaseMessageMap@CSpDrawVu@@KGPBUAFX_MSGMAP@@XZ 00432fa0 f   SpDrawVu.obj
 0001:00031fc0       ?GetMessageMap@CSpDrawVu@@MBEPBUAFX_MSGMAP@@XZ 00432fc0 f   SpDrawVu.obj
 0001:00031fe0       ??0CSpDrawVu@@IAE@XZ       00432fe0 f   SpDrawVu.obj
 0001:00032020       ??_GCSpDrawVu@@UAEPAXI@Z   00433020 f i SpDrawVu.obj
 0001:00032020       ??_ECSpDrawVu@@UAEPAXI@Z   00433020 f i SpDrawVu.obj
 0001:00032060       ??1CSpDrawVu@@UAE@XZ       00433060 f   SpDrawVu.obj
 0001:00032090       ?OnInitialUpdate@CSpDrawVu@@MAEXXZ 00433090 f   SpDrawVu.obj
 0001:000320e0       ?OnUpdate@CSpDrawVu@@MAEXPAVCView@@JPAVCObject@@@Z 004330e0 f   SpDrawVu.obj
 0001:00032170       ?GetActiveObjectIndex@CSpDrawVu@@UAEHXZ 00433170 f   SpDrawVu.obj
 0001:000321a0       ?GetObjectCount@CSpDrawVu@@UAEHXZ 004331a0 f   SpDrawVu.obj
 0001:000321d0       ?ChangeSelectionNextObjectIndex@CSpDrawVu@@UAEXH@Z 004331d0 f   SpDrawVu.obj
 0001:00032210       ?ChangeSelectionToObjectIndex@CSpDrawVu@@UAEXH@Z 00433210 f   SpDrawVu.obj
 0001:00032250       ?OnDrawObject@CSpDrawVu@@UAEXPAVCDC@@HHH@Z 00433250 f   SpDrawVu.obj
 0001:000322a0       ?OnDraw@CSpDrawVu@@UAEXPAVCDC@@@Z 004332a0 f   SpDrawVu.obj
 0001:00032360       ?OnPreparePrinting@CSpDrawVu@@MAEHPAUCPrintInfo@@@Z 00433360 f   SpDrawVu.obj
 0001:00032390       ?OnBeginPrinting@CSpDrawVu@@MAEXPAVCDC@@PAUCPrintInfo@@@Z 00433390 f   SpDrawVu.obj
 0001:000323b0       ?OnEndPrinting@CSpDrawVu@@MAEXPAVCDC@@PAUCPrintInfo@@@Z 004333b0 f   SpDrawVu.obj
 0001:000323d0       ?IsSelected@CSpDrawVu@@MBEHPBVCObject@@@Z 004333d0 f   SpDrawVu.obj
 0001:00032400       ?OnInsertObject@CSpDrawVu@@IAEXXZ 00433400 f   SpDrawVu.obj
 0001:000326d0       ?OnCancelEditCntr@CSpDrawVu@@IAEXXZ 004336d0 f   SpDrawVu.obj
 0001:00032760       ?OnSetFocus@CSpDrawVu@@IAEXPAVCWnd@@@Z 00433760 f   SpDrawVu.obj
 0001:00032810       ?OnMouseActivate@CSpDrawVu@@IAEHPAVCWnd@@II@Z 00433810 f   SpDrawVu.obj
 0001:00032870       ?OnCancelEditSrvr@CSpDrawVu@@IAEXXZ 00433870 f   SpDrawVu.obj
 0001:000328a0       ?AssertValid@CSpDrawVu@@UBEXXZ 004338a0 f   SpDrawVu.obj
 0001:000328c0       ?Dump@CSpDrawVu@@UBEXAAVCDumpContext@@@Z 004338c0 f   SpDrawVu.obj
 0001:000328f0       ?GetDocument@CSpDrawVu@@QAEPAVCDrGrafDoc@@XZ 004338f0 f   SpDrawVu.obj
 0001:00032940       ?OnCreate@CSpDrawVu@@IAEHPAUtagCREATESTRUCTA@@@Z 00433940 f   SpDrawVu.obj
 0001:00032970       ?OnMouseMove@CSpDrawVu@@IAEXIVCPoint@@@Z 00433970 f   SpDrawVu.obj
 0001:000329a0       ?OnLButtonDown@CSpDrawVu@@IAEXIVCPoint@@@Z 004339a0 f   SpDrawVu.obj
 0001:000329d0       ?OnLButtonUp@CSpDrawVu@@IAEXIVCPoint@@@Z 004339d0 f   SpDrawVu.obj
 0001:00032a00       ?OnRButtonDown@CSpDrawVu@@IAEXIVCPoint@@@Z 00433a00 f   SpDrawVu.obj
 0001:00032a30       ?OnRButtonUp@CSpDrawVu@@IAEXIVCPoint@@@Z 00433a30 f   SpDrawVu.obj
 0001:00032a60       ??0CSplashCom@@IAE@XZ      00433a60 f   Splash.obj
 0001:00032ac0       ??_GCSplashCom@@UAEPAXI@Z  00433ac0 f i Splash.obj
 0001:00032ac0       ??_ECSplashCom@@UAEPAXI@Z  00433ac0 f i Splash.obj
 0001:00032b00       ??1CSplashCom@@UAE@XZ      00433b00 f   Splash.obj
 0001:00032ba0       ?_GetBaseMessageMap@CSplashCom@@KGPBUAFX_MSGMAP@@XZ 00433ba0 f   Splash.obj
 0001:00032bc0       ?GetMessageMap@CSplashCom@@MBEPBUAFX_MSGMAP@@XZ 00433bc0 f   Splash.obj
 0001:00032be0       ?EnableSplashScreen@CSplashCom@@SAXH@Z 00433be0 f   Splash.obj
 0001:00032c00       ?ShowSplashScreen@CSplashCom@@SAXPAVCWnd@@@Z 00433c00 f   Splash.obj
 0001:00032cf0       ?PreTranslateAppMessage@CSplashCom@@SAXPAUtagMSG@@@Z 00433cf0 f   Splash.obj
 0001:00032d80       ?Create@CSplashCom@@IAEHPAVCWnd@@@Z 00433d80 f   Splash.obj
 0001:00032e10       ?HideSplashScreen@CSplashCom@@IAEXXZ 00433e10 f   Splash.obj
 0001:00032e40       ?PostNcDestroy@CSplashCom@@UAEXXZ 00433e40 f   Splash.obj
 0001:00032e80       ?OnCreate@CSplashCom@@IAEHPAUtagCREATESTRUCTA@@@Z 00433e80 f   Splash.obj
 0001:00032ed0       ?OnPaint@CSplashCom@@IAEXXZ 00433ed0 f   Splash.obj
 0001:00032fd0       ?OnTimer@CSplashCom@@IAEXI@Z 00433fd0 f   Splash.obj
 0001:00032ff0       ?_GetBaseClass@CDrGrafSrvrItem@@KGPAUCRuntimeClass@@XZ 00433ff0 f   SrvrItem.obj
 0001:00033010       ?GetRuntimeClass@CDrGrafSrvrItem@@UBEPAUCRuntimeClass@@XZ 00434010 f   SrvrItem.obj
 0001:00033030       ??0CDrGrafSrvrItem@@QAE@PAVCDrGrafDoc@@@Z 00434030 f   SrvrItem.obj
 0001:00033060       ??_GCDrGrafSrvrItem@@UAEPAXI@Z 00434060 f i SrvrItem.obj
 0001:00033060       ??_ECDrGrafSrvrItem@@UAEPAXI@Z 00434060 f i SrvrItem.obj
 0001:000330a0       ??1CDrGrafSrvrItem@@UAE@XZ 004340a0 f   SrvrItem.obj
 0001:000330d0       ?Serialize@CDrGrafSrvrItem@@MAEXAAVCArchive@@@Z 004340d0 f   SrvrItem.obj
 0001:00033130       ?GetDocument@CDrGrafSrvrItem@@QBEPAVCDrGrafDoc@@XZ 00434130 f i SrvrItem.obj
 0001:00033150       ?OnGetExtent@CDrGrafSrvrItem@@UAEHW4tagDVASPECT@@AAVCSize@@@Z 00434150 f   SrvrItem.obj
 0001:000331d0       ?OnDraw@CDrGrafSrvrItem@@UAEHPAVCDC@@AAVCSize@@@Z 004341d0 f   SrvrItem.obj
 0001:000332a0       ?AssertValid@CDrGrafSrvrItem@@UBEXXZ 004342a0 f   SrvrItem.obj
 0001:000332c0       ?Dump@CDrGrafSrvrItem@@UBEXAAVCDumpContext@@@Z 004342c0 f   SrvrItem.obj
 0001:000332f0       ?_GetBaseMessageMap@CStatCntl@@KGPBUAFX_MSGMAP@@XZ 004342f0 f   StatCntl.obj
 0001:00033310       ?GetMessageMap@CStatCntl@@MBEPBUAFX_MSGMAP@@XZ 00434310 f   StatCntl.obj
 0001:00033330       ?CreateObject@CStatCntl@@SGPAVCObject@@XZ 00434330 f   StatCntl.obj
 0001:000333b0       ?_GetBaseClass@CStatCntl@@KGPAUCRuntimeClass@@XZ 004343b0 f   StatCntl.obj
 0001:000333d0       ?GetRuntimeClass@CStatCntl@@UBEPAUCRuntimeClass@@XZ 004343d0 f   StatCntl.obj
 0001:000333f0       ??0CStatCntl@@QAE@XZ       004343f0 f   StatCntl.obj
 0001:00033480       ??_ECStatCntl@@UAEPAXI@Z   00434480 f i StatCntl.obj
 0001:00033480       ??_GCStatCntl@@UAEPAXI@Z   00434480 f i StatCntl.obj
 0001:000334c0       ??1CStatCntl@@UAE@XZ       004344c0 f   StatCntl.obj
 0001:00033540       ?Create@CStatCntl@@QAEHPAVCWnd@@VCRect@@I@Z 00434540 f   StatCntl.obj
 0001:00033640       ?Create@CStatCntl@@QAEHPAVCWnd@@VCRect@@II@Z 00434640 f   StatCntl.obj
 0001:00033720       ?OnPaint@CStatCntl@@IAEXXZ 00434720 f   StatCntl.obj
 0001:00033ba0       ?ReCalcLayOut@CStatCntl@@QAEXXZ 00434ba0 f   StatCntl.obj
 0001:00033c10       ?OnLButtonDown@CStatCntl@@IAEXIVCPoint@@@Z 00434c10 f   StatCntl.obj
 0001:00033c80       ?OnLButtonUp@CStatCntl@@IAEXIVCPoint@@@Z 00434c80 f   StatCntl.obj
 0001:00033d00       ?OnMouseMove@CStatCntl@@IAEXIVCPoint@@@Z 00434d00 f   StatCntl.obj
 0001:00033dd0       ?InvertTracker@CStatCntl@@IAEXVCPoint@@@Z 00434dd0 f   StatCntl.obj
 0001:00033f30       ?OnRButtonDown@CStatCntl@@IAEXIVCPoint@@@Z 00434f30 f   StatCntl.obj
 0001:00033f50       ?OnRButtonUp@CStatCntl@@IAEXIVCPoint@@@Z 00434f50 f   StatCntl.obj
 0001:00034150       ?IsCurrentProcessDone@CMouseMgr@@QAEHXZ 00435150 f i StatCntl.obj
 0001:00034170       ?OnKillFocus@CStatCntl@@IAEXPAVCWnd@@@Z 00435170 f   StatCntl.obj
 0001:000341b0       ?OnSetFocus@CStatCntl@@IAEXPAVCWnd@@@Z 004351b0 f   StatCntl.obj
 0001:000341f0       ?MouseMove@CXVM_Genr@@QAEXPAVCView@@IVCPoint@@@Z 004351f0 f   XVM_Genr.obj
 0001:00034210       ?LButtonDown@CXVM_Genr@@QAEXPAVCView@@IVCPoint@@@Z 00435210 f   XVM_Genr.obj
 0001:00034230       ?LButtonUp@CXVM_Genr@@QAEXPAVCView@@IVCPoint@@@Z 00435230 f   XVM_Genr.obj
 0001:00034250       ?RButtonDown@CXVM_Genr@@QAEXPAVCView@@IVCPoint@@@Z 00435250 f   XVM_Genr.obj
 0001:00034270       ?RButtonUp@CXVM_Genr@@QAEXPAVCView@@IVCPoint@@@Z 00435270 f   XVM_Genr.obj
 0001:00034286       _sndPlaySoundA@8           00435286 f   winMM:WINMM.dll
 0001:0003428c       _mciGetErrorStringA@12     0043528c f   winMM:WINMM.dll
 0001:00034292       _mciSendStringA@16         00435292 f   winMM:WINMM.dll
 0001:00034298       ??1C3DMath@@UAE@XZ         00435298 f   Dr3D_D32:Dr3D_D32.dll
 0001:0003429e       ?GetIdentityMATRIX@C3DMath@@QAEXPAUMATRIX@@@Z 0043529e f   Dr3D_D32:Dr3D_D32.dll
 0001:000342a4       ?Set3DPts@C3DMath@@QAEXPAUWORLD@@NNN@Z 004352a4 f   Dr3D_D32:Dr3D_D32.dll
 0001:000342aa       ??0C3DMath@@QAE@XZ         004352aa f   Dr3D_D32:Dr3D_D32.dll
 0001:000342b0       ??1CXForm@@UAE@XZ          004352b0 f   Dr3D_D32:Dr3D_D32.dll
 0001:000342b6       ?ComposeViewMATRIX@CXForm@@UAENPAUMATRIX@@UWORLD@@1111NNNN@Z 004352b6 f   Dr3D_D32:Dr3D_D32.dll
 0001:000342bc       ??0CXForm@@QAE@H@Z         004352bc f   Dr3D_D32:Dr3D_D32.dll
 0001:000342c2       ?PerToParCVVMATRIX@CXForm@@UAEXPAUMATRIX@@N@Z 004352c2 f   Dr3D_D32:Dr3D_D32.dll
 0001:000342c8       ?ComposeCombineMATRIX@CXForm@@UAEXPAUMATRIX@@00@Z 004352c8 f   Dr3D_D32:Dr3D_D32.dll
 0001:000342ce       ?ComposeWin3DtoScreen3DMATRIX@CXForm@@UAEXPAUMATRIX@@UWORLD@@1@Z 004352ce f   Dr3D_D32:Dr3D_D32.dll
 0001:000342d4       ?Transform@CXForm@@UAEXPAUWORLD@@0PAUMATRIX@@@Z 004352d4 f   Dr3D_D32:Dr3D_D32.dll
 0001:000342da       ?Project@CXForm@@UAEXPAUMATRIX@@PAUWORLD@@1@Z 004352da f   Dr3D_D32:Dr3D_D32.dll
 0001:000342e0       ?TransformPerToParCVV@CXForm@@UAEXNPAUWORLD@@0@Z 004352e0 f   Dr3D_D32:Dr3D_D32.dll
 0001:000342e6       ?Scale3DPts@C3DMath@@QAEXNPAUWORLD@@@Z 004352e6 f   Dr3D_D32:Dr3D_D32.dll
 0001:000342ec       _InitDr3DDLL@0             004352ec f   Dr3D_D32:Dr3D_D32.dll
 0001:000342f2       ?IsDirty@CDrObject@@QAEHXZ 004352f2 f   Spec_D32:Spec_D32.dll
 0001:000342f8       ?GetBoundingRect@CDrObject@@QAE?AVCRect@@XZ 004352f8 f   Spec_D32:Spec_D32.dll
 0001:000342fe       ?GetElemType@CDrObject@@QAEHXZ 004352fe f   Spec_D32:Spec_D32.dll
 0001:00034304       ?GetObjectA@CDListMgr@@QAEPAVCObject@@H@Z 00435304 f   Spec_D32:Spec_D32.dll
 0001:0003430a       ?IsShow@CDrObject@@QAEHXZ  0043530a f   Spec_D32:Spec_D32.dll
 0001:00034310       ?GetObjectType@CDrObject@@QAEHXZ 00435310 f   Spec_D32:Spec_D32.dll
 0001:00034316       ?GetNextObject@CDListMgr@@QAEPAVCObject@@AAPAU__POSITION@@@Z 00435316 f   Spec_D32:Spec_D32.dll
 0001:0003431c       ?GetFirstObjectPos@CDListMgr@@QAEPAU__POSITION@@XZ 0043531c f   Spec_D32:Spec_D32.dll
 0001:00034322       ?IsPosted@CDrObject@@QAEHXZ 00435322 f   Spec_D32:Spec_D32.dll
 0001:00034328       ??1CDListMgr@@UAE@XZ       00435328 f   Spec_D32:Spec_D32.dll
 0001:0003432e       ??0CDListMgr@@QAE@XZ       0043532e f   Spec_D32:Spec_D32.dll
 0001:00034334       ?DeleteObject@CDListMgr@@QAEHH@Z 00435334 f   Spec_D32:Spec_D32.dll
 0001:0003433a       ?GetObjectIndex@CDListMgr@@QAEHPAVCObject@@@Z 0043533a f   Spec_D32:Spec_D32.dll
 0001:00034340       ?GetObjectID@CDrObject@@QAE?AVCString@@XZ 00435340 f   Spec_D32:Spec_D32.dll
 0001:00034346       _InitSpecDLL@0             00435346 f   Spec_D32:Spec_D32.dll
 0001:0003434c       ?IsMeshNode@CDrNode@@QAEHXZ 0043534c f   Mesh_d32:Mesh_D32.dll
 0001:00034352       ?IsControlNode@CDrNode@@QAEHXZ 00435352 f   Mesh_d32:Mesh_D32.dll
 0001:00034358       _InitMeshDLL@0             00435358 f   Mesh_d32:Mesh_D32.dll
 0001:0003435e       _InitElemDLL@0             0043535e f   Elem_D32:Elem_D32.dll
 0001:00034364       _InitOGenDLL@0             00435364 f   OGen_D32:OGEN_D32.dll
 0001:0003436a       _InitDrawDLL@0             0043536a f   Draw_D32:Draw_D32.dll
 0001:00034370       _InitSuppDLL@0             00435370 f   Supp_D32:Supp_D32.dll
 0001:00034376       ?GetStaLCard@CDrStatic@@QAEPAUstaLcard@@XZ 00435376 f   StaL_D32:StaL_D32.dll
 0001:0003437c       _InitStaLDLL@0             0043537c f   StaL_D32:StaL_D32.dll
 0001:00034382       ?GetActiveRowIndex@CObjectMgr@@QAEHXZ 00435382 f   OMgr_D32:OMgr_D32.dll
 0001:00034388       ?GetRowCount@CObjectMgr@@QAEHXZ 00435388 f   OMgr_D32:OMgr_D32.dll
 0001:0003438e       ?ChangeSelectionNextObjectIndex@CObjectMgr@@QAEXH@Z 0043538e f   OMgr_D32:OMgr_D32.dll
 0001:00034394       ?ChangeSelectionToObjectIndex@CObjectMgr@@QAEXI@Z 00435394 f   OMgr_D32:OMgr_D32.dll
 0001:0003439a       ?Do_Object_DrawView@CObjectMgr@@QAEXPAVCDC@@HHHH@Z 0043539a f   OMgr_D32:OMgr_D32.dll
 0001:000343a0       ?GetSpecObject@CObjectMgr@@QAEPAVCDrObject@@H@Z 004353a0 f   OMgr_D32:OMgr_D32.dll
 0001:000343a6       ?GetRowCount@CAxObjMgr@@QAEHXZ 004353a6 f   OMgr_D32:OMgr_D32.dll
 0001:000343ac       ?ChangeSelectionNextObjectIndex@CAxObjMgr@@QAEXH@Z 004353ac f   OMgr_D32:OMgr_D32.dll
 0001:000343b2       ?ChangeSelectionToObjectIndex@CAxObjMgr@@QAEXI@Z 004353b2 f   OMgr_D32:OMgr_D32.dll
 0001:000343b8       ?Do_Object_DataView@CAxObjMgr@@QAEXPAVCDC@@HH@Z 004353b8 f   OMgr_D32:OMgr_D32.dll
 0001:000343be       ?GetDocSize@CAxObjMgr@@QAE?AVCSize@@XZ 004353be f   OMgr_D32:OMgr_D32.dll
 0001:000343c4       ?GetSpecObject@CAxObjMgr@@QAEPAVCDrObject@@H@Z 004353c4 f   OMgr_D32:OMgr_D32.dll
 0001:000343ca       ?Do_Object_DataView@CObjectMgr@@QAEXPAVCDC@@HH@Z 004353ca f   OMgr_D32:OMgr_D32.dll
 0001:000343d0       ?GetDocSize@CObjectMgr@@QAE?AVCSize@@XZ 004353d0 f   OMgr_D32:OMgr_D32.dll
 0001:000343d6       ??1CAxObjMgr@@UAE@XZ       004353d6 f   OMgr_D32:OMgr_D32.dll
 0001:000343dc       ??1CMsObjMgr@@UAE@XZ       004353dc f   OMgr_D32:OMgr_D32.dll
 0001:000343e2       ??1CObjectMgr@@UAE@XZ      004353e2 f   OMgr_D32:OMgr_D32.dll
 0001:000343e8       ??0CAxObjMgr@@QAE@XZ       004353e8 f   OMgr_D32:OMgr_D32.dll
 0001:000343ee       ??0CMsObjMgr@@QAE@XZ       004353ee f   OMgr_D32:OMgr_D32.dll
 0001:000343f4       ??0CObjectMgr@@QAE@XZ      004353f4 f   OMgr_D32:OMgr_D32.dll
 0001:000343fa       _InitOMgrDLL@0             004353fa f   OMgr_D32:OMgr_D32.dll
 0001:00034400       ?GetActiveRowIndex@CAxObjMgr@@QAEHXZ 00435400 f   OMgr_D32:OMgr_D32.dll
 0001:00034406       ?Do_Object_DrawView@CAxObjMgr@@QAEXPAVCDC@@HHHH@Z 00435406 f   OMgr_D32:OMgr_D32.dll
 0001:0003440c       ?GetRowCount@CMsObjMgr@@QAEHXZ 0043540c f   OMgr_D32:OMgr_D32.dll
 0001:00034412       ?ChangeSelectionNextObjectIndex@CMsObjMgr@@QAEXH@Z 00435412 f   OMgr_D32:OMgr_D32.dll
 0001:00034418       ?ChangeSelectionToObjectIndex@CMsObjMgr@@QAEXI@Z 00435418 f   OMgr_D32:OMgr_D32.dll
 0001:0003441e       ?Do_Object_DataView@CMsObjMgr@@QAEXPAVCDC@@HH@Z 0043541e f   OMgr_D32:OMgr_D32.dll
 0001:00034424       ?DoModal_SpecObjs@CSDlgMgr@@QAEII@Z 00435424 f   SDlg_D32:SDlg_D32.dll
 0001:0003442a       _InitSDlgDLL@0             0043542a f   SDlg_D32:SDlg_D32.dll
 0001:00034430       _InitEDlgDLL@0             00435430 f   EDlg_D32:EDlg_D32.dll
 0001:00034436       _InitDDlgDLL@0             00435436 f   DDlg_D32:DDlg_D32.dll
 0001:0003443c       _InitIGenDLL@0             0043543c f   IGBx_D32:IGBx_D32.dll
 0001:00034442       ??1CMainBox@@UAE@XZ        00435442 f   IGBx_D32:IGBx_D32.dll
 0001:00034448       ??1CMGenBox@@UAE@XZ        00435448 f   IGBx_D32:IGBx_D32.dll
 0001:0003444e       ??1CIGenBox@@UAE@XZ        0043544e f   IGBx_D32:IGBx_D32.dll
 0001:00034454       ??1CCntlBox@@UAE@XZ        00435454 f   IGBx_D32:IGBx_D32.dll
 0001:0003445a       ??1CEDimBox@@UAE@XZ        0043545a f   IGBx_D32:IGBx_D32.dll
 0001:00034460       ??0CMainBox@@QAE@XZ        00435460 f   IGBx_D32:IGBx_D32.dll
 0001:00034466       ??0CMGenBox@@QAE@XZ        00435466 f   IGBx_D32:IGBx_D32.dll
 0001:0003446c       ??0CIGenBox@@QAE@XZ        0043546c f   IGBx_D32:IGBx_D32.dll
 0001:00034472       ??0CCntlBox@@QAE@XZ        00435472 f   IGBx_D32:IGBx_D32.dll
 0001:00034478       ??0CEDimBox@@QAE@XZ        00435478 f   IGBx_D32:IGBx_D32.dll
 0001:0003447e       ?GetHeight@CBoxWnd@@QAEIXZ 0043547e f   IGBx_D32:IGBx_D32.dll
 0001:00034484       ?GetWidth@CBoxWnd@@QAEIXZ  00435484 f   IGBx_D32:IGBx_D32.dll
 0001:0003448a       ?SetElemLim@CMouse@@QAEXW4ELEMDIMLIM@@@Z 0043548a f   IGBx_D32:IGBx_D32.dll
 0001:00034490       ?SetProbLim@CMouse@@QAEXW4PROBDIMLIM@@@Z 00435490 f   IGBx_D32:IGBx_D32.dll
 0001:00034496       _InitEBoxDLL@0             00435496 f   EBox_D32:EBox_D32.dll
 0001:0003449c       _InitDBoxDLL@0             0043549c f   DBox_D32:DBox_D32.dll
 0001:000344a2       ??1CDrawBox@@UAE@XZ        004354a2 f   DBox_D32:DBox_D32.dll
 0001:000344a8       ??1CVOprBox@@UAE@XZ        004354a8 f   DBox_D32:DBox_D32.dll
 0001:000344ae       ??0CDrawBox@@QAE@XZ        004354ae f   DBox_D32:DBox_D32.dll
 0001:000344b4       ??0CVOprBox@@QAE@XZ        004354b4 f   DBox_D32:DBox_D32.dll
 0001:000344ba       ?GetHeight@CDrawBox@@QAEIXZ 004354ba f   DBox_D32:DBox_D32.dll
 0001:000344c0       ?GetWidth@CDrawBox@@QAEIXZ 004354c0 f   DBox_D32:DBox_D32.dll
 0001:000344c6       ??1CViewInfo@@UAE@XZ       004354c6 f   MMgr_D32:MMgr_D32.dll
 0001:000344cc       _InitMMgrDLL@0             004354cc f   MMgr_D32:MMgr_D32.dll
 0001:000344d2       ??1CMouseMgr@@UAE@XZ       004354d2 f   MMgr_D32:MMgr_D32.dll
 0001:000344d8       ??0CMouseMgr@@QAE@XZ       004354d8 f   MMgr_D32:MMgr_D32.dll
 0001:000344de       ?InitDlgIn@CMouseMgr@@QAEXXZ 004354de f   MMgr_D32:MMgr_D32.dll
 0001:000344e4       ?CreateorActivateF_MIn@CSLDMouse@@QAEJIJ@Z 004354e4 f   MMgr_D32:MMgr_D32.dll
 0001:000344ea       ?GoodByeF_MIn@CSLDMouse@@QAEJIJ@Z 004354ea f   MMgr_D32:MMgr_D32.dll
 0001:000344f0       ?UpdateF_MIn@CSLDMouse@@QAEJIJ@Z 004354f0 f   MMgr_D32:MMgr_D32.dll
 0001:000344f6       ?CreateorActivateD_RIn@CSLDMouse@@QAEJIJ@Z 004354f6 f   MMgr_D32:MMgr_D32.dll
 0001:000344fc       ?GoodByeD_RIn@CSLDMouse@@QAEJIJ@Z 004354fc f   MMgr_D32:MMgr_D32.dll
 0001:00034502       ?UpdateD_RIn@CSLDMouse@@QAEJIJ@Z 00435502 f   MMgr_D32:MMgr_D32.dll
 0001:00034508       ?CreateorActivatePrsIn@CSLDMouse@@QAEJIJ@Z 00435508 f   MMgr_D32:MMgr_D32.dll
 0001:0003450e       ?GoodByePrsIn@CSLDMouse@@QAEJIJ@Z 0043550e f   MMgr_D32:MMgr_D32.dll
 0001:00034514       ?UpdatePrsIn@CSLDMouse@@QAEJIJ@Z 00435514 f   MMgr_D32:MMgr_D32.dll
 0001:0003451a       ?CreateorActivateThrIn@CSLDMouse@@QAEJIJ@Z 0043551a f   MMgr_D32:MMgr_D32.dll
 0001:00034520       ?GoodByeThrIn@CSLDMouse@@QAEJIJ@Z 00435520 f   MMgr_D32:MMgr_D32.dll
 0001:00034526       ?UpdateThrIn@CSLDMouse@@QAEJIJ@Z 00435526 f   MMgr_D32:MMgr_D32.dll
 0001:0003452c       ?CreateorActivateLWtIn@CSLDMouse@@QAEJIJ@Z 0043552c f   MMgr_D32:MMgr_D32.dll
 0001:00034532       ?GoodByeLWtIn@CSLDMouse@@QAEJIJ@Z 00435532 f   MMgr_D32:MMgr_D32.dll
 0001:00034538       ?UpdateLWtIn@CSLDMouse@@QAEJIJ@Z 00435538 f   MMgr_D32:MMgr_D32.dll
 0001:0003453e       ?CreateorActivateSupIn@CSupMouse@@QAEJIJ@Z 0043553e f   MMgr_D32:MMgr_D32.dll
 0001:00034544       ?GoodByeSupIn@CSupMouse@@QAEJIJ@Z 00435544 f   MMgr_D32:MMgr_D32.dll
 0001:0003454a       ?UpdateSupIn@CSupMouse@@QAEJIJ@Z 0043554a f   MMgr_D32:MMgr_D32.dll
 0001:00034550       ?CreateorActivateNodIn@CNodMouse@@QAEJIJ@Z 00435550 f   MMgr_D32:MMgr_D32.dll
 0001:00034556       ?GoodByeNodIn@CNodMouse@@QAEJIJ@Z 00435556 f   MMgr_D32:MMgr_D32.dll
 0001:0003455c       ?UpdateNodIn@CNodMouse@@QAEJIJ@Z 0043555c f   MMgr_D32:MMgr_D32.dll
 0001:00034562       ?CancelNodIn@CNodMouse@@QAEJIJ@Z 00435562 f   MMgr_D32:MMgr_D32.dll
 0001:00034568       ?CreateorActivateLQCIn@CCurMouse@@QAEJIJ@Z 00435568 f   MMgr_D32:MMgr_D32.dll
 0001:0003456e       ?GoodByeLQCIn@CCurMouse@@QAEJIJ@Z 0043556e f   MMgr_D32:MMgr_D32.dll
 0001:00034574       ?UpdateLQCIn@CCurMouse@@QAEJIJ@Z 00435574 f   MMgr_D32:MMgr_D32.dll
 0001:0003457a       ?CancelLQCIn@CCurMouse@@QAEJIJ@Z 0043557a f   MMgr_D32:MMgr_D32.dll
 0001:00034580       ?CreateorActivateCrcIn@CCurMouse@@QAEJIJ@Z 00435580 f   MMgr_D32:MMgr_D32.dll
 0001:00034586       ?GoodByeCrcIn@CCurMouse@@QAEJIJ@Z 00435586 f   MMgr_D32:MMgr_D32.dll
 0001:0003458c       ?UpdateCrcIn@CCurMouse@@QAEJIJ@Z 0043558c f   MMgr_D32:MMgr_D32.dll
 0001:00034592       ?CancelCrcIn@CCurMouse@@QAEJIJ@Z 00435592 f   MMgr_D32:MMgr_D32.dll
 0001:00034598       ?CreateorActivatePatIn@CPatMouse@@QAEJIJ@Z 00435598 f   MMgr_D32:MMgr_D32.dll
 0001:0003459e       ?GoodByePatIn@CPatMouse@@QAEJIJ@Z 0043559e f   MMgr_D32:MMgr_D32.dll
 0001:000345a4       ?UpdatePatIn@CPatMouse@@QAEJIJ@Z 004355a4 f   MMgr_D32:MMgr_D32.dll
 0001:000345aa       ?CancelPatIn@CPatMouse@@QAEJIJ@Z 004355aa f   MMgr_D32:MMgr_D32.dll
 0001:000345b0       ?CreateorActivateSolIn@CSolMouse@@QAEJIJ@Z 004355b0 f   MMgr_D32:MMgr_D32.dll
 0001:000345b6       ?GoodByeSolIn@CSolMouse@@QAEJIJ@Z 004355b6 f   MMgr_D32:MMgr_D32.dll
 0001:000345bc       ?UpdateSolIn@CSolMouse@@QAEJIJ@Z 004355bc f   MMgr_D32:MMgr_D32.dll
 0001:000345c2       ?CancelSolIn@CSolMouse@@QAEJIJ@Z 004355c2 f   MMgr_D32:MMgr_D32.dll
 0001:000345c8       ?CreateorActivateO3DIn@CO3DMouse@@QAEJIJ@Z 004355c8 f   MMgr_D32:MMgr_D32.dll
 0001:000345ce       ?GoodByeO3DIn@CO3DMouse@@QAEJIJ@Z 004355ce f   MMgr_D32:MMgr_D32.dll
 0001:000345d4       ?UpdateO3DIn@CO3DMouse@@QAEJIJ@Z 004355d4 f   MMgr_D32:MMgr_D32.dll
 0001:000345da       ?CancelO3DIn@CO3DMouse@@QAEJIJ@Z 004355da f   MMgr_D32:MMgr_D32.dll
 0001:000345e0       ?ModeLessOff_SUP@CSupMouse@@QAEXXZ 004355e0 f   MMgr_D32:MMgr_D32.dll
 0001:000345e6       ?ModeLessOff_SLD@CSLDMouse@@QAEXXZ 004355e6 f   MMgr_D32:MMgr_D32.dll
 0001:000345ec       ?ModeLessOff_SOL@CSolMouse@@QAEXXZ 004355ec f   MMgr_D32:MMgr_D32.dll
 0001:000345f2       ?ModeLessOff_PAT@CPatMouse@@QAEXXZ 004355f2 f   MMgr_D32:MMgr_D32.dll
 0001:000345f8       ?ModeLessOff_CUR@CCurMouse@@QAEXXZ 004355f8 f   MMgr_D32:MMgr_D32.dll
 0001:000345fe       ?ModeLessOff_NOD@CNodMouse@@QAEXXZ 004355fe f   MMgr_D32:MMgr_D32.dll
 0001:00034604       ?ReSetToolID@CMouseMgr@@QAEIIII@Z 00435604 f   MMgr_D32:MMgr_D32.dll
 0001:0003460a       ?ModeLessOn_SLD@CSLDMouse@@QAEXXZ 0043560a f   MMgr_D32:MMgr_D32.dll
 0001:00034610       ?ModeLessOn_SUP@CSupMouse@@QAEXXZ 00435610 f   MMgr_D32:MMgr_D32.dll
 0001:00034616       ?ModeLessOn_NOD@CNodMouse@@QAEXXZ 00435616 f   MMgr_D32:MMgr_D32.dll
 0001:0003461c       ?ModeLessOff_O3D@CO3DMouse@@QAEXXZ 0043561c f   MMgr_D32:MMgr_D32.dll
 0001:00034622       ?ModeLessOn_O3D@CO3DMouse@@QAEXXZ 00435622 f   MMgr_D32:MMgr_D32.dll
 0001:00034628       ?ModeLessOn_SOL@CSolMouse@@QAEXXZ 00435628 f   MMgr_D32:MMgr_D32.dll
 0001:0003462e       ?ModeLessOn_PAT@CPatMouse@@QAEXXZ 0043562e f   MMgr_D32:MMgr_D32.dll
 0001:00034634       ?ModeLessOn_CUR@CCurMouse@@QAEXXZ 00435634 f   MMgr_D32:MMgr_D32.dll
 0001:0003463a       ?GetStatusMouseWIC@CMouseMgr@@QAE?AULPOINT3@@XZ 0043563a f   MMgr_D32:MMgr_D32.dll
 0001:00034640       ?OnDBoxMouseMove@CDBMouse@@QAEXPAVCClientDC@@PAVCView@@IVCPoint@@@Z 00435640 f   MMgr_D32:MMgr_D32.dll
 0001:00034646       ?SetViewNumber@CMouse@@QAEXI@Z 00435646 f   MMgr_D32:MMgr_D32.dll
 0001:0003464c       ?OnDBoxLButtonDown@CDBMouse@@QAEXPAVCClientDC@@PAVCView@@IVCPoint@@@Z 0043564c f   MMgr_D32:MMgr_D32.dll
 0001:00034652       ?OnDBoxLButtonUp@CDBMouse@@QAEXPAVCClientDC@@PAVCView@@IVCPoint@@@Z 00435652 f   MMgr_D32:MMgr_D32.dll
 0001:00034658       ?OnDBoxRButtonDown@CDBMouse@@QAEXPAVCClientDC@@PAVCView@@IVCPoint@@@Z 00435658 f   MMgr_D32:MMgr_D32.dll
 0001:0003465e       ?OnDBoxRButtonUp@CDBMouse@@QAEXPAVCClientDC@@PAVCView@@IVCPoint@@@Z 0043565e f   MMgr_D32:MMgr_D32.dll
 0001:00034664       ?ResetVuBasedVars_NodDlg@CNodMouse@@QAEXXZ 00435664 f   MMgr_D32:MMgr_D32.dll
 0001:0003466a       ?ResetVuBasedVars_CurDlg@CCurMouse@@QAEXXZ 0043566a f   MMgr_D32:MMgr_D32.dll
 0001:00034670       ?SetViewCursor@CMouseMgr@@QAEXH@Z 00435670 f   MMgr_D32:MMgr_D32.dll
 0001:00034676       ?ResetVuBasedVars_PatDlg@CPatMouse@@QAEXXZ 00435676 f   MMgr_D32:MMgr_D32.dll
 0001:0003467c       ?ResetVuBasedVars_SolDlg@CSolMouse@@QAEXXZ 0043567c f   MMgr_D32:MMgr_D32.dll
 0001:00034682       ?OnEBoxMouseMove_SLD@CSLDMouse@@QAEXPAVCClientDC@@PAVCView@@W4GENERATE@@IVCPoint@@@Z 00435682 f   MMgr_D32:MMgr_D32.dll
 0001:00034688       ?OnEBoxMouseMove_SUP@CSupMouse@@QAEXPAVCClientDC@@PAVCView@@W4GENERATE@@IVCPoint@@@Z 00435688 f   MMgr_D32:MMgr_D32.dll
 0001:0003468e       ?OnEBoxMouseMove_O3D@CO3DMouse@@QAEXPAVCClientDC@@PAVCView@@W4GENERATE@@IVCPoint@@@Z 0043568e f   MMgr_D32:MMgr_D32.dll
 0001:00034694       ?OnEBoxMouseMove_SOL@CSolMouse@@QAEXPAVCClientDC@@PAVCView@@W4GENERATE@@IVCPoint@@@Z 00435694 f   MMgr_D32:MMgr_D32.dll
 0001:0003469a       ?OnEBoxMouseMove_PAT@CPatMouse@@QAEXPAVCClientDC@@PAVCView@@W4GENERATE@@IVCPoint@@@Z 0043569a f   MMgr_D32:MMgr_D32.dll
 0001:000346a0       ?OnEBoxMouseMove_CUR@CCurMouse@@QAEXPAVCClientDC@@PAVCView@@W4GENERATE@@IVCPoint@@@Z 004356a0 f   MMgr_D32:MMgr_D32.dll
 0001:000346a6       ?OnEBoxMouseMove_NOD@CNodMouse@@QAEXPAVCClientDC@@PAVCView@@W4GENERATE@@IVCPoint@@@Z 004356a6 f   MMgr_D32:MMgr_D32.dll
 0001:000346ac       ?OnEBoxLButtonDown_SLD@CSLDMouse@@QAEXPAVCClientDC@@PAVCView@@W4GENERATE@@IVCPoint@@@Z 004356ac f   MMgr_D32:MMgr_D32.dll
 0001:000346b2       ?OnEBoxLButtonDown_SUP@CSupMouse@@QAEXPAVCClientDC@@PAVCView@@W4GENERATE@@IVCPoint@@@Z 004356b2 f   MMgr_D32:MMgr_D32.dll
 0001:000346b8       ?OnEBoxLButtonDown_O3D@CO3DMouse@@QAEXPAVCClientDC@@PAVCView@@W4GENERATE@@IVCPoint@@@Z 004356b8 f   MMgr_D32:MMgr_D32.dll
 0001:000346be       ?OnEBoxLButtonDown_SOL@CSolMouse@@QAEXPAVCClientDC@@PAVCView@@W4GENERATE@@IVCPoint@@@Z 004356be f   MMgr_D32:MMgr_D32.dll
 0001:000346c4       ?OnEBoxLButtonDown_PAT@CPatMouse@@QAEXPAVCClientDC@@PAVCView@@W4GENERATE@@IVCPoint@@@Z 004356c4 f   MMgr_D32:MMgr_D32.dll
 0001:000346ca       ?OnEBoxLButtonDown_CUR@CCurMouse@@QAEXPAVCClientDC@@PAVCView@@W4GENERATE@@IVCPoint@@@Z 004356ca f   MMgr_D32:MMgr_D32.dll
 0001:000346d0       ?OnEBoxLButtonDown_NOD@CNodMouse@@QAEXPAVCClientDC@@PAVCView@@W4GENERATE@@IVCPoint@@@Z 004356d0 f   MMgr_D32:MMgr_D32.dll
 0001:000346d6       ?OnEBoxLButtonUp_SLD@CSLDMouse@@QAEXPAVCClientDC@@PAVCView@@W4GENERATE@@IVCPoint@@@Z 004356d6 f   MMgr_D32:MMgr_D32.dll
 0001:000346dc       ?OnEBoxLButtonUp_SUP@CSupMouse@@QAEXPAVCClientDC@@PAVCView@@W4GENERATE@@IVCPoint@@@Z 004356dc f   MMgr_D32:MMgr_D32.dll
 0001:000346e2       ?OnEBoxLButtonUp_O3D@CO3DMouse@@QAEXPAVCClientDC@@PAVCView@@W4GENERATE@@IVCPoint@@@Z 004356e2 f   MMgr_D32:MMgr_D32.dll
 0001:000346e8       ?OnEBoxLButtonUp_SOL@CSolMouse@@QAEXPAVCClientDC@@PAVCView@@W4GENERATE@@IVCPoint@@@Z 004356e8 f   MMgr_D32:MMgr_D32.dll
 0001:000346ee       ?OnEBoxLButtonUp_PAT@CPatMouse@@QAEXPAVCClientDC@@PAVCView@@W4GENERATE@@IVCPoint@@@Z 004356ee f   MMgr_D32:MMgr_D32.dll
 0001:000346f4       ?OnEBoxLButtonUp_CUR@CCurMouse@@QAEXPAVCClientDC@@PAVCView@@W4GENERATE@@IVCPoint@@@Z 004356f4 f   MMgr_D32:MMgr_D32.dll
 0001:000346fa       ?OnEBoxLButtonUp_NOD@CNodMouse@@QAEXPAVCClientDC@@PAVCView@@W4GENERATE@@IVCPoint@@@Z 004356fa f   MMgr_D32:MMgr_D32.dll
 0001:00034700       ?OnEBoxRButtonDown_SLD@CSLDMouse@@QAEXPAVCClientDC@@PAVCView@@W4GENERATE@@IVCPoint@@@Z 00435700 f   MMgr_D32:MMgr_D32.dll
 0001:00034706       ?OnEBoxRButtonDown_SUP@CSupMouse@@QAEXPAVCClientDC@@PAVCView@@W4GENERATE@@IVCPoint@@@Z 00435706 f   MMgr_D32:MMgr_D32.dll
 0001:0003470c       ?OnEBoxRButtonDown_O3D@CO3DMouse@@QAEXPAVCClientDC@@PAVCView@@W4GENERATE@@IVCPoint@@@Z 0043570c f   MMgr_D32:MMgr_D32.dll
 0001:00034712       ?OnEBoxRButtonDown_SOL@CSolMouse@@QAEXPAVCClientDC@@PAVCView@@W4GENERATE@@IVCPoint@@@Z 00435712 f   MMgr_D32:MMgr_D32.dll
 0001:00034718       ?OnEBoxRButtonDown_PAT@CPatMouse@@QAEXPAVCClientDC@@PAVCView@@W4GENERATE@@IVCPoint@@@Z 00435718 f   MMgr_D32:MMgr_D32.dll
 0001:0003471e       ?OnEBoxRButtonDown_CUR@CCurMouse@@QAEXPAVCClientDC@@PAVCView@@W4GENERATE@@IVCPoint@@@Z 0043571e f   MMgr_D32:MMgr_D32.dll
 0001:00034724       ?OnEBoxRButtonDown_NOD@CNodMouse@@QAEXPAVCClientDC@@PAVCView@@W4GENERATE@@IVCPoint@@@Z 00435724 f   MMgr_D32:MMgr_D32.dll
 0001:0003472a       ?OnEBoxRButtonUp_SLD@CSLDMouse@@QAEXPAVCClientDC@@PAVCView@@W4GENERATE@@IVCPoint@@@Z 0043572a f   MMgr_D32:MMgr_D32.dll
 0001:00034730       ?OnEBoxRButtonUp_SUP@CSupMouse@@QAEXPAVCClientDC@@PAVCView@@W4GENERATE@@IVCPoint@@@Z 00435730 f   MMgr_D32:MMgr_D32.dll
 0001:00034736       ?OnEBoxRButtonUp_O3D@CO3DMouse@@QAEXPAVCClientDC@@PAVCView@@W4GENERATE@@IVCPoint@@@Z 00435736 f   MMgr_D32:MMgr_D32.dll
 0001:0003473c       ?OnEBoxRButtonUp_SOL@CSolMouse@@QAEXPAVCClientDC@@PAVCView@@W4GENERATE@@IVCPoint@@@Z 0043573c f   MMgr_D32:MMgr_D32.dll
 0001:00034742       ?OnEBoxRButtonUp_PAT@CPatMouse@@QAEXPAVCClientDC@@PAVCView@@W4GENERATE@@IVCPoint@@@Z 00435742 f   MMgr_D32:MMgr_D32.dll
 0001:00034748       ?OnEBoxRButtonUp_CUR@CCurMouse@@QAEXPAVCClientDC@@PAVCView@@W4GENERATE@@IVCPoint@@@Z 00435748 f   MMgr_D32:MMgr_D32.dll
 0001:0003474e       ?OnEBoxRButtonUp_NOD@CNodMouse@@QAEXPAVCClientDC@@PAVCView@@W4GENERATE@@IVCPoint@@@Z 0043574e f   MMgr_D32:MMgr_D32.dll
 0001:00034754       _InitMNodDLL@0             00435754 f   MNod_D32:MNod_D32.dll
 0001:0003475a       _InitMCurDLL@0             0043575a f   MCur_D32:MCur_D32.dll
 0001:00034760       _InitMPatDLL@0             00435760 f   MPat_D32:MPat_D32.dll
 0001:00034766       _InitMSolDLL@0             00435766 f   MSol_D32:MSol_D32.dll
 0001:0003476c       _InitMO3DDLL@0             0043576c f   MO3D_D32:MO3D_D32.dll
 0001:00034772       _InitMSupDLL@0             00435772 f   MSup_D32:MSup_D32.dll
 0001:00034778       _InitMStLDLL@0             00435778 f   MStL_D32:MStL_D32.dll
 0001:0003477e       _InitCMgrDLL@0             0043577e f   CMgr_D32:CMgr_D32.dll
 0001:00034784       ??1CCreOpMgr@@UAE@XZ       00435784 f   CMgr_D32:CMgr_D32.dll
 0001:0003478a       ??0CCreOpMgr@@QAE@XZ       0043578a f   CMgr_D32:CMgr_D32.dll
 0001:00034790       ?InitDlgIn@CCreOpMgr@@QAEXXZ 00435790 f   CMgr_D32:CMgr_D32.dll
 0001:00034796       ?CreateorActivateCreIn@CCreOpMgr@@QAEIIJ@Z 00435796 f   CMgr_D32:CMgr_D32.dll
 0001:0003479c       ?GoodByeCreIn@CCreOpMgr@@QAEIIJ@Z 0043579c f   CMgr_D32:CMgr_D32.dll
 0001:000347a2       ?UpdateCreIn@CCreOpMgr@@QAEIIJ@Z 004357a2 f   CMgr_D32:CMgr_D32.dll
 0001:000347a8       ?CancelCreIn@CCreOpMgr@@QAEIIJ@Z 004357a8 f   CMgr_D32:CMgr_D32.dll
 0001:000347ae       ?ModeLessOff@CNodCreOp@@QAEXXZ 004357ae f   CMgr_D32:CMgr_D32.dll
 0001:000347b4       ?ReSetToolID@CCreOpMgr@@QAEIIII@Z 004357b4 f   CMgr_D32:CMgr_D32.dll
 0001:000347ba       ?ModeLessOn@CNodCreOp@@QAEXXZ 004357ba f   CMgr_D32:CMgr_D32.dll
 0001:000347c0       ?OnEBoxMouseMove_O3D@CO3DCreOp@@QAEXPAVCClientDC@@PAVCView@@W4GENERATE@@IVCPoint@@@Z 004357c0 f   CMgr_D32:CMgr_D32.dll
 0001:000347c6       ?OnEBoxMouseMove_SOL@CSolCreOp@@QAEXPAVCClientDC@@PAVCView@@W4GENERATE@@IVCPoint@@@Z 004357c6 f   CMgr_D32:CMgr_D32.dll
 0001:000347cc       ?OnEBoxMouseMove_PAT@CPatCreOp@@QAEXPAVCClientDC@@PAVCView@@W4GENERATE@@IVCPoint@@@Z 004357cc f   CMgr_D32:CMgr_D32.dll
 0001:000347d2       ?OnEBoxMouseMove_CUR@CCurCreOp@@QAEXPAVCClientDC@@PAVCView@@W4GENERATE@@IVCPoint@@@Z 004357d2 f   CMgr_D32:CMgr_D32.dll
 0001:000347d8       ?OnEBoxMouseMove_NOD@CNodCreOp@@QAEXPAVCClientDC@@PAVCView@@W4GENERATE@@IVCPoint@@@Z 004357d8 f   CMgr_D32:CMgr_D32.dll
 0001:000347de       ?SetViewCursor@CCreOpMgr@@QAEXH@Z 004357de f   CMgr_D32:CMgr_D32.dll
 0001:000347e4       ?OnEBoxLButtonDown_O3D@CO3DCreOp@@QAEXPAVCClientDC@@PAVCView@@W4GENERATE@@IVCPoint@@@Z 004357e4 f   CMgr_D32:CMgr_D32.dll
 0001:000347ea       ?OnEBoxLButtonDown_SOL@CSolCreOp@@QAEXPAVCClientDC@@PAVCView@@W4GENERATE@@IVCPoint@@@Z 004357ea f   CMgr_D32:CMgr_D32.dll
 0001:000347f0       ?OnEBoxLButtonDown_PAT@CPatCreOp@@QAEXPAVCClientDC@@PAVCView@@W4GENERATE@@IVCPoint@@@Z 004357f0 f   CMgr_D32:CMgr_D32.dll
 0001:000347f6       ?OnEBoxLButtonDown_CUR@CCurCreOp@@QAEXPAVCClientDC@@PAVCView@@W4GENERATE@@IVCPoint@@@Z 004357f6 f   CMgr_D32:CMgr_D32.dll
 0001:000347fc       ?OnEBoxLButtonDown_NOD@CNodCreOp@@QAEXPAVCClientDC@@PAVCView@@W4GENERATE@@IVCPoint@@@Z 004357fc f   CMgr_D32:CMgr_D32.dll
 0001:00034802       ?OnEBoxLButtonUp_O3D@CO3DCreOp@@QAEXPAVCClientDC@@PAVCView@@W4GENERATE@@IVCPoint@@@Z 00435802 f   CMgr_D32:CMgr_D32.dll
 0001:00034808       ?OnEBoxLButtonUp_SOL@CSolCreOp@@QAEXPAVCClientDC@@PAVCView@@W4GENERATE@@IVCPoint@@@Z 00435808 f   CMgr_D32:CMgr_D32.dll
 0001:0003480e       ?OnEBoxLButtonUp_PAT@CPatCreOp@@QAEXPAVCClientDC@@PAVCView@@W4GENERATE@@IVCPoint@@@Z 0043580e f   CMgr_D32:CMgr_D32.dll
 0001:00034814       ?OnEBoxLButtonUp_CUR@CCurCreOp@@QAEXPAVCClientDC@@PAVCView@@W4GENERATE@@IVCPoint@@@Z 00435814 f   CMgr_D32:CMgr_D32.dll
 0001:0003481a       ?OnEBoxLButtonUp_NOD@CNodCreOp@@QAEXPAVCClientDC@@PAVCView@@W4GENERATE@@IVCPoint@@@Z 0043581a f   CMgr_D32:CMgr_D32.dll
 0001:00034820       ?OnEBoxRButtonDown_O3D@CO3DCreOp@@QAEXPAVCClientDC@@PAVCView@@W4GENERATE@@IVCPoint@@@Z 00435820 f   CMgr_D32:CMgr_D32.dll
 0001:00034826       ?OnEBoxRButtonDown_SOL@CSolCreOp@@QAEXPAVCClientDC@@PAVCView@@W4GENERATE@@IVCPoint@@@Z 00435826 f   CMgr_D32:CMgr_D32.dll
 0001:0003482c       ?OnEBoxRButtonDown_PAT@CPatCreOp@@QAEXPAVCClientDC@@PAVCView@@W4GENERATE@@IVCPoint@@@Z 0043582c f   CMgr_D32:CMgr_D32.dll
 0001:00034832       ?OnEBoxRButtonDown_CUR@CCurCreOp@@QAEXPAVCClientDC@@PAVCView@@W4GENERATE@@IVCPoint@@@Z 00435832 f   CMgr_D32:CMgr_D32.dll
 0001:00034838       ?OnEBoxRButtonDown_NOD@CNodCreOp@@QAEXPAVCClientDC@@PAVCView@@W4GENERATE@@IVCPoint@@@Z 00435838 f   CMgr_D32:CMgr_D32.dll
 0001:0003483e       ?OnEBoxRButtonUp_O3D@CO3DCreOp@@QAEXPAVCClientDC@@PAVCView@@W4GENERATE@@IVCPoint@@@Z 0043583e f   CMgr_D32:CMgr_D32.dll
 0001:00034844       ?OnEBoxRButtonUp_SOL@CSolCreOp@@QAEXPAVCClientDC@@PAVCView@@W4GENERATE@@IVCPoint@@@Z 00435844 f   CMgr_D32:CMgr_D32.dll
 0001:0003484a       ?OnEBoxRButtonUp_PAT@CPatCreOp@@QAEXPAVCClientDC@@PAVCView@@W4GENERATE@@IVCPoint@@@Z 0043584a f   CMgr_D32:CMgr_D32.dll
 0001:00034850       ?OnEBoxRButtonUp_CUR@CCurCreOp@@QAEXPAVCClientDC@@PAVCView@@W4GENERATE@@IVCPoint@@@Z 00435850 f   CMgr_D32:CMgr_D32.dll
 0001:00034856       ?OnEBoxRButtonUp_NOD@CNodCreOp@@QAEXPAVCClientDC@@PAVCView@@W4GENERATE@@IVCPoint@@@Z 00435856 f   CMgr_D32:CMgr_D32.dll
 0001:0003485c       _InitEMgrDLL@0             0043585c f   EMgr_D32:EMgr_D32.dll
 0001:00034862       ??1CEditMgr@@UAE@XZ        00435862 f   EMgr_D32:EMgr_D32.dll
 0001:00034868       ??0CEditMgr@@QAE@XZ        00435868 f   EMgr_D32:EMgr_D32.dll
 0001:0003486e       ?ReSetToolID@CEditMgr@@QAEIIII@Z 0043586e f   EMgr_D32:EMgr_D32.dll
 0001:00034874       ?OnEBoxMouseMove_SLD@CSLDEdit@@QAEXPAVCClientDC@@PAVCView@@W4GENERATE@@IVCPoint@@@Z 00435874 f   EMgr_D32:EMgr_D32.dll
 0001:0003487a       ?OnEBoxMouseMove_SUP@CSupEdit@@QAEXPAVCClientDC@@PAVCView@@W4GENERATE@@IVCPoint@@@Z 0043587a f   EMgr_D32:EMgr_D32.dll
 0001:00034880       ?OnEBoxMouseMove_SOL@CSolEdit@@QAEXPAVCClientDC@@PAVCView@@W4GENERATE@@IVCPoint@@@Z 00435880 f   EMgr_D32:EMgr_D32.dll
 0001:00034886       ?OnEBoxMouseMove_PAT@CPatEdit@@QAEXPAVCClientDC@@PAVCView@@W4GENERATE@@IVCPoint@@@Z 00435886 f   EMgr_D32:EMgr_D32.dll
 0001:0003488c       ?OnEBoxMouseMove_CUR@CCurEdit@@QAEXPAVCClientDC@@PAVCView@@W4GENERATE@@IVCPoint@@@Z 0043588c f   EMgr_D32:EMgr_D32.dll
 0001:00034892       ?OnEBoxMouseMove_NOD@CNodEdit@@QAEXPAVCClientDC@@PAVCView@@W4GENERATE@@IVCPoint@@@Z 00435892 f   EMgr_D32:EMgr_D32.dll
 0001:00034898       ?SetViewCursor@CEditMgr@@QAEXH@Z 00435898 f   EMgr_D32:EMgr_D32.dll
 0001:0003489e       ?OnEBoxLButtonDown_SLD@CSLDEdit@@QAEXPAVCClientDC@@PAVCView@@W4GENERATE@@IVCPoint@@@Z 0043589e f   EMgr_D32:EMgr_D32.dll
 0001:000348a4       ?OnEBoxLButtonDown_SUP@CSupEdit@@QAEXPAVCClientDC@@PAVCView@@W4GENERATE@@IVCPoint@@@Z 004358a4 f   EMgr_D32:EMgr_D32.dll
 0001:000348aa       ?OnEBoxLButtonDown_SOL@CSolEdit@@QAEXPAVCClientDC@@PAVCView@@W4GENERATE@@IVCPoint@@@Z 004358aa f   EMgr_D32:EMgr_D32.dll
 0001:000348b0       ?OnEBoxLButtonDown_PAT@CPatEdit@@QAEXPAVCClientDC@@PAVCView@@W4GENERATE@@IVCPoint@@@Z 004358b0 f   EMgr_D32:EMgr_D32.dll
 0001:000348b6       ?OnEBoxLButtonDown_CUR@CCurEdit@@QAEXPAVCClientDC@@PAVCView@@W4GENERATE@@IVCPoint@@@Z 004358b6 f   EMgr_D32:EMgr_D32.dll
 0001:000348bc       ?OnEBoxLButtonDown_NOD@CNodEdit@@QAEXPAVCClientDC@@PAVCView@@W4GENERATE@@IVCPoint@@@Z 004358bc f   EMgr_D32:EMgr_D32.dll
 0001:000348c2       ?OnEBoxLButtonUp_SLD@CSLDEdit@@QAEXPAVCClientDC@@PAVCView@@W4GENERATE@@IVCPoint@@@Z 004358c2 f   EMgr_D32:EMgr_D32.dll
 0001:000348c8       ?OnEBoxLButtonUp_SUP@CSupEdit@@QAEXPAVCClientDC@@PAVCView@@W4GENERATE@@IVCPoint@@@Z 004358c8 f   EMgr_D32:EMgr_D32.dll
 0001:000348ce       ?OnEBoxLButtonUp_SOL@CSolEdit@@QAEXPAVCClientDC@@PAVCView@@W4GENERATE@@IVCPoint@@@Z 004358ce f   EMgr_D32:EMgr_D32.dll
 0001:000348d4       ?OnEBoxLButtonUp_PAT@CPatEdit@@QAEXPAVCClientDC@@PAVCView@@W4GENERATE@@IVCPoint@@@Z 004358d4 f   EMgr_D32:EMgr_D32.dll
 0001:000348da       ?OnEBoxLButtonUp_CUR@CCurEdit@@QAEXPAVCClientDC@@PAVCView@@W4GENERATE@@IVCPoint@@@Z 004358da f   EMgr_D32:EMgr_D32.dll
 0001:000348e0       ?OnEBoxLButtonUp_NOD@CNodEdit@@QAEXPAVCClientDC@@PAVCView@@W4GENERATE@@IVCPoint@@@Z 004358e0 f   EMgr_D32:EMgr_D32.dll
 0001:000348e6       ?OnEBoxRButtonDown_SLD@CSLDEdit@@QAEXPAVCClientDC@@PAVCView@@W4GENERATE@@IVCPoint@@@Z 004358e6 f   EMgr_D32:EMgr_D32.dll
 0001:000348ec       ?OnEBoxRButtonDown_SUP@CSupEdit@@QAEXPAVCClientDC@@PAVCView@@W4GENERATE@@IVCPoint@@@Z 004358ec f   EMgr_D32:EMgr_D32.dll
 0001:000348f2       ?OnEBoxRButtonDown_SOL@CSolEdit@@QAEXPAVCClientDC@@PAVCView@@W4GENERATE@@IVCPoint@@@Z 004358f2 f   EMgr_D32:EMgr_D32.dll
 0001:000348f8       ?OnEBoxRButtonDown_PAT@CPatEdit@@QAEXPAVCClientDC@@PAVCView@@W4GENERATE@@IVCPoint@@@Z 004358f8 f   EMgr_D32:EMgr_D32.dll
 0001:000348fe       ?OnEBoxRButtonDown_CUR@CCurEdit@@QAEXPAVCClientDC@@PAVCView@@W4GENERATE@@IVCPoint@@@Z 004358fe f   EMgr_D32:EMgr_D32.dll
 0001:00034904       ?OnEBoxRButtonDown_NOD@CNodEdit@@QAEXPAVCClientDC@@PAVCView@@W4GENERATE@@IVCPoint@@@Z 00435904 f   EMgr_D32:EMgr_D32.dll
 0001:0003490a       ?OnEBoxRButtonUp_SLD@CSLDEdit@@QAEXPAVCClientDC@@PAVCView@@W4GENERATE@@IVCPoint@@@Z 0043590a f   EMgr_D32:EMgr_D32.dll
 0001:00034910       ?OnEBoxRButtonUp_SUP@CSupEdit@@QAEXPAVCClientDC@@PAVCView@@W4GENERATE@@IVCPoint@@@Z 00435910 f   EMgr_D32:EMgr_D32.dll
 0001:00034916       ?OnEBoxRButtonUp_SOL@CSolEdit@@QAEXPAVCClientDC@@PAVCView@@W4GENERATE@@IVCPoint@@@Z 00435916 f   EMgr_D32:EMgr_D32.dll
 0001:0003491c       ?OnEBoxRButtonUp_PAT@CPatEdit@@QAEXPAVCClientDC@@PAVCView@@W4GENERATE@@IVCPoint@@@Z 0043591c f   EMgr_D32:EMgr_D32.dll
 0001:00034922       ?OnEBoxRButtonUp_CUR@CCurEdit@@QAEXPAVCClientDC@@PAVCView@@W4GENERATE@@IVCPoint@@@Z 00435922 f   EMgr_D32:EMgr_D32.dll
 0001:00034928       ?OnEBoxRButtonUp_NOD@CNodEdit@@QAEXPAVCClientDC@@PAVCView@@W4GENERATE@@IVCPoint@@@Z 00435928 f   EMgr_D32:EMgr_D32.dll
 0001:0003492e       _InitDMgrDLL@0             0043592e f   DMGR_D32:DMgr_D32.dll
 0001:00034934       ??1CDelMgr@@UAE@XZ         00435934 f   DMGR_D32:DMgr_D32.dll
 0001:0003493a       ??0CDelMgr@@QAE@XZ         0043593a f   DMGR_D32:DMgr_D32.dll
 0001:00034940       ?ReSetToolID@CDelMgr@@QAEIIII@Z 00435940 f   DMGR_D32:DMgr_D32.dll
 0001:00034946       ?OnEBoxMouseMove_SLD@CSLDDel@@QAEXPAVCClientDC@@PAVCView@@W4GENERATE@@IVCPoint@@@Z 00435946 f   DMGR_D32:DMgr_D32.dll
 0001:0003494c       ?OnEBoxMouseMove_SUP@CSupDel@@QAEXPAVCClientDC@@PAVCView@@W4GENERATE@@IVCPoint@@@Z 0043594c f   DMGR_D32:DMgr_D32.dll
 0001:00034952       ?OnEBoxMouseMove_SOL@CSolDel@@QAEXPAVCClientDC@@PAVCView@@W4GENERATE@@IVCPoint@@@Z 00435952 f   DMGR_D32:DMgr_D32.dll
 0001:00034958       ?OnEBoxMouseMove_PAT@CPatDel@@QAEXPAVCClientDC@@PAVCView@@W4GENERATE@@IVCPoint@@@Z 00435958 f   DMGR_D32:DMgr_D32.dll
 0001:0003495e       ?OnEBoxMouseMove_CUR@CCurDel@@QAEXPAVCClientDC@@PAVCView@@W4GENERATE@@IVCPoint@@@Z 0043595e f   DMGR_D32:DMgr_D32.dll
 0001:00034964       ?OnEBoxMouseMove_NOD@CNodDel@@QAEXPAVCClientDC@@PAVCView@@W4GENERATE@@IVCPoint@@@Z 00435964 f   DMGR_D32:DMgr_D32.dll
 0001:0003496a       ?SetViewCursor@CDelMgr@@QAEXH@Z 0043596a f   DMGR_D32:DMgr_D32.dll
 0001:00034970       ?OnEBoxLButtonDown_SLD@CSLDDel@@QAEXPAVCClientDC@@PAVCView@@W4GENERATE@@IVCPoint@@@Z 00435970 f   DMGR_D32:DMgr_D32.dll
 0001:00034976       ?OnEBoxLButtonDown_SUP@CSupDel@@QAEXPAVCClientDC@@PAVCView@@W4GENERATE@@IVCPoint@@@Z 00435976 f   DMGR_D32:DMgr_D32.dll
 0001:0003497c       ?OnEBoxLButtonDown_SOL@CSolDel@@QAEXPAVCClientDC@@PAVCView@@W4GENERATE@@IVCPoint@@@Z 0043597c f   DMGR_D32:DMgr_D32.dll
 0001:00034982       ?OnEBoxLButtonDown_PAT@CPatDel@@QAEXPAVCClientDC@@PAVCView@@W4GENERATE@@IVCPoint@@@Z 00435982 f   DMGR_D32:DMgr_D32.dll
 0001:00034988       ?OnEBoxLButtonDown_CUR@CCurDel@@QAEXPAVCClientDC@@PAVCView@@W4GENERATE@@IVCPoint@@@Z 00435988 f   DMGR_D32:DMgr_D32.dll
 0001:0003498e       ?OnEBoxLButtonDown_NOD@CNodDel@@QAEXPAVCClientDC@@PAVCView@@W4GENERATE@@IVCPoint@@@Z 0043598e f   DMGR_D32:DMgr_D32.dll
 0001:00034994       ?OnEBoxLButtonUp_SLD@CSLDDel@@QAEXPAVCClientDC@@PAVCView@@W4GENERATE@@IVCPoint@@@Z 00435994 f   DMGR_D32:DMgr_D32.dll
 0001:0003499a       ?OnEBoxLButtonUp_SUP@CSupDel@@QAEXPAVCClientDC@@PAVCView@@W4GENERATE@@IVCPoint@@@Z 0043599a f   DMGR_D32:DMgr_D32.dll
 0001:000349a0       ?OnEBoxLButtonUp_SOL@CSolDel@@QAEXPAVCClientDC@@PAVCView@@W4GENERATE@@IVCPoint@@@Z 004359a0 f   DMGR_D32:DMgr_D32.dll
 0001:000349a6       ?OnEBoxLButtonUp_PAT@CPatDel@@QAEXPAVCClientDC@@PAVCView@@W4GENERATE@@IVCPoint@@@Z 004359a6 f   DMGR_D32:DMgr_D32.dll
 0001:000349ac       ?OnEBoxLButtonUp_CUR@CCurDel@@QAEXPAVCClientDC@@PAVCView@@W4GENERATE@@IVCPoint@@@Z 004359ac f   DMGR_D32:DMgr_D32.dll
 0001:000349b2       ?OnEBoxLButtonUp_NOD@CNodDel@@QAEXPAVCClientDC@@PAVCView@@W4GENERATE@@IVCPoint@@@Z 004359b2 f   DMGR_D32:DMgr_D32.dll
 0001:000349b8       ?OnEBoxRButtonDown_SLD@CSLDDel@@QAEXPAVCClientDC@@PAVCView@@W4GENERATE@@IVCPoint@@@Z 004359b8 f   DMGR_D32:DMgr_D32.dll
 0001:000349be       ?OnEBoxRButtonDown_SUP@CSupDel@@QAEXPAVCClientDC@@PAVCView@@W4GENERATE@@IVCPoint@@@Z 004359be f   DMGR_D32:DMgr_D32.dll
 0001:000349c4       ?OnEBoxRButtonDown_SOL@CSolDel@@QAEXPAVCClientDC@@PAVCView@@W4GENERATE@@IVCPoint@@@Z 004359c4 f   DMGR_D32:DMgr_D32.dll
 0001:000349ca       ?OnEBoxRButtonDown_PAT@CPatDel@@QAEXPAVCClientDC@@PAVCView@@W4GENERATE@@IVCPoint@@@Z 004359ca f   DMGR_D32:DMgr_D32.dll
 0001:000349d0       ?OnEBoxRButtonDown_CUR@CCurDel@@QAEXPAVCClientDC@@PAVCView@@W4GENERATE@@IVCPoint@@@Z 004359d0 f   DMGR_D32:DMgr_D32.dll
 0001:000349d6       ?OnEBoxRButtonDown_NOD@CNodDel@@QAEXPAVCClientDC@@PAVCView@@W4GENERATE@@IVCPoint@@@Z 004359d6 f   DMGR_D32:DMgr_D32.dll
 0001:000349dc       ?OnEBoxRButtonUp_SLD@CSLDDel@@QAEXPAVCClientDC@@PAVCView@@W4GENERATE@@IVCPoint@@@Z 004359dc f   DMGR_D32:DMgr_D32.dll
 0001:000349e2       ?OnEBoxRButtonUp_SUP@CSupDel@@QAEXPAVCClientDC@@PAVCView@@W4GENERATE@@IVCPoint@@@Z 004359e2 f   DMGR_D32:DMgr_D32.dll
 0001:000349e8       ?OnEBoxRButtonUp_SOL@CSolDel@@QAEXPAVCClientDC@@PAVCView@@W4GENERATE@@IVCPoint@@@Z 004359e8 f   DMGR_D32:DMgr_D32.dll
 0001:000349ee       ?OnEBoxRButtonUp_PAT@CPatDel@@QAEXPAVCClientDC@@PAVCView@@W4GENERATE@@IVCPoint@@@Z 004359ee f   DMGR_D32:DMgr_D32.dll
 0001:000349f4       ?OnEBoxRButtonUp_CUR@CCurDel@@QAEXPAVCClientDC@@PAVCView@@W4GENERATE@@IVCPoint@@@Z 004359f4 f   DMGR_D32:DMgr_D32.dll
 0001:000349fa       ?OnEBoxRButtonUp_NOD@CNodDel@@QAEXPAVCClientDC@@PAVCView@@W4GENERATE@@IVCPoint@@@Z 004359fa f   DMGR_D32:DMgr_D32.dll
 0001:00034a00       _InitPMgrDLL@0             00435a00 f   PMgr_D32:PMgr_D32.dll
 0001:00034a06       ??1CPostMgr@@UAE@XZ        00435a06 f   PMgr_D32:PMgr_D32.dll
 0001:00034a0c       ??0CPostMgr@@QAE@XZ        00435a0c f   PMgr_D32:PMgr_D32.dll
 0001:00034a12       ?InitDlgIn@CPostMgr@@QAEXXZ 00435a12 f   PMgr_D32:PMgr_D32.dll
 0001:00034a18       ?CreateorActivatePost_NOD@CNodPost@@QAEJIJ@Z 00435a18 f   PMgr_D32:PMgr_D32.dll
 0001:00034a1e       ?GoodByePost_NOD@CNodPost@@QAEJIJ@Z 00435a1e f   PMgr_D32:PMgr_D32.dll
 0001:00034a24       ?UpdatePost_NOD@CNodPost@@QAEJIJ@Z 00435a24 f   PMgr_D32:PMgr_D32.dll
 0001:00034a2a       ?CancelPost_NOD@CNodPost@@QAEJIJ@Z 00435a2a f   PMgr_D32:PMgr_D32.dll
 0001:00034a30       ?CreateorActivatePost_CUR@CCurPost@@QAEJIJ@Z 00435a30 f   PMgr_D32:PMgr_D32.dll
 0001:00034a36       ?GoodByePost_CUR@CCurPost@@QAEJIJ@Z 00435a36 f   PMgr_D32:PMgr_D32.dll
 0001:00034a3c       ?UpdatePost_CUR@CCurPost@@QAEJIJ@Z 00435a3c f   PMgr_D32:PMgr_D32.dll
 0001:00034a42       ?CancelPost_CUR@CCurPost@@QAEJIJ@Z 00435a42 f   PMgr_D32:PMgr_D32.dll
 0001:00034a48       ?CreateorActivatePost_PAT@CPatPost@@QAEJIJ@Z 00435a48 f   PMgr_D32:PMgr_D32.dll
 0001:00034a4e       ?GoodByePost_PAT@CPatPost@@QAEJIJ@Z 00435a4e f   PMgr_D32:PMgr_D32.dll
 0001:00034a54       ?UpdatePost_PAT@CPatPost@@QAEJIJ@Z 00435a54 f   PMgr_D32:PMgr_D32.dll
 0001:00034a5a       ?CancelPost_PAT@CPatPost@@QAEJIJ@Z 00435a5a f   PMgr_D32:PMgr_D32.dll
 0001:00034a60       ?ModeLessOff_PAT@CPatPost@@QAEXXZ 00435a60 f   PMgr_D32:PMgr_D32.dll
 0001:00034a66       ?ModeLessOff_CUR@CCurPost@@QAEXXZ 00435a66 f   PMgr_D32:PMgr_D32.dll
 0001:00034a6c       ?ModeLessOff_NOD@CNodPost@@QAEXXZ 00435a6c f   PMgr_D32:PMgr_D32.dll
 0001:00034a72       ?ReSetToolID@CPostMgr@@QAEIIII@Z 00435a72 f   PMgr_D32:PMgr_D32.dll
 0001:00034a78       ?ModeLessOn_PAT@CPatPost@@QAEXXZ 00435a78 f   PMgr_D32:PMgr_D32.dll
 0001:00034a7e       ?ModeLessOn_CUR@CCurPost@@QAEXXZ 00435a7e f   PMgr_D32:PMgr_D32.dll
 0001:00034a84       ?ModeLessOn_NOD@CNodPost@@QAEXXZ 00435a84 f   PMgr_D32:PMgr_D32.dll
 0001:00034a8a       ?OnEBoxMouseMove_PAT@CPatPost@@QAEXPAVCClientDC@@PAVCView@@W4GENERATE@@IVCPoint@@@Z 00435a8a f   PMgr_D32:PMgr_D32.dll
 0001:00034a90       ?OnEBoxMouseMove_CUR@CCurPost@@QAEXPAVCClientDC@@PAVCView@@W4GENERATE@@IVCPoint@@@Z 00435a90 f   PMgr_D32:PMgr_D32.dll
 0001:00034a96       ?OnEBoxMouseMove_NOD@CNodPost@@QAEXPAVCClientDC@@PAVCView@@W4GENERATE@@IVCPoint@@@Z 00435a96 f   PMgr_D32:PMgr_D32.dll
 0001:00034a9c       ?SetViewCursor@CPostMgr@@QAEXH@Z 00435a9c f   PMgr_D32:PMgr_D32.dll
 0001:00034aa2       ?OnEBoxLButtonDown_PAT@CPatPost@@QAEXPAVCClientDC@@PAVCView@@W4GENERATE@@IVCPoint@@@Z 00435aa2 f   PMgr_D32:PMgr_D32.dll
 0001:00034aa8       ?OnEBoxLButtonDown_CUR@CCurPost@@QAEXPAVCClientDC@@PAVCView@@W4GENERATE@@IVCPoint@@@Z 00435aa8 f   PMgr_D32:PMgr_D32.dll
 0001:00034aae       ?OnEBoxLButtonDown_NOD@CNodPost@@QAEXPAVCClientDC@@PAVCView@@W4GENERATE@@IVCPoint@@@Z 00435aae f   PMgr_D32:PMgr_D32.dll
 0001:00034ab4       ?OnEBoxLButtonUp_PAT@CPatPost@@QAEXPAVCClientDC@@PAVCView@@W4GENERATE@@IVCPoint@@@Z 00435ab4 f   PMgr_D32:PMgr_D32.dll
 0001:00034aba       ?OnEBoxLButtonUp_CUR@CCurPost@@QAEXPAVCClientDC@@PAVCView@@W4GENERATE@@IVCPoint@@@Z 00435aba f   PMgr_D32:PMgr_D32.dll
 0001:00034ac0       ?OnEBoxLButtonUp_NOD@CNodPost@@QAEXPAVCClientDC@@PAVCView@@W4GENERATE@@IVCPoint@@@Z 00435ac0 f   PMgr_D32:PMgr_D32.dll
 0001:00034ac6       ?OnEBoxRButtonDown_PAT@CPatPost@@QAEXPAVCClientDC@@PAVCView@@W4GENERATE@@IVCPoint@@@Z 00435ac6 f   PMgr_D32:PMgr_D32.dll
 0001:00034acc       ?OnEBoxRButtonDown_CUR@CCurPost@@QAEXPAVCClientDC@@PAVCView@@W4GENERATE@@IVCPoint@@@Z 00435acc f   PMgr_D32:PMgr_D32.dll
 0001:00034ad2       ?OnEBoxRButtonDown_NOD@CNodPost@@QAEXPAVCClientDC@@PAVCView@@W4GENERATE@@IVCPoint@@@Z 00435ad2 f   PMgr_D32:PMgr_D32.dll
 0001:00034ad8       ?OnEBoxRButtonUp_PAT@CPatPost@@QAEXPAVCClientDC@@PAVCView@@W4GENERATE@@IVCPoint@@@Z 00435ad8 f   PMgr_D32:PMgr_D32.dll
 0001:00034ade       ?OnEBoxRButtonUp_CUR@CCurPost@@QAEXPAVCClientDC@@PAVCView@@W4GENERATE@@IVCPoint@@@Z 00435ade f   PMgr_D32:PMgr_D32.dll
 0001:00034ae4       ?OnEBoxRButtonUp_NOD@CNodPost@@QAEXPAVCClientDC@@PAVCView@@W4GENERATE@@IVCPoint@@@Z 00435ae4 f   PMgr_D32:PMgr_D32.dll
 0001:00034aea       _InitMMs0DLL@0             00435aea f   MMs0_D32:MMs0_D32.dll
 0001:00034af0       _InitMMs1DLL@0             00435af0 f   MMs1_D32:MMs1_D32.dll
 0001:00034af6       _InitMMs2DLL@0             00435af6 f   MMs2_D32:MMs2_D32.dll
 0001:00034afc       _InitCreMDLL@0             00435afc f   CreM_D32:CreM_D32.dll
 0001:00034b02       ??1CCreOMMgr@@UAE@XZ       00435b02 f   CreM_D32:CreM_D32.dll
 0001:00034b08       ??0CCreOMMgr@@QAE@XZ       00435b08 f   CreM_D32:CreM_D32.dll
 0001:00034b0e       ?InitDlgIn@CCreOMMgr@@QAEXXZ 00435b0e f   CreM_D32:CreM_D32.dll
 0001:00034b14       ?CreateorActivateCreIn@CCreOMMgr@@QAEIIJ@Z 00435b14 f   CreM_D32:CreM_D32.dll
 0001:00034b1a       ?GoodByeCreIn@CCreOMMgr@@QAEIIJ@Z 00435b1a f   CreM_D32:CreM_D32.dll
 0001:00034b20       ?UpdateCreIn@CCreOMMgr@@QAEIIJ@Z 00435b20 f   CreM_D32:CreM_D32.dll
 0001:00034b26       ?CancelCreIn@CCreOMMgr@@QAEIIJ@Z 00435b26 f   CreM_D32:CreM_D32.dll
 0001:00034b2c       ?ReSetToolID@CCreOMMgr@@QAEIIII@Z 00435b2c f   CreM_D32:CreM_D32.dll
 0001:00034b32       ?ModeLessOn@CNodCreOM@@QAEXXZ 00435b32 f   CreM_D32:CreM_D32.dll
 0001:00034b38       ?ModeLessOff@CNodCreOM@@QAEXXZ 00435b38 f   CreM_D32:CreM_D32.dll
 0001:00034b3e       ?OnEBoxMouseMove_PAT@CPatCreOM@@QAEXPAVCClientDC@@PAVCView@@W4GENERATE@@IVCPoint@@@Z 00435b3e f   CreM_D32:CreM_D32.dll
 0001:00034b44       ?OnEBoxMouseMove_CUR@CCurCreOM@@QAEXPAVCClientDC@@PAVCView@@W4GENERATE@@IVCPoint@@@Z 00435b44 f   CreM_D32:CreM_D32.dll
 0001:00034b4a       ?OnEBoxMouseMove_NOD@CNodCreOM@@QAEXPAVCClientDC@@PAVCView@@W4GENERATE@@IVCPoint@@@Z 00435b4a f   CreM_D32:CreM_D32.dll
 0001:00034b50       ?SetViewCursor@CCreOMMgr@@QAEXH@Z 00435b50 f   CreM_D32:CreM_D32.dll
 0001:00034b56       ?OnEBoxLButtonDown_PAT@CPatCreOM@@QAEXPAVCClientDC@@PAVCView@@W4GENERATE@@IVCPoint@@@Z 00435b56 f   CreM_D32:CreM_D32.dll
 0001:00034b5c       ?OnEBoxLButtonDown_CUR@CCurCreOM@@QAEXPAVCClientDC@@PAVCView@@W4GENERATE@@IVCPoint@@@Z 00435b5c f   CreM_D32:CreM_D32.dll
 0001:00034b62       ?OnEBoxLButtonDown_NOD@CNodCreOM@@QAEXPAVCClientDC@@PAVCView@@W4GENERATE@@IVCPoint@@@Z 00435b62 f   CreM_D32:CreM_D32.dll
 0001:00034b68       ?OnEBoxLButtonUp_PAT@CPatCreOM@@QAEXPAVCClientDC@@PAVCView@@W4GENERATE@@IVCPoint@@@Z 00435b68 f   CreM_D32:CreM_D32.dll
 0001:00034b6e       ?OnEBoxLButtonUp_CUR@CCurCreOM@@QAEXPAVCClientDC@@PAVCView@@W4GENERATE@@IVCPoint@@@Z 00435b6e f   CreM_D32:CreM_D32.dll
 0001:00034b74       ?OnEBoxLButtonUp_NOD@CNodCreOM@@QAEXPAVCClientDC@@PAVCView@@W4GENERATE@@IVCPoint@@@Z 00435b74 f   CreM_D32:CreM_D32.dll
 0001:00034b7a       ?OnEBoxRButtonDown_PAT@CPatCreOM@@QAEXPAVCClientDC@@PAVCView@@W4GENERATE@@IVCPoint@@@Z 00435b7a f   CreM_D32:CreM_D32.dll
 0001:00034b80       ?OnEBoxRButtonDown_CUR@CCurCreOM@@QAEXPAVCClientDC@@PAVCView@@W4GENERATE@@IVCPoint@@@Z 00435b80 f   CreM_D32:CreM_D32.dll
 0001:00034b86       ?OnEBoxRButtonDown_NOD@CNodCreOM@@QAEXPAVCClientDC@@PAVCView@@W4GENERATE@@IVCPoint@@@Z 00435b86 f   CreM_D32:CreM_D32.dll
 0001:00034b8c       ?OnEBoxRButtonUp_PAT@CPatCreOM@@QAEXPAVCClientDC@@PAVCView@@W4GENERATE@@IVCPoint@@@Z 00435b8c f   CreM_D32:CreM_D32.dll
 0001:00034b92       ?OnEBoxRButtonUp_CUR@CCurCreOM@@QAEXPAVCClientDC@@PAVCView@@W4GENERATE@@IVCPoint@@@Z 00435b92 f   CreM_D32:CreM_D32.dll
 0001:00034b98       ?OnEBoxRButtonUp_NOD@CNodCreOM@@QAEXPAVCClientDC@@PAVCView@@W4GENERATE@@IVCPoint@@@Z 00435b98 f   CreM_D32:CreM_D32.dll
 0001:00034b9e       _InitMditDLL@0             00435b9e f   Mdit_D32:Mdit_D32.dll
 0001:00034ba4       ??1CMditMgr@@UAE@XZ        00435ba4 f   Mdit_D32:Mdit_D32.dll
 0001:00034baa       ??0CMditMgr@@QAE@XZ        00435baa f   Mdit_D32:Mdit_D32.dll
 0001:00034bb0       ?ReSetToolID@CMditMgr@@QAEIIII@Z 00435bb0 f   Mdit_D32:Mdit_D32.dll
 0001:00034bb6       ?OnEBoxMouseMove_SOL@CSolMdit@@QAEXPAVCClientDC@@PAVCView@@W4GENERATE@@IVCPoint@@@Z 00435bb6 f   Mdit_D32:Mdit_D32.dll
 0001:00034bbc       ?OnEBoxMouseMove_PAT@CPatMdit@@QAEXPAVCClientDC@@PAVCView@@W4GENERATE@@IVCPoint@@@Z 00435bbc f   Mdit_D32:Mdit_D32.dll
 0001:00034bc2       ?OnEBoxMouseMove_CUR@CCurMdit@@QAEXPAVCClientDC@@PAVCView@@W4GENERATE@@IVCPoint@@@Z 00435bc2 f   Mdit_D32:Mdit_D32.dll
 0001:00034bc8       ?OnEBoxMouseMove_NOD@CNodMdit@@QAEXPAVCClientDC@@PAVCView@@W4GENERATE@@IVCPoint@@@Z 00435bc8 f   Mdit_D32:Mdit_D32.dll
 0001:00034bce       ?SetViewCursor@CMditMgr@@QAEXH@Z 00435bce f   Mdit_D32:Mdit_D32.dll
 0001:00034bd4       ?OnEBoxLButtonDown_SOL@CSolMdit@@QAEXPAVCClientDC@@PAVCView@@W4GENERATE@@IVCPoint@@@Z 00435bd4 f   Mdit_D32:Mdit_D32.dll
 0001:00034bda       ?OnEBoxLButtonDown_PAT@CPatMdit@@QAEXPAVCClientDC@@PAVCView@@W4GENERATE@@IVCPoint@@@Z 00435bda f   Mdit_D32:Mdit_D32.dll
 0001:00034be0       ?OnEBoxLButtonDown_CUR@CCurMdit@@QAEXPAVCClientDC@@PAVCView@@W4GENERATE@@IVCPoint@@@Z 00435be0 f   Mdit_D32:Mdit_D32.dll
 0001:00034be6       ?OnEBoxLButtonDown_NOD@CNodMdit@@QAEXPAVCClientDC@@PAVCView@@W4GENERATE@@IVCPoint@@@Z 00435be6 f   Mdit_D32:Mdit_D32.dll
 0001:00034bec       ?OnEBoxLButtonUp_SOL@CSolMdit@@QAEXPAVCClientDC@@PAVCView@@W4GENERATE@@IVCPoint@@@Z 00435bec f   Mdit_D32:Mdit_D32.dll
 0001:00034bf2       ?OnEBoxLButtonUp_PAT@CPatMdit@@QAEXPAVCClientDC@@PAVCView@@W4GENERATE@@IVCPoint@@@Z 00435bf2 f   Mdit_D32:Mdit_D32.dll
 0001:00034bf8       ?OnEBoxLButtonUp_CUR@CCurMdit@@QAEXPAVCClientDC@@PAVCView@@W4GENERATE@@IVCPoint@@@Z 00435bf8 f   Mdit_D32:Mdit_D32.dll
 0001:00034bfe       ?OnEBoxLButtonUp_NOD@CNodMdit@@QAEXPAVCClientDC@@PAVCView@@W4GENERATE@@IVCPoint@@@Z 00435bfe f   Mdit_D32:Mdit_D32.dll
 0001:00034c04       ?OnEBoxRButtonDown_SOL@CSolMdit@@QAEXPAVCClientDC@@PAVCView@@W4GENERATE@@IVCPoint@@@Z 00435c04 f   Mdit_D32:Mdit_D32.dll
 0001:00034c0a       ?OnEBoxRButtonDown_PAT@CPatMdit@@QAEXPAVCClientDC@@PAVCView@@W4GENERATE@@IVCPoint@@@Z 00435c0a f   Mdit_D32:Mdit_D32.dll
 0001:00034c10       ?OnEBoxRButtonDown_CUR@CCurMdit@@QAEXPAVCClientDC@@PAVCView@@W4GENERATE@@IVCPoint@@@Z 00435c10 f   Mdit_D32:Mdit_D32.dll
 0001:00034c16       ?OnEBoxRButtonDown_NOD@CNodMdit@@QAEXPAVCClientDC@@PAVCView@@W4GENERATE@@IVCPoint@@@Z 00435c16 f   Mdit_D32:Mdit_D32.dll
 0001:00034c1c       ?OnEBoxRButtonUp_SOL@CSolMdit@@QAEXPAVCClientDC@@PAVCView@@W4GENERATE@@IVCPoint@@@Z 00435c1c f   Mdit_D32:Mdit_D32.dll
 0001:00034c22       ?OnEBoxRButtonUp_PAT@CPatMdit@@QAEXPAVCClientDC@@PAVCView@@W4GENERATE@@IVCPoint@@@Z 00435c22 f   Mdit_D32:Mdit_D32.dll
 0001:00034c28       ?OnEBoxRButtonUp_CUR@CCurMdit@@QAEXPAVCClientDC@@PAVCView@@W4GENERATE@@IVCPoint@@@Z 00435c28 f   Mdit_D32:Mdit_D32.dll
 0001:00034c2e       ?OnEBoxRButtonUp_NOD@CNodMdit@@QAEXPAVCClientDC@@PAVCView@@W4GENERATE@@IVCPoint@@@Z 00435c2e f   Mdit_D32:Mdit_D32.dll
 0001:00034c34       ??1CDeckMgr@@UAE@XZ        00435c34 f   Deck_D32:Deck_D32.dll
 0001:00034c3a       ??0CDeckMgr@@QAE@XZ        00435c3a f   Deck_D32:Deck_D32.dll
 0001:00034c40       ?UpdateDeckList@CDeckMgr@@QAEXXZ 00435c40 f   Deck_D32:Deck_D32.dll
 0001:00034c46       _InitDeckDLL@0             00435c46 f   Deck_D32:Deck_D32.dll
 0001:00034c4c       ??0CAxisDraw@@QAE@XZ       00435c4c f   View_D32:View_D32.dll
 0001:00034c52       ??1CAxWire_0@@UAE@XZ       00435c52 f   View_D32:View_D32.dll
 0001:00034c58       ?RenderReadyOBJECT@CAxWire_0@@UAEXPAVCDC@@PAVCDrObject@@H@Z 00435c58 f   View_D32:View_D32.dll
 0001:00034c5e       ?Init@CAxWire_0@@UAEHHHUWORLD@@PAUMATRIX@@11NNNN@Z 00435c5e f   View_D32:View_D32.dll
 0001:00034c64       ??0CAxWire_0@@QAE@PAVCView@@HQAH@Z 00435c64 f   View_D32:View_D32.dll
 0001:00034c6a       ?RenderScene_AUXILLIARY@CAxWire_0@@UAEHPAVCClientDC@@AAVCRect@@HHH@Z 00435c6a f   View_D32:View_D32.dll
 0001:00034c70       ?OnCancel@CViewInfo@@MAEXXZ 00435c70 f   View_D32:View_D32.dll
 0001:00034c76       ?OnOK@CViewInfo@@MAEXXZ    00435c76 f   View_D32:View_D32.dll
 0001:00034c7c       ?OnInitDialog@CViewInfo@@MAEHXZ 00435c7c f   View_D32:View_D32.dll
 0001:00034c82       ?DoDataExchange@CViewInfo@@MAEXPAVCDataExchange@@@Z 00435c82 f   View_D32:View_D32.dll
 0001:00034c88       ?GetMessageMap@CViewInfo@@MBEPBUAFX_MSGMAP@@XZ 00435c88 f   View_D32:View_D32.dll
 0001:00034c8e       ??0CViewInfo@@QAE@PAVCView@@@Z 00435c8e f   View_D32:View_D32.dll
 0001:00034c94       ??1CWire_1@@UAE@XZ         00435c94 f   View_D32:View_D32.dll
 0001:00034c9a       ?RenderReadyOBJECT@CWire_1@@UAEXPAVCDC@@PAVCDrObject@@H@Z 00435c9a f   View_D32:View_D32.dll
 0001:00034ca0       ?Init@CWire_1@@UAEHHHUWORLD@@PAUMATRIX@@11NNNN@Z 00435ca0 f   View_D32:View_D32.dll
 0001:00034ca6       ??0CWire_1@@QAE@PAVCDrawView@@W4RENDITION@@HQAH22@Z 00435ca6 f   View_D32:View_D32.dll
 0001:00034cac       ??1CWire_0@@UAE@XZ         00435cac f   View_D32:View_D32.dll
 0001:00034cb2       ?RenderReadyOBJECT@CWire_0@@QAEXPAVCDC@@PAVCDrObject@@H@Z 00435cb2 f   View_D32:View_D32.dll
 0001:00034cb8       ?Init@CWire_0@@QAEHHHUWORLD@@PAUMATRIX@@11NNNN@Z 00435cb8 f   View_D32:View_D32.dll
 0001:00034cbe       ??0CWire_0@@QAE@PAVCDrawView@@W4RENDITION@@HQAH22@Z 00435cbe f   View_D32:View_D32.dll
 0001:00034cc4       ??1CWire_2@@UAE@XZ         00435cc4 f   View_D32:View_D32.dll
 0001:00034cca       ?RenderSCENE@CWire_2@@UAEHPAVCClientDC@@AAVCRect@@HHH@Z 00435cca f   View_D32:View_D32.dll
 0001:00034cd0       ?RenderReadySCENE@CWire_2@@UAEXPAVCDC@@@Z 00435cd0 f   View_D32:View_D32.dll
 0001:00034cd6       ?Init@CWire_2@@UAEHHHUWORLD@@PAUMATRIX@@11NNNNPAVCDListMgr@@@Z 00435cd6 f   View_D32:View_D32.dll
 0001:00034cdc       ??0CWire_2@@QAE@PAVCDrawView@@W4RENDITION@@HQAH22@Z 00435cdc f   View_D32:View_D32.dll
 0001:00034ce2       ?RenderSCENE@CWire_1@@UAEHPAVCClientDC@@AAVCRect@@HHH@Z 00435ce2 f   View_D32:View_D32.dll
 0001:00034ce8       ?RenderScene_MESH@CWire_0@@QAEHPAVCClientDC@@AAVCRect@@HHH@Z 00435ce8 f   View_D32:View_D32.dll
 0001:00034cee       ?RenderScene_GENERATOR@CWire_0@@QAEHPAVCClientDC@@AAVCRect@@HHH@Z 00435cee f   View_D32:View_D32.dll
 0001:00034cf4       ?Create@CViewInfo@@QAEHXZ  00435cf4 f   View_D32:View_D32.dll
 0001:00034cfa       _InitViewDLL@0             00435cfa f   View_D32:View_D32.dll
 0001:00034d00       _InitAuxiDLL@0             00435d00 f   Auxi_D32:Auxi_D32.dll
 0001:00034d06       ??1CDbObjMgr@@UAE@XZ       00435d06 f   DBase_D32:DBase_D32.dll
 0001:00034d0c       ??0CDbObjMgr@@QAE@XZ       00435d0c f   DBase_D32:DBase_D32.dll
 0001:00034d12       _InitDBaseDLL@0            00435d12 f   DBase_D32:DBase_D32.dll
 0001:00034d18       ?classCDrTreeVu@CDrTreeVu@@2UCRuntimeClass@@B 00435d18 f   DBase_D32:DBase_D32.dll
 0001:00034d1e       ??3CObject@@SGXPAX@Z       00435d1e f   mfc42d:MFC42D.DLL
 0001:00034d24       ??2CObject@@SGPAXI@Z       00435d24 f   mfc42d:MFC42D.DLL
 0001:00034d2a       ?OnEndPrintPreview@CView@@MAEXPAVCDC@@PAUCPrintInfo@@UtagPOINT@@PAVCPreviewView@@@Z 00435d2a f   mfc42d:MFC42D.DLL
 0001:00034d30       ?OnPrint@CView@@MAEXPAVCDC@@PAUCPrintInfo@@@Z 00435d30 f   mfc42d:MFC42D.DLL
 0001:00034d36       ?OnActivateFrame@CView@@MAEXIPAVCFrameWnd@@@Z 00435d36 f   mfc42d:MFC42D.DLL
 0001:00034d3c       ?OnActivateView@CView@@MAEXHPAV1@0@Z 00435d3c f   mfc42d:MFC42D.DLL
 0001:00034d42       ?OnDragScroll@CView@@UAEKKVCPoint@@@Z 00435d42 f   mfc42d:MFC42D.DLL
 0001:00034d48       ?OnDropEx@CView@@UAEKPAVCOleDataObject@@KKVCPoint@@@Z 00435d48 f   mfc42d:MFC42D.DLL
 0001:00034d4e       ?OnDrop@CView@@UAEHPAVCOleDataObject@@KVCPoint@@@Z 00435d4e f   mfc42d:MFC42D.DLL
 0001:00034d54       ?OnDragLeave@CView@@UAEXXZ 00435d54 f   mfc42d:MFC42D.DLL
 0001:00034d5a       ?OnDragOver@CView@@UAEKPAVCOleDataObject@@KVCPoint@@@Z 00435d5a f   mfc42d:MFC42D.DLL
 0001:00034d60       ?OnDragEnter@CView@@UAEKPAVCOleDataObject@@KVCPoint@@@Z 00435d60 f   mfc42d:MFC42D.DLL
 0001:00034d66       ?OnScrollBy@CScrollView@@UAEHVCSize@@H@Z 00435d66 f   mfc42d:MFC42D.DLL
 0001:00034d6c       ?OnScroll@CScrollView@@UAEHIIH@Z 00435d6c f   mfc42d:MFC42D.DLL
 0001:00034d72       ?SetOccDialogInfo@CWnd@@MAEHPAU_AFX_OCC_DIALOG_INFO@@@Z 00435d72 f   mfc42d:MFC42D.DLL
 0001:00034d78       ?IsFrameWnd@CWnd@@UBEHXZ   00435d78 f   mfc42d:MFC42D.DLL
 0001:00034d7e       ?CheckAutoCenter@CWnd@@UAEHXZ 00435d7e f   mfc42d:MFC42D.DLL
 0001:00034d84       ?OnChildNotify@CWnd@@MAEHIIJPAJ@Z 00435d84 f   mfc42d:MFC42D.DLL
 0001:00034d8a       ?PostNcDestroy@CView@@MAEXXZ 00435d8a f   mfc42d:MFC42D.DLL
 0001:00034d90       ?DefWindowProcA@CWnd@@MAEJIIJ@Z 00435d90 f   mfc42d:MFC42D.DLL
 0001:00034d96       ?OnWndMsg@CWnd@@MAEHIIJPAJ@Z 00435d96 f   mfc42d:MFC42D.DLL
 0001:00034d9c       ?WindowProc@CWnd@@MAEJIIJ@Z 00435d9c f   mfc42d:MFC42D.DLL
 0001:00034da2       ?OnAmbientProperty@CWnd@@UAEHPAVCOleControlSite@@JPAUtagVARIANT@@@Z 00435da2 f   mfc42d:MFC42D.DLL
 0001:00034da8       ?PreTranslateMessage@CWnd@@UAEHPAUtagMSG@@@Z 00435da8 f   mfc42d:MFC42D.DLL
 0001:00034dae       ?EndModalState@CWnd@@UAEXXZ 00435dae f   mfc42d:MFC42D.DLL
 0001:00034db4       ?BeginModalState@CWnd@@UAEXXZ 00435db4 f   mfc42d:MFC42D.DLL
 0001:00034dba       ?DoDataExchange@CWnd@@MAEXPAVCDataExchange@@@Z 00435dba f   mfc42d:MFC42D.DLL
 0001:00034dc0       ?GetSuperWndProcAddr@CWnd@@MAEPAP6GJPAUHWND__@@IIJ@ZXZ 00435dc0 f   mfc42d:MFC42D.DLL
 0001:00034dc6       ?OnNotify@CWnd@@MAEHIJPAJ@Z 00435dc6 f   mfc42d:MFC42D.DLL
 0001:00034dcc       ?OnCommand@CWnd@@MAEHIJ@Z  00435dcc f   mfc42d:MFC42D.DLL
 0001:00034dd2       ?EndModalLoop@CWnd@@UAEXH@Z 00435dd2 f   mfc42d:MFC42D.DLL
 0001:00034dd8       ?ContinueModal@CWnd@@UAEHXZ 00435dd8 f   mfc42d:MFC42D.DLL
 0001:00034dde       ?WinHelpA@CWnd@@UAEXKI@Z   00435dde f   mfc42d:MFC42D.DLL
 0001:00034de4       ?GetScrollBarCtrl@CView@@UBEPAVCScrollBar@@H@Z 00435de4 f   mfc42d:MFC42D.DLL
 0001:00034dea       ?OnToolHitTest@CWnd@@UBEHVCPoint@@PAUtagTOOLINFOA@@@Z 00435dea f   mfc42d:MFC42D.DLL
 0001:00034df0       ?CalcWindowRect@CScrollView@@UAEXPAUtagRECT@@I@Z 00435df0 f   mfc42d:MFC42D.DLL
 0001:00034df6       ?DestroyWindow@CWnd@@UAEHXZ 00435df6 f   mfc42d:MFC42D.DLL
 0001:00034dfc       ?Create@CWnd@@UAEHPBD0KABUtagRECT@@PAV1@IPAUCCreateContext@@@Z 00435dfc f   mfc42d:MFC42D.DLL
 0001:00034e02       ?PreSubclassWindow@CWnd@@UAEXXZ 00435e02 f   mfc42d:MFC42D.DLL
 0001:00034e08       ?GetConnectionHook@CCmdTarget@@MAEPAUIConnectionPoint@@ABU_GUID@@@Z 00435e08 f   mfc42d:MFC42D.DLL
 0001:00034e0e       ?GetExtraConnectionPoints@CCmdTarget@@MAEHPAVCPtrArray@@@Z 00435e0e f   mfc42d:MFC42D.DLL
 0001:00034e14       ?GetInterfaceHook@CCmdTarget@@UAEPAUIUnknown@@PBX@Z 00435e14 f   mfc42d:MFC42D.DLL
 0001:00034e1a       ?OnCreateAggregates@CCmdTarget@@UAEHXZ 00435e1a f   mfc42d:MFC42D.DLL
 0001:00034e20       ?GetEventSinkMap@CCmdTarget@@MBEPBUAFX_EVENTSINKMAP@@XZ 00435e20 f   mfc42d:MFC42D.DLL
 0001:00034e26       ?GetInterfaceMap@CCmdTarget@@MBEPBUAFX_INTERFACEMAP@@XZ 00435e26 f   mfc42d:MFC42D.DLL
 0001:00034e2c       ?GetConnectionMap@CCmdTarget@@MBEPBUAFX_CONNECTIONMAP@@XZ 00435e2c f   mfc42d:MFC42D.DLL
 0001:00034e32       ?GetDispatchMap@CCmdTarget@@MBEPBUAFX_DISPMAP@@XZ 00435e32 f   mfc42d:MFC42D.DLL
 0001:00034e38       ?GetCommandMap@CCmdTarget@@MBEPBUAFX_OLECMDMAP@@XZ 00435e38 f   mfc42d:MFC42D.DLL
 0001:00034e3e       ?GetTypeLib@CCmdTarget@@UAEJKPAPAUITypeLib@@@Z 00435e3e f   mfc42d:MFC42D.DLL
 0001:00034e44       ?GetTypeLibCache@CCmdTarget@@UAEPAVCTypeLibCache@@XZ 00435e44 f   mfc42d:MFC42D.DLL
 0001:00034e4a       ?GetTypeInfoCount@CCmdTarget@@UAEIXZ 00435e4a f   mfc42d:MFC42D.DLL
 0001:00034e50       ?GetDispatchIID@CCmdTarget@@UAEHPAU_GUID@@@Z 00435e50 f   mfc42d:MFC42D.DLL
 0001:00034e56       ?IsInvokeAllowed@CCmdTarget@@UAEHJ@Z 00435e56 f   mfc42d:MFC42D.DLL
 0001:00034e5c       ?OnFinalRelease@CWnd@@UAEXXZ 00435e5c f   mfc42d:MFC42D.DLL
 0001:00034e62       ?OnCmdMsg@CView@@UAEHIHPAXPAUAFX_CMDHANDLERINFO@@@Z 00435e62 f   mfc42d:MFC42D.DLL
 0001:00034e68       ?Serialize@CObject@@UAEXAAVCArchive@@@Z 00435e68 f   mfc42d:MFC42D.DLL
 0001:00034e6e       ?OnInitialUpdate@CView@@UAEXXZ 00435e6e f   mfc42d:MFC42D.DLL
 0001:00034e74       ?Invalidate@CWnd@@QAEXH@Z  00435e74 f   mfc42d:MFC42D.DLL
 0001:00034e7a       ??BCRect@@QAEPAUtagRECT@@XZ 00435e7a f   mfc42d:MFC42D.DLL
 0001:00034e80       ??0CRect@@QAE@HHHH@Z       00435e80 f   mfc42d:MFC42D.DLL
 0001:00034e86       ?AfxAssertValidObject@@YGXPBVCObject@@PBDH@Z 00435e86 f   mfc42d:MFC42D.DLL
 0001:00034e8c       ?DoPreparePrinting@CView@@QAEHPAUCPrintInfo@@@Z 00435e8c f   mfc42d:MFC42D.DLL
 0001:00034e92       ?EndWaitCursor@CCmdTarget@@QAEXXZ 00435e92 f   mfc42d:MFC42D.DLL
 0001:00034e98       ?AfxMessageBox@@YGHIII@Z   00435e98 f   mfc42d:MFC42D.DLL
 0001:00034e9e       ?AfxAssertFailedLine@@YGHPBDH@Z 00435e9e f   mfc42d:MFC42D.DLL
 0001:00034ea4       ?IsKindOf@CObject@@QBEHPBUCRuntimeClass@@@Z 00435ea4 f   mfc42d:MFC42D.DLL
 0001:00034eaa       ?UpdateAllViews@CDocument@@QAEXPAVCView@@JPAVCObject@@@Z 00435eaa f   mfc42d:MFC42D.DLL
 0001:00034eb0       ?AfxThrowMemoryException@@YGXXZ 00435eb0 f   mfc42d:MFC42D.DLL
 0001:00034eb6       ??0AFX_EXCEPTION_LINK@@QAE@XZ 00435eb6 f   mfc42d:MFC42D.DLL
 0001:00034ebc       ?BeginWaitCursor@CCmdTarget@@QAEXXZ 00435ebc f   mfc42d:MFC42D.DLL
 0001:00034ec2       ?AfxTryCleanup@@YGXXZ      00435ec2 f   mfc42d:MFC42D.DLL
 0001:00034ec8       ?OnSetFocus@CWnd@@IAEXPAV1@@Z 00435ec8 f   mfc42d:MFC42D.DLL
 0001:00034ece       ?AfxGetApp@@YGPAVCWinApp@@XZ 00435ece f   mfc42d:MFC42D.DLL
 0001:00034ed4       ?SetFocus@CWnd@@QAEPAV1@XZ 00435ed4 f   mfc42d:MFC42D.DLL
 0001:00034eda       ?AssertValid@CScrollView@@UBEXXZ 00435eda f   mfc42d:MFC42D.DLL
 0001:00034ee0       ?Dump@CScrollView@@UBEXAAVCDumpContext@@@Z 00435ee0 f   mfc42d:MFC42D.DLL
 0001:00034ee6       ?SetCapture@CWnd@@QAEPAV1@XZ 00435ee6 f   mfc42d:MFC42D.DLL
 0001:00034eec       ?AfxGetMainWnd@@YGPAVCWnd@@XZ 00435eec f   mfc42d:MFC42D.DLL
 0001:00034ef2       ?OnDrawItem@CWnd@@IAEXHPAUtagDRAWITEMSTRUCT@@@Z 00435ef2 f   mfc42d:MFC42D.DLL
 0001:00034ef8       ?PreInitDialog@CDialog@@MAEXXZ 00435ef8 f   mfc42d:MFC42D.DLL
 0001:00034efe       ?OnCancel@CDialog@@MAEXXZ  00435efe f   mfc42d:MFC42D.DLL
 0001:00034f04       ?OnOK@CDialog@@MAEXXZ      00435f04 f   mfc42d:MFC42D.DLL
 0001:00034f0a       ?OnSetFont@CDialog@@UAEXPAVCFont@@@Z 00435f0a f   mfc42d:MFC42D.DLL
 0001:00034f10       ?DoModal@CDialog@@UAEHXZ   00435f10 f   mfc42d:MFC42D.DLL
 0001:00034f16       ?SetOccDialogInfo@CDialog@@MAEHPAU_AFX_OCC_DIALOG_INFO@@@Z 00435f16 f   mfc42d:MFC42D.DLL
 0001:00034f1c       ?CheckAutoCenter@CDialog@@UAEHXZ 00435f1c f   mfc42d:MFC42D.DLL
 0001:00034f22       ?PostNcDestroy@CWnd@@MAEXXZ 00435f22 f   mfc42d:MFC42D.DLL
 0001:00034f28       ?PreTranslateMessage@CDialog@@UAEHPAUtagMSG@@@Z 00435f28 f   mfc42d:MFC42D.DLL
 0001:00034f2e       ?GetScrollBarCtrl@CWnd@@UBEPAVCScrollBar@@H@Z 00435f2e f   mfc42d:MFC42D.DLL
 0001:00034f34       ?CalcWindowRect@CWnd@@UAEXPAUtagRECT@@I@Z 00435f34 f   mfc42d:MFC42D.DLL
 0001:00034f3a       ?PreCreateWindow@CWnd@@UAEHAAUtagCREATESTRUCTA@@@Z 00435f3a f   mfc42d:MFC42D.DLL
 0001:00034f40       ?OnCmdMsg@CDialog@@UAEHIHPAXPAUAFX_CMDHANDLERINFO@@@Z 00435f40 f   mfc42d:MFC42D.DLL
 0001:00034f46       ?Dump@CDialog@@UBEXAAVCDumpContext@@@Z 00435f46 f   mfc42d:MFC42D.DLL
 0001:00034f4c       ?AssertValid@CDialog@@UBEXXZ 00435f4c f   mfc42d:MFC42D.DLL
 0001:00034f52       ?GetRuntimeClass@CDialog@@UBEPAUCRuntimeClass@@XZ 00435f52 f   mfc42d:MFC42D.DLL
 0001:00034f58       ??1CDialog@@UAE@XZ         00435f58 f   mfc42d:MFC42D.DLL
 0001:00034f5e       ?LoadBitmaps@CBitmapButton@@QAEHPBD000@Z 00435f5e f   mfc42d:MFC42D.DLL
 0001:00034f64       ??0CBitmapButton@@QAE@XZ   00435f64 f   mfc42d:MFC42D.DLL
 0001:00034f6a       ??0CDialog@@QAE@IPAVCWnd@@@Z 00435f6a f   mfc42d:MFC42D.DLL
 0001:00034f70       ??1CButton@@UAE@XZ         00435f70 f   mfc42d:MFC42D.DLL
 0001:00034f76       ??1CBitmap@@UAE@XZ         00435f76 f   mfc42d:MFC42D.DLL
 0001:00034f7c       ?OnChildNotify@CButton@@MAEHIIJPAJ@Z 00435f7c f   mfc42d:MFC42D.DLL
 0001:00034f82       ?OnCmdMsg@CCmdTarget@@UAEHIHPAXPAUAFX_CMDHANDLERINFO@@@Z 00435f82 f   mfc42d:MFC42D.DLL
 0001:00034f88       ?Dump@CWnd@@UBEXAAVCDumpContext@@@Z 00435f88 f   mfc42d:MFC42D.DLL
 0001:00034f8e       ?AssertValid@CWnd@@UBEXXZ  00435f8e f   mfc42d:MFC42D.DLL
 0001:00034f94       ?GetRuntimeClass@CButton@@UBEPAUCRuntimeClass@@XZ 00435f94 f   mfc42d:MFC42D.DLL
 0001:00034f9a       ??0CButton@@QAE@XZ         00435f9a f   mfc42d:MFC42D.DLL
 0001:00034fa0       ??1CString@@QAE@XZ         00435fa0 f   mfc42d:MFC42D.DLL
 0001:00034fa6       ?SetDlgItemTextA@CWnd@@QAEXHPBD@Z 00435fa6 f   mfc42d:MFC42D.DLL
 0001:00034fac       ?ReleaseBuffer@CString@@QAEXH@Z 00435fac f   mfc42d:MFC42D.DLL
 0001:00034fb2       ?GetBuffer@CString@@QAEPADH@Z 00435fb2 f   mfc42d:MFC42D.DLL
 0001:00034fb8       ??BCString@@QBEPBDXZ       00435fb8 f   mfc42d:MFC42D.DLL
 0001:00034fbe       ?LoadStringA@CString@@QAEHI@Z 00435fbe f   mfc42d:MFC42D.DLL
 0001:00034fc4       ??0CString@@QAE@XZ         00435fc4 f   mfc42d:MFC42D.DLL
 0001:00034fca       ?SizeToContent@CBitmapButton@@QAEXXZ 00435fca f   mfc42d:MFC42D.DLL
 0001:00034fd0       ?SubclassDlgItem@CWnd@@QAEHIPAV1@@Z 00435fd0 f   mfc42d:MFC42D.DLL
 0001:00034fd6       ?OnInitDialog@CDialog@@UAEHXZ 00435fd6 f   mfc42d:MFC42D.DLL
 0001:00034fdc       ?AfxTrace@@YAXPBDZZ        00435fdc f   mfc42d:MFC42D.DLL
 0001:00034fe2       ?Create@CDialog@@QAEHIPAVCWnd@@@Z 00435fe2 f   mfc42d:MFC42D.DLL
 0001:00034fe8       ?CenterWindow@CWnd@@QAEXPAV1@@Z 00435fe8 f   mfc42d:MFC42D.DLL
 0001:00034fee       ?SetWindowPos@CWnd@@QAEHPBV1@HHHHI@Z 00435fee f   mfc42d:MFC42D.DLL
 0001:00034ff4       ??1CPen@@UAE@XZ            00435ff4 f   mfc42d:MFC42D.DLL
 0001:00034ffa       ??1CBrush@@UAE@XZ          00435ffa f   mfc42d:MFC42D.DLL
 0001:00035000       ?FillRect@CDC@@QAEXPBUtagRECT@@PAVCBrush@@@Z 00436000 f   mfc42d:MFC42D.DLL
 0001:00035006       ?SetRect@CRect@@QAEXHHHH@Z 00436006 f   mfc42d:MFC42D.DLL
 0001:0003500c       ??0CBrush@@QAE@XZ          0043600c f   mfc42d:MFC42D.DLL
 0001:00035012       ?Rectangle@CDC@@QAEHHHHH@Z 00436012 f   mfc42d:MFC42D.DLL
 0001:00035018       ?SelectObject@CDC@@QAEPAVCPen@@PAV2@@Z 00436018 f   mfc42d:MFC42D.DLL
 0001:0003501e       ?CreateStockObject@CGdiObject@@QAEHH@Z 0043601e f   mfc42d:MFC42D.DLL
 0001:00035024       ??0CPen@@QAE@XZ            00436024 f   mfc42d:MFC42D.DLL
 0001:0003502a       ?DrawIcon@CDC@@QAEHHHPAUHICON__@@@Z 0043602a f   mfc42d:MFC42D.DLL
 0001:00035030       ?StretchBlt@CDC@@QAEHHHHHPAV1@HHHHK@Z 00436030 f   mfc42d:MFC42D.DLL
 0001:00035036       ?SelectObject@CDC@@QAEPAVCBitmap@@PAV2@@Z 00436036 f   mfc42d:MFC42D.DLL
 0001:0003503c       ??1CDC@@UAE@XZ             0043603c f   mfc42d:MFC42D.DLL
 0001:00035042       ?CreateCompatibleDC@CDC@@QAEHPAV1@@Z 00436042 f   mfc42d:MFC42D.DLL
 0001:00035048       ??0CDC@@QAE@XZ             00436048 f   mfc42d:MFC42D.DLL
 0001:0003504e       ?CreateCompatibleBitmap@CBitmap@@QAEHPAVCDC@@HH@Z 0043604e f   mfc42d:MFC42D.DLL
 0001:00035054       ??0CBitmap@@QAE@XZ         00436054 f   mfc42d:MFC42D.DLL
 0001:0003505a       ?LoadIconA@CWinApp@@QBEPAUHICON__@@I@Z 0043605a f   mfc42d:MFC42D.DLL
 0001:00035060       ?Height@CRect@@QBEHXZ      00436060 f   mfc42d:MFC42D.DLL
 0001:00035066       ?Width@CRect@@QBEHXZ       00436066 f   mfc42d:MFC42D.DLL
 0001:0003506c       ?GetClientRect@CWnd@@QBEXPAUtagRECT@@@Z 0043606c f   mfc42d:MFC42D.DLL
 0001:00035072       ??0CRect@@QAE@XZ           00436072 f   mfc42d:MFC42D.DLL
 0001:00035078       ?FromHandle@CDC@@SGPAV1@PAUHDC__@@@Z 00436078 f   mfc42d:MFC42D.DLL
 0001:0003507e       ?AfxClassInit@@YGXPAUCRuntimeClass@@@Z 0043607e f   mfc42d:MFC42D.DLL
 0001:00035084       ?ReadObject@CArchive@@QAEPAVCObject@@PBUCRuntimeClass@@@Z 00436084 f   mfc42d:MFC42D.DLL
 0001:0003508a       ?Dump@CObject@@UBEXAAVCDumpContext@@@Z 0043608a f   mfc42d:MFC42D.DLL
 0001:00035090       ?AssertValid@CObject@@UBEXXZ 00436090 f   mfc42d:MFC42D.DLL
 0001:00035096       ??0CObject@@IAE@XZ         00436096 f   mfc42d:MFC42D.DLL
 0001:0003509c       ??1CObject@@UAE@XZ         0043609c f   mfc42d:MFC42D.DLL
 0001:000350a2       ?AfxSetResourceHandle@@YGXPAUHINSTANCE__@@@Z 004360a2 f   mfc42d:MFC42D.DLL
 0001:000350a8       ?AfxGetResourceHandle@@YGPAUHINSTANCE__@@XZ 004360a8 f   mfc42d:MFC42D.DLL
 0001:000350ae       ?AddString@CListBox@@QAEHPBD@Z 004360ae f   mfc42d:MFC42D.DLL
 0001:000350b4       ?GetDlgItem@CWnd@@QBEPAV1@H@Z 004360b4 f   mfc42d:MFC42D.DLL
 0001:000350ba       ?IsStoring@CArchive@@QBEHXZ 004360ba f   mfc42d:MFC42D.DLL
 0001:000350c0       ?OnLButtonDblClk@CWnd@@IAEXIVCPoint@@@Z 004360c0 f   mfc42d:MFC42D.DLL
 0001:000350c6       ?OnEndPrinting@CView@@MAEXPAVCDC@@PAUCPrintInfo@@@Z 004360c6 f   mfc42d:MFC42D.DLL
 0001:000350cc       ?IsSelected@CView@@UBEHPBVCObject@@@Z 004360cc f   mfc42d:MFC42D.DLL
 0001:000350d2       ?PreCreateWindow@CView@@MAEHAAUtagCREATESTRUCTA@@@Z 004360d2 f   mfc42d:MFC42D.DLL
 0001:000350d8       ??1CFont@@UAE@XZ           004360d8 f   mfc42d:MFC42D.DLL
 0001:000350de       ?GetTextMetricsA@CDC@@QBEHPAUtagTEXTMETRICA@@@Z 004360de f   mfc42d:MFC42D.DLL
 0001:000350e4       ?CreateFontIndirectA@CFont@@QAEHPBUtagLOGFONTA@@@Z 004360e4 f   mfc42d:MFC42D.DLL
 0001:000350ea       ?DeleteObject@CGdiObject@@QAEHXZ 004360ea f   mfc42d:MFC42D.DLL
 0001:000350f0       ??0CFont@@QAE@XZ           004360f0 f   mfc42d:MFC42D.DLL
 0001:000350f6       ?CreateSolidBrush@CBrush@@QAEHK@Z 004360f6 f   mfc42d:MFC42D.DLL
 0001:000350fc       ?IsPrinting@CDC@@QBEHXZ    004360fc f   mfc42d:MFC42D.DLL
 0001:00035102       ??1CClientDC@@UAE@XZ       00436102 f   mfc42d:MFC42D.DLL
 0001:00035108       ??0CRect@@QAE@UtagPOINT@@UtagSIZE@@@Z 00436108 f   mfc42d:MFC42D.DLL
 0001:0003510e       ??0CSize@@QAE@HH@Z         0043610e f   mfc42d:MFC42D.DLL
 0001:00035114       ?DPtoLP@CDC@@QBEXPAUtagPOINT@@H@Z 00436114 f   mfc42d:MFC42D.DLL
 0001:0003511a       ??0CClientDC@@QAE@PAVCWnd@@@Z 0043611a f   mfc42d:MFC42D.DLL
 0001:00035120       ?OnFilePrintPreview@CView@@IAEXXZ 00436120 f   mfc42d:MFC42D.DLL
 0001:00035126       ?OnFilePrint@CView@@IAEXXZ 00436126 f   mfc42d:MFC42D.DLL
 0001:0003512c       ?OnMouseActivate@CView@@IAEHPAVCWnd@@II@Z 0043612c f   mfc42d:MFC42D.DLL
 0001:00035132       ?OnBeginPrinting@CView@@MAEXPAVCDC@@PAUCPrintInfo@@@Z 00436132 f   mfc42d:MFC42D.DLL
 0001:00035138       ?OnPreparePrinting@CView@@MAEHPAUCPrintInfo@@@Z 00436138 f   mfc42d:MFC42D.DLL
 0001:0003513e       ?OnUpdate@CView@@MAEXPAV1@JPAVCObject@@@Z 0043613e f   mfc42d:MFC42D.DLL
 0001:00035144       ??1CScrollView@@UAE@XZ     00436144 f   mfc42d:MFC42D.DLL
 0001:0003514a       ??0CSize@@QAE@XZ           0043614a f   mfc42d:MFC42D.DLL
 0001:00035150       ??0CScrollView@@IAE@XZ     00436150 f   mfc42d:MFC42D.DLL
 0001:00035156       ??1CWnd@@UAE@XZ            00436156 f   mfc42d:MFC42D.DLL
 0001:0003515c       ??4CString@@QAEABV0@PBD@Z  0043615c f   mfc42d:MFC42D.DLL
 0001:00035162       ?AfxRegisterWndClass@@YGPBDIPAUHICON__@@PAUHBRUSH__@@0@Z 00436162 f   mfc42d:MFC42D.DLL
 0001:00035168       ?SetWindowOrg@CDC@@QAE?AVCPoint@@UtagPOINT@@@Z 00436168 f   mfc42d:MFC42D.DLL
 0001:0003516e       ?GetDocument@CView@@QBEPAVCDocument@@XZ 0043616e f   mfc42d:MFC42D.DLL
 0001:00035174       ?OnPrepareDC@CScrollView@@UAEXPAVCDC@@PAUCPrintInfo@@@Z 00436174 f   mfc42d:MFC42D.DLL
 0001:0003517a       ?ClientToScreen@CWnd@@QBEXPAUtagPOINT@@@Z 0043617a f   mfc42d:MFC42D.DLL
 0001:00035180       ??0CPoint@@QAE@XZ          00436180 f   mfc42d:MFC42D.DLL
 0001:00035186       ?NormalizeRect@CRect@@QAEXXZ 00436186 f   mfc42d:MFC42D.DLL
 0001:0003518c       ?DPtoLP@CDC@@QBEXPAUtagRECT@@@Z 0043618c f   mfc42d:MFC42D.DLL
 0001:00035192       ?ScrollToDevicePosition@CScrollView@@IAEXUtagPOINT@@@Z 00436192 f   mfc42d:MFC42D.DLL
 0001:00035198       ?LPtoDP@CDC@@QBEXPAUtagPOINT@@H@Z 00436198 f   mfc42d:MFC42D.DLL
 0001:0003519e       ?SetScrollSizes@CScrollView@@QAEXHUtagSIZE@@ABU2@1@Z 0043619e f   mfc42d:MFC42D.DLL
 0001:000351a4       ?InvalidateRect@CWnd@@QAEXPBUtagRECT@@H@Z 004361a4 f   mfc42d:MFC42D.DLL
 0001:000351aa       ??0CPoint@@QAE@HH@Z        004361aa f   mfc42d:MFC42D.DLL
 0001:000351b0       ?GetDeviceScrollPosition@CScrollView@@QBE?AVCPoint@@XZ 004361b0 f   mfc42d:MFC42D.DLL
 0001:000351b6       ?LPtoDP@CDC@@QBEXPAUtagRECT@@@Z 004361b6 f   mfc42d:MFC42D.DLL
 0001:000351bc       ?SelectObject@CDC@@QAEPAVCBrush@@PAV2@@Z 004361bc f   mfc42d:MFC42D.DLL
 0001:000351c2       ?LineTo@CDC@@QAEHHH@Z      004361c2 f   mfc42d:MFC42D.DLL
 0001:000351c8       ?MoveTo@CDC@@QAE?AVCPoint@@HH@Z 004361c8 f   mfc42d:MFC42D.DLL
 0001:000351ce       ?CreatePen@CPen@@QAEHHHK@Z 004361ce f   mfc42d:MFC42D.DLL
 0001:000351d4       ?TextOutA@CDC@@QAEHHHABVCString@@@Z 004361d4 f   mfc42d:MFC42D.DLL
 0001:000351da       ?ShowWindow@CWnd@@QAEHH@Z  004361da f   mfc42d:MFC42D.DLL
 0001:000351e0       ?OnKeyDown@CWnd@@IAEXIII@Z 004361e0 f   mfc42d:MFC42D.DLL
 0001:000351e6       ?OnVScroll@CScrollView@@QAEXIIPAVCScrollBar@@@Z 004361e6 f   mfc42d:MFC42D.DLL
 0001:000351ec       ?OnCreate@CView@@IAEHPAUtagCREATESTRUCTA@@@Z 004361ec f   mfc42d:MFC42D.DLL
 0001:000351f2       ?GetWindowRect@CWnd@@QBEXPAUtagRECT@@@Z 004361f2 f   mfc42d:MFC42D.DLL
 0001:000351f8       ??0CWnd@@QAE@XZ            004361f8 f   mfc42d:MFC42D.DLL
 0001:000351fe       ?GetStyle@CWnd@@QBEKXZ     004361fe f   mfc42d:MFC42D.DLL
 0001:00035204       ?OnKillFocus@CWnd@@IAEXPAV1@@Z 00436204 f   mfc42d:MFC42D.DLL
 0001:0003520a       ?OnEraseBkgnd@CWnd@@IAEHPAVCDC@@@Z 0043620a f   mfc42d:MFC42D.DLL
 0001:00035210       ?Rectangle@CDC@@QAEHPBUtagRECT@@@Z 00436210 f   mfc42d:MFC42D.DLL
 0001:00035216       ??0CBrush@@QAE@K@Z         00436216 f   mfc42d:MFC42D.DLL
 0001:0003521c       ??3@YAXPAXPBDH@Z           0043621c f   mfc42d:MFC42D.DLL
 0001:00035222       ?AfxMessageBox@@YGHPBDII@Z 00436222 f   mfc42d:MFC42D.DLL
 0001:00035228       ??2@YAPAXIPBDH@Z           00436228 f   mfc42d:MFC42D.DLL
 0001:0003522e       ?UpdateWindow@CWnd@@QAEXXZ 0043622e f   mfc42d:MFC42D.DLL
 0001:00035234       ?Abort@CFile@@UAEXXZ       00436234 f   mfc42d:MFC42D.DLL
 0001:0003523a       ??1CFile@@UAE@XZ           0043623a f   mfc42d:MFC42D.DLL
 0001:00035240       ??1CFileException@@UAE@XZ  00436240 f   mfc42d:MFC42D.DLL
 0001:00035246       ?Open@CFile@@UAEHPBDIPAVCFileException@@@Z 00436246 f   mfc42d:MFC42D.DLL
 0001:0003524c       ??0CFileException@@QAE@HJPBD@Z 0043624c f   mfc42d:MFC42D.DLL
 0001:00035252       ??0CFile@@QAE@XZ           00436252 f   mfc42d:MFC42D.DLL
 0001:00035258       ??0CPalette@@QAE@XZ        00436258 f   mfc42d:MFC42D.DLL
 0001:0003525e       ?GetDC@CWnd@@QAEPAVCDC@@XZ 0043625e f   mfc42d:MFC42D.DLL
 0001:00035264       ?GetRuntimeClass@CObject@@UBEPAUCRuntimeClass@@XZ 00436264 f   mfc42d:MFC42D.DLL
 0001:0003526a       ?CreateEx@CWnd@@QAEHKPBD0KHHHHPAUHWND__@@PAUHMENU__@@PAX@Z 0043626a f   mfc42d:MFC42D.DLL
 0001:00035270       ??0CString@@QAE@PBD@Z      00436270 f   mfc42d:MFC42D.DLL
 0001:00035276       ?SetPixel@CDC@@QAEKHHK@Z   00436276 f   mfc42d:MFC42D.DLL
 0001:0003527c       ?GetDeviceCaps@CDC@@QBEHH@Z 0043627c f   mfc42d:MFC42D.DLL
 0001:00035282       ??1CPaintDC@@UAE@XZ        00436282 f   mfc42d:MFC42D.DLL
 0001:00035288       ?RealizePalette@CDC@@QAEIXZ 00436288 f   mfc42d:MFC42D.DLL
 0001:0003528e       ?SelectPalette@CDC@@QAEPAVCPalette@@PAV2@H@Z 0043628e f   mfc42d:MFC42D.DLL
 0001:00035294       ??0CPaintDC@@QAE@PAVCWnd@@@Z 00436294 f   mfc42d:MFC42D.DLL
 0001:0003529a       ??4CString@@QAEABV0@ABV0@@Z 0043629a f   mfc42d:MFC42D.DLL
 0001:000352a0       ?GetProfileStringA@CWinApp@@QAE?AVCString@@PBD00@Z 004362a0 f   mfc42d:MFC42D.DLL
 0001:000352a6       ?GetProfileIntA@CWinApp@@QAEIPBD0H@Z 004362a6 f   mfc42d:MFC42D.DLL
 0001:000352ac       ?GetLocalTm@CTime@@QBEPAUtm@@PAU2@@Z 004362ac f   mfc42d:MFC42D.DLL
 0001:000352b2       ??0CTime@@QAE@J@Z          004362b2 f   mfc42d:MFC42D.DLL
 0001:000352b8       ??3CObject@@SGXPAXPBDH@Z   004362b8 f   mfc42d:MFC42D.DLL
 0001:000352be       ??2CObject@@SGPAXIPBDH@Z   004362be f   mfc42d:MFC42D.DLL
 0001:000352c4       ?GetMessageMap@CCmdTarget@@MBEPBUAFX_MSGMAP@@XZ 004362c4 f   mfc42d:MFC42D.DLL
 0001:000352ca       ?OnFinalRelease@CCmdTarget@@UAEXXZ 004362ca f   mfc42d:MFC42D.DLL
 0001:000352d0       ?OnPaint@CView@@IAEXXZ     004362d0 f   mfc42d:MFC42D.DLL
 0001:000352d6       ?SetBkMode@CDC@@QAEHH@Z    004362d6 f   mfc42d:MFC42D.DLL
 0001:000352dc       ?GetLogFont@CFont@@QAEHPAUtagLOGFONTA@@@Z 004362dc f   mfc42d:MFC42D.DLL
 0001:000352e2       ?GetTextExtent@CDC@@QBE?AVCSize@@PBDH@Z 004362e2 f   mfc42d:MFC42D.DLL
 0001:000352e8       ?GetLength@CString@@QBEHXZ 004362e8 f   mfc42d:MFC42D.DLL
 0001:000352ee       ?SetMaxPage@CPrintInfo@@QAEXI@Z 004362ee f   mfc42d:MFC42D.DLL
 0001:000352f4       ?GetMaxPage@CPrintInfo@@QBEIXZ 004362f4 f   mfc42d:MFC42D.DLL
 0001:000352fa       ??YCString@@QAEABV0@PBD@Z  004362fa f   mfc42d:MFC42D.DLL
 0001:00035300       ?AfxIsValidAddress@@YGHPBXIH@Z 00436300 f   mfc42d:MFC42D.DLL
 0001:00035306       ??0CDialog@@QAE@XZ         00436306 f   mfc42d:MFC42D.DLL
 0001:0003530c       ?DeleteString@CListBox@@QAEHI@Z 0043630c f   mfc42d:MFC42D.DLL
 0001:00035312       ?GetCount@CListBox@@QBEHXZ 00436312 f   mfc42d:MFC42D.DLL
 0001:00035318       ?DDX_Check@@YGXPAVCDataExchange@@HAAH@Z 00436318 f   mfc42d:MFC42D.DLL
 0001:0003531e       ?UpdateData@CWnd@@QAEHH@Z  0043631e f   mfc42d:MFC42D.DLL
 0001:00035324       ?DDV_MinMaxDouble@@YGXPAVCDataExchange@@ABNNN@Z 00436324 f   mfc42d:MFC42D.DLL
 0001:0003532a       ?DDX_Text@@YGXPAVCDataExchange@@HAAN@Z 0043632a f   mfc42d:MFC42D.DLL
 0001:00035330       ?RemoveAll@CObList@@QAEXXZ 00436330 f   mfc42d:MFC42D.DLL
 0001:00035336       ?IsEmpty@CObList@@QBEHXZ   00436336 f   mfc42d:MFC42D.DLL
 0001:0003533c       ?DPtoLP@CDC@@QBEXPAUtagSIZE@@@Z 0043633c f   mfc42d:MFC42D.DLL
 0001:00035342       ?GetDeviceScrollSizes@CScrollView@@QBEXAAHAAUtagSIZE@@11@Z 00436342 f   mfc42d:MFC42D.DLL
 0001:00035348       ?OnSize@CScrollView@@QAEXIHH@Z 00436348 f   mfc42d:MFC42D.DLL
 0001:0003534e       ?GetTotalSize@CScrollView@@QBE?AVCSize@@XZ 0043634e f   mfc42d:MFC42D.DLL
 0001:00035354       ?SetViewportOrg@CDC@@QAE?AVCPoint@@UtagPOINT@@@Z 00436354 f   mfc42d:MFC42D.DLL
 0001:0003535a       ?SetWindowOrg@CDC@@QAE?AVCPoint@@HH@Z 0043635a f   mfc42d:MFC42D.DLL
 0001:00035360       ?GetViewportOrg@CDC@@QBE?AVCPoint@@XZ 00436360 f   mfc42d:MFC42D.DLL
 0001:00035366       ?GetWindowOrg@CDC@@QBE?AVCPoint@@XZ 00436366 f   mfc42d:MFC42D.DLL
 0001:0003536c       ?GetMapMode@CDC@@QBEHXZ    0043636c f   mfc42d:MFC42D.DLL
 0001:00035372       ?DeflateRect@CRect@@QAEXHH@Z 00436372 f   mfc42d:MFC42D.DLL
 0001:00035378       ??3@YAXPAX@Z               00436378 f   mfc42d:MFC42D.DLL
 0001:0003537e       ?Polyline@CDC@@QAEHPAUtagPOINT@@H@Z 0043637e f   mfc42d:MFC42D.DLL
 0001:00035384       ?SetActiveWindow@CWnd@@QAEPAV1@XZ 00436384 f   mfc42d:MFC42D.DLL
 0001:0003538a       ?GetSafeHwnd@CWnd@@QBEPAUHWND__@@XZ 0043638a f   mfc42d:MFC42D.DLL
 0001:00035390       ?OnHScroll@CScrollView@@QAEXIIPAVCScrollBar@@@Z 00436390 f   mfc42d:MFC42D.DLL
 0001:00035396       ?AfxGetInstanceHandle@@YGPAUHINSTANCE__@@XZ 00436396 f   mfc42d:MFC42D.DLL
 0001:0003539c       ??1CStringList@@UAE@XZ     0043639c f   mfc42d:MFC42D.DLL
 0001:000353a2       ?GetCount@CObList@@QBEHXZ  004363a2 f   mfc42d:MFC42D.DLL
 0001:000353a8       ?AddTail@CStringList@@QAEPAU__POSITION@@ABVCString@@@Z 004363a8 f   mfc42d:MFC42D.DLL
 0001:000353ae       ?Find@CStringList@@QBEPAU__POSITION@@PBDPAU2@@Z 004363ae f   mfc42d:MFC42D.DLL
 0001:000353b4       ??0CString@@QAE@ABV0@@Z    004363b4 f   mfc42d:MFC42D.DLL
 0001:000353ba       ??0CStringList@@QAE@H@Z    004363ba f   mfc42d:MFC42D.DLL
 0001:000353c0       ?OnContextHelp@CFrameWnd@@QAEXXZ 004363c0 f   mfc42d:MFC42D.DLL
 0001:000353c6       ?OnHelp@CFrameWnd@@IAEXXZ  004363c6 f   mfc42d:MFC42D.DLL
 0001:000353cc       ?OnHelpUsing@CWnd@@QAEXXZ  004363cc f   mfc42d:MFC42D.DLL
 0001:000353d2       ?OnHelpIndex@CWnd@@QAEXXZ  004363d2 f   mfc42d:MFC42D.DLL
 0001:000353d8       ?ActivateFrame@CMDIChildWnd@@UAEXH@Z 004363d8 f   mfc42d:MFC42D.DLL
 0001:000353de       ?WriteProfileInt@CWinApp@@QAEHPBD0H@Z 004363de f   mfc42d:MFC42D.DLL
 0001:000353e4       ?OnUpdateFrameMenu@CMDIChildWnd@@UAEXHPAVCWnd@@PAUHMENU__@@@Z 004363e4 f   mfc42d:MFC42D.DLL
 0001:000353ea       ?Create@CMDIChildWnd@@UAEHPBD0KABUtagRECT@@PAVCMDIFrameWnd@@PAUCCreateContext@@@Z 004363ea f   mfc42d:MFC42D.DLL
 0001:000353f0       ?ExitHelpMode@CFrameWnd@@UAEXXZ 004363f0 f   mfc42d:MFC42D.DLL
 0001:000353f6       ?DelayUpdateFrameMenu@CFrameWnd@@UAEXPAUHMENU__@@@Z 004363f6 f   mfc42d:MFC42D.DLL
 0001:000353fc       ?GetDefaultAccelerator@CFrameWnd@@UAEPAUHACCEL__@@XZ 004363fc f   mfc42d:MFC42D.DLL
 0001:00035402       ?OnUpdateFrameMenu@CFrameWnd@@UAEXPAUHMENU__@@@Z 00436402 f   mfc42d:MFC42D.DLL
 0001:00035408       ?OnUpdateFrameTitle@CMDIChildWnd@@MAEXH@Z 00436408 f   mfc42d:MFC42D.DLL
 0001:0003540e       ?OnCreateClient@CFrameWnd@@MAEHPAUtagCREATESTRUCTA@@PAUCCreateContext@@@Z 0043640e f   mfc42d:MFC42D.DLL
 0001:00035414       ?NegotiateBorderSpace@CFrameWnd@@UAEHIPAUtagRECT@@@Z 00436414 f   mfc42d:MFC42D.DLL
 0001:0003541a       ?GetMessageBar@CMDIChildWnd@@MAEPAVCWnd@@XZ 0043641a f   mfc42d:MFC42D.DLL
 0001:00035420       ?OnSetPreviewMode@CFrameWnd@@UAEXHPAUCPrintPreviewState@@@Z 00436420 f   mfc42d:MFC42D.DLL
 0001:00035426       ?RecalcLayout@CFrameWnd@@UAEXH@Z 00436426 f   mfc42d:MFC42D.DLL
 0001:0003542c       ?GetMessageString@CFrameWnd@@UBEXIAAVCString@@@Z 0043642c f   mfc42d:MFC42D.DLL
 0001:00035432       ?GetActiveFrame@CFrameWnd@@UAEPAV1@XZ 00436432 f   mfc42d:MFC42D.DLL
 0001:00035438       ?GetActiveDocument@CFrameWnd@@UAEPAVCDocument@@XZ 00436438 f   mfc42d:MFC42D.DLL
 0001:0003543e       ?LoadFrame@CMDIChildWnd@@UAEHIKPAVCWnd@@PAUCCreateContext@@@Z 0043643e f   mfc42d:MFC42D.DLL
 0001:00035444       ?IsFrameWnd@CFrameWnd@@UBEHXZ 00436444 f   mfc42d:MFC42D.DLL
 0001:0003544a       ?PostNcDestroy@CFrameWnd@@MAEXXZ 0043644a f   mfc42d:MFC42D.DLL
 0001:00035450       ?DefWindowProcA@CMDIChildWnd@@MAEJIIJ@Z 00436450 f   mfc42d:MFC42D.DLL
 0001:00035456       ?PreTranslateMessage@CMDIChildWnd@@UAEHPAUtagMSG@@@Z 00436456 f   mfc42d:MFC42D.DLL
 0001:0003545c       ?EndModalState@CFrameWnd@@UAEXXZ 0043645c f   mfc42d:MFC42D.DLL
 0001:00035462       ?BeginModalState@CFrameWnd@@UAEXXZ 00436462 f   mfc42d:MFC42D.DLL
 0001:00035468       ?OnCommand@CFrameWnd@@MAEHIJ@Z 00436468 f   mfc42d:MFC42D.DLL
 0001:0003546e       ?DestroyWindow@CMDIChildWnd@@UAEHXZ 0043646e f   mfc42d:MFC42D.DLL
 0001:00035474       ?OnCmdMsg@CFrameWnd@@UAEHIHPAXPAUAFX_CMDHANDLERINFO@@@Z 00436474 f   mfc42d:MFC42D.DLL
 0001:0003547a       ?Dump@CMDIChildWnd@@UBEXAAVCDumpContext@@@Z 0043647a f   mfc42d:MFC42D.DLL
 0001:00035480       ?AssertValid@CMDIChildWnd@@UBEXXZ 00436480 f   mfc42d:MFC42D.DLL
 0001:00035486       ??0CMDIChildWnd@@QAE@XZ    00436486 f   mfc42d:MFC42D.DLL
 0001:0003548c       ??1CFrameWnd@@UAE@XZ       0043648c f   mfc42d:MFC42D.DLL
 0001:00035492       ?PreCreateWindow@CMDIChildWnd@@UAEHAAUtagCREATESTRUCTA@@@Z 00436492 f   mfc42d:MFC42D.DLL
 0001:00035498       ?ScreenToClient@CWnd@@QBEXPAUtagRECT@@@Z 00436498 f   mfc42d:MFC42D.DLL
 0001:0003549e       ?SendMessageA@CWnd@@QAEJIIJ@Z 0043649e f   mfc42d:MFC42D.DLL
 0001:000354a4       ?GetActiveView@CFrameWnd@@QBEPAVCView@@XZ 004364a4 f   mfc42d:MFC42D.DLL
 0001:000354aa       ?IsWindowVisible@CWnd@@QBEHXZ 004364aa f   mfc42d:MFC42D.DLL
 0001:000354b0       ?OnSize@CMDIChildWnd@@IAEXIHH@Z 004364b0 f   mfc42d:MFC42D.DLL
 0001:000354b6       ?OnMDIActivate@CMDIChildWnd@@IAEXHPAVCWnd@@0@Z 004364b6 f   mfc42d:MFC42D.DLL
 0001:000354bc       ?OnCreate@CMDIChildWnd@@IAEHPAUtagCREATESTRUCTA@@@Z 004364bc f   mfc42d:MFC42D.DLL
 0001:000354c2       ?UpdateFrameCounts@CDocument@@UAEXXZ 004364c2 f   mfc42d:MFC42D.DLL
 0001:000354c8       ?DoFileSave@CDocument@@UAEHXZ 004364c8 f   mfc42d:MFC42D.DLL
 0001:000354ce       ?DoSave@CDocument@@UAEHPBDH@Z 004364ce f   mfc42d:MFC42D.DLL
 0001:000354d4       ?ReleaseFile@CDocument@@UAEXPAVCFile@@H@Z 004364d4 f   mfc42d:MFC42D.DLL
 0001:000354da       ?GetFile@CDocument@@UAEPAVCFile@@PBDIPAVCFileException@@@Z 004364da f   mfc42d:MFC42D.DLL
 0001:000354e0       ?OnChangedViewList@CDocument@@UAEXXZ 004364e0 f   mfc42d:MFC42D.DLL
 0001:000354e6       ?GetNextView@CDocument@@UBEPAVCView@@AAPAU__POSITION@@@Z 004364e6 f   mfc42d:MFC42D.DLL
 0001:000354ec       ?GetFirstViewPosition@CDocument@@UBEPAU__POSITION@@XZ 004364ec f   mfc42d:MFC42D.DLL
 0001:000354f2       ?SetModifiedFlag@CDocument@@UAEXH@Z 004364f2 f   mfc42d:MFC42D.DLL
 0001:000354f8       ?IsModified@CDocument@@UAEHXZ 004364f8 f   mfc42d:MFC42D.DLL
 0001:000354fe       ?SetTitle@CDocument@@UAEXPBD@Z 004364fe f   mfc42d:MFC42D.DLL
 0001:00035504       ?OnFinalRelease@CDocument@@UAEXXZ 00436504 f   mfc42d:MFC42D.DLL
 0001:0003550a       ?AfxOleLockApp@@YGXXZ      0043650a f   mfc42d:MFC42D.DLL
 0001:00035510       ?AfxOleUnlockApp@@YGXXZ    00436510 f   mfc42d:MFC42D.DLL
 0001:00035516       ?OnOpenDocument@CDocument@@UAEHPBD@Z 00436516 f   mfc42d:MFC42D.DLL
 0001:0003551c       ??8@YG_NABVCString@@PBD@Z  0043651c f   mfc42d:MFC42D.DLL
 0001:00035522       ?OnContextHelp@CWinApp@@IAEXXZ 00436522 f   mfc42d:MFC42D.DLL
 0001:00035528       ?OnHelp@CWinApp@@IAEXXZ    00436528 f   mfc42d:MFC42D.DLL
 0001:0003552e       ?OnHelpUsing@CWinApp@@IAEXXZ 0043652e f   mfc42d:MFC42D.DLL
 0001:00035534       ?OnHelpIndex@CWinApp@@IAEXXZ 00436534 f   mfc42d:MFC42D.DLL
 0001:0003553a       ?OnFilePrintSetup@CWinApp@@IAEXXZ 0043653a f   mfc42d:MFC42D.DLL
 0001:00035540       ?OnFileOpen@CWinApp@@IAEXXZ 00436540 f   mfc42d:MFC42D.DLL
 0001:00035546       ?OnFileNew@CWinApp@@IAEXXZ 00436546 f   mfc42d:MFC42D.DLL
 0001:0003554c       ?WinHelpA@CWinApp@@UAEXKI@Z 0043654c f   mfc42d:MFC42D.DLL
 0001:00035552       ?OnDDECommand@CWinApp@@UAEHPAD@Z 00436552 f   mfc42d:MFC42D.DLL
 0001:00035558       ?DoWaitCursor@CWinApp@@UAEXH@Z 00436558 f   mfc42d:MFC42D.DLL
 0001:0003555e       ?DoMessageBox@CWinApp@@UAEHPBDII@Z 0043655e f   mfc42d:MFC42D.DLL
 0001:00035564       ?SaveAllModified@CWinApp@@UAEHXZ 00436564 f   mfc42d:MFC42D.DLL
 0001:0003556a       ?InitApplication@CWinApp@@UAEHXZ 0043656a f   mfc42d:MFC42D.DLL
 0001:00035570       ?AddToRecentFileList@CWinApp@@UAEXPBD@Z 00436570 f   mfc42d:MFC42D.DLL
 0001:00035576       ?Delete@CWinThread@@UAEXXZ 00436576 f   mfc42d:MFC42D.DLL
 0001:0003557c       ?GetMainWnd@CWinThread@@UAEPAVCWnd@@XZ 0043657c f   mfc42d:MFC42D.DLL
 0001:00035582       ?ProcessMessageFilter@CWinThread@@UAEHHPAUtagMSG@@@Z 00436582 f   mfc42d:MFC42D.DLL
 0001:00035588       ?ProcessWndProcException@CWinApp@@UAEJPAVCException@@PBUtagMSG@@@Z 00436588 f   mfc42d:MFC42D.DLL
 0001:0003558e       ?ExitInstance@CWinApp@@UAEHXZ 0043658e f   mfc42d:MFC42D.DLL
 0001:00035594       ?IsIdleMessage@CWinThread@@UAEHPAUtagMSG@@@Z 00436594 f   mfc42d:MFC42D.DLL
 0001:0003559a       ?PumpMessage@CWinThread@@UAEHXZ 0043659a f   mfc42d:MFC42D.DLL
 0001:000355a0       ?Run@CWinApp@@UAEHXZ       004365a0 f   mfc42d:MFC42D.DLL
 0001:000355a6       ?Dump@CWinApp@@UBEXAAVCDumpContext@@@Z 004365a6 f   mfc42d:MFC42D.DLL
 0001:000355ac       ?AssertValid@CWinApp@@UBEXXZ 004365ac f   mfc42d:MFC42D.DLL
 0001:000355b2       ?GetRuntimeClass@CWinApp@@UBEPAUCRuntimeClass@@XZ 004365b2 f   mfc42d:MFC42D.DLL
 0001:000355b8       ??1CWinApp@@UAE@XZ         004365b8 f   mfc42d:MFC42D.DLL
 0001:000355be       ??0CWinApp@@QAE@PBD@Z      004365be f   mfc42d:MFC42D.DLL
 0001:000355c4       ??1CCommandLineInfo@@UAE@XZ 004365c4 f   mfc42d:MFC42D.DLL
 0001:000355ca       ?ParseCommandLine@CWinApp@@QAEXAAVCCommandLineInfo@@@Z 004365ca f   mfc42d:MFC42D.DLL
 0001:000355d0       ??0CCommandLineInfo@@QAE@XZ 004365d0 f   mfc42d:MFC42D.DLL
 0001:000355d6       ?RegisterShellFileTypes@CWinApp@@IAEXH@Z 004365d6 f   mfc42d:MFC42D.DLL
 0001:000355dc       ?EnableShellOpen@CWinApp@@IAEXXZ 004365dc f   mfc42d:MFC42D.DLL
 0001:000355e2       ?DragAcceptFiles@CWnd@@QAEXH@Z 004365e2 f   mfc42d:MFC42D.DLL
 0001:000355e8       ?LoadStdProfileSettings@CWinApp@@IAEXI@Z 004365e8 f   mfc42d:MFC42D.DLL
 0001:000355ee       ?Enable3dControls@CWinApp@@IAEHXZ 004365ee f   mfc42d:MFC42D.DLL
 0001:000355f4       ?LoadCursorA@CWinApp@@QBEPAUHICON__@@I@Z 004365f4 f   mfc42d:MFC42D.DLL
 0001:000355fa       ?LoadStandardCursor@CWinApp@@QBEPAUHICON__@@PBD@Z 004365fa f   mfc42d:MFC42D.DLL
 0001:00035600       ?MDIGetActive@CMDIFrameWnd@@QBEPAVCMDIChildWnd@@PAH@Z 00436600 f   mfc42d:MFC42D.DLL
 0001:00035606       ?Create@CFrameWnd@@QAEHPBD0KABUtagRECT@@PAVCWnd@@0KPAUCCreateContext@@@Z 00436606 f   mfc42d:MFC42D.DLL
 0001:0003560c       ?AddDocTemplate@CWinApp@@QAEXPAVCDocTemplate@@@Z 0043660c f   mfc42d:MFC42D.DLL
 0001:00035612       ??0CMultiDocTemplate@@QAE@IPAUCRuntimeClass@@00@Z 00436612 f   mfc42d:MFC42D.DLL
 0001:00035618       ?OnIdle@CWinApp@@UAEHJ@Z   00436618 f   mfc42d:MFC42D.DLL
 0001:0003561e       ?SetWindowTextA@CWnd@@QAEXPBD@Z 0043661e f   mfc42d:MFC42D.DLL
 0001:00035624       ?GetWindowTextA@CWnd@@QBEXAAVCString@@@Z 00436624 f   mfc42d:MFC42D.DLL
 0001:0003562a       ??YCString@@QAEABV0@ABV0@@Z 0043662a f   mfc42d:MFC42D.DLL
 0001:00035630       ??H@YG?AVCString@@PBDABV0@@Z 00436630 f   mfc42d:MFC42D.DLL
 0001:00035636       ?GetPathName@CDocument@@QBEABVCString@@XZ 00436636 f   mfc42d:MFC42D.DLL
 0001:0003563c       ?OpenDocumentFile@CWinApp@@UAEPAVCDocument@@PBD@Z 0043663c f   mfc42d:MFC42D.DLL
 0001:00035642       ?Close@CFile@@UAEXXZ       00436642 f   mfc42d:MFC42D.DLL
 0001:00035648       ?GetStatus@CFile@@SGHPBDAAUCFileStatus@@@Z 00436648 f   mfc42d:MFC42D.DLL
 0001:0003564e       ??0CTime@@QAE@XZ           0043664e f   mfc42d:MFC42D.DLL
 0001:00035654       ?WriteProfileStringA@CWinApp@@QAEHPBD00@Z 00436654 f   mfc42d:MFC42D.DLL
 0001:0003565a       ?PreTranslateMessage@CWinThread@@UAEHPAUtagMSG@@@Z 0043665a f   mfc42d:MFC42D.DLL
 0001:00035660       ?GetWindowMenuPopup@CMDIFrameWnd@@UAEPAUHMENU__@@PAU2@@Z 00436660 f   mfc42d:MFC42D.DLL
 0001:00035666       ?CreateClient@CMDIFrameWnd@@UAEHPAUtagCREATESTRUCTA@@PAVCMenu@@@Z 00436666 f   mfc42d:MFC42D.DLL
 0001:0003566c       ?DelayUpdateFrameMenu@CMDIFrameWnd@@UAEXPAUHMENU__@@@Z 0043666c f   mfc42d:MFC42D.DLL
 0001:00035672       ?OnUpdateFrameMenu@CMDIFrameWnd@@UAEXPAUHMENU__@@@Z 00436672 f   mfc42d:MFC42D.DLL
 0001:00035678       ?OnUpdateFrameTitle@CMDIFrameWnd@@UAEXH@Z 00436678 f   mfc42d:MFC42D.DLL
 0001:0003567e       ?OnCreateClient@CMDIFrameWnd@@UAEHPAUtagCREATESTRUCTA@@PAUCCreateContext@@@Z 0043667e f   mfc42d:MFC42D.DLL
 0001:00035684       ?ActivateFrame@CFrameWnd@@UAEXH@Z 00436684 f   mfc42d:MFC42D.DLL
 0001:0003568a       ?GetActiveFrame@CMDIFrameWnd@@UAEPAVCFrameWnd@@XZ 0043668a f   mfc42d:MFC42D.DLL
 0001:00035690       ?LoadFrame@CMDIFrameWnd@@UAEHIKPAVCWnd@@PAUCCreateContext@@@Z 00436690 f   mfc42d:MFC42D.DLL
 0001:00035696       ?DefWindowProcA@CMDIFrameWnd@@MAEJIIJ@Z 00436696 f   mfc42d:MFC42D.DLL
 0001:0003569c       ?PreTranslateMessage@CMDIFrameWnd@@UAEHPAUtagMSG@@@Z 0043669c f   mfc42d:MFC42D.DLL
 0001:000356a2       ?OnCommand@CMDIFrameWnd@@MAEHIJ@Z 004366a2 f   mfc42d:MFC42D.DLL
 0001:000356a8       ?PreCreateWindow@CMDIFrameWnd@@UAEHAAUtagCREATESTRUCTA@@@Z 004366a8 f   mfc42d:MFC42D.DLL
 0001:000356ae       ?OnCmdMsg@CMDIFrameWnd@@UAEHIHPAXPAUAFX_CMDHANDLERINFO@@@Z 004366ae f   mfc42d:MFC42D.DLL
 0001:000356b4       ??1CStatusBar@@UAE@XZ      004366b4 f   mfc42d:MFC42D.DLL
 0001:000356ba       ??1CMenu@@UAE@XZ           004366ba f   mfc42d:MFC42D.DLL
 0001:000356c0       ?LoadMenuA@CMenu@@QAEHI@Z  004366c0 f   mfc42d:MFC42D.DLL
 0001:000356c6       ??0CStatusBar@@QAE@XZ      004366c6 f   mfc42d:MFC42D.DLL
 0001:000356cc       ??0CMenu@@QAE@XZ           004366cc f   mfc42d:MFC42D.DLL
 0001:000356d2       ??0CMDIFrameWnd@@QAE@XZ    004366d2 f   mfc42d:MFC42D.DLL
 0001:000356d8       ?DrawItem@CStatusBar@@UAEXPAUtagDRAWITEMSTRUCT@@@Z 004366d8 f   mfc42d:MFC42D.DLL
 0001:000356de       ?SetStatusText@CControlBar@@UAEHH@Z 004366de f   mfc42d:MFC42D.DLL
 0001:000356e4       ?DoPaint@CControlBar@@UAEXPAVCDC@@@Z 004366e4 f   mfc42d:MFC42D.DLL
 0001:000356ea       ?OnBarStyleChange@CStatusBar@@UAEXKK@Z 004366ea f   mfc42d:MFC42D.DLL
 0001:000356f0       ?IsDockBar@CControlBar@@UBEHXZ 004366f0 f   mfc42d:MFC42D.DLL
 0001:000356f6       ?RecalcDelayShow@CControlBar@@UAEKPAUAFX_SIZEPARENTPARAMS@@@Z 004366f6 f   mfc42d:MFC42D.DLL
 0001:000356fc       ?IsVisible@CControlBar@@UBEHXZ 004366fc f   mfc42d:MFC42D.DLL
 0001:00035702       ?DelayShow@CControlBar@@UAEXH@Z 00436702 f   mfc42d:MFC42D.DLL
 0001:00035708       ?CalcDynamicLayout@CControlBar@@UAE?AVCSize@@HK@Z 00436708 f   mfc42d:MFC42D.DLL
 0001:0003570e       ?CalcFixedLayout@CStatusBar@@UAE?AVCSize@@HH@Z 0043670e f   mfc42d:MFC42D.DLL
 0001:00035714       ?OnChildNotify@CStatusBar@@MAEHIIJPAJ@Z 00436714 f   mfc42d:MFC42D.DLL
 0001:0003571a       ?PostNcDestroy@CControlBar@@UAEXXZ 0043671a f   mfc42d:MFC42D.DLL
 0001:00035720       ?WindowProc@CControlBar@@UAEJIIJ@Z 00436720 f   mfc42d:MFC42D.DLL
 0001:00035726       ?PreTranslateMessage@CControlBar@@UAEHPAUtagMSG@@@Z 00436726 f   mfc42d:MFC42D.DLL
 0001:0003572c       ?PreCreateWindow@CStatusBar@@UAEHAAUtagCREATESTRUCTA@@@Z 0043672c f   mfc42d:MFC42D.DLL
 0001:00035732       ?DestroyWindow@CControlBar@@UAEHXZ 00436732 f   mfc42d:MFC42D.DLL
 0001:00035738       ?GetMessageMap@CStatusBar@@MBEPBUAFX_MSGMAP@@XZ 00436738 f   mfc42d:MFC42D.DLL
 0001:0003573e       ?Dump@CStatusBar@@UBEXAAVCDumpContext@@@Z 0043673e f   mfc42d:MFC42D.DLL
 0001:00035744       ?AssertValid@CStatusBar@@UBEXXZ 00436744 f   mfc42d:MFC42D.DLL
 0001:0003574a       ?GetRuntimeClass@CStatusBar@@UBEPAUCRuntimeClass@@XZ 0043674a f   mfc42d:MFC42D.DLL
 0001:00035750       ?DestroyMenu@CMenu@@QAEHXZ 00436750 f   mfc42d:MFC42D.DLL
 0001:00035756       ?DrawMenuBar@CWnd@@QAEXXZ  00436756 f   mfc42d:MFC42D.DLL
 0001:0003575c       ?MDISetMenu@CMDIFrameWnd@@QAEPAVCMenu@@PAV2@0@Z 0043675c f   mfc42d:MFC42D.DLL
 0001:00035762       ?GetDescendantWindow@CWnd@@QBEPAV1@HH@Z 00436762 f   mfc42d:MFC42D.DLL
 0001:00035768       ?MessageBoxA@CWnd@@QAEHPBD0I@Z 00436768 f   mfc42d:MFC42D.DLL
 0001:0003576e       ?SetTimer@CWnd@@QAEIIIP6GXPAUHWND__@@IIK@Z@Z 0043676e f   mfc42d:MFC42D.DLL
 0001:00035774       ?SetPaneInfo@CStatusBar@@QAEXHIIH@Z 00436774 f   mfc42d:MFC42D.DLL
 0001:0003577a       ?GetPaneInfo@CStatusBar@@QBEXHAAI0AAH@Z 0043677a f   mfc42d:MFC42D.DLL
 0001:00035780       ?SetIndicators@CStatusBar@@QAEHPBIH@Z 00436780 f   mfc42d:MFC42D.DLL
 0001:00035786       ?Create@CStatusBar@@QAEHPAVCWnd@@KI@Z 00436786 f   mfc42d:MFC42D.DLL
 0001:0003578c       ?OnCreate@CFrameWnd@@IAEHPAUtagCREATESTRUCTA@@@Z 0043678c f   mfc42d:MFC42D.DLL
 0001:00035792       ?AssertValid@CMDIFrameWnd@@UBEXXZ 00436792 f   mfc42d:MFC42D.DLL
 0001:00035798       ?Dump@CMDIFrameWnd@@UBEXAAVCDumpContext@@@Z 00436798 f   mfc42d:MFC42D.DLL
 0001:0003579e       ?ClientToScreen@CWnd@@QBEXPAUtagRECT@@@Z 0043679e f   mfc42d:MFC42D.DLL
 0001:000357a4       ?SetWindowPlacement@CWnd@@QAEHPBUtagWINDOWPLACEMENT@@@Z 004367a4 f   mfc42d:MFC42D.DLL
 0001:000357aa       ?IsEmpty@CString@@QBEHXZ   004367aa f   mfc42d:MFC42D.DLL
 0001:000357b0       ?OnClose@CFrameWnd@@IAEXXZ 004367b0 f   mfc42d:MFC42D.DLL
 0001:000357b6       ?IsZoomed@CWnd@@QBEHXZ     004367b6 f   mfc42d:MFC42D.DLL
 0001:000357bc       ?GetWindowPlacement@CWnd@@QBEHPAUtagWINDOWPLACEMENT@@@Z 004367bc f   mfc42d:MFC42D.DLL
 0001:000357c2       ?KillTimer@CWnd@@QAEHH@Z   004367c2 f   mfc42d:MFC42D.DLL
 0001:000357c8       ?MDITile@CMDIFrameWnd@@QAEXH@Z 004367c8 f   mfc42d:MFC42D.DLL
 0001:000357ce       ?GetParentFrame@CWnd@@QBEPAVCFrameWnd@@XZ 004367ce f   mfc42d:MFC42D.DLL
 0001:000357d4       ?SetPaneText@CStatusBar@@QAEHHPBDH@Z 004367d4 f   mfc42d:MFC42D.DLL
 0001:000357da       ?OnSettingChange@CWnd@@IAEXIPBD@Z 004367da f   mfc42d:MFC42D.DLL
 0001:000357e0       ??0CSplitterWnd@@QAE@XZ    004367e0 f   mfc42d:MFC42D.DLL
 0001:000357e6       ??1CSplitterWnd@@UAE@XZ    004367e6 f   mfc42d:MFC42D.DLL
 0001:000357ec       ?SetActiveView@CFrameWnd@@QAEXPAVCView@@H@Z 004367ec f   mfc42d:MFC42D.DLL
 0001:000357f2       ?GetPane@CSplitterWnd@@QBEPAVCWnd@@HH@Z 004367f2 f   mfc42d:MFC42D.DLL
 0001:000357f8       ?CreateStatic@CSplitterWnd@@QAEHPAVCWnd@@HHKI@Z 004367f8 f   mfc42d:MFC42D.DLL
 0001:000357fe       ?StopTracking@CSplitterWnd@@MAEXH@Z 004367fe f   mfc42d:MFC42D.DLL
 0001:00035804       ?StartTracking@CSplitterWnd@@MAEXH@Z 00436804 f   mfc42d:MFC42D.DLL
 0001:0003580a       ?SetSplitCursor@CSplitterWnd@@MAEXH@Z 0043680a f   mfc42d:MFC42D.DLL
 0001:00035810       ?DrawAllSplitBars@CSplitterWnd@@MAEXPAVCDC@@HH@Z 00436810 f   mfc42d:MFC42D.DLL
 0001:00035816       ?TrackColumnSize@CSplitterWnd@@MAEXHH@Z 00436816 f   mfc42d:MFC42D.DLL
 0001:0003581c       ?TrackRowSize@CSplitterWnd@@MAEXHH@Z 0043681c f   mfc42d:MFC42D.DLL
 0001:00035822       ?GetHitRect@CSplitterWnd@@MAEXHAAVCRect@@@Z 00436822 f   mfc42d:MFC42D.DLL
 0001:00035828       ?GetInsideRect@CSplitterWnd@@MBEXAAVCRect@@@Z 00436828 f   mfc42d:MFC42D.DLL
 0001:0003582e       ?HitTest@CSplitterWnd@@MBEHVCPoint@@@Z 0043682e f   mfc42d:MFC42D.DLL
 0001:00035834       ?DoScrollBy@CSplitterWnd@@UAEHPAVCView@@VCSize@@H@Z 00436834 f   mfc42d:MFC42D.DLL
 0001:0003583a       ?DoScroll@CSplitterWnd@@UAEHPAVCView@@IH@Z 0043683a f   mfc42d:MFC42D.DLL
 0001:00035840       ?DoKeyboardSplit@CSplitterWnd@@UAEHXZ 00436840 f   mfc42d:MFC42D.DLL
 0001:00035846       ?ActivateNext@CSplitterWnd@@UAEXH@Z 00436846 f   mfc42d:MFC42D.DLL
 0001:0003584c       ?CanActivateNext@CSplitterWnd@@UAEHH@Z 0043684c f   mfc42d:MFC42D.DLL
 0001:00035852       ?SetActivePane@CSplitterWnd@@UAEXHHPAVCWnd@@@Z 00436852 f   mfc42d:MFC42D.DLL
 0001:00035858       ?DeleteColumn@CSplitterWnd@@UAEXH@Z 00436858 f   mfc42d:MFC42D.DLL
 0001:0003585e       ?DeleteRow@CSplitterWnd@@UAEXH@Z 0043685e f   mfc42d:MFC42D.DLL
 0001:00035864       ?SplitColumn@CSplitterWnd@@UAEHH@Z 00436864 f   mfc42d:MFC42D.DLL
 0001:0003586a       ?SplitRow@CSplitterWnd@@UAEHH@Z 0043686a f   mfc42d:MFC42D.DLL
 0001:00035870       ?DeleteView@CSplitterWnd@@UAEXHH@Z 00436870 f   mfc42d:MFC42D.DLL
 0001:00035876       ?CreateScrollBarCtrl@CSplitterWnd@@UAEHKI@Z 00436876 f   mfc42d:MFC42D.DLL
 0001:0003587c       ?OnInvertTracker@CSplitterWnd@@MAEXABVCRect@@@Z 0043687c f   mfc42d:MFC42D.DLL
 0001:00035882       ?OnDrawSplitter@CSplitterWnd@@MAEXPAVCDC@@W4ESplitType@1@ABVCRect@@@Z 00436882 f   mfc42d:MFC42D.DLL
 0001:00035888       ?RecalcLayout@CSplitterWnd@@UAEXXZ 00436888 f   mfc42d:MFC42D.DLL
 0001:0003588e       ?CreateView@CSplitterWnd@@UAEHHHPAUCRuntimeClass@@UtagSIZE@@PAUCCreateContext@@@Z 0043688e f   mfc42d:MFC42D.DLL
 0001:00035894       ?OnNotify@CSplitterWnd@@MAEHIJPAJ@Z 00436894 f   mfc42d:MFC42D.DLL
 0001:0003589a       ?OnCommand@CSplitterWnd@@MAEHIJ@Z 0043689a f   mfc42d:MFC42D.DLL
 0001:000358a0       ?GetMessageMap@CSplitterWnd@@MBEPBUAFX_MSGMAP@@XZ 004368a0 f   mfc42d:MFC42D.DLL
 0001:000358a6       ?Dump@CSplitterWnd@@UBEXAAVCDumpContext@@@Z 004368a6 f   mfc42d:MFC42D.DLL
 0001:000358ac       ?AssertValid@CSplitterWnd@@UBEXXZ 004368ac f   mfc42d:MFC42D.DLL
 0001:000358b2       ?GetFocus@CWnd@@SGPAV1@XZ  004368b2 f   mfc42d:MFC42D.DLL
 0001:000358b8       ??H@YG?AVCString@@ABV0@PBD@Z 004368b8 f   mfc42d:MFC42D.DLL
 0001:000358be       ?CreatePalette@CPalette@@QAEHPAUtagLOGPALETTE@@@Z 004368be f   mfc42d:MFC42D.DLL
 0001:000358c4       ?ReadHuge@CFile@@QAEKPAXK@Z 004368c4 f   mfc42d:MFC42D.DLL
 0001:000358ca       ?AfxDeleteObject@@YGXPAPAX@Z 004368ca f   mfc42d:MFC42D.DLL
 0001:000358d0       ?OnBarStyleChange@CControlBar@@UAEXKK@Z 004368d0 f   mfc42d:MFC42D.DLL
 0001:000358d6       ??1CControlBar@@UAE@XZ     004368d6 f   mfc42d:MFC42D.DLL
 0001:000358dc       ?AfxCustomLogFont@@YGHIPAUtagLOGFONTA@@@Z 004368dc f   mfc42d:MFC42D.DLL
 0001:000358e2       ??0CControlBar@@IAE@XZ     004368e2 f   mfc42d:MFC42D.DLL
 0001:000358e8       ?CalcInsideRect@CControlBar@@QBEXAAVCRect@@H@Z 004368e8 f   mfc42d:MFC42D.DLL
 0001:000358ee       ?PreCreateWindow@CControlBar@@UAEHAAUtagCREATESTRUCTA@@@Z 004368ee f   mfc42d:MFC42D.DLL
 0001:000358f4       ?SetRectEmpty@CRect@@QAEXXZ 004368f4 f   mfc42d:MFC42D.DLL
 0001:000358fa       ?SelectObject@CDC@@QAEPAXPAX@Z 004368fa f   mfc42d:MFC42D.DLL
 0001:00035900       ?AllocElements@CControlBar@@QAEHHH@Z 00436900 f   mfc42d:MFC42D.DLL
 0001:00035906       ?InflateRect@CRect@@QAEXHH@Z 00436906 f   mfc42d:MFC42D.DLL
 0001:0003590c       ?SetTextAlign@CDC@@QAEII@Z 0043690c f   mfc42d:MFC42D.DLL
 0001:00035912       ?OffsetRect@CRect@@QAEXHH@Z 00436912 f   mfc42d:MFC42D.DLL
 0001:00035918       ?Draw3dRect@CDC@@QAEXPBUtagRECT@@KK@Z 00436918 f   mfc42d:MFC42D.DLL
 0001:0003591e       ??BCRect@@QBEPBUtagRECT@@XZ 0043691e f   mfc42d:MFC42D.DLL
 0001:00035924       ?OnNcHitTest@CWnd@@IAEIVCPoint@@@Z 00436924 f   mfc42d:MFC42D.DLL
 0001:0003592a       ?PtInRect@CRect@@QBEHUtagPOINT@@@Z 0043692a f   mfc42d:MFC42D.DLL
 0001:00035930       ?OnSysCommand@CWnd@@IAEXIJ@Z 00436930 f   mfc42d:MFC42D.DLL
 0001:00035936       ?OnSize@CWnd@@IAEXIHH@Z    00436936 f   mfc42d:MFC42D.DLL
 0001:0003593c       ?OnSizeParent@CControlBar@@QAEJIJ@Z 0043693c f   mfc42d:MFC42D.DLL
 0001:00035942       ?UpdateDialogControls@CWnd@@QAEXPAVCCmdTarget@@H@Z 00436942 f   mfc42d:MFC42D.DLL
 0001:00035948       ?DoUpdate@CCmdUI@@QAEHPAVCCmdTarget@@H@Z 00436948 f   mfc42d:MFC42D.DLL
 0001:0003594e       ?SetRadio@CCmdUI@@UAEXH@Z  0043694e f   mfc42d:MFC42D.DLL
 0001:00035954       ??0CCmdUI@@QAE@XZ          00436954 f   mfc42d:MFC42D.DLL
 0001:0003595a       ?AssertValid@CControlBar@@UBEXXZ 0043695a f   mfc42d:MFC42D.DLL
 0001:00035960       ??6CDumpContext@@QAEAAV0@H@Z 00436960 f   mfc42d:MFC42D.DLL
 0001:00035966       ?GetDepth@CDumpContext@@QBEHXZ 00436966 f   mfc42d:MFC42D.DLL
 0001:0003596c       ??6CDumpContext@@QAEAAV0@I@Z 0043696c f   mfc42d:MFC42D.DLL
 0001:00035972       ??6CDumpContext@@QAEAAV0@PBD@Z 00436972 f   mfc42d:MFC42D.DLL
 0001:00035978       ?Dump@CControlBar@@UBEXAAVCDumpContext@@@Z 00436978 f   mfc42d:MFC42D.DLL
 0001:0003597e       ?Draw3dRect@CDC@@QAEXHHHHKK@Z 0043697e f   mfc42d:MFC42D.DLL
 0001:00035984       ?FillSolidRect@CDC@@QAEXHHHHK@Z 00436984 f   mfc42d:MFC42D.DLL
 0001:0003598a       ?AfxThrowResourceException@@YGXXZ 0043698a f   mfc42d:MFC42D.DLL
 0001:00035990       ??0CSize@@QAE@UtagSIZE@@@Z 00436990 f   mfc42d:MFC42D.DLL
 0001:00035996       ?AfxFindResourceHandle@@YGPAUHINSTANCE__@@PBD0@Z 00436996 f   mfc42d:MFC42D.DLL
 0001:0003599c       ?CalcFixedLayout@CControlBar@@UAE?AVCSize@@HH@Z 0043699c f   mfc42d:MFC42D.DLL
 0001:000359a2       ?GetOwner@CWnd@@QBEPAV1@XZ 004369a2 f   mfc42d:MFC42D.DLL
 0001:000359a8       ?OnLButtonDown@CControlBar@@QAEXIVCPoint@@@Z 004369a8 f   mfc42d:MFC42D.DLL
 0001:000359ae       ?GetCapture@CWnd@@SGPAV1@XZ 004369ae f   mfc42d:MFC42D.DLL
 0001:000359b4       ?OnLButtonUp@CWnd@@IAEXIVCPoint@@@Z 004369b4 f   mfc42d:MFC42D.DLL
 0001:000359ba       ?OnCancelMode@CWnd@@IAEXXZ 004369ba f   mfc42d:MFC42D.DLL
 0001:000359c0       ??6@YGAAVCDumpContext@@AAV0@UtagSIZE@@@Z 004369c0 f   mfc42d:MFC42D.DLL
 0001:000359c6       ?DDX_CBString@@YGXPAVCDataExchange@@HAAVCString@@@Z 004369c6 f   mfc42d:MFC42D.DLL
 0001:000359cc       ?GetLBText@CComboBox@@QBEXHAAVCString@@@Z 004369cc f   mfc42d:MFC42D.DLL
 0001:000359d2       ?GetCurSel@CComboBox@@QBEHXZ 004369d2 f   mfc42d:MFC42D.DLL
 0001:000359d8       ?SetCurSel@CComboBox@@QAEHH@Z 004369d8 f   mfc42d:MFC42D.DLL
 0001:000359de       ?AddString@CComboBox@@QAEHPBD@Z 004369de f   mfc42d:MFC42D.DLL
 0001:000359e4       ?ResetContent@CComboBox@@QAEXXZ 004369e4 f   mfc42d:MFC42D.DLL
 0001:000359ea       ?IntersectClipRect@CDC@@QAEHPBUtagRECT@@@Z 004369ea f   mfc42d:MFC42D.DLL
 0001:000359f0       ?GetRuntimeClass@CWnd@@UBEPAUCRuntimeClass@@XZ 004369f0 f   mfc42d:MFC42D.DLL
 0001:000359f6       ?GetBitmap@CBitmap@@QAEHPAUtagBITMAP@@@Z 004369f6 f   mfc42d:MFC42D.DLL
 0001:000359fc       ?LoadBitmapA@CBitmap@@QAEHI@Z 004369fc f   mfc42d:MFC42D.DLL
 0001:00035a02       ?OnCreate@CWnd@@IAEHPAUtagCREATESTRUCTA@@@Z 00436a02 f   mfc42d:MFC42D.DLL
 0001:00035a08       ?BitBlt@CDC@@QAEHHHHHPAV1@HHK@Z 00436a08 f   mfc42d:MFC42D.DLL
 0001:00035a0e       ?GetTextExtent@CDC@@QBE?AVCSize@@ABVCString@@@Z 00436a0e f   mfc42d:MFC42D.DLL
 0001:00035a14       ?Mid@CString@@QBE?AV1@HH@Z 00436a14 f   mfc42d:MFC42D.DLL
 0001:00035a1a       ?Find@CString@@QBEHPBD@Z   00436a1a f   mfc42d:MFC42D.DLL
 0001:00035a20       ?SetTextColor@CDC@@UAEKK@Z 00436a20 f   mfc42d:MFC42D.DLL
 0001:00035a26       ?SelectObject@CDC@@UAEPAVCFont@@PAV2@@Z 00436a26 f   mfc42d:MFC42D.DLL
 0001:00035a2c       ?Detach@CDC@@QAEPAUHDC__@@XZ 00436a2c f   mfc42d:MFC42D.DLL
 0001:00035a32       ?PatBlt@CDC@@QAEHHHHHK@Z   00436a32 f   mfc42d:MFC42D.DLL
 0001:00035a38       ?Attach@CDC@@QAEHPAUHDC__@@@Z 00436a38 f   mfc42d:MFC42D.DLL
 0001:00035a3e       ?OnRButtonUp@CWnd@@IAEXIVCPoint@@@Z 00436a3e f   mfc42d:MFC42D.DLL
 0001:00035a44       ?GetParent@CWnd@@QBEPAV1@XZ 00436a44 f   mfc42d:MFC42D.DLL
 0001:00035a4a       ___CxxFrameHandler         00436a4a f   msvcrtd:MSVCRTD.dll
 0001:00035a50       ??0type_info@@AAE@ABV0@@Z  00436a50 f   msvcrtd:ti_inst.obj
 0001:00035a70       ??_Gtype_info@@UAEPAXI@Z   00436a70 f i msvcrtd:ti_inst.obj
 0001:00035a70       ??_Etype_info@@UAEPAXI@Z   00436a70 f i msvcrtd:ti_inst.obj
 0001:00035aa0       ??4type_info@@AAEAAV0@ABV0@@Z 00436aa0 f   msvcrtd:ti_inst.obj
 0001:00035ab0       __purecall                 00436ab0 f   msvcrtd:MSVCRTD.dll
 0001:00035ab6       _sqrt                      00436ab6 f   msvcrtd:MSVCRTD.dll
 0001:00035abc       __ftol                     00436abc f   msvcrtd:MSVCRTD.dll
 0001:00035ac2       _sprintf                   00436ac2 f   msvcrtd:MSVCRTD.dll
 0001:00035ac8       _rand                      00436ac8 f   msvcrtd:MSVCRTD.dll
 0001:00035ad0       ??_L@YGXPAXIHP6EX0@Z1@Z    00436ad0 f   msvcrtd:ehvecctr.obj
 0001:00035b70       __onexit                   00436b70 f   msvcrtd:atonexit.obj
 0001:00035bb0       _atexit                    00436bb0 f   msvcrtd:atonexit.obj
 0001:00035bd0       ??_M@YGXPAXIHP6EX0@Z@Z     00436bd0 f   msvcrtd:ehvecdtr.obj
 0001:00035c80       ?__ArrayUnwind@@YGXPAXIHP6EX0@Z@Z 00436c80 f   msvcrtd:ehvecdtr.obj
 0001:00035d2c       _time                      00436d2c f   msvcrtd:MSVCRTD.dll
 0001:00035d40       __chkstk                   00436d40 f   msvcrtd:chkstk.obj
 0001:00035d40       __alloca_probe             00436d40 f   msvcrtd:chkstk.obj
 0001:00035d70       _sscanf                    00436d70 f   msvcrtd:MSVCRTD.dll
 0001:00035d76       _memset                    00436d76 f   msvcrtd:MSVCRTD.dll
 0001:00035d7c       __strdup                   00436d7c f   msvcrtd:MSVCRTD.dll
 0001:00035d82       _free                      00436d82 f   msvcrtd:MSVCRTD.dll
 0001:00035d88       _memcpy                    00436d88 f   msvcrtd:MSVCRTD.dll
 0001:00035d8e       _malloc                    00436d8e f   msvcrtd:MSVCRTD.dll
 0001:00035da0       _WinMainCRTStartup         00436da0 f   msvcrtd:crtexew.obj
 0001:00035f9a       ??1type_info@@UAE@XZ       00436f9a f   msvcrtd:MSVCRTD.dll
 0001:00035fa0       __except_handler3          00436fa0 f   msvcrtd:MSVCRTD.dll
 0001:00035fa6       ___dllonexit               00436fa6 f   msvcrtd:MSVCRTD.dll
 0001:00035fac       ?terminate@@YAXXZ          00436fac f   msvcrtd:MSVCRTD.dll
 0001:00035fb2       __exit                     00436fb2 f   msvcrtd:MSVCRTD.dll
 0001:00035fb8       __XcptFilter               00436fb8 f   msvcrtd:MSVCRTD.dll
 0001:00035fbe       _exit                      00436fbe f   msvcrtd:MSVCRTD.dll
 0001:00035fc4       ___getmainargs             00436fc4 f   msvcrtd:MSVCRTD.dll
 0001:00035fca       __initterm                 00436fca f   msvcrtd:MSVCRTD.dll
 0001:00035fd0       __setdefaultprecision      00436fd0 f   msvcrtd:fp8.obj
 0001:00035fe8       ___setusermatherr          00436fe8 f   msvcrtd:MSVCRTD.dll
 0001:00035ff0       __matherr                  00436ff0 f   msvcrtd:merr.obj
 0001:00036000       __setargv                  00437000 f   msvcrtd:dllargv.obj
 0001:00036006       ___p__commode              00437006 f   msvcrtd:MSVCRTD.dll
 0001:0003600c       ___p__fmode                0043700c f   msvcrtd:MSVCRTD.dll
 0001:00036012       ___set_app_type            00437012 f   msvcrtd:MSVCRTD.dll
 0001:00036018       __controlfp                00437018 f   msvcrtd:MSVCRTD.dll
 0001:0003601e       _GlobalFree@4              0043701e f   kernel32:KERNEL32.dll
 0001:00036024       _GlobalUnlock@4            00437024 f   kernel32:KERNEL32.dll
 0001:0003602a       _GlobalLock@4              0043702a f   kernel32:KERNEL32.dll
 0001:00036030       _GetTickCount@0            00437030 f   kernel32:KERNEL32.dll
 0001:00036036       _GlobalMemoryStatus@4      00437036 f   kernel32:KERNEL32.dll
 0001:0003603c       _GlobalAlloc@8             0043703c f   kernel32:KERNEL32.dll
 0001:00036042       _GetVersion@0              00437042 f   kernel32:KERNEL32.dll
 0001:00036048       _lstrcpyA@8                00437048 f   kernel32:KERNEL32.dll
 0001:0003604e       _MulDiv@12                 0043704e f   kernel32:KERNEL32.dll
 0001:00036054       _lstrcmpA@8                00437054 f   kernel32:KERNEL32.dll
 0001:0003605a       _lstrlenA@4                0043705a f   kernel32:KERNEL32.dll
 0001:00036060       _FreeResource@4            00437060 f   kernel32:KERNEL32.dll
 0001:00036066       _LockResource@4            00437066 f   kernel32:KERNEL32.dll
 0001:0003606c       _LoadResource@8            0043706c f   kernel32:KERNEL32.dll
 0001:00036072       _FindResourceA@12          00437072 f   kernel32:KERNEL32.dll
 0001:00036078       _GetModuleHandleA@4        00437078 f   kernel32:KERNEL32.dll
 0001:0003607e       _GetStartupInfoA@4         0043707e f   kernel32:KERNEL32.dll
 0001:00036084       _ReleaseCapture@0          00437084 f   user32:USER32.dll
 0001:0003608a       _wsprintfA                 0043708a f   user32:USER32.dll
 0001:00036090       _GetSystemMetrics@4        00437090 f   user32:USER32.dll
 0001:00036096       _GetSysColor@4             00437096 f   user32:USER32.dll
 0001:0003609c       _SetCursor@4               0043709c f   user32:USER32.dll
 0001:000360a2       _LoadCursorA@8             004370a2 f   user32:USER32.dll
 0001:000360a8       _RegisterClassA@4          004370a8 f   user32:USER32.dll
 0001:000360ae       _GetClassInfoA@12          004370ae f   user32:USER32.dll
 0001:000360b4       _SetSysColors@12           004370b4 f   user32:USER32.dll
 0001:000360ba       _AdjustWindowRect@12       004370ba f   user32:USER32.dll
 0001:000360c0       _ReleaseDC@8               004370c0 f   user32:USER32.dll
 0001:000360c6       _GetDC@4                   004370c6 f   user32:USER32.dll
 0001:000360cc       _GetCursorPos@4            004370cc f   user32:USER32.dll
 0001:000360d2       _GetStockObject@4          004370d2 f   gdi32:GDI32.dll
 0001:000360d8       _DeleteObject@4            004370d8 f   gdi32:GDI32.dll
 0001:000360de       _DeleteDC@4                004370de f   gdi32:GDI32.dll
 0001:000360e4       _BitBlt@36                 004370e4 f   gdi32:GDI32.dll
 0001:000360ea       _StretchDIBits@52          004370ea f   gdi32:GDI32.dll
 0001:000360f0       _SetDIBitsToDevice@48      004370f0 f   gdi32:GDI32.dll
 0001:000360f6       _SetStretchBltMode@8       004370f6 f   gdi32:GDI32.dll
 0001:000360fc       _SelectPalette@12          004370fc f   gdi32:GDI32.dll
 0001:00036102       _SelectObject@8            00437102 f   gdi32:GDI32.dll
 0001:00036108       _CreateCompatibleBitmap@12 00437108 f   gdi32:GDI32.dll
 0001:0003610e       _CreateCompatibleDC@4      0043710e f   gdi32:GDI32.dll
 0001:00036114       _CreateSolidBrush@4        00437114 f   gdi32:GDI32.dll
 0001:0003611a       _CreatePen@12              0043711a f   gdi32:GDI32.dll
 0001:00036120       _GetDeviceCaps@8           00437120 f   gdi32:GDI32.dll
 0001:00036126       _CreateFontIndirectA@4     00437126 f   gdi32:GDI32.dll
 0001:0003612c       _SetBkColor@8              0043712c f   gdi32:GDI32.dll
 0001:00036132       _PatBlt@24                 00437132 f   gdi32:GDI32.dll
 0001:00036138       _CreateBitmap@20           00437138 f   gdi32:GDI32.dll
 0001:0003613e       _CreatePatternBrush@4      0043713e f   gdi32:GDI32.dll
 0001:00036144       _CreateDIBitmap@24         00437144 f   gdi32:GDI32.dll
 0001:0003614a       ?Draw@COleClientItem@@QAEHPAVCDC@@PBUtagRECT@@W4tagDVASPECT@@@Z 0043714a f   mfco42d:MFCO42D.DLL
 0001:00036150       ?GetNextClientItem@COleDocument@@QBEPAVCOleClientItem@@AAPAU__POSITION@@@Z 00437150 f   mfco42d:MFCO42D.DLL
 0001:00036156       ?Delete@COleClientItem@@QAEXH@Z 00437156 f   mfco42d:MFCO42D.DLL
 0001:0003615c       ?GetSelectionType@COleInsertDialog@@QBEIXZ 0043715c f   mfco42d:MFCO42D.DLL
 0001:00036162       ?CreateItem@COleInsertDialog@@QAEHPAVCOleClientItem@@@Z 00437162 f   mfco42d:MFCO42D.DLL
 0001:00036168       ??1COleInsertDialog@@UAE@XZ 00437168 f   mfco42d:MFCO42D.DLL
 0001:0003616e       ?DoModal@COleInsertDialog@@UAEHXZ 0043716e f   mfco42d:MFCO42D.DLL
 0001:00036174       ??0COleInsertDialog@@QAE@KPAVCWnd@@@Z 00437174 f   mfco42d:MFCO42D.DLL
 0001:0003617a       ?Close@COleClientItem@@QAEXW4tagOLECLOSE@@@Z 0043717a f   mfco42d:MFCO42D.DLL
 0001:00036180       ?GetInPlaceWindow@COleClientItem@@QAEPAVCWnd@@XZ 00437180 f   mfco42d:MFCO42D.DLL
 0001:00036186       ?GetItemState@COleClientItem@@QBEIXZ 00437186 f   mfco42d:MFCO42D.DLL
 0001:0003618c       ?CommitItem@COleClientItem@@UAEXH@Z 0043718c f   mfco42d:MFCO42D.DLL
 0001:00036192       ?WriteItem@COleClientItem@@UAEXAAVCArchive@@@Z 00437192 f   mfco42d:MFCO42D.DLL
 0001:00036198       ?ReadItem@COleClientItem@@UAEXAAVCArchive@@@Z 00437198 f   mfco42d:MFCO42D.DLL
 0001:0003619e       ?GetItemStorage@COleClientItem@@UAEXXZ 0043719e f   mfco42d:MFCO42D.DLL
 0001:000361a4       ?OnDataChange@COleClientItem@@MAEXPAUtagFORMATETC@@PAUtagSTGMEDIUM@@@Z 004371a4 f   mfco42d:MFCO42D.DLL
 0001:000361aa       ?CheckGeneral@COleClientItem@@MAEXJ@Z 004371aa f   mfco42d:MFCO42D.DLL
 0001:000361b0       ?FinishCreate@COleClientItem@@MAEHJ@Z 004371b0 f   mfco42d:MFCO42D.DLL
 0001:000361b6       ?GetClientSite@COleClientItem@@MAEPAUIOleClientSite@@XZ 004371b6 f   mfco42d:MFCO42D.DLL
 0001:000361bc       ?FreezeLink@COleClientItem@@UAEHXZ 004371bc f   mfco42d:MFCO42D.DLL
 0001:000361c2       ?ReportError@COleClientItem@@UBEHJ@Z 004371c2 f   mfco42d:MFCO42D.DLL
 0001:000361c8       ?OnShowControlBars@COleClientItem@@UAEHPAVCFrameWnd@@H@Z 004371c8 f   mfco42d:MFCO42D.DLL
 0001:000361ce       ?OnUpdateFrameTitle@COleClientItem@@UAEHXZ 004371ce f   mfco42d:MFCO42D.DLL
 0001:000361d4       ?OnRemoveMenus@COleClientItem@@UAEXPAVCMenu@@@Z 004371d4 f   mfco42d:MFCO42D.DLL
 0001:000361da       ?OnSetMenu@COleClientItem@@UAEXPAVCMenu@@PAXPAUHWND__@@@Z 004371da f   mfco42d:MFCO42D.DLL
 0001:000361e0       ?OnInsertMenus@COleClientItem@@UAEXPAVCMenu@@PAUtagOleMenuGroupWidths@@@Z 004371e0 f   mfco42d:MFCO42D.DLL
 0001:000361e6       ?OnGetWindowContext@COleClientItem@@MAEHPAPAVCFrameWnd@@0PAUtagOIFI@@@Z 004371e6 f   mfco42d:MFCO42D.DLL
 0001:000361ec       ?OnDeactivate@COleClientItem@@UAEXXZ 004371ec f   mfco42d:MFCO42D.DLL
 0001:000361f2       ?OnActivateUI@COleClientItem@@UAEXXZ 004371f2 f   mfco42d:MFCO42D.DLL
 0001:000361f8       ?OnGetClipRect@COleClientItem@@MAEXAAVCRect@@@Z 004371f8 f   mfco42d:MFCO42D.DLL
 0001:000361fe       ?OnShowItem@COleClientItem@@MAEXXZ 004371fe f   mfco42d:MFCO42D.DLL
 0001:00036204       ?OnDeactivateAndUndo@COleClientItem@@MAEXXZ 00437204 f   mfco42d:MFCO42D.DLL
 0001:0003620a       ?OnDiscardUndoState@COleClientItem@@MAEXXZ 0043720a f   mfco42d:MFCO42D.DLL
 0001:00036210       ?OnScrollBy@COleClientItem@@MAEHVCSize@@@Z 00437210 f   mfco42d:MFCO42D.DLL
 0001:00036216       ?ActivateAs@COleClientItem@@UAEHPBDABU_GUID@@1@Z 00437216 f   mfco42d:MFCO42D.DLL
 0001:0003621c       ?ConvertTo@COleClientItem@@UAEHABU_GUID@@@Z 0043721c f   mfco42d:MFCO42D.DLL
 0001:00036222       ?OnGetClipboardData@COleClientItem@@UAEPAVCOleDataSource@@HPAUtagPOINT@@PAUtagSIZE@@@Z 00437222 f   mfco42d:MFCO42D.DLL
 0001:00036228       ?DoVerb@COleClientItem@@UAEHJPAVCView@@PAUtagMSG@@@Z 00437228 f   mfco42d:MFCO42D.DLL
 0001:0003622e       ?Release@COleClientItem@@UAEXW4tagOLECLOSE@@@Z 0043722e f   mfco42d:MFCO42D.DLL
 0001:00036234       ?SetDrawAspect@COleClientItem@@UAEXW4tagDVASPECT@@@Z 00437234 f   mfco42d:MFCO42D.DLL
 0001:0003623a       ?IsBlank@CDocItem@@UBEHXZ  0043723a f   mfco42d:MFCO42D.DLL
 0001:00036240       ?GetInterfaceMap@COleClientItem@@MBEPBUAFX_INTERFACEMAP@@XZ 00437240 f   mfco42d:MFCO42D.DLL
 0001:00036246       ??0COleClientItem@@QAE@PAVCOleDocument@@@Z 00437246 f   mfco42d:MFCO42D.DLL
 0001:0003624c       ??1COleClientItem@@UAE@XZ  0043724c f   mfco42d:MFCO42D.DLL
 0001:00036252       ?OnChange@COleClientItem@@UAEXW4OLE_NOTIFICATION@@K@Z 00437252 f   mfco42d:MFCO42D.DLL
 0001:00036258       ?GetDocument@COleClientItem@@QBEPAVCOleDocument@@XZ 00437258 f   mfco42d:MFCO42D.DLL
 0001:0003625e       ?OnChangeItemPosition@COleClientItem@@MAEHABVCRect@@@Z 0043725e f   mfco42d:MFCO42D.DLL
 0001:00036264       ?OnActivate@COleClientItem@@UAEXXZ 00437264 f   mfco42d:MFCO42D.DLL
 0001:0003626a       ?GetActiveView@COleClientItem@@QBEPAVCView@@XZ 0043726a f   mfco42d:MFCO42D.DLL
 0001:00036270       ?Deactivate@COleClientItem@@QAEXXZ 00437270 f   mfco42d:MFCO42D.DLL
 0001:00036276       ?OnDeactivateUI@COleClientItem@@UAEXH@Z 00437276 f   mfco42d:MFCO42D.DLL
 0001:0003627c       ?Serialize@COleClientItem@@UAEXAAVCArchive@@@Z 0043727c f   mfco42d:MFCO42D.DLL
 0001:00036282       ?CanActivate@COleClientItem@@MAEHXZ 00437282 f   mfco42d:MFCO42D.DLL
 0001:00036288       ?IsInPlaceActive@COleServerDoc@@QBEHXZ 00437288 f   mfco42d:MFCO42D.DLL
 0001:0003628e       ?AssertValid@COleClientItem@@UBEXXZ 0043728e f   mfco42d:MFCO42D.DLL
 0001:00036294       ?Dump@COleClientItem@@UBEXAAVCDumpContext@@@Z 00437294 f   mfco42d:MFCO42D.DLL
 0001:0003629a       ?OnEditLinks@COleDocument@@IAEXXZ 0043729a f   mfco42d:MFCO42D.DLL
 0001:000362a0       ?OnUpdateEditLinksMenu@COleDocument@@IAEXPAVCCmdUI@@@Z 004372a0 f   mfco42d:MFCO42D.DLL
 0001:000362a6       ?OnEditConvert@COleDocument@@IAEXXZ 004372a6 f   mfco42d:MFCO42D.DLL
 0001:000362ac       ?OnUpdateObjectVerbMenu@COleDocument@@IAEXPAVCCmdUI@@@Z 004372ac f   mfco42d:MFCO42D.DLL
 0001:000362b2       ?OnUpdatePasteLinkMenu@COleDocument@@IAEXPAVCCmdUI@@@Z 004372b2 f   mfco42d:MFCO42D.DLL
 0001:000362b8       ?OnUpdatePasteMenu@COleDocument@@IAEXPAVCCmdUI@@@Z 004372b8 f   mfco42d:MFCO42D.DLL
 0001:000362be       ?OnSaveEmbedding@COleServerDoc@@MAEXPAUIStorage@@@Z 004372be f   mfco42d:MFCO42D.DLL
 0001:000362c4       ?OnOpenEmbedding@COleServerDoc@@MAEXPAUIStorage@@@Z 004372c4 f   mfco42d:MFCO42D.DLL
 0001:000362ca       ?OnNewEmbedding@COleServerDoc@@MAEXPAUIStorage@@@Z 004372ca f   mfco42d:MFCO42D.DLL
 0001:000362d0       ?GetFileTypeString@COleServerDoc@@MAEHAAVCString@@@Z 004372d0 f   mfco42d:MFCO42D.DLL
 0001:000362d6       ?OnResizeBorder@COleServerDoc@@UAEXPBUtagRECT@@PAUIOleInPlaceUIWindow@@H@Z 004372d6 f   mfco42d:MFCO42D.DLL
 0001:000362dc       ?DestroyInPlaceFrame@COleServerDoc@@MAEXPAVCOleIPFrameWnd@@@Z 004372dc f   mfco42d:MFCO42D.DLL
 0001:000362e2       ?CreateInPlaceFrame@COleServerDoc@@MAEPAVCOleIPFrameWnd@@PAVCWnd@@@Z 004372e2 f   mfco42d:MFCO42D.DLL
 0001:000362e8       ?OnShowControlBars@COleServerDoc@@MAEXPAVCFrameWnd@@H@Z 004372e8 f   mfco42d:MFCO42D.DLL
 0001:000362ee       ?OnDocWindowActivate@COleServerDoc@@MAEXH@Z 004372ee f   mfco42d:MFCO42D.DLL
 0001:000362f4       ?OnFrameWindowActivate@COleServerDoc@@MAEXH@Z 004372f4 f   mfco42d:MFCO42D.DLL
 0001:000362fa       ?OnReactivateAndUndo@COleServerDoc@@MAEHXZ 004372fa f   mfco42d:MFCO42D.DLL
 0001:00036300       ?OnSetItemRects@COleServerDoc@@MAEXPBUtagRECT@@0@Z 00437300 f   mfco42d:MFCO42D.DLL
 0001:00036306       ?OnDeactivateUI@COleServerDoc@@UAEXH@Z 00437306 f   mfco42d:MFCO42D.DLL
 0001:0003630c       ?OnDeactivate@COleServerDoc@@UAEXXZ 0043730c f   mfco42d:MFCO42D.DLL
 0001:00036312       ?OnShowDocument@COleServerDoc@@MAEXH@Z 00437312 f   mfco42d:MFCO42D.DLL
 0001:00036318       ?GetDocObjectServer@COleServerDoc@@MAEPAVCDocObjectServer@@PAUIOleDocumentSite@@@Z 00437318 f   mfco42d:MFCO42D.DLL
 0001:0003631e       ?OnExecOleCmd@COleServerDoc@@MAEJPBU_GUID@@KKPAUtagVARIANT@@1@Z 0043731e f   mfco42d:MFCO42D.DLL
 0001:00036324       ?OnSetHostNames@COleServerDoc@@MAEXPBD0@Z 00437324 f   mfco42d:MFCO42D.DLL
 0001:0003632a       ?OnClose@COleServerDoc@@MAEXW4tagOLECLOSE@@@Z 0043732a f   mfco42d:MFCO42D.DLL
 0001:00036330       ?OnUpdateDocument@COleServerDoc@@UAEHXZ 00437330 f   mfco42d:MFCO42D.DLL
 0001:00036336       ?RegisterIfServerAttached@COleLinkingDoc@@MAEHPBDH@Z 00437336 f   mfco42d:MFCO42D.DLL
 0001:0003633c       ?OnFindEmbeddedItem@COleLinkingDoc@@MAEPAVCOleClientItem@@PBD@Z 0043733c f   mfco42d:MFCO42D.DLL
 0001:00036342       ?OnGetLinkedItem@COleServerDoc@@UAEPAVCOleServerItem@@PBD@Z 00437342 f   mfco42d:MFCO42D.DLL
 0001:00036348       ?SaveToStorage@COleLinkingDoc@@MAEXPAVCObject@@@Z 00437348 f   mfco42d:MFCO42D.DLL
 0001:0003634e       ?LoadFromStorage@COleDocument@@MAEXXZ 0043734e f   mfco42d:MFCO42D.DLL
 0001:00036354       ?GetContainer@COleLinkingDoc@@UAEPAUIOleItemContainer@@XZ 00437354 f   mfco42d:MFCO42D.DLL
 0001:0003635a       ?GetMoniker@COleServerDoc@@UAEPAUIMoniker@@W4tagOLEGETMONIKER@@@Z 0043735a f   mfco42d:MFCO42D.DLL
 0001:00036360       ?OnShowViews@COleLinkingDoc@@MAEXH@Z 00437360 f   mfco42d:MFCO42D.DLL
 0001:00036366       ?GetPrimarySelectedItem@COleDocument@@UAEPAVCOleClientItem@@PAVCView@@@Z 00437366 f   mfco42d:MFCO42D.DLL
 0001:0003636c       ?UpdateModifiedFlag@COleDocument@@UAEXXZ 0043736c f   mfco42d:MFCO42D.DLL
 0001:00036372       ?RemoveItem@COleDocument@@UAEXPAVCDocItem@@@Z 00437372 f   mfco42d:MFCO42D.DLL
 0001:00036378       ?AddItem@COleDocument@@UAEXPAVCDocItem@@@Z 00437378 f   mfco42d:MFCO42D.DLL
 0001:0003637e       ?GetNextItem@COleDocument@@UBEPAVCDocItem@@AAPAU__POSITION@@@Z 0043737e f   mfco42d:MFCO42D.DLL
 0001:00036384       ?GetStartPosition@COleDocument@@UBEPAU__POSITION@@XZ 00437384 f   mfco42d:MFCO42D.DLL
 0001:0003638a       ?GetInPlaceActiveItem@COleDocument@@UAEPAVCOleClientItem@@PAVCWnd@@@Z 0043738a f   mfco42d:MFCO42D.DLL
 0001:00036390       ?OnIdle@COleDocument@@UAEXXZ 00437390 f   mfco42d:MFCO42D.DLL
 0001:00036396       ?GetDefaultAccelerator@COleServerDoc@@MAEPAUHACCEL__@@XZ 00437396 f   mfco42d:MFCO42D.DLL
 0001:0003639c       ?PreCloseFrame@COleDocument@@UAEXPAVCFrameWnd@@@Z 0043739c f   mfco42d:MFCO42D.DLL
 0001:000363a2       ?SaveModified@COleServerDoc@@MAEHXZ 004373a2 f   mfco42d:MFCO42D.DLL
 0001:000363a8       ?CanCloseFrame@COleServerDoc@@UAEHPAVCFrameWnd@@@Z 004373a8 f   mfco42d:MFCO42D.DLL
 0001:000363ae       ?ReportSaveLoadException@COleLinkingDoc@@UAEXPBDPAVCException@@HI@Z 004373ae f   mfco42d:MFCO42D.DLL
 0001:000363b4       ?OnSaveDocument@COleServerDoc@@UAEHPBD@Z 004373b4 f   mfco42d:MFCO42D.DLL
 0001:000363ba       ?SetPathName@COleDocument@@UAEXPBDH@Z 004373ba f   mfco42d:MFCO42D.DLL
 0001:000363c0       ?GetInterfaceHook@COleServerDoc@@MAEPAUIUnknown@@PBX@Z 004373c0 f   mfco42d:MFCO42D.DLL
 0001:000363c6       ?OnCmdMsg@COleDocument@@UAEHIHPAXPAUAFX_CMDHANDLERINFO@@@Z 004373c6 f   mfco42d:MFCO42D.DLL
 0001:000363cc       ??1COleServerDoc@@UAE@XZ   004373cc f   mfco42d:MFCO42D.DLL
 0001:000363d2       ?EnableAutomation@CCmdTarget@@QAEXXZ 004373d2 f   mfco42d:MFCO42D.DLL
 0001:000363d8       ?EnableCompoundFile@COleDocument@@QAEXH@Z 004373d8 f   mfco42d:MFCO42D.DLL
 0001:000363de       ??0COleServerDoc@@QAE@XZ   004373de f   mfco42d:MFCO42D.DLL
 0001:000363e4       ?OnNewDocument@COleLinkingDoc@@UAEHXZ 004373e4 f   mfco42d:MFCO42D.DLL
 0001:000363ea       ?OnCloseDocument@COleDocument@@UAEXXZ 004373ea f   mfco42d:MFCO42D.DLL
 0001:000363f0       ?AssertValid@COleServerDoc@@UBEXXZ 004373f0 f   mfco42d:MFCO42D.DLL
 0001:000363f6       ?Dump@COleServerDoc@@UBEXAAVCDumpContext@@@Z 004373f6 f   mfco42d:MFCO42D.DLL
 0001:000363fc       ?Serialize@COleDocument@@UAEXAAVCArchive@@@Z 004373fc f   mfco42d:MFCO42D.DLL
 0001:00036402       ??0COleTemplateServer@@QAE@XZ 00437402 f   mfco42d:MFCO42D.DLL
 0001:00036408       ??1COleObjectFactory@@UAE@XZ 00437408 f   mfco42d:MFCO42D.DLL
 0001:0003640e       ?AfxEnableControlContainer@@YAXPAVCOccManager@@@Z 0043740e f   mfco42d:MFCO42D.DLL
 0001:00036414       ?AfxOleInit@@YGHXZ         00437414 f   mfco42d:MFCO42D.DLL
 0001:0003641a       ?OnSaveEmbedding@COleServerItem@@MAEXPAUIStorage@@@Z 0043741a f   mfco42d:MFCO42D.DLL
 0001:00036420       ?GetMetafileData@COleServerItem@@MAEHPAUtagFORMATETC@@PAUtagSTGMEDIUM@@@Z 00437420 f   mfco42d:MFCO42D.DLL
 0001:00036426       ?OnSetData@COleServerItem@@UAEHPAUtagFORMATETC@@PAUtagSTGMEDIUM@@H@Z 00437426 f   mfco42d:MFCO42D.DLL
 0001:0003642c       ?OnRenderData@COleServerItem@@UAEHPAUtagFORMATETC@@PAUtagSTGMEDIUM@@@Z 0043742c f   mfco42d:MFCO42D.DLL
 0001:00036432       ?OnRenderFileData@COleServerItem@@UAEHPAUtagFORMATETC@@PAVCFile@@@Z 00437432 f   mfco42d:MFCO42D.DLL
 0001:00036438       ?OnRenderGlobalData@COleServerItem@@UAEHPAUtagFORMATETC@@PAPAX@Z 00437438 f   mfco42d:MFCO42D.DLL
 0001:0003643e       ?OnInitFromData@COleServerItem@@UAEHPAVCOleDataObject@@H@Z 0043743e f   mfco42d:MFCO42D.DLL
 0001:00036444       ?OnHide@COleServerItem@@MAEXXZ 00437444 f   mfco42d:MFCO42D.DLL
 0001:0003644a       ?OnOpen@COleServerItem@@MAEXXZ 0043744a f   mfco42d:MFCO42D.DLL
 0001:00036450       ?OnShow@COleServerItem@@MAEXXZ 00437450 f   mfco42d:MFCO42D.DLL
 0001:00036456       ?OnUpdateItems@COleServerItem@@UAEXXZ 00437456 f   mfco42d:MFCO42D.DLL
 0001:0003645c       ?OnQueryUpdateItems@COleServerItem@@UAEHXZ 0043745c f   mfco42d:MFCO42D.DLL
 0001:00036462       ?OnGetClipboardData@COleServerItem@@UAEPAVCOleDataSource@@HPAUtagPOINT@@PAUtagSIZE@@@Z 00437462 f   mfco42d:MFCO42D.DLL
 0001:00036468       ?OnSetColorScheme@COleServerItem@@UAEHPBUtagLOGPALETTE@@@Z 00437468 f   mfco42d:MFCO42D.DLL
 0001:0003646e       ?OnDoVerb@COleServerItem@@UAEXJ@Z 0043746e f   mfco42d:MFCO42D.DLL
 0001:00036474       ?OnSetExtent@COleServerItem@@UAEHW4tagDVASPECT@@ABVCSize@@@Z 00437474 f   mfco42d:MFCO42D.DLL
 0001:0003647a       ?OnDrawEx@COleServerItem@@UAEHPAVCDC@@W4tagDVASPECT@@AAVCSize@@@Z 0043747a f   mfco42d:MFCO42D.DLL
 0001:00036480       ?OnUpdate@COleServerItem@@UAEXPAV1@JPAVCObject@@W4tagDVASPECT@@@Z 00437480 f   mfco42d:MFCO42D.DLL
 0001:00036486       ?IsBlank@COleServerItem@@MBEHXZ 00437486 f   mfco42d:MFCO42D.DLL
 0001:0003648c       ?GetInterfaceMap@COleServerItem@@MBEPBUAFX_INTERFACEMAP@@XZ 0043748c f   mfco42d:MFCO42D.DLL
 0001:00036492       ?OnFinalRelease@COleServerItem@@UAEXXZ 00437492 f   mfco42d:MFCO42D.DLL
 0001:00036498       ??0COleServerItem@@IAE@PAVCOleServerDoc@@H@Z 00437498 f   mfco42d:MFCO42D.DLL
 0001:0003649e       ??1COleServerItem@@UAE@XZ  0043749e f   mfco42d:MFCO42D.DLL
 0001:000364a4       ?IsLinkedItem@COleServerItem@@QBEHXZ 004374a4 f   mfco42d:MFCO42D.DLL
 0001:000364aa       ?GetDocument@COleServerItem@@QBEPAVCOleServerDoc@@XZ 004374aa f   mfco42d:MFCO42D.DLL
 0001:000364b0       ?OnGetExtent@COleServerItem@@UAEHW4tagDVASPECT@@AAVCSize@@@Z 004374b0 f   mfco42d:MFCO42D.DLL
 0001:000364b6       ?AssertValid@COleServerItem@@UBEXXZ 004374b6 f   mfco42d:MFCO42D.DLL
 0001:000364bc       ?Dump@COleServerItem@@UBEXAAVCDumpContext@@@Z 004374bc f   mfco42d:MFCO42D.DLL
 0001:000364d0       _WinMain@16                004374d0 f   mfcs42d:appmodul.obj
 0001:000364f0       ?AfxInitialize@@YGHHK@Z    004374f0 f   mfcs42d:appmodul.obj
 0001:00036586       __setmbcp                  00437586 f   msvcrtd:MSVCRTD.dll
 0001:0003658c       ?AfxWinMain@@YGHPAUHINSTANCE__@@0PADH@Z 0043758c f   mfc42d:MFC42D.DLL
 0001:00036592       ?AfxGetModuleState@@YGPAVAFX_MODULE_STATE@@XZ 00437592 f   mfc42d:MFC42D.DLL
 0001:000365a0       ?CommandToIndex@COldStatusBar@@QBEHI@Z 004375a0 f   Oldstat.obj
 0001:00036630       ?GetItemID@COldStatusBar@@QBEIH@Z 00437630 f   Oldstat.obj
 0001:00036670       ?GetItemRect@COldStatusBar@@QBEXHPAUtagRECT@@@Z 00437670 f   Oldstat.obj
 0001:00036900       ?GetPaneStyle@COldStatusBar@@QBEIH@Z 00437900 f   Oldstat.obj
 0001:00036930       ?SetPaneStyle@COldStatusBar@@QAEXHI@Z 00437930 f   Oldstat.obj
 0001:000369a0       ?GetPaneInfo@COldStatusBar@@QBEXHAAI0AAH@Z 004379a0 f   Oldstat.obj
 0001:00036a00       ?SetPaneInfo@COldStatusBar@@QAEXHIIH@Z 00437a00 f   Oldstat.obj
 0001:00036a80       ?GetPaneText@COldStatusBar@@QBEXHAAVCString@@@Z 00437a80 f   Oldstat.obj
 0001:00036ad0       ?SetPaneText@COldStatusBar@@QAEHHPBDH@Z 00437ad0 f   Oldstat.obj
 0001:00036bf0       ?CalcFixedLayout@COldStatusBar@@UAE?AVCSize@@HH@Z 00437bf0 f   Oldstat.obj
 0001:00036d10       ?DoPaint@COldStatusBar@@MAEXPAVCDC@@@Z 00437d10 f   Oldstat.obj
 0001:000370f0       ?DrawStatusText@COldStatusBar@@IAEXPAVCDC@@ABVCRect@@PBDI@Z 004380f0 f   Oldstat.obj
 0001:00037240       ?_GetBaseMessageMap@COldStatusBar@@KGPBUAFX_MSGMAP@@XZ 00438240 f   Oldstat.obj
 0001:00037260       ?GetMessageMap@COldStatusBar@@MBEPBUAFX_MSGMAP@@XZ 00438260 f   Oldstat.obj
 0001:00037280       ?OnNcHitTest@COldStatusBar@@IAEIVCPoint@@@Z 00438280 f   Oldstat.obj
 0001:00037370       ?OnSysCommand@COldStatusBar@@IAEXIJ@Z 00438370 f   Oldstat.obj
 0001:000373f0       ?OnSize@COldStatusBar@@IAEXIHH@Z 004383f0 f   Oldstat.obj
 0001:00037430       ?OnSetFont@COldStatusBar@@IAEJIJ@Z 00438430 f   Oldstat.obj
 0001:00037480       ?OnGetFont@COldStatusBar@@IAEJIJ@Z 00438480 f   Oldstat.obj
 0001:000374a0       ?OnSetText@COldStatusBar@@IAEJIJ@Z 004384a0 f   Oldstat.obj
 0001:000374f0       ?OnGetText@COldStatusBar@@IAEJIJ@Z 004384f0 f   Oldstat.obj
 0001:000375b0       ?OnGetTextLength@COldStatusBar@@IAEJIJ@Z 004385b0 f   Oldstat.obj
 0001:00037610       ?OnSizeParent@COldStatusBar@@IAEJIJ@Z 00438610 f   Oldstat.obj
 0001:000376f0       ?Enable@COldStatusCmdUI@@UAEXH@Z 004386f0 f   Oldstat.obj
 0001:000377e0       ?SetCheck@COldStatusCmdUI@@UAEXH@Z 004387e0 f   Oldstat.obj
 0001:000378c0       ?SetText@COldStatusCmdUI@@UAEXPBD@Z 004388c0 f   Oldstat.obj
 0001:00037980       ?OnUpdateCmdUI@COldStatusBar@@MAEXPAVCFrameWnd@@H@Z 00438980 f   Oldstat.obj
 0001:00037a00       ??0COldStatusCmdUI@@QAE@XZ 00438a00 f i Oldstat.obj
 0001:00037a30       ?AssertValid@COldStatusBar@@UBEXXZ 00438a30 f   Oldstat.obj
 0001:00037a50       ?Dump@COldStatusBar@@UBEXAAVCDumpContext@@@Z 00438a50 f   Oldstat.obj
 0001:00037b90       ?CreateMask@COldToolBar@@IAEXHVCPoint@@HH@Z 00438b90 f   OldTool.obj
 0001:00037cd0       ?DrawButton@COldToolBar@@IAEHPAVCDC@@HHHI@Z 00438cd0 f   OldTool.obj
 0001:00038220       ?PrepareDrawButton@COldToolBar@@IAEHAAUDrawState@1@@Z 00439220 f   OldTool.obj
 0001:00038340       ?EndDrawButton@COldToolBar@@IAEXAAUDrawState@1@@Z 00439340 f   OldTool.obj
 0001:00038390       ?LoadSysColorBitmap@@YGPAUHBITMAP__@@PAUHINSTANCE__@@PAUHRSRC__@@@Z 00439390 f   OldTool.obj
 0001:00038700       ?CommandToIndex@COldToolBar@@QBEHI@Z 00439700 f   OldTool.obj
 0001:00038780       ?_GetButtonPtr@COldToolBar@@IBEPAUAFX_TBBUTTON@@H@Z 00439780 f i OldTool.obj
 0001:00038800       ?GetItemID@COldToolBar@@QBEIH@Z 00439800 f   OldTool.obj
 0001:00038840       ?GetItemRect@COldToolBar@@UBEXHPAUtagRECT@@@Z 00439840 f   OldTool.obj
 0001:00038af0       ?GetButtonStyle@COldToolBar@@QBEIH@Z 00439af0 f   OldTool.obj
 0001:00038b20       ?SetButtonStyle@COldToolBar@@QAEXHI@Z 00439b20 f   OldTool.obj
 0001:00038b80       ?CalcFixedLayout@COldToolBar@@UAE?AVCSize@@HH@Z 00439b80 f   OldTool.obj
 0001:00038d50       ?GetButtonInfo@COldToolBar@@QBEXHAAI0AAH@Z 00439d50 f   OldTool.obj
 0001:00038db0       ?SetButtonInfo@COldToolBar@@QAEXHIIH@Z 00439db0 f   OldTool.obj
 0001:00038e20       ?DoPaint@COldToolBar@@MAEXPAVCDC@@@Z 00439e20 f   OldTool.obj
 0001:00039020       ?InvalidateButton@COldToolBar@@IAEXH@Z 0043a020 f   OldTool.obj
 0001:00039080       ?OnToolHitTest@COldToolBar@@MBEHVCPoint@@PAUtagTOOLINFOA@@@Z 0043a080 f   OldTool.obj
 0001:00039150       ?HitTest@COldToolBar@@MAEHVCPoint@@@Z 0043a150 f   OldTool.obj
 0001:00039340       ?_GetBaseMessageMap@COldToolBar@@KGPBUAFX_MSGMAP@@XZ 0043a340 f   OldTool.obj
 0001:00039360       ?GetMessageMap@COldToolBar@@MBEPBUAFX_MSGMAP@@XZ 0043a360 f   OldTool.obj
 0001:00039380       ?OnLButtonDown@COldToolBar@@IAEXIVCPoint@@@Z 0043a380 f   OldTool.obj
 0001:000394a0       ?OnMouseMove@COldToolBar@@IAEXIVCPoint@@@Z 0043a4a0 f   OldTool.obj
 0001:000395a0       ?OnLButtonUp@COldToolBar@@IAEXIVCPoint@@@Z 0043a5a0 f   OldTool.obj
 0001:00039740       ?OnCancelMode@COldToolBar@@IAEXXZ 0043a740 f   OldTool.obj
 0001:00039800       ?OnSysColorChange@COldToolBar@@IAEXXZ 0043a800 f   OldTool.obj
 0001:000398a0       ?Enable@COldToolCmdUI@@UAEXH@Z 0043a8a0 f   OldTool.obj
 0001:000399c0       ?SetCheck@COldToolCmdUI@@UAEXH@Z 0043a9c0 f   OldTool.obj
 0001:00039b10       ?SetText@COldToolCmdUI@@UAEXPBD@Z 0043ab10 f   OldTool.obj
 0001:00039b30       ?OnUpdateCmdUI@COldToolBar@@MAEXPAVCFrameWnd@@H@Z 0043ab30 f   OldTool.obj
 0001:00039bc0       ??0COldToolCmdUI@@QAE@XZ   0043abc0 f i OldTool.obj
 0001:00039bf0       ?UpdateButton@COldToolBar@@IAEXH@Z 0043abf0 f   OldTool.obj
 0001:00039c80       ?AssertValid@COldToolBar@@UBEXXZ 0043ac80 f   OldTool.obj
 0001:00039ca0       ?Dump@COldToolBar@@UBEXAAVCDumpContext@@@Z 0043aca0 f   OldTool.obj
 0001:00039ea0       ??0COldStatusBar@@QAE@XZ   0043aea0 f   Oldstat.obj
 0001:0003a040       ??_GCOldStatusBar@@UAEPAXI@Z 0043b040 f i Oldstat.obj
 0001:0003a040       ??_ECOldStatusBar@@UAEPAXI@Z 0043b040 f i Oldstat.obj
 0001:0003a080       ?OnWinIniChange@COldStatusBar@@IAEXPBD@Z 0043b080 f   Oldstat.obj
 0001:0003a110       ??1COldStatusBar@@UAE@XZ   0043b110 f   Oldstat.obj
 0001:0003a1c0       ?PreCreateWindow@COldStatusBar@@UAEHAAUtagCREATESTRUCTA@@@Z 0043b1c0 f   Oldstat.obj
 0001:0003a210       ?Create@COldStatusBar@@QAEHPAVCWnd@@KI@Z 0043b210 f   Oldstat.obj
 0001:0003a2c0       ?SetIndicators@COldStatusBar@@QAEHPBIH@Z 0043b2c0 f   Oldstat.obj
 0001:0003a5c0       ?_GetBaseClass@COldStatusBar@@KGPAUCRuntimeClass@@XZ 0043b5c0 f   Oldstat.obj
 0001:0003a5e0       ?GetRuntimeClass@COldStatusBar@@UBEPAUCRuntimeClass@@XZ 0043b5e0 f   Oldstat.obj
 0001:0003a670       ??1_AFX_TOOLBAR_TERM@@QAE@XZ 0043b670 f i OldTool.obj
 0001:0003a6b0       ??0COldToolBar@@QAE@XZ     0043b6b0 f   OldTool.obj
 0001:0003a8a0       ??_ECOldToolBar@@UAEPAXI@Z 0043b8a0 f i OldTool.obj
 0001:0003a8a0       ??_GCOldToolBar@@UAEPAXI@Z 0043b8a0 f i OldTool.obj
 0001:0003a8e0       ??1COldToolBar@@UAE@XZ     0043b8e0 f   OldTool.obj
 0001:0003a940       ?Create@COldToolBar@@QAEHPAVCWnd@@KI@Z 0043b940 f   OldTool.obj
 0001:0003a9f0       ?SetSizes@COldToolBar@@QAEXUtagSIZE@@0@Z 0043b9f0 f   OldTool.obj
 0001:0003ab20       ?SetHeight@COldToolBar@@QAEXH@Z 0043bb20 f   OldTool.obj
 0001:0003ac00       ?LoadBitmapA@COldToolBar@@QAEHI@Z 0043bc00 f   OldTool.obj
 0001:0003ac30       ?LoadBitmapA@COldToolBar@@QAEHPBD@Z 0043bc30 f   OldTool.obj
 0001:0003ad10       ?SetButtons@COldToolBar@@QAEHPBIH@Z 0043bd10 f   OldTool.obj
 0001:0003aec0       ?_GetBaseClass@COldToolBar@@KGPAUCRuntimeClass@@XZ 0043bec0 f   OldTool.obj
 0001:0003aee0       ?GetRuntimeClass@COldToolBar@@UBEPAUCRuntimeClass@@XZ 0043bee0 f   OldTool.obj
 0002:00000000       __imp__InitAuxiDLL@0       0043f000     Auxi_D32:Auxi_D32.dll
 0002:00000004       \177Auxi_D32_NULL_THUNK_DATA 0043f004     Auxi_D32:Auxi_D32.dll
 0002:00000008       __imp_?InitDlgIn@CCreOpMgr@@QAEXXZ 0043f008     CMgr_D32:CMgr_D32.dll
 0002:0000000c       __imp_?CreateorActivateCreIn@CCreOpMgr@@QAEIIJ@Z 0043f00c     CMgr_D32:CMgr_D32.dll
 0002:00000010       __imp_?GoodByeCreIn@CCreOpMgr@@QAEIIJ@Z 0043f010     CMgr_D32:CMgr_D32.dll
 0002:00000014       __imp_??0CCreOpMgr@@QAE@XZ 0043f014     CMgr_D32:CMgr_D32.dll
 0002:00000018       __imp_??1CCreOpMgr@@UAE@XZ 0043f018     CMgr_D32:CMgr_D32.dll
 0002:0000001c       __imp_?ModeLessOff@CNodCreOp@@QAEXXZ 0043f01c     CMgr_D32:CMgr_D32.dll
 0002:00000020       __imp_?UpdateCreIn@CCreOpMgr@@QAEIIJ@Z 0043f020     CMgr_D32:CMgr_D32.dll
 0002:00000024       __imp_?CancelCreIn@CCreOpMgr@@QAEIIJ@Z 0043f024     CMgr_D32:CMgr_D32.dll
 0002:00000028       __imp_?ReSetToolID@CCreOpMgr@@QAEIIII@Z 0043f028     CMgr_D32:CMgr_D32.dll
 0002:0000002c       __imp_?ModeLessOn@CNodCreOp@@QAEXXZ 0043f02c     CMgr_D32:CMgr_D32.dll
 0002:00000030       __imp_?OnEBoxMouseMove_O3D@CO3DCreOp@@QAEXPAVCClientDC@@PAVCView@@W4GENERATE@@IVCPoint@@@Z 0043f030     CMgr_D32:CMgr_D32.dll
 0002:00000034       __imp_?OnEBoxMouseMove_SOL@CSolCreOp@@QAEXPAVCClientDC@@PAVCView@@W4GENERATE@@IVCPoint@@@Z 0043f034     CMgr_D32:CMgr_D32.dll
 0002:00000038       __imp_?OnEBoxMouseMove_PAT@CPatCreOp@@QAEXPAVCClientDC@@PAVCView@@W4GENERATE@@IVCPoint@@@Z 0043f038     CMgr_D32:CMgr_D32.dll
 0002:0000003c       __imp_?OnEBoxMouseMove_CUR@CCurCreOp@@QAEXPAVCClientDC@@PAVCView@@W4GENERATE@@IVCPoint@@@Z 0043f03c     CMgr_D32:CMgr_D32.dll
 0002:00000040       __imp_?OnEBoxMouseMove_NOD@CNodCreOp@@QAEXPAVCClientDC@@PAVCView@@W4GENERATE@@IVCPoint@@@Z 0043f040     CMgr_D32:CMgr_D32.dll
 0002:00000044       __imp_?SetViewCursor@CCreOpMgr@@QAEXH@Z 0043f044     CMgr_D32:CMgr_D32.dll
 0002:00000048       __imp_?OnEBoxLButtonDown_O3D@CO3DCreOp@@QAEXPAVCClientDC@@PAVCView@@W4GENERATE@@IVCPoint@@@Z 0043f048     CMgr_D32:CMgr_D32.dll
 0002:0000004c       __imp_?OnEBoxLButtonDown_SOL@CSolCreOp@@QAEXPAVCClientDC@@PAVCView@@W4GENERATE@@IVCPoint@@@Z 0043f04c     CMgr_D32:CMgr_D32.dll
 0002:00000050       __imp_?OnEBoxLButtonDown_PAT@CPatCreOp@@QAEXPAVCClientDC@@PAVCView@@W4GENERATE@@IVCPoint@@@Z 0043f050     CMgr_D32:CMgr_D32.dll
 0002:00000054       __imp_?OnEBoxLButtonDown_CUR@CCurCreOp@@QAEXPAVCClientDC@@PAVCView@@W4GENERATE@@IVCPoint@@@Z 0043f054     CMgr_D32:CMgr_D32.dll
 0002:00000058       __imp_?OnEBoxLButtonDown_NOD@CNodCreOp@@QAEXPAVCClientDC@@PAVCView@@W4GENERATE@@IVCPoint@@@Z 0043f058     CMgr_D32:CMgr_D32.dll
 0002:0000005c       __imp_?OnEBoxLButtonUp_O3D@CO3DCreOp@@QAEXPAVCClientDC@@PAVCView@@W4GENERATE@@IVCPoint@@@Z 0043f05c     CMgr_D32:CMgr_D32.dll
 0002:00000060       __imp_?OnEBoxLButtonUp_SOL@CSolCreOp@@QAEXPAVCClientDC@@PAVCView@@W4GENERATE@@IVCPoint@@@Z 0043f060     CMgr_D32:CMgr_D32.dll
 0002:00000064       __imp_?OnEBoxLButtonUp_PAT@CPatCreOp@@QAEXPAVCClientDC@@PAVCView@@W4GENERATE@@IVCPoint@@@Z 0043f064     CMgr_D32:CMgr_D32.dll
 0002:00000068       __imp_?OnEBoxLButtonUp_CUR@CCurCreOp@@QAEXPAVCClientDC@@PAVCView@@W4GENERATE@@IVCPoint@@@Z 0043f068     CMgr_D32:CMgr_D32.dll
 0002:0000006c       __imp_?OnEBoxLButtonUp_NOD@CNodCreOp@@QAEXPAVCClientDC@@PAVCView@@W4GENERATE@@IVCPoint@@@Z 0043f06c     CMgr_D32:CMgr_D32.dll
 0002:00000070       __imp_?OnEBoxRButtonDown_O3D@CO3DCreOp@@QAEXPAVCClientDC@@PAVCView@@W4GENERATE@@IVCPoint@@@Z 0043f070     CMgr_D32:CMgr_D32.dll
 0002:00000074       __imp_?OnEBoxRButtonDown_SOL@CSolCreOp@@QAEXPAVCClientDC@@PAVCView@@W4GENERATE@@IVCPoint@@@Z 0043f074     CMgr_D32:CMgr_D32.dll
 0002:00000078       __imp_?OnEBoxRButtonDown_PAT@CPatCreOp@@QAEXPAVCClientDC@@PAVCView@@W4GENERATE@@IVCPoint@@@Z 0043f078     CMgr_D32:CMgr_D32.dll
 0002:0000007c       __imp_?OnEBoxRButtonDown_CUR@CCurCreOp@@QAEXPAVCClientDC@@PAVCView@@W4GENERATE@@IVCPoint@@@Z 0043f07c     CMgr_D32:CMgr_D32.dll
 0002:00000080       __imp_?OnEBoxRButtonDown_NOD@CNodCreOp@@QAEXPAVCClientDC@@PAVCView@@W4GENERATE@@IVCPoint@@@Z 0043f080     CMgr_D32:CMgr_D32.dll
 0002:00000084       __imp_?OnEBoxRButtonUp_O3D@CO3DCreOp@@QAEXPAVCClientDC@@PAVCView@@W4GENERATE@@IVCPoint@@@Z 0043f084     CMgr_D32:CMgr_D32.dll
 0002:00000088       __imp_?OnEBoxRButtonUp_SOL@CSolCreOp@@QAEXPAVCClientDC@@PAVCView@@W4GENERATE@@IVCPoint@@@Z 0043f088     CMgr_D32:CMgr_D32.dll
 0002:0000008c       __imp_?OnEBoxRButtonUp_PAT@CPatCreOp@@QAEXPAVCClientDC@@PAVCView@@W4GENERATE@@IVCPoint@@@Z 0043f08c     CMgr_D32:CMgr_D32.dll
 0002:00000090       __imp_?OnEBoxRButtonUp_NOD@CNodCreOp@@QAEXPAVCClientDC@@PAVCView@@W4GENERATE@@IVCPoint@@@Z 0043f090     CMgr_D32:CMgr_D32.dll
 0002:00000094       __imp_?OnEBoxRButtonUp_CUR@CCurCreOp@@QAEXPAVCClientDC@@PAVCView@@W4GENERATE@@IVCPoint@@@Z 0043f094     CMgr_D32:CMgr_D32.dll
 0002:00000098       __imp__InitCMgrDLL@0       0043f098     CMgr_D32:CMgr_D32.dll
 0002:0000009c       \177CMgr_D32_NULL_THUNK_DATA 0043f09c     CMgr_D32:CMgr_D32.dll
 0002:000000a0       __imp_??1CCreOMMgr@@UAE@XZ 0043f0a0     CreM_D32:CreM_D32.dll
 0002:000000a4       __imp_??0CCreOMMgr@@QAE@XZ 0043f0a4     CreM_D32:CreM_D32.dll
 0002:000000a8       __imp_?InitDlgIn@CCreOMMgr@@QAEXXZ 0043f0a8     CreM_D32:CreM_D32.dll
 0002:000000ac       __imp_?CreateorActivateCreIn@CCreOMMgr@@QAEIIJ@Z 0043f0ac     CreM_D32:CreM_D32.dll
 0002:000000b0       __imp_?GoodByeCreIn@CCreOMMgr@@QAEIIJ@Z 0043f0b0     CreM_D32:CreM_D32.dll
 0002:000000b4       __imp_?UpdateCreIn@CCreOMMgr@@QAEIIJ@Z 0043f0b4     CreM_D32:CreM_D32.dll
 0002:000000b8       __imp_?CancelCreIn@CCreOMMgr@@QAEIIJ@Z 0043f0b8     CreM_D32:CreM_D32.dll
 0002:000000bc       __imp_?ReSetToolID@CCreOMMgr@@QAEIIII@Z 0043f0bc     CreM_D32:CreM_D32.dll
 0002:000000c0       __imp_?ModeLessOn@CNodCreOM@@QAEXXZ 0043f0c0     CreM_D32:CreM_D32.dll
 0002:000000c4       __imp_?ModeLessOff@CNodCreOM@@QAEXXZ 0043f0c4     CreM_D32:CreM_D32.dll
 0002:000000c8       __imp_?OnEBoxMouseMove_PAT@CPatCreOM@@QAEXPAVCClientDC@@PAVCView@@W4GENERATE@@IVCPoint@@@Z 0043f0c8     CreM_D32:CreM_D32.dll
 0002:000000cc       __imp_?OnEBoxMouseMove_CUR@CCurCreOM@@QAEXPAVCClientDC@@PAVCView@@W4GENERATE@@IVCPoint@@@Z 0043f0cc     CreM_D32:CreM_D32.dll
 0002:000000d0       __imp_?OnEBoxMouseMove_NOD@CNodCreOM@@QAEXPAVCClientDC@@PAVCView@@W4GENERATE@@IVCPoint@@@Z 0043f0d0     CreM_D32:CreM_D32.dll
 0002:000000d4       __imp_?SetViewCursor@CCreOMMgr@@QAEXH@Z 0043f0d4     CreM_D32:CreM_D32.dll
 0002:000000d8       __imp_?OnEBoxLButtonDown_PAT@CPatCreOM@@QAEXPAVCClientDC@@PAVCView@@W4GENERATE@@IVCPoint@@@Z 0043f0d8     CreM_D32:CreM_D32.dll
 0002:000000dc       __imp_?OnEBoxLButtonDown_CUR@CCurCreOM@@QAEXPAVCClientDC@@PAVCView@@W4GENERATE@@IVCPoint@@@Z 0043f0dc     CreM_D32:CreM_D32.dll
 0002:000000e0       __imp_?OnEBoxLButtonDown_NOD@CNodCreOM@@QAEXPAVCClientDC@@PAVCView@@W4GENERATE@@IVCPoint@@@Z 0043f0e0     CreM_D32:CreM_D32.dll
 0002:000000e4       __imp_?OnEBoxLButtonUp_PAT@CPatCreOM@@QAEXPAVCClientDC@@PAVCView@@W4GENERATE@@IVCPoint@@@Z 0043f0e4     CreM_D32:CreM_D32.dll
 0002:000000e8       __imp_?OnEBoxLButtonUp_CUR@CCurCreOM@@QAEXPAVCClientDC@@PAVCView@@W4GENERATE@@IVCPoint@@@Z 0043f0e8     CreM_D32:CreM_D32.dll
 0002:000000ec       __imp_?OnEBoxLButtonUp_NOD@CNodCreOM@@QAEXPAVCClientDC@@PAVCView@@W4GENERATE@@IVCPoint@@@Z 0043f0ec     CreM_D32:CreM_D32.dll
 0002:000000f0       __imp_?OnEBoxRButtonDown_PAT@CPatCreOM@@QAEXPAVCClientDC@@PAVCView@@W4GENERATE@@IVCPoint@@@Z 0043f0f0     CreM_D32:CreM_D32.dll
 0002:000000f4       __imp_?OnEBoxRButtonDown_CUR@CCurCreOM@@QAEXPAVCClientDC@@PAVCView@@W4GENERATE@@IVCPoint@@@Z 0043f0f4     CreM_D32:CreM_D32.dll
 0002:000000f8       __imp_?OnEBoxRButtonDown_NOD@CNodCreOM@@QAEXPAVCClientDC@@PAVCView@@W4GENERATE@@IVCPoint@@@Z 0043f0f8     CreM_D32:CreM_D32.dll
 0002:000000fc       __imp_?OnEBoxRButtonUp_PAT@CPatCreOM@@QAEXPAVCClientDC@@PAVCView@@W4GENERATE@@IVCPoint@@@Z 0043f0fc     CreM_D32:CreM_D32.dll
 0002:00000100       __imp_?OnEBoxRButtonUp_CUR@CCurCreOM@@QAEXPAVCClientDC@@PAVCView@@W4GENERATE@@IVCPoint@@@Z 0043f100     CreM_D32:CreM_D32.dll
 0002:00000104       __imp_?OnEBoxRButtonUp_NOD@CNodCreOM@@QAEXPAVCClientDC@@PAVCView@@W4GENERATE@@IVCPoint@@@Z 0043f104     CreM_D32:CreM_D32.dll
 0002:00000108       __imp__InitCreMDLL@0       0043f108     CreM_D32:CreM_D32.dll
 0002:0000010c       \177CreM_D32_NULL_THUNK_DATA 0043f10c     CreM_D32:CreM_D32.dll
 0002:00000110       __imp_??0CDbObjMgr@@QAE@XZ 0043f110     DBase_D32:DBase_D32.dll
 0002:00000114       __imp__InitDBaseDLL@0      0043f114     DBase_D32:DBase_D32.dll
 0002:00000118       __imp_?classC3WaySplitterFrame@C3WaySplitterFrame@@2UCRuntimeClass@@B 0043f118     DBase_D32:DBase_D32.dll
 0002:0000011c       __imp_?classCDrTreeVu@CDrTreeVu@@2UCRuntimeClass@@B 0043f11c     DBase_D32:DBase_D32.dll
 0002:00000120       __imp_??1CDbObjMgr@@UAE@XZ 0043f120     DBase_D32:DBase_D32.dll
 0002:00000124       \177DBase_D32_NULL_THUNK_DATA 0043f124     DBase_D32:DBase_D32.dll
 0002:00000128       __imp_??0CDrawBox@@QAE@XZ  0043f128     DBox_D32:DBox_D32.dll
 0002:0000012c       __imp_?GetWidth@CDrawBox@@QAEIXZ 0043f12c     DBox_D32:DBox_D32.dll
 0002:00000130       __imp_?GetHeight@CDrawBox@@QAEIXZ 0043f130     DBox_D32:DBox_D32.dll
 0002:00000134       __imp_??0CVOprBox@@QAE@XZ  0043f134     DBox_D32:DBox_D32.dll
 0002:00000138       __imp_??1CVOprBox@@UAE@XZ  0043f138     DBox_D32:DBox_D32.dll
 0002:0000013c       __imp_??1CDrawBox@@UAE@XZ  0043f13c     DBox_D32:DBox_D32.dll
 0002:00000140       __imp__InitDBoxDLL@0       0043f140     DBox_D32:DBox_D32.dll
 0002:00000144       \177DBox_D32_NULL_THUNK_DATA 0043f144     DBox_D32:DBox_D32.dll
 0002:00000148       __imp__InitDDlgDLL@0       0043f148     DDlg_D32:DDlg_D32.dll
 0002:0000014c       \177DDlg_D32_NULL_THUNK_DATA 0043f14c     DDlg_D32:DDlg_D32.dll
 0002:00000150       __imp__InitDMgrDLL@0       0043f150     DMGR_D32:DMgr_D32.dll
 0002:00000154       __imp_?OnEBoxLButtonDown_SUP@CSupDel@@QAEXPAVCClientDC@@PAVCView@@W4GENERATE@@IVCPoint@@@Z 0043f154     DMGR_D32:DMgr_D32.dll
 0002:00000158       __imp_?OnEBoxLButtonDown_SLD@CSLDDel@@QAEXPAVCClientDC@@PAVCView@@W4GENERATE@@IVCPoint@@@Z 0043f158     DMGR_D32:DMgr_D32.dll
 0002:0000015c       __imp_?OnEBoxLButtonDown_SOL@CSolDel@@QAEXPAVCClientDC@@PAVCView@@W4GENERATE@@IVCPoint@@@Z 0043f15c     DMGR_D32:DMgr_D32.dll
 0002:00000160       __imp_?OnEBoxLButtonDown_PAT@CPatDel@@QAEXPAVCClientDC@@PAVCView@@W4GENERATE@@IVCPoint@@@Z 0043f160     DMGR_D32:DMgr_D32.dll
 0002:00000164       __imp_?OnEBoxLButtonDown_CUR@CCurDel@@QAEXPAVCClientDC@@PAVCView@@W4GENERATE@@IVCPoint@@@Z 0043f164     DMGR_D32:DMgr_D32.dll
 0002:00000168       __imp_?OnEBoxLButtonDown_NOD@CNodDel@@QAEXPAVCClientDC@@PAVCView@@W4GENERATE@@IVCPoint@@@Z 0043f168     DMGR_D32:DMgr_D32.dll
 0002:0000016c       __imp_?OnEBoxLButtonUp_SUP@CSupDel@@QAEXPAVCClientDC@@PAVCView@@W4GENERATE@@IVCPoint@@@Z 0043f16c     DMGR_D32:DMgr_D32.dll
 0002:00000170       __imp_?OnEBoxLButtonUp_SOL@CSolDel@@QAEXPAVCClientDC@@PAVCView@@W4GENERATE@@IVCPoint@@@Z 0043f170     DMGR_D32:DMgr_D32.dll
 0002:00000174       __imp_?SetViewCursor@CDelMgr@@QAEXH@Z 0043f174     DMGR_D32:DMgr_D32.dll
 0002:00000178       __imp_?OnEBoxLButtonUp_CUR@CCurDel@@QAEXPAVCClientDC@@PAVCView@@W4GENERATE@@IVCPoint@@@Z 0043f178     DMGR_D32:DMgr_D32.dll
 0002:0000017c       __imp_?OnEBoxLButtonUp_NOD@CNodDel@@QAEXPAVCClientDC@@PAVCView@@W4GENERATE@@IVCPoint@@@Z 0043f17c     DMGR_D32:DMgr_D32.dll
 0002:00000180       __imp_?OnEBoxRButtonDown_SLD@CSLDDel@@QAEXPAVCClientDC@@PAVCView@@W4GENERATE@@IVCPoint@@@Z 0043f180     DMGR_D32:DMgr_D32.dll
 0002:00000184       __imp_?OnEBoxRButtonDown_SUP@CSupDel@@QAEXPAVCClientDC@@PAVCView@@W4GENERATE@@IVCPoint@@@Z 0043f184     DMGR_D32:DMgr_D32.dll
 0002:00000188       __imp_?OnEBoxRButtonDown_SOL@CSolDel@@QAEXPAVCClientDC@@PAVCView@@W4GENERATE@@IVCPoint@@@Z 0043f188     DMGR_D32:DMgr_D32.dll
 0002:0000018c       __imp_?OnEBoxRButtonDown_PAT@CPatDel@@QAEXPAVCClientDC@@PAVCView@@W4GENERATE@@IVCPoint@@@Z 0043f18c     DMGR_D32:DMgr_D32.dll
 0002:00000190       __imp_?OnEBoxRButtonUp_NOD@CNodDel@@QAEXPAVCClientDC@@PAVCView@@W4GENERATE@@IVCPoint@@@Z 0043f190     DMGR_D32:DMgr_D32.dll
 0002:00000194       __imp_?OnEBoxRButtonUp_CUR@CCurDel@@QAEXPAVCClientDC@@PAVCView@@W4GENERATE@@IVCPoint@@@Z 0043f194     DMGR_D32:DMgr_D32.dll
 0002:00000198       __imp_??1CDelMgr@@UAE@XZ   0043f198     DMGR_D32:DMgr_D32.dll
 0002:0000019c       __imp_??0CDelMgr@@QAE@XZ   0043f19c     DMGR_D32:DMgr_D32.dll
 0002:000001a0       __imp_?OnEBoxMouseMove_NOD@CNodDel@@QAEXPAVCClientDC@@PAVCView@@W4GENERATE@@IVCPoint@@@Z 0043f1a0     DMGR_D32:DMgr_D32.dll
 0002:000001a4       __imp_?OnEBoxMouseMove_CUR@CCurDel@@QAEXPAVCClientDC@@PAVCView@@W4GENERATE@@IVCPoint@@@Z 0043f1a4     DMGR_D32:DMgr_D32.dll
 0002:000001a8       __imp_?OnEBoxMouseMove_PAT@CPatDel@@QAEXPAVCClientDC@@PAVCView@@W4GENERATE@@IVCPoint@@@Z 0043f1a8     DMGR_D32:DMgr_D32.dll
 0002:000001ac       __imp_?OnEBoxLButtonUp_SLD@CSLDDel@@QAEXPAVCClientDC@@PAVCView@@W4GENERATE@@IVCPoint@@@Z 0043f1ac     DMGR_D32:DMgr_D32.dll
 0002:000001b0       __imp_?OnEBoxMouseMove_SOL@CSolDel@@QAEXPAVCClientDC@@PAVCView@@W4GENERATE@@IVCPoint@@@Z 0043f1b0     DMGR_D32:DMgr_D32.dll
 0002:000001b4       __imp_?OnEBoxMouseMove_SUP@CSupDel@@QAEXPAVCClientDC@@PAVCView@@W4GENERATE@@IVCPoint@@@Z 0043f1b4     DMGR_D32:DMgr_D32.dll
 0002:000001b8       __imp_?OnEBoxMouseMove_SLD@CSLDDel@@QAEXPAVCClientDC@@PAVCView@@W4GENERATE@@IVCPoint@@@Z 0043f1b8     DMGR_D32:DMgr_D32.dll
 0002:000001bc       __imp_?OnEBoxLButtonUp_PAT@CPatDel@@QAEXPAVCClientDC@@PAVCView@@W4GENERATE@@IVCPoint@@@Z 0043f1bc     DMGR_D32:DMgr_D32.dll
 0002:000001c0       __imp_?OnEBoxRButtonUp_PAT@CPatDel@@QAEXPAVCClientDC@@PAVCView@@W4GENERATE@@IVCPoint@@@Z 0043f1c0     DMGR_D32:DMgr_D32.dll
 0002:000001c4       __imp_?OnEBoxRButtonUp_SOL@CSolDel@@QAEXPAVCClientDC@@PAVCView@@W4GENERATE@@IVCPoint@@@Z 0043f1c4     DMGR_D32:DMgr_D32.dll
 0002:000001c8       __imp_?OnEBoxRButtonUp_SUP@CSupDel@@QAEXPAVCClientDC@@PAVCView@@W4GENERATE@@IVCPoint@@@Z 0043f1c8     DMGR_D32:DMgr_D32.dll
 0002:000001cc       __imp_?OnEBoxRButtonUp_SLD@CSLDDel@@QAEXPAVCClientDC@@PAVCView@@W4GENERATE@@IVCPoint@@@Z 0043f1cc     DMGR_D32:DMgr_D32.dll
 0002:000001d0       __imp_?OnEBoxRButtonDown_NOD@CNodDel@@QAEXPAVCClientDC@@PAVCView@@W4GENERATE@@IVCPoint@@@Z 0043f1d0     DMGR_D32:DMgr_D32.dll
 0002:000001d4       __imp_?OnEBoxRButtonDown_CUR@CCurDel@@QAEXPAVCClientDC@@PAVCView@@W4GENERATE@@IVCPoint@@@Z 0043f1d4     DMGR_D32:DMgr_D32.dll
 0002:000001d8       __imp_?ReSetToolID@CDelMgr@@QAEIIII@Z 0043f1d8     DMGR_D32:DMgr_D32.dll
 0002:000001dc       \177DMgr_D32_NULL_THUNK_DATA 0043f1dc     DMGR_D32:DMgr_D32.dll
 0002:000001e0       __imp__InitDeckDLL@0       0043f1e0     Deck_D32:Deck_D32.dll
 0002:000001e4       __imp_?UpdateDeckList@CDeckMgr@@QAEXXZ 0043f1e4     Deck_D32:Deck_D32.dll
 0002:000001e8       __imp_??0CDeckMgr@@QAE@XZ  0043f1e8     Deck_D32:Deck_D32.dll
 0002:000001ec       __imp_??1CDeckMgr@@UAE@XZ  0043f1ec     Deck_D32:Deck_D32.dll
 0002:000001f0       \177Deck_D32_NULL_THUNK_DATA 0043f1f0     Deck_D32:Deck_D32.dll
 0002:000001f4       __imp_?ComposeWin3DtoScreen3DMATRIX@CXForm@@UAEXPAUMATRIX@@UWORLD@@1@Z 0043f1f4     Dr3D_D32:Dr3D_D32.dll
 0002:000001f8       __imp_?ComposeCombineMATRIX@CXForm@@UAEXPAUMATRIX@@00@Z 0043f1f8     Dr3D_D32:Dr3D_D32.dll
 0002:000001fc       __imp_?PerToParCVVMATRIX@CXForm@@UAEXPAUMATRIX@@N@Z 0043f1fc     Dr3D_D32:Dr3D_D32.dll
 0002:00000200       __imp_?Transform@CXForm@@UAEXPAUWORLD@@0PAUMATRIX@@@Z 0043f200     Dr3D_D32:Dr3D_D32.dll
 0002:00000204       __imp_??0CXForm@@QAE@H@Z   0043f204     Dr3D_D32:Dr3D_D32.dll
 0002:00000208       __imp_?ComposeViewMATRIX@CXForm@@UAENPAUMATRIX@@UWORLD@@1111NNNN@Z 0043f208     Dr3D_D32:Dr3D_D32.dll
 0002:0000020c       __imp_??1CXForm@@UAE@XZ    0043f20c     Dr3D_D32:Dr3D_D32.dll
 0002:00000210       __imp_?Project@CXForm@@UAEXPAUMATRIX@@PAUWORLD@@1@Z 0043f210     Dr3D_D32:Dr3D_D32.dll
 0002:00000214       __imp_?GetIdentityMATRIX@C3DMath@@QAEXPAUMATRIX@@@Z 0043f214     Dr3D_D32:Dr3D_D32.dll
 0002:00000218       __imp_?TransformPerToParCVV@CXForm@@UAEXNPAUWORLD@@0@Z 0043f218     Dr3D_D32:Dr3D_D32.dll
 0002:0000021c       __imp_?Scale3DPts@C3DMath@@QAEXNPAUWORLD@@@Z 0043f21c     Dr3D_D32:Dr3D_D32.dll
 0002:00000220       __imp__InitDr3DDLL@0       0043f220     Dr3D_D32:Dr3D_D32.dll
 0002:00000224       __imp_??1C3DMath@@UAE@XZ   0043f224     Dr3D_D32:Dr3D_D32.dll
 0002:00000228       __imp_??0C3DMath@@QAE@XZ   0043f228     Dr3D_D32:Dr3D_D32.dll
 0002:0000022c       __imp_?Set3DPts@C3DMath@@QAEXPAUWORLD@@NNN@Z 0043f22c     Dr3D_D32:Dr3D_D32.dll
 0002:00000230       \177Dr3D_D32_NULL_THUNK_DATA 0043f230     Dr3D_D32:Dr3D_D32.dll
 0002:00000234       __imp__InitDrawDLL@0       0043f234     Draw_D32:Draw_D32.dll
 0002:00000238       \177Draw_D32_NULL_THUNK_DATA 0043f238     Draw_D32:Draw_D32.dll
 0002:0000023c       __imp__InitEBoxDLL@0       0043f23c     EBox_D32:EBox_D32.dll
 0002:00000240       \177EBox_D32_NULL_THUNK_DATA 0043f240     EBox_D32:EBox_D32.dll
 0002:00000244       __imp__InitEDlgDLL@0       0043f244     EDlg_D32:EDlg_D32.dll
 0002:00000248       \177EDlg_D32_NULL_THUNK_DATA 0043f248     EDlg_D32:EDlg_D32.dll
 0002:0000024c       __imp_?OnEBoxRButtonUp_NOD@CNodEdit@@QAEXPAVCClientDC@@PAVCView@@W4GENERATE@@IVCPoint@@@Z 0043f24c     EMgr_D32:EMgr_D32.dll
 0002:00000250       __imp_?OnEBoxRButtonUp_CUR@CCurEdit@@QAEXPAVCClientDC@@PAVCView@@W4GENERATE@@IVCPoint@@@Z 0043f250     EMgr_D32:EMgr_D32.dll
 0002:00000254       __imp_?OnEBoxRButtonUp_PAT@CPatEdit@@QAEXPAVCClientDC@@PAVCView@@W4GENERATE@@IVCPoint@@@Z 0043f254     EMgr_D32:EMgr_D32.dll
 0002:00000258       __imp_?OnEBoxRButtonUp_SOL@CSolEdit@@QAEXPAVCClientDC@@PAVCView@@W4GENERATE@@IVCPoint@@@Z 0043f258     EMgr_D32:EMgr_D32.dll
 0002:0000025c       __imp_?OnEBoxRButtonUp_SUP@CSupEdit@@QAEXPAVCClientDC@@PAVCView@@W4GENERATE@@IVCPoint@@@Z 0043f25c     EMgr_D32:EMgr_D32.dll
 0002:00000260       __imp_?OnEBoxRButtonUp_SLD@CSLDEdit@@QAEXPAVCClientDC@@PAVCView@@W4GENERATE@@IVCPoint@@@Z 0043f260     EMgr_D32:EMgr_D32.dll
 0002:00000264       __imp_?OnEBoxRButtonDown_NOD@CNodEdit@@QAEXPAVCClientDC@@PAVCView@@W4GENERATE@@IVCPoint@@@Z 0043f264     EMgr_D32:EMgr_D32.dll
 0002:00000268       __imp_?OnEBoxRButtonDown_CUR@CCurEdit@@QAEXPAVCClientDC@@PAVCView@@W4GENERATE@@IVCPoint@@@Z 0043f268     EMgr_D32:EMgr_D32.dll
 0002:0000026c       __imp_?OnEBoxRButtonDown_PAT@CPatEdit@@QAEXPAVCClientDC@@PAVCView@@W4GENERATE@@IVCPoint@@@Z 0043f26c     EMgr_D32:EMgr_D32.dll
 0002:00000270       __imp_?OnEBoxRButtonDown_SOL@CSolEdit@@QAEXPAVCClientDC@@PAVCView@@W4GENERATE@@IVCPoint@@@Z 0043f270     EMgr_D32:EMgr_D32.dll
 0002:00000274       __imp_?OnEBoxRButtonDown_SUP@CSupEdit@@QAEXPAVCClientDC@@PAVCView@@W4GENERATE@@IVCPoint@@@Z 0043f274     EMgr_D32:EMgr_D32.dll
 0002:00000278       __imp_?OnEBoxRButtonDown_SLD@CSLDEdit@@QAEXPAVCClientDC@@PAVCView@@W4GENERATE@@IVCPoint@@@Z 0043f278     EMgr_D32:EMgr_D32.dll
 0002:0000027c       __imp_?OnEBoxLButtonUp_NOD@CNodEdit@@QAEXPAVCClientDC@@PAVCView@@W4GENERATE@@IVCPoint@@@Z 0043f27c     EMgr_D32:EMgr_D32.dll
 0002:00000280       __imp_?OnEBoxLButtonUp_CUR@CCurEdit@@QAEXPAVCClientDC@@PAVCView@@W4GENERATE@@IVCPoint@@@Z 0043f280     EMgr_D32:EMgr_D32.dll
 0002:00000284       __imp_?OnEBoxLButtonUp_PAT@CPatEdit@@QAEXPAVCClientDC@@PAVCView@@W4GENERATE@@IVCPoint@@@Z 0043f284     EMgr_D32:EMgr_D32.dll
 0002:00000288       __imp_?OnEBoxLButtonUp_SUP@CSupEdit@@QAEXPAVCClientDC@@PAVCView@@W4GENERATE@@IVCPoint@@@Z 0043f288     EMgr_D32:EMgr_D32.dll
 0002:0000028c       __imp_?OnEBoxLButtonUp_SLD@CSLDEdit@@QAEXPAVCClientDC@@PAVCView@@W4GENERATE@@IVCPoint@@@Z 0043f28c     EMgr_D32:EMgr_D32.dll
 0002:00000290       __imp_?OnEBoxLButtonDown_NOD@CNodEdit@@QAEXPAVCClientDC@@PAVCView@@W4GENERATE@@IVCPoint@@@Z 0043f290     EMgr_D32:EMgr_D32.dll
 0002:00000294       __imp_?OnEBoxLButtonDown_CUR@CCurEdit@@QAEXPAVCClientDC@@PAVCView@@W4GENERATE@@IVCPoint@@@Z 0043f294     EMgr_D32:EMgr_D32.dll
 0002:00000298       __imp_?OnEBoxLButtonDown_PAT@CPatEdit@@QAEXPAVCClientDC@@PAVCView@@W4GENERATE@@IVCPoint@@@Z 0043f298     EMgr_D32:EMgr_D32.dll
 0002:0000029c       __imp_?OnEBoxLButtonDown_SOL@CSolEdit@@QAEXPAVCClientDC@@PAVCView@@W4GENERATE@@IVCPoint@@@Z 0043f29c     EMgr_D32:EMgr_D32.dll
 0002:000002a0       __imp_?OnEBoxLButtonDown_SUP@CSupEdit@@QAEXPAVCClientDC@@PAVCView@@W4GENERATE@@IVCPoint@@@Z 0043f2a0     EMgr_D32:EMgr_D32.dll
 0002:000002a4       __imp_?OnEBoxLButtonDown_SLD@CSLDEdit@@QAEXPAVCClientDC@@PAVCView@@W4GENERATE@@IVCPoint@@@Z 0043f2a4     EMgr_D32:EMgr_D32.dll
 0002:000002a8       __imp_?SetViewCursor@CEditMgr@@QAEXH@Z 0043f2a8     EMgr_D32:EMgr_D32.dll
 0002:000002ac       __imp_?OnEBoxMouseMove_NOD@CNodEdit@@QAEXPAVCClientDC@@PAVCView@@W4GENERATE@@IVCPoint@@@Z 0043f2ac     EMgr_D32:EMgr_D32.dll
 0002:000002b0       __imp_?OnEBoxMouseMove_CUR@CCurEdit@@QAEXPAVCClientDC@@PAVCView@@W4GENERATE@@IVCPoint@@@Z 0043f2b0     EMgr_D32:EMgr_D32.dll
 0002:000002b4       __imp_?OnEBoxMouseMove_SOL@CSolEdit@@QAEXPAVCClientDC@@PAVCView@@W4GENERATE@@IVCPoint@@@Z 0043f2b4     EMgr_D32:EMgr_D32.dll
 0002:000002b8       __imp_?OnEBoxMouseMove_SUP@CSupEdit@@QAEXPAVCClientDC@@PAVCView@@W4GENERATE@@IVCPoint@@@Z 0043f2b8     EMgr_D32:EMgr_D32.dll
 0002:000002bc       __imp_?OnEBoxMouseMove_SLD@CSLDEdit@@QAEXPAVCClientDC@@PAVCView@@W4GENERATE@@IVCPoint@@@Z 0043f2bc     EMgr_D32:EMgr_D32.dll
 0002:000002c0       __imp_?ReSetToolID@CEditMgr@@QAEIIII@Z 0043f2c0     EMgr_D32:EMgr_D32.dll
 0002:000002c4       __imp_??0CEditMgr@@QAE@XZ  0043f2c4     EMgr_D32:EMgr_D32.dll
 0002:000002c8       __imp_??1CEditMgr@@UAE@XZ  0043f2c8     EMgr_D32:EMgr_D32.dll
 0002:000002cc       __imp__InitEMgrDLL@0       0043f2cc     EMgr_D32:EMgr_D32.dll
 0002:000002d0       __imp_?OnEBoxLButtonUp_SOL@CSolEdit@@QAEXPAVCClientDC@@PAVCView@@W4GENERATE@@IVCPoint@@@Z 0043f2d0     EMgr_D32:EMgr_D32.dll
 0002:000002d4       __imp_?OnEBoxMouseMove_PAT@CPatEdit@@QAEXPAVCClientDC@@PAVCView@@W4GENERATE@@IVCPoint@@@Z 0043f2d4     EMgr_D32:EMgr_D32.dll
 0002:000002d8       \177EMgr_D32_NULL_THUNK_DATA 0043f2d8     EMgr_D32:EMgr_D32.dll
 0002:000002dc       __imp__InitElemDLL@0       0043f2dc     Elem_D32:Elem_D32.dll
 0002:000002e0       \177Elem_D32_NULL_THUNK_DATA 0043f2e0     Elem_D32:Elem_D32.dll
 0002:000002e4       __imp__CreateBitmap@20     0043f2e4     gdi32:GDI32.dll
 0002:000002e8       __imp__PatBlt@24           0043f2e8     gdi32:GDI32.dll
 0002:000002ec       __imp__SetBkColor@8        0043f2ec     gdi32:GDI32.dll
 0002:000002f0       __imp__CreateFontIndirectA@4 0043f2f0     gdi32:GDI32.dll
 0002:000002f4       __imp__GetDeviceCaps@8     0043f2f4     gdi32:GDI32.dll
 0002:000002f8       __imp__CreatePen@12        0043f2f8     gdi32:GDI32.dll
 0002:000002fc       __imp__CreateSolidBrush@4  0043f2fc     gdi32:GDI32.dll
 0002:00000300       __imp__CreateCompatibleDC@4 0043f300     gdi32:GDI32.dll
 0002:00000304       __imp__CreateCompatibleBitmap@12 0043f304     gdi32:GDI32.dll
 0002:00000308       __imp__CreatePatternBrush@4 0043f308     gdi32:GDI32.dll
 0002:0000030c       __imp__SelectPalette@12    0043f30c     gdi32:GDI32.dll
 0002:00000310       __imp__SetStretchBltMode@8 0043f310     gdi32:GDI32.dll
 0002:00000314       __imp__SetDIBitsToDevice@48 0043f314     gdi32:GDI32.dll
 0002:00000318       __imp__StretchDIBits@52    0043f318     gdi32:GDI32.dll
 0002:0000031c       __imp__BitBlt@36           0043f31c     gdi32:GDI32.dll
 0002:00000320       __imp__CreateDIBitmap@24   0043f320     gdi32:GDI32.dll
 0002:00000324       __imp__DeleteDC@4          0043f324     gdi32:GDI32.dll
 0002:00000328       __imp__DeleteObject@4      0043f328     gdi32:GDI32.dll
 0002:0000032c       __imp__GetStockObject@4    0043f32c     gdi32:GDI32.dll
 0002:00000330       __imp__SelectObject@8      0043f330     gdi32:GDI32.dll
 0002:00000334       \177GDI32_NULL_THUNK_DATA  0043f334     gdi32:GDI32.dll
 0002:00000338       __imp__InitIGenDLL@0       0043f338     IGBx_D32:IGBx_D32.dll
 0002:0000033c       __imp_??1CMGenBox@@UAE@XZ  0043f33c     IGBx_D32:IGBx_D32.dll
 0002:00000340       __imp_??1CIGenBox@@UAE@XZ  0043f340     IGBx_D32:IGBx_D32.dll
 0002:00000344       __imp_??1CCntlBox@@UAE@XZ  0043f344     IGBx_D32:IGBx_D32.dll
 0002:00000348       __imp_??1CEDimBox@@UAE@XZ  0043f348     IGBx_D32:IGBx_D32.dll
 0002:0000034c       __imp_??0CMainBox@@QAE@XZ  0043f34c     IGBx_D32:IGBx_D32.dll
 0002:00000350       __imp_??0CMGenBox@@QAE@XZ  0043f350     IGBx_D32:IGBx_D32.dll
 0002:00000354       __imp_??0CIGenBox@@QAE@XZ  0043f354     IGBx_D32:IGBx_D32.dll
 0002:00000358       __imp_??0CCntlBox@@QAE@XZ  0043f358     IGBx_D32:IGBx_D32.dll
 0002:0000035c       __imp_??0CEDimBox@@QAE@XZ  0043f35c     IGBx_D32:IGBx_D32.dll
 0002:00000360       __imp_?GetHeight@CBoxWnd@@QAEIXZ 0043f360     IGBx_D32:IGBx_D32.dll
 0002:00000364       __imp_?GetWidth@CBoxWnd@@QAEIXZ 0043f364     IGBx_D32:IGBx_D32.dll
 0002:00000368       __imp_?SetElemLim@CMouse@@QAEXW4ELEMDIMLIM@@@Z 0043f368     IGBx_D32:IGBx_D32.dll
 0002:0000036c       __imp_?SetProbLim@CMouse@@QAEXW4PROBDIMLIM@@@Z 0043f36c     IGBx_D32:IGBx_D32.dll
 0002:00000370       __imp_??1CMainBox@@UAE@XZ  0043f370     IGBx_D32:IGBx_D32.dll
 0002:00000374       \177IGBx_D32_NULL_THUNK_DATA 0043f374     IGBx_D32:IGBx_D32.dll
 0002:00000378       __imp__GetModuleHandleA@4  0043f378     kernel32:KERNEL32.dll
 0002:0000037c       __imp__FindResourceA@12    0043f37c     kernel32:KERNEL32.dll
 0002:00000380       __imp__LoadResource@8      0043f380     kernel32:KERNEL32.dll
 0002:00000384       __imp__LockResource@4      0043f384     kernel32:KERNEL32.dll
 0002:00000388       __imp__FreeResource@4      0043f388     kernel32:KERNEL32.dll
 0002:0000038c       __imp__lstrlenA@4          0043f38c     kernel32:KERNEL32.dll
 0002:00000390       __imp__lstrcmpA@8          0043f390     kernel32:KERNEL32.dll
 0002:00000394       __imp__MulDiv@12           0043f394     kernel32:KERNEL32.dll
 0002:00000398       __imp__lstrcpyA@8          0043f398     kernel32:KERNEL32.dll
 0002:0000039c       __imp__GetVersion@0        0043f39c     kernel32:KERNEL32.dll
 0002:000003a0       __imp__GlobalAlloc@8       0043f3a0     kernel32:KERNEL32.dll
 0002:000003a4       __imp__GlobalMemoryStatus@4 0043f3a4     kernel32:KERNEL32.dll
 0002:000003a8       __imp__GetTickCount@0      0043f3a8     kernel32:KERNEL32.dll
 0002:000003ac       __imp__GlobalLock@4        0043f3ac     kernel32:KERNEL32.dll
 0002:000003b0       __imp__GlobalUnlock@4      0043f3b0     kernel32:KERNEL32.dll
 0002:000003b4       __imp__GlobalFree@4        0043f3b4     kernel32:KERNEL32.dll
 0002:000003b8       __imp__GetStartupInfoA@4   0043f3b8     kernel32:KERNEL32.dll
 0002:000003bc       \177KERNEL32_NULL_THUNK_DATA 0043f3bc     kernel32:KERNEL32.dll
 0002:000003c0       __imp__InitMCurDLL@0       0043f3c0     MCur_D32:MCur_D32.dll
 0002:000003c4       \177MCur_D32_NULL_THUNK_DATA 0043f3c4     MCur_D32:MCur_D32.dll
 0002:000003c8       __imp_?SetTextColor@CDC@@UAEKK@Z 0043f3c8     mfc42d:MFC42D.DLL
 0002:000003cc       __imp_?SelectObject@CDC@@UAEPAVCFont@@PAV2@@Z 0043f3cc     mfc42d:MFC42D.DLL
 0002:000003d0       __imp_?Detach@CDC@@QAEPAUHDC__@@XZ 0043f3d0     mfc42d:MFC42D.DLL
 0002:000003d4       __imp_?GetTextExtent@CDC@@QBE?AVCSize@@ABVCString@@@Z 0043f3d4     mfc42d:MFC42D.DLL
 0002:000003d8       __imp_?Attach@CDC@@QAEHPAUHDC__@@@Z 0043f3d8     mfc42d:MFC42D.DLL
 0002:000003dc       __imp_?OnRButtonUp@CWnd@@IAEXIVCPoint@@@Z 0043f3dc     mfc42d:MFC42D.DLL
 0002:000003e0       __imp_?GetParent@CWnd@@QBEPAV1@XZ 0043f3e0     mfc42d:MFC42D.DLL
 0002:000003e4       __imp_?BitBlt@CDC@@QAEHHHHHPAV1@HHK@Z 0043f3e4     mfc42d:MFC42D.DLL
 0002:000003e8       __imp_?Find@CString@@QBEHPBD@Z 0043f3e8     mfc42d:MFC42D.DLL
 0002:000003ec       __imp_?DelayShow@CControlBar@@UAEXH@Z 0043f3ec     mfc42d:MFC42D.DLL
 0002:000003f0       __imp_?CalcDynamicLayout@CControlBar@@UAE?AVCSize@@HK@Z 0043f3f0     mfc42d:MFC42D.DLL
 0002:000003f4       __imp_?CalcFixedLayout@CStatusBar@@UAE?AVCSize@@HH@Z 0043f3f4     mfc42d:MFC42D.DLL
 0002:000003f8       __imp_?OnChildNotify@CStatusBar@@MAEHIIJPAJ@Z 0043f3f8     mfc42d:MFC42D.DLL
 0002:000003fc       __imp_?PostNcDestroy@CControlBar@@UAEXXZ 0043f3fc     mfc42d:MFC42D.DLL
 0002:00000400       __imp_?WindowProc@CControlBar@@UAEJIIJ@Z 0043f400     mfc42d:MFC42D.DLL
 0002:00000404       __imp_?PreTranslateMessage@CControlBar@@UAEHPAUtagMSG@@@Z 0043f404     mfc42d:MFC42D.DLL
 0002:00000408       __imp_?PreCreateWindow@CStatusBar@@UAEHAAUtagCREATESTRUCTA@@@Z 0043f408     mfc42d:MFC42D.DLL
 0002:0000040c       __imp_?DestroyWindow@CControlBar@@UAEHXZ 0043f40c     mfc42d:MFC42D.DLL
 0002:00000410       __imp_?GetMessageMap@CStatusBar@@MBEPBUAFX_MSGMAP@@XZ 0043f410     mfc42d:MFC42D.DLL
 0002:00000414       __imp_?OnCreate@CWnd@@IAEHPAUtagCREATESTRUCTA@@@Z 0043f414     mfc42d:MFC42D.DLL
 0002:00000418       __imp_?Mid@CString@@QBE?AV1@HH@Z 0043f418     mfc42d:MFC42D.DLL
 0002:0000041c       __imp_?Dump@CStatusBar@@UBEXAAVCDumpContext@@@Z 0043f41c     mfc42d:MFC42D.DLL
 0002:00000420       __imp_?DoScrollBy@CSplitterWnd@@UAEHPAVCView@@VCSize@@H@Z 0043f420     mfc42d:MFC42D.DLL
 0002:00000424       __imp_?DoScroll@CSplitterWnd@@UAEHPAVCView@@IH@Z 0043f424     mfc42d:MFC42D.DLL
 0002:00000428       __imp_?AssertValid@CStatusBar@@UBEXXZ 0043f428     mfc42d:MFC42D.DLL
 0002:0000042c       __imp_?PatBlt@CDC@@QAEHHHHHK@Z 0043f42c     mfc42d:MFC42D.DLL
 0002:00000430       __imp_?OnClose@CFrameWnd@@IAEXXZ 0043f430     mfc42d:MFC42D.DLL
 0002:00000434       __imp_?IsZoomed@CWnd@@QBEHXZ 0043f434     mfc42d:MFC42D.DLL
 0002:00000438       __imp_?GetRuntimeClass@CStatusBar@@UBEPAUCRuntimeClass@@XZ 0043f438     mfc42d:MFC42D.DLL
 0002:0000043c       __imp_?GetWindowPlacement@CWnd@@QBEHPAUtagWINDOWPLACEMENT@@@Z 0043f43c     mfc42d:MFC42D.DLL
 0002:00000440       __imp_?KillTimer@CWnd@@QAEHH@Z 0043f440     mfc42d:MFC42D.DLL
 0002:00000444       __imp_?MDITile@CMDIFrameWnd@@QAEXH@Z 0043f444     mfc42d:MFC42D.DLL
 0002:00000448       __imp_?DoKeyboardSplit@CSplitterWnd@@UAEHXZ 0043f448     mfc42d:MFC42D.DLL
 0002:0000044c       __imp_?ActivateNext@CSplitterWnd@@UAEXH@Z 0043f44c     mfc42d:MFC42D.DLL
 0002:00000450       __imp_?CanActivateNext@CSplitterWnd@@UAEHH@Z 0043f450     mfc42d:MFC42D.DLL
 0002:00000454       __imp_?SetActivePane@CSplitterWnd@@UAEXHHPAVCWnd@@@Z 0043f454     mfc42d:MFC42D.DLL
 0002:00000458       __imp_?DeleteColumn@CSplitterWnd@@UAEXH@Z 0043f458     mfc42d:MFC42D.DLL
 0002:0000045c       __imp_?DeleteRow@CSplitterWnd@@UAEXH@Z 0043f45c     mfc42d:MFC42D.DLL
 0002:00000460       __imp_?SplitColumn@CSplitterWnd@@UAEHH@Z 0043f460     mfc42d:MFC42D.DLL
 0002:00000464       __imp_?LoadBitmapA@CBitmap@@QAEHI@Z 0043f464     mfc42d:MFC42D.DLL
 0002:00000468       __imp_?SplitRow@CSplitterWnd@@UAEHH@Z 0043f468     mfc42d:MFC42D.DLL
 0002:0000046c       __imp_?DeleteView@CSplitterWnd@@UAEXHH@Z 0043f46c     mfc42d:MFC42D.DLL
 0002:00000470       __imp_?CreateScrollBarCtrl@CSplitterWnd@@UAEHKI@Z 0043f470     mfc42d:MFC42D.DLL
 0002:00000474       __imp_?OnInvertTracker@CSplitterWnd@@MAEXABVCRect@@@Z 0043f474     mfc42d:MFC42D.DLL
 0002:00000478       __imp_?OnDrawSplitter@CSplitterWnd@@MAEXPAVCDC@@W4ESplitType@1@ABVCRect@@@Z 0043f478     mfc42d:MFC42D.DLL
 0002:0000047c       __imp_?RecalcLayout@CSplitterWnd@@UAEXXZ 0043f47c     mfc42d:MFC42D.DLL
 0002:00000480       __imp_?CreateView@CSplitterWnd@@UAEHHHPAUCRuntimeClass@@UtagSIZE@@PAUCCreateContext@@@Z 0043f480     mfc42d:MFC42D.DLL
 0002:00000484       __imp_?OnNotify@CSplitterWnd@@MAEHIJPAJ@Z 0043f484     mfc42d:MFC42D.DLL
 0002:00000488       __imp_?OnCommand@CSplitterWnd@@MAEHIJ@Z 0043f488     mfc42d:MFC42D.DLL
 0002:0000048c       __imp_?GetMessageMap@CSplitterWnd@@MBEPBUAFX_MSGMAP@@XZ 0043f48c     mfc42d:MFC42D.DLL
 0002:00000490       __imp_?Dump@CSplitterWnd@@UBEXAAVCDumpContext@@@Z 0043f490     mfc42d:MFC42D.DLL
 0002:00000494       __imp_?AssertValid@CSplitterWnd@@UBEXXZ 0043f494     mfc42d:MFC42D.DLL
 0002:00000498       __imp_?GetFocus@CWnd@@SGPAV1@XZ 0043f498     mfc42d:MFC42D.DLL
 0002:0000049c       __imp_??H@YG?AVCString@@ABV0@PBD@Z 0043f49c     mfc42d:MFC42D.DLL
 0002:000004a0       __imp_?CreatePalette@CPalette@@QAEHPAUtagLOGPALETTE@@@Z 0043f4a0     mfc42d:MFC42D.DLL
 0002:000004a4       __imp_?ReadHuge@CFile@@QAEKPAXK@Z 0043f4a4     mfc42d:MFC42D.DLL
 0002:000004a8       __imp_?AfxDeleteObject@@YGXPAPAX@Z 0043f4a8     mfc42d:MFC42D.DLL
 0002:000004ac       __imp_?OnBarStyleChange@CControlBar@@UAEXKK@Z 0043f4ac     mfc42d:MFC42D.DLL
 0002:000004b0       __imp_??1CControlBar@@UAE@XZ 0043f4b0     mfc42d:MFC42D.DLL
 0002:000004b4       __imp_?AfxCustomLogFont@@YGHIPAUtagLOGFONTA@@@Z 0043f4b4     mfc42d:MFC42D.DLL
 0002:000004b8       __imp_??0CControlBar@@IAE@XZ 0043f4b8     mfc42d:MFC42D.DLL
 0002:000004bc       __imp_?CalcInsideRect@CControlBar@@QBEXAAVCRect@@H@Z 0043f4bc     mfc42d:MFC42D.DLL
 0002:000004c0       __imp_?PreCreateWindow@CControlBar@@UAEHAAUtagCREATESTRUCTA@@@Z 0043f4c0     mfc42d:MFC42D.DLL
 0002:000004c4       __imp_?SetRectEmpty@CRect@@QAEXXZ 0043f4c4     mfc42d:MFC42D.DLL
 0002:000004c8       __imp_?SelectObject@CDC@@QAEPAXPAX@Z 0043f4c8     mfc42d:MFC42D.DLL
 0002:000004cc       __imp_?AllocElements@CControlBar@@QAEHHH@Z 0043f4cc     mfc42d:MFC42D.DLL
 0002:000004d0       __imp_?InflateRect@CRect@@QAEXHH@Z 0043f4d0     mfc42d:MFC42D.DLL
 0002:000004d4       __imp_?SetTextAlign@CDC@@QAEII@Z 0043f4d4     mfc42d:MFC42D.DLL
 0002:000004d8       __imp_?OffsetRect@CRect@@QAEXHH@Z 0043f4d8     mfc42d:MFC42D.DLL
 0002:000004dc       __imp_?Draw3dRect@CDC@@QAEXPBUtagRECT@@KK@Z 0043f4dc     mfc42d:MFC42D.DLL
 0002:000004e0       __imp_?DestroyMenu@CMenu@@QAEHXZ 0043f4e0     mfc42d:MFC42D.DLL
 0002:000004e4       __imp_?messageMap@CControlBar@@1UAFX_MSGMAP@@B 0043f4e4     mfc42d:MFC42D.DLL
 0002:000004e8       __imp_?OnNcHitTest@CWnd@@IAEIVCPoint@@@Z 0043f4e8     mfc42d:MFC42D.DLL
 0002:000004ec       __imp_?PtInRect@CRect@@QBEHUtagPOINT@@@Z 0043f4ec     mfc42d:MFC42D.DLL
 0002:000004f0       __imp_?OnSysCommand@CWnd@@IAEXIJ@Z 0043f4f0     mfc42d:MFC42D.DLL
 0002:000004f4       __imp_?OnSize@CWnd@@IAEXIHH@Z 0043f4f4     mfc42d:MFC42D.DLL
 0002:000004f8       __imp_?OnSizeParent@CControlBar@@QAEJIJ@Z 0043f4f8     mfc42d:MFC42D.DLL
 0002:000004fc       __imp_?UpdateDialogControls@CWnd@@QAEXPAVCCmdTarget@@H@Z 0043f4fc     mfc42d:MFC42D.DLL
 0002:00000500       __imp_?DoUpdate@CCmdUI@@QAEHPAVCCmdTarget@@H@Z 0043f500     mfc42d:MFC42D.DLL
 0002:00000504       __imp_?SetRadio@CCmdUI@@UAEXH@Z 0043f504     mfc42d:MFC42D.DLL
 0002:00000508       __imp_??0CCmdUI@@QAE@XZ    0043f508     mfc42d:MFC42D.DLL
 0002:0000050c       __imp_?AssertValid@CControlBar@@UBEXXZ 0043f50c     mfc42d:MFC42D.DLL
 0002:00000510       __imp_??6CDumpContext@@QAEAAV0@H@Z 0043f510     mfc42d:MFC42D.DLL
 0002:00000514       __imp_?GetDepth@CDumpContext@@QBEHXZ 0043f514     mfc42d:MFC42D.DLL
 0002:00000518       __imp_??6CDumpContext@@QAEAAV0@I@Z 0043f518     mfc42d:MFC42D.DLL
 0002:0000051c       __imp_??6CDumpContext@@QAEAAV0@PBD@Z 0043f51c     mfc42d:MFC42D.DLL
 0002:00000520       __imp_?Dump@CControlBar@@UBEXAAVCDumpContext@@@Z 0043f520     mfc42d:MFC42D.DLL
 0002:00000524       __imp_?classCControlBar@CControlBar@@2UCRuntimeClass@@B 0043f524     mfc42d:MFC42D.DLL
 0002:00000528       __imp_?Draw3dRect@CDC@@QAEXHHHHKK@Z 0043f528     mfc42d:MFC42D.DLL
 0002:0000052c       __imp_?FillSolidRect@CDC@@QAEXHHHHK@Z 0043f52c     mfc42d:MFC42D.DLL
 0002:00000530       __imp_?AfxThrowResourceException@@YGXXZ 0043f530     mfc42d:MFC42D.DLL
 0002:00000534       __imp_??0CSize@@QAE@UtagSIZE@@@Z 0043f534     mfc42d:MFC42D.DLL
 0002:00000538       __imp_?GetParentFrame@CWnd@@QBEPAVCFrameWnd@@XZ 0043f538     mfc42d:MFC42D.DLL
 0002:0000053c       __imp_?CalcFixedLayout@CControlBar@@UAE?AVCSize@@HH@Z 0043f53c     mfc42d:MFC42D.DLL
 0002:00000540       __imp_?GetOwner@CWnd@@QBEPAV1@XZ 0043f540     mfc42d:MFC42D.DLL
 0002:00000544       __imp_?OnLButtonDown@CControlBar@@QAEXIVCPoint@@@Z 0043f544     mfc42d:MFC42D.DLL
 0002:00000548       __imp_?GetCapture@CWnd@@SGPAV1@XZ 0043f548     mfc42d:MFC42D.DLL
 0002:0000054c       __imp_?OnLButtonUp@CWnd@@IAEXIVCPoint@@@Z 0043f54c     mfc42d:MFC42D.DLL
 0002:00000550       __imp_?OnCancelMode@CWnd@@IAEXXZ 0043f550     mfc42d:MFC42D.DLL
 0002:00000554       __imp_??6@YGAAVCDumpContext@@AAV0@UtagSIZE@@@Z 0043f554     mfc42d:MFC42D.DLL
 0002:00000558       __imp_?DDX_CBString@@YGXPAVCDataExchange@@HAAVCString@@@Z 0043f558     mfc42d:MFC42D.DLL
 0002:0000055c       __imp_?DrawMenuBar@CWnd@@QAEXXZ 0043f55c     mfc42d:MFC42D.DLL
 0002:00000560       __imp_?MDISetMenu@CMDIFrameWnd@@QAEPAVCMenu@@PAV2@0@Z 0043f560     mfc42d:MFC42D.DLL
 0002:00000564       __imp_?GetDescendantWindow@CWnd@@QBEPAV1@HH@Z 0043f564     mfc42d:MFC42D.DLL
 0002:00000568       __imp_?IsVisible@CControlBar@@UBEHXZ 0043f568     mfc42d:MFC42D.DLL
 0002:0000056c       __imp_?RecalcDelayShow@CControlBar@@UAEKPAUAFX_SIZEPARENTPARAMS@@@Z 0043f56c     mfc42d:MFC42D.DLL
 0002:00000570       __imp_?IsDockBar@CControlBar@@UBEHXZ 0043f570     mfc42d:MFC42D.DLL
 0002:00000574       __imp_?OnBarStyleChange@CStatusBar@@UAEXKK@Z 0043f574     mfc42d:MFC42D.DLL
 0002:00000578       __imp_?DoPaint@CControlBar@@UAEXPAVCDC@@@Z 0043f578     mfc42d:MFC42D.DLL
 0002:0000057c       __imp_?SetStatusText@CControlBar@@UAEHH@Z 0043f57c     mfc42d:MFC42D.DLL
 0002:00000580       __imp_?DrawItem@CStatusBar@@UAEXPAUtagDRAWITEMSTRUCT@@@Z 0043f580     mfc42d:MFC42D.DLL
 0002:00000584       __imp_??0CMDIFrameWnd@@QAE@XZ 0043f584     mfc42d:MFC42D.DLL
 0002:00000588       __imp_??0CMenu@@QAE@XZ     0043f588     mfc42d:MFC42D.DLL
 0002:0000058c       __imp_??0CStatusBar@@QAE@XZ 0043f58c     mfc42d:MFC42D.DLL
 0002:00000590       __imp_?LoadMenuA@CMenu@@QAEHI@Z 0043f590     mfc42d:MFC42D.DLL
 0002:00000594       __imp_??1CMenu@@UAE@XZ     0043f594     mfc42d:MFC42D.DLL
 0002:00000598       __imp_??1CStatusBar@@UAE@XZ 0043f598     mfc42d:MFC42D.DLL
 0002:0000059c       __imp_?OnCmdMsg@CMDIFrameWnd@@UAEHIHPAXPAUAFX_CMDHANDLERINFO@@@Z 0043f59c     mfc42d:MFC42D.DLL
 0002:000005a0       __imp_?PreCreateWindow@CMDIFrameWnd@@UAEHAAUtagCREATESTRUCTA@@@Z 0043f5a0     mfc42d:MFC42D.DLL
 0002:000005a4       __imp_?OnCommand@CMDIFrameWnd@@MAEHIJ@Z 0043f5a4     mfc42d:MFC42D.DLL
 0002:000005a8       __imp_?PreTranslateMessage@CMDIFrameWnd@@UAEHPAUtagMSG@@@Z 0043f5a8     mfc42d:MFC42D.DLL
 0002:000005ac       __imp_?DefWindowProcA@CMDIFrameWnd@@MAEJIIJ@Z 0043f5ac     mfc42d:MFC42D.DLL
 0002:000005b0       __imp_?LoadFrame@CMDIFrameWnd@@UAEHIKPAVCWnd@@PAUCCreateContext@@@Z 0043f5b0     mfc42d:MFC42D.DLL
 0002:000005b4       __imp_?GetActiveFrame@CMDIFrameWnd@@UAEPAVCFrameWnd@@XZ 0043f5b4     mfc42d:MFC42D.DLL
 0002:000005b8       __imp_?ActivateFrame@CFrameWnd@@UAEXH@Z 0043f5b8     mfc42d:MFC42D.DLL
 0002:000005bc       __imp_?OnCreateClient@CMDIFrameWnd@@UAEHPAUtagCREATESTRUCTA@@PAUCCreateContext@@@Z 0043f5bc     mfc42d:MFC42D.DLL
 0002:000005c0       __imp_?OnUpdateFrameTitle@CMDIFrameWnd@@UAEXH@Z 0043f5c0     mfc42d:MFC42D.DLL
 0002:000005c4       __imp_?OnUpdateFrameMenu@CMDIFrameWnd@@UAEXPAUHMENU__@@@Z 0043f5c4     mfc42d:MFC42D.DLL
 0002:000005c8       __imp_?DelayUpdateFrameMenu@CMDIFrameWnd@@UAEXPAUHMENU__@@@Z 0043f5c8     mfc42d:MFC42D.DLL
 0002:000005cc       __imp_?CreateClient@CMDIFrameWnd@@UAEHPAUtagCREATESTRUCTA@@PAVCMenu@@@Z 0043f5cc     mfc42d:MFC42D.DLL
 0002:000005d0       __imp_?GetWindowMenuPopup@CMDIFrameWnd@@UAEPAUHMENU__@@PAU2@@Z 0043f5d0     mfc42d:MFC42D.DLL
 0002:000005d4       __imp_?messageMap@CMDIFrameWnd@@1UAFX_MSGMAP@@B 0043f5d4     mfc42d:MFC42D.DLL
 0002:000005d8       __imp_?classCMDIFrameWnd@CMDIFrameWnd@@2UCRuntimeClass@@B 0043f5d8     mfc42d:MFC42D.DLL
 0002:000005dc       __imp_?PreTranslateMessage@CWinThread@@UAEHPAUtagMSG@@@Z 0043f5dc     mfc42d:MFC42D.DLL
 0002:000005e0       __imp_?WriteProfileStringA@CWinApp@@QAEHPBD00@Z 0043f5e0     mfc42d:MFC42D.DLL
 0002:000005e4       __imp_??0CTime@@QAE@XZ     0043f5e4     mfc42d:MFC42D.DLL
 0002:000005e8       __imp_?GetStatus@CFile@@SGHPBDAAUCFileStatus@@@Z 0043f5e8     mfc42d:MFC42D.DLL
 0002:000005ec       __imp_?Close@CFile@@UAEXXZ 0043f5ec     mfc42d:MFC42D.DLL
 0002:000005f0       __imp_?OpenDocumentFile@CWinApp@@UAEPAVCDocument@@PBD@Z 0043f5f0     mfc42d:MFC42D.DLL
 0002:000005f4       __imp_?GetPathName@CDocument@@QBEABVCString@@XZ 0043f5f4     mfc42d:MFC42D.DLL
 0002:000005f8       __imp_??H@YG?AVCString@@PBDABV0@@Z 0043f5f8     mfc42d:MFC42D.DLL
 0002:000005fc       __imp_??YCString@@QAEABV0@ABV0@@Z 0043f5fc     mfc42d:MFC42D.DLL
 0002:00000600       __imp_?GetWindowTextA@CWnd@@QBEXAAVCString@@@Z 0043f600     mfc42d:MFC42D.DLL
 0002:00000604       __imp_?SetWindowTextA@CWnd@@QAEXPBD@Z 0043f604     mfc42d:MFC42D.DLL
 0002:00000608       __imp_?OnIdle@CWinApp@@UAEHJ@Z 0043f608     mfc42d:MFC42D.DLL
 0002:0000060c       __imp_??0CMultiDocTemplate@@QAE@IPAUCRuntimeClass@@00@Z 0043f60c     mfc42d:MFC42D.DLL
 0002:00000610       __imp_?AddDocTemplate@CWinApp@@QAEXPAVCDocTemplate@@@Z 0043f610     mfc42d:MFC42D.DLL
 0002:00000614       __imp_?rectDefault@CFrameWnd@@2VCRect@@B 0043f614     mfc42d:MFC42D.DLL
 0002:00000618       __imp_?Create@CFrameWnd@@QAEHPBD0KABUtagRECT@@PAVCWnd@@0KPAUCCreateContext@@@Z 0043f618     mfc42d:MFC42D.DLL
 0002:0000061c       __imp_?MDIGetActive@CMDIFrameWnd@@QBEPAVCMDIChildWnd@@PAH@Z 0043f61c     mfc42d:MFC42D.DLL
 0002:00000620       __imp_?SetPaneText@CStatusBar@@QAEHHPBDH@Z 0043f620     mfc42d:MFC42D.DLL
 0002:00000624       __imp_?OnSettingChange@CWnd@@IAEXIPBD@Z 0043f624     mfc42d:MFC42D.DLL
 0002:00000628       __imp_??0CSplitterWnd@@QAE@XZ 0043f628     mfc42d:MFC42D.DLL
 0002:0000062c       __imp_??1CSplitterWnd@@UAE@XZ 0043f62c     mfc42d:MFC42D.DLL
 0002:00000630       __imp_?SetActiveView@CFrameWnd@@QAEXPAVCView@@H@Z 0043f630     mfc42d:MFC42D.DLL
 0002:00000634       __imp_?GetPane@CSplitterWnd@@QBEPAVCWnd@@HH@Z 0043f634     mfc42d:MFC42D.DLL
 0002:00000638       __imp_?CreateStatic@CSplitterWnd@@QAEHPAVCWnd@@HHKI@Z 0043f638     mfc42d:MFC42D.DLL
 0002:0000063c       __imp_?classCSplitterWnd@CSplitterWnd@@2UCRuntimeClass@@B 0043f63c     mfc42d:MFC42D.DLL
 0002:00000640       __imp_?StopTracking@CSplitterWnd@@MAEXH@Z 0043f640     mfc42d:MFC42D.DLL
 0002:00000644       __imp_?StartTracking@CSplitterWnd@@MAEXH@Z 0043f644     mfc42d:MFC42D.DLL
 0002:00000648       __imp_?SetSplitCursor@CSplitterWnd@@MAEXH@Z 0043f648     mfc42d:MFC42D.DLL
 0002:0000064c       __imp_?DrawAllSplitBars@CSplitterWnd@@MAEXPAVCDC@@HH@Z 0043f64c     mfc42d:MFC42D.DLL
 0002:00000650       __imp_?TrackColumnSize@CSplitterWnd@@MAEXHH@Z 0043f650     mfc42d:MFC42D.DLL
 0002:00000654       __imp_?TrackRowSize@CSplitterWnd@@MAEXHH@Z 0043f654     mfc42d:MFC42D.DLL
 0002:00000658       __imp_?GetHitRect@CSplitterWnd@@MAEXHAAVCRect@@@Z 0043f658     mfc42d:MFC42D.DLL
 0002:0000065c       __imp_?GetInsideRect@CSplitterWnd@@MBEXAAVCRect@@@Z 0043f65c     mfc42d:MFC42D.DLL
 0002:00000660       __imp_?MessageBoxA@CWnd@@QAEHPBD0I@Z 0043f660     mfc42d:MFC42D.DLL
 0002:00000664       __imp_?SetTimer@CWnd@@QAEIIIP6GXPAUHWND__@@IIK@Z@Z 0043f664     mfc42d:MFC42D.DLL
 0002:00000668       __imp_?SetPaneInfo@CStatusBar@@QAEXHIIH@Z 0043f668     mfc42d:MFC42D.DLL
 0002:0000066c       __imp_?GetPaneInfo@CStatusBar@@QBEXHAAI0AAH@Z 0043f66c     mfc42d:MFC42D.DLL
 0002:00000670       __imp_?SetIndicators@CStatusBar@@QAEHPBIH@Z 0043f670     mfc42d:MFC42D.DLL
 0002:00000674       __imp_?Create@CStatusBar@@QAEHPAVCWnd@@KI@Z 0043f674     mfc42d:MFC42D.DLL
 0002:00000678       __imp_?OnCreate@CFrameWnd@@IAEHPAUtagCREATESTRUCTA@@@Z 0043f678     mfc42d:MFC42D.DLL
 0002:0000067c       __imp_?AssertValid@CMDIFrameWnd@@UBEXXZ 0043f67c     mfc42d:MFC42D.DLL
 0002:00000680       __imp_?Dump@CMDIFrameWnd@@UBEXAAVCDumpContext@@@Z 0043f680     mfc42d:MFC42D.DLL
 0002:00000684       __imp_?ClientToScreen@CWnd@@QBEXPAUtagRECT@@@Z 0043f684     mfc42d:MFC42D.DLL
 0002:00000688       __imp_?SetWindowPlacement@CWnd@@QAEHPBUtagWINDOWPLACEMENT@@@Z 0043f688     mfc42d:MFC42D.DLL
 0002:0000068c       __imp_??BCRect@@QBEPBUtagRECT@@XZ 0043f68c     mfc42d:MFC42D.DLL
 0002:00000690       __imp_?LoadStandardCursor@CWinApp@@QBEPAUHICON__@@PBD@Z 0043f690     mfc42d:MFC42D.DLL
 0002:00000694       __imp_?LoadCursorA@CWinApp@@QBEPAUHICON__@@I@Z 0043f694     mfc42d:MFC42D.DLL
 0002:00000698       __imp_?Enable3dControls@CWinApp@@IAEHXZ 0043f698     mfc42d:MFC42D.DLL
 0002:0000069c       __imp_?LoadStdProfileSettings@CWinApp@@IAEXI@Z 0043f69c     mfc42d:MFC42D.DLL
 0002:000006a0       __imp_?DragAcceptFiles@CWnd@@QAEXH@Z 0043f6a0     mfc42d:MFC42D.DLL
 0002:000006a4       __imp_?EnableShellOpen@CWinApp@@IAEXXZ 0043f6a4     mfc42d:MFC42D.DLL
 0002:000006a8       __imp_?RegisterShellFileTypes@CWinApp@@IAEXH@Z 0043f6a8     mfc42d:MFC42D.DLL
 0002:000006ac       __imp_??0CCommandLineInfo@@QAE@XZ 0043f6ac     mfc42d:MFC42D.DLL
 0002:000006b0       __imp_?ParseCommandLine@CWinApp@@QAEXAAVCCommandLineInfo@@@Z 0043f6b0     mfc42d:MFC42D.DLL
 0002:000006b4       __imp_??1CCommandLineInfo@@UAE@XZ 0043f6b4     mfc42d:MFC42D.DLL
 0002:000006b8       __imp_??0CWinApp@@QAE@PBD@Z 0043f6b8     mfc42d:MFC42D.DLL
 0002:000006bc       __imp_??1CWinApp@@UAE@XZ   0043f6bc     mfc42d:MFC42D.DLL
 0002:000006c0       __imp_?GetRuntimeClass@CWinApp@@UBEPAUCRuntimeClass@@XZ 0043f6c0     mfc42d:MFC42D.DLL
 0002:000006c4       __imp_?AssertValid@CWinApp@@UBEXXZ 0043f6c4     mfc42d:MFC42D.DLL
 0002:000006c8       __imp_?Dump@CWinApp@@UBEXAAVCDumpContext@@@Z 0043f6c8     mfc42d:MFC42D.DLL
 0002:000006cc       __imp_?Run@CWinApp@@UAEHXZ 0043f6cc     mfc42d:MFC42D.DLL
 0002:000006d0       __imp_?PumpMessage@CWinThread@@UAEHXZ 0043f6d0     mfc42d:MFC42D.DLL
 0002:000006d4       __imp_?IsIdleMessage@CWinThread@@UAEHPAUtagMSG@@@Z 0043f6d4     mfc42d:MFC42D.DLL
 0002:000006d8       __imp_?ExitInstance@CWinApp@@UAEHXZ 0043f6d8     mfc42d:MFC42D.DLL
 0002:000006dc       __imp_?ProcessWndProcException@CWinApp@@UAEJPAVCException@@PBUtagMSG@@@Z 0043f6dc     mfc42d:MFC42D.DLL
 0002:000006e0       __imp_?ProcessMessageFilter@CWinThread@@UAEHHPAUtagMSG@@@Z 0043f6e0     mfc42d:MFC42D.DLL
 0002:000006e4       __imp_?GetMainWnd@CWinThread@@UAEPAVCWnd@@XZ 0043f6e4     mfc42d:MFC42D.DLL
 0002:000006e8       __imp_?Delete@CWinThread@@UAEXXZ 0043f6e8     mfc42d:MFC42D.DLL
 0002:000006ec       __imp_?AddToRecentFileList@CWinApp@@UAEXPBD@Z 0043f6ec     mfc42d:MFC42D.DLL
 0002:000006f0       __imp_?InitApplication@CWinApp@@UAEHXZ 0043f6f0     mfc42d:MFC42D.DLL
 0002:000006f4       __imp_?SaveAllModified@CWinApp@@UAEHXZ 0043f6f4     mfc42d:MFC42D.DLL
 0002:000006f8       __imp_?IsEmpty@CString@@QBEHXZ 0043f6f8     mfc42d:MFC42D.DLL
 0002:000006fc       __imp_?GetLBText@CComboBox@@QBEXHAAVCString@@@Z 0043f6fc     mfc42d:MFC42D.DLL
 0002:00000700       __imp_?GetCurSel@CComboBox@@QBEHXZ 0043f700     mfc42d:MFC42D.DLL
 0002:00000704       __imp_?SetCurSel@CComboBox@@QAEHH@Z 0043f704     mfc42d:MFC42D.DLL
 0002:00000708       __imp_?AddString@CComboBox@@QAEHPBD@Z 0043f708     mfc42d:MFC42D.DLL
 0002:0000070c       __imp_?DoMessageBox@CWinApp@@UAEHPBDII@Z 0043f70c     mfc42d:MFC42D.DLL
 0002:00000710       __imp_?DoWaitCursor@CWinApp@@UAEXH@Z 0043f710     mfc42d:MFC42D.DLL
 0002:00000714       __imp_?OnDDECommand@CWinApp@@UAEHPAD@Z 0043f714     mfc42d:MFC42D.DLL
 0002:00000718       __imp_?WinHelpA@CWinApp@@UAEXKI@Z 0043f718     mfc42d:MFC42D.DLL
 0002:0000071c       __imp_?messageMap@CWinApp@@1UAFX_MSGMAP@@B 0043f71c     mfc42d:MFC42D.DLL
 0002:00000720       __imp_?OnFileNew@CWinApp@@IAEXXZ 0043f720     mfc42d:MFC42D.DLL
 0002:00000724       __imp_?OnFileOpen@CWinApp@@IAEXXZ 0043f724     mfc42d:MFC42D.DLL
 0002:00000728       __imp_?OnFilePrintSetup@CWinApp@@IAEXXZ 0043f728     mfc42d:MFC42D.DLL
 0002:0000072c       __imp_?OnHelpIndex@CWinApp@@IAEXXZ 0043f72c     mfc42d:MFC42D.DLL
 0002:00000730       __imp_?OnHelpUsing@CWinApp@@IAEXXZ 0043f730     mfc42d:MFC42D.DLL
 0002:00000734       __imp_?OnHelp@CWinApp@@IAEXXZ 0043f734     mfc42d:MFC42D.DLL
 0002:00000738       __imp_?OnContextHelp@CWinApp@@IAEXXZ 0043f738     mfc42d:MFC42D.DLL
 0002:0000073c       __imp_??8@YG_NABVCString@@PBD@Z 0043f73c     mfc42d:MFC42D.DLL
 0002:00000740       __imp_?OnOpenDocument@CDocument@@UAEHPBD@Z 0043f740     mfc42d:MFC42D.DLL
 0002:00000744       __imp_?AfxOleUnlockApp@@YGXXZ 0043f744     mfc42d:MFC42D.DLL
 0002:00000748       __imp_?AfxOleLockApp@@YGXXZ 0043f748     mfc42d:MFC42D.DLL
 0002:0000074c       __imp_?OnFinalRelease@CDocument@@UAEXXZ 0043f74c     mfc42d:MFC42D.DLL
 0002:00000750       __imp_?SetTitle@CDocument@@UAEXPBD@Z 0043f750     mfc42d:MFC42D.DLL
 0002:00000754       __imp_?IsModified@CDocument@@UAEHXZ 0043f754     mfc42d:MFC42D.DLL
 0002:00000758       __imp_?SetModifiedFlag@CDocument@@UAEXH@Z 0043f758     mfc42d:MFC42D.DLL
 0002:0000075c       __imp_?GetFirstViewPosition@CDocument@@UBEPAU__POSITION@@XZ 0043f75c     mfc42d:MFC42D.DLL
 0002:00000760       __imp_?GetNextView@CDocument@@UBEPAVCView@@AAPAU__POSITION@@@Z 0043f760     mfc42d:MFC42D.DLL
 0002:00000764       __imp_?OnChangedViewList@CDocument@@UAEXXZ 0043f764     mfc42d:MFC42D.DLL
 0002:00000768       __imp_?GetFile@CDocument@@UAEPAVCFile@@PBDIPAVCFileException@@@Z 0043f768     mfc42d:MFC42D.DLL
 0002:0000076c       __imp_?ReleaseFile@CDocument@@UAEXPAVCFile@@H@Z 0043f76c     mfc42d:MFC42D.DLL
 0002:00000770       __imp_?DoSave@CDocument@@UAEHPBDH@Z 0043f770     mfc42d:MFC42D.DLL
 0002:00000774       __imp_?DoFileSave@CDocument@@UAEHXZ 0043f774     mfc42d:MFC42D.DLL
 0002:00000778       __imp_?UpdateFrameCounts@CDocument@@UAEXXZ 0043f778     mfc42d:MFC42D.DLL
 0002:0000077c       __imp_?dispatchMap@CCmdTarget@@1UAFX_DISPMAP@@B 0043f77c     mfc42d:MFC42D.DLL
 0002:00000780       __imp_?messageMap@CDocument@@1UAFX_MSGMAP@@B 0043f780     mfc42d:MFC42D.DLL
 0002:00000784       __imp_?OnCreate@CMDIChildWnd@@IAEHPAUtagCREATESTRUCTA@@@Z 0043f784     mfc42d:MFC42D.DLL
 0002:00000788       __imp_?ResetContent@CComboBox@@QAEXXZ 0043f788     mfc42d:MFC42D.DLL
 0002:0000078c       __imp_?IntersectClipRect@CDC@@QAEHPBUtagRECT@@@Z 0043f78c     mfc42d:MFC42D.DLL
 0002:00000790       __imp_?GetRuntimeClass@CWnd@@UBEPAUCRuntimeClass@@XZ 0043f790     mfc42d:MFC42D.DLL
 0002:00000794       __imp_?GetBitmap@CBitmap@@QAEHPAUtagBITMAP@@@Z 0043f794     mfc42d:MFC42D.DLL
 0002:00000798       __imp_?AfxFindResourceHandle@@YGPAUHINSTANCE__@@PBD0@Z 0043f798     mfc42d:MFC42D.DLL
 0002:0000079c       __imp_?HitTest@CSplitterWnd@@MBEHVCPoint@@@Z 0043f79c     mfc42d:MFC42D.DLL
 0002:000007a0       __imp_?AfxWinMain@@YGHPAUHINSTANCE__@@0PADH@Z 0043f7a0     mfc42d:MFC42D.DLL
 0002:000007a4       __imp_?DeleteObject@CGdiObject@@QAEHXZ 0043f7a4     mfc42d:MFC42D.DLL
 0002:000007a8       __imp_??3CObject@@SGXPAX@Z 0043f7a8     mfc42d:MFC42D.DLL
 0002:000007ac       __imp_??2CObject@@SGPAXI@Z 0043f7ac     mfc42d:MFC42D.DLL
 0002:000007b0       __imp_?OnEndPrintPreview@CView@@MAEXPAVCDC@@PAUCPrintInfo@@UtagPOINT@@PAVCPreviewView@@@Z 0043f7b0     mfc42d:MFC42D.DLL
 0002:000007b4       __imp_?OnPrint@CView@@MAEXPAVCDC@@PAUCPrintInfo@@@Z 0043f7b4     mfc42d:MFC42D.DLL
 0002:000007b8       __imp_?OnActivateFrame@CView@@MAEXIPAVCFrameWnd@@@Z 0043f7b8     mfc42d:MFC42D.DLL
 0002:000007bc       __imp_?OnActivateView@CView@@MAEXHPAV1@0@Z 0043f7bc     mfc42d:MFC42D.DLL
 0002:000007c0       __imp_?OnDragScroll@CView@@UAEKKVCPoint@@@Z 0043f7c0     mfc42d:MFC42D.DLL
 0002:000007c4       __imp_?OnDropEx@CView@@UAEKPAVCOleDataObject@@KKVCPoint@@@Z 0043f7c4     mfc42d:MFC42D.DLL
 0002:000007c8       __imp_?OnDrop@CView@@UAEHPAVCOleDataObject@@KVCPoint@@@Z 0043f7c8     mfc42d:MFC42D.DLL
 0002:000007cc       __imp_?OnDragLeave@CView@@UAEXXZ 0043f7cc     mfc42d:MFC42D.DLL
 0002:000007d0       __imp_?OnDragOver@CView@@UAEKPAVCOleDataObject@@KVCPoint@@@Z 0043f7d0     mfc42d:MFC42D.DLL
 0002:000007d4       __imp_?OnDragEnter@CView@@UAEKPAVCOleDataObject@@KVCPoint@@@Z 0043f7d4     mfc42d:MFC42D.DLL
 0002:000007d8       __imp_?OnScrollBy@CScrollView@@UAEHVCSize@@H@Z 0043f7d8     mfc42d:MFC42D.DLL
 0002:000007dc       __imp_?OnScroll@CScrollView@@UAEHIIH@Z 0043f7dc     mfc42d:MFC42D.DLL
 0002:000007e0       __imp_?SetOccDialogInfo@CWnd@@MAEHPAU_AFX_OCC_DIALOG_INFO@@@Z 0043f7e0     mfc42d:MFC42D.DLL
 0002:000007e4       __imp_?IsFrameWnd@CWnd@@UBEHXZ 0043f7e4     mfc42d:MFC42D.DLL
 0002:000007e8       __imp_?CheckAutoCenter@CWnd@@UAEHXZ 0043f7e8     mfc42d:MFC42D.DLL
 0002:000007ec       __imp_?OnChildNotify@CWnd@@MAEHIIJPAJ@Z 0043f7ec     mfc42d:MFC42D.DLL
 0002:000007f0       __imp_?PostNcDestroy@CView@@MAEXXZ 0043f7f0     mfc42d:MFC42D.DLL
 0002:000007f4       __imp_?DefWindowProcA@CWnd@@MAEJIIJ@Z 0043f7f4     mfc42d:MFC42D.DLL
 0002:000007f8       __imp_?OnWndMsg@CWnd@@MAEHIIJPAJ@Z 0043f7f8     mfc42d:MFC42D.DLL
 0002:000007fc       __imp_?WindowProc@CWnd@@MAEJIIJ@Z 0043f7fc     mfc42d:MFC42D.DLL
 0002:00000800       __imp_?OnAmbientProperty@CWnd@@UAEHPAVCOleControlSite@@JPAUtagVARIANT@@@Z 0043f800     mfc42d:MFC42D.DLL
 0002:00000804       __imp_?PreTranslateMessage@CWnd@@UAEHPAUtagMSG@@@Z 0043f804     mfc42d:MFC42D.DLL
 0002:00000808       __imp_?EndModalState@CWnd@@UAEXXZ 0043f808     mfc42d:MFC42D.DLL
 0002:0000080c       __imp_?BeginModalState@CWnd@@UAEXXZ 0043f80c     mfc42d:MFC42D.DLL
 0002:00000810       __imp_?DoDataExchange@CWnd@@MAEXPAVCDataExchange@@@Z 0043f810     mfc42d:MFC42D.DLL
 0002:00000814       __imp_?GetSuperWndProcAddr@CWnd@@MAEPAP6GJPAUHWND__@@IIJ@ZXZ 0043f814     mfc42d:MFC42D.DLL
 0002:00000818       __imp_?OnNotify@CWnd@@MAEHIJPAJ@Z 0043f818     mfc42d:MFC42D.DLL
 0002:0000081c       __imp_?OnCommand@CWnd@@MAEHIJ@Z 0043f81c     mfc42d:MFC42D.DLL
 0002:00000820       __imp_?EndModalLoop@CWnd@@UAEXH@Z 0043f820     mfc42d:MFC42D.DLL
 0002:00000824       __imp_?ContinueModal@CWnd@@UAEHXZ 0043f824     mfc42d:MFC42D.DLL
 0002:00000828       __imp_?WinHelpA@CWnd@@UAEXKI@Z 0043f828     mfc42d:MFC42D.DLL
 0002:0000082c       __imp_?GetScrollBarCtrl@CView@@UBEPAVCScrollBar@@H@Z 0043f82c     mfc42d:MFC42D.DLL
 0002:00000830       __imp_?OnToolHitTest@CWnd@@UBEHVCPoint@@PAUtagTOOLINFOA@@@Z 0043f830     mfc42d:MFC42D.DLL
 0002:00000834       __imp_?CalcWindowRect@CScrollView@@UAEXPAUtagRECT@@I@Z 0043f834     mfc42d:MFC42D.DLL
 0002:00000838       __imp_?DestroyWindow@CWnd@@UAEHXZ 0043f838     mfc42d:MFC42D.DLL
 0002:0000083c       __imp_?Create@CWnd@@UAEHPBD0KABUtagRECT@@PAV1@IPAUCCreateContext@@@Z 0043f83c     mfc42d:MFC42D.DLL
 0002:00000840       __imp_?PreSubclassWindow@CWnd@@UAEXXZ 0043f840     mfc42d:MFC42D.DLL
 0002:00000844       __imp_?GetConnectionHook@CCmdTarget@@MAEPAUIConnectionPoint@@ABU_GUID@@@Z 0043f844     mfc42d:MFC42D.DLL
 0002:00000848       __imp_?GetExtraConnectionPoints@CCmdTarget@@MAEHPAVCPtrArray@@@Z 0043f848     mfc42d:MFC42D.DLL
 0002:0000084c       __imp_?GetInterfaceHook@CCmdTarget@@UAEPAUIUnknown@@PBX@Z 0043f84c     mfc42d:MFC42D.DLL
 0002:00000850       __imp_?OnCreateAggregates@CCmdTarget@@UAEHXZ 0043f850     mfc42d:MFC42D.DLL
 0002:00000854       __imp_?GetEventSinkMap@CCmdTarget@@MBEPBUAFX_EVENTSINKMAP@@XZ 0043f854     mfc42d:MFC42D.DLL
 0002:00000858       __imp_?GetInterfaceMap@CCmdTarget@@MBEPBUAFX_INTERFACEMAP@@XZ 0043f858     mfc42d:MFC42D.DLL
 0002:0000085c       __imp_?GetConnectionMap@CCmdTarget@@MBEPBUAFX_CONNECTIONMAP@@XZ 0043f85c     mfc42d:MFC42D.DLL
 0002:00000860       __imp_?GetDispatchMap@CCmdTarget@@MBEPBUAFX_DISPMAP@@XZ 0043f860     mfc42d:MFC42D.DLL
 0002:00000864       __imp_?GetCommandMap@CCmdTarget@@MBEPBUAFX_OLECMDMAP@@XZ 0043f864     mfc42d:MFC42D.DLL
 0002:00000868       __imp_?GetTypeLib@CCmdTarget@@UAEJKPAPAUITypeLib@@@Z 0043f868     mfc42d:MFC42D.DLL
 0002:0000086c       __imp_?GetTypeLibCache@CCmdTarget@@UAEPAVCTypeLibCache@@XZ 0043f86c     mfc42d:MFC42D.DLL
 0002:00000870       __imp_?GetTypeInfoCount@CCmdTarget@@UAEIXZ 0043f870     mfc42d:MFC42D.DLL
 0002:00000874       __imp_?GetDispatchIID@CCmdTarget@@UAEHPAU_GUID@@@Z 0043f874     mfc42d:MFC42D.DLL
 0002:00000878       __imp_?IsInvokeAllowed@CCmdTarget@@UAEHJ@Z 0043f878     mfc42d:MFC42D.DLL
 0002:0000087c       __imp_?OnFinalRelease@CWnd@@UAEXXZ 0043f87c     mfc42d:MFC42D.DLL
 0002:00000880       __imp_?OnCmdMsg@CView@@UAEHIHPAXPAUAFX_CMDHANDLERINFO@@@Z 0043f880     mfc42d:MFC42D.DLL
 0002:00000884       __imp_?Serialize@CObject@@UAEXAAVCArchive@@@Z 0043f884     mfc42d:MFC42D.DLL
 0002:00000888       __imp_?OnInitialUpdate@CView@@UAEXXZ 0043f888     mfc42d:MFC42D.DLL
 0002:0000088c       __imp_?Invalidate@CWnd@@QAEXH@Z 0043f88c     mfc42d:MFC42D.DLL
 0002:00000890       __imp_??BCRect@@QAEPAUtagRECT@@XZ 0043f890     mfc42d:MFC42D.DLL
 0002:00000894       __imp_??0CRect@@QAE@HHHH@Z 0043f894     mfc42d:MFC42D.DLL
 0002:00000898       __imp_?AfxAssertValidObject@@YGXPBVCObject@@PBDH@Z 0043f898     mfc42d:MFC42D.DLL
 0002:0000089c       __imp_?DoPreparePrinting@CView@@QAEHPAUCPrintInfo@@@Z 0043f89c     mfc42d:MFC42D.DLL
 0002:000008a0       __imp_?EndWaitCursor@CCmdTarget@@QAEXXZ 0043f8a0     mfc42d:MFC42D.DLL
 0002:000008a4       __imp_?AfxMessageBox@@YGHIII@Z 0043f8a4     mfc42d:MFC42D.DLL
 0002:000008a8       __imp_?AfxAssertFailedLine@@YGHPBDH@Z 0043f8a8     mfc42d:MFC42D.DLL
 0002:000008ac       __imp_?IsKindOf@CObject@@QBEHPBUCRuntimeClass@@@Z 0043f8ac     mfc42d:MFC42D.DLL
 0002:000008b0       __imp_?classCException@CException@@2UCRuntimeClass@@B 0043f8b0     mfc42d:MFC42D.DLL
 0002:000008b4       __imp_?UpdateAllViews@CDocument@@QAEXPAVCView@@JPAVCObject@@@Z 0043f8b4     mfc42d:MFC42D.DLL
 0002:000008b8       __imp_?AfxThrowMemoryException@@YGXXZ 0043f8b8     mfc42d:MFC42D.DLL
 0002:000008bc       __imp_??0AFX_EXCEPTION_LINK@@QAE@XZ 0043f8bc     mfc42d:MFC42D.DLL
 0002:000008c0       __imp_?BeginWaitCursor@CCmdTarget@@QAEXXZ 0043f8c0     mfc42d:MFC42D.DLL
 0002:000008c4       __imp_?AfxTryCleanup@@YGXXZ 0043f8c4     mfc42d:MFC42D.DLL
 0002:000008c8       __imp_?OnSetFocus@CWnd@@IAEXPAV1@@Z 0043f8c8     mfc42d:MFC42D.DLL
 0002:000008cc       __imp_?AfxGetApp@@YGPAVCWinApp@@XZ 0043f8cc     mfc42d:MFC42D.DLL
 0002:000008d0       __imp_?SetFocus@CWnd@@QAEPAV1@XZ 0043f8d0     mfc42d:MFC42D.DLL
 0002:000008d4       __imp_?AssertValid@CScrollView@@UBEXXZ 0043f8d4     mfc42d:MFC42D.DLL
 0002:000008d8       __imp_?Dump@CScrollView@@UBEXAAVCDumpContext@@@Z 0043f8d8     mfc42d:MFC42D.DLL
 0002:000008dc       __imp_?SetCapture@CWnd@@QAEPAV1@XZ 0043f8dc     mfc42d:MFC42D.DLL
 0002:000008e0       __imp_?AfxGetMainWnd@@YGPAVCWnd@@XZ 0043f8e0     mfc42d:MFC42D.DLL
 0002:000008e4       __imp_?OnDrawItem@CWnd@@IAEXHPAUtagDRAWITEMSTRUCT@@@Z 0043f8e4     mfc42d:MFC42D.DLL
 0002:000008e8       __imp_?messageMap@CDialog@@1UAFX_MSGMAP@@B 0043f8e8     mfc42d:MFC42D.DLL
 0002:000008ec       __imp_?PreInitDialog@CDialog@@MAEXXZ 0043f8ec     mfc42d:MFC42D.DLL
 0002:000008f0       __imp_?OnCancel@CDialog@@MAEXXZ 0043f8f0     mfc42d:MFC42D.DLL
 0002:000008f4       __imp_?OnOK@CDialog@@MAEXXZ 0043f8f4     mfc42d:MFC42D.DLL
 0002:000008f8       __imp_?OnSetFont@CDialog@@UAEXPAVCFont@@@Z 0043f8f8     mfc42d:MFC42D.DLL
 0002:000008fc       __imp_?DoModal@CDialog@@UAEHXZ 0043f8fc     mfc42d:MFC42D.DLL
 0002:00000900       __imp_?SetOccDialogInfo@CDialog@@MAEHPAU_AFX_OCC_DIALOG_INFO@@@Z 0043f900     mfc42d:MFC42D.DLL
 0002:00000904       __imp_?CheckAutoCenter@CDialog@@UAEHXZ 0043f904     mfc42d:MFC42D.DLL
 0002:00000908       __imp_?PostNcDestroy@CWnd@@MAEXXZ 0043f908     mfc42d:MFC42D.DLL
 0002:0000090c       __imp_?PreTranslateMessage@CDialog@@UAEHPAUtagMSG@@@Z 0043f90c     mfc42d:MFC42D.DLL
 0002:00000910       __imp_?GetScrollBarCtrl@CWnd@@UBEPAVCScrollBar@@H@Z 0043f910     mfc42d:MFC42D.DLL
 0002:00000914       __imp_?CalcWindowRect@CWnd@@UAEXPAUtagRECT@@I@Z 0043f914     mfc42d:MFC42D.DLL
 0002:00000918       __imp_?PreCreateWindow@CWnd@@UAEHAAUtagCREATESTRUCTA@@@Z 0043f918     mfc42d:MFC42D.DLL
 0002:0000091c       __imp_?OnCmdMsg@CDialog@@UAEHIHPAXPAUAFX_CMDHANDLERINFO@@@Z 0043f91c     mfc42d:MFC42D.DLL
 0002:00000920       __imp_?Dump@CDialog@@UBEXAAVCDumpContext@@@Z 0043f920     mfc42d:MFC42D.DLL
 0002:00000924       __imp_?AssertValid@CDialog@@UBEXXZ 0043f924     mfc42d:MFC42D.DLL
 0002:00000928       __imp_?GetRuntimeClass@CDialog@@UBEPAUCRuntimeClass@@XZ 0043f928     mfc42d:MFC42D.DLL
 0002:0000092c       __imp_??1CDialog@@UAE@XZ   0043f92c     mfc42d:MFC42D.DLL
 0002:00000930       __imp_?LoadBitmaps@CBitmapButton@@QAEHPBD000@Z 0043f930     mfc42d:MFC42D.DLL
 0002:00000934       __imp_??0CBitmapButton@@QAE@XZ 0043f934     mfc42d:MFC42D.DLL
 0002:00000938       __imp_??0CDialog@@QAE@IPAVCWnd@@@Z 0043f938     mfc42d:MFC42D.DLL
 0002:0000093c       __imp_??1CButton@@UAE@XZ   0043f93c     mfc42d:MFC42D.DLL
 0002:00000940       __imp_??1CBitmap@@UAE@XZ   0043f940     mfc42d:MFC42D.DLL
 0002:00000944       __imp_?OnChildNotify@CButton@@MAEHIIJPAJ@Z 0043f944     mfc42d:MFC42D.DLL
 0002:00000948       __imp_?OnCmdMsg@CCmdTarget@@UAEHIHPAXPAUAFX_CMDHANDLERINFO@@@Z 0043f948     mfc42d:MFC42D.DLL
 0002:0000094c       __imp_?Dump@CWnd@@UBEXAAVCDumpContext@@@Z 0043f94c     mfc42d:MFC42D.DLL
 0002:00000950       __imp_?AssertValid@CWnd@@UBEXXZ 0043f950     mfc42d:MFC42D.DLL
 0002:00000954       __imp_?GetRuntimeClass@CButton@@UBEPAUCRuntimeClass@@XZ 0043f954     mfc42d:MFC42D.DLL
 0002:00000958       __imp_??0CButton@@QAE@XZ   0043f958     mfc42d:MFC42D.DLL
 0002:0000095c       __imp_??1CString@@QAE@XZ   0043f95c     mfc42d:MFC42D.DLL
 0002:00000960       __imp_?SetDlgItemTextA@CWnd@@QAEXHPBD@Z 0043f960     mfc42d:MFC42D.DLL
 0002:00000964       __imp_?ReleaseBuffer@CString@@QAEXH@Z 0043f964     mfc42d:MFC42D.DLL
 0002:00000968       __imp_?GetBuffer@CString@@QAEPADH@Z 0043f968     mfc42d:MFC42D.DLL
 0002:0000096c       __imp_??BCString@@QBEPBDXZ 0043f96c     mfc42d:MFC42D.DLL
 0002:00000970       __imp_?LoadStringA@CString@@QAEHI@Z 0043f970     mfc42d:MFC42D.DLL
 0002:00000974       __imp_??0CString@@QAE@XZ   0043f974     mfc42d:MFC42D.DLL
 0002:00000978       __imp_?SizeToContent@CBitmapButton@@QAEXXZ 0043f978     mfc42d:MFC42D.DLL
 0002:0000097c       __imp_?SubclassDlgItem@CWnd@@QAEHIPAV1@@Z 0043f97c     mfc42d:MFC42D.DLL
 0002:00000980       __imp_?OnInitDialog@CDialog@@UAEHXZ 0043f980     mfc42d:MFC42D.DLL
 0002:00000984       __imp_?AfxTrace@@YAXPBDZZ  0043f984     mfc42d:MFC42D.DLL
 0002:00000988       __imp_?Create@CDialog@@QAEHIPAVCWnd@@@Z 0043f988     mfc42d:MFC42D.DLL
 0002:0000098c       __imp_?CenterWindow@CWnd@@QAEXPAV1@@Z 0043f98c     mfc42d:MFC42D.DLL
 0002:00000990       __imp_?messageMap@CWnd@@1UAFX_MSGMAP@@B 0043f990     mfc42d:MFC42D.DLL
 0002:00000994       __imp_?SetWindowPos@CWnd@@QAEHPBV1@HHHHI@Z 0043f994     mfc42d:MFC42D.DLL
 0002:00000998       __imp_??1CPen@@UAE@XZ      0043f998     mfc42d:MFC42D.DLL
 0002:0000099c       __imp_??1CBrush@@UAE@XZ    0043f99c     mfc42d:MFC42D.DLL
 0002:000009a0       __imp_?FillRect@CDC@@QAEXPBUtagRECT@@PAVCBrush@@@Z 0043f9a0     mfc42d:MFC42D.DLL
 0002:000009a4       __imp_?SetRect@CRect@@QAEXHHHH@Z 0043f9a4     mfc42d:MFC42D.DLL
 0002:000009a8       __imp_??0CBrush@@QAE@XZ    0043f9a8     mfc42d:MFC42D.DLL
 0002:000009ac       __imp_?Rectangle@CDC@@QAEHHHHH@Z 0043f9ac     mfc42d:MFC42D.DLL
 0002:000009b0       __imp_?SelectObject@CDC@@QAEPAVCPen@@PAV2@@Z 0043f9b0     mfc42d:MFC42D.DLL
 0002:000009b4       __imp_?CreateStockObject@CGdiObject@@QAEHH@Z 0043f9b4     mfc42d:MFC42D.DLL
 0002:000009b8       __imp_??0CPen@@QAE@XZ      0043f9b8     mfc42d:MFC42D.DLL
 0002:000009bc       __imp_?DrawIcon@CDC@@QAEHHHPAUHICON__@@@Z 0043f9bc     mfc42d:MFC42D.DLL
 0002:000009c0       __imp_?StretchBlt@CDC@@QAEHHHHHPAV1@HHHHK@Z 0043f9c0     mfc42d:MFC42D.DLL
 0002:000009c4       __imp_?SelectObject@CDC@@QAEPAVCBitmap@@PAV2@@Z 0043f9c4     mfc42d:MFC42D.DLL
 0002:000009c8       __imp_??1CDC@@UAE@XZ       0043f9c8     mfc42d:MFC42D.DLL
 0002:000009cc       __imp_?CreateCompatibleDC@CDC@@QAEHPAV1@@Z 0043f9cc     mfc42d:MFC42D.DLL
 0002:000009d0       __imp_??0CDC@@QAE@XZ       0043f9d0     mfc42d:MFC42D.DLL
 0002:000009d4       __imp_?CreateCompatibleBitmap@CBitmap@@QAEHPAVCDC@@HH@Z 0043f9d4     mfc42d:MFC42D.DLL
 0002:000009d8       __imp_??0CBitmap@@QAE@XZ   0043f9d8     mfc42d:MFC42D.DLL
 0002:000009dc       __imp_?LoadIconA@CWinApp@@QBEPAUHICON__@@I@Z 0043f9dc     mfc42d:MFC42D.DLL
 0002:000009e0       __imp_?Height@CRect@@QBEHXZ 0043f9e0     mfc42d:MFC42D.DLL
 0002:000009e4       __imp_?Width@CRect@@QBEHXZ 0043f9e4     mfc42d:MFC42D.DLL
 0002:000009e8       __imp_?GetClientRect@CWnd@@QBEXPAUtagRECT@@@Z 0043f9e8     mfc42d:MFC42D.DLL
 0002:000009ec       __imp_??0CRect@@QAE@XZ     0043f9ec     mfc42d:MFC42D.DLL
 0002:000009f0       __imp_?FromHandle@CDC@@SGPAV1@PAUHDC__@@@Z 0043f9f0     mfc42d:MFC42D.DLL
 0002:000009f4       __imp_?classCObject@CObject@@2UCRuntimeClass@@B 0043f9f4     mfc42d:MFC42D.DLL
 0002:000009f8       __imp_?AfxClassInit@@YGXPAUCRuntimeClass@@@Z 0043f9f8     mfc42d:MFC42D.DLL
 0002:000009fc       __imp_?ReadObject@CArchive@@QAEPAVCObject@@PBUCRuntimeClass@@@Z 0043f9fc     mfc42d:MFC42D.DLL
 0002:00000a00       __imp_?Dump@CObject@@UBEXAAVCDumpContext@@@Z 0043fa00     mfc42d:MFC42D.DLL
 0002:00000a04       __imp_?AssertValid@CObject@@UBEXXZ 0043fa04     mfc42d:MFC42D.DLL
 0002:00000a08       __imp_??0CObject@@IAE@XZ   0043fa08     mfc42d:MFC42D.DLL
 0002:00000a0c       __imp_??1CObject@@UAE@XZ   0043fa0c     mfc42d:MFC42D.DLL
 0002:00000a10       __imp_?AfxSetResourceHandle@@YGXPAUHINSTANCE__@@@Z 0043fa10     mfc42d:MFC42D.DLL
 0002:00000a14       __imp_?AfxGetResourceHandle@@YGPAUHINSTANCE__@@XZ 0043fa14     mfc42d:MFC42D.DLL
 0002:00000a18       __imp_?AddString@CListBox@@QAEHPBD@Z 0043fa18     mfc42d:MFC42D.DLL
 0002:00000a1c       __imp_?GetDlgItem@CWnd@@QBEPAV1@H@Z 0043fa1c     mfc42d:MFC42D.DLL
 0002:00000a20       __imp_?IsStoring@CArchive@@QBEHXZ 0043fa20     mfc42d:MFC42D.DLL
 0002:00000a24       __imp_?OnLButtonDblClk@CWnd@@IAEXIVCPoint@@@Z 0043fa24     mfc42d:MFC42D.DLL
 0002:00000a28       __imp_?OnEndPrinting@CView@@MAEXPAVCDC@@PAUCPrintInfo@@@Z 0043fa28     mfc42d:MFC42D.DLL
 0002:00000a2c       __imp_?IsSelected@CView@@UBEHPBVCObject@@@Z 0043fa2c     mfc42d:MFC42D.DLL
 0002:00000a30       __imp_?PreCreateWindow@CView@@MAEHAAUtagCREATESTRUCTA@@@Z 0043fa30     mfc42d:MFC42D.DLL
 0002:00000a34       __imp_??1CFont@@UAE@XZ     0043fa34     mfc42d:MFC42D.DLL
 0002:00000a38       __imp_?GetTextMetricsA@CDC@@QBEHPAUtagTEXTMETRICA@@@Z 0043fa38     mfc42d:MFC42D.DLL
 0002:00000a3c       __imp_?CreateFontIndirectA@CFont@@QAEHPBUtagLOGFONTA@@@Z 0043fa3c     mfc42d:MFC42D.DLL
 0002:00000a40       __imp_?AfxGetModuleState@@YGPAVAFX_MODULE_STATE@@XZ 0043fa40     mfc42d:MFC42D.DLL
 0002:00000a44       __imp_??0CFont@@QAE@XZ     0043fa44     mfc42d:MFC42D.DLL
 0002:00000a48       __imp_?CreateSolidBrush@CBrush@@QAEHK@Z 0043fa48     mfc42d:MFC42D.DLL
 0002:00000a4c       __imp_?IsPrinting@CDC@@QBEHXZ 0043fa4c     mfc42d:MFC42D.DLL
 0002:00000a50       __imp_??1CClientDC@@UAE@XZ 0043fa50     mfc42d:MFC42D.DLL
 0002:00000a54       __imp_??0CRect@@QAE@UtagPOINT@@UtagSIZE@@@Z 0043fa54     mfc42d:MFC42D.DLL
 0002:00000a58       __imp_??0CSize@@QAE@HH@Z   0043fa58     mfc42d:MFC42D.DLL
 0002:00000a5c       __imp_?DPtoLP@CDC@@QBEXPAUtagPOINT@@H@Z 0043fa5c     mfc42d:MFC42D.DLL
 0002:00000a60       __imp_??0CClientDC@@QAE@PAVCWnd@@@Z 0043fa60     mfc42d:MFC42D.DLL
 0002:00000a64       __imp_?OnFilePrintPreview@CView@@IAEXXZ 0043fa64     mfc42d:MFC42D.DLL
 0002:00000a68       __imp_?OnFilePrint@CView@@IAEXXZ 0043fa68     mfc42d:MFC42D.DLL
 0002:00000a6c       __imp_?OnMouseActivate@CView@@IAEHPAVCWnd@@II@Z 0043fa6c     mfc42d:MFC42D.DLL
 0002:00000a70       __imp_?classCScrollView@CScrollView@@2UCRuntimeClass@@B 0043fa70     mfc42d:MFC42D.DLL
 0002:00000a74       __imp_?messageMap@CScrollView@@1UAFX_MSGMAP@@B 0043fa74     mfc42d:MFC42D.DLL
 0002:00000a78       __imp_?OnBeginPrinting@CView@@MAEXPAVCDC@@PAUCPrintInfo@@@Z 0043fa78     mfc42d:MFC42D.DLL
 0002:00000a7c       __imp_?OnPreparePrinting@CView@@MAEHPAUCPrintInfo@@@Z 0043fa7c     mfc42d:MFC42D.DLL
 0002:00000a80       __imp_?OnUpdate@CView@@MAEXPAV1@JPAVCObject@@@Z 0043fa80     mfc42d:MFC42D.DLL
 0002:00000a84       __imp_??1CScrollView@@UAE@XZ 0043fa84     mfc42d:MFC42D.DLL
 0002:00000a88       __imp_??0CSize@@QAE@XZ     0043fa88     mfc42d:MFC42D.DLL
 0002:00000a8c       __imp_??0CScrollView@@IAE@XZ 0043fa8c     mfc42d:MFC42D.DLL
 0002:00000a90       __imp_??1CWnd@@UAE@XZ      0043fa90     mfc42d:MFC42D.DLL
 0002:00000a94       __imp_??4CString@@QAEABV0@PBD@Z 0043fa94     mfc42d:MFC42D.DLL
 0002:00000a98       __imp_?AfxRegisterWndClass@@YGPBDIPAUHICON__@@PAUHBRUSH__@@0@Z 0043fa98     mfc42d:MFC42D.DLL
 0002:00000a9c       __imp_?SetWindowOrg@CDC@@QAE?AVCPoint@@UtagPOINT@@@Z 0043fa9c     mfc42d:MFC42D.DLL
 0002:00000aa0       __imp_?GetDocument@CView@@QBEPAVCDocument@@XZ 0043faa0     mfc42d:MFC42D.DLL
 0002:00000aa4       __imp_?OnPrepareDC@CScrollView@@UAEXPAVCDC@@PAUCPrintInfo@@@Z 0043faa4     mfc42d:MFC42D.DLL
 0002:00000aa8       __imp_?ClientToScreen@CWnd@@QBEXPAUtagPOINT@@@Z 0043faa8     mfc42d:MFC42D.DLL
 0002:00000aac       __imp_??0CPoint@@QAE@XZ    0043faac     mfc42d:MFC42D.DLL
 0002:00000ab0       __imp_?NormalizeRect@CRect@@QAEXXZ 0043fab0     mfc42d:MFC42D.DLL
 0002:00000ab4       __imp_?DPtoLP@CDC@@QBEXPAUtagRECT@@@Z 0043fab4     mfc42d:MFC42D.DLL
 0002:00000ab8       __imp_?ScrollToDevicePosition@CScrollView@@IAEXUtagPOINT@@@Z 0043fab8     mfc42d:MFC42D.DLL
 0002:00000abc       __imp_?LPtoDP@CDC@@QBEXPAUtagPOINT@@H@Z 0043fabc     mfc42d:MFC42D.DLL
 0002:00000ac0       __imp_?SetScrollSizes@CScrollView@@QAEXHUtagSIZE@@ABU2@1@Z 0043fac0     mfc42d:MFC42D.DLL
 0002:00000ac4       __imp_?sizeDefault@CScrollView@@2UtagSIZE@@B 0043fac4     mfc42d:MFC42D.DLL
 0002:00000ac8       __imp_?InvalidateRect@CWnd@@QAEXPBUtagRECT@@H@Z 0043fac8     mfc42d:MFC42D.DLL
 0002:00000acc       __imp_??0CPoint@@QAE@HH@Z  0043facc     mfc42d:MFC42D.DLL
 0002:00000ad0       __imp_?GetDeviceScrollPosition@CScrollView@@QBE?AVCPoint@@XZ 0043fad0     mfc42d:MFC42D.DLL
 0002:00000ad4       __imp_?LPtoDP@CDC@@QBEXPAUtagRECT@@@Z 0043fad4     mfc42d:MFC42D.DLL
 0002:00000ad8       __imp_?SelectObject@CDC@@QAEPAVCBrush@@PAV2@@Z 0043fad8     mfc42d:MFC42D.DLL
 0002:00000adc       __imp_?LineTo@CDC@@QAEHHH@Z 0043fadc     mfc42d:MFC42D.DLL
 0002:00000ae0       __imp_?MoveTo@CDC@@QAE?AVCPoint@@HH@Z 0043fae0     mfc42d:MFC42D.DLL
 0002:00000ae4       __imp_?CreatePen@CPen@@QAEHHHK@Z 0043fae4     mfc42d:MFC42D.DLL
 0002:00000ae8       __imp_?TextOutA@CDC@@QAEHHHABVCString@@@Z 0043fae8     mfc42d:MFC42D.DLL
 0002:00000aec       __imp_?ShowWindow@CWnd@@QAEHH@Z 0043faec     mfc42d:MFC42D.DLL
 0002:00000af0       __imp_?OnKeyDown@CWnd@@IAEXIII@Z 0043faf0     mfc42d:MFC42D.DLL
 0002:00000af4       __imp_?OnVScroll@CScrollView@@QAEXIIPAVCScrollBar@@@Z 0043faf4     mfc42d:MFC42D.DLL
 0002:00000af8       __imp_?OnCreate@CView@@IAEHPAUtagCREATESTRUCTA@@@Z 0043faf8     mfc42d:MFC42D.DLL
 0002:00000afc       __imp_?GetWindowRect@CWnd@@QBEXPAUtagRECT@@@Z 0043fafc     mfc42d:MFC42D.DLL
 0002:00000b00       __imp_??0CWnd@@QAE@XZ      0043fb00     mfc42d:MFC42D.DLL
 0002:00000b04       __imp_?GetStyle@CWnd@@QBEKXZ 0043fb04     mfc42d:MFC42D.DLL
 0002:00000b08       __imp_?OnKillFocus@CWnd@@IAEXPAV1@@Z 0043fb08     mfc42d:MFC42D.DLL
 0002:00000b0c       __imp_?OnEraseBkgnd@CWnd@@IAEHPAVCDC@@@Z 0043fb0c     mfc42d:MFC42D.DLL
 0002:00000b10       __imp_?Rectangle@CDC@@QAEHPBUtagRECT@@@Z 0043fb10     mfc42d:MFC42D.DLL
 0002:00000b14       __imp_??0CBrush@@QAE@K@Z   0043fb14     mfc42d:MFC42D.DLL
 0002:00000b18       __imp_??3@YAXPAXPBDH@Z     0043fb18     mfc42d:MFC42D.DLL
 0002:00000b1c       __imp_?AfxMessageBox@@YGHPBDII@Z 0043fb1c     mfc42d:MFC42D.DLL
 0002:00000b20       __imp_??2@YAPAXIPBDH@Z     0043fb20     mfc42d:MFC42D.DLL
 0002:00000b24       __imp_?UpdateWindow@CWnd@@QAEXXZ 0043fb24     mfc42d:MFC42D.DLL
 0002:00000b28       __imp_?classCWnd@CWnd@@2UCRuntimeClass@@B 0043fb28     mfc42d:MFC42D.DLL
 0002:00000b2c       __imp_?Abort@CFile@@UAEXXZ 0043fb2c     mfc42d:MFC42D.DLL
 0002:00000b30       __imp_?classCFileException@CFileException@@2UCRuntimeClass@@B 0043fb30     mfc42d:MFC42D.DLL
 0002:00000b34       __imp_??1CFile@@UAE@XZ     0043fb34     mfc42d:MFC42D.DLL
 0002:00000b38       __imp_??1CFileException@@UAE@XZ 0043fb38     mfc42d:MFC42D.DLL
 0002:00000b3c       __imp_?Open@CFile@@UAEHPBDIPAVCFileException@@@Z 0043fb3c     mfc42d:MFC42D.DLL
 0002:00000b40       __imp_??0CFileException@@QAE@HJPBD@Z 0043fb40     mfc42d:MFC42D.DLL
 0002:00000b44       __imp_??0CFile@@QAE@XZ     0043fb44     mfc42d:MFC42D.DLL
 0002:00000b48       __imp_??0CPalette@@QAE@XZ  0043fb48     mfc42d:MFC42D.DLL
 0002:00000b4c       __imp_?GetDC@CWnd@@QAEPAVCDC@@XZ 0043fb4c     mfc42d:MFC42D.DLL
 0002:00000b50       __imp_?GetRuntimeClass@CObject@@UBEPAUCRuntimeClass@@XZ 0043fb50     mfc42d:MFC42D.DLL
 0002:00000b54       __imp_?CreateEx@CWnd@@QAEHKPBD0KHHHHPAUHWND__@@PAUHMENU__@@PAX@Z 0043fb54     mfc42d:MFC42D.DLL
 0002:00000b58       __imp_??0CString@@QAE@PBD@Z 0043fb58     mfc42d:MFC42D.DLL
 0002:00000b5c       __imp_?SetPixel@CDC@@QAEKHHK@Z 0043fb5c     mfc42d:MFC42D.DLL
 0002:00000b60       __imp_?GetDeviceCaps@CDC@@QBEHH@Z 0043fb60     mfc42d:MFC42D.DLL
 0002:00000b64       __imp_??1CPaintDC@@UAE@XZ  0043fb64     mfc42d:MFC42D.DLL
 0002:00000b68       __imp_?RealizePalette@CDC@@QAEIXZ 0043fb68     mfc42d:MFC42D.DLL
 0002:00000b6c       __imp_?SelectPalette@CDC@@QAEPAVCPalette@@PAV2@H@Z 0043fb6c     mfc42d:MFC42D.DLL
 0002:00000b70       __imp_??0CPaintDC@@QAE@PAVCWnd@@@Z 0043fb70     mfc42d:MFC42D.DLL
 0002:00000b74       __imp_??4CString@@QAEABV0@ABV0@@Z 0043fb74     mfc42d:MFC42D.DLL
 0002:00000b78       __imp_?GetProfileStringA@CWinApp@@QAE?AVCString@@PBD00@Z 0043fb78     mfc42d:MFC42D.DLL
 0002:00000b7c       __imp_?GetProfileIntA@CWinApp@@QAEIPBD0H@Z 0043fb7c     mfc42d:MFC42D.DLL
 0002:00000b80       __imp_?GetLocalTm@CTime@@QBEPAUtm@@PAU2@@Z 0043fb80     mfc42d:MFC42D.DLL
 0002:00000b84       __imp_??0CTime@@QAE@J@Z    0043fb84     mfc42d:MFC42D.DLL
 0002:00000b88       __imp_??3CObject@@SGXPAXPBDH@Z 0043fb88     mfc42d:MFC42D.DLL
 0002:00000b8c       __imp_??2CObject@@SGPAXIPBDH@Z 0043fb8c     mfc42d:MFC42D.DLL
 0002:00000b90       __imp_?GetMessageMap@CCmdTarget@@MBEPBUAFX_MSGMAP@@XZ 0043fb90     mfc42d:MFC42D.DLL
 0002:00000b94       __imp_?OnFinalRelease@CCmdTarget@@UAEXXZ 0043fb94     mfc42d:MFC42D.DLL
 0002:00000b98       __imp_?OnPaint@CView@@IAEXXZ 0043fb98     mfc42d:MFC42D.DLL
 0002:00000b9c       __imp_?SetBkMode@CDC@@QAEHH@Z 0043fb9c     mfc42d:MFC42D.DLL
 0002:00000ba0       __imp_?GetLogFont@CFont@@QAEHPAUtagLOGFONTA@@@Z 0043fba0     mfc42d:MFC42D.DLL
 0002:00000ba4       __imp_?GetTextExtent@CDC@@QBE?AVCSize@@PBDH@Z 0043fba4     mfc42d:MFC42D.DLL
 0002:00000ba8       __imp_?GetLength@CString@@QBEHXZ 0043fba8     mfc42d:MFC42D.DLL
 0002:00000bac       __imp_?SetMaxPage@CPrintInfo@@QAEXI@Z 0043fbac     mfc42d:MFC42D.DLL
 0002:00000bb0       __imp_?GetMaxPage@CPrintInfo@@QBEIXZ 0043fbb0     mfc42d:MFC42D.DLL
 0002:00000bb4       __imp_??YCString@@QAEABV0@PBD@Z 0043fbb4     mfc42d:MFC42D.DLL
 0002:00000bb8       __imp_?AfxIsValidAddress@@YGHPBXIH@Z 0043fbb8     mfc42d:MFC42D.DLL
 0002:00000bbc       __imp_??0CDialog@@QAE@XZ   0043fbbc     mfc42d:MFC42D.DLL
 0002:00000bc0       __imp_?DeleteString@CListBox@@QAEHI@Z 0043fbc0     mfc42d:MFC42D.DLL
 0002:00000bc4       __imp_?GetCount@CListBox@@QBEHXZ 0043fbc4     mfc42d:MFC42D.DLL
 0002:00000bc8       __imp_?DDX_Check@@YGXPAVCDataExchange@@HAAH@Z 0043fbc8     mfc42d:MFC42D.DLL
 0002:00000bcc       __imp_?UpdateData@CWnd@@QAEHH@Z 0043fbcc     mfc42d:MFC42D.DLL
 0002:00000bd0       __imp_?DDV_MinMaxDouble@@YGXPAVCDataExchange@@ABNNN@Z 0043fbd0     mfc42d:MFC42D.DLL
 0002:00000bd4       __imp_?DDX_Text@@YGXPAVCDataExchange@@HAAN@Z 0043fbd4     mfc42d:MFC42D.DLL
 0002:00000bd8       __imp_?RemoveAll@CObList@@QAEXXZ 0043fbd8     mfc42d:MFC42D.DLL
 0002:00000bdc       __imp_?IsEmpty@CObList@@QBEHXZ 0043fbdc     mfc42d:MFC42D.DLL
 0002:00000be0       __imp_?DPtoLP@CDC@@QBEXPAUtagSIZE@@@Z 0043fbe0     mfc42d:MFC42D.DLL
 0002:00000be4       __imp_?GetDeviceScrollSizes@CScrollView@@QBEXAAHAAUtagSIZE@@11@Z 0043fbe4     mfc42d:MFC42D.DLL
 0002:00000be8       __imp_?OnSize@CScrollView@@QAEXIHH@Z 0043fbe8     mfc42d:MFC42D.DLL
 0002:00000bec       __imp_?GetTotalSize@CScrollView@@QBE?AVCSize@@XZ 0043fbec     mfc42d:MFC42D.DLL
 0002:00000bf0       __imp_?SetViewportOrg@CDC@@QAE?AVCPoint@@UtagPOINT@@@Z 0043fbf0     mfc42d:MFC42D.DLL
 0002:00000bf4       __imp_?SetWindowOrg@CDC@@QAE?AVCPoint@@HH@Z 0043fbf4     mfc42d:MFC42D.DLL
 0002:00000bf8       __imp_?GetViewportOrg@CDC@@QBE?AVCPoint@@XZ 0043fbf8     mfc42d:MFC42D.DLL
 0002:00000bfc       __imp_?GetWindowOrg@CDC@@QBE?AVCPoint@@XZ 0043fbfc     mfc42d:MFC42D.DLL
 0002:00000c00       __imp_?GetMapMode@CDC@@QBEHXZ 0043fc00     mfc42d:MFC42D.DLL
 0002:00000c04       __imp_?DeflateRect@CRect@@QAEXHH@Z 0043fc04     mfc42d:MFC42D.DLL
 0002:00000c08       __imp_??3@YAXPAX@Z         0043fc08     mfc42d:MFC42D.DLL
 0002:00000c0c       __imp_?Polyline@CDC@@QAEHPAUtagPOINT@@H@Z 0043fc0c     mfc42d:MFC42D.DLL
 0002:00000c10       __imp_?SetActiveWindow@CWnd@@QAEPAV1@XZ 0043fc10     mfc42d:MFC42D.DLL
 0002:00000c14       __imp_?GetSafeHwnd@CWnd@@QBEPAUHWND__@@XZ 0043fc14     mfc42d:MFC42D.DLL
 0002:00000c18       __imp_?OnHScroll@CScrollView@@QAEXIIPAVCScrollBar@@@Z 0043fc18     mfc42d:MFC42D.DLL
 0002:00000c1c       __imp_?AfxGetInstanceHandle@@YGPAUHINSTANCE__@@XZ 0043fc1c     mfc42d:MFC42D.DLL
 0002:00000c20       __imp_??1CStringList@@UAE@XZ 0043fc20     mfc42d:MFC42D.DLL
 0002:00000c24       __imp_?GetCount@CObList@@QBEHXZ 0043fc24     mfc42d:MFC42D.DLL
 0002:00000c28       __imp_?AddTail@CStringList@@QAEPAU__POSITION@@ABVCString@@@Z 0043fc28     mfc42d:MFC42D.DLL
 0002:00000c2c       __imp_?Find@CStringList@@QBEPAU__POSITION@@PBDPAU2@@Z 0043fc2c     mfc42d:MFC42D.DLL
 0002:00000c30       __imp_??0CString@@QAE@ABV0@@Z 0043fc30     mfc42d:MFC42D.DLL
 0002:00000c34       __imp_??0CStringList@@QAE@H@Z 0043fc34     mfc42d:MFC42D.DLL
 0002:00000c38       __imp_?OnContextHelp@CFrameWnd@@QAEXXZ 0043fc38     mfc42d:MFC42D.DLL
 0002:00000c3c       __imp_?OnHelp@CFrameWnd@@IAEXXZ 0043fc3c     mfc42d:MFC42D.DLL
 0002:00000c40       __imp_?OnHelpUsing@CWnd@@QAEXXZ 0043fc40     mfc42d:MFC42D.DLL
 0002:00000c44       __imp_?OnHelpIndex@CWnd@@QAEXXZ 0043fc44     mfc42d:MFC42D.DLL
 0002:00000c48       __imp_?classCMDIChildWnd@CMDIChildWnd@@2UCRuntimeClass@@B 0043fc48     mfc42d:MFC42D.DLL
 0002:00000c4c       __imp_?ActivateFrame@CMDIChildWnd@@UAEXH@Z 0043fc4c     mfc42d:MFC42D.DLL
 0002:00000c50       __imp_?WriteProfileInt@CWinApp@@QAEHPBD0H@Z 0043fc50     mfc42d:MFC42D.DLL
 0002:00000c54       __imp_?OnUpdateFrameMenu@CMDIChildWnd@@UAEXHPAVCWnd@@PAUHMENU__@@@Z 0043fc54     mfc42d:MFC42D.DLL
 0002:00000c58       __imp_?Create@CMDIChildWnd@@UAEHPBD0KABUtagRECT@@PAVCMDIFrameWnd@@PAUCCreateContext@@@Z 0043fc58     mfc42d:MFC42D.DLL
 0002:00000c5c       __imp_?ExitHelpMode@CFrameWnd@@UAEXXZ 0043fc5c     mfc42d:MFC42D.DLL
 0002:00000c60       __imp_?DelayUpdateFrameMenu@CFrameWnd@@UAEXPAUHMENU__@@@Z 0043fc60     mfc42d:MFC42D.DLL
 0002:00000c64       __imp_?GetDefaultAccelerator@CFrameWnd@@UAEPAUHACCEL__@@XZ 0043fc64     mfc42d:MFC42D.DLL
 0002:00000c68       __imp_?OnUpdateFrameMenu@CFrameWnd@@UAEXPAUHMENU__@@@Z 0043fc68     mfc42d:MFC42D.DLL
 0002:00000c6c       __imp_?OnUpdateFrameTitle@CMDIChildWnd@@MAEXH@Z 0043fc6c     mfc42d:MFC42D.DLL
 0002:00000c70       __imp_?OnCreateClient@CFrameWnd@@MAEHPAUtagCREATESTRUCTA@@PAUCCreateContext@@@Z 0043fc70     mfc42d:MFC42D.DLL
 0002:00000c74       __imp_?NegotiateBorderSpace@CFrameWnd@@UAEHIPAUtagRECT@@@Z 0043fc74     mfc42d:MFC42D.DLL
 0002:00000c78       __imp_?GetMessageBar@CMDIChildWnd@@MAEPAVCWnd@@XZ 0043fc78     mfc42d:MFC42D.DLL
 0002:00000c7c       __imp_?OnSetPreviewMode@CFrameWnd@@UAEXHPAUCPrintPreviewState@@@Z 0043fc7c     mfc42d:MFC42D.DLL
 0002:00000c80       __imp_?RecalcLayout@CFrameWnd@@UAEXH@Z 0043fc80     mfc42d:MFC42D.DLL
 0002:00000c84       __imp_?GetMessageString@CFrameWnd@@UBEXIAAVCString@@@Z 0043fc84     mfc42d:MFC42D.DLL
 0002:00000c88       __imp_?GetActiveFrame@CFrameWnd@@UAEPAV1@XZ 0043fc88     mfc42d:MFC42D.DLL
 0002:00000c8c       __imp_?GetActiveDocument@CFrameWnd@@UAEPAVCDocument@@XZ 0043fc8c     mfc42d:MFC42D.DLL
 0002:00000c90       __imp_?LoadFrame@CMDIChildWnd@@UAEHIKPAVCWnd@@PAUCCreateContext@@@Z 0043fc90     mfc42d:MFC42D.DLL
 0002:00000c94       __imp_?IsFrameWnd@CFrameWnd@@UBEHXZ 0043fc94     mfc42d:MFC42D.DLL
 0002:00000c98       __imp_?PostNcDestroy@CFrameWnd@@MAEXXZ 0043fc98     mfc42d:MFC42D.DLL
 0002:00000c9c       __imp_?DefWindowProcA@CMDIChildWnd@@MAEJIIJ@Z 0043fc9c     mfc42d:MFC42D.DLL
 0002:00000ca0       __imp_?PreTranslateMessage@CMDIChildWnd@@UAEHPAUtagMSG@@@Z 0043fca0     mfc42d:MFC42D.DLL
 0002:00000ca4       __imp_?EndModalState@CFrameWnd@@UAEXXZ 0043fca4     mfc42d:MFC42D.DLL
 0002:00000ca8       __imp_?BeginModalState@CFrameWnd@@UAEXXZ 0043fca8     mfc42d:MFC42D.DLL
 0002:00000cac       __imp_?OnCommand@CFrameWnd@@MAEHIJ@Z 0043fcac     mfc42d:MFC42D.DLL
 0002:00000cb0       __imp_?DestroyWindow@CMDIChildWnd@@UAEHXZ 0043fcb0     mfc42d:MFC42D.DLL
 0002:00000cb4       __imp_?OnCmdMsg@CFrameWnd@@UAEHIHPAXPAUAFX_CMDHANDLERINFO@@@Z 0043fcb4     mfc42d:MFC42D.DLL
 0002:00000cb8       __imp_?Dump@CMDIChildWnd@@UBEXAAVCDumpContext@@@Z 0043fcb8     mfc42d:MFC42D.DLL
 0002:00000cbc       __imp_?AssertValid@CMDIChildWnd@@UBEXXZ 0043fcbc     mfc42d:MFC42D.DLL
 0002:00000cc0       __imp_??0CMDIChildWnd@@QAE@XZ 0043fcc0     mfc42d:MFC42D.DLL
 0002:00000cc4       __imp_??1CFrameWnd@@UAE@XZ 0043fcc4     mfc42d:MFC42D.DLL
 0002:00000cc8       __imp_?PreCreateWindow@CMDIChildWnd@@UAEHAAUtagCREATESTRUCTA@@@Z 0043fcc8     mfc42d:MFC42D.DLL
 0002:00000ccc       __imp_?ScreenToClient@CWnd@@QBEXPAUtagRECT@@@Z 0043fccc     mfc42d:MFC42D.DLL
 0002:00000cd0       __imp_?messageMap@CMDIChildWnd@@1UAFX_MSGMAP@@B 0043fcd0     mfc42d:MFC42D.DLL
 0002:00000cd4       __imp_?SendMessageA@CWnd@@QAEJIIJ@Z 0043fcd4     mfc42d:MFC42D.DLL
 0002:00000cd8       __imp_?GetActiveView@CFrameWnd@@QBEPAVCView@@XZ 0043fcd8     mfc42d:MFC42D.DLL
 0002:00000cdc       __imp_?IsWindowVisible@CWnd@@QBEHXZ 0043fcdc     mfc42d:MFC42D.DLL
 0002:00000ce0       __imp_?OnSize@CMDIChildWnd@@IAEXIHH@Z 0043fce0     mfc42d:MFC42D.DLL
 0002:00000ce4       __imp_?OnMDIActivate@CMDIChildWnd@@IAEXHPAVCWnd@@0@Z 0043fce4     mfc42d:MFC42D.DLL
 0002:00000ce8       \177MFC42D_NULL_THUNK_DATA 0043fce8     mfc42d:MFC42D.DLL
 0002:00000cec       __imp_?Dump@COleServerItem@@UBEXAAVCDumpContext@@@Z 0043fcec     mfco42d:MFCO42D.DLL
 0002:00000cf0       __imp_?AssertValid@COleServerItem@@UBEXXZ 0043fcf0     mfco42d:MFCO42D.DLL
 0002:00000cf4       __imp_?OnGetExtent@COleServerItem@@UAEHW4tagDVASPECT@@AAVCSize@@@Z 0043fcf4     mfco42d:MFCO42D.DLL
 0002:00000cf8       __imp_?GetDocument@COleServerItem@@QBEPAVCOleServerDoc@@XZ 0043fcf8     mfco42d:MFCO42D.DLL
 0002:00000cfc       __imp_?IsLinkedItem@COleServerItem@@QBEHXZ 0043fcfc     mfco42d:MFCO42D.DLL
 0002:00000d00       __imp_??1COleServerItem@@UAE@XZ 0043fd00     mfco42d:MFCO42D.DLL
 0002:00000d04       __imp_??0COleServerItem@@IAE@PAVCOleServerDoc@@H@Z 0043fd04     mfco42d:MFCO42D.DLL
 0002:00000d08       __imp_?OnFinalRelease@COleServerItem@@UAEXXZ 0043fd08     mfco42d:MFCO42D.DLL
 0002:00000d0c       __imp_?GetInterfaceMap@COleServerItem@@MBEPBUAFX_INTERFACEMAP@@XZ 0043fd0c     mfco42d:MFCO42D.DLL
 0002:00000d10       __imp_?IsBlank@COleServerItem@@MBEHXZ 0043fd10     mfco42d:MFCO42D.DLL
 0002:00000d14       __imp_?OnUpdate@COleServerItem@@UAEXPAV1@JPAVCObject@@W4tagDVASPECT@@@Z 0043fd14     mfco42d:MFCO42D.DLL
 0002:00000d18       __imp_?OnDrawEx@COleServerItem@@UAEHPAVCDC@@W4tagDVASPECT@@AAVCSize@@@Z 0043fd18     mfco42d:MFCO42D.DLL
 0002:00000d1c       __imp_?OnSetExtent@COleServerItem@@UAEHW4tagDVASPECT@@ABVCSize@@@Z 0043fd1c     mfco42d:MFCO42D.DLL
 0002:00000d20       __imp_?OnDoVerb@COleServerItem@@UAEXJ@Z 0043fd20     mfco42d:MFCO42D.DLL
 0002:00000d24       __imp_?OnSetColorScheme@COleServerItem@@UAEHPBUtagLOGPALETTE@@@Z 0043fd24     mfco42d:MFCO42D.DLL
 0002:00000d28       __imp_?OnGetClipboardData@COleServerItem@@UAEPAVCOleDataSource@@HPAUtagPOINT@@PAUtagSIZE@@@Z 0043fd28     mfco42d:MFCO42D.DLL
 0002:00000d2c       __imp_?OnQueryUpdateItems@COleServerItem@@UAEHXZ 0043fd2c     mfco42d:MFCO42D.DLL
 0002:00000d30       __imp_?OnUpdateItems@COleServerItem@@UAEXXZ 0043fd30     mfco42d:MFCO42D.DLL
 0002:00000d34       __imp_?OnShow@COleServerItem@@MAEXXZ 0043fd34     mfco42d:MFCO42D.DLL
 0002:00000d38       __imp_?OnOpen@COleServerItem@@MAEXXZ 0043fd38     mfco42d:MFCO42D.DLL
 0002:00000d3c       __imp_?OnHide@COleServerItem@@MAEXXZ 0043fd3c     mfco42d:MFCO42D.DLL
 0002:00000d40       __imp_?OnInitFromData@COleServerItem@@UAEHPAVCOleDataObject@@H@Z 0043fd40     mfco42d:MFCO42D.DLL
 0002:00000d44       __imp_?OnRenderGlobalData@COleServerItem@@UAEHPAUtagFORMATETC@@PAPAX@Z 0043fd44     mfco42d:MFCO42D.DLL
 0002:00000d48       __imp_?OnRenderFileData@COleServerItem@@UAEHPAUtagFORMATETC@@PAVCFile@@@Z 0043fd48     mfco42d:MFCO42D.DLL
 0002:00000d4c       __imp_?OnRenderData@COleServerItem@@UAEHPAUtagFORMATETC@@PAUtagSTGMEDIUM@@@Z 0043fd4c     mfco42d:MFCO42D.DLL
 0002:00000d50       __imp_?OnSetData@COleServerItem@@UAEHPAUtagFORMATETC@@PAUtagSTGMEDIUM@@H@Z 0043fd50     mfco42d:MFCO42D.DLL
 0002:00000d54       __imp_?GetMetafileData@COleServerItem@@MAEHPAUtagFORMATETC@@PAUtagSTGMEDIUM@@@Z 0043fd54     mfco42d:MFCO42D.DLL
 0002:00000d58       __imp_?OnSaveEmbedding@COleServerItem@@MAEXPAUIStorage@@@Z 0043fd58     mfco42d:MFCO42D.DLL
 0002:00000d5c       __imp_?classCOleServerItem@COleServerItem@@2UCRuntimeClass@@B 0043fd5c     mfco42d:MFCO42D.DLL
 0002:00000d60       __imp_?AfxOleInit@@YGHXZ   0043fd60     mfco42d:MFCO42D.DLL
 0002:00000d64       __imp_?AfxEnableControlContainer@@YAXPAVCOccManager@@@Z 0043fd64     mfco42d:MFCO42D.DLL
 0002:00000d68       __imp_?IsBlank@CDocItem@@UBEHXZ 0043fd68     mfco42d:MFCO42D.DLL
 0002:00000d6c       __imp_?SetDrawAspect@COleClientItem@@UAEXW4tagDVASPECT@@@Z 0043fd6c     mfco42d:MFCO42D.DLL
 0002:00000d70       __imp_?Release@COleClientItem@@UAEXW4tagOLECLOSE@@@Z 0043fd70     mfco42d:MFCO42D.DLL
 0002:00000d74       __imp_?DoVerb@COleClientItem@@UAEHJPAVCView@@PAUtagMSG@@@Z 0043fd74     mfco42d:MFCO42D.DLL
 0002:00000d78       __imp_?OnGetClipboardData@COleClientItem@@UAEPAVCOleDataSource@@HPAUtagPOINT@@PAUtagSIZE@@@Z 0043fd78     mfco42d:MFCO42D.DLL
 0002:00000d7c       __imp_?ConvertTo@COleClientItem@@UAEHABU_GUID@@@Z 0043fd7c     mfco42d:MFCO42D.DLL
 0002:00000d80       __imp_?ActivateAs@COleClientItem@@UAEHPBDABU_GUID@@1@Z 0043fd80     mfco42d:MFCO42D.DLL
 0002:00000d84       __imp_?OnScrollBy@COleClientItem@@MAEHVCSize@@@Z 0043fd84     mfco42d:MFCO42D.DLL
 0002:00000d88       __imp_?OnDiscardUndoState@COleClientItem@@MAEXXZ 0043fd88     mfco42d:MFCO42D.DLL
 0002:00000d8c       __imp_?OnDeactivateAndUndo@COleClientItem@@MAEXXZ 0043fd8c     mfco42d:MFCO42D.DLL
 0002:00000d90       __imp_?OnShowItem@COleClientItem@@MAEXXZ 0043fd90     mfco42d:MFCO42D.DLL
 0002:00000d94       __imp_?OnGetClipRect@COleClientItem@@MAEXAAVCRect@@@Z 0043fd94     mfco42d:MFCO42D.DLL
 0002:00000d98       __imp_?OnActivateUI@COleClientItem@@UAEXXZ 0043fd98     mfco42d:MFCO42D.DLL
 0002:00000d9c       __imp_?OnDeactivate@COleClientItem@@UAEXXZ 0043fd9c     mfco42d:MFCO42D.DLL
 0002:00000da0       __imp_?OnGetWindowContext@COleClientItem@@MAEHPAPAVCFrameWnd@@0PAUtagOIFI@@@Z 0043fda0     mfco42d:MFCO42D.DLL
 0002:00000da4       __imp_?OnInsertMenus@COleClientItem@@UAEXPAVCMenu@@PAUtagOleMenuGroupWidths@@@Z 0043fda4     mfco42d:MFCO42D.DLL
 0002:00000da8       __imp_?OnSetMenu@COleClientItem@@UAEXPAVCMenu@@PAXPAUHWND__@@@Z 0043fda8     mfco42d:MFCO42D.DLL
 0002:00000dac       __imp_?OnRemoveMenus@COleClientItem@@UAEXPAVCMenu@@@Z 0043fdac     mfco42d:MFCO42D.DLL
 0002:00000db0       __imp_?OnUpdateFrameTitle@COleClientItem@@UAEHXZ 0043fdb0     mfco42d:MFCO42D.DLL
 0002:00000db4       __imp_?OnShowControlBars@COleClientItem@@UAEHPAVCFrameWnd@@H@Z 0043fdb4     mfco42d:MFCO42D.DLL
 0002:00000db8       __imp_?ReportError@COleClientItem@@UBEHJ@Z 0043fdb8     mfco42d:MFCO42D.DLL
 0002:00000dbc       __imp_?FreezeLink@COleClientItem@@UAEHXZ 0043fdbc     mfco42d:MFCO42D.DLL
 0002:00000dc0       __imp_?GetClientSite@COleClientItem@@MAEPAUIOleClientSite@@XZ 0043fdc0     mfco42d:MFCO42D.DLL
 0002:00000dc4       __imp_?FinishCreate@COleClientItem@@MAEHJ@Z 0043fdc4     mfco42d:MFCO42D.DLL
 0002:00000dc8       __imp_?CheckGeneral@COleClientItem@@MAEXJ@Z 0043fdc8     mfco42d:MFCO42D.DLL
 0002:00000dcc       __imp_?OnDataChange@COleClientItem@@MAEXPAUtagFORMATETC@@PAUtagSTGMEDIUM@@@Z 0043fdcc     mfco42d:MFCO42D.DLL
 0002:00000dd0       __imp_?GetItemStorage@COleClientItem@@UAEXXZ 0043fdd0     mfco42d:MFCO42D.DLL
 0002:00000dd4       __imp_?ReadItem@COleClientItem@@UAEXAAVCArchive@@@Z 0043fdd4     mfco42d:MFCO42D.DLL
 0002:00000dd8       __imp_?WriteItem@COleClientItem@@UAEXAAVCArchive@@@Z 0043fdd8     mfco42d:MFCO42D.DLL
 0002:00000ddc       __imp_?CommitItem@COleClientItem@@UAEXH@Z 0043fddc     mfco42d:MFCO42D.DLL
 0002:00000de0       __imp_?classCOleClientItem@COleClientItem@@2UCRuntimeClass@@B 0043fde0     mfco42d:MFCO42D.DLL
 0002:00000de4       __imp_?GetItemState@COleClientItem@@QBEIXZ 0043fde4     mfco42d:MFCO42D.DLL
 0002:00000de8       __imp_??1COleObjectFactory@@UAE@XZ 0043fde8     mfco42d:MFCO42D.DLL
 0002:00000dec       __imp_??0COleTemplateServer@@QAE@XZ 0043fdec     mfco42d:MFCO42D.DLL
 0002:00000df0       __imp_?Serialize@COleDocument@@UAEXAAVCArchive@@@Z 0043fdf0     mfco42d:MFCO42D.DLL
 0002:00000df4       __imp_?Dump@COleServerDoc@@UBEXAAVCDumpContext@@@Z 0043fdf4     mfco42d:MFCO42D.DLL
 0002:00000df8       __imp_?AssertValid@COleServerDoc@@UBEXXZ 0043fdf8     mfco42d:MFCO42D.DLL
 0002:00000dfc       __imp_?OnCloseDocument@COleDocument@@UAEXXZ 0043fdfc     mfco42d:MFCO42D.DLL
 0002:00000e00       __imp_?OnNewDocument@COleLinkingDoc@@UAEHXZ 0043fe00     mfco42d:MFCO42D.DLL
 0002:00000e04       __imp_??0COleServerDoc@@QAE@XZ 0043fe04     mfco42d:MFCO42D.DLL
 0002:00000e08       __imp_?EnableCompoundFile@COleDocument@@QAEXH@Z 0043fe08     mfco42d:MFCO42D.DLL
 0002:00000e0c       __imp_?EnableAutomation@CCmdTarget@@QAEXXZ 0043fe0c     mfco42d:MFCO42D.DLL
 0002:00000e10       __imp_??1COleServerDoc@@UAE@XZ 0043fe10     mfco42d:MFCO42D.DLL
 0002:00000e14       __imp_?OnCmdMsg@COleDocument@@UAEHIHPAXPAUAFX_CMDHANDLERINFO@@@Z 0043fe14     mfco42d:MFCO42D.DLL
 0002:00000e18       __imp_?GetInterfaceHook@COleServerDoc@@MAEPAUIUnknown@@PBX@Z 0043fe18     mfco42d:MFCO42D.DLL
 0002:00000e1c       __imp_?SetPathName@COleDocument@@UAEXPBDH@Z 0043fe1c     mfco42d:MFCO42D.DLL
 0002:00000e20       __imp_?OnSaveDocument@COleServerDoc@@UAEHPBD@Z 0043fe20     mfco42d:MFCO42D.DLL
 0002:00000e24       __imp_?ReportSaveLoadException@COleLinkingDoc@@UAEXPBDPAVCException@@HI@Z 0043fe24     mfco42d:MFCO42D.DLL
 0002:00000e28       __imp_?CanCloseFrame@COleServerDoc@@UAEHPAVCFrameWnd@@@Z 0043fe28     mfco42d:MFCO42D.DLL
 0002:00000e2c       __imp_?SaveModified@COleServerDoc@@MAEHXZ 0043fe2c     mfco42d:MFCO42D.DLL
 0002:00000e30       __imp_?PreCloseFrame@COleDocument@@UAEXPAVCFrameWnd@@@Z 0043fe30     mfco42d:MFCO42D.DLL
 0002:00000e34       __imp_?GetDefaultAccelerator@COleServerDoc@@MAEPAUHACCEL__@@XZ 0043fe34     mfco42d:MFCO42D.DLL
 0002:00000e38       __imp_?OnIdle@COleDocument@@UAEXXZ 0043fe38     mfco42d:MFCO42D.DLL
 0002:00000e3c       __imp_?GetInPlaceActiveItem@COleDocument@@UAEPAVCOleClientItem@@PAVCWnd@@@Z 0043fe3c     mfco42d:MFCO42D.DLL
 0002:00000e40       __imp_?GetStartPosition@COleDocument@@UBEPAU__POSITION@@XZ 0043fe40     mfco42d:MFCO42D.DLL
 0002:00000e44       __imp_?GetNextItem@COleDocument@@UBEPAVCDocItem@@AAPAU__POSITION@@@Z 0043fe44     mfco42d:MFCO42D.DLL
 0002:00000e48       __imp_?AddItem@COleDocument@@UAEXPAVCDocItem@@@Z 0043fe48     mfco42d:MFCO42D.DLL
 0002:00000e4c       __imp_?RemoveItem@COleDocument@@UAEXPAVCDocItem@@@Z 0043fe4c     mfco42d:MFCO42D.DLL
 0002:00000e50       __imp_?UpdateModifiedFlag@COleDocument@@UAEXXZ 0043fe50     mfco42d:MFCO42D.DLL
 0002:00000e54       __imp_?GetPrimarySelectedItem@COleDocument@@UAEPAVCOleClientItem@@PAVCView@@@Z 0043fe54     mfco42d:MFCO42D.DLL
 0002:00000e58       __imp_?OnShowViews@COleLinkingDoc@@MAEXH@Z 0043fe58     mfco42d:MFCO42D.DLL
 0002:00000e5c       __imp_?GetMoniker@COleServerDoc@@UAEPAUIMoniker@@W4tagOLEGETMONIKER@@@Z 0043fe5c     mfco42d:MFCO42D.DLL
 0002:00000e60       __imp_?GetContainer@COleLinkingDoc@@UAEPAUIOleItemContainer@@XZ 0043fe60     mfco42d:MFCO42D.DLL
 0002:00000e64       __imp_?LoadFromStorage@COleDocument@@MAEXXZ 0043fe64     mfco42d:MFCO42D.DLL
 0002:00000e68       __imp_?SaveToStorage@COleLinkingDoc@@MAEXPAVCObject@@@Z 0043fe68     mfco42d:MFCO42D.DLL
 0002:00000e6c       __imp_?OnGetLinkedItem@COleServerDoc@@UAEPAVCOleServerItem@@PBD@Z 0043fe6c     mfco42d:MFCO42D.DLL
 0002:00000e70       __imp_?OnFindEmbeddedItem@COleLinkingDoc@@MAEPAVCOleClientItem@@PBD@Z 0043fe70     mfco42d:MFCO42D.DLL
 0002:00000e74       __imp_?RegisterIfServerAttached@COleLinkingDoc@@MAEHPBDH@Z 0043fe74     mfco42d:MFCO42D.DLL
 0002:00000e78       __imp_?OnUpdateDocument@COleServerDoc@@UAEHXZ 0043fe78     mfco42d:MFCO42D.DLL
 0002:00000e7c       __imp_?OnClose@COleServerDoc@@MAEXW4tagOLECLOSE@@@Z 0043fe7c     mfco42d:MFCO42D.DLL
 0002:00000e80       __imp_?OnSetHostNames@COleServerDoc@@MAEXPBD0@Z 0043fe80     mfco42d:MFCO42D.DLL
 0002:00000e84       __imp_?OnExecOleCmd@COleServerDoc@@MAEJPBU_GUID@@KKPAUtagVARIANT@@1@Z 0043fe84     mfco42d:MFCO42D.DLL
 0002:00000e88       __imp_?GetInPlaceWindow@COleClientItem@@QAEPAVCWnd@@XZ 0043fe88     mfco42d:MFCO42D.DLL
 0002:00000e8c       __imp_?Close@COleClientItem@@QAEXW4tagOLECLOSE@@@Z 0043fe8c     mfco42d:MFCO42D.DLL
 0002:00000e90       __imp_??0COleInsertDialog@@QAE@KPAVCWnd@@@Z 0043fe90     mfco42d:MFCO42D.DLL
 0002:00000e94       __imp_?DoModal@COleInsertDialog@@UAEHXZ 0043fe94     mfco42d:MFCO42D.DLL
 0002:00000e98       __imp_??1COleInsertDialog@@UAE@XZ 0043fe98     mfco42d:MFCO42D.DLL
 0002:00000e9c       __imp_?CreateItem@COleInsertDialog@@QAEHPAVCOleClientItem@@@Z 0043fe9c     mfco42d:MFCO42D.DLL
 0002:00000ea0       __imp_?GetSelectionType@COleInsertDialog@@QBEIXZ 0043fea0     mfco42d:MFCO42D.DLL
 0002:00000ea4       __imp_?Delete@COleClientItem@@QAEXH@Z 0043fea4     mfco42d:MFCO42D.DLL
 0002:00000ea8       __imp_?GetNextClientItem@COleDocument@@QBEPAVCOleClientItem@@AAPAU__POSITION@@@Z 0043fea8     mfco42d:MFCO42D.DLL
 0002:00000eac       __imp_?Draw@COleClientItem@@QAEHPAVCDC@@PBUtagRECT@@W4tagDVASPECT@@@Z 0043feac     mfco42d:MFCO42D.DLL
 0002:00000eb0       __imp_??0COleClientItem@@QAE@PAVCOleDocument@@@Z 0043feb0     mfco42d:MFCO42D.DLL
 0002:00000eb4       __imp_??1COleClientItem@@UAE@XZ 0043feb4     mfco42d:MFCO42D.DLL
 0002:00000eb8       __imp_?OnChange@COleClientItem@@UAEXW4OLE_NOTIFICATION@@K@Z 0043feb8     mfco42d:MFCO42D.DLL
 0002:00000ebc       __imp_?GetDocument@COleClientItem@@QBEPAVCOleDocument@@XZ 0043febc     mfco42d:MFCO42D.DLL
 0002:00000ec0       __imp_?OnChangeItemPosition@COleClientItem@@MAEHABVCRect@@@Z 0043fec0     mfco42d:MFCO42D.DLL
 0002:00000ec4       __imp_?OnActivate@COleClientItem@@UAEXXZ 0043fec4     mfco42d:MFCO42D.DLL
 0002:00000ec8       __imp_?GetActiveView@COleClientItem@@QBEPAVCView@@XZ 0043fec8     mfco42d:MFCO42D.DLL
 0002:00000ecc       __imp_?Deactivate@COleClientItem@@QAEXXZ 0043fecc     mfco42d:MFCO42D.DLL
 0002:00000ed0       __imp_?OnDeactivateUI@COleClientItem@@UAEXH@Z 0043fed0     mfco42d:MFCO42D.DLL
 0002:00000ed4       __imp_?Serialize@COleClientItem@@UAEXAAVCArchive@@@Z 0043fed4     mfco42d:MFCO42D.DLL
 0002:00000ed8       __imp_?CanActivate@COleClientItem@@MAEHXZ 0043fed8     mfco42d:MFCO42D.DLL
 0002:00000edc       __imp_?IsInPlaceActive@COleServerDoc@@QBEHXZ 0043fedc     mfco42d:MFCO42D.DLL
 0002:00000ee0       __imp_?classCOleServerDoc@COleServerDoc@@2UCRuntimeClass@@B 0043fee0     mfco42d:MFCO42D.DLL
 0002:00000ee4       __imp_?AssertValid@COleClientItem@@UBEXXZ 0043fee4     mfco42d:MFCO42D.DLL
 0002:00000ee8       __imp_?Dump@COleClientItem@@UBEXAAVCDumpContext@@@Z 0043fee8     mfco42d:MFCO42D.DLL
 0002:00000eec       __imp_?OnEditLinks@COleDocument@@IAEXXZ 0043feec     mfco42d:MFCO42D.DLL
 0002:00000ef0       __imp_?OnUpdateEditLinksMenu@COleDocument@@IAEXPAVCCmdUI@@@Z 0043fef0     mfco42d:MFCO42D.DLL
 0002:00000ef4       __imp_?OnEditConvert@COleDocument@@IAEXXZ 0043fef4     mfco42d:MFCO42D.DLL
 0002:00000ef8       __imp_?OnUpdateObjectVerbMenu@COleDocument@@IAEXPAVCCmdUI@@@Z 0043fef8     mfco42d:MFCO42D.DLL
 0002:00000efc       __imp_?OnUpdatePasteLinkMenu@COleDocument@@IAEXPAVCCmdUI@@@Z 0043fefc     mfco42d:MFCO42D.DLL
 0002:00000f00       __imp_?OnUpdatePasteMenu@COleDocument@@IAEXPAVCCmdUI@@@Z 0043ff00     mfco42d:MFCO42D.DLL
 0002:00000f04       __imp_?classCOleDocument@COleDocument@@2UCRuntimeClass@@B 0043ff04     mfco42d:MFCO42D.DLL
 0002:00000f08       __imp_?interfaceMap@COleServerDoc@@1UAFX_INTERFACEMAP@@B 0043ff08     mfco42d:MFCO42D.DLL
 0002:00000f0c       __imp_?OnSaveEmbedding@COleServerDoc@@MAEXPAUIStorage@@@Z 0043ff0c     mfco42d:MFCO42D.DLL
 0002:00000f10       __imp_?OnOpenEmbedding@COleServerDoc@@MAEXPAUIStorage@@@Z 0043ff10     mfco42d:MFCO42D.DLL
 0002:00000f14       __imp_?OnNewEmbedding@COleServerDoc@@MAEXPAUIStorage@@@Z 0043ff14     mfco42d:MFCO42D.DLL
 0002:00000f18       __imp_?GetFileTypeString@COleServerDoc@@MAEHAAVCString@@@Z 0043ff18     mfco42d:MFCO42D.DLL
 0002:00000f1c       __imp_?OnResizeBorder@COleServerDoc@@UAEXPBUtagRECT@@PAUIOleInPlaceUIWindow@@H@Z 0043ff1c     mfco42d:MFCO42D.DLL
 0002:00000f20       __imp_?DestroyInPlaceFrame@COleServerDoc@@MAEXPAVCOleIPFrameWnd@@@Z 0043ff20     mfco42d:MFCO42D.DLL
 0002:00000f24       __imp_?CreateInPlaceFrame@COleServerDoc@@MAEPAVCOleIPFrameWnd@@PAVCWnd@@@Z 0043ff24     mfco42d:MFCO42D.DLL
 0002:00000f28       __imp_?OnShowControlBars@COleServerDoc@@MAEXPAVCFrameWnd@@H@Z 0043ff28     mfco42d:MFCO42D.DLL
 0002:00000f2c       __imp_?OnDocWindowActivate@COleServerDoc@@MAEXH@Z 0043ff2c     mfco42d:MFCO42D.DLL
 0002:00000f30       __imp_?OnFrameWindowActivate@COleServerDoc@@MAEXH@Z 0043ff30     mfco42d:MFCO42D.DLL
 0002:00000f34       __imp_?OnReactivateAndUndo@COleServerDoc@@MAEHXZ 0043ff34     mfco42d:MFCO42D.DLL
 0002:00000f38       __imp_?OnSetItemRects@COleServerDoc@@MAEXPBUtagRECT@@0@Z 0043ff38     mfco42d:MFCO42D.DLL
 0002:00000f3c       __imp_?OnDeactivateUI@COleServerDoc@@UAEXH@Z 0043ff3c     mfco42d:MFCO42D.DLL
 0002:00000f40       __imp_?OnDeactivate@COleServerDoc@@UAEXXZ 0043ff40     mfco42d:MFCO42D.DLL
 0002:00000f44       __imp_?OnShowDocument@COleServerDoc@@MAEXH@Z 0043ff44     mfco42d:MFCO42D.DLL
 0002:00000f48       __imp_?GetDocObjectServer@COleServerDoc@@MAEPAVCDocObjectServer@@PAUIOleDocumentSite@@@Z 0043ff48     mfco42d:MFCO42D.DLL
 0002:00000f4c       __imp_?GetInterfaceMap@COleClientItem@@MBEPBUAFX_INTERFACEMAP@@XZ 0043ff4c     mfco42d:MFCO42D.DLL
 0002:00000f50       \177MFCO42D_NULL_THUNK_DATA 0043ff50     mfco42d:MFCO42D.DLL
 0002:00000f54       __imp_?ResetVuBasedVars_CurDlg@CCurMouse@@QAEXXZ 0043ff54     MMgr_D32:MMgr_D32.dll
 0002:00000f58       __imp_?ResetVuBasedVars_NodDlg@CNodMouse@@QAEXXZ 0043ff58     MMgr_D32:MMgr_D32.dll
 0002:00000f5c       __imp_?OnDBoxRButtonUp@CDBMouse@@QAEXPAVCClientDC@@PAVCView@@IVCPoint@@@Z 0043ff5c     MMgr_D32:MMgr_D32.dll
 0002:00000f60       __imp_?OnDBoxRButtonDown@CDBMouse@@QAEXPAVCClientDC@@PAVCView@@IVCPoint@@@Z 0043ff60     MMgr_D32:MMgr_D32.dll
 0002:00000f64       __imp_?OnDBoxLButtonUp@CDBMouse@@QAEXPAVCClientDC@@PAVCView@@IVCPoint@@@Z 0043ff64     MMgr_D32:MMgr_D32.dll
 0002:00000f68       __imp_?OnDBoxLButtonDown@CDBMouse@@QAEXPAVCClientDC@@PAVCView@@IVCPoint@@@Z 0043ff68     MMgr_D32:MMgr_D32.dll
 0002:00000f6c       __imp_?SetViewNumber@CMouse@@QAEXI@Z 0043ff6c     MMgr_D32:MMgr_D32.dll
 0002:00000f70       __imp_?OnDBoxMouseMove@CDBMouse@@QAEXPAVCClientDC@@PAVCView@@IVCPoint@@@Z 0043ff70     MMgr_D32:MMgr_D32.dll
 0002:00000f74       __imp_?GetStatusMouseWIC@CMouseMgr@@QAE?AULPOINT3@@XZ 0043ff74     MMgr_D32:MMgr_D32.dll
 0002:00000f78       __imp_?ModeLessOn_CUR@CCurMouse@@QAEXXZ 0043ff78     MMgr_D32:MMgr_D32.dll
 0002:00000f7c       __imp_?ModeLessOn_PAT@CPatMouse@@QAEXXZ 0043ff7c     MMgr_D32:MMgr_D32.dll
 0002:00000f80       __imp_?ModeLessOn_SOL@CSolMouse@@QAEXXZ 0043ff80     MMgr_D32:MMgr_D32.dll
 0002:00000f84       __imp_?ModeLessOn_O3D@CO3DMouse@@QAEXXZ 0043ff84     MMgr_D32:MMgr_D32.dll
 0002:00000f88       __imp_?ModeLessOff_O3D@CO3DMouse@@QAEXXZ 0043ff88     MMgr_D32:MMgr_D32.dll
 0002:00000f8c       __imp_?ModeLessOn_NOD@CNodMouse@@QAEXXZ 0043ff8c     MMgr_D32:MMgr_D32.dll
 0002:00000f90       __imp_?ModeLessOn_SUP@CSupMouse@@QAEXXZ 0043ff90     MMgr_D32:MMgr_D32.dll
 0002:00000f94       __imp_?ModeLessOn_SLD@CSLDMouse@@QAEXXZ 0043ff94     MMgr_D32:MMgr_D32.dll
 0002:00000f98       __imp_?ReSetToolID@CMouseMgr@@QAEIIII@Z 0043ff98     MMgr_D32:MMgr_D32.dll
 0002:00000f9c       __imp_?ModeLessOff_NOD@CNodMouse@@QAEXXZ 0043ff9c     MMgr_D32:MMgr_D32.dll
 0002:00000fa0       __imp_?ModeLessOff_CUR@CCurMouse@@QAEXXZ 0043ffa0     MMgr_D32:MMgr_D32.dll
 0002:00000fa4       __imp_?ModeLessOff_PAT@CPatMouse@@QAEXXZ 0043ffa4     MMgr_D32:MMgr_D32.dll
 0002:00000fa8       __imp_?ModeLessOff_SOL@CSolMouse@@QAEXXZ 0043ffa8     MMgr_D32:MMgr_D32.dll
 0002:00000fac       __imp_?ModeLessOff_SLD@CSLDMouse@@QAEXXZ 0043ffac     MMgr_D32:MMgr_D32.dll
 0002:00000fb0       __imp_?ModeLessOff_SUP@CSupMouse@@QAEXXZ 0043ffb0     MMgr_D32:MMgr_D32.dll
 0002:00000fb4       __imp_?CancelO3DIn@CO3DMouse@@QAEJIJ@Z 0043ffb4     MMgr_D32:MMgr_D32.dll
 0002:00000fb8       __imp_?UpdateO3DIn@CO3DMouse@@QAEJIJ@Z 0043ffb8     MMgr_D32:MMgr_D32.dll
 0002:00000fbc       __imp_?GoodByeO3DIn@CO3DMouse@@QAEJIJ@Z 0043ffbc     MMgr_D32:MMgr_D32.dll
 0002:00000fc0       __imp_?CreateorActivateO3DIn@CO3DMouse@@QAEJIJ@Z 0043ffc0     MMgr_D32:MMgr_D32.dll
 0002:00000fc4       __imp_?CancelSolIn@CSolMouse@@QAEJIJ@Z 0043ffc4     MMgr_D32:MMgr_D32.dll
 0002:00000fc8       __imp_?UpdateSolIn@CSolMouse@@QAEJIJ@Z 0043ffc8     MMgr_D32:MMgr_D32.dll
 0002:00000fcc       __imp_?GoodByeSolIn@CSolMouse@@QAEJIJ@Z 0043ffcc     MMgr_D32:MMgr_D32.dll
 0002:00000fd0       __imp_?CreateorActivateSolIn@CSolMouse@@QAEJIJ@Z 0043ffd0     MMgr_D32:MMgr_D32.dll
 0002:00000fd4       __imp_?CancelPatIn@CPatMouse@@QAEJIJ@Z 0043ffd4     MMgr_D32:MMgr_D32.dll
 0002:00000fd8       __imp_?SetViewCursor@CMouseMgr@@QAEXH@Z 0043ffd8     MMgr_D32:MMgr_D32.dll
 0002:00000fdc       __imp_?GoodByePatIn@CPatMouse@@QAEJIJ@Z 0043ffdc     MMgr_D32:MMgr_D32.dll
 0002:00000fe0       __imp_?CreateorActivatePatIn@CPatMouse@@QAEJIJ@Z 0043ffe0     MMgr_D32:MMgr_D32.dll
 0002:00000fe4       __imp_?CancelCrcIn@CCurMouse@@QAEJIJ@Z 0043ffe4     MMgr_D32:MMgr_D32.dll
 0002:00000fe8       __imp_?UpdateCrcIn@CCurMouse@@QAEJIJ@Z 0043ffe8     MMgr_D32:MMgr_D32.dll
 0002:00000fec       __imp_?GoodByeCrcIn@CCurMouse@@QAEJIJ@Z 0043ffec     MMgr_D32:MMgr_D32.dll
 0002:00000ff0       __imp_?CreateorActivateCrcIn@CCurMouse@@QAEJIJ@Z 0043fff0     MMgr_D32:MMgr_D32.dll
 0002:00000ff4       __imp_?CancelLQCIn@CCurMouse@@QAEJIJ@Z 0043fff4     MMgr_D32:MMgr_D32.dll
 0002:00000ff8       __imp_?UpdateLQCIn@CCurMouse@@QAEJIJ@Z 0043fff8     MMgr_D32:MMgr_D32.dll
 0002:00000ffc       __imp_?GoodByeLQCIn@CCurMouse@@QAEJIJ@Z 0043fffc     MMgr_D32:MMgr_D32.dll
 0002:00001000       __imp_?CreateorActivateLQCIn@CCurMouse@@QAEJIJ@Z 00440000     MMgr_D32:MMgr_D32.dll
 0002:00001004       __imp_?CancelNodIn@CNodMouse@@QAEJIJ@Z 00440004     MMgr_D32:MMgr_D32.dll
 0002:00001008       __imp_?UpdateNodIn@CNodMouse@@QAEJIJ@Z 00440008     MMgr_D32:MMgr_D32.dll
 0002:0000100c       __imp_?GoodByeNodIn@CNodMouse@@QAEJIJ@Z 0044000c     MMgr_D32:MMgr_D32.dll
 0002:00001010       __imp_?CreateorActivateNodIn@CNodMouse@@QAEJIJ@Z 00440010     MMgr_D32:MMgr_D32.dll
 0002:00001014       __imp_?UpdateSupIn@CSupMouse@@QAEJIJ@Z 00440014     MMgr_D32:MMgr_D32.dll
 0002:00001018       __imp_?GoodByeSupIn@CSupMouse@@QAEJIJ@Z 00440018     MMgr_D32:MMgr_D32.dll
 0002:0000101c       __imp_?CreateorActivateSupIn@CSupMouse@@QAEJIJ@Z 0044001c     MMgr_D32:MMgr_D32.dll
 0002:00001020       __imp_?UpdateLWtIn@CSLDMouse@@QAEJIJ@Z 00440020     MMgr_D32:MMgr_D32.dll
 0002:00001024       __imp_?GoodByeLWtIn@CSLDMouse@@QAEJIJ@Z 00440024     MMgr_D32:MMgr_D32.dll
 0002:00001028       __imp_?CreateorActivateLWtIn@CSLDMouse@@QAEJIJ@Z 00440028     MMgr_D32:MMgr_D32.dll
 0002:0000102c       __imp_?UpdateThrIn@CSLDMouse@@QAEJIJ@Z 0044002c     MMgr_D32:MMgr_D32.dll
 0002:00001030       __imp_?GoodByeThrIn@CSLDMouse@@QAEJIJ@Z 00440030     MMgr_D32:MMgr_D32.dll
 0002:00001034       __imp_?CreateorActivateThrIn@CSLDMouse@@QAEJIJ@Z 00440034     MMgr_D32:MMgr_D32.dll
 0002:00001038       __imp_?UpdatePrsIn@CSLDMouse@@QAEJIJ@Z 00440038     MMgr_D32:MMgr_D32.dll
 0002:0000103c       __imp_?GoodByePrsIn@CSLDMouse@@QAEJIJ@Z 0044003c     MMgr_D32:MMgr_D32.dll
 0002:00001040       __imp_?CreateorActivatePrsIn@CSLDMouse@@QAEJIJ@Z 00440040     MMgr_D32:MMgr_D32.dll
 0002:00001044       __imp_?UpdateD_RIn@CSLDMouse@@QAEJIJ@Z 00440044     MMgr_D32:MMgr_D32.dll
 0002:00001048       __imp_?GoodByeD_RIn@CSLDMouse@@QAEJIJ@Z 00440048     MMgr_D32:MMgr_D32.dll
 0002:0000104c       __imp_?CreateorActivateD_RIn@CSLDMouse@@QAEJIJ@Z 0044004c     MMgr_D32:MMgr_D32.dll
 0002:00001050       __imp_?UpdateF_MIn@CSLDMouse@@QAEJIJ@Z 00440050     MMgr_D32:MMgr_D32.dll
 0002:00001054       __imp_?GoodByeF_MIn@CSLDMouse@@QAEJIJ@Z 00440054     MMgr_D32:MMgr_D32.dll
 0002:00001058       __imp_?CreateorActivateF_MIn@CSLDMouse@@QAEJIJ@Z 00440058     MMgr_D32:MMgr_D32.dll
 0002:0000105c       __imp_?InitDlgIn@CMouseMgr@@QAEXXZ 0044005c     MMgr_D32:MMgr_D32.dll
 0002:00001060       __imp_??0CMouseMgr@@QAE@XZ 00440060     MMgr_D32:MMgr_D32.dll
 0002:00001064       __imp_??1CMouseMgr@@UAE@XZ 00440064     MMgr_D32:MMgr_D32.dll
 0002:00001068       __imp__InitMMgrDLL@0       00440068     MMgr_D32:MMgr_D32.dll
 0002:0000106c       __imp_??1CViewInfo@@UAE@XZ 0044006c     MMgr_D32:MMgr_D32.dll
 0002:00001070       __imp_?ResetVuBasedVars_PatDlg@CPatMouse@@QAEXXZ 00440070     MMgr_D32:MMgr_D32.dll
 0002:00001074       __imp_?ResetVuBasedVars_SolDlg@CSolMouse@@QAEXXZ 00440074     MMgr_D32:MMgr_D32.dll
 0002:00001078       __imp_?OnEBoxMouseMove_SLD@CSLDMouse@@QAEXPAVCClientDC@@PAVCView@@W4GENERATE@@IVCPoint@@@Z 00440078     MMgr_D32:MMgr_D32.dll
 0002:0000107c       __imp_?OnEBoxRButtonUp_NOD@CNodMouse@@QAEXPAVCClientDC@@PAVCView@@W4GENERATE@@IVCPoint@@@Z 0044007c     MMgr_D32:MMgr_D32.dll
 0002:00001080       __imp_?OnEBoxRButtonUp_CUR@CCurMouse@@QAEXPAVCClientDC@@PAVCView@@W4GENERATE@@IVCPoint@@@Z 00440080     MMgr_D32:MMgr_D32.dll
 0002:00001084       __imp_?OnEBoxRButtonUp_PAT@CPatMouse@@QAEXPAVCClientDC@@PAVCView@@W4GENERATE@@IVCPoint@@@Z 00440084     MMgr_D32:MMgr_D32.dll
 0002:00001088       __imp_?OnEBoxRButtonUp_SOL@CSolMouse@@QAEXPAVCClientDC@@PAVCView@@W4GENERATE@@IVCPoint@@@Z 00440088     MMgr_D32:MMgr_D32.dll
 0002:0000108c       __imp_?OnEBoxRButtonUp_O3D@CO3DMouse@@QAEXPAVCClientDC@@PAVCView@@W4GENERATE@@IVCPoint@@@Z 0044008c     MMgr_D32:MMgr_D32.dll
 0002:00001090       __imp_?OnEBoxRButtonUp_SUP@CSupMouse@@QAEXPAVCClientDC@@PAVCView@@W4GENERATE@@IVCPoint@@@Z 00440090     MMgr_D32:MMgr_D32.dll
 0002:00001094       __imp_?OnEBoxRButtonUp_SLD@CSLDMouse@@QAEXPAVCClientDC@@PAVCView@@W4GENERATE@@IVCPoint@@@Z 00440094     MMgr_D32:MMgr_D32.dll
 0002:00001098       __imp_?OnEBoxRButtonDown_NOD@CNodMouse@@QAEXPAVCClientDC@@PAVCView@@W4GENERATE@@IVCPoint@@@Z 00440098     MMgr_D32:MMgr_D32.dll
 0002:0000109c       __imp_?OnEBoxRButtonDown_CUR@CCurMouse@@QAEXPAVCClientDC@@PAVCView@@W4GENERATE@@IVCPoint@@@Z 0044009c     MMgr_D32:MMgr_D32.dll
 0002:000010a0       __imp_?OnEBoxRButtonDown_PAT@CPatMouse@@QAEXPAVCClientDC@@PAVCView@@W4GENERATE@@IVCPoint@@@Z 004400a0     MMgr_D32:MMgr_D32.dll
 0002:000010a4       __imp_?OnEBoxRButtonDown_SOL@CSolMouse@@QAEXPAVCClientDC@@PAVCView@@W4GENERATE@@IVCPoint@@@Z 004400a4     MMgr_D32:MMgr_D32.dll
 0002:000010a8       __imp_?OnEBoxRButtonDown_O3D@CO3DMouse@@QAEXPAVCClientDC@@PAVCView@@W4GENERATE@@IVCPoint@@@Z 004400a8     MMgr_D32:MMgr_D32.dll
 0002:000010ac       __imp_?OnEBoxRButtonDown_SUP@CSupMouse@@QAEXPAVCClientDC@@PAVCView@@W4GENERATE@@IVCPoint@@@Z 004400ac     MMgr_D32:MMgr_D32.dll
 0002:000010b0       __imp_?OnEBoxRButtonDown_SLD@CSLDMouse@@QAEXPAVCClientDC@@PAVCView@@W4GENERATE@@IVCPoint@@@Z 004400b0     MMgr_D32:MMgr_D32.dll
 0002:000010b4       __imp_?OnEBoxLButtonUp_NOD@CNodMouse@@QAEXPAVCClientDC@@PAVCView@@W4GENERATE@@IVCPoint@@@Z 004400b4     MMgr_D32:MMgr_D32.dll
 0002:000010b8       __imp_?OnEBoxMouseMove_SUP@CSupMouse@@QAEXPAVCClientDC@@PAVCView@@W4GENERATE@@IVCPoint@@@Z 004400b8     MMgr_D32:MMgr_D32.dll
 0002:000010bc       __imp_?OnEBoxLButtonUp_CUR@CCurMouse@@QAEXPAVCClientDC@@PAVCView@@W4GENERATE@@IVCPoint@@@Z 004400bc     MMgr_D32:MMgr_D32.dll
 0002:000010c0       __imp_?OnEBoxLButtonUp_PAT@CPatMouse@@QAEXPAVCClientDC@@PAVCView@@W4GENERATE@@IVCPoint@@@Z 004400c0     MMgr_D32:MMgr_D32.dll
 0002:000010c4       __imp_?OnEBoxLButtonUp_SOL@CSolMouse@@QAEXPAVCClientDC@@PAVCView@@W4GENERATE@@IVCPoint@@@Z 004400c4     MMgr_D32:MMgr_D32.dll
 0002:000010c8       __imp_?OnEBoxLButtonUp_O3D@CO3DMouse@@QAEXPAVCClientDC@@PAVCView@@W4GENERATE@@IVCPoint@@@Z 004400c8     MMgr_D32:MMgr_D32.dll
 0002:000010cc       __imp_?OnEBoxLButtonUp_SUP@CSupMouse@@QAEXPAVCClientDC@@PAVCView@@W4GENERATE@@IVCPoint@@@Z 004400cc     MMgr_D32:MMgr_D32.dll
 0002:000010d0       __imp_?OnEBoxLButtonUp_SLD@CSLDMouse@@QAEXPAVCClientDC@@PAVCView@@W4GENERATE@@IVCPoint@@@Z 004400d0     MMgr_D32:MMgr_D32.dll
 0002:000010d4       __imp_?OnEBoxLButtonDown_NOD@CNodMouse@@QAEXPAVCClientDC@@PAVCView@@W4GENERATE@@IVCPoint@@@Z 004400d4     MMgr_D32:MMgr_D32.dll
 0002:000010d8       __imp_?OnEBoxLButtonDown_CUR@CCurMouse@@QAEXPAVCClientDC@@PAVCView@@W4GENERATE@@IVCPoint@@@Z 004400d8     MMgr_D32:MMgr_D32.dll
 0002:000010dc       __imp_?OnEBoxLButtonDown_PAT@CPatMouse@@QAEXPAVCClientDC@@PAVCView@@W4GENERATE@@IVCPoint@@@Z 004400dc     MMgr_D32:MMgr_D32.dll
 0002:000010e0       __imp_?OnEBoxLButtonDown_SOL@CSolMouse@@QAEXPAVCClientDC@@PAVCView@@W4GENERATE@@IVCPoint@@@Z 004400e0     MMgr_D32:MMgr_D32.dll
 0002:000010e4       __imp_?OnEBoxLButtonDown_O3D@CO3DMouse@@QAEXPAVCClientDC@@PAVCView@@W4GENERATE@@IVCPoint@@@Z 004400e4     MMgr_D32:MMgr_D32.dll
 0002:000010e8       __imp_?OnEBoxLButtonDown_SUP@CSupMouse@@QAEXPAVCClientDC@@PAVCView@@W4GENERATE@@IVCPoint@@@Z 004400e8     MMgr_D32:MMgr_D32.dll
 0002:000010ec       __imp_?OnEBoxLButtonDown_SLD@CSLDMouse@@QAEXPAVCClientDC@@PAVCView@@W4GENERATE@@IVCPoint@@@Z 004400ec     MMgr_D32:MMgr_D32.dll
 0002:000010f0       __imp_?OnEBoxMouseMove_NOD@CNodMouse@@QAEXPAVCClientDC@@PAVCView@@W4GENERATE@@IVCPoint@@@Z 004400f0     MMgr_D32:MMgr_D32.dll
 0002:000010f4       __imp_?OnEBoxMouseMove_CUR@CCurMouse@@QAEXPAVCClientDC@@PAVCView@@W4GENERATE@@IVCPoint@@@Z 004400f4     MMgr_D32:MMgr_D32.dll
 0002:000010f8       __imp_?OnEBoxMouseMove_PAT@CPatMouse@@QAEXPAVCClientDC@@PAVCView@@W4GENERATE@@IVCPoint@@@Z 004400f8     MMgr_D32:MMgr_D32.dll
 0002:000010fc       __imp_?OnEBoxMouseMove_SOL@CSolMouse@@QAEXPAVCClientDC@@PAVCView@@W4GENERATE@@IVCPoint@@@Z 004400fc     MMgr_D32:MMgr_D32.dll
 0002:00001100       __imp_?OnEBoxMouseMove_O3D@CO3DMouse@@QAEXPAVCClientDC@@PAVCView@@W4GENERATE@@IVCPoint@@@Z 00440100     MMgr_D32:MMgr_D32.dll
 0002:00001104       __imp_?UpdatePatIn@CPatMouse@@QAEJIJ@Z 00440104     MMgr_D32:MMgr_D32.dll
 0002:00001108       \177MMgr_D32_NULL_THUNK_DATA 00440108     MMgr_D32:MMgr_D32.dll
 0002:0000110c       __imp__InitMMs0DLL@0       0044010c     MMs0_D32:MMs0_D32.dll
 0002:00001110       \177MMs0_D32_NULL_THUNK_DATA 00440110     MMs0_D32:MMs0_D32.dll
 0002:00001114       __imp__InitMMs1DLL@0       00440114     MMs1_D32:MMs1_D32.dll
 0002:00001118       \177MMs1_D32_NULL_THUNK_DATA 00440118     MMs1_D32:MMs1_D32.dll
 0002:0000111c       __imp__InitMMs2DLL@0       0044011c     MMs2_D32:MMs2_D32.dll
 0002:00001120       \177MMs2_D32_NULL_THUNK_DATA 00440120     MMs2_D32:MMs2_D32.dll
 0002:00001124       __imp__InitMNodDLL@0       00440124     MNod_D32:MNod_D32.dll
 0002:00001128       \177MNod_D32_NULL_THUNK_DATA 00440128     MNod_D32:MNod_D32.dll
 0002:0000112c       __imp__InitMO3DDLL@0       0044012c     MO3D_D32:MO3D_D32.dll
 0002:00001130       \177MO3D_D32_NULL_THUNK_DATA 00440130     MO3D_D32:MO3D_D32.dll
 0002:00001134       __imp__InitMPatDLL@0       00440134     MPat_D32:MPat_D32.dll
 0002:00001138       \177MPat_D32_NULL_THUNK_DATA 00440138     MPat_D32:MPat_D32.dll
 0002:0000113c       __imp___controlfp          0044013c     msvcrtd:MSVCRTD.dll
 0002:00001140       __imp____setusermatherr    00440140     msvcrtd:MSVCRTD.dll
 0002:00001144       __imp___initterm           00440144     msvcrtd:MSVCRTD.dll
 0002:00001148       __imp____set_app_type      00440148     msvcrtd:MSVCRTD.dll
 0002:0000114c       __imp___acmdln             0044014c     msvcrtd:MSVCRTD.dll
 0002:00001150       __imp__exit                00440150     msvcrtd:MSVCRTD.dll
 0002:00001154       __imp___XcptFilter         00440154     msvcrtd:MSVCRTD.dll
 0002:00001158       __imp___adjust_fdiv        00440158     msvcrtd:MSVCRTD.dll
 0002:0000115c       __imp____p__fmode          0044015c     msvcrtd:MSVCRTD.dll
 0002:00001160       __imp____p__commode        00440160     msvcrtd:MSVCRTD.dll
 0002:00001164       __imp____getmainargs       00440164     msvcrtd:MSVCRTD.dll
 0002:00001168       __imp____dllonexit         00440168     msvcrtd:MSVCRTD.dll
 0002:0000116c       __imp___except_handler3    0044016c     msvcrtd:MSVCRTD.dll
 0002:00001170       __imp_??1type_info@@UAE@XZ 00440170     msvcrtd:MSVCRTD.dll
 0002:00001174       __imp__malloc              00440174     msvcrtd:MSVCRTD.dll
 0002:00001178       __imp__memcpy              00440178     msvcrtd:MSVCRTD.dll
 0002:0000117c       __imp___exit               0044017c     msvcrtd:MSVCRTD.dll
 0002:00001180       __imp___setmbcp            00440180     msvcrtd:MSVCRTD.dll
 0002:00001184       __imp___onexit             00440184     msvcrtd:MSVCRTD.dll
 0002:00001188       __imp__free                00440188     msvcrtd:MSVCRTD.dll
 0002:0000118c       __imp___strdup             0044018c     msvcrtd:MSVCRTD.dll
 0002:00001190       __imp__memset              00440190     msvcrtd:MSVCRTD.dll
 0002:00001194       __imp__sscanf              00440194     msvcrtd:MSVCRTD.dll
 0002:00001198       __imp__time                00440198     msvcrtd:MSVCRTD.dll
 0002:0000119c       __imp__rand                0044019c     msvcrtd:MSVCRTD.dll
 0002:000011a0       __imp__sprintf             004401a0     msvcrtd:MSVCRTD.dll
 0002:000011a4       __imp___ftol               004401a4     msvcrtd:MSVCRTD.dll
 0002:000011a8       __imp__sqrt                004401a8     msvcrtd:MSVCRTD.dll
 0002:000011ac       __imp___purecall           004401ac     msvcrtd:MSVCRTD.dll
 0002:000011b0       __imp____CxxFrameHandler   004401b0     msvcrtd:MSVCRTD.dll
 0002:000011b4       __imp_?terminate@@YAXXZ    004401b4     msvcrtd:MSVCRTD.dll
 0002:000011b8       \177MSVCRTD_NULL_THUNK_DATA 004401b8     msvcrtd:MSVCRTD.dll
 0002:000011bc       __imp__InitMSolDLL@0       004401bc     MSol_D32:MSol_D32.dll
 0002:000011c0       \177MSol_D32_NULL_THUNK_DATA 004401c0     MSol_D32:MSol_D32.dll
 0002:000011c4       __imp__InitMStLDLL@0       004401c4     MStL_D32:MStL_D32.dll
 0002:000011c8       \177MStL_D32_NULL_THUNK_DATA 004401c8     MStL_D32:MStL_D32.dll
 0002:000011cc       __imp__InitMSupDLL@0       004401cc     MSup_D32:MSup_D32.dll
 0002:000011d0       \177MSup_D32_NULL_THUNK_DATA 004401d0     MSup_D32:MSup_D32.dll
 0002:000011d4       __imp_?OnEBoxRButtonDown_CUR@CCurMdit@@QAEXPAVCClientDC@@PAVCView@@W4GENERATE@@IVCPoint@@@Z 004401d4     Mdit_D32:Mdit_D32.dll
 0002:000011d8       __imp_?OnEBoxRButtonDown_PAT@CPatMdit@@QAEXPAVCClientDC@@PAVCView@@W4GENERATE@@IVCPoint@@@Z 004401d8     Mdit_D32:Mdit_D32.dll
 0002:000011dc       __imp_?OnEBoxRButtonDown_SOL@CSolMdit@@QAEXPAVCClientDC@@PAVCView@@W4GENERATE@@IVCPoint@@@Z 004401dc     Mdit_D32:Mdit_D32.dll
 0002:000011e0       __imp_?OnEBoxLButtonUp_NOD@CNodMdit@@QAEXPAVCClientDC@@PAVCView@@W4GENERATE@@IVCPoint@@@Z 004401e0     Mdit_D32:Mdit_D32.dll
 0002:000011e4       __imp_?OnEBoxLButtonUp_CUR@CCurMdit@@QAEXPAVCClientDC@@PAVCView@@W4GENERATE@@IVCPoint@@@Z 004401e4     Mdit_D32:Mdit_D32.dll
 0002:000011e8       __imp_?OnEBoxLButtonUp_PAT@CPatMdit@@QAEXPAVCClientDC@@PAVCView@@W4GENERATE@@IVCPoint@@@Z 004401e8     Mdit_D32:Mdit_D32.dll
 0002:000011ec       __imp_?OnEBoxLButtonUp_SOL@CSolMdit@@QAEXPAVCClientDC@@PAVCView@@W4GENERATE@@IVCPoint@@@Z 004401ec     Mdit_D32:Mdit_D32.dll
 0002:000011f0       __imp_?OnEBoxLButtonDown_NOD@CNodMdit@@QAEXPAVCClientDC@@PAVCView@@W4GENERATE@@IVCPoint@@@Z 004401f0     Mdit_D32:Mdit_D32.dll
 0002:000011f4       __imp_?OnEBoxLButtonDown_CUR@CCurMdit@@QAEXPAVCClientDC@@PAVCView@@W4GENERATE@@IVCPoint@@@Z 004401f4     Mdit_D32:Mdit_D32.dll
 0002:000011f8       __imp_?OnEBoxLButtonDown_PAT@CPatMdit@@QAEXPAVCClientDC@@PAVCView@@W4GENERATE@@IVCPoint@@@Z 004401f8     Mdit_D32:Mdit_D32.dll
 0002:000011fc       __imp_?OnEBoxRButtonUp_PAT@CPatMdit@@QAEXPAVCClientDC@@PAVCView@@W4GENERATE@@IVCPoint@@@Z 004401fc     Mdit_D32:Mdit_D32.dll
 0002:00001200       __imp_?OnEBoxRButtonDown_NOD@CNodMdit@@QAEXPAVCClientDC@@PAVCView@@W4GENERATE@@IVCPoint@@@Z 00440200     Mdit_D32:Mdit_D32.dll
 0002:00001204       __imp_?OnEBoxMouseMove_NOD@CNodMdit@@QAEXPAVCClientDC@@PAVCView@@W4GENERATE@@IVCPoint@@@Z 00440204     Mdit_D32:Mdit_D32.dll
 0002:00001208       __imp_?OnEBoxMouseMove_CUR@CCurMdit@@QAEXPAVCClientDC@@PAVCView@@W4GENERATE@@IVCPoint@@@Z 00440208     Mdit_D32:Mdit_D32.dll
 0002:0000120c       __imp_?OnEBoxMouseMove_PAT@CPatMdit@@QAEXPAVCClientDC@@PAVCView@@W4GENERATE@@IVCPoint@@@Z 0044020c     Mdit_D32:Mdit_D32.dll
 0002:00001210       __imp_?OnEBoxMouseMove_SOL@CSolMdit@@QAEXPAVCClientDC@@PAVCView@@W4GENERATE@@IVCPoint@@@Z 00440210     Mdit_D32:Mdit_D32.dll
 0002:00001214       __imp_?ReSetToolID@CMditMgr@@QAEIIII@Z 00440214     Mdit_D32:Mdit_D32.dll
 0002:00001218       __imp_??0CMditMgr@@QAE@XZ  00440218     Mdit_D32:Mdit_D32.dll
 0002:0000121c       __imp_??1CMditMgr@@UAE@XZ  0044021c     Mdit_D32:Mdit_D32.dll
 0002:00001220       __imp_?OnEBoxRButtonUp_CUR@CCurMdit@@QAEXPAVCClientDC@@PAVCView@@W4GENERATE@@IVCPoint@@@Z 00440220     Mdit_D32:Mdit_D32.dll
 0002:00001224       __imp_?OnEBoxRButtonUp_NOD@CNodMdit@@QAEXPAVCClientDC@@PAVCView@@W4GENERATE@@IVCPoint@@@Z 00440224     Mdit_D32:Mdit_D32.dll
 0002:00001228       __imp__InitMditDLL@0       00440228     Mdit_D32:Mdit_D32.dll
 0002:0000122c       __imp_?SetViewCursor@CMditMgr@@QAEXH@Z 0044022c     Mdit_D32:Mdit_D32.dll
 0002:00001230       __imp_?OnEBoxRButtonUp_SOL@CSolMdit@@QAEXPAVCClientDC@@PAVCView@@W4GENERATE@@IVCPoint@@@Z 00440230     Mdit_D32:Mdit_D32.dll
 0002:00001234       __imp_?OnEBoxLButtonDown_SOL@CSolMdit@@QAEXPAVCClientDC@@PAVCView@@W4GENERATE@@IVCPoint@@@Z 00440234     Mdit_D32:Mdit_D32.dll
 0002:00001238       \177Mdit_D32_NULL_THUNK_DATA 00440238     Mdit_D32:Mdit_D32.dll
 0002:0000123c       __imp__InitMeshDLL@0       0044023c     Mesh_d32:Mesh_D32.dll
 0002:00001240       __imp_?IsMeshNode@CDrNode@@QAEHXZ 00440240     Mesh_d32:Mesh_D32.dll
 0002:00001244       __imp_?IsControlNode@CDrNode@@QAEHXZ 00440244     Mesh_d32:Mesh_D32.dll
 0002:00001248       \177Mesh_D32_NULL_THUNK_DATA 00440248     Mesh_d32:Mesh_D32.dll
 0002:0000124c       __imp__InitOGenDLL@0       0044024c     OGen_D32:OGEN_D32.dll
 0002:00001250       \177OGEN_D32_NULL_THUNK_DATA 00440250     OGen_D32:OGEN_D32.dll
 0002:00001254       __imp_?ChangeSelectionNextObjectIndex@CObjectMgr@@QAEXH@Z 00440254     OMgr_D32:OMgr_D32.dll
 0002:00001258       __imp_?GetRowCount@CObjectMgr@@QAEHXZ 00440258     OMgr_D32:OMgr_D32.dll
 0002:0000125c       __imp_?GetActiveRowIndex@CObjectMgr@@QAEHXZ 0044025c     OMgr_D32:OMgr_D32.dll
 0002:00001260       __imp_?ChangeSelectionToObjectIndex@CAxObjMgr@@QAEXI@Z 00440260     OMgr_D32:OMgr_D32.dll
 0002:00001264       __imp_?ChangeSelectionNextObjectIndex@CAxObjMgr@@QAEXH@Z 00440264     OMgr_D32:OMgr_D32.dll
 0002:00001268       __imp_?GetRowCount@CAxObjMgr@@QAEHXZ 00440268     OMgr_D32:OMgr_D32.dll
 0002:0000126c       __imp_?GetSpecObject@CObjectMgr@@QAEPAVCDrObject@@H@Z 0044026c     OMgr_D32:OMgr_D32.dll
 0002:00001270       __imp_?Do_Object_DataView@CMsObjMgr@@QAEXPAVCDC@@HH@Z 00440270     OMgr_D32:OMgr_D32.dll
 0002:00001274       __imp_?classCDataRowHint@CDataRowHint@@2UCRuntimeClass@@B 00440274     OMgr_D32:OMgr_D32.dll
 0002:00001278       __imp_?ChangeSelectionNextObjectIndex@CMsObjMgr@@QAEXH@Z 00440278     OMgr_D32:OMgr_D32.dll
 0002:0000127c       __imp_?GetRowCount@CMsObjMgr@@QAEHXZ 0044027c     OMgr_D32:OMgr_D32.dll
 0002:00001280       __imp_?Do_Object_DrawView@CAxObjMgr@@QAEXPAVCDC@@HHHH@Z 00440280     OMgr_D32:OMgr_D32.dll
 0002:00001284       __imp_?GetActiveRowIndex@CAxObjMgr@@QAEHXZ 00440284     OMgr_D32:OMgr_D32.dll
 0002:00001288       __imp__InitOMgrDLL@0       00440288     OMgr_D32:OMgr_D32.dll
 0002:0000128c       __imp_?Do_Object_DataView@CAxObjMgr@@QAEXPAVCDC@@HH@Z 0044028c     OMgr_D32:OMgr_D32.dll
 0002:00001290       __imp_??0CMsObjMgr@@QAE@XZ 00440290     OMgr_D32:OMgr_D32.dll
 0002:00001294       __imp_??0CAxObjMgr@@QAE@XZ 00440294     OMgr_D32:OMgr_D32.dll
 0002:00001298       __imp_??1CObjectMgr@@UAE@XZ 00440298     OMgr_D32:OMgr_D32.dll
 0002:0000129c       __imp_??1CMsObjMgr@@UAE@XZ 0044029c     OMgr_D32:OMgr_D32.dll
 0002:000012a0       __imp_??1CAxObjMgr@@UAE@XZ 004402a0     OMgr_D32:OMgr_D32.dll
 0002:000012a4       __imp_?GetDocSize@CObjectMgr@@QAE?AVCSize@@XZ 004402a4     OMgr_D32:OMgr_D32.dll
 0002:000012a8       __imp_?Do_Object_DrawView@CObjectMgr@@QAEXPAVCDC@@HHHH@Z 004402a8     OMgr_D32:OMgr_D32.dll
 0002:000012ac       __imp_?ChangeSelectionToObjectIndex@CMsObjMgr@@QAEXI@Z 004402ac     OMgr_D32:OMgr_D32.dll
 0002:000012b0       __imp_?ChangeSelectionToObjectIndex@CObjectMgr@@QAEXI@Z 004402b0     OMgr_D32:OMgr_D32.dll
 0002:000012b4       __imp_?Do_Object_DataView@CObjectMgr@@QAEXPAVCDC@@HH@Z 004402b4     OMgr_D32:OMgr_D32.dll
 0002:000012b8       __imp_?GetDocSize@CAxObjMgr@@QAE?AVCSize@@XZ 004402b8     OMgr_D32:OMgr_D32.dll
 0002:000012bc       __imp_??0CObjectMgr@@QAE@XZ 004402bc     OMgr_D32:OMgr_D32.dll
 0002:000012c0       __imp_?GetSpecObject@CAxObjMgr@@QAEPAVCDrObject@@H@Z 004402c0     OMgr_D32:OMgr_D32.dll
 0002:000012c4       \177OMgr_D32_NULL_THUNK_DATA 004402c4     OMgr_D32:OMgr_D32.dll
 0002:000012c8       __imp_?OnEBoxRButtonUp_NOD@CNodPost@@QAEXPAVCClientDC@@PAVCView@@W4GENERATE@@IVCPoint@@@Z 004402c8     PMgr_D32:PMgr_D32.dll
 0002:000012cc       __imp_?OnEBoxRButtonUp_CUR@CCurPost@@QAEXPAVCClientDC@@PAVCView@@W4GENERATE@@IVCPoint@@@Z 004402cc     PMgr_D32:PMgr_D32.dll
 0002:000012d0       __imp_?OnEBoxRButtonUp_PAT@CPatPost@@QAEXPAVCClientDC@@PAVCView@@W4GENERATE@@IVCPoint@@@Z 004402d0     PMgr_D32:PMgr_D32.dll
 0002:000012d4       __imp_?OnEBoxRButtonDown_NOD@CNodPost@@QAEXPAVCClientDC@@PAVCView@@W4GENERATE@@IVCPoint@@@Z 004402d4     PMgr_D32:PMgr_D32.dll
 0002:000012d8       __imp_?OnEBoxRButtonDown_CUR@CCurPost@@QAEXPAVCClientDC@@PAVCView@@W4GENERATE@@IVCPoint@@@Z 004402d8     PMgr_D32:PMgr_D32.dll
 0002:000012dc       __imp_?OnEBoxRButtonDown_PAT@CPatPost@@QAEXPAVCClientDC@@PAVCView@@W4GENERATE@@IVCPoint@@@Z 004402dc     PMgr_D32:PMgr_D32.dll
 0002:000012e0       __imp_?OnEBoxLButtonUp_NOD@CNodPost@@QAEXPAVCClientDC@@PAVCView@@W4GENERATE@@IVCPoint@@@Z 004402e0     PMgr_D32:PMgr_D32.dll
 0002:000012e4       __imp_?OnEBoxLButtonUp_CUR@CCurPost@@QAEXPAVCClientDC@@PAVCView@@W4GENERATE@@IVCPoint@@@Z 004402e4     PMgr_D32:PMgr_D32.dll
 0002:000012e8       __imp_?OnEBoxLButtonUp_PAT@CPatPost@@QAEXPAVCClientDC@@PAVCView@@W4GENERATE@@IVCPoint@@@Z 004402e8     PMgr_D32:PMgr_D32.dll
 0002:000012ec       __imp_?OnEBoxLButtonDown_NOD@CNodPost@@QAEXPAVCClientDC@@PAVCView@@W4GENERATE@@IVCPoint@@@Z 004402ec     PMgr_D32:PMgr_D32.dll
 0002:000012f0       __imp_?OnEBoxLButtonDown_CUR@CCurPost@@QAEXPAVCClientDC@@PAVCView@@W4GENERATE@@IVCPoint@@@Z 004402f0     PMgr_D32:PMgr_D32.dll
 0002:000012f4       __imp_?OnEBoxLButtonDown_PAT@CPatPost@@QAEXPAVCClientDC@@PAVCView@@W4GENERATE@@IVCPoint@@@Z 004402f4     PMgr_D32:PMgr_D32.dll
 0002:000012f8       __imp_?SetViewCursor@CPostMgr@@QAEXH@Z 004402f8     PMgr_D32:PMgr_D32.dll
 0002:000012fc       __imp_?OnEBoxMouseMove_NOD@CNodPost@@QAEXPAVCClientDC@@PAVCView@@W4GENERATE@@IVCPoint@@@Z 004402fc     PMgr_D32:PMgr_D32.dll
 0002:00001300       __imp_?OnEBoxMouseMove_CUR@CCurPost@@QAEXPAVCClientDC@@PAVCView@@W4GENERATE@@IVCPoint@@@Z 00440300     PMgr_D32:PMgr_D32.dll
 0002:00001304       __imp_?OnEBoxMouseMove_PAT@CPatPost@@QAEXPAVCClientDC@@PAVCView@@W4GENERATE@@IVCPoint@@@Z 00440304     PMgr_D32:PMgr_D32.dll
 0002:00001308       __imp_?ModeLessOn_NOD@CNodPost@@QAEXXZ 00440308     PMgr_D32:PMgr_D32.dll
 0002:0000130c       __imp_?ModeLessOn_CUR@CCurPost@@QAEXXZ 0044030c     PMgr_D32:PMgr_D32.dll
 0002:00001310       __imp_?ModeLessOn_PAT@CPatPost@@QAEXXZ 00440310     PMgr_D32:PMgr_D32.dll
 0002:00001314       __imp_?ReSetToolID@CPostMgr@@QAEIIII@Z 00440314     PMgr_D32:PMgr_D32.dll
 0002:00001318       __imp_?ModeLessOff_NOD@CNodPost@@QAEXXZ 00440318     PMgr_D32:PMgr_D32.dll
 0002:0000131c       __imp_?ModeLessOff_CUR@CCurPost@@QAEXXZ 0044031c     PMgr_D32:PMgr_D32.dll
 0002:00001320       __imp_?ModeLessOff_PAT@CPatPost@@QAEXXZ 00440320     PMgr_D32:PMgr_D32.dll
 0002:00001324       __imp_?CancelPost_PAT@CPatPost@@QAEJIJ@Z 00440324     PMgr_D32:PMgr_D32.dll
 0002:00001328       __imp_?UpdatePost_PAT@CPatPost@@QAEJIJ@Z 00440328     PMgr_D32:PMgr_D32.dll
 0002:0000132c       __imp_?GoodByePost_PAT@CPatPost@@QAEJIJ@Z 0044032c     PMgr_D32:PMgr_D32.dll
 0002:00001330       __imp_?CreateorActivatePost_PAT@CPatPost@@QAEJIJ@Z 00440330     PMgr_D32:PMgr_D32.dll
 0002:00001334       __imp_?CancelPost_CUR@CCurPost@@QAEJIJ@Z 00440334     PMgr_D32:PMgr_D32.dll
 0002:00001338       __imp_?UpdatePost_CUR@CCurPost@@QAEJIJ@Z 00440338     PMgr_D32:PMgr_D32.dll
 0002:0000133c       __imp_?GoodByePost_CUR@CCurPost@@QAEJIJ@Z 0044033c     PMgr_D32:PMgr_D32.dll
 0002:00001340       __imp_?CreateorActivatePost_CUR@CCurPost@@QAEJIJ@Z 00440340     PMgr_D32:PMgr_D32.dll
 0002:00001344       __imp_?CancelPost_NOD@CNodPost@@QAEJIJ@Z 00440344     PMgr_D32:PMgr_D32.dll
 0002:00001348       __imp_?UpdatePost_NOD@CNodPost@@QAEJIJ@Z 00440348     PMgr_D32:PMgr_D32.dll
 0002:0000134c       __imp_?GoodByePost_NOD@CNodPost@@QAEJIJ@Z 0044034c     PMgr_D32:PMgr_D32.dll
 0002:00001350       __imp_?CreateorActivatePost_NOD@CNodPost@@QAEJIJ@Z 00440350     PMgr_D32:PMgr_D32.dll
 0002:00001354       __imp_?InitDlgIn@CPostMgr@@QAEXXZ 00440354     PMgr_D32:PMgr_D32.dll
 0002:00001358       __imp_??0CPostMgr@@QAE@XZ  00440358     PMgr_D32:PMgr_D32.dll
 0002:0000135c       __imp__InitPMgrDLL@0       0044035c     PMgr_D32:PMgr_D32.dll
 0002:00001360       __imp_??1CPostMgr@@UAE@XZ  00440360     PMgr_D32:PMgr_D32.dll
 0002:00001364       \177PMgr_D32_NULL_THUNK_DATA 00440364     PMgr_D32:PMgr_D32.dll
 0002:00001368       __imp__InitSDlgDLL@0       00440368     SDlg_D32:SDlg_D32.dll
 0002:0000136c       __imp_?DoModal_SpecObjs@CSDlgMgr@@QAEII@Z 0044036c     SDlg_D32:SDlg_D32.dll
 0002:00001370       \177SDlg_D32_NULL_THUNK_DATA 00440370     SDlg_D32:SDlg_D32.dll
 0002:00001374       __imp_?GetBoundingRect@CDrObject@@QAE?AVCRect@@XZ 00440374     Spec_D32:Spec_D32.dll
 0002:00001378       __imp_?GetElemType@CDrObject@@QAEHXZ 00440378     Spec_D32:Spec_D32.dll
 0002:0000137c       __imp_?GetObjectA@CDListMgr@@QAEPAVCObject@@H@Z 0044037c     Spec_D32:Spec_D32.dll
 0002:00001380       __imp_?IsShow@CDrObject@@QAEHXZ 00440380     Spec_D32:Spec_D32.dll
 0002:00001384       __imp_?GetObjectType@CDrObject@@QAEHXZ 00440384     Spec_D32:Spec_D32.dll
 0002:00001388       __imp_?GetNextObject@CDListMgr@@QAEPAVCObject@@AAPAU__POSITION@@@Z 00440388     Spec_D32:Spec_D32.dll
 0002:0000138c       __imp_?GetFirstObjectPos@CDListMgr@@QAEPAU__POSITION@@XZ 0044038c     Spec_D32:Spec_D32.dll
 0002:00001390       __imp_?IsPosted@CDrObject@@QAEHXZ 00440390     Spec_D32:Spec_D32.dll
 0002:00001394       __imp_??1CDListMgr@@UAE@XZ 00440394     Spec_D32:Spec_D32.dll
 0002:00001398       __imp_??0CDListMgr@@QAE@XZ 00440398     Spec_D32:Spec_D32.dll
 0002:0000139c       __imp_?DeleteObject@CDListMgr@@QAEHH@Z 0044039c     Spec_D32:Spec_D32.dll
 0002:000013a0       __imp_?GetObjectIndex@CDListMgr@@QAEHPAVCObject@@@Z 004403a0     Spec_D32:Spec_D32.dll
 0002:000013a4       __imp_?GetObjectID@CDrObject@@QAE?AVCString@@XZ 004403a4     Spec_D32:Spec_D32.dll
 0002:000013a8       __imp__InitSpecDLL@0       004403a8     Spec_D32:Spec_D32.dll
 0002:000013ac       __imp_?IsDirty@CDrObject@@QAEHXZ 004403ac     Spec_D32:Spec_D32.dll
 0002:000013b0       \177Spec_D32_NULL_THUNK_DATA 004403b0     Spec_D32:Spec_D32.dll
 0002:000013b4       __imp__InitStaLDLL@0       004403b4     StaL_D32:StaL_D32.dll
 0002:000013b8       __imp_?GetStaLCard@CDrStatic@@QAEPAUstaLcard@@XZ 004403b8     StaL_D32:StaL_D32.dll
 0002:000013bc       \177StaL_D32_NULL_THUNK_DATA 004403bc     StaL_D32:StaL_D32.dll
 0002:000013c0       __imp__InitSuppDLL@0       004403c0     Supp_D32:Supp_D32.dll
 0002:000013c4       \177Supp_D32_NULL_THUNK_DATA 004403c4     Supp_D32:Supp_D32.dll
 0002:000013c8       __imp__GetClassInfoA@12    004403c8     user32:USER32.dll
 0002:000013cc       __imp__RegisterClassA@4    004403cc     user32:USER32.dll
 0002:000013d0       __imp__LoadCursorA@8       004403d0     user32:USER32.dll
 0002:000013d4       __imp__SetSysColors@12     004403d4     user32:USER32.dll
 0002:000013d8       __imp__GetSysColor@4       004403d8     user32:USER32.dll
 0002:000013dc       __imp__GetSystemMetrics@4  004403dc     user32:USER32.dll
 0002:000013e0       __imp__wsprintfA           004403e0     user32:USER32.dll
 0002:000013e4       __imp__ReleaseCapture@0    004403e4     user32:USER32.dll
 0002:000013e8       __imp__GetCursorPos@4      004403e8     user32:USER32.dll
 0002:000013ec       __imp__GetDC@4             004403ec     user32:USER32.dll
 0002:000013f0       __imp__ReleaseDC@8         004403f0     user32:USER32.dll
 0002:000013f4       __imp__SetCursor@4         004403f4     user32:USER32.dll
 0002:000013f8       __imp__AdjustWindowRect@12 004403f8     user32:USER32.dll
 0002:000013fc       \177USER32_NULL_THUNK_DATA 004403fc     user32:USER32.dll
 0002:00001400       __imp_??0CAxisDraw@@QAE@XZ 00440400     View_D32:View_D32.dll
 0002:00001404       __imp_??1CAxWire_0@@UAE@XZ 00440404     View_D32:View_D32.dll
 0002:00001408       __imp_?RenderReadyOBJECT@CAxWire_0@@UAEXPAVCDC@@PAVCDrObject@@H@Z 00440408     View_D32:View_D32.dll
 0002:0000140c       __imp_?Init@CAxWire_0@@UAEHHHUWORLD@@PAUMATRIX@@11NNNN@Z 0044040c     View_D32:View_D32.dll
 0002:00001410       __imp_??0CAxWire_0@@QAE@PAVCView@@HQAH@Z 00440410     View_D32:View_D32.dll
 0002:00001414       __imp_?OnCancel@CViewInfo@@MAEXXZ 00440414     View_D32:View_D32.dll
 0002:00001418       __imp_?OnOK@CViewInfo@@MAEXXZ 00440418     View_D32:View_D32.dll
 0002:0000141c       __imp_?OnInitDialog@CViewInfo@@MAEHXZ 0044041c     View_D32:View_D32.dll
 0002:00001420       __imp_?DoDataExchange@CViewInfo@@MAEXPAVCDataExchange@@@Z 00440420     View_D32:View_D32.dll
 0002:00001424       __imp_?GetMessageMap@CViewInfo@@MBEPBUAFX_MSGMAP@@XZ 00440424     View_D32:View_D32.dll
 0002:00001428       __imp_??0CViewInfo@@QAE@PAVCView@@@Z 00440428     View_D32:View_D32.dll
 0002:0000142c       __imp_??1CWire_1@@UAE@XZ   0044042c     View_D32:View_D32.dll
 0002:00001430       __imp_?RenderReadyOBJECT@CWire_1@@UAEXPAVCDC@@PAVCDrObject@@H@Z 00440430     View_D32:View_D32.dll
 0002:00001434       __imp_?Init@CWire_1@@UAEHHHUWORLD@@PAUMATRIX@@11NNNN@Z 00440434     View_D32:View_D32.dll
 0002:00001438       __imp_??0CWire_1@@QAE@PAVCDrawView@@W4RENDITION@@HQAH22@Z 00440438     View_D32:View_D32.dll
 0002:0000143c       __imp_??1CWire_0@@UAE@XZ   0044043c     View_D32:View_D32.dll
 0002:00001440       __imp_?RenderReadyOBJECT@CWire_0@@QAEXPAVCDC@@PAVCDrObject@@H@Z 00440440     View_D32:View_D32.dll
 0002:00001444       __imp_?Init@CWire_0@@QAEHHHUWORLD@@PAUMATRIX@@11NNNN@Z 00440444     View_D32:View_D32.dll
 0002:00001448       __imp_??0CWire_0@@QAE@PAVCDrawView@@W4RENDITION@@HQAH22@Z 00440448     View_D32:View_D32.dll
 0002:0000144c       __imp_??1CWire_2@@UAE@XZ   0044044c     View_D32:View_D32.dll
 0002:00001450       __imp_?RenderSCENE@CWire_2@@UAEHPAVCClientDC@@AAVCRect@@HHH@Z 00440450     View_D32:View_D32.dll
 0002:00001454       __imp_?RenderReadySCENE@CWire_2@@UAEXPAVCDC@@@Z 00440454     View_D32:View_D32.dll
 0002:00001458       __imp_?Init@CWire_2@@UAEHHHUWORLD@@PAUMATRIX@@11NNNNPAVCDListMgr@@@Z 00440458     View_D32:View_D32.dll
 0002:0000145c       __imp_??0CWire_2@@QAE@PAVCDrawView@@W4RENDITION@@HQAH22@Z 0044045c     View_D32:View_D32.dll
 0002:00001460       __imp_?RenderSCENE@CWire_1@@UAEHPAVCClientDC@@AAVCRect@@HHH@Z 00440460     View_D32:View_D32.dll
 0002:00001464       __imp_?RenderScene_MESH@CWire_0@@QAEHPAVCClientDC@@AAVCRect@@HHH@Z 00440464     View_D32:View_D32.dll
 0002:00001468       __imp_?RenderScene_GENERATOR@CWire_0@@QAEHPAVCClientDC@@AAVCRect@@HHH@Z 00440468     View_D32:View_D32.dll
 0002:0000146c       __imp_?Create@CViewInfo@@QAEHXZ 0044046c     View_D32:View_D32.dll
 0002:00001470       __imp__InitViewDLL@0       00440470     View_D32:View_D32.dll
 0002:00001474       __imp_?RenderScene_AUXILLIARY@CAxWire_0@@UAEHPAVCClientDC@@AAVCRect@@HHH@Z 00440474     View_D32:View_D32.dll
 0002:00001478       \177View_D32_NULL_THUNK_DATA 00440478     View_D32:View_D32.dll
 0002:0000147c       __imp__mciGetErrorStringA@12 0044047c     winMM:WINMM.dll
 0002:00001480       __imp__sndPlaySoundA@8     00440480     winMM:WINMM.dll
 0002:00001484       __imp__mciSendStringA@16   00440484     winMM:WINMM.dll
 0002:00001488       \177WINMM_NULL_THUNK_DATA  00440488     winMM:WINMM.dll
 0002:000014b0       ?classC12View@C12View@@2UCRuntimeClass@@B 004404b0     12view.obj
 0002:000014c8       ?messageMap@C12View@@1UAFX_MSGMAP@@B 004404c8     12view.obj
 0002:000014d0       ?_messageEntries@C12View@@0QBUAFX_MSGMAP_ENTRY@@B 004404d0     12view.obj
 0002:000015f0       ??_C@_07IBD@C12View?$AA@   004405f0     12view.obj
 0002:000015fc       ??_7C12View@@6B@           004405fc     12view.obj
 0002:00001850       ?classC23View@C23View@@2UCRuntimeClass@@B 00440850     23view.obj
 0002:00001868       ?messageMap@C23View@@1UAFX_MSGMAP@@B 00440868     23view.obj
 0002:00001870       ?_messageEntries@C23View@@0QBUAFX_MSGMAP_ENTRY@@B 00440870     23view.obj
 0002:00001990       ??_C@_07BGNG@C23View?$AA@  00440990     23view.obj
 0002:0000199c       ??_7C23View@@6B@           0044099c     23view.obj
 0002:00001bf0       ?classC31View@C31View@@2UCRuntimeClass@@B 00440bf0     31view.obj
 0002:00001c08       ?messageMap@C31View@@1UAFX_MSGMAP@@B 00440c08     31view.obj
 0002:00001c10       ?_messageEntries@C31View@@0QBUAFX_MSGMAP_ENTRY@@B 00440c10     31view.obj
 0002:00001d30       ??_C@_07MDDM@C31View?$AA@  00440d30     31view.obj
 0002:00001d3c       ??_7C31View@@6B@           00440d3c     31view.obj
 0002:00001f90       ?classC3DView@C3DView@@2UCRuntimeClass@@B 00440f90     3dview.obj
 0002:00001fa8       ?messageMap@C3DView@@1UAFX_MSGMAP@@B 00440fa8     3dview.obj
 0002:00001fb0       ?_messageEntries@C3DView@@0QBUAFX_MSGMAP_ENTRY@@B 00440fb0     3dview.obj
 0002:000020b8       ??_C@_07OMCH@C3DView?$AA@  004410b8     3dview.obj
 0002:000020c4       ??_7C3DView@@6B@           004410c4     3dview.obj
 0002:00002318       ?messageMap@CAboutBox@@1UAFX_MSGMAP@@B 00441318     Aboutbox.obj
 0002:00002320       ?_messageEntries@CAboutBox@@0QBUAFX_MSGMAP_ENTRY@@B 00441320     Aboutbox.obj
 0002:00002338       ?messageMap@CSplashWnd@@1UAFX_MSGMAP@@B 00441338     Aboutbox.obj
 0002:00002340       ?_messageEntries@CSplashWnd@@0QBUAFX_MSGMAP_ENTRY@@B 00441340     Aboutbox.obj
 0002:00002358       ?messageMap@CBigIcon@@1UAFX_MSGMAP@@B 00441358     Aboutbox.obj
 0002:00002360       ?_messageEntries@CBigIcon@@0QBUAFX_MSGMAP_ENTRY@@B 00441360     Aboutbox.obj
 0002:000023a8       ??_C@_08BMMM@Image1Up?$AA@ 004413a8     Aboutbox.obj
 0002:000023b4       ??_C@_0L@ECHI@Image1Down?$AA@ 004413b4     Aboutbox.obj
 0002:000023c0       ??_C@_0M@ICND@Image1Focus?$AA@ 004413c0     Aboutbox.obj
 0002:000023d0       ??_7CAboutBox@@6B@         004413d0     Aboutbox.obj
 0002:000024ac       ??_7CBigIcon@@6B@          004414ac     Aboutbox.obj
 0002:00002570       ??_C@_02DILL@?$CFs?$AA@    00441570     Aboutbox.obj
 0002:00002574       ??_C@_0CP@GNEN@Warning?3?5creation?5of?5CSplashWnd?5@ 00441574     Aboutbox.obj
 0002:000025a4       ??_C@_0L@IOLB@CAppDlgMgr?$AA@ 004415a4     ADlgMgr.obj
 0002:000025b4       ??_7CAppDlgMgr@@6B@        004415b4     ADlgMgr.obj
 0002:000025c8       ??_C@_0BG@LFDF@resource?5string?5?$DN?5?$CFs?6?$AA@ 004415c8     ADlgMgr.obj
 0002:000025e0       ??_C@_0BF@ILLC@?5AppDlgMgr?7?3Loading?6?$AA@ 004415e0     ADlgMgr.obj
 0002:000025f8       ??_C@_0BF@EMOE@?5AppDlgMgr?7?3Storing?6?$AA@ 004415f8     ADlgMgr.obj
 0002:00002610       ?classCAxDataVu@CAxDataVu@@2UCRuntimeClass@@B 00441610     AxDataVu.obj
 0002:00002628       ?messageMap@CAxDataVu@@1UAFX_MSGMAP@@B 00441628     AxDataVu.obj
 0002:00002630       ?_messageEntries@CAxDataVu@@0QBUAFX_MSGMAP_ENTRY@@B 00441630     AxDataVu.obj
 0002:00002690       ??_C@_09KMIO@CAxDataVu?$AA@ 00441690     AxDataVu.obj
 0002:000026a0       ??_7CAxDataVu@@6B@         004416a0     AxDataVu.obj
 0002:000027e4       ??_C@_0CB@CKFK@c?3?2drgraf4_0?2allheads?2axdatavu?4h@ 004417e4     AxDataVu.obj
 0002:00002808       ?classCAxDrawVu@CAxDrawVu@@2UCRuntimeClass@@B 00441808     AxDrawVu.obj
 0002:00002820       ?messageMap@CAxDrawVu@@1UAFX_MSGMAP@@B 00441820     AxDrawVu.obj
 0002:00002828       ?_messageEntries@CAxDrawVu@@0QBUAFX_MSGMAP_ENTRY@@B 00441828     AxDrawVu.obj
 0002:00002ca8       ??_C@_09GGJC@CAxDrawVu?$AA@ 00441ca8     AxDrawVu.obj
 0002:00002cb8       ??_7CAxDrawVu@@6B@         00441cb8     AxDrawVu.obj
 0002:00002e68       ??_7CDVM_Genr@@6B@         00441e68     AxDrawVu.obj
 0002:00002e80       ??_7CDVM_Edit@@6B@         00441e80     AxDrawVu.obj
 0002:00002e98       ??_7CDVM_Del@@6B@          00441e98     AxDrawVu.obj
 0002:00002eb0       __real@8@4002a000000000000000 00441eb0     AxDrawVu.obj
 0002:00002eb8       __real@8@3ffe8000000000000000 00441eb8     AxDrawVu.obj
 0002:00002ec0       ??_C@_08MFAP@?$CFs?5?$DN?5?$CFd?6?$AA@ 00441ec0     AxDrawVu.obj
 0002:00002ecc       ??_C@_0BM@EKGN@?$CK?$CK?$CK?$CK?$CK?5DataBase?5Info?5?$CK?$CK?$CK?$CK?$CK?6?6?$AA@ 00441ecc     AxDrawVu.obj
 0002:00002ee8       ??_C@_0BC@HBOA@No?4?5of?5Mesh?5Nodes?$AA@ 00441ee8     AxDrawVu.obj
 0002:00002efc       ??_C@_0BE@EMCD@No?4?5of?5Dirty?5Curves?$AA@ 00441efc     AxDrawVu.obj
 0002:00002f10       ??_C@_0BF@DANB@No?4?5of?5Posted?5Curves?$AA@ 00441f10     AxDrawVu.obj
 0002:00002f28       ??_C@_0BD@IGFH@No?4?5of?5Total?5Nodes?$AA@ 00441f28     AxDrawVu.obj
 0002:00002f3c       ??_C@_0BF@DPNO@No?4?5of?5Control?5Nodes?$AA@ 00441f3c     AxDrawVu.obj
 0002:00002f58       ?messageMap@CBanner@@1UAFX_MSGMAP@@B 00441f58     Banner.obj
 0002:00002f60       ?_messageEntries@CBanner@@0QBUAFX_MSGMAP_ENTRY@@B 00441f60     Banner.obj
 0002:00002fa8       ??_C@_07LAML@CBanner?$AA@  00441fa8     Banner.obj
 0002:00002fb4       ??_7CBanner@@6B@           00441fb4     Banner.obj
 0002:00003074       ??_C@_0CF@OFNM@D?3?2drgraf4_0?2applic?2res?2seashore@ 00442074     Banner.obj
 0002:0000309c       ??_C@_0CD@KMJG@D?3?2drgraf4_0?2applic?2res?2Jasmin?4b@ 0044209c     Banner.obj
 0002:000030c0       ??_C@_0BI@KPBJ@Couldn?8t?5load?5Image?5DIB?$AA@ 004420c0     Banner.obj
 0002:000030d8       ??_C@_0BB@GKGP@DIB?5is?5too?5large?$AA@ 004420d8     Banner.obj
 0002:000030f0       ??_7CMDIB@@6B@             004420f0     Banner.obj
 0002:00003104       ??_C@_03MPKK@Sat?$AA@      00442104     Clock.obj
 0002:00003108       ??_C@_03FINJ@Fri?$AA@      00442108     Clock.obj
 0002:0000310c       ??_C@_03HIKC@Thu?$AA@      0044210c     Clock.obj
 0002:00003110       ??_C@_03HECK@Wed?$AA@      00442110     Clock.obj
 0002:00003114       ??_C@_03ECCP@Tue?$AA@      00442114     Clock.obj
 0002:00003118       ??_C@_03PIEP@Mon?$AA@      00442118     Clock.obj
 0002:0000311c       ??_C@_03FHEP@Sun?$AA@      0044211c     Clock.obj
 0002:00003120       ?classCClock@CClock@@2UCRuntimeClass@@B 00442120     Clock.obj
 0002:00003138       ??_C@_06IPEP@CClock?$AA@   00442138     Clock.obj
 0002:00003144       ??_7CClock@@6B@            00442144     Clock.obj
 0002:00003158       ??_C@_05DJMD@s2359?$AA@    00442158     Clock.obj
 0002:00003160       ??_C@_02DBLP@PM?$AA@       00442160     Clock.obj
 0002:00003164       ??_C@_05PCBI@s1159?$AA@    00442164     Clock.obj
 0002:0000316c       ??_C@_02ENLM@AM?$AA@       0044216c     Clock.obj
 0002:00003170       ??_C@_05PLM@sTime?$AA@     00442170     Clock.obj
 0002:00003178       ??_C@_01PKAG@?3?$AA@       00442178     Clock.obj
 0002:0000317c       ??_C@_05DHP@sDate?$AA@     0044217c     Clock.obj
 0002:00003184       ??_C@_01FDLN@?1?$AA@       00442184     Clock.obj
 0002:00003188       ??_C@_05EMIJ@iTime?$AA@    00442188     Clock.obj
 0002:00003190       ??_C@_04MII@intl?$AA@      00442190     Clock.obj
 0002:00003198       ??_C@_05EAEK@iDate?$AA@    00442198     Clock.obj
 0002:000031a0       ??_C@_0BC@CBAB@?$CFs?5?$CF02d?1?$CF02d?1?$CF02d?$AA@ 004421a0     Clock.obj
 0002:000031b4       ??_C@_0BD@IDOK@?$CF02d?3?$CF02d?3?$CF02d?5?$CF2s?$AA@ 004421b4     Clock.obj
 0002:000031c8       ??_C@_0BA@FAEK@CDrGrafCntrItem?$AA@ 004421c8     Cntritem.obj
 0002:000031dc       ??_7CDrGrafCntrItem@@6B@   004421dc     Cntritem.obj
 0002:000032c8       ?classCDataView@CDataView@@2UCRuntimeClass@@B 004422c8     Dataview.obj
 0002:000032e0       ?messageMap@CDataView@@1UAFX_MSGMAP@@B 004422e0     Dataview.obj
 0002:000032e8       ?_messageEntries@CDataView@@0QBUAFX_MSGMAP_ENTRY@@B 004422e8     Dataview.obj
 0002:00003348       ??_C@_09DIAH@CDataView?$AA@ 00442348     Dataview.obj
 0002:00003358       ??_7CDataView@@6B@         00442358     Dataview.obj
 0002:0000349c       ??_C@_0CB@FIGD@c?3?2drgraf4_0?2allheads?2dataview?4h@ 0044249c     Dataview.obj
 0002:000034c0       ?classCDeckView@CDeckView@@2UCRuntimeClass@@B 004424c0     DeckView.obj
 0002:000034d8       ?messageMap@CDeckView@@1UAFX_MSGMAP@@B 004424d8     DeckView.obj
 0002:000034e0       ?_messageEntries@CDeckView@@0QBUAFX_MSGMAP_ENTRY@@B 004424e0     DeckView.obj
 0002:000035d0       ??_C@_09HBFD@CDeckView?$AA@ 004425d0     DeckView.obj
 0002:000035e0       ??_7CDeckView@@6B@         004425e0     DeckView.obj
 0002:000036fc       ??_C@_0EB@PHFG@?9?9?9?9?9?9?9?9?9?9?9?9?9?9?9?9?9?9?9?9?9?9?9?9?9?9?9?9?9?9?9?9@ 004426fc     DeckView.obj
 0002:00003740       ??_C@_0EB@KPAI@Call?3?5Dr?4?5Debu?5Ray?5?$EA?5?$CI510?$CJ654?916@ 00442740     DeckView.obj
 0002:00003784       ??_C@_0EB@HMPK@UnSTRESS?3?5An?5IDRI?5Universal?5STru@ 00442784     DeckView.obj
 0002:000037c8       ??_C@_0DO@PBFE@?9?9?9?9?9?9?9?9?9?9?9?9?9?9?9?9?9?9?9?9?9?9?9?9?9?9?9?9?9?9?9?9@ 004427c8     DeckView.obj
 0002:00003808       ??_C@_08OLDP@?$CFs?7?$CF3?43d?$AA@ 00442808     DeckView.obj
 0002:00003814       ??_C@_04HNIE@Page?$AA@     00442814     DeckView.obj
 0002:00003820       ?messageMap@CDlg_CTim@@1UAFX_MSGMAP@@B 00442820     Dlg_CTim.obj
 0002:00003828       ?_messageEntries@CDlg_CTim@@0QBUAFX_MSGMAP_ENTRY@@B 00442828     Dlg_CTim.obj
 0002:00003870       ??_C@_08OKPH@Image2Up?$AA@ 00442870     Dlg_CTim.obj
 0002:0000387c       ??_C@_0L@KCBH@Image2Down?$AA@ 0044287c     Dlg_CTim.obj
 0002:00003888       ??_C@_0M@DMDD@Image2Focus?$AA@ 00442888     Dlg_CTim.obj
 0002:00003898       ??_7CDlg_CTim@@6B@         00442898     Dlg_CTim.obj
 0002:00003970       ?messageMap@CDlg_NoELem@@1UAFX_MSGMAP@@B 00442970     Dlg_NoEL.obj
 0002:00003978       ?_messageEntries@CDlg_NoELem@@0QBUAFX_MSGMAP_ENTRY@@B 00442978     Dlg_NoEL.obj
 0002:000039f4       ??_7CDlg_NoELem@@6B@       004429f4     Dlg_NoEL.obj
 0002:00003ad0       ?messageMap@CDlg_NoLabELem@@1UAFX_MSGMAP@@B 00442ad0     Dlg_NoLE.obj
 0002:00003ad8       ?_messageEntries@CDlg_NoLabELem@@0QBUAFX_MSGMAP_ENTRY@@B 00442ad8     Dlg_NoLE.obj
 0002:00003b54       ??_7CDlg_NoLabELem@@6B@    00442b54     Dlg_NoLE.obj
 0002:00003c30       ?messageMap@CDlg_Shrink@@1UAFX_MSGMAP@@B 00442c30     Dlg_Shrink.obj
 0002:00003c38       ?_messageEntries@CDlg_Shrink@@0QBUAFX_MSGMAP_ENTRY@@B 00442c38     Dlg_Shrink.obj
 0002:00003c54       ??_7CDlg_Shrink@@6B@       00442c54     Dlg_Shrink.obj
 0002:00003d30       ?classCDrawView@CDrawView@@2UCRuntimeClass@@B 00442d30     Drawview.obj
 0002:00003d48       ?messageMap@CDrawView@@1UAFX_MSGMAP@@B 00442d48     Drawview.obj
 0002:00003d50       ?_messageEntries@CDrawView@@0QBUAFX_MSGMAP_ENTRY@@B 00442d50     Drawview.obj
 0002:00005040       ??_C@_09PJEL@CDrawView?$AA@ 00444040     Drawview.obj
 0002:00005050       ??_SCViewInfo@@6B@         00444050     Drawview.obj
 0002:0000512c       ??_7CDrawView@@6B@         0044412c     Drawview.obj
 0002:00005384       ??_7CDVM_CreO@@6B@         00444384     Drawview.obj
 0002:0000539c       ??_7CDVM_Post@@6B@         0044439c     Drawview.obj
 0002:000053b4       ??_7CDVM_CreM@@6B@         004443b4     Drawview.obj
 0002:000053cc       ??_7CDVM_Mdit@@6B@         004443cc     Drawview.obj
 0002:000053e0       ??_C@_03CENI@?$CFs?5?$AA@  004443e0     Drawview.obj
 0002:000053e4       ??_C@_06JBCM@CREATE?$AA@   004443e4     Drawview.obj
 0002:000053ec       ??_C@_0BC@MBCC@Current?5Options?3?5?$AA@ 004443ec     Drawview.obj
 0002:00005400       ??_C@_07CNPM@UNKNOWN?$AA@  00444400     Drawview.obj
 0002:00005408       ??_C@_02MIAP@CW?$AA@       00444408     Drawview.obj
 0002:0000540c       ??_C@_03EFCJ@PRP?$AA@      0044440c     Drawview.obj
 0002:00005410       ??_C@_01NCG@Z?$AA@         00444410     Drawview.obj
 0002:00005414       ??_C@_01PCJP@Y?$AA@        00444414     Drawview.obj
 0002:00005418       ??_C@_01FIAI@X?$AA@        00444418     Drawview.obj
 0002:0000541c       ??_C@_02FHCE@Wo?$AA@       0044441c     Drawview.obj
 0002:00005420       ??_C@_03KJFO@VRP?$AA@      00444420     Drawview.obj
 0002:00005428       __real@8@3fff8000000000000000 00444428     Drawview.obj
 0002:00005430       ??_C@_0BF@HNII@No?4?5of?5Dirty?5Patches?$AA@ 00444430     Drawview.obj
 0002:00005448       ??_C@_0BG@KCPE@No?4?5of?5Posted?5Patches?$AA@ 00444448     Drawview.obj
 0002:00005460       ??_C@_0BE@OMFN@No?4?5of?5Dirty?5Solids?$AA@ 00444460     Drawview.obj
 0002:00005474       ??_C@_0BF@JAKP@No?4?5of?5Posted?5Solids?$AA@ 00444474     Drawview.obj
 0002:0000548c       ??_C@_0BF@IOCG@No?4?5of?5Rigid?5Support?$AA@ 0044448c     Drawview.obj
 0002:000054a4       ??_C@_0BH@JMLI@No?4?5of?5Linear?5Snubbers?$AA@ 004444a4     Drawview.obj
 0002:000054bc       ??_C@_0BG@KBGB@No?4?5of?5Linear?5Springs?$AA@ 004444bc     Drawview.obj
 0002:000054d4       ??_C@_0EN@HCAA@No?4?5of?5Different?5Nodal?5Force?5Loa@ 004444d4     Drawview.obj
 0002:00005524       ??_C@_0FP@GFBO@No?4?5of?5Different?5Support?5Displac@ 00444524     Drawview.obj
 0002:00005584       ??_C@_0EL@MHMA@No?4?5of?5Different?5Pressure?5LoadID@ 00444584     Drawview.obj
 0002:000055d0       ??_C@_0EP@EMKP@No?4?5of?5Different?5Thermal?5LoadIDs@ 004445d0     Drawview.obj
 0002:00005620       ??_C@_0BI@HGOG@No?4?5of?5Nodal?5LumpWts?5?$DN?5?$AA@ 00444620     Drawview.obj
 0002:00005638       ??_C@_0BA@KOI@GENERATION?5Mode?$AA@ 00444638     Drawview.obj
 0002:00005648       ??_C@_09CDCP@MESH?5Mode?$AA@ 00444648     Drawview.obj
 0002:00005658       ?classCDrGrafChildFrame@CDrGrafChildFrame@@2UCRuntimeClass@@B 00444658     Drgracfm.obj
 0002:00005670       ?messageMap@CDrGrafChildFrame@@1UAFX_MSGMAP@@B 00444670     Drgracfm.obj
 0002:00005678       ?_messageEntries@CDrGrafChildFrame@@0QBUAFX_MSGMAP_ENTRY@@B 00444678     Drgracfm.obj
 0002:00005798       ??_C@_0BC@HBAA@CDrGrafChildFrame?$AA@ 00444798     Drgracfm.obj
 0002:000057b0       ??_7CDrGrafChildFrame@@6B@ 004447b0     Drgracfm.obj
 0002:000058b8       ?classCDrGrafDoc@CDrGrafDoc@@2UCRuntimeClass@@B 004448b8     Drgradoc.obj
 0002:000058d0       ?messageMap@CDrGrafDoc@@1UAFX_MSGMAP@@B 004448d0     Drgradoc.obj
 0002:000058d8       ?_messageEntries@CDrGrafDoc@@0QBUAFX_MSGMAP_ENTRY@@B 004448d8     Drgradoc.obj
 0002:00005bd8       ?dispatchMap@CDrGrafDoc@@1UAFX_DISPMAP@@B 00444bd8     Drgradoc.obj
 0002:00005be8       ?_dispatchEntries@CDrGrafDoc@@0QBUAFX_DISPMAP_ENTRY@@B 00444be8     Drgradoc.obj
 0002:00005c18       ?interfaceMap@CDrGrafDoc@@1UAFX_INTERFACEMAP@@B 00444c18     Drgradoc.obj
 0002:00005c20       ?_interfaceEntries@CDrGrafDoc@@0QBUAFX_INTERFACEMAP_ENTRY@@B 00444c20     Drgradoc.obj
 0002:00005c30       ??_C@_0L@MEJM@CDrGrafDoc?$AA@ 00444c30     Drgradoc.obj
 0002:00005c40       ??_7CDrGrafDoc@@6B@        00444c40     Drgradoc.obj
 0002:00005d88       ??_C@_0BJ@GPLJ@?6Are?5You?5REALLY?5Sure?5?$CB?$CB?$CB?$AA@ 00444d88     Drgradoc.obj
 0002:00005da4       ??_C@_0CG@HBII@?6EVERYTHING?5will?5be?5zip?0nada?0cap@ 00444da4     Drgradoc.obj
 0002:00005dcc       ??_C@_0BN@FFI@This?5will?5DELETE?5EVERYTHING?$CB?$AA@ 00444dcc     Drgradoc.obj
 0002:00005dec       ??_C@_02NCJJ@zz?$AA@       00444dec     Drgradoc.obj
 0002:00005df0       ?messageMap@CDrGrafApp@@1UAFX_MSGMAP@@B 00444df0     Drgraf.obj
 0002:00005df8       ?_messageEntries@CDrGrafApp@@0QBUAFX_MSGMAP_ENTRY@@B 00444df8     Drgraf.obj
 0002:00006098       ??_C@_09PKKJ@Lump?5Wts?4?$AA@ 00445098     Drgraf.obj
 0002:000060a4       ??_C@_0N@BNPE@Thermal?5Load?$AA@ 004450a4     Drgraf.obj
 0002:000060b4       ??_C@_0O@OKIJ@Pressure?5Load?$AA@ 004450b4     Drgraf.obj
 0002:000060c4       ??_C@_0BC@NLEK@Displace_Rotation?$AA@ 004450c4     Drgraf.obj
 0002:000060d8       ??_C@_0N@FOBE@Force_Moment?$AA@ 004450d8     Drgraf.obj
 0002:000060e8       ??_C@_0BD@PLDA@Solid?5Force_Moment?$AA@ 004450e8     Drgraf.obj
 0002:000060fc       ??_C@_0BD@FNFF@Patch?5Force_Moment?$AA@ 004450fc     Drgraf.obj
 0002:00006110       ??_C@_0BD@KLKE@Curve?5Force_Moment?$AA@ 00445110     Drgraf.obj
 0002:00006124       ??_C@_0BI@NNAG@Solid?5NonLinear?5Snubber?$AA@ 00445124     Drgraf.obj
 0002:0000613c       ??_C@_0BH@JNCJ@Solid?5NonLinear?5Spring?$AA@ 0044513c     Drgraf.obj
 0002:00006154       ??_C@_0BF@HHAA@Solid?5Linear?5Snubber?$AA@ 00445154     Drgraf.obj
 0002:0000616c       ??_C@_0BE@JLHL@Solid?5Linear?5Spring?$AA@ 0044516c     Drgraf.obj
 0002:00006180       ??_C@_0BE@JNIE@Solid?5Rigid?5Support?$AA@ 00445180     Drgraf.obj
 0002:00006194       ??_C@_0BI@OEFO@Patch?5NonLinear?5Snubber?$AA@ 00445194     Drgraf.obj
 0002:000061ac       ??_C@_0BH@MFOK@Patch?5NonLinear?5Spring?$AA@ 004451ac     Drgraf.obj
 0002:000061c4       ??_C@_0BF@HHGA@Patch?5Linear?5Snubber?$AA@ 004451c4     Drgraf.obj
 0002:000061dc       ??_C@_0BE@PLNN@Patch?5Linear?5Spring?$AA@ 004451dc     Drgraf.obj
 0002:000061f0       ??_C@_0BE@PNCC@Patch?5Rigid?5Support?$AA@ 004451f0     Drgraf.obj
 0002:00006204       ??_C@_0BI@NKFP@Curve?5NonLinear?5Snubber?$AA@ 00445204     Drgraf.obj
 0002:0000621c       ??_C@_0BH@MEPC@Curve?5NonLinear?5Spring?$AA@ 0044521c     Drgraf.obj
 0002:00006234       ??_C@_0BF@CHNE@Curve?5Linear?5Snubber?$AA@ 00445234     Drgraf.obj
 0002:0000624c       ??_C@_0BE@EPCL@Curve?5Linear?5Spring?$AA@ 0044524c     Drgraf.obj
 0002:00006260       ??_C@_0BE@EJNE@Curve?5Rigid?5Support?$AA@ 00445260     Drgraf.obj
 0002:00006274       ??_C@_0BI@PPIL@Nodal?5NonLinear?5Snubber?$AA@ 00445274     Drgraf.obj
 0002:0000628c       ??_C@_0BH@BAIA@Nodal?5NonLinear?5Spring?$AA@ 0044528c     Drgraf.obj
 0002:000062a4       ??_C@_0BF@BLKN@Nodal?5Linear?5Snubber?$AA@ 004452a4     Drgraf.obj
 0002:000062bc       ??_C@_0BE@DGNA@Nodal?5Linear?5Spring?$AA@ 004452bc     Drgraf.obj
 0002:000062d0       ??_C@_0BE@DACP@Nodal?5Rigid?5Support?$AA@ 004452d0     Drgraf.obj
 0002:000062e4       ??_C@_0BC@CBPD@SUPPORT_NLSNUBBER?$AA@ 004452e4     Drgraf.obj
 0002:000062f8       ??_C@_0BB@IIIP@SUPPORT_NLSPRING?$AA@ 004452f8     Drgraf.obj
 0002:0000630c       ??_C@_0BD@PILP@SUPPORT_LINSNUBBER?$AA@ 0044530c     Drgraf.obj
 0002:00006320       ??_C@_0BC@MEOP@SUPPORT_LINSPRING?$AA@ 00445320     Drgraf.obj
 0002:00006334       ??_C@_0O@LNEO@SUPPORT_RIGID?$AA@ 00445334     Drgraf.obj
 0002:00006344       ??_C@_0M@LAKD@NON_SUPPORT?$AA@ 00445344     Drgraf.obj
 0002:00006350       ??_C@_0M@EFDB@LIN_SUPPORT?$AA@ 00445350     Drgraf.obj
 0002:0000635c       ??_C@_07CEMJ@SUPPORT?$AA@  0044535c     Drgraf.obj
 0002:00006364       ??_C@_0M@MADC@SPAWN?5Solid?$AA@ 00445364     Drgraf.obj
 0002:00006370       ??_C@_0N@OHKI@SPLICE?5Solid?$AA@ 00445370     Drgraf.obj
 0002:00006380       ??_C@_0N@IGEK@Delete?5Solid?$AA@ 00445380     Drgraf.obj
 0002:00006390       ??_C@_0N@HNNM@UNPOST?5Solid?$AA@ 00445390     Drgraf.obj
 0002:000063a0       ??_C@_0L@ILDJ@POST?5Solid?$AA@ 004453a0     Drgraf.obj
 0002:000063ac       ??_C@_0L@BGJP@MOVE?5Solid?$AA@ 004453ac     Drgraf.obj
 0002:000063b8       ??_C@_0L@MAIP@EDIT?5Solid?$AA@ 004453b8     Drgraf.obj
 0002:000063c4       ??_C@_0L@DPM@FLAT?5Solid?$AA@ 004453c4     Drgraf.obj
 0002:000063d0       ??_C@_0M@FOEI@SWEPT?5Solid?$AA@ 004453d0     Drgraf.obj
 0002:000063dc       ??_C@_0N@MKKB@DUCTED?5Solid?$AA@ 004453dc     Drgraf.obj
 0002:000063ec       ??_C@_0P@IKAJ@EXTRUDED?5Solid?$AA@ 004453ec     Drgraf.obj
 0002:000063fc       ??_C@_0N@DMKD@LOFTED?5Solid?$AA@ 004453fc     Drgraf.obj
 0002:0000640c       ??_C@_0O@JLO@ROTATED?5Solid?$AA@ 0044540c     Drgraf.obj
 0002:0000641c       ??_C@_0M@DOOL@Coons?5Solid?$AA@ 0044541c     Drgraf.obj
 0002:00006428       ??_C@_0N@NFAI@Tensor?5Solid?$AA@ 00445428     Drgraf.obj
 0002:00006438       ??_C@_0O@IHHM@Gordons?5Solid?$AA@ 00445438     Drgraf.obj
 0002:00006448       ??_C@_05DEEH@SOLID?$AA@    00445448     Drgraf.obj
 0002:00006450       ??_C@_0M@CBL@SPAWN?5Patch?$AA@ 00445450     Drgraf.obj
 0002:0000645c       ??_C@_0N@CFIB@SPLICE?5Patch?$AA@ 0044545c     Drgraf.obj
 0002:0000646c       ??_C@_0L@EJBA@POST?5Patch?$AA@ 0044546c     Drgraf.obj
 0002:00006478       ??_C@_0N@LPPF@UNPOST?5Patch?$AA@ 00445478     Drgraf.obj
 0002:00006488       ??_C@_0N@EEGD@Delete?5Patch?$AA@ 00445488     Drgraf.obj
 0002:00006498       ??_C@_0L@NELG@MOVE?5Patch?$AA@ 00445498     Drgraf.obj
 0002:000064a4       ??_C@_0L@CKG@EDIT?5Patch?$AA@ 004454a4     Drgraf.obj
 0002:000064b0       ??_C@_0L@MBNF@FLAT?5Patch?$AA@ 004454b0     Drgraf.obj
 0002:000064bc       ??_C@_0M@JMGB@SWEPT?5Patch?$AA@ 004454bc     Drgraf.obj
 0002:000064c8       ??_C@_0N@III@DUCTED?5Patch?$AA@ 004454c8     Drgraf.obj
 0002:000064d8       ??_C@_0P@EICA@EXTRUDED?5Patch?$AA@ 004454d8     Drgraf.obj
 0002:000064e8       ??_C@_0N@POIK@LOFTED?5Patch?$AA@ 004454e8     Drgraf.obj
 0002:000064f8       ??_C@_0O@MLJH@ROTATED?5Patch?$AA@ 004454f8     Drgraf.obj
 0002:00006508       ??_C@_0M@PMMC@Coons?5Patch?$AA@ 00445508     Drgraf.obj
 0002:00006514       ??_C@_0O@EFFF@Gordons?5Patch?$AA@ 00445514     Drgraf.obj
 0002:00006524       ??_C@_0N@BHCB@Tensor?5Patch?$AA@ 00445524     Drgraf.obj
 0002:00006534       ??_C@_05PGGO@PATCH?$AA@    00445534     Drgraf.obj
 0002:0000653c       ??_C@_0M@LOOF@SPAWN?5Curve?$AA@ 0044553c     Drgraf.obj
 0002:00006548       ??_C@_0N@JJHP@SPLICE?5Curve?$AA@ 00445548     Drgraf.obj
 0002:00006558       ??_C@_0N@MPEP@DELETE?5Curve?$AA@ 00445558     Drgraf.obj
 0002:00006568       ??_C@_0N@DAL@UNPOST?5Curve?$AA@ 00445568     Drgraf.obj
 0002:00006578       ??_C@_0L@PFOO@POST?5Curve?$AA@ 00445578     Drgraf.obj
 0002:00006584       ??_C@_0L@GIEI@MOVE?5Curve?$AA@ 00445584     Drgraf.obj
 0002:00006590       ??_C@_0L@LOFI@EDIT?5Curve?$AA@ 00445590     Drgraf.obj
 0002:0000659c       ??_C@_0BA@PMJH@OPERATION?5Curve?$AA@ 0044559c     Drgraf.obj
 0002:000065ac       ??_C@_0L@KDAP@NURB?5Curve?$AA@ 004455ac     Drgraf.obj
 0002:000065b8       ??_C@_0P@FGGO@B?9SPLINE?5Curve?$AA@ 004455b8     Drgraf.obj
 0002:000065c8       ??_C@_0N@IOIN@BEZIER?5Curve?$AA@ 004455c8     Drgraf.obj
 0002:000065d8       ??_C@_0O@NLEA@HERMITE?5Curve?$AA@ 004455d8     Drgraf.obj
 0002:000065e8       ??_C@_0BA@OMIE@QUADRATIC?5Curve?$AA@ 004455e8     Drgraf.obj
 0002:000065f8       ??_C@_0N@ILBB@LINEAR?5Curve?$AA@ 004455f8     Drgraf.obj
 0002:00006608       ??_C@_0P@HNHI@PARABOLA?5Curve?$AA@ 00445608     Drgraf.obj
 0002:00006618       ??_C@_0P@OJDG@ELLIPTIC?5Curve?$AA@ 00445618     Drgraf.obj
 0002:00006628       ??_C@_0P@GAFK@CIRCULAR?5Curve?$AA@ 00445628     Drgraf.obj
 0002:00006638       ??_C@_05EKJA@CURVE?$AA@    00445638     Drgraf.obj
 0002:00006640       ??_C@_0BA@MFHJ@21?5Node?9HEXAHED?$AA@ 00445640     Drgraf.obj
 0002:00006650       ??_C@_0BA@GFCI@20?5Node?9HEXAHED?$AA@ 00445650     Drgraf.obj
 0002:00006660       ??_C@_0P@JMOM@8?5Node?9HEXAHED?$AA@ 00445660     Drgraf.obj
 0002:00006670       ??_C@_0L@NOAE@3D?9HEXAHED?$AA@ 00445670     Drgraf.obj
 0002:0000667c       ??_C@_0BB@KFLD@10?5Node?9TETRAHED?$AA@ 0044567c     Drgraf.obj
 0002:00006690       ??_C@_0BA@KKIO@4?5Node?9TETRAHED?$AA@ 00445690     Drgraf.obj
 0002:000066a0       ??_C@_0M@KDEP@3D?9TETRAHED?$AA@ 004456a0     Drgraf.obj
 0002:000066ac       ??_C@_0BB@FBLE@15?5Node?9PENTAHED?$AA@ 004456ac     Drgraf.obj
 0002:000066c0       ??_C@_0BA@BDOI@6?5Node?9PENTAHED?$AA@ 004456c0     Drgraf.obj
 0002:000066d0       ??_C@_0M@JPGJ@3D?9PENTAHED?$AA@ 004456d0     Drgraf.obj
 0002:000066dc       ??_C@_05NKIM@BRICK?$AA@    004456dc     Drgraf.obj
 0002:000066e4       ??_C@_0L@MBJF@3D?5Element?$AA@ 004456e4     Drgraf.obj
 0002:000066f0       ??_C@_0L@CHFE@THIN?5SHELL?$AA@ 004456f0     Drgraf.obj
 0002:000066fc       ??_C@_0BB@KEIL@10?5Node?9TRIANGLE?$AA@ 004456fc     Drgraf.obj
 0002:00006710       ??_C@_0BA@HGJF@9?5Node?9TRIANGLE?$AA@ 00445710     Drgraf.obj
 0002:00006720       ??_C@_0BA@COPG@6?5Node?9TRIANGLE?$AA@ 00445720     Drgraf.obj
 0002:00006730       ??_C@_0BA@OGNH@3?5Node?9TRIANGLE?$AA@ 00445730     Drgraf.obj
 0002:00006740       ??_C@_0M@EIPI@2D?9TRIANGLE?$AA@ 00445740     Drgraf.obj
 0002:0000674c       ??_C@_0N@BEDA@16?5Node?9QUAD?$AA@ 0044574c     Drgraf.obj
 0002:0000675c       ??_C@_0N@LOAP@12?5Node?9QUAD?$AA@ 0044575c     Drgraf.obj
 0002:0000676c       ??_C@_0M@NLPC@9?5Node?9QUAD?$AA@ 0044576c     Drgraf.obj
 0002:00006778       ??_C@_0M@DBHN@8?5Node?9QUAD?$AA@ 00445778     Drgraf.obj
 0002:00006784       ??_C@_0M@MPDM@4?5Node?9QUAD?$AA@ 00445784     Drgraf.obj
 0002:00006790       ??_C@_07FEJF@2D?9QUAD?$AA@ 00445790     Drgraf.obj
 0002:00006798       ??_C@_04GIIE@FACE?$AA@     00445798     Drgraf.obj
 0002:000067a0       ??_C@_0L@EOFH@2D?5Element?$AA@ 004457a0     Drgraf.obj
 0002:000067ac       ??_C@_05HGOC@TRUSS?$AA@    004457ac     Drgraf.obj
 0002:000067b4       ??_C@_04MMHL@BEAM?$AA@     004457b4     Drgraf.obj
 0002:000067bc       ??_C@_05MEMP@ELBOW?$AA@    004457bc     Drgraf.obj
 0002:000067c4       ??_C@_04CDKK@PIPE?$AA@     004457c4     Drgraf.obj
 0002:000067cc       ??_C@_04EHJE@EDGE?$AA@     004457cc     Drgraf.obj
 0002:000067d4       ??_C@_0L@NOBB@1D?5Element?$AA@ 004457d4     Drgraf.obj
 0002:000067e0       ??_C@_05HHEN@MNODE?$AA@    004457e0     Drgraf.obj
 0002:000067e8       ??_C@_09OKNM@Mesh?5NODE?$AA@ 004457e8     Drgraf.obj
 0002:000067f4       ??_C@_05LGLI@CNODE?$AA@    004457f4     Drgraf.obj
 0002:000067fc       ??_C@_0N@PFFC@Control?5NODE?$AA@ 004457fc     Drgraf.obj
 0002:0000680c       ??_C@_04FPID@NODE?$AA@     0044580c     Drgraf.obj
 0002:00006814       ??_C@_0L@EIMA@Input?5NODE?$AA@ 00445814     Drgraf.obj
 0002:00006820       ??_C@_05ONAC@VERTX?$AA@    00445820     Drgraf.obj
 0002:00006828       ??_C@_0L@FBND@0D?5Element?$AA@ 00445828     Drgraf.obj
 0002:00006834       ??_C@_04HHIJ@MOVE?$AA@     00445834     Drgraf.obj
 0002:0000683c       ??_C@_04IGNI@EDIT?$AA@     0044583c     Drgraf.obj
 0002:00006844       ??_C@_05LGBJ@BRUSH?$AA@    00445844     Drgraf.obj
 0002:0000684c       ??_C@_06JLDH@DRFONT?$AA@   0044584c     Drgraf.obj
 0002:00006854       ??_C@_09OGKP@DIMENSION?$AA@ 00445854     Drgraf.obj
 0002:00006860       ??_C@_0M@FBCA@ZOOM_SELECT?$AA@ 00445860     Drgraf.obj
 0002:0000686c       ??_C@_04KIBB@GRID?$AA@     0044586c     Drgraf.obj
 0002:00006874       ??_C@_04GBFB@LINE?$AA@     00445874     Drgraf.obj
 0002:0000687c       ??_C@_0O@EJFP@CIRCLE_HOLLOW?$AA@ 0044587c     Drgraf.obj
 0002:0000688c       ??_C@_0M@EJJ@CIRCLE_FILL?$AA@ 0044588c     Drgraf.obj
 0002:00006898       ??_C@_0N@FBKD@RRECT_HOLLOW?$AA@ 00445898     Drgraf.obj
 0002:000068a8       ??_C@_0L@EIIJ@RRECT_FILL?$AA@ 004458a8     Drgraf.obj
 0002:000068b4       ??_C@_0M@COHN@RECT_HOLLOW?$AA@ 004458b4     Drgraf.obj
 0002:000068c0       ??_C@_09FLLL@RECT_FILL?$AA@ 004458c0     Drgraf.obj
 0002:000068cc       ??_C@_08OGKN@FREEHAND?$AA@ 004458cc     Drgraf.obj
 0002:000068d8       ??_C@_05GFDK@LABEL?$AA@    004458d8     Drgraf.obj
 0002:000068e0       ??_C@_00A@?$AA@            004458e0     Drgraf.obj
 0002:000068e8       ??_7CDrGrafApp@@6B@        004458e8     Drgraf.obj
 0002:00006990       ??_7CSplashWnd@@6B@        00445990     Drgraf.obj
 0002:00006a68       ??_C@_0CC@LLFE@close?5c?3?2SB16?2Samples?2BALLADE?4mi@ 00445a68     Drgraf.obj
 0002:00006a8c       ??_C@_0BG@PACE@Problem?5playing?5sound?$AA@ 00445a8c     Drgraf.obj
 0002:00006aa4       ??_C@_0CB@NCAH@play?5c?3?2SB16?2Samples?2BALLADE?4mid@ 00445aa4     Drgraf.obj
 0002:00006ac8       ??_C@_0BF@CDAE@Couldn?8t?5load?5cursor?$AA@ 00445ac8     Drgraf.obj
 0002:00006ae0       ??_C@_0BH@FPNG@Couldnot?5get?5classInfo?$AA@ 00445ae0     Drgraf.obj
 0002:00006af8       ??_C@_0BA@PDEI@SuperControlBar?$AA@ 00445af8     Drgraf.obj
 0002:00006b08       ??_C@_0P@DINJ@Soft?5Mesh?5CAFE?$AA@ 00445b08     Drgraf.obj
 0002:00006b18       ??_C@_0L@BKOB@?3?5Untitled?$AA@ 00445b18     Drgraf.obj
 0002:00006b24       ??_C@_02HFBK@?3?5?$AA@     00445b24     Drgraf.obj
 0002:00006b28       ??_C@_0BJ@GLIF@OpenDocumentFile?5failed?4?$AA@ 00445b28     Drgraf.obj
 0002:00006b48       ?classCDrGrafFrame@CDrGrafFrame@@2UCRuntimeClass@@B 00445b48     Drgrafrm.obj
 0002:00006b60       ?messageMap@CDrGrafFrame@@1UAFX_MSGMAP@@B 00445b60     Drgrafrm.obj
 0002:00006b68       ?_messageEntries@CDrGrafFrame@@0QBUAFX_MSGMAP_ENTRY@@B 00445b68     Drgrafrm.obj
 0002:00007bb8       ??_C@_0N@NLHE@CDrGrafFrame?$AA@ 00446bb8     Drgrafrm.obj
 0002:00007bc8       ??_C@_05ODIL@START?$AA@    00446bc8     Drgrafrm.obj
 0002:00007bd0       ??_C@_0DE@DNOD@Go?5Ahead?$CB?5Make?5My?5Day?$CB?$CB?$EACLICK?5Ri@ 00446bd0     Drgrafrm.obj
 0002:00007c04       ??_C@_0P@LKNM@GENERATOR?5Mode?$AA@ 00446c04     Drgrafrm.obj
 0002:00007c18       ??_7CDrGrafFrame@@6B@      00446c18     Drgrafrm.obj
 0002:00007d20       ??_7CTopStatusBar@@6B@     00446d20     Drgrafrm.obj
 0002:00007e10       ??_7CBotStatusBar@@6B@     00446e10     Drgrafrm.obj
 0002:00007efc       ??_C@_0CN@FOPH@Not?5enough?5timers?5available?5for?5@ 00446efc     Drgrafrm.obj
 0002:00007f2c       ??_C@_0P@LEFB@Frame?3OnCreate?$AA@ 00446f2c     Drgrafrm.obj
 0002:00007f3c       ??_C@_0DC@FMEB@CDrGrafFrame?3?3OnCreate?6Failed?5to@ 00446f3c     Drgrafrm.obj
 0002:00007f70       ??_C@_0DH@MHOM@CDrGrafFrame?3?3OnCreate?6Failed?5to@ 00446f70     Drgrafrm.obj
 0002:00007fa8       ??_C@_0DI@EJKA@CDrGrafFrame?3?3OnCreate?6Failed?5to@ 00446fa8     Drgrafrm.obj
 0002:00007fe0       ??_C@_0DD@ONFJ@CDrGrafFrame?3?3OnCreate?6Failed?5to@ 00446fe0     Drgrafrm.obj
 0002:00008014       ??_C@_0DD@JKO@CDrGrafFrame?3?3OnCreate?6Failed?5to@ 00447014     Drgrafrm.obj
 0002:00008048       ??_C@_0DC@DMHM@CDrGrafFrame?3?3OnCreate?6Failed?5to@ 00447048     Drgrafrm.obj
 0002:0000807c       ??_C@_0DC@OBPD@CDrGrafFrame?3?3OnCreate?6Failed?5to@ 0044707c     Drgrafrm.obj
 0002:000080b0       ??_C@_0DC@LCLE@CDrGrafFrame?3?3OnCreate?6Failed?5to@ 004470b0     Drgrafrm.obj
 0002:000080e4       ??_C@_0DC@LCDC@CDrGrafFrame?3?3OnCreate?6Failed?5to@ 004470e4     Drgrafrm.obj
 0002:00008118       ??_C@_0DC@MEOE@CDrGrafFrame?3?3OnCreate?6Failed?5to@ 00447118     Drgrafrm.obj
 0002:0000814c       ??_C@_0DC@MCMA@CDrGrafFrame?3?3OnCreate?6Failed?5to@ 0044714c     Drgrafrm.obj
 0002:00008180       ??_C@_0DB@NMPM@CDrGrafFrame?3?3OnCreate?6Failed?5to@ 00447180     Drgrafrm.obj
 0002:000081b4       ??_C@_0DB@HJKG@CDrGrafFrame?3?3OnCreate?6Failed?5to@ 004471b4     Drgrafrm.obj
 0002:000081e8       ??_C@_0DB@KGHF@CDrGrafFrame?3?3OnCreate?6Failed?5to@ 004471e8     Drgrafrm.obj
 0002:0000821c       ??_C@_0DB@IPFB@CDrGrafFrame?3?3OnCreate?6Failed?5to@ 0044721c     Drgrafrm.obj
 0002:00008250       ??_C@_0DB@KPOL@CDrGrafFrame?3?3OnCreate?6Failed?5to@ 00447250     Drgrafrm.obj
 0002:00008284       ??_C@_0DB@GOOA@CDrGrafFrame?3?3OnCreate?6Failed?5to@ 00447284     Drgrafrm.obj
 0002:000082b8       ??_C@_0DL@PDPH@CDrGrafFrame?3?3OnCreate?6Failed?5to@ 004472b8     Drgrafrm.obj
 0002:000082f4       ??_C@_0DI@OCBM@CDrGrafFrame?3?3OnCreate?6Failed?5to@ 004472f4     Drgrafrm.obj
 0002:0000832c       ??_C@_0DE@LBO@CDrGrafFrame?3?3OnCreate?6Failed?5to@ 0044732c     Drgrafrm.obj
 0002:00008360       ??_C@_0DB@CPKD@CDrGrafFrame?3?3OnCreate?6Failed?5to@ 00447360     Drgrafrm.obj
 0002:00008394       ??_C@_07HAG@Snap?5ON?$AA@  00447394     Drgrafrm.obj
 0002:0000839c       ??_C@_07NGEO@Copy?5ON?$AA@ 0044739c     Drgrafrm.obj
 0002:000083a4       ??_C@_0N@IHHO@SingleSeg?5ON?$AA@ 004473a4     Drgrafrm.obj
 0002:000083b4       ??_C@_0P@FJI@AutoAccept?5OFF?$AA@ 004473b4     Drgrafrm.obj
 0002:000083c4       ??_C@_08KEGK@BLine?5ON?$AA@ 004473c4     Drgrafrm.obj
 0002:000083d0       ??_C@_09NCGP@GENERATOR?$AA@ 004473d0     Drgrafrm.obj
 0002:000083dc       ??_C@_04FLGC@MESH?$AA@     004473dc     Drgrafrm.obj
 0002:000083e4       ??_C@_09GECE@OPERATION?$AA@ 004473e4     Drgrafrm.obj
 0002:000083f0       ??_C@_07ICJO@CONTROL?$AA@  004473f0     Drgrafrm.obj
 0002:000083f8       ??_C@_07BEMM@ELEMENT?$AA@  004473f8     Drgrafrm.obj
 0002:00008400       ??_C@_09PCJI@DECORATOR?$AA@ 00447400     Drgrafrm.obj
 0002:0000840c       ??_C@_08PGBJ@TEMPORAL?$AA@ 0044740c     Drgrafrm.obj
 0002:00008418       ??_C@_08CMDF@SPECTRAL?$AA@ 00447418     Drgrafrm.obj
 0002:00008424       ??_C@_07JADI@SPATIAL?$AA@  00447424     Drgrafrm.obj
 0002:0000842c       ??_C@_0O@HODG@AutoAccept?5ON?$AA@ 0044742c     Drgrafrm.obj
 0002:0000843c       ??_C@_0O@GIGB@SingleSeg?5OFF?$AA@ 0044743c     Drgrafrm.obj
 0002:0000844c       ??_C@_08PFJN@Rigid?5ON?$AA@ 0044744c     Drgrafrm.obj
 0002:00008458       ??_C@_09GEBD@Rigid?5OFF?$AA@ 00447458     Drgrafrm.obj
 0002:00008464       ??_C@_08LHDA@Copy?5OFF?$AA@ 00447464     Drgrafrm.obj
 0002:00008470       ??_C@_09PGEC@BLine?5OFF?$AA@ 00447470     Drgrafrm.obj
 0002:0000847c       ??_C@_0BM@NAMA@?$CF?42f?5Free?5?5?$CF?42f?5Total?$CIMegs?$CJ?$AA@ 0044747c     Drgrafrm.obj
 0002:00008498       __real@8@40098000000000000000 00447498     Drgrafrm.obj
 0002:000084a0       ??_C@_0CG@PNBL@Warning?3?5failed?5to?5create?5new?5fr@ 004474a0     Drgrafrm.obj
 0002:000084c8       ??_C@_09HBJL@Merge?5OFF?$AA@ 004474c8     Drgrafrm.obj
 0002:000084d4       ??_C@_08HNLH@Merge?5ON?$AA@ 004474d4     Drgrafrm.obj
 0002:000084e0       ?classCDrSplitFrm@CDrSplitFrm@@2UCRuntimeClass@@B 004474e0     DrSplit.obj
 0002:000084f8       ?messageMap@CDrSplitFrm@@1UAFX_MSGMAP@@B 004474f8     DrSplit.obj
 0002:00008500       ?_messageEntries@CDrSplitFrm@@0QBUAFX_MSGMAP_ENTRY@@B 00447500     DrSplit.obj
 0002:00008518       ?classCDrSplitWnd@CDrSplitWnd@@2UCRuntimeClass@@B 00447518     DrSplit.obj
 0002:00008530       ??_C@_0M@KIAM@CDrSplitWnd?$AA@ 00447530     DrSplit.obj
 0002:0000853c       ??_C@_0M@KAAI@CDrSplitFrm?$AA@ 0044753c     DrSplit.obj
 0002:0000854c       ??_7CDrSplitFrm@@6B@       0044754c     DrSplit.obj
 0002:00008650       ??_C@_0BO@OLG@Failed?5to?5create?5fourth?5pane?6?$AA@ 00447650     DrSplit.obj
 0002:00008670       ??_C@_0BN@MMPN@Failed?5to?5create?5third?5pane?6?$AA@ 00447670     DrSplit.obj
 0002:00008690       ??_C@_0BO@DHAG@Failed?5to?5create?5second?5pane?6?$AA@ 00447690     DrSplit.obj
 0002:000086b0       ??_C@_0BN@OPLD@Failed?5to?5create?5first?5pane?6?$AA@ 004476b0     DrSplit.obj
 0002:000086d0       ??_C@_0CA@CNHP@Failed?5to?5CreateStaticSplitter?6?$AA@ 004476d0     DrSplit.obj
 0002:000086f4       ??_7CDrSplitWnd@@6B@       004476f4     DrSplit.obj
 0002:0000881c       ??_C@_0P@INBJ@Cubic?5B_SPLINE?$AA@ 0044781c     Drstatus.obj
 0002:0000882c       ??_C@_0N@DNDP@Cubic?5BEZIER?$AA@ 0044782c     Drstatus.obj
 0002:0000883c       ??_C@_0O@KKMC@Cubic?5HERMITE?$AA@ 0044783c     Drstatus.obj
 0002:0000884c       ??_C@_09KFEJ@QUADRATIC?$AA@ 0044784c     Drstatus.obj
 0002:00008858       ??_C@_06OAFN@LINEAR?$AA@   00447858     Drstatus.obj
 0002:00008860       ??_C@_05ICP@DATE?3?$AA@    00447860     Drstatus.obj
 0002:00008868       ??_C@_05MDCD@TIME?3?$AA@   00447868     Drstatus.obj
 0002:00008870       ??_C@_05KNOB@UNIT?3?$AA@   00447870     Drstatus.obj
 0002:00008878       ??_C@_06LMCG@LAYER?3?$AA@  00447878     Drstatus.obj
 0002:00008880       ??_C@_08DPIN@DRAWING?3?$AA@ 00447880     Drstatus.obj
 0002:0000888c       ??_C@_02MHMJ@?$CFu?$AA@    0044788c     Drstatus.obj
 0002:00008890       ??_C@_0P@PPMD@MM?9ANISOMETRIC?$AA@ 00447890     Drstatus.obj
 0002:000088a0       ??_C@_0N@EGJN@MM_ISOMETRIC?$AA@ 004478a0     Drstatus.obj
 0002:000088b0       ??_C@_08BEKL@MM_TWIPS?$AA@ 004478b0     Drstatus.obj
 0002:000088bc       ??_C@_0N@GBMF@MM_HIENGLISH?$AA@ 004478bc     Drstatus.obj
 0002:000088cc       ??_C@_0N@NIAC@MM_LOENGLISH?$AA@ 004478cc     Drstatus.obj
 0002:000088dc       ??_C@_0M@DPCL@MM_HIMETRIC?$AA@ 004478dc     Drstatus.obj
 0002:000088e8       ??_C@_0M@PIOM@MM_LOMETRIC?$AA@ 004478e8     Drstatus.obj
 0002:000088f4       ??_C@_07PBEB@MM_TEXT?$AA@  004478f4     Drstatus.obj
 0002:000088fc       ??_C@_03OANO@?5Z?3?$AA@    004478fc     Drstatus.obj
 0002:00008900       ??_C@_03NLCB@?5Y?3?$AA@    00447900     Drstatus.obj
 0002:00008904       ??_C@_03MNIL@?5X?3?$AA@    00447904     Drstatus.obj
 0002:00008908       ??_C@_0CI@DFLP@Failed?5to?5set?5indicators?5in?5stat@ 00447908     Drstatus.obj
 0002:00008930       ??_C@_0BI@GGOP@No?5FEM?5Mesh?5Generation?5?$AA@ 00447930     Drstatus.obj
 0002:00008948       ??_C@_01FCOA@?5?$AA@       00447948     Drstatus.obj
 0002:0000894c       ??_C@_07DPEC@?$CF?42f?5?$CFs?$AA@ 0044794c     Drstatus.obj
 0002:00008954       ??_C@_04GPCF@?5?5?5?5?$AA@ 00447954     Drstatus.obj
 0002:0000895c       ??_C@_05HCMJ@Vert?3?$AA@   0044795c     Drstatus.obj
 0002:00008964       ??_C@_06KHPC@?5Horz?3?$AA@ 00447964     Drstatus.obj
 0002:0000896c       ??_C@_04EPAA@?5Z?3?5?$AA@  0044796c     Drstatus.obj
 0002:00008974       ??_C@_04LJDL@?5Y?3?5?$AA@  00447974     Drstatus.obj
 0002:0000897c       ??_C@_04OLCN@?5X?3?5?$AA@  0044797c     Drstatus.obj
 0002:00008984       ??_C@_0BJ@PDLN@Go?5Ahead?$CB?5Make?5My?5Day?$CB?$CB?$CB?$AA@ 00447984     Drstatus.obj
 0002:000089a0       ??_C@_0CJ@EFEA@MapMode?5?$DN?5?$CFs?5?5?5?5?5?5Scale?5?$DN?51?5in?5?3@ 004479a0     Drstatus.obj
 0002:000089cc       ??_C@_02FCAP@km?$AA@       004479cc     Drstatus.obj
 0002:000089d0       ??_C@_02HGAB@?5m?$AA@      004479d0     Drstatus.obj
 0002:000089d4       ??_C@_03KFIO@?5cm?$AA@     004479d4     Drstatus.obj
 0002:000089d8       ??_C@_03GHCF@?5mm?$AA@     004479d8     Drstatus.obj
 0002:000089dc       ??_C@_03MNHJ@?5mi?$AA@     004479dc     Drstatus.obj
 0002:000089e0       ??_C@_03LONB@?5ft?$AA@     004479e0     Drstatus.obj
 0002:000089e4       ??_C@_03MCDG@?5in?$AA@     004479e4     Drstatus.obj
 0002:000089e8       ?classCDVM_CreM@CDVM_CreM@@2UCRuntimeClass@@B 004479e8     DVM_CreM.obj
 0002:00008a00       ??_C@_09IDHF@CDVM_CreM?$AA@ 00447a00     DVM_CreM.obj
 0002:00008a10       ?classCDVM_CreO@CDVM_CreO@@2UCRuntimeClass@@B 00447a10     DVM_CreO.obj
 0002:00008a28       ??_C@_09NGFL@CDVM_CreO?$AA@ 00447a28     DVM_CreO.obj
 0002:00008a38       ?classCDVM_Del@CDVM_Del@@2UCRuntimeClass@@B 00447a38     DVM_Del.obj
 0002:00008a50       ??_C@_08INKE@CDVM_Del?$AA@ 00447a50     DVM_Del.obj
 0002:00008a60       ?classCDVM_Edit@CDVM_Edit@@2UCRuntimeClass@@B 00447a60     DVM_Edit.obj
 0002:00008a78       ??_C@_09HLMF@CDVM_Edit?$AA@ 00447a78     DVM_Edit.obj
 0002:00008a88       ?classCDVM_Genr@CDVM_Genr@@2UCRuntimeClass@@B 00447a88     DVM_Genr.obj
 0002:00008aa0       ??_C@_09PNFA@CDVM_Genr?$AA@ 00447aa0     DVM_Genr.obj
 0002:00008ab0       ?classCDVM_Mdit@CDVM_Mdit@@2UCRuntimeClass@@B 00447ab0     DVM_Mdit.obj
 0002:00008ac8       ??_C@_09FBFF@CDVM_Mdit?$AA@ 00447ac8     DVM_Mdit.obj
 0002:00008ad8       ?classCDVM_Post@CDVM_Post@@2UCRuntimeClass@@B 00447ad8     DVM_Post.obj
 0002:00008af0       ??_C@_09KNI@CDVM_Post?$AA@ 00447af0     DVM_Post.obj
 0002:00008b00       ?classCHsDataVu@CHsDataVu@@2UCRuntimeClass@@B 00447b00     HsDataVu.obj
 0002:00008b18       ?messageMap@CHsDataVu@@1UAFX_MSGMAP@@B 00447b18     HsDataVu.obj
 0002:00008b20       ?_messageEntries@CHsDataVu@@0QBUAFX_MSGMAP_ENTRY@@B 00447b20     HsDataVu.obj
 0002:00008b68       ??_C@_09KCMH@CHsDataVu?$AA@ 00447b68     HsDataVu.obj
 0002:00008b78       ??_7CHsDataVu@@6B@         00447b78     HsDataVu.obj
 0002:00008cc0       ?classCHsDrawVu@CHsDrawVu@@2UCRuntimeClass@@B 00447cc0     HsDrawVu.obj
 0002:00008cd8       ?messageMap@CHsDrawVu@@1UAFX_MSGMAP@@B 00447cd8     HsDrawVu.obj
 0002:00008ce0       ?_messageEntries@CHsDrawVu@@0QBUAFX_MSGMAP_ENTRY@@B 00447ce0     HsDrawVu.obj
 0002:00008e00       ??_C@_09GINL@CHsDrawVu?$AA@ 00447e00     HsDrawVu.obj
 0002:00008e10       ??_7CHsDrawVu@@6B@         00447e10     HsDrawVu.obj
 0002:00008fc0       ?classCMsDataVu@CMsDataVu@@2UCRuntimeClass@@B 00447fc0     MsDataVu.obj
 0002:00008fd8       ?messageMap@CMsDataVu@@1UAFX_MSGMAP@@B 00447fd8     MsDataVu.obj
 0002:00008fe0       ?_messageEntries@CMsDataVu@@0QBUAFX_MSGMAP_ENTRY@@B 00447fe0     MsDataVu.obj
 0002:00009040       ??_C@_09MKFD@CMsDataVu?$AA@ 00448040     MsDataVu.obj
 0002:00009050       ??_7CMsDataVu@@6B@         00448050     MsDataVu.obj
 0002:00009194       ??_C@_0BP@ENAP@c?3?2drgraf4_0?2applic?2msdatavu?4h?$AA@ 00448194     MsDataVu.obj
 0002:000091b4       ??_C@_0CA@EDCE@C?3?2drgraf4_0?2Applic?2Oldglob?4cpp?$AA@ 004481b4     Oldglob.obj
 0002:000091d8       ?messageMap@COldStatusBar@@1UAFX_MSGMAP@@B 004481d8     Oldstat.obj
 0002:000091e0       ?_messageEntries@COldStatusBar@@0QBUAFX_MSGMAP_ENTRY@@B 004481e0     Oldstat.obj
 0002:000092e8       ?classCOldStatusBar@COldStatusBar@@2UCRuntimeClass@@B 004482e8     Oldstat.obj
 0002:00009300       ??_C@_0O@PKCJ@COldStatusBar?$AA@ 00448300     Oldstat.obj
 0002:00009310       ??_C@_0CN@BGLH@Warning?3?5Using?5system?5font?5for?5s@ 00448310     Oldstat.obj
 0002:00009340       ??_C@_0O@JHLN@MS?5Sans?5Serif?$AA@ 00448340     Oldstat.obj
 0002:00009354       ??_7COldStatusBar@@6B@     00448354     Oldstat.obj
 0002:0000943c       ??_C@_0DC@DHL@Warning?3?5failed?5to?5load?5indicato@ 0044843c     Oldstat.obj
 0002:00009474       ??_7COldStatusCmdUI@@6B@   00448474     Oldstat.obj
 0002:00009484       ??_C@_01BJG@?6?$AA@        00448484     Oldstat.obj
 0002:00009488       ??_C@_03JNEF@?6?7?$HN?$AA@ 00448488     Oldstat.obj
 0002:0000948c       ??_C@_0O@LIKD@?6?7lpszText?5?$DN?5?$AA@ 0044848c     Oldstat.obj
 0002:0000949c       ??_C@_0M@KPHB@?6?7cxText?5?$DN?5?$AA@ 0044849c     Oldstat.obj
 0002:000094a8       ??_C@_0M@GLAJ@?6?7nStyle?5?$DN?5?$AA@ 004484a8     Oldstat.obj
 0002:000094b4       ??_C@_08LINB@?6?7nID?5?$DN?5?$AA@ 004484b4     Oldstat.obj
 0002:000094c0       ??_C@_0O@EBFM@?6status?5pane?$FL?$AA@ 004484c0     Oldstat.obj
 0002:000094d0       ??_C@_05EJJM@?$FN?5?$DN?5?$HL?$AA@ 004484d0     Oldstat.obj
 0002:000094d8       ??_C@_0M@JMBG@?6m_hFont?5?$DN?5?$AA@ 004484d8     Oldstat.obj
 0002:00009508       ?messageMap@COldToolBar@@1UAFX_MSGMAP@@B 00448508     OldTool.obj
 0002:00009510       ?_messageEntries@COldToolBar@@0QBUAFX_MSGMAP_ENTRY@@B 00448510     OldTool.obj
 0002:000095a0       ?classCOldToolBar@COldToolBar@@2UCRuntimeClass@@B 004485a0     OldTool.obj
 0002:000095b8       ??_C@_0M@FCJA@COldToolBar?$AA@ 004485b8     OldTool.obj
 0002:000095c4       ??_C@_0BM@DAKC@Error?3?5can?8t?5draw?5toolbar?4?6?$AA@ 004485c4     OldTool.obj
 0002:000095e4       ??_7COldToolBar@@6B@       004485e4     OldTool.obj
 0002:000096d4       ??_C@_0DK@DGNA@Warning?3?5CToolBar?3?3SetHeight?$CI?$CFd?$CJ@ 004486d4     OldTool.obj
 0002:00009714       ??_7COldToolCmdUI@@6B@     00448714     OldTool.obj
 0002:00009724       ??_C@_02JCCC@?6?$HN?$AA@   00448724     OldTool.obj
 0002:00009728       ??_C@_0CB@DJKL@?6?7iImage?5?$CIbitmap?5image?5index?$CJ?5?$DN?5@ 00448728     OldTool.obj
 0002:0000974c       ??_C@_0BO@PCPI@?6?7iImage?5?$CIseparator?5width?$CJ?5?$DN?5?$AA@ 0044874c     OldTool.obj
 0002:0000976c       ??_C@_0BB@ELCK@?6toolbar?5button?$FL?$AA@ 0044876c     OldTool.obj
 0002:00009780       ??_C@_0BA@BCFB@?6m_sizeImage?5?$DN?5?$AA@ 00448780     OldTool.obj
 0002:00009790       ??_C@_0BB@BMHK@?6m_sizeButton?5?$DN?5?$AA@ 00448790     OldTool.obj
 0002:000097a4       ??_C@_0BF@DFMO@?6m_iButtonCapture?5?$DN?5?$AA@ 004487a4     OldTool.obj
 0002:000097bc       ??_C@_0BF@GKOI@?6m_hRsrcImageWell?5?$DN?5?$AA@ 004487bc     OldTool.obj
 0002:000097d4       ??_C@_0BF@ONDI@?6m_hInstImageWell?5?$DN?5?$AA@ 004487d4     OldTool.obj
 0002:000097ec       ??_C@_0BC@DKGE@m_hbmImageWell?5?$DN?5?$AA@ 004487ec     OldTool.obj
 0002:00009800       ?messageMap@CProbElemDim@@1UAFX_MSGMAP@@B 00448800     ProbElemDim.obj
 0002:00009808       ?_messageEntries@CProbElemDim@@0QBUAFX_MSGMAP_ENTRY@@B 00448808     ProbElemDim.obj
 0002:00009880       ??_C@_02ILJI@3D?$AA@       00448880     ProbElemDim.obj
 0002:00009884       ??_C@_02JNDC@2D?$AA@       00448884     ProbElemDim.obj
 0002:00009888       ??_C@_02KGMN@1D?$AA@       00448888     ProbElemDim.obj
 0002:00009890       ??_7CProbElemDim@@6B@      00448890     ProbElemDim.obj
 0002:00009968       ?classCRowView@CRowView@@2UCRuntimeClass@@B 00448968     Rowview.obj
 0002:00009980       ?messageMap@CRowView@@1UAFX_MSGMAP@@B 00448980     Rowview.obj
 0002:00009988       ?_messageEntries@CRowView@@0QBUAFX_MSGMAP_ENTRY@@B 00448988     Rowview.obj
 0002:00009a30       ??_C@_08NHCE@CRowView?$AA@ 00448a30     Rowview.obj
 0002:00009a40       ??_7CRowView@@6B@          00448a40     Rowview.obj
 0002:00009b88       ?classCSpDataVu@CSpDataVu@@2UCRuntimeClass@@B 00448b88     SpDataVu.obj
 0002:00009ba0       ?messageMap@CSpDataVu@@1UAFX_MSGMAP@@B 00448ba0     SpDataVu.obj
 0002:00009ba8       ?_messageEntries@CSpDataVu@@0QBUAFX_MSGMAP_ENTRY@@B 00448ba8     SpDataVu.obj
 0002:00009bf0       ??_C@_09MKJH@CSpDataVu?$AA@ 00448bf0     SpDataVu.obj
 0002:00009c00       ??_7CSpDataVu@@6B@         00448c00     SpDataVu.obj
 0002:00009d48       ?classCSpDrawVu@CSpDrawVu@@2UCRuntimeClass@@B 00448d48     SpDrawVu.obj
 0002:00009d60       ?messageMap@CSpDrawVu@@1UAFX_MSGMAP@@B 00448d60     SpDrawVu.obj
 0002:00009d68       ?_messageEntries@CSpDrawVu@@0QBUAFX_MSGMAP_ENTRY@@B 00448d68     SpDrawVu.obj
 0002:00009e88       ??_C@_09IL@CSpDrawVu?$AA@  00448e88     SpDrawVu.obj
 0002:00009e98       ??_7CSpDrawVu@@6B@         00448e98     SpDrawVu.obj
 0002:0000a048       ?messageMap@CSplashCom@@1UAFX_MSGMAP@@B 00449048     Splash.obj
 0002:0000a050       ?_messageEntries@CSplashCom@@0QBUAFX_MSGMAP_ENTRY@@B 00449050     Splash.obj
 0002:0000a0b4       ??_7CSplashCom@@6B@        004490b4     Splash.obj
 0002:0000a178       ?classCDrGrafSrvrItem@CDrGrafSrvrItem@@2UCRuntimeClass@@B 00449178     SrvrItem.obj
 0002:0000a190       ??_C@_0BA@NOEC@CDrGrafSrvrItem?$AA@ 00449190     SrvrItem.obj
 0002:0000a1a4       ??_7CDrGrafSrvrItem@@6B@   004491a4     SrvrItem.obj
 0002:0000a250       ?messageMap@CStatCntl@@1UAFX_MSGMAP@@B 00449250     StatCntl.obj
 0002:0000a258       ?_messageEntries@CStatCntl@@0QBUAFX_MSGMAP_ENTRY@@B 00449258     StatCntl.obj
 0002:0000a330       ?classCStatCntl@CStatCntl@@2UCRuntimeClass@@B 00449330     StatCntl.obj
 0002:0000a348       ??_C@_09KBFB@CStatCntl?$AA@ 00449348     StatCntl.obj
 0002:0000a358       ??_7CStatCntl@@6B@         00449358     StatCntl.obj
 0002:0000a418       ??_C@_01KFMA@?$EA?$AA@     00449418     StatCntl.obj
 0002:0000a41c       ??_C@_0CA@FLNA@Please?5Select?5an?5Operation?5Type?$AA@ 0044941c     StatCntl.obj
 0002:0000a43c       ??_C@_0CK@FNDC@Please?5First?6Finish?5the?5Current?5@ 0044943c     StatCntl.obj
 0002:0000a468       _IID_IDocHostUIHandlerDispatch 00449468     mfcs42d:stdafx.obj
 0002:0000a478       _IID_IInternalConnection   00449478     mfcs42d:stdafx.obj
 0002:0000a488       _IID_IAxWinAmbientDispatch 00449488     mfcs42d:stdafx.obj
 0002:0000a498       _IID_IAxWinHostWindow      00449498     mfcs42d:stdafx.obj
 0002:0000a4a8       _IID_IRegistrar            004494a8     mfcs42d:stdafx.obj
 0002:0000a4b8       _CLSID_Registrar           004494b8     mfcs42d:stdafx.obj
 0002:0000a4c8       _LIBID_ATLLib              004494c8     mfcs42d:stdafx.obj
 0002:0000a4dc       ??_7type_info@@6B@         004494dc     msvcrtd:ti_inst.obj
 0002:0000a520       ??_R1A@?0A@A@CObject@@8    00449520     12view.obj
 0002:0000a538       ??_R1A@?0A@A@CCmdTarget@@8 00449538     12view.obj
 0002:0000a550       ??_R1A@?0A@A@CWnd@@8       00449550     12view.obj
 0002:0000a568       ??_R1A@?0A@A@CView@@8      00449568     12view.obj
 0002:0000a580       ??_R1A@?0A@A@CScrollView@@8 00449580     12view.obj
 0002:0000a598       ??_R1A@?0A@A@CDrawView@@8  00449598     12view.obj
 0002:0000a5b0       ??_R1A@?0A@A@C12View@@8    004495b0     12view.obj
 0002:0000a5c8       ??_R2C12View@@8            004495c8     12view.obj
 0002:0000a5e8       ??_R3C12View@@8            004495e8     12view.obj
 0002:0000a5f8       ??_R4C12View@@6B@          004495f8     12view.obj
 0002:0000a610       ??_R1A@?0A@A@C23View@@8    00449610     23view.obj
 0002:0000a628       ??_R2C23View@@8            00449628     23view.obj
 0002:0000a648       ??_R3C23View@@8            00449648     23view.obj
 0002:0000a658       ??_R4C23View@@6B@          00449658     23view.obj
 0002:0000a670       ??_R1A@?0A@A@C31View@@8    00449670     31view.obj
 0002:0000a688       ??_R2C31View@@8            00449688     31view.obj
 0002:0000a6a8       ??_R3C31View@@8            004496a8     31view.obj
 0002:0000a6b8       ??_R4C31View@@6B@          004496b8     31view.obj
 0002:0000a6d0       ??_R1A@?0A@A@C3DView@@8    004496d0     3dview.obj
 0002:0000a6e8       ??_R2C3DView@@8            004496e8     3dview.obj
 0002:0000a708       ??_R3C3DView@@8            00449708     3dview.obj
 0002:0000a718       ??_R4C3DView@@6B@          00449718     3dview.obj
 0002:0000a730       ??_R1A@?0A@A@CDialog@@8    00449730     Aboutbox.obj
 0002:0000a748       ??_R1A@?0A@A@CAboutBox@@8  00449748     Aboutbox.obj
 0002:0000a760       ??_R2CAboutBox@@8          00449760     Aboutbox.obj
 0002:0000a778       ??_R3CAboutBox@@8          00449778     Aboutbox.obj
 0002:0000a788       ??_R4CAboutBox@@6B@        00449788     Aboutbox.obj
 0002:0000a7a0       ??_R1A@?0A@A@CButton@@8    004497a0     Aboutbox.obj
 0002:0000a7b8       ??_R1A@?0A@A@CBigIcon@@8   004497b8     Aboutbox.obj
 0002:0000a7d0       ??_R2CBigIcon@@8           004497d0     Aboutbox.obj
 0002:0000a7e8       ??_R3CBigIcon@@8           004497e8     Aboutbox.obj
 0002:0000a7f8       ??_R4CBigIcon@@6B@         004497f8     Aboutbox.obj
 0002:0000a810       ??_R1A@?0A@A@CAppDlgMgr@@8 00449810     ADlgMgr.obj
 0002:0000a828       ??_R2CAppDlgMgr@@8         00449828     ADlgMgr.obj
 0002:0000a838       ??_R3CAppDlgMgr@@8         00449838     ADlgMgr.obj
 0002:0000a848       ??_R4CAppDlgMgr@@6B@       00449848     ADlgMgr.obj
 0002:0000a860       ??_R1A@?0A@A@CRowView@@8   00449860     AxDataVu.obj
 0002:0000a878       ??_R1A@?0A@A@CAxDataVu@@8  00449878     AxDataVu.obj
 0002:0000a890       ??_R2CAxDataVu@@8          00449890     AxDataVu.obj
 0002:0000a8b0       ??_R3CAxDataVu@@8          004498b0     AxDataVu.obj
 0002:0000a8c0       ??_R4CAxDataVu@@6B@        004498c0     AxDataVu.obj
 0002:0000a8d8       ??_R1A@?0A@A@CAxDrawVu@@8  004498d8     AxDrawVu.obj
 0002:0000a8f0       ??_R2CAxDrawVu@@8          004498f0     AxDrawVu.obj
 0002:0000a910       ??_R3CAxDrawVu@@8          00449910     AxDrawVu.obj
 0002:0000a920       ??_R4CAxDrawVu@@6B@        00449920     AxDrawVu.obj
 0002:0000a938       ??_R1A@?0A@A@CDVM_Genr@@8  00449938     AxDrawVu.obj
 0002:0000a950       ??_R2CDVM_Genr@@8          00449950     AxDrawVu.obj
 0002:0000a960       ??_R3CDVM_Genr@@8          00449960     AxDrawVu.obj
 0002:0000a970       ??_R4CDVM_Genr@@6B@        00449970     AxDrawVu.obj
 0002:0000a988       ??_R1A@?0A@A@CDVM_Edit@@8  00449988     AxDrawVu.obj
 0002:0000a9a0       ??_R2CDVM_Edit@@8          004499a0     AxDrawVu.obj
 0002:0000a9b0       ??_R3CDVM_Edit@@8          004499b0     AxDrawVu.obj
 0002:0000a9c0       ??_R4CDVM_Edit@@6B@        004499c0     AxDrawVu.obj
 0002:0000a9d8       ??_R1A@?0A@A@CDVM_Del@@8   004499d8     AxDrawVu.obj
 0002:0000a9f0       ??_R2CDVM_Del@@8           004499f0     AxDrawVu.obj
 0002:0000aa00       ??_R3CDVM_Del@@8           00449a00     AxDrawVu.obj
 0002:0000aa10       ??_R4CDVM_Del@@6B@         00449a10     AxDrawVu.obj
 0002:0000aa28       ??_R1A@?0A@A@CBanner@@8    00449a28     Banner.obj
 0002:0000aa40       ??_R2CBanner@@8            00449a40     Banner.obj
 0002:0000aa58       ??_R3CBanner@@8            00449a58     Banner.obj
 0002:0000aa68       ??_R4CBanner@@6B@          00449a68     Banner.obj
 0002:0000aa80       ??_R1A@?0A@A@CMDIB@@8      00449a80     Banner.obj
 0002:0000aa98       ??_R2CMDIB@@8              00449a98     Banner.obj
 0002:0000aaa8       ??_R3CMDIB@@8              00449aa8     Banner.obj
 0002:0000aab8       ??_R4CMDIB@@6B@            00449ab8     Banner.obj
 0002:0000aad0       ??_R1A@?0A@A@CClock@@8     00449ad0     Clock.obj
 0002:0000aae8       ??_R2CClock@@8             00449ae8     Clock.obj
 0002:0000aaf8       ??_R3CClock@@8             00449af8     Clock.obj
 0002:0000ab08       ??_R4CClock@@6B@           00449b08     Clock.obj
 0002:0000ab20       ??_R1A@?0A@A@CDocItem@@8   00449b20     Cntritem.obj
 0002:0000ab38       ??_R1A@?0A@A@COleClientItem@@8 00449b38     Cntritem.obj
 0002:0000ab50       ??_R1A@?0A@A@CDrGrafCntrItem@@8 00449b50     Cntritem.obj
 0002:0000ab68       ??_R2CDrGrafCntrItem@@8    00449b68     Cntritem.obj
 0002:0000ab80       ??_R3CDrGrafCntrItem@@8    00449b80     Cntritem.obj
 0002:0000ab90       ??_R4CDrGrafCntrItem@@6B@  00449b90     Cntritem.obj
 0002:0000aba8       ??_R1A@?0A@A@CDataView@@8  00449ba8     Dataview.obj
 0002:0000abc0       ??_R2CDataView@@8          00449bc0     Dataview.obj
 0002:0000abe0       ??_R3CDataView@@8          00449be0     Dataview.obj
 0002:0000abf0       ??_R4CDataView@@6B@        00449bf0     Dataview.obj
 0002:0000ac08       ??_R1A@?0A@A@CDeckView@@8  00449c08     DeckView.obj
 0002:0000ac20       ??_R2CDeckView@@8          00449c20     DeckView.obj
 0002:0000ac40       ??_R3CDeckView@@8          00449c40     DeckView.obj
 0002:0000ac50       ??_R4CDeckView@@6B@        00449c50     DeckView.obj
 0002:0000ac68       ??_R1A@?0A@A@CDlg_CTim@@8  00449c68     Dlg_CTim.obj
 0002:0000ac80       ??_R2CDlg_CTim@@8          00449c80     Dlg_CTim.obj
 0002:0000ac98       ??_R3CDlg_CTim@@8          00449c98     Dlg_CTim.obj
 0002:0000aca8       ??_R4CDlg_CTim@@6B@        00449ca8     Dlg_CTim.obj
 0002:0000acc0       ??_R1A@?0A@A@CDlg_NoELem@@8 00449cc0     Dlg_NoEL.obj
 0002:0000acd8       ??_R2CDlg_NoELem@@8        00449cd8     Dlg_NoEL.obj
 0002:0000acf0       ??_R3CDlg_NoELem@@8        00449cf0     Dlg_NoEL.obj
 0002:0000ad00       ??_R4CDlg_NoELem@@6B@      00449d00     Dlg_NoEL.obj
 0002:0000ad18       ??_R1A@?0A@A@CDlg_NoLabELem@@8 00449d18     Dlg_NoLE.obj
 0002:0000ad30       ??_R2CDlg_NoLabELem@@8     00449d30     Dlg_NoLE.obj
 0002:0000ad48       ??_R3CDlg_NoLabELem@@8     00449d48     Dlg_NoLE.obj
 0002:0000ad58       ??_R4CDlg_NoLabELem@@6B@   00449d58     Dlg_NoLE.obj
 0002:0000ad70       ??_R1A@?0A@A@CDlg_Shrink@@8 00449d70     Dlg_Shrink.obj
 0002:0000ad88       ??_R2CDlg_Shrink@@8        00449d88     Dlg_Shrink.obj
 0002:0000ada0       ??_R3CDlg_Shrink@@8        00449da0     Dlg_Shrink.obj
 0002:0000adb0       ??_R4CDlg_Shrink@@6B@      00449db0     Dlg_Shrink.obj
 0002:0000adc8       ??_R1A@?0A@A@CViewInfo@@8  00449dc8     Drawview.obj
 0002:0000ade0       ??_R2CViewInfo@@8          00449de0     Drawview.obj
 0002:0000adf8       ??_R3CViewInfo@@8          00449df8     Drawview.obj
 0002:0000ae08       ??_R4CViewInfo@@6B@        00449e08     Drawview.obj
 0002:0000ae20       ??_R2CDrawView@@8          00449e20     Drawview.obj
 0002:0000ae40       ??_R3CDrawView@@8          00449e40     Drawview.obj
 0002:0000ae50       ??_R4CDrawView@@6B@        00449e50     Drawview.obj
 0002:0000ae68       ??_R1A@?0A@A@CDVM_CreO@@8  00449e68     Drawview.obj
 0002:0000ae80       ??_R2CDVM_CreO@@8          00449e80     Drawview.obj
 0002:0000ae90       ??_R3CDVM_CreO@@8          00449e90     Drawview.obj
 0002:0000aea0       ??_R4CDVM_CreO@@6B@        00449ea0     Drawview.obj
 0002:0000aeb8       ??_R1A@?0A@A@CDVM_Post@@8  00449eb8     Drawview.obj
 0002:0000aed0       ??_R2CDVM_Post@@8          00449ed0     Drawview.obj
 0002:0000aee0       ??_R3CDVM_Post@@8          00449ee0     Drawview.obj
 0002:0000aef0       ??_R4CDVM_Post@@6B@        00449ef0     Drawview.obj
 0002:0000af08       ??_R1A@?0A@A@CDVM_CreM@@8  00449f08     Drawview.obj
 0002:0000af20       ??_R2CDVM_CreM@@8          00449f20     Drawview.obj
 0002:0000af30       ??_R3CDVM_CreM@@8          00449f30     Drawview.obj
 0002:0000af40       ??_R4CDVM_CreM@@6B@        00449f40     Drawview.obj
 0002:0000af58       ??_R1A@?0A@A@CDVM_Mdit@@8  00449f58     Drawview.obj
 0002:0000af70       ??_R2CDVM_Mdit@@8          00449f70     Drawview.obj
 0002:0000af80       ??_R3CDVM_Mdit@@8          00449f80     Drawview.obj
 0002:0000af90       ??_R4CDVM_Mdit@@6B@        00449f90     Drawview.obj
 0002:0000afa8       ??_R1A@?0A@A@CFrameWnd@@8  00449fa8     Drgracfm.obj
 0002:0000afc0       ??_R1A@?0A@A@CMDIChildWnd@@8 00449fc0     Drgracfm.obj
 0002:0000afd8       ??_R1A@?0A@A@CDrGrafChildFrame@@8 00449fd8     Drgracfm.obj
 0002:0000aff0       ??_R2CDrGrafChildFrame@@8  00449ff0     Drgracfm.obj
 0002:0000b010       ??_R3CDrGrafChildFrame@@8  0044a010     Drgracfm.obj
 0002:0000b020       ??_R4CDrGrafChildFrame@@6B@ 0044a020     Drgracfm.obj
 0002:0000b038       ??_R1A@?0A@A@CDocument@@8  0044a038     Drgradoc.obj
 0002:0000b050       ??_R1A@?0A@A@COleDocument@@8 0044a050     Drgradoc.obj
 0002:0000b068       ??_R1A@?0A@A@COleLinkingDoc@@8 0044a068     Drgradoc.obj
 0002:0000b080       ??_R1A@?0A@A@COleServerDoc@@8 0044a080     Drgradoc.obj
 0002:0000b098       ??_R1A@?0A@A@CDrGrafDoc@@8 0044a098     Drgradoc.obj
 0002:0000b0b0       ??_R2CDrGrafDoc@@8         0044a0b0     Drgradoc.obj
 0002:0000b0d0       ??_R3CDrGrafDoc@@8         0044a0d0     Drgradoc.obj
 0002:0000b0e0       ??_R4CDrGrafDoc@@6B@       0044a0e0     Drgradoc.obj
 0002:0000b0f8       ??_R1A@?0A@A@CWinThread@@8 0044a0f8     Drgraf.obj
 0002:0000b110       ??_R1A@?0A@A@CWinApp@@8    0044a110     Drgraf.obj
 0002:0000b128       ??_R1A@?0A@A@CDrGrafApp@@8 0044a128     Drgraf.obj
 0002:0000b140       ??_R2CDrGrafApp@@8         0044a140     Drgraf.obj
 0002:0000b158       ??_R3CDrGrafApp@@8         0044a158     Drgraf.obj
 0002:0000b168       ??_R4CDrGrafApp@@6B@       0044a168     Drgraf.obj
 0002:0000b180       ??_R1A@?0A@A@CSplashWnd@@8 0044a180     Drgraf.obj
 0002:0000b198       ??_R2CSplashWnd@@8         0044a198     Drgraf.obj
 0002:0000b1b0       ??_R3CSplashWnd@@8         0044a1b0     Drgraf.obj
 0002:0000b1c0       ??_R4CSplashWnd@@6B@       0044a1c0     Drgraf.obj
 0002:0000b1d8       ??_R1A@?0A@A@CMDIFrameWnd@@8 0044a1d8     Drgrafrm.obj
 0002:0000b1f0       ??_R1A@?0A@A@CDrGrafFrame@@8 0044a1f0     Drgrafrm.obj
 0002:0000b208       ??_R2CDrGrafFrame@@8       0044a208     Drgrafrm.obj
 0002:0000b228       ??_R3CDrGrafFrame@@8       0044a228     Drgrafrm.obj
 0002:0000b238       ??_R4CDrGrafFrame@@6B@     0044a238     Drgrafrm.obj
 0002:0000b250       ??_R1A@?0A@A@CControlBar@@8 0044a250     Drgrafrm.obj
 0002:0000b268       ??_R1A@?0A@A@CStatusBar@@8 0044a268     Drgrafrm.obj
 0002:0000b280       ??_R1A@?0A@A@CTopStatusBar@@8 0044a280     Drgrafrm.obj
 0002:0000b298       ??_R2CTopStatusBar@@8      0044a298     Drgrafrm.obj
 0002:0000b2b8       ??_R3CTopStatusBar@@8      0044a2b8     Drgrafrm.obj
 0002:0000b2c8       ??_R4CTopStatusBar@@6B@    0044a2c8     Drgrafrm.obj
 0002:0000b2e0       ??_R1A@?0A@A@CBotStatusBar@@8 0044a2e0     Drgrafrm.obj
 0002:0000b2f8       ??_R2CBotStatusBar@@8      0044a2f8     Drgrafrm.obj
 0002:0000b318       ??_R3CBotStatusBar@@8      0044a318     Drgrafrm.obj
 0002:0000b328       ??_R4CBotStatusBar@@6B@    0044a328     Drgrafrm.obj
 0002:0000b340       ??_R1A@?0A@A@CDrSplitFrm@@8 0044a340     DrSplit.obj
 0002:0000b358       ??_R2CDrSplitFrm@@8        0044a358     DrSplit.obj
 0002:0000b378       ??_R3CDrSplitFrm@@8        0044a378     DrSplit.obj
 0002:0000b388       ??_R4CDrSplitFrm@@6B@      0044a388     DrSplit.obj
 0002:0000b3a0       ??_R1A@?0A@A@CSplitterWnd@@8 0044a3a0     DrSplit.obj
 0002:0000b3b8       ??_R1A@?0A@A@CDrSplitWnd@@8 0044a3b8     DrSplit.obj
 0002:0000b3d0       ??_R2CDrSplitWnd@@8        0044a3d0     DrSplit.obj
 0002:0000b3e8       ??_R3CDrSplitWnd@@8        0044a3e8     DrSplit.obj
 0002:0000b3f8       ??_R4CDrSplitWnd@@6B@      0044a3f8     DrSplit.obj
 0002:0000b410       ??_R1A@?0A@A@CHsDataVu@@8  0044a410     HsDataVu.obj
 0002:0000b428       ??_R2CHsDataVu@@8          0044a428     HsDataVu.obj
 0002:0000b450       ??_R3CHsDataVu@@8          0044a450     HsDataVu.obj
 0002:0000b460       ??_R4CHsDataVu@@6B@        0044a460     HsDataVu.obj
 0002:0000b478       ??_R1A@?0A@A@CHsDrawVu@@8  0044a478     HsDrawVu.obj
 0002:0000b490       ??_R2CHsDrawVu@@8          0044a490     HsDrawVu.obj
 0002:0000b4b0       ??_R3CHsDrawVu@@8          0044a4b0     HsDrawVu.obj
 0002:0000b4c0       ??_R4CHsDrawVu@@6B@        0044a4c0     HsDrawVu.obj
 0002:0000b4d8       ??_R1A@?0A@A@CMsDataVu@@8  0044a4d8     MsDataVu.obj
 0002:0000b4f0       ??_R2CMsDataVu@@8          0044a4f0     MsDataVu.obj
 0002:0000b510       ??_R3CMsDataVu@@8          0044a510     MsDataVu.obj
 0002:0000b520       ??_R4CMsDataVu@@6B@        0044a520     MsDataVu.obj
 0002:0000b538       ??_R1A@?0A@A@COldStatusBar@@8 0044a538     Oldstat.obj
 0002:0000b550       ??_R2COldStatusBar@@8      0044a550     Oldstat.obj
 0002:0000b568       ??_R3COldStatusBar@@8      0044a568     Oldstat.obj
 0002:0000b578       ??_R4COldStatusBar@@6B@    0044a578     Oldstat.obj
 0002:0000b590       ??_R1A@?0A@A@CCmdUI@@8     0044a590     Oldstat.obj
 0002:0000b5a8       ??_R1A@?0A@A@COldStatusCmdUI@@8 0044a5a8     Oldstat.obj
 0002:0000b5c0       ??_R2COldStatusCmdUI@@8    0044a5c0     Oldstat.obj
 0002:0000b5d0       ??_R3COldStatusCmdUI@@8    0044a5d0     Oldstat.obj
 0002:0000b5e0       ??_R4COldStatusCmdUI@@6B@  0044a5e0     Oldstat.obj
 0002:0000b5f8       ??_R1A@?0A@A@COldToolBar@@8 0044a5f8     OldTool.obj
 0002:0000b610       ??_R2COldToolBar@@8        0044a610     OldTool.obj
 0002:0000b628       ??_R3COldToolBar@@8        0044a628     OldTool.obj
 0002:0000b638       ??_R4COldToolBar@@6B@      0044a638     OldTool.obj
 0002:0000b650       ??_R1A@?0A@A@COldToolCmdUI@@8 0044a650     OldTool.obj
 0002:0000b668       ??_R2COldToolCmdUI@@8      0044a668     OldTool.obj
 0002:0000b678       ??_R3COldToolCmdUI@@8      0044a678     OldTool.obj
 0002:0000b688       ??_R4COldToolCmdUI@@6B@    0044a688     OldTool.obj
 0002:0000b6a0       ??_R1A@?0A@A@CProbElemDim@@8 0044a6a0     ProbElemDim.obj
 0002:0000b6b8       ??_R2CProbElemDim@@8       0044a6b8     ProbElemDim.obj
 0002:0000b6d0       ??_R3CProbElemDim@@8       0044a6d0     ProbElemDim.obj
 0002:0000b6e0       ??_R4CProbElemDim@@6B@     0044a6e0     ProbElemDim.obj
 0002:0000b6f8       ??_R2CRowView@@8           0044a6f8     Rowview.obj
 0002:0000b718       ??_R3CRowView@@8           0044a718     Rowview.obj
 0002:0000b728       ??_R4CRowView@@6B@         0044a728     Rowview.obj
 0002:0000b740       ??_R1A@?0A@A@CSpDataVu@@8  0044a740     SpDataVu.obj
 0002:0000b758       ??_R2CSpDataVu@@8          0044a758     SpDataVu.obj
 0002:0000b780       ??_R3CSpDataVu@@8          0044a780     SpDataVu.obj
 0002:0000b790       ??_R4CSpDataVu@@6B@        0044a790     SpDataVu.obj
 0002:0000b7a8       ??_R1A@?0A@A@CSpDrawVu@@8  0044a7a8     SpDrawVu.obj
 0002:0000b7c0       ??_R2CSpDrawVu@@8          0044a7c0     SpDrawVu.obj
 0002:0000b7e0       ??_R3CSpDrawVu@@8          0044a7e0     SpDrawVu.obj
 0002:0000b7f0       ??_R4CSpDrawVu@@6B@        0044a7f0     SpDrawVu.obj
 0002:0000b808       ??_R1A@?0A@A@CSplashCom@@8 0044a808     Splash.obj
 0002:0000b820       ??_R2CSplashCom@@8         0044a820     Splash.obj
 0002:0000b838       ??_R3CSplashCom@@8         0044a838     Splash.obj
 0002:0000b848       ??_R4CSplashCom@@6B@       0044a848     Splash.obj
 0002:0000b860       ??_R1A@?0A@A@COleServerItem@@8 0044a860     SrvrItem.obj
 0002:0000b878       ??_R1A@?0A@A@CDrGrafSrvrItem@@8 0044a878     SrvrItem.obj
 0002:0000b890       ??_R2CDrGrafSrvrItem@@8    0044a890     SrvrItem.obj
 0002:0000b8a8       ??_R3CDrGrafSrvrItem@@8    0044a8a8     SrvrItem.obj
 0002:0000b8b8       ??_R4CDrGrafSrvrItem@@6B@  0044a8b8     SrvrItem.obj
 0002:0000b8d0       ??_R1A@?0A@A@CStatCntl@@8  0044a8d0     StatCntl.obj
 0002:0000b8e8       ??_R2CStatCntl@@8          0044a8e8     StatCntl.obj
 0002:0000b900       ??_R3CStatCntl@@8          0044a900     StatCntl.obj
 0002:0000b910       ??_R4CStatCntl@@6B@        0044a910     StatCntl.obj
 0002:0000b928       ??_R1A@?0A@A@type_info@@8  0044a928     msvcrtd:ti_inst.obj
 0002:0000b940       ??_R2type_info@@8          0044a940     msvcrtd:ti_inst.obj
 0002:0000b948       ??_R3type_info@@8          0044a948     msvcrtd:ti_inst.obj
 0002:0000b958       ??_R4type_info@@6B@        0044a958     msvcrtd:ti_inst.obj
 0002:0000e850       __IMPORT_DESCRIPTOR_WINMM  0044d850     winMM:WINMM.dll
 0002:0000e864       __IMPORT_DESCRIPTOR_Dr3D_D32 0044d864     Dr3D_D32:Dr3D_D32.dll
 0002:0000e878       __IMPORT_DESCRIPTOR_Spec_D32 0044d878     Spec_D32:Spec_D32.dll
 0002:0000e88c       __IMPORT_DESCRIPTOR_Mesh_D32 0044d88c     Mesh_d32:Mesh_D32.dll
 0002:0000e8a0       __IMPORT_DESCRIPTOR_Elem_D32 0044d8a0     Elem_D32:Elem_D32.dll
 0002:0000e8b4       __IMPORT_DESCRIPTOR_OGEN_D32 0044d8b4     OGen_D32:OGEN_D32.dll
 0002:0000e8c8       __IMPORT_DESCRIPTOR_Draw_D32 0044d8c8     Draw_D32:Draw_D32.dll
 0002:0000e8dc       __IMPORT_DESCRIPTOR_Supp_D32 0044d8dc     Supp_D32:Supp_D32.dll
 0002:0000e8f0       __IMPORT_DESCRIPTOR_StaL_D32 0044d8f0     StaL_D32:StaL_D32.dll
 0002:0000e904       __IMPORT_DESCRIPTOR_OMgr_D32 0044d904     OMgr_D32:OMgr_D32.dll
 0002:0000e918       __IMPORT_DESCRIPTOR_SDlg_D32 0044d918     SDlg_D32:SDlg_D32.dll
 0002:0000e92c       __IMPORT_DESCRIPTOR_EDlg_D32 0044d92c     EDlg_D32:EDlg_D32.dll
 0002:0000e940       __IMPORT_DESCRIPTOR_DDlg_D32 0044d940     DDlg_D32:DDlg_D32.dll
 0002:0000e954       __IMPORT_DESCRIPTOR_IGBx_D32 0044d954     IGBx_D32:IGBx_D32.dll
 0002:0000e968       __IMPORT_DESCRIPTOR_EBox_D32 0044d968     EBox_D32:EBox_D32.dll
 0002:0000e97c       __IMPORT_DESCRIPTOR_DBox_D32 0044d97c     DBox_D32:DBox_D32.dll
 0002:0000e990       __IMPORT_DESCRIPTOR_MMgr_D32 0044d990     MMgr_D32:MMgr_D32.dll
 0002:0000e9a4       __IMPORT_DESCRIPTOR_MNod_D32 0044d9a4     MNod_D32:MNod_D32.dll
 0002:0000e9b8       __IMPORT_DESCRIPTOR_MCur_D32 0044d9b8     MCur_D32:MCur_D32.dll
 0002:0000e9cc       __IMPORT_DESCRIPTOR_MPat_D32 0044d9cc     MPat_D32:MPat_D32.dll
 0002:0000e9e0       __IMPORT_DESCRIPTOR_MSol_D32 0044d9e0     MSol_D32:MSol_D32.dll
 0002:0000e9f4       __IMPORT_DESCRIPTOR_MO3D_D32 0044d9f4     MO3D_D32:MO3D_D32.dll
 0002:0000ea08       __IMPORT_DESCRIPTOR_MSup_D32 0044da08     MSup_D32:MSup_D32.dll
 0002:0000ea1c       __IMPORT_DESCRIPTOR_MStL_D32 0044da1c     MStL_D32:MStL_D32.dll
 0002:0000ea30       __IMPORT_DESCRIPTOR_CMgr_D32 0044da30     CMgr_D32:CMgr_D32.dll
 0002:0000ea44       __IMPORT_DESCRIPTOR_EMgr_D32 0044da44     EMgr_D32:EMgr_D32.dll
 0002:0000ea58       __IMPORT_DESCRIPTOR_DMgr_D32 0044da58     DMGR_D32:DMgr_D32.dll
 0002:0000ea6c       __IMPORT_DESCRIPTOR_PMgr_D32 0044da6c     PMgr_D32:PMgr_D32.dll
 0002:0000ea80       __IMPORT_DESCRIPTOR_MMs0_D32 0044da80     MMs0_D32:MMs0_D32.dll
 0002:0000ea94       __IMPORT_DESCRIPTOR_MMs1_D32 0044da94     MMs1_D32:MMs1_D32.dll
 0002:0000eaa8       __IMPORT_DESCRIPTOR_MMs2_D32 0044daa8     MMs2_D32:MMs2_D32.dll
 0002:0000eabc       __IMPORT_DESCRIPTOR_CreM_D32 0044dabc     CreM_D32:CreM_D32.dll
 0002:0000ead0       __IMPORT_DESCRIPTOR_Mdit_D32 0044dad0     Mdit_D32:Mdit_D32.dll
 0002:0000eae4       __IMPORT_DESCRIPTOR_Deck_D32 0044dae4     Deck_D32:Deck_D32.dll
 0002:0000eaf8       __IMPORT_DESCRIPTOR_View_D32 0044daf8     View_D32:View_D32.dll
 0002:0000eb0c       __IMPORT_DESCRIPTOR_Auxi_D32 0044db0c     Auxi_D32:Auxi_D32.dll
 0002:0000eb20       __IMPORT_DESCRIPTOR_DBase_D32 0044db20     DBase_D32:DBase_D32.dll
 0002:0000eb34       __IMPORT_DESCRIPTOR_MFC42D 0044db34     mfc42d:MFC42D.DLL
 0002:0000eb48       __IMPORT_DESCRIPTOR_MSVCRTD 0044db48     msvcrtd:MSVCRTD.dll
 0002:0000eb5c       __IMPORT_DESCRIPTOR_KERNEL32 0044db5c     kernel32:KERNEL32.dll
 0002:0000eb70       __IMPORT_DESCRIPTOR_USER32 0044db70     user32:USER32.dll
 0002:0000eb84       __IMPORT_DESCRIPTOR_GDI32  0044db84     gdi32:GDI32.dll
 0002:0000eb98       __IMPORT_DESCRIPTOR_MFCO42D 0044db98     mfco42d:MFCO42D.DLL
 0002:0000ebac       __NULL_IMPORT_DESCRIPTOR   0044dbac     winMM:WINMM.dll
 0003:00000000       ___xc_a                    00456000     msvcrtd:cinitexe.obj
 0003:00000030       ___xc_z                    00456030     msvcrtd:cinitexe.obj
 0003:00000034       ___xi_a                    00456034     msvcrtd:cinitexe.obj
 0003:00000038       ___xi_z                    00456038     msvcrtd:cinitexe.obj
 0003:00000070       ??_R0?AVCObject@@@8        00456070     12view.obj
 0003:00000088       ??_R0?AVCCmdTarget@@@8     00456088     12view.obj
 0003:000000a8       ??_R0?AVCWnd@@@8           004560a8     12view.obj
 0003:000000c0       ??_R0?AVCView@@@8          004560c0     12view.obj
 0003:000000d8       ??_R0?AVCScrollView@@@8    004560d8     12view.obj
 0003:000000f8       ??_R0?AVCDrawView@@@8      004560f8     12view.obj
 0003:00000110       ??_R0?AVC12View@@@8        00456110     12view.obj
 0003:00000128       ?__LINE__Var@?1??OnDraw@C12View@@UAEXPAVCDC@@@Z@4FA 00456128     12view.obj
 0003:00000130       ??_R0PAVCException@@@8     00456130     12view.obj
 0003:0000014c       ?__LINE__Var@?1??OnInsertObject@C12View@@IAEXXZ@4FA 0045614c     12view.obj
 0003:00000150       ?__LINE__Var@?1??OnCancelEditCntr@C12View@@IAEXXZ@4FA 00456150     12view.obj
 0003:00000154       ?__LINE__Var@?1??GetDocument@C12View@@QAEPAVCDrGrafDoc@@XZ@4FA 00456154     12view.obj
 0003:00000188       ??_R0?AVC23View@@@8        00456188     23view.obj
 0003:000001a0       ?__LINE__Var@?1??OnDraw@C23View@@UAEXPAVCDC@@@Z@4FA 004561a0     23view.obj
 0003:000001a4       ?__LINE__Var@?1??OnInsertObject@C23View@@IAEXXZ@4FA 004561a4     23view.obj
 0003:000001a8       ?__LINE__Var@?1??OnCancelEditCntr@C23View@@IAEXXZ@4FA 004561a8     23view.obj
 0003:000001ac       ?__LINE__Var@?1??GetDocument@C23View@@QAEPAVCDrGrafDoc@@XZ@4FA 004561ac     23view.obj
 0003:000001e0       ??_R0?AVC31View@@@8        004561e0     31view.obj
 0003:000001f8       ?__LINE__Var@?1??OnDraw@C31View@@UAEXPAVCDC@@@Z@4FA 004561f8     31view.obj
 0003:000001fc       ?__LINE__Var@?1??OnInsertObject@C31View@@IAEXXZ@4FA 004561fc     31view.obj
 0003:00000200       ?__LINE__Var@?1??OnCancelEditCntr@C31View@@IAEXXZ@4FA 00456200     31view.obj
 0003:00000204       ?__LINE__Var@?1??GetDocument@C31View@@QAEPAVCDrGrafDoc@@XZ@4FA 00456204     31view.obj
 0003:00000238       ??_R0?AVC3DView@@@8        00456238     3dview.obj
 0003:00000250       ?__LINE__Var@?1??OnDraw@C3DView@@UAEXPAVCDC@@@Z@4FA 00456250     3dview.obj
 0003:00000254       ?__LINE__Var@?1??OnInsertObject@C3DView@@IAEXXZ@4FA 00456254     3dview.obj
 0003:00000258       ?__LINE__Var@?1??OnCancelEditCntr@C3DView@@IAEXXZ@4FA 00456258     3dview.obj
 0003:0000025c       ?__LINE__Var@?1??GetDocument@C3DView@@QAEPAVCDrGrafDoc@@XZ@4FA 0045625c     3dview.obj
 0003:00000288       ??_R0?AVCDialog@@@8        00456288     Aboutbox.obj
 0003:000002a0       ??_R0?AVCAboutBox@@@8      004562a0     Aboutbox.obj
 0003:000002b8       ??_R0?AVCButton@@@8        004562b8     Aboutbox.obj
 0003:000002d0       ??_R0?AVCBigIcon@@@8       004562d0     Aboutbox.obj
 0003:000002e8       ?__LINE__Var@?1??DrawItem@CBigIcon@@MAEXPAUtagDRAWITEMSTRUCT@@@Z@4FA 004562e8     Aboutbox.obj
 0003:00000320       ?classCAppDlgMgr@CAppDlgMgr@@2UCRuntimeClass@@A 00456320     ADlgMgr.obj
 0003:00000338       ??_R0?AVCAppDlgMgr@@@8     00456338     ADlgMgr.obj
 0003:00000388       ??_R0?AVCRowView@@@8       00456388     AxDataVu.obj
 0003:000003a0       ??_R0?AVCAxDataVu@@@8      004563a0     AxDataVu.obj
 0003:000003e8       ??_R0?AVCAxDrawVu@@@8      004563e8     AxDrawVu.obj
 0003:00000400       ??_R0?AVCDVM_Genr@@@8      00456400     AxDrawVu.obj
 0003:00000418       ??_R0?AVCDVM_Edit@@@8      00456418     AxDrawVu.obj
 0003:00000430       ??_R0?AVCDVM_Del@@@8       00456430     AxDrawVu.obj
 0003:00000448       ?__LINE__Var@?1??ShowCountBox@CAxDrawVu@@IAEXPBDH@Z@4FA 00456448     AxDrawVu.obj
 0003:00000470       ?classCBanner@CBanner@@2UCRuntimeClass@@A 00456470     Banner.obj
 0003:00000488       ??_R0?AVCBanner@@@8        00456488     Banner.obj
 0003:000004a0       ?__LINE__Var@?1??LoadImageDIB@CBanner@@AAEXPAVCDC@@H@Z@4FA 004564a0     Banner.obj
 0003:000004a8       ??_R0PAVCFileException@@@8 004564a8     Banner.obj
 0003:000004c8       ?__LINE__Var@?1??LoadImageDIBfromFile@CBanner@@AAEHPAVCMDIB@@PAD@Z@4FA 004564c8     Banner.obj
 0003:000004cc       ?__LINE__Var@?1??Init@CBanner@@QAEXH@Z@4FA 004564cc     Banner.obj
 0003:000004d0       ??_R0?AVCMDIB@@@8          004564d0     Banner.obj
 0003:00000528       ??_R0?AVCClock@@@8         00456528     Clock.obj
 0003:00000570       ?classCDrGrafCntrItem@CDrGrafCntrItem@@2UCRuntimeClass@@A 00456570     Cntritem.obj
 0003:00000588       ??_R0?AVCDocItem@@@8       00456588     Cntritem.obj
 0003:000005a0       ??_R0?AVCOleClientItem@@@8 004565a0     Cntritem.obj
 0003:000005c0       ??_R0?AVCDrGrafCntrItem@@@8 004565c0     Cntritem.obj
 0003:000005e0       ?__LINE__Var@?1??OnChange@CDrGrafCntrItem@@UAEXW4OLE_NOTIFICATION@@K@Z@4FA 004565e0     Cntritem.obj
 0003:000005e4       ?__LINE__Var@?1??OnChangeItemPosition@CDrGrafCntrItem@@MAEHABVCRect@@@Z@4FA 004565e4     Cntritem.obj
 0003:000005e8       ?__LINE__Var@?1??OnGetItemPosition@CDrGrafCntrItem@@MAEXAAVCRect@@@Z@4FA 004565e8     Cntritem.obj
 0003:000005ec       ?__LINE__Var@?1??OnActivate@CDrGrafCntrItem@@UAEXXZ@4FA 004565ec     Cntritem.obj
 0003:000005f0       ?__LINE__Var@?1??Serialize@CDrGrafCntrItem@@UAEXAAVCArchive@@@Z@4FA 004565f0     Cntritem.obj
 0003:000005f4       ?__LINE__Var@?1??CanActivate@CDrGrafCntrItem@@MAEHXZ@4FA 004565f4     Cntritem.obj
 0003:00000628       ??_R0?AVCDataView@@@8      00456628     Dataview.obj
 0003:00000670       ??_R0?AVCDeckView@@@8      00456670     DeckView.obj
 0003:00000688       ?__LINE__Var@?1??GetDocument@CDeckView@@QAEPAVCDrGrafDoc@@XZ@4FA 00456688     DeckView.obj
 0003:000006b0       ??_R0?AVCDlg_CTim@@@8      004566b0     Dlg_CTim.obj
 0003:000006f0       ??_R0?AVCDlg_NoELem@@@8    004566f0     Dlg_NoEL.obj
 0003:00000730       ??_R0?AVCDlg_NoLabELem@@@8 00456730     Dlg_NoLE.obj
 0003:00000778       ??_R0?AVCDlg_Shrink@@@8    00456778     Dlg_Shrink.obj
 0003:000007c8       ??_R0?AVCViewInfo@@@8      004567c8     Drawview.obj
 0003:000007e0       ?__LINE__Var@?1???0CDrawView@@IAE@XZ@4FA 004567e0     Drawview.obj
 0003:000007e8       ??_R0?AVCDVM_CreO@@@8      004567e8     Drawview.obj
 0003:00000800       ??_R0?AVCDVM_Post@@@8      00456800     Drawview.obj
 0003:00000818       ??_R0?AVCDVM_CreM@@@8      00456818     Drawview.obj
 0003:00000830       ??_R0?AVCDVM_Mdit@@@8      00456830     Drawview.obj
 0003:00000848       ?__LINE__Var@?1??ShowCurrentOptions@CDrawView@@IAEXPAVCDC@@@Z@4FA 00456848     Drawview.obj
 0003:0000084c       ?__LINE__Var@?1??ShowCountBox@CDrawView@@IAEXPBDH@Z@4FA 0045684c     Drawview.obj
 0003:00000880       ?m_nDefCmdShow@CDrGrafChildFrame@@2HA 00456880     Drgracfm.obj
 0003:00000884       ?m_nDefCmdShowOld@CDrGrafChildFrame@@2HA 00456884     Drgracfm.obj
 0003:000008a0       ??_R0?AVCFrameWnd@@@8      004568a0     Drgracfm.obj
 0003:000008b8       ??_R0?AVCMDIChildWnd@@@8   004568b8     Drgracfm.obj
 0003:000008d8       ??_R0?AVCDrGrafChildFrame@@@8 004568d8     Drgracfm.obj
 0003:00000928       ?_dispatchEntryCount@CDrGrafDoc@@0IA 00456928     Drgradoc.obj
 0003:0000092c       ?_dwStockPropMask@CDrGrafDoc@@0KA 0045692c     Drgradoc.obj
 0003:00000930       ??_R0?AVCDocument@@@8      00456930     Drgradoc.obj
 0003:00000948       ??_R0?AVCOleDocument@@@8   00456948     Drgradoc.obj
 0003:00000968       ??_R0?AVCOleLinkingDoc@@@8 00456968     Drgradoc.obj
 0003:00000988       ??_R0?AVCOleServerDoc@@@8  00456988     Drgradoc.obj
 0003:000009a8       ??_R0?AVCDrGrafDoc@@@8     004569a8     Drgradoc.obj
 0003:000009c4       ?__LINE__Var@?1??OnGetEmbeddedItem@CDrGrafDoc@@MAEPAVCOleServerItem@@XZ@4FA 004569c4     Drgradoc.obj
 0003:000009d8       ?DbTypes@@3PAUdbtypes@@A   004569d8     Drgraf.obj
 0003:00000ae8       ?nMax_DBoxTypes@@3HA       00456ae8     Drgraf.obj
 0003:00000af0       ?ElTypes@@3PAUeltypes@@A   00456af0     Drgraf.obj
 0003:00000e20       ?nMax_ElemTypes@@3HA       00456e20     Drgraf.obj
 0003:00000e28       ?CuTypes@@3PAUcutypes@@A   00456e28     Drgraf.obj
 0003:00000fa4       ?nMax_CurveTypes@@3HA      00456fa4     Drgraf.obj
 0003:00000fa8       ?PaTypes@@3PAUpatypes@@A   00456fa8     Drgraf.obj
 0003:00001110       ?nMax_PatchTypes@@3HA      00457110     Drgraf.obj
 0003:00001118       ?SoTypes@@3PAUsotypes@@A   00457118     Drgraf.obj
 0003:00001280       ?nMax_SolidTypes@@3HA      00457280     Drgraf.obj
 0003:00001288       ?SuTypes@@3PAUsutypes@@A   00457288     Drgraf.obj
 0003:00001540       ?nMax_SuppTypes@@3HA       00457540     Drgraf.obj
 0003:00001548       ?StaLTypes@@3PAUstaLtypes@@A 00457548     Drgraf.obj
 0003:000015b4       ?nMax_StaLTypes@@3HA       004575b4     Drgraf.obj
 0003:00001600       ??_R0?AVCWinThread@@@8     00457600     Drgraf.obj
 0003:00001620       ??_R0?AVCWinApp@@@8        00457620     Drgraf.obj
 0003:00001638       ??_R0?AVCDrGrafApp@@@8     00457638     Drgraf.obj
 0003:00001658       ??_R0?AVCSplashWnd@@@8     00457658     Drgraf.obj
 0003:00001674       ?__LINE__Var@?1??SetDocument@CDrGrafApp@@QAEXXZ@4FA 00457674     Drgraf.obj
 0003:00001738       ??_R0?AVCMDIFrameWnd@@@8   00457738     Drgrafrm.obj
 0003:00001758       ??_R0?AVCDrGrafFrame@@@8   00457758     Drgrafrm.obj
 0003:00001778       ??_R0?AVCControlBar@@@8    00457778     Drgrafrm.obj
 0003:00001798       ??_R0?AVCStatusBar@@@8     00457798     Drgrafrm.obj
 0003:000017b8       ??_R0?AVCTopStatusBar@@@8  004577b8     Drgrafrm.obj
 0003:000017d8       ??_R0?AVCBotStatusBar@@@8  004577d8     Drgrafrm.obj
 0003:000017f4       ?__LINE__Var@?1??CreateOrActivateFrame@CDrGrafFrame@@QAEXPAVCDocTemplate@@PAUCRuntimeClass@@@Z@4FA 004577f4     Drgrafrm.obj
 0003:000017f8       ?__LINE__Var@?1??CloseView@CDrGrafFrame@@QAEXPAUCRuntimeClass@@@Z@4FA 004577f8     Drgrafrm.obj
 0003:000017fc       ?__LINE__Var@?1??GetViewPointer@CDrGrafFrame@@QAEPAVCView@@PAUCRuntimeClass@@@Z@4FA 004577fc     Drgrafrm.obj
 0003:00001800       ?__LINE__Var@?1??OnWindowNew3dView@CDrGrafFrame@@IAEXXZ@4FA 00457800     Drgrafrm.obj
 0003:00001830       ??_R0?AVCDrSplitFrm@@@8    00457830     DrSplit.obj
 0003:00001850       ??_R0?AVCSplitterWnd@@@8   00457850     DrSplit.obj
 0003:00001870       ??_R0?AVCDrSplitWnd@@@8    00457870     DrSplit.obj
 0003:0000188c       ?__LINE__Var@?1??GetActivePane@CDrSplitWnd@@UAEPAVCWnd@@PAH0@Z@4FA 0045788c     DrSplit.obj
 0003:00001a58       ??_R0?AVCHsDataVu@@@8      00457a58     HsDataVu.obj
 0003:00001aa0       ??_R0?AVCHsDrawVu@@@8      00457aa0     HsDrawVu.obj
 0003:00001ab8       ?__LINE__Var@?1??OnDraw@CHsDrawVu@@UAEXPAVCDC@@@Z@4FA 00457ab8     HsDrawVu.obj
 0003:00001abc       ?__LINE__Var@?1??OnInsertObject@CHsDrawVu@@IAEXXZ@4FA 00457abc     HsDrawVu.obj
 0003:00001ac0       ?__LINE__Var@?1??OnCancelEditCntr@CHsDrawVu@@IAEXXZ@4FA 00457ac0     HsDrawVu.obj
 0003:00001ac4       ?__LINE__Var@?1??GetDocument@CHsDrawVu@@QAEPAVCDrGrafDoc@@XZ@4FA 00457ac4     HsDrawVu.obj
 0003:00001af8       ??_R0?AVCMsDataVu@@@8      00457af8     MsDataVu.obj
 0003:00001b10       ?__LINE__Var@?1???0GLOBAL_DATA@@QAE@XZ@4FA 00457b10     Oldglob.obj
 0003:00001b14       ?__LINE__Var@?1??UpdateSysColors@GLOBAL_DATA@@QAEXXZ@4FA 00457b14     Oldglob.obj
 0003:00001b18       ?__LINE__Var@?1??UpdateSysMetrics@GLOBAL_DATA@@QAEXXZ@4FA 00457b18     Oldglob.obj
 0003:00001b40       ??_R0?AVCOldStatusBar@@@8  00457b40     Oldstat.obj
 0003:00001b5c       ?__LINE__Var@?1???1COldStatusBar@@UAE@XZ@4FA 00457b5c     Oldstat.obj
 0003:00001b60       ?__LINE__Var@?1??Create@COldStatusBar@@QAEHPAVCWnd@@KI@Z@4FA 00457b60     Oldstat.obj
 0003:00001b64       ?__LINE__Var@?1??SetIndicators@COldStatusBar@@QAEHPBIH@Z@4FA 00457b64     Oldstat.obj
 0003:00001b68       ?__LINE__Var@?1??_GetPanePtr@COldStatusBar@@IBEPAUAFX_STATUSPANE@@H@Z@4FA 00457b68     Oldstat.obj
 0003:00001b6c       ?__LINE__Var@?1??CommandToIndex@COldStatusBar@@QBEHI@Z@4FA 00457b6c     Oldstat.obj
 0003:00001b70       ?__LINE__Var@?1??GetItemID@COldStatusBar@@QBEIH@Z@4FA 00457b70     Oldstat.obj
 0003:00001b74       ?__LINE__Var@?1??GetItemRect@COldStatusBar@@QBEXHPAUtagRECT@@@Z@4FA 00457b74     Oldstat.obj
 0003:00001b78       ?__LINE__Var@?1??GetPaneInfo@COldStatusBar@@QBEXHAAI0AAH@Z@4FA 00457b78     Oldstat.obj
 0003:00001b7c       ?__LINE__Var@?1??SetPaneInfo@COldStatusBar@@QAEXHIIH@Z@4FA 00457b7c     Oldstat.obj
 0003:00001b80       ?__LINE__Var@?1??GetPaneText@COldStatusBar@@QBEXHAAVCString@@@Z@4FA 00457b80     Oldstat.obj
 0003:00001b84       ?__LINE__Var@?1??SetPaneText@COldStatusBar@@QAEHHPBDH@Z@4FA 00457b84     Oldstat.obj
 0003:00001b88       ?__LINE__Var@?1??CalcFixedLayout@COldStatusBar@@UAE?AVCSize@@HH@Z@4FA 00457b88     Oldstat.obj
 0003:00001b8c       ?__LINE__Var@?1??DoPaint@COldStatusBar@@MAEXPAVCDC@@@Z@4FA 00457b8c     Oldstat.obj
 0003:00001b90       ?__LINE__Var@?1??DrawStatusText@COldStatusBar@@IAEXPAVCDC@@ABVCRect@@PBDI@Z@4FA 00457b90     Oldstat.obj
 0003:00001b94       ?__LINE__Var@?1??OnSetFont@COldStatusBar@@IAEJIJ@Z@4FA 00457b94     Oldstat.obj
 0003:00001b98       ?__LINE__Var@?1??Enable@COldStatusCmdUI@@UAEXH@Z@4FA 00457b98     Oldstat.obj
 0003:00001b9c       ?__LINE__Var@?1??SetCheck@COldStatusCmdUI@@UAEXH@Z@4FA 00457b9c     Oldstat.obj
 0003:00001ba0       ?__LINE__Var@?1??SetText@COldStatusCmdUI@@UAEXPBD@Z@4FA 00457ba0     Oldstat.obj
 0003:00001ba8       ??_R0?AVCCmdUI@@@8         00457ba8     Oldstat.obj
 0003:00001bc0       ??_R0?AVCOldStatusCmdUI@@@8 00457bc0     Oldstat.obj
 0003:00001c00       ?__LINE__Var@?1??DrawButton@COldToolBar@@IAEHPAVCDC@@HHHI@Z@4FA 00457c00     OldTool.obj
 0003:00001c04       ?__LINE__Var@?1??PrepareDrawButton@COldToolBar@@IAEHAAUDrawState@2@@Z@4FA 00457c04     OldTool.obj
 0003:00001c08       ??_R0?AVCOldToolBar@@@8    00457c08     OldTool.obj
 0003:00001c24       ?__LINE__Var@?1???0COldToolBar@@QAE@XZ@4FA 00457c24     OldTool.obj
 0003:00001c28       ?__LINE__Var@?1??Create@COldToolBar@@QAEHPAVCWnd@@KI@Z@4FA 00457c28     OldTool.obj
 0003:00001c2c       ?__LINE__Var@?1??SetSizes@COldToolBar@@QAEXUtagSIZE@@0@Z@4FA 00457c2c     OldTool.obj
 0003:00001c30       ?__LINE__Var@?1??SetHeight@COldToolBar@@QAEXH@Z@4FA 00457c30     OldTool.obj
 0003:00001c34       ?__LINE__Var@?1??LoadBitmapA@COldToolBar@@QAEHPBD@Z@4FA 00457c34     OldTool.obj
 0003:00001c38       ?__LINE__Var@?1??SetButtons@COldToolBar@@QAEHPBIH@Z@4FA 00457c38     OldTool.obj
 0003:00001c3c       ?__LINE__Var@?1??CommandToIndex@COldToolBar@@QBEHI@Z@4FA 00457c3c     OldTool.obj
 0003:00001c40       ?__LINE__Var@?1??_GetButtonPtr@COldToolBar@@IBEPAUAFX_TBBUTTON@@H@Z@4FA 00457c40     OldTool.obj
 0003:00001c44       ?__LINE__Var@?1??GetItemID@COldToolBar@@QBEIH@Z@4FA 00457c44     OldTool.obj
 0003:00001c48       ?__LINE__Var@?1??GetItemRect@COldToolBar@@UBEXHPAUtagRECT@@@Z@4FA 00457c48     OldTool.obj
 0003:00001c4c       ?__LINE__Var@?1??CalcFixedLayout@COldToolBar@@UAE?AVCSize@@HH@Z@4FA 00457c4c     OldTool.obj
 0003:00001c50       ?__LINE__Var@?1??GetButtonInfo@COldToolBar@@QBEXHAAI0AAH@Z@4FA 00457c50     OldTool.obj
 0003:00001c54       ?__LINE__Var@?1??SetButtonInfo@COldToolBar@@QAEXHIIH@Z@4FA 00457c54     OldTool.obj
 0003:00001c58       ?__LINE__Var@?1??DoPaint@COldToolBar@@MAEXPAVCDC@@@Z@4FA 00457c58     OldTool.obj
 0003:00001c5c       ?__LINE__Var@?1??InvalidateButton@COldToolBar@@IAEXH@Z@4FA 00457c5c     OldTool.obj
 0003:00001c60       ?__LINE__Var@?1??OnToolHitTest@COldToolBar@@MBEHVCPoint@@PAUtagTOOLINFOA@@@Z@4FA 00457c60     OldTool.obj
 0003:00001c64       ?__LINE__Var@?1??HitTest@COldToolBar@@MAEHVCPoint@@@Z@4FA 00457c64     OldTool.obj
 0003:00001c68       ?__LINE__Var@?1??OnLButtonDown@COldToolBar@@IAEXIVCPoint@@@Z@4FA 00457c68     OldTool.obj
 0003:00001c6c       ?__LINE__Var@?1??OnMouseMove@COldToolBar@@IAEXIVCPoint@@@Z@4FA 00457c6c     OldTool.obj
 0003:00001c70       ?__LINE__Var@?1??OnLButtonUp@COldToolBar@@IAEXIVCPoint@@@Z@4FA 00457c70     OldTool.obj
 0003:00001c74       ?__LINE__Var@?1??OnCancelMode@COldToolBar@@IAEXXZ@4FA 00457c74     OldTool.obj
 0003:00001c78       ?__LINE__Var@?1??Enable@COldToolCmdUI@@UAEXH@Z@4FA 00457c78     OldTool.obj
 0003:00001c7c       ?__LINE__Var@?1??SetCheck@COldToolCmdUI@@UAEXH@Z@4FA 00457c7c     OldTool.obj
 0003:00001c80       ??_R0?AVCOldToolCmdUI@@@8  00457c80     OldTool.obj
 0003:00001cc8       ??_R0?AVCProbElemDim@@@8   00457cc8     ProbElemDim.obj
 0003:00001d40       ??_R0?AVCSpDataVu@@@8      00457d40     SpDataVu.obj
 0003:00001d88       ??_R0?AVCSpDrawVu@@@8      00457d88     SpDrawVu.obj
 0003:00001da0       ?__LINE__Var@?1??OnDraw@CSpDrawVu@@UAEXPAVCDC@@@Z@4FA 00457da0     SpDrawVu.obj
 0003:00001da4       ?__LINE__Var@?1??OnInsertObject@CSpDrawVu@@IAEXXZ@4FA 00457da4     SpDrawVu.obj
 0003:00001da8       ?__LINE__Var@?1??OnCancelEditCntr@CSpDrawVu@@IAEXXZ@4FA 00457da8     SpDrawVu.obj
 0003:00001dac       ?__LINE__Var@?1??GetDocument@CSpDrawVu@@QAEPAVCDrGrafDoc@@XZ@4FA 00457dac     SpDrawVu.obj
 0003:00001dd0       ??_R0?AVCSplashCom@@@8     00457dd0     Splash.obj
 0003:00001dec       ?__LINE__Var@?1???1CSplashCom@@UAE@XZ@4FA 00457dec     Splash.obj
 0003:00001df0       ?__LINE__Var@?1??ShowSplashScreen@CSplashCom@@SAXPAVCWnd@@@Z@4FA@f87fe778 00457df0     Splash.obj
 0003:00001e28       ??_R0?AVCOleServerItem@@@8 00457e28     SrvrItem.obj
 0003:00001e48       ??_R0?AVCDrGrafSrvrItem@@@8 00457e48     SrvrItem.obj
 0003:00001e68       ?__LINE__Var@?1??Serialize@CDrGrafSrvrItem@@MAEXAAVCArchive@@@Z@4FA 00457e68     SrvrItem.obj
 0003:00001e6c       ?__LINE__Var@?1??OnGetExtent@CDrGrafSrvrItem@@UAEHW4tagDVASPECT@@AAVCSize@@@Z@4FA 00457e6c     SrvrItem.obj
 0003:00001e70       ?__LINE__Var@?1??OnDraw@CDrGrafSrvrItem@@UAEHPAVCDC@@AAVCSize@@@Z@4FA 00457e70     SrvrItem.obj
 0003:00001ea8       ??_R0?AVCStatCntl@@@8      00457ea8     StatCntl.obj
 0003:00001ec0       ?__LINE__Var@?1??Create@CStatCntl@@QAEHPAVCWnd@@VCRect@@I@Z@4FA 00457ec0     StatCntl.obj
 0003:00001ef8       ?GUID_ATLVer30@ATL@@3U_GUID@@A 00457ef8     mfcs42d:stdafx.obj
 0003:00001f10       ??_R0?AVtype_info@@@8      00457f10     msvcrtd:ti_inst.obj
 0003:00001f30       ___defaultmatherr          00457f30     msvcrtd:merr.obj
 0003:00001f48       ?_init_CAppDlgMgr@@3UAFX_CLASSINIT@@A 00457f48     ADlgMgr.obj
 0003:00001f4c       ?_init_CBanner@@3UAFX_CLASSINIT@@A 00457f4c     Banner.obj
 0003:00001f50       ?sDate@@3VCString@@A       00457f50     Clock.obj
 0003:00001f54       ?sTime@@3VCString@@A       00457f54     Clock.obj
 0003:00001f58       ?iDate@@3HA                00457f58     Clock.obj
 0003:00001f5c       ?sAMPM@@3PAVCString@@A     00457f5c     Clock.obj
 0003:00001f64       ?iTime@@3HA                00457f64     Clock.obj
 0003:00001f68       ?_init_CDrGrafCntrItem@@3UAFX_CLASSINIT@@A 00457f68     Cntritem.obj
 0003:00001f70       ?theApp@@3VCDrGrafApp@@A   00457f70     Drgraf.obj
 0003:00002228       ?globalData@@3UGLOBAL_DATA@@A 00458228     Oldglob.obj
 0003:000022bc       ?c_pSplashWnd@CSplashCom@@1PAV1@A 004582bc     Splash.obj
 0003:000022c0       ?c_bShowSplashWnd@CSplashCom@@1HA 004582c0     Splash.obj
 0003:000022c4       __afxForceEXCLUDE          004582c4     mfcs42d:nolib.obj
 0003:000022c8       ?ATL_CREATE_OBJECT@CComApartment@ATL@@2IA 004582c8     mfcs42d:stdafx.obj
 0003:000022d0       ?m_libid@CComModule@ATL@@2U_GUID@@A 004582d0     mfcs42d:stdafx.obj
 0003:000022e0       ?_pModule@ATL@@3PAVCComModule@1@A 004582e0     mfcs42d:stdafx.obj
 0003:000022e4       __afxForceSTDAFX           004582e4     mfcs42d:stdafx.obj
 0003:000022e8       __dowildcard               004582e8     msvcrtd:wildcard.obj
 0003:000022ec       __newmode                  004582ec     msvcrtd:_newmode.obj
 0003:000022f0       __commode                  004582f0     msvcrtd:xncommod.obj
 0003:000022f4       __fmode                    004582f4     msvcrtd:xtxtmode.obj
 0003:000022f8       ?_afxInitAppState@@3DA     004582f8     mfcs42d:appmodul.obj
 0003:000022fc       __adjust_fdiv              004582fc     <common>
 0003:00002300       ___onexitend               00458300     <common>
 0003:00002304       ___onexitbegin             00458304     <common>

 entry point at        0001:00035da0

 Static symbols

 0001:00030860       _$E277                     00431860 f   ProbElemDim.obj
 0001:00030880       _$E274                     00431880 f   ProbElemDim.obj
 0001:000308c0       _$E276                     004318c0 f   ProbElemDim.obj
 0001:000308e0       _$E275                     004318e0 f   ProbElemDim.obj
 0001:00030910       _$E282                     00431910 f   ProbElemDim.obj
 0001:00030930       _$E279                     00431930 f   ProbElemDim.obj
 0001:00030970       _$E281                     00431970 f   ProbElemDim.obj
 0001:00030990       _$E280                     00431990 f   ProbElemDim.obj
 0001:0003a600       _$E267                     0043b600 f   OldTool.obj
 0001:0003a620       _$E264                     0043b620 f   OldTool.obj
 0001:0003a630       _$E266                     0043b630 f   OldTool.obj
 0001:0003a650       _$E265                     0043b650 f   OldTool.obj
 0001:000385c0       ?CreateDitherBitmap@@YGPAUHBITMAP__@@XZ 004395c0 f   OldTool.obj
 0001:00030220       _$E264                     00431220 f   Oldglob.obj
 0001:00030240       _$E261                     00431240 f   Oldglob.obj
 0001:00030260       _$E263                     00431260 f   Oldglob.obj
 0001:00030280       _$E262                     00431280 f   Oldglob.obj
 0001:00024b40       _$E684                     00425b40 f   Drstatus.obj
 0001:00024b60       _$E681                     00425b60 f   Drstatus.obj
 0001:00024bd0       _$E683                     00425bd0 f   Drstatus.obj
 0001:00024bf0       _$E682                     00425bf0 f   Drstatus.obj
 0001:0001e7e0       ?ReadWindowPlacement@@YGHPAUtagWINDOWPLACEMENT@@@Z 0041f7e0 f   Drgrafrm.obj
 0001:0001ea20       ?WriteWindowPlacement@@YGXPAUtagWINDOWPLACEMENT@@@Z 0041fa20 f   Drgrafrm.obj
 0001:000190f0       _$E759                     0041a0f0 f   Drgraf.obj
 0001:00019110       _$E756                     0041a110 f   Drgraf.obj
 0001:00019130       _$E758                     0041a130 f   Drgraf.obj
 0001:00019150       _$E757                     0041a150 f   Drgraf.obj
 0001:0000a3f0       _$E325                     0040b3f0 f   Cntritem.obj
 0001:0000a410       _$E324                     0040b410 f   Cntritem.obj
 0001:00009ea0       _$E265                     0040aea0 f   Clock.obj
 0001:00009ec0       _$E262                     0040aec0 f   Clock.obj
 0001:00009f00       _$E264                     0040af00 f   Clock.obj
 0001:00009f20       _$E263                     0040af20 f   Clock.obj
 0001:00008d80       _$E265                     00409d80 f   Banner.obj
 0001:00008da0       _$E264                     00409da0 f   Banner.obj
 0001:000043f0       _$E642                     004053f0 f   ADlgMgr.obj
 0001:00004410       _$E641                     00405410 f   ADlgMgr.obj
 0001:00036560       _$E373                     00437560 f   mfcs42d:appmodul.obj
 0001:00036570       _$E372                     00437570 f   mfcs42d:appmodul.obj
 0001:00035d40       _$$$00001                  00436d40 f   msvcrtd:chkstk.obj
 0001:00035d4c       probepages                 00436d4c f   msvcrtd:chkstk.obj
 0001:00035d60       lastpage                   00436d60 f   msvcrtd:chkstk.obj
 0001:00035d00       ?ArrayUnwindFilter@@YAHPAU_EXCEPTION_POINTERS@@@Z 00436d00 f   msvcrtd:ehvecdtr.obj
