 MCur_D32

 Timestamp is 403563e1 (Thu Feb 19 17:33:21 2004)

 Preferred load address is 10000000

 Start         Length     Name                   Class
 0001:00000000 0003c758H .text                   CODE
 0001:0003c760 00000019H .text$AFX_COL1          CODE
 0001:0003c780 00002724H .text$x                 CODE
 0002:00000000 000006acH .idata$5                DATA
 0002:000006b0 00004f0dH .rdata                  DATA
 0002:000055c0 000029d8H .xdata$x                DATA
 0002:00007f98 000000b4H .idata$2                DATA
 0002:0000804c 00000014H .idata$3                DATA
 0002:00008060 000006acH .idata$4                DATA
 0002:0000870c 00002cb8H .idata$6                DATA
 0002:0000b3d0 0000fb1bH .edata                  DATA
 0003:00000000 00000004H .CRT$XCA                DATA
 0003:00000004 00000040H .CRT$XCU                DATA
 0003:00000044 00000004H .CRT$XCZ                DATA
 0003:00000048 00000004H .CRT$XIA                DATA
 0003:0000004c 00000004H .CRT$XIZ                DATA
 0003:00000050 00000820H .data                   DATA
 0003:00000870 000000b0H .bss                    DATA
 0004:00000000 000006dcH .rsrc$01                DATA
 0004:000006e0 000067c0H .rsrc$02                DATA

  Address         Publics by Value              Rva+Base     Lib:Object

 0001:00000000       ?Set3DPts@C3DMath@@QAEXPAULPOINT3@@JJJ@Z 10001000 f i Dlg_CClk.obj
 0001:00000030       ?Set3DPts@C3DMath@@QAEXPAUWORLD@@NNN@Z 10001030 f i Dlg_CClk.obj
 0001:00000080       ?Len3DPts@C3DMath@@QAENPAUWORLD@@@Z 10001080 f i Dlg_CClk.obj
 0001:000000d0       ??1C3DMath@@UAE@XZ         100010d0 f i Dlg_CClk.obj
 0001:00000100       ??_GC3DMath@@UAEPAXI@Z     10001100 f i Dlg_CClk.obj
 0001:00000140       ??_EC3DMath@@UAEPAXI@Z     10001140 f i Dlg_CClk.obj
 0001:000001c0       ?GetMatrix@CMatObj@@UAEPAUMATRIX@@XZ 100011c0 f i Dlg_CClk.obj
 0001:000001e0       ?SetMatrix@CMatObj@@UAEXPAUMATRIX@@@Z 100011e0 f i Dlg_CClk.obj
 0001:00000250       ?GetCurveLatch@CMatObj@@UAE?AW4CURVELATCH@@XZ 10001250 f i Dlg_CClk.obj
 0001:00000270       ?SetCurveLatch@CMatObj@@UAEXW4CURVELATCH@@@Z 10001270 f i Dlg_CClk.obj
 0001:00000290       ?IsInstanced_Prof@CMatObj@@UAEHXZ 10001290 f i Dlg_CClk.obj
 0001:000002b0       ?SetInstanced_Prof@CMatObj@@UAEXH@Z 100012b0 f i Dlg_CClk.obj
 0001:000002d0       ?GetFromID@CMatObj@@UAE?AVCString@@XZ 100012d0 f i Dlg_CClk.obj
 0001:00000310       ?SetFromID@CMatObj@@UAEXVCString@@@Z 10001310 f i Dlg_CClk.obj
 0001:00000370       ?GetFromPt@CMatObj@@UAE?AUWORLD@@XZ 10001370 f i Dlg_CClk.obj
 0001:000003a0       ?SetFromPt@CMatObj@@UAEXUWORLD@@@Z 100013a0 f i Dlg_CClk.obj
 0001:000003d0       ?GetToID@CMatObj@@UAE?AVCString@@XZ 100013d0 f i Dlg_CClk.obj
 0001:00000410       ?SetToID@CMatObj@@UAEXVCString@@@Z 10001410 f i Dlg_CClk.obj
 0001:00000470       ?GetToPt@CMatObj@@UAE?AUWORLD@@XZ 10001470 f i Dlg_CClk.obj
 0001:000004a0       ?SetToPt@CMatObj@@UAEXUWORLD@@@Z 100014a0 f i Dlg_CClk.obj
 0001:000004d0       ?GetRotPtID@CMatObj@@UAE?AVCString@@XZ 100014d0 f i Dlg_CClk.obj
 0001:00000510       ?SetRotPtID@CMatObj@@UAEXVCString@@@Z 10001510 f i Dlg_CClk.obj
 0001:00000570       ?GetRotPt@CMatObj@@UAE?AUWORLD@@XZ 10001570 f i Dlg_CClk.obj
 0001:000005a0       ?SetRotPt@CMatObj@@UAEXUWORLD@@@Z 100015a0 f i Dlg_CClk.obj
 0001:000005d0       ?IsCoordIn@CMatObj@@UAEHXZ 100015d0 f i Dlg_CClk.obj
 0001:000005f0       ?SetCoordIn@CMatObj@@UAEXH@Z 100015f0 f i Dlg_CClk.obj
 0001:00000620       ?GetTranPtID@CMatObj@@UAE?AVCString@@XZ 10001620 f i Dlg_CClk.obj
 0001:00000660       ?SetTranPtID@CMatObj@@UAEXVCString@@@Z 10001660 f i Dlg_CClk.obj
 0001:000006c0       ?GetTranslation@CMatObj@@UAE?AUWORLD@@XZ 100016c0 f i Dlg_CClk.obj
 0001:000006f0       ?SetTranslation@CMatObj@@UAEXUWORLD@@@Z 100016f0 f i Dlg_CClk.obj
 0001:00000720       ?IsAngleIn@CMatObj@@UAEHXZ 10001720 f i Dlg_CClk.obj
 0001:00000740       ?SetAngleIn@CMatObj@@UAEXH@Z 10001740 f i Dlg_CClk.obj
 0001:00000770       ?IsDirCos@CMatObj@@UAEHXZ  10001770 f i Dlg_CClk.obj
 0001:00000790       ?SetDirCos@CMatObj@@UAEXH@Z 10001790 f i Dlg_CClk.obj
 0001:000007c0       ?GetDirCosDirect@CMatObj@@UAE?AUWORLD@@XZ 100017c0 f i Dlg_CClk.obj
 0001:000007f0       ?SetDirCosDirect@CMatObj@@UAEXUWORLD@@@Z 100017f0 f i Dlg_CClk.obj
 0001:00000820       ?GetRotation@CMatObj@@UAE?AUWORLD@@XZ 10001820 f i Dlg_CClk.obj
 0001:00000850       ?SetRotation@CMatObj@@UAEXUWORLD@@@Z 10001850 f i Dlg_CClk.obj
 0001:00000880       ?GetScale@CMatObj@@UAE?AUWORLD@@XZ 10001880 f i Dlg_CClk.obj
 0001:000008b0       ?SetScale@CMatObj@@UAEXUWORLD@@@Z 100018b0 f i Dlg_CClk.obj
 0001:000008e0       ?GetShear@CMatObj@@UAE?AUWORLD@@XZ 100018e0 f i Dlg_CClk.obj
 0001:00000910       ?SetShear@CMatObj@@UAEXUWORLD@@@Z 10001910 f i Dlg_CClk.obj
 0001:00000940       ?IsNoRot@CMatObj@@UAEHXZ   10001940 f i Dlg_CClk.obj
 0001:00000960       ?SetNoRot@CMatObj@@UAEXH@Z 10001960 f i Dlg_CClk.obj
 0001:00000990       ?IsNoTran@CMatObj@@UAEHXZ  10001990 f i Dlg_CClk.obj
 0001:000009b0       ?SetNoTran@CMatObj@@UAEXH@Z 100019b0 f i Dlg_CClk.obj
 0001:000009e0       ?IsNoScale@CMatObj@@UAEHXZ 100019e0 f i Dlg_CClk.obj
 0001:00000a00       ?SetNoScale@CMatObj@@UAEXH@Z 10001a00 f i Dlg_CClk.obj
 0001:00000a30       ?IsNoShear@CMatObj@@UAEHXZ 10001a30 f i Dlg_CClk.obj
 0001:00000a50       ?SetNoShear@CMatObj@@UAEXH@Z 10001a50 f i Dlg_CClk.obj
 0001:00000a80       ?GetXformType@CMatObj@@UAE?AW4XFORMTYPE@@XZ 10001a80 f i Dlg_CClk.obj
 0001:00000aa0       ?SetXformType@CMatObj@@UAEXW4XFORMTYPE@@@Z 10001aa0 f i Dlg_CClk.obj
 0001:00000ad0       ?GetSpawnType@CMatObj@@UAE?AW4SPAWNTYPE@@XZ 10001ad0 f i Dlg_CClk.obj
 0001:00000af0       ?SetSpawnType@CMatObj@@UAEXW4SPAWNTYPE@@@Z 10001af0 f i Dlg_CClk.obj
 0001:00000b20       ?GetCreOp@CMatObj@@UAEIXZ  10001b20 f i Dlg_CClk.obj
 0001:00000b40       ?SetCreOp@CMatObj@@UAEXI@Z 10001b40 f i Dlg_CClk.obj
 0001:00000b70       ??1CMatObj@@UAE@XZ         10001b70 f i Dlg_CClk.obj
 0001:00000c10       ??_GCMatObj@@UAEPAXI@Z     10001c10 f i Dlg_CClk.obj
 0001:00000c50       ??_ECMatObj@@UAEPAXI@Z     10001c50 f i Dlg_CClk.obj
 0001:00000cd0       ?ReadyToDelete@CDrObject@@UAEXXZ 10001cd0 f i Dlg_CClk.obj
 0001:00000cf0       ?DoFormattedCardView@CDrObject@@UAEXPAVCString@@AAV2@@Z 10001cf0 f i Dlg_CClk.obj
 0001:00000d10       ?DoUnFormattedCardView@CDrObject@@UAEXPAVCString@@@Z 10001d10 f i Dlg_CClk.obj
 0001:00000d30       ?DoDataView@CDrObject@@UAEXPAVCDC@@H@Z 10001d30 f i Dlg_CClk.obj
 0001:00000d50       ?InitDraw@CDrObject@@UAEXPAVCDC@@HHPAUMATRIX@@1NNN@Z 10001d50 f i Dlg_CClk.obj
 0001:00000d70       ?InitDraw@CDrObject@@UAEXPAVCDC@@HHPAUMATRIX@@1NNNN@Z 10001d70 f i Dlg_CClk.obj
 0001:00000d90       ?Corner_3Dto2D@CDrObject@@UAEXXZ 10001d90 f i Dlg_CClk.obj
 0001:00000db0       ?DoDrawView@CDrObject@@UAEXPAVCDC@@@Z 10001db0 f i Dlg_CClk.obj
 0001:00000dd0       ?DoDrawView@CDrObject@@UAEXPAVCDC@@H@Z 10001dd0 f i Dlg_CClk.obj
 0001:00000df0       ?DoDrawView@CDrObject@@UAEXPAVCDC@@HH@Z 10001df0 f i Dlg_CClk.obj
 0001:00000e10       ?DealObjectDialog@CDrObject@@UAEHXZ 10001e10 f i Dlg_CClk.obj
 0001:00000e30       ?TransformObjectToWorld@CDrObject@@UAEXPAUMATRIX@@H@Z 10001e30 f i Dlg_CClk.obj
 0001:00000e50       ?TransformObjectToView@CDrObject@@UAEXPAUMATRIX@@@Z 10001e50 f i Dlg_CClk.obj
 0001:00000e70       ?TransformObjectToViewDirect@CDrObject@@UAEXPAUMATRIX@@00H@Z 10001e70 f i Dlg_CClk.obj
 0001:00000e90       ?RemoveHiddenObject@CDrObject@@UAEHPAUMATRIX@@UWORLD@@H@Z 10001e90 f i Dlg_CClk.obj
 0001:00000eb0       ?ProjectObject@CDrObject@@UAEXPAUMATRIX@@NN@Z 10001eb0 f i Dlg_CClk.obj
 0001:00000ed0       ?Calc_2DBoundsScreen@CDrObject@@UAEHXZ 10001ed0 f i Dlg_CClk.obj
 0001:00000ef0       ?Calc_3DBoundsLocal@CDrObject@@UAEHXZ 10001ef0 f i Dlg_CClk.obj
 0001:00000f10       ?FinishObject@CDrObject@@UAEXPAVCClientDC@@H@Z 10001f10 f i Dlg_CClk.obj
 0001:00000f30       ?FinishObject@CDrObject@@UAEXH@Z 10001f30 f i Dlg_CClk.obj
 0001:00000f50       ?FinishObject@CDrObject@@UAEXXZ 10001f50 f i Dlg_CClk.obj
 0001:00000f70       ?GetMaxCorners@CDrObject@@UAEHXZ 10001f70 f i Dlg_CClk.obj
 0001:00000f90       ?GetRawCoords@CDrObject@@UAEXPAJPAHH@Z 10001f90 f i Dlg_CClk.obj
 0001:00000fb0       ?SetProjectedCoords@CDrObject@@UAEXUtagPOINT@@H@Z 10001fb0 f i Dlg_CClk.obj
 0001:00000fd0       ?RearrangeProjectedCoords@CDrObject@@UAEXXZ 10001fd0 f i Dlg_CClk.obj
 0001:00000ff0       ?IsObjectHit@CDrObject@@UAEHNUWORLD@@@Z 10001ff0 f i Dlg_CClk.obj
 0001:00001010       ?IsObjectHit@CDrObject@@UAEHHUtagPOINT@@H@Z 10002010 f i Dlg_CClk.obj
 0001:00001030       ?IsObjectHit@CDrObject@@UAEHHUtagPOINT@@@Z 10002030 f i Dlg_CClk.obj
 0001:00001050       ?IsObjectHit@CDrObject@@UAEHPAVCClientDC@@HUtagPOINT@@PAVCRect@@H@Z 10002050 f i Dlg_CClk.obj
 0001:00001070       ?IsKeyMatch@CDrObject@@UAEHPAV1@VCString@@I@Z 10002070 f i Dlg_CClk.obj
 0001:000010a0       ?IsKeyMatch@CDrObject@@UAEHVCString@@I@Z 100020a0 f i Dlg_CClk.obj
 0001:000010d0       ?IsControlShapeNeeded@CDrObject@@UAEHXZ 100020d0 f i Dlg_CClk.obj
 0001:000010f0       ?SetControlShapeNeed@CDrObject@@UAEXH@Z 100020f0 f i Dlg_CClk.obj
 0001:00001110       ?IsNormalNeeded@CDrObject@@UAEHXZ 10002110 f i Dlg_CClk.obj
 0001:00001130       ?SetNormalNeed@CDrObject@@UAEXH@Z 10002130 f i Dlg_CClk.obj
 0001:00001150       ?IsCulled@CDrObject@@UAEHXZ 10002150 f i Dlg_CClk.obj
 0001:00001170       ?SetCulled@CDrObject@@UAEXH@Z 10002170 f i Dlg_CClk.obj
 0001:00001190       ?IsSkewed@CDrObject@@UAEHXZ 10002190 f i Dlg_CClk.obj
 0001:000011b0       ?SetSkewed@CDrObject@@UAEXH@Z 100021b0 f i Dlg_CClk.obj
 0001:000011d0       ?IsLinSpr@CDrObject@@UAEHXZ 100021d0 f i Dlg_CClk.obj
 0001:000011f0       ?SetLinSpr@CDrObject@@UAEXH@Z 100021f0 f i Dlg_CClk.obj
 0001:00001210       ?IsLinSnu@CDrObject@@UAEHXZ 10002210 f i Dlg_CClk.obj
 0001:00001230       ?SetLinSnu@CDrObject@@UAEXH@Z 10002230 f i Dlg_CClk.obj
 0001:00001250       ?CullWorld@CDrObject@@UAEHUWORLD@@@Z 10002250 f i Dlg_CClk.obj
 0001:00001270       ?CullScreen@CDrObject@@UAEHPAUMATRIX@@@Z 10002270 f i Dlg_CClk.obj
 0001:00001290       ?Calc_CentroidWorld@CDrObject@@UAEXXZ 10002290 f i Dlg_CClk.obj
 0001:000012b0       ?Calc_CentroidEye@CDrObject@@UAEXXZ 100022b0 f i Dlg_CClk.obj
 0001:000012d0       ?Calc_CentroidScreen3D@CDrObject@@UAEXNN@Z 100022d0 f i Dlg_CClk.obj
 0001:000012f0       ?Calc_NormalWorld@CDrObject@@UAEXXZ 100022f0 f i Dlg_CClk.obj
 0001:00001310       ?TransformNormalToEye@CDrObject@@UAEXPAUMATRIX@@@Z 10002310 f i Dlg_CClk.obj
 0001:00001330       ?ProjectNormalToScreen3D@CDrObject@@UAEXPAUMATRIX@@NN@Z 10002330 f i Dlg_CClk.obj
 0001:00001350       ?GetNormalWorld@CDrObject@@UAEPAUWORLD@@XZ 10002350 f i Dlg_CClk.obj
 0001:00001370       ?SetNormalWorld@CDrObject@@UAEXUWORLD@@@Z 10002370 f i Dlg_CClk.obj
 0001:00001390       ?GetNormalEye@CDrObject@@UAEPAUWORLD@@XZ 10002390 f i Dlg_CClk.obj
 0001:000013b0       ?SetNormalEye@CDrObject@@UAEXUWORLD@@@Z 100023b0 f i Dlg_CClk.obj
 0001:000013d0       ?GetNormalScreen3D@CDrObject@@UAEPAUWORLD@@XZ 100023d0 f i Dlg_CClk.obj
 0001:000013f0       ?SetNormalScreen3D@CDrObject@@UAEXUWORLD@@@Z 100023f0 f i Dlg_CClk.obj
 0001:00001410       ?GetNormalScreen2D@CDrObject@@UAEPAUtagPOINT@@XZ 10002410 f i Dlg_CClk.obj
 0001:00001430       ?SetNormalScreen2D@CDrObject@@UAEXUtagPOINT@@@Z 10002430 f i Dlg_CClk.obj
 0001:00001450       ?GetObjectList@CDrObject@@UAEPAVCDListMgr@@XZ 10002450 f i Dlg_CClk.obj
 0001:00001470       ?GetBoundingRect@CDrObject@@QAE?AVCRect@@XZ 10002470 f i Dlg_CClk.obj
 0001:000014b0       ?GetRInfo@CDrObject@@QAEPAURENDINFO@@XZ 100024b0 f i Dlg_CClk.obj
 0001:000014d0       ?IsParallel@CDrObject@@QAEHXZ 100024d0 f i Dlg_CClk.obj
 0001:000014f0       ?GetnView@CDrObject@@QAEHXZ 100024f0 f i Dlg_CClk.obj
 0001:00001510       ?GetdzMin@CDrObject@@QAENXZ 10002510 f i Dlg_CClk.obj
 0001:00001530       ?GetdScale_U@CDrObject@@QAENXZ 10002530 f i Dlg_CClk.obj
 0001:00001550       ?GetdScale_V@CDrObject@@QAENXZ 10002550 f i Dlg_CClk.obj
 0001:00001570       ?GetpViewM@CDrObject@@QAEPAUMATRIX@@XZ 10002570 f i Dlg_CClk.obj
 0001:00001590       ?Getpvv3DM@CDrObject@@QAEPAUMATRIX@@XZ 10002590 f i Dlg_CClk.obj
 0001:000015b0       ?GetpComposedM@CDrObject@@QAEPAUMATRIX@@XZ 100025b0 f i Dlg_CClk.obj
 0001:000015d0       ?SetParallel@CDrObject@@QAEXH@Z 100025d0 f i Dlg_CClk.obj
 0001:00001600       ?SetnView@CDrObject@@QAEXH@Z 10002600 f i Dlg_CClk.obj
 0001:00001630       ?SetdzMin@CDrObject@@QAEXN@Z 10002630 f i Dlg_CClk.obj
 0001:00001660       ?SetdScale_U@CDrObject@@QAEXN@Z 10002660 f i Dlg_CClk.obj
 0001:00001690       ?SetdScale_V@CDrObject@@QAEXN@Z 10002690 f i Dlg_CClk.obj
 0001:000016c0       ?SetpViewM@CDrObject@@QAEXPAUMATRIX@@@Z 100026c0 f i Dlg_CClk.obj
 0001:000016f0       ?Setpvv3DM@CDrObject@@QAEXPAUMATRIX@@@Z 100026f0 f i Dlg_CClk.obj
 0001:00001720       ?SetpComposedM@CDrObject@@QAEXPAUMATRIX@@@Z 10002720 f i Dlg_CClk.obj
 0001:00001750       ?GetLevelType@CDrObject@@QAEHXZ 10002750 f i Dlg_CClk.obj
 0001:00001770       ?SetLevelType@CDrObject@@QAEXH@Z 10002770 f i Dlg_CClk.obj
 0001:000017a0       ?GetObjectID@CDrObject@@QAE?AVCString@@XZ 100027a0 f i Dlg_CClk.obj
 0001:000017e0       ?SetObjectID@CDrObject@@QAEXVCString@@@Z 100027e0 f i Dlg_CClk.obj
 0001:00001840       ?GetObjectNo@CDrObject@@QAEJXZ 10002840 f i Dlg_CClk.obj
 0001:00001860       ?SetObjectNo@CDrObject@@QAEXJ@Z 10002860 f i Dlg_CClk.obj
 0001:00001890       ?GetObjectType@CDrObject@@QAEHXZ 10002890 f i Dlg_CClk.obj
 0001:000018b0       ?SetObjectType@CDrObject@@QAEXH@Z 100028b0 f i Dlg_CClk.obj
 0001:000018e0       ?GetElemType@CDrObject@@QAEHXZ 100028e0 f i Dlg_CClk.obj
 0001:00001900       ?SetElemType@CDrObject@@QAEXH@Z 10002900 f i Dlg_CClk.obj
 0001:00001930       ?GetPenInfo@CDrObject@@QAEXAAIAAK0@Z 10002930 f i Dlg_CClk.obj
 0001:00001970       ?SetPenInfo@CDrObject@@QAEXIKI@Z 10002970 f i Dlg_CClk.obj
 0001:000019b0       ?GetPenInfoHi@CDrObject@@QAEXAAIAAK0@Z 100029b0 f i Dlg_CClk.obj
 0001:000019f0       ?SetPenInfoHi@CDrObject@@QAEXIKI@Z 100029f0 f i Dlg_CClk.obj
 0001:00001a30       ?GetLayer@CDrObject@@QAEIXZ 10002a30 f i Dlg_CClk.obj
 0001:00001a50       ?SetLayer@CDrObject@@QAEXI@Z 10002a50 f i Dlg_CClk.obj
 0001:00001a80       ?IsClipped@CDrObject@@QAEHXZ 10002a80 f i Dlg_CClk.obj
 0001:00001aa0       ?SetClipped@CDrObject@@QAEXH@Z 10002aa0 f i Dlg_CClk.obj
 0001:00001ad0       ?IsVirtual@CDrObject@@QAEHXZ 10002ad0 f i Dlg_CClk.obj
 0001:00001af0       ?SetVirtual@CDrObject@@QAEXH@Z 10002af0 f i Dlg_CClk.obj
 0001:00001b10       ?IsShow@CDrObject@@QAEHXZ  10002b10 f i Dlg_CClk.obj
 0001:00001b30       ?SetShow@CDrObject@@QAEXH@Z 10002b30 f i Dlg_CClk.obj
 0001:00001b60       ?GetParentID@CDrObject@@QAEAAVCString@@XZ 10002b60 f i Dlg_CClk.obj
 0001:00001b80       ?SetParentID@CDrObject@@QAEXAAVCString@@@Z 10002b80 f i Dlg_CClk.obj
 0001:00001bb0       ?GetParentType@CDrObject@@QAEIXZ 10002bb0 f i Dlg_CClk.obj
 0001:00001bd0       ?SetParentType@CDrObject@@QAEXI@Z 10002bd0 f i Dlg_CClk.obj
 0001:00001bf0       ?IsInstanced@CDrObject@@QAEHXZ 10002bf0 f i Dlg_CClk.obj
 0001:00001c10       ?SetInstanced@CDrObject@@QAEXH@Z 10002c10 f i Dlg_CClk.obj
 0001:00001c30       ?GetMatObj@CDrObject@@QAEPAVCMatObj@@XZ 10002c30 f i Dlg_CClk.obj
 0001:00001c50       ?SetMatObj@CDrObject@@QAEXPAVCMatObj@@@Z 10002c50 f i Dlg_CClk.obj
 0001:00001c70       ?GetSpeLList@CDrObject@@QAEPAVCDListMgr@@XZ 10002c70 f i Dlg_CClk.obj
 0001:00001c90       ?GetDynLList@CDrObject@@QAEPAVCDListMgr@@XZ 10002c90 f i Dlg_CClk.obj
 0001:00001cb0       ?GetStaLList@CDrObject@@QAEPAVCDListMgr@@XZ 10002cb0 f i Dlg_CClk.obj
 0001:00001cd0       ?GetSuppList@CDrObject@@QAEPAVCDListMgr@@XZ 10002cd0 f i Dlg_CClk.obj
 0001:00001cf0       ?GetElemList@CDrObject@@QAEPAVCDListMgr@@XZ 10002cf0 f i Dlg_CClk.obj
 0001:00001d10       ?GetCurveList@CDrObject@@QAEPAVCDListMgr@@XZ 10002d10 f i Dlg_CClk.obj
 0001:00001d30       ?GetCProfList@CDrObject@@QAEPAVCDListMgr@@XZ 10002d30 f i Dlg_CClk.obj
 0001:00001d50       ?GetPatchList@CDrObject@@QAEPAVCDListMgr@@XZ 10002d50 f i Dlg_CClk.obj
 0001:00001d70       ?GetSolidList@CDrObject@@QAEPAVCDListMgr@@XZ 10002d70 f i Dlg_CClk.obj
 0001:00001d90       ?GetObj3DList@CDrObject@@QAEPAVCDListMgr@@XZ 10002d90 f i Dlg_CClk.obj
 0001:00001db0       ?GetCNodeList@CDrObject@@QAEPAVCDListMgr@@XZ 10002db0 f i Dlg_CClk.obj
 0001:00001dd0       ?GetINodeList@CDrObject@@QAEPAVCDListMgr@@XZ 10002dd0 f i Dlg_CClk.obj
 0001:00001df0       ?GetNodeList@CDrObject@@QAEPAVCDListMgr@@XZ 10002df0 f i Dlg_CClk.obj
 0001:00001e10       ?GetLabelList@CDrObject@@QAEPAVCDListMgr@@XZ 10002e10 f i Dlg_CClk.obj
 0001:00001e30       ?GetFE0DList@CDrObject@@QAEPAVCDListMgr@@XZ 10002e30 f i Dlg_CClk.obj
 0001:00001e50       ?GetFE1DList@CDrObject@@QAEPAVCDListMgr@@XZ 10002e50 f i Dlg_CClk.obj
 0001:00001e70       ?GetFE2DList@CDrObject@@QAEPAVCDListMgr@@XZ 10002e70 f i Dlg_CClk.obj
 0001:00001e90       ?GetFE3DList@CDrObject@@QAEPAVCDListMgr@@XZ 10002e90 f i Dlg_CClk.obj
 0001:00001eb0       ?GetMs0List@CDrObject@@QAEPAVCDListMgr@@XZ 10002eb0 f i Dlg_CClk.obj
 0001:00001ed0       ?GetMs1List@CDrObject@@QAEPAVCDListMgr@@XZ 10002ed0 f i Dlg_CClk.obj
 0001:00001ef0       ?GetMs2List@CDrObject@@QAEPAVCDListMgr@@XZ 10002ef0 f i Dlg_CClk.obj
 0001:00001f10       ?GetMs3List@CDrObject@@QAEPAVCDListMgr@@XZ 10002f10 f i Dlg_CClk.obj
 0001:00001f30       ?GetMbj3DList@CDrObject@@QAEPAVCDListMgr@@XZ 10002f30 f i Dlg_CClk.obj
 0001:00001f50       ?GetM2DProfList@CDrObject@@QAEPAVCDListMgr@@XZ 10002f50 f i Dlg_CClk.obj
 0001:00001f70       ?GetM3DProfList@CDrObject@@QAEPAVCDListMgr@@XZ 10002f70 f i Dlg_CClk.obj
 0001:00001f90       ?GetMbjProfList@CDrObject@@QAEPAVCDListMgr@@XZ 10002f90 f i Dlg_CClk.obj
 0001:00001fb0       ?GetScreen2DCorner@CDrObject@@UAE?AUtagPOINT@@H@Z 10002fb0 f i Dlg_CClk.obj
 0001:00001ff0       ?SetScreen2DCorner@CDrObject@@UAEXUtagPOINT@@H@Z 10002ff0 f i Dlg_CClk.obj
 0001:00002020       ?GetSpawnType@CDrObject@@QAE?AW4SPAWNTYPE@@XZ 10003020 f i Dlg_CClk.obj
 0001:00002040       ?SetSpawnType@CDrObject@@QAEXW4SPAWNTYPE@@@Z 10003040 f i Dlg_CClk.obj
 0001:00002060       ?GetCategory@CDrObject@@QAE?AW4CATEGORY@@XZ 10003060 f i Dlg_CClk.obj
 0001:00002080       ?SetCategory@CDrObject@@QAEXW4CATEGORY@@@Z 10003080 f i Dlg_CClk.obj
 0001:000020a0       ?GetSubCat@CDrObject@@QAE?AW4SUBCAT@@XZ 100030a0 f i Dlg_CClk.obj
 0001:000020c0       ?SetSubCat@CDrObject@@QAEXW4SUBCAT@@@Z 100030c0 f i Dlg_CClk.obj
 0001:000020e0       ?GetElemDimLim@CDrObject@@QAE?AW4ELEMDIMLIM@@XZ 100030e0 f i Dlg_CClk.obj
 0001:00002100       ?SetElemDimLim@CDrObject@@QAEXW4ELEMDIMLIM@@@Z 10003100 f i Dlg_CClk.obj
 0001:00002120       ?IsDirty@CDrObject@@QAEHXZ 10003120 f i Dlg_CClk.obj
 0001:00002150       ?SetDirty@CDrObject@@QAEXH@Z 10003150 f i Dlg_CClk.obj
 0001:00002180       ?IsMoved@CDrObject@@QAEHXZ 10003180 f i Dlg_CClk.obj
 0001:000021a0       ?SetMoved@CDrObject@@QAEXH@Z 100031a0 f i Dlg_CClk.obj
 0001:000021d0       ?IsEdited@CDrObject@@QAEHXZ 100031d0 f i Dlg_CClk.obj
 0001:000021f0       ?SetEdited@CDrObject@@QAEXH@Z 100031f0 f i Dlg_CClk.obj
 0001:00002220       ?IsPosted@CDrObject@@QAEHXZ 10003220 f i Dlg_CClk.obj
 0001:00002240       ?SetPosted@CDrObject@@QAEXH@Z 10003240 f i Dlg_CClk.obj
 0001:00002270       ?IsDeleted@CDrObject@@QAEHXZ 10003270 f i Dlg_CClk.obj
 0001:00002290       ?SetDeleted@CDrObject@@QAEXH@Z 10003290 f i Dlg_CClk.obj
 0001:000022c0       ?IsToBeMoved@CDrObject@@QAEHXZ 100032c0 f i Dlg_CClk.obj
 0001:000022e0       ?SetToBeMoved@CDrObject@@QAEXH@Z 100032e0 f i Dlg_CClk.obj
 0001:00002300       ?IsToBeEdited@CDrObject@@QAEHXZ 10003300 f i Dlg_CClk.obj
 0001:00002320       ?SetToBeEdited@CDrObject@@QAEXH@Z 10003320 f i Dlg_CClk.obj
 0001:00002340       ?IsToBePosted@CDrObject@@QAEHXZ 10003340 f i Dlg_CClk.obj
 0001:00002360       ?SetToBePosted@CDrObject@@QAEXH@Z 10003360 f i Dlg_CClk.obj
 0001:00002380       ?IsToBeUnPosted@CDrObject@@QAEHXZ 10003380 f i Dlg_CClk.obj
 0001:000023a0       ?SetToBeUnPosted@CDrObject@@QAEXH@Z 100033a0 f i Dlg_CClk.obj
 0001:000023c0       ?IsToBeDeleted@CDrObject@@QAEHXZ 100033c0 f i Dlg_CClk.obj
 0001:000023e0       ?SetToBeDeleted@CDrObject@@QAEXH@Z 100033e0 f i Dlg_CClk.obj
 0001:00002400       ?IsFormatted@CDrObject@@QAEHXZ 10003400 f i Dlg_CClk.obj
 0001:00002420       ?SetFormatted@CDrObject@@QAEXH@Z 10003420 f i Dlg_CClk.obj
 0001:00002440       ?GetObjectType@CBooleans@@UAEHXZ 10003440 f i Dlg_CClk.obj
 0001:00002460       ?SetObjectType@CBooleans@@UAEXH@Z 10003460 f i Dlg_CClk.obj
 0001:00002490       ?GetElemType@CBooleans@@UAEHXZ 10003490 f i Dlg_CClk.obj
 0001:000024b0       ?SetElemType@CBooleans@@UAEXH@Z 100034b0 f i Dlg_CClk.obj
 0001:000024e0       ?GetObjectNo@CBooleans@@UAEJXZ 100034e0 f i Dlg_CClk.obj
 0001:00002500       ?SetObjectNo@CBooleans@@UAEXJ@Z 10003500 f i Dlg_CClk.obj
 0001:00002530       ?IsSoundOn@CBooleans@@UAEHXZ 10003530 f i Dlg_CClk.obj
 0001:00002550       ?ToggleSoundOn@CBooleans@@UAEXXZ 10003550 f i Dlg_CClk.obj
 0001:00002580       ?IsCoonSocksOff@CBooleans@@UAEHXZ 10003580 f i Dlg_CClk.obj
 0001:000025a0       ?ToggleCoonSocksOff@CBooleans@@UAEXXZ 100035a0 f i Dlg_CClk.obj
 0001:000025d0       ?IsSnapOn@CBooleans@@UAEHXZ 100035d0 f i Dlg_CClk.obj
 0001:000025f0       ?ToggleSnapOn@CBooleans@@UAEXXZ 100035f0 f i Dlg_CClk.obj
 0001:00002620       ?IsHorSnapOn@CBooleans@@UAEHXZ 10003620 f i Dlg_CClk.obj
 0001:00002640       ?ToggleHorSnapOn@CBooleans@@UAEXXZ 10003640 f i Dlg_CClk.obj
 0001:00002670       ?IsVerSnapOn@CBooleans@@UAEHXZ 10003670 f i Dlg_CClk.obj
 0001:00002690       ?ToggleVerSnapOn@CBooleans@@UAEXXZ 10003690 f i Dlg_CClk.obj
 0001:000026c0       ?IsSpawnOn@CBooleans@@UAEHXZ 100036c0 f i Dlg_CClk.obj
 0001:000026e0       ?ToggleSpawnOn@CBooleans@@UAEXXZ 100036e0 f i Dlg_CClk.obj
 0001:00002710       ?IsBLineOn@CBooleans@@UAEHXZ 10003710 f i Dlg_CClk.obj
 0001:00002730       ?ToggleBLineOn@CBooleans@@UAEXXZ 10003730 f i Dlg_CClk.obj
 0001:00002760       ?IsSingleSegOn@CBooleans@@UAEHXZ 10003760 f i Dlg_CClk.obj
 0001:00002780       ?ToggleSingleSegOn@CBooleans@@UAEXXZ 10003780 f i Dlg_CClk.obj
 0001:000027b0       ?IsAutoAcceptOn@CBooleans@@UAEHXZ 100037b0 f i Dlg_CClk.obj
 0001:000027d0       ?ToggleAutoAcceptOn@CBooleans@@UAEXXZ 100037d0 f i Dlg_CClk.obj
 0001:00002800       ?IsDialogOn@CBooleans@@UAEHXZ 10003800 f i Dlg_CClk.obj
 0001:00002820       ?ToggleDialogOn@CBooleans@@UAEXXZ 10003820 f i Dlg_CClk.obj
 0001:00002850       ?IsElementOn@CBooleans@@UAEHXZ 10003850 f i Dlg_CClk.obj
 0001:00002870       ?ToggleElementOn@CBooleans@@UAEXXZ 10003870 f i Dlg_CClk.obj
 0001:000028a0       ?IsDragOn@CBooleans@@UAEHXZ 100038a0 f i Dlg_CClk.obj
 0001:000028c0       ?ToggleDragOn@CBooleans@@UAEXXZ 100038c0 f i Dlg_CClk.obj
 0001:000028f0       ?IsRefreshOn@CBooleans@@UAEHXZ 100038f0 f i Dlg_CClk.obj
 0001:00002910       ?ToggleRefreshOn@CBooleans@@UAEXXZ 10003910 f i Dlg_CClk.obj
 0001:00002940       ?IsRubberBandOn@CBooleans@@UAEHXZ 10003940 f i Dlg_CClk.obj
 0001:00002960       ?ToggleRubberBandOn@CBooleans@@UAEXXZ 10003960 f i Dlg_CClk.obj
 0001:00002990       ?IsStViewActive@CBooleans@@UAEHXZ 10003990 f i Dlg_CClk.obj
 0001:000029b0       ?ToggleStViewActive@CBooleans@@UAEXXZ 100039b0 f i Dlg_CClk.obj
 0001:000029e0       ?IsSpViewActive@CBooleans@@UAEHXZ 100039e0 f i Dlg_CClk.obj
 0001:00002a00       ?ToggleSpViewActive@CBooleans@@UAEXXZ 10003a00 f i Dlg_CClk.obj
 0001:00002a30       ?IsHsViewActive@CBooleans@@UAEHXZ 10003a30 f i Dlg_CClk.obj
 0001:00002a50       ?ToggleHsViewActive@CBooleans@@UAEXXZ 10003a50 f i Dlg_CClk.obj
 0001:00002a80       ?Is12ViewActive@CBooleans@@UAEHXZ 10003a80 f i Dlg_CClk.obj
 0001:00002aa0       ?Toggle12ViewActive@CBooleans@@UAEXXZ 10003aa0 f i Dlg_CClk.obj
 0001:00002ad0       ?Is23ViewActive@CBooleans@@UAEHXZ 10003ad0 f i Dlg_CClk.obj
 0001:00002af0       ?Toggle23ViewActive@CBooleans@@UAEXXZ 10003af0 f i Dlg_CClk.obj
 0001:00002b20       ?Is31ViewActive@CBooleans@@UAEHXZ 10003b20 f i Dlg_CClk.obj
 0001:00002b40       ?Toggle31ViewActive@CBooleans@@UAEXXZ 10003b40 f i Dlg_CClk.obj
 0001:00002b70       ?IsIsoViewActive@CBooleans@@UAEHXZ 10003b70 f i Dlg_CClk.obj
 0001:00002b90       ?ToggleIsoViewActive@CBooleans@@UAEXXZ 10003b90 f i Dlg_CClk.obj
 0001:00002bc0       ?IsDataViewActive@CBooleans@@UAEHXZ 10003bc0 f i Dlg_CClk.obj
 0001:00002be0       ?ToggleDataViewActive@CBooleans@@UAEXXZ 10003be0 f i Dlg_CClk.obj
 0001:00002c10       ?IsMeshDataViewActive@CBooleans@@UAEHXZ 10003c10 f i Dlg_CClk.obj
 0001:00002c30       ?ToggleMeshDataViewActive@CBooleans@@UAEXXZ 10003c30 f i Dlg_CClk.obj
 0001:00002c60       ?IsDeckViewActive@CBooleans@@UAEHXZ 10003c60 f i Dlg_CClk.obj
 0001:00002c80       ?ToggleDeckViewActive@CBooleans@@UAEXXZ 10003c80 f i Dlg_CClk.obj
 0001:00002cb0       ?IsFormDataViewActive@CBooleans@@UAEHXZ 10003cb0 f i Dlg_CClk.obj
 0001:00002cd0       ?ToggleFormDataViewActive@CBooleans@@UAEXXZ 10003cd0 f i Dlg_CClk.obj
 0001:00002d00       ?IsInputMode@CBooleans@@UAEHXZ 10003d00 f i Dlg_CClk.obj
 0001:00002d20       ?SetInputMode@CBooleans@@UAEXH@Z 10003d20 f i Dlg_CClk.obj
 0001:00002d50       ?IsOutputMode@CBooleans@@UAEHXZ 10003d50 f i Dlg_CClk.obj
 0001:00002d70       ?SetOutputMode@CBooleans@@UAEXH@Z 10003d70 f i Dlg_CClk.obj
 0001:00002da0       ??1CBooleans@@UAE@XZ       10003da0 f i Dlg_CClk.obj
 0001:00002dd0       ??_GCBooleans@@UAEPAXI@Z   10003dd0 f i Dlg_CClk.obj
 0001:00002e10       ??_ECBooleans@@UAEPAXI@Z   10003e10 f i Dlg_CClk.obj
 0001:00002e90       ?GetObjectType@CDataWindow@@UAEHXZ 10003e90 f i Dlg_CClk.obj
 0001:00002eb0       ?SetObjectType@CDataWindow@@UAEXH@Z 10003eb0 f i Dlg_CClk.obj
 0001:00002ee0       ?GetElemType@CDataWindow@@UAEHXZ 10003ee0 f i Dlg_CClk.obj
 0001:00002f00       ?SetElemType@CDataWindow@@UAEXH@Z 10003f00 f i Dlg_CClk.obj
 0001:00002f30       ?GetObjectNo@CDataWindow@@UAEJXZ 10003f30 f i Dlg_CClk.obj
 0001:00002f50       ?SetObjectNo@CDataWindow@@UAEXJ@Z 10003f50 f i Dlg_CClk.obj
 0001:00002f80       ?GetWinOrgWIC@CDataWindow@@UAE?AULPOINT3@@XZ 10003f80 f i Dlg_CClk.obj
 0001:00002fc0       ?GetWinMinWIC@CDataWindow@@UAE?AULPOINT3@@XZ 10003fc0 f i Dlg_CClk.obj
 0001:00003000       ?GetWinMaxWIC@CDataWindow@@UAE?AULPOINT3@@XZ 10004000 f i Dlg_CClk.obj
 0001:00003040       ?GetWinExtWIC@CDataWindow@@UAE?AULPOINT3@@XZ 10004040 f i Dlg_CClk.obj
 0001:00003080       ??1CDataWindow@@UAE@XZ     10004080 f i Dlg_CClk.obj
 0001:000030b0       ??_GCDataWindow@@UAEPAXI@Z 100040b0 f i Dlg_CClk.obj
 0001:000030f0       ??_ECDataWindow@@UAEPAXI@Z 100040f0 f i Dlg_CClk.obj
 0001:00003170       ?GetObjectType@CDrFont@@UAEHXZ 10004170 f i Dlg_CClk.obj
 0001:00003190       ?SetObjectType@CDrFont@@UAEXH@Z 10004190 f i Dlg_CClk.obj
 0001:000031c0       ?GetElemType@CDrFont@@UAEHXZ 100041c0 f i Dlg_CClk.obj
 0001:000031e0       ?SetElemType@CDrFont@@UAEXH@Z 100041e0 f i Dlg_CClk.obj
 0001:00003210       ?GetObjectNo@CDrFont@@UAEJXZ 10004210 f i Dlg_CClk.obj
 0001:00003230       ?SetObjectNo@CDrFont@@UAEXJ@Z 10004230 f i Dlg_CClk.obj
 0001:00003260       ?IsFontSelected@CDrFont@@UAEHXZ 10004260 f i Dlg_CClk.obj
 0001:00003280       ?GetTextColor@CDrFont@@UAEKXZ 10004280 f i Dlg_CClk.obj
 0001:000032a0       ?SetTextColor@CDrFont@@UAEXK@Z 100042a0 f i Dlg_CClk.obj
 0001:000032d0       ?GetCurrentLogFont@CDrFont@@UAE?AUtagLOGFONTA@@XZ 100042d0 f i Dlg_CClk.obj
 0001:00003300       ?SetCurrentLogFont@CDrFont@@UAEXUtagLOGFONTA@@@Z 10004300 f i Dlg_CClk.obj
 0001:00003330       ??1CDrFont@@UAE@XZ         10004330 f i Dlg_CClk.obj
 0001:00003360       ??_GCDrFont@@UAEPAXI@Z     10004360 f i Dlg_CClk.obj
 0001:000033a0       ??_ECDrFont@@UAEPAXI@Z     100043a0 f i Dlg_CClk.obj
 0001:00003420       ?GetObjectType@CDrPen@@UAEHXZ 10004420 f i Dlg_CClk.obj
 0001:00003440       ?SetObjectType@CDrPen@@UAEXH@Z 10004440 f i Dlg_CClk.obj
 0001:00003470       ?GetElemType@CDrPen@@UAEHXZ 10004470 f i Dlg_CClk.obj
 0001:00003490       ?SetElemType@CDrPen@@UAEXH@Z 10004490 f i Dlg_CClk.obj
 0001:000034c0       ?GetObjectNo@CDrPen@@UAEJXZ 100044c0 f i Dlg_CClk.obj
 0001:000034e0       ?SetObjectNo@CDrPen@@UAEXJ@Z 100044e0 f i Dlg_CClk.obj
 0001:00003510       ?GetCurrentPen@CDrPen@@UAEPAVCPen@@XZ 10004510 f i Dlg_CClk.obj
 0001:00003530       ?GetStyle@CDrPen@@UAEHXZ   10004530 f i Dlg_CClk.obj
 0001:00003550       ?SetStyle@CDrPen@@UAEXH@Z  10004550 f i Dlg_CClk.obj
 0001:00003580       ?GetStyleOld@CDrPen@@UAEHXZ 10004580 f i Dlg_CClk.obj
 0001:000035a0       ?SetStyleOld@CDrPen@@UAEXH@Z 100045a0 f i Dlg_CClk.obj
 0001:000035d0       ?GetStyleDefault@CDrPen@@UAEHXZ 100045d0 f i Dlg_CClk.obj
 0001:000035f0       ?SetStyleDefault@CDrPen@@UAEXH@Z 100045f0 f i Dlg_CClk.obj
 0001:00003620       ?GetWidth@CDrPen@@UAEHXZ   10004620 f i Dlg_CClk.obj
 0001:00003640       ?SetWidth@CDrPen@@UAEXH@Z  10004640 f i Dlg_CClk.obj
 0001:00003670       ?GetWidthOld@CDrPen@@UAEHXZ 10004670 f i Dlg_CClk.obj
 0001:00003690       ?SetWidthOld@CDrPen@@UAEXH@Z 10004690 f i Dlg_CClk.obj
 0001:000036c0       ?GetWidthDefault@CDrPen@@UAEHXZ 100046c0 f i Dlg_CClk.obj
 0001:000036e0       ?SetWidthDefault@CDrPen@@UAEXH@Z 100046e0 f i Dlg_CClk.obj
 0001:00003710       ?GetColor@CDrPen@@UAEKXZ   10004710 f i Dlg_CClk.obj
 0001:00003730       ?SetColor@CDrPen@@UAEXK@Z  10004730 f i Dlg_CClk.obj
 0001:00003760       ?GetColorOld@CDrPen@@UAEKXZ 10004760 f i Dlg_CClk.obj
 0001:00003780       ?SetColorOld@CDrPen@@UAEXK@Z 10004780 f i Dlg_CClk.obj
 0001:000037b0       ?GetColorDefault@CDrPen@@UAEKXZ 100047b0 f i Dlg_CClk.obj
 0001:000037d0       ?SetColorDefault@CDrPen@@UAEXK@Z 100047d0 f i Dlg_CClk.obj
 0001:00003800       ?GetIndex@CDrPen@@UAEIXZ   10004800 f i Dlg_CClk.obj
 0001:00003820       ?SetIndex@CDrPen@@UAEXI@Z  10004820 f i Dlg_CClk.obj
 0001:00003850       ?GetIndexOld@CDrPen@@UAEIXZ 10004850 f i Dlg_CClk.obj
 0001:00003870       ?SetIndexOld@CDrPen@@UAEXI@Z 10004870 f i Dlg_CClk.obj
 0001:000038a0       ?GetIndexDefault@CDrPen@@UAEIXZ 100048a0 f i Dlg_CClk.obj
 0001:000038c0       ?SetIndexDefault@CDrPen@@UAEXI@Z 100048c0 f i Dlg_CClk.obj
 0001:000038f0       ?GetStyleNameCount@CDrPen@@UAEIXZ 100048f0 f i Dlg_CClk.obj
 0001:00003910       ?SetStyleNameCount@CDrPen@@UAEXI@Z 10004910 f i Dlg_CClk.obj
 0001:00003940       ?GetStyleName@CDrPen@@UAE?AVCString@@I@Z 10004940 f i Dlg_CClk.obj
 0001:00003980       ?GetStyleConstant@CDrPen@@UAEII@Z 10004980 f i Dlg_CClk.obj
 0001:000039b0       ??1CDrPen@@UAE@XZ          100049b0 f i Dlg_CClk.obj
 0001:00003a30       ??_GCDrPen@@UAEPAXI@Z      10004a30 f i Dlg_CClk.obj
 0001:00003a70       ??_ECDrPen@@UAEPAXI@Z      10004a70 f i Dlg_CClk.obj
 0001:00003af0       ?GetObjectType@CHitNet@@UAEHXZ 10004af0 f i Dlg_CClk.obj
 0001:00003b10       ?SetObjectType@CHitNet@@UAEXH@Z 10004b10 f i Dlg_CClk.obj
 0001:00003b40       ?GetElemType@CHitNet@@UAEHXZ 10004b40 f i Dlg_CClk.obj
 0001:00003b60       ?SetElemType@CHitNet@@UAEXH@Z 10004b60 f i Dlg_CClk.obj
 0001:00003b90       ?GetObjectNo@CHitNet@@UAEJXZ 10004b90 f i Dlg_CClk.obj
 0001:00003bb0       ?SetObjectNo@CHitNet@@UAEXJ@Z 10004bb0 f i Dlg_CClk.obj
 0001:00003be0       ?GetSearchNet@CHitNet@@QAEHXZ 10004be0 f i Dlg_CClk.obj
 0001:00003c00       ?SetSearchNet@CHitNet@@QAEXH@Z 10004c00 f i Dlg_CClk.obj
 0001:00003c30       ?GetSearchNetOld@CHitNet@@QAEHXZ 10004c30 f i Dlg_CClk.obj
 0001:00003c50       ?SetSearchNetOld@CHitNet@@QAEXH@Z 10004c50 f i Dlg_CClk.obj
 0001:00003c80       ?GetSearchNetDefault@CHitNet@@QAEHXZ 10004c80 f i Dlg_CClk.obj
 0001:00003ca0       ?SetSearchNetDefault@CHitNet@@QAEXH@Z 10004ca0 f i Dlg_CClk.obj
 0001:00003cd0       ?GetSearchDet@CHitNet@@QAENXZ 10004cd0 f i Dlg_CClk.obj
 0001:00003cf0       ?SetSearchDet@CHitNet@@QAEXN@Z 10004cf0 f i Dlg_CClk.obj
 0001:00003d20       ?GetSearchDetOld@CHitNet@@QAENXZ 10004d20 f i Dlg_CClk.obj
 0001:00003d40       ?SetSearchDetOld@CHitNet@@QAEXN@Z 10004d40 f i Dlg_CClk.obj
 0001:00003d70       ?GetSearchDetDefault@CHitNet@@QAENXZ 10004d70 f i Dlg_CClk.obj
 0001:00003d90       ?SetSearchDetDefault@CHitNet@@QAEXN@Z 10004d90 f i Dlg_CClk.obj
 0001:00003dc0       ?GetDblRatio@CHitNet@@QAENXZ 10004dc0 f i Dlg_CClk.obj
 0001:00003de0       ?SetDblRatio@CHitNet@@QAEXN@Z 10004de0 f i Dlg_CClk.obj
 0001:00003e10       ?GetDblRatioOld@CHitNet@@QAENXZ 10004e10 f i Dlg_CClk.obj
 0001:00003e30       ?SetDblRatioOld@CHitNet@@QAEXN@Z 10004e30 f i Dlg_CClk.obj
 0001:00003e60       ?GetDblRatioDefault@CHitNet@@QAENXZ 10004e60 f i Dlg_CClk.obj
 0001:00003e80       ?SetDblRatioDefault@CHitNet@@QAEXN@Z 10004e80 f i Dlg_CClk.obj
 0001:00003eb0       ?GetCoLinear@CHitNet@@QAENXZ 10004eb0 f i Dlg_CClk.obj
 0001:00003ed0       ?SetCoLinear@CHitNet@@QAEXN@Z 10004ed0 f i Dlg_CClk.obj
 0001:00003f00       ?GetCoLinearOld@CHitNet@@QAENXZ 10004f00 f i Dlg_CClk.obj
 0001:00003f20       ?SetCoLinearOld@CHitNet@@QAEXN@Z 10004f20 f i Dlg_CClk.obj
 0001:00003f50       ?GetCoLinearDefault@CHitNet@@QAENXZ 10004f50 f i Dlg_CClk.obj
 0001:00003f70       ?SetCoLinearDefault@CHitNet@@QAEXN@Z 10004f70 f i Dlg_CClk.obj
 0001:00003fa0       ?GetCoPlanar@CHitNet@@QAENXZ 10004fa0 f i Dlg_CClk.obj
 0001:00003fc0       ?SetCoPlanar@CHitNet@@QAEXN@Z 10004fc0 f i Dlg_CClk.obj
 0001:00003ff0       ?GetCoPlanarOld@CHitNet@@QAENXZ 10004ff0 f i Dlg_CClk.obj
 0001:00004010       ?SetCoPlanarOld@CHitNet@@QAEXN@Z 10005010 f i Dlg_CClk.obj
 0001:00004040       ?GetCoPlanarDefault@CHitNet@@QAENXZ 10005040 f i Dlg_CClk.obj
 0001:00004060       ?SetCoPlanarDefault@CHitNet@@QAEXN@Z 10005060 f i Dlg_CClk.obj
 0001:00004090       ?GetMergeNode_X@CHitNet@@QAENXZ 10005090 f i Dlg_CClk.obj
 0001:000040b0       ?SetMergeNode_X@CHitNet@@QAEXN@Z 100050b0 f i Dlg_CClk.obj
 0001:000040e0       ?GetMergeNode_XOld@CHitNet@@QAENXZ 100050e0 f i Dlg_CClk.obj
 0001:00004100       ?SetMergeNode_XOld@CHitNet@@QAEXN@Z 10005100 f i Dlg_CClk.obj
 0001:00004130       ?GetMergeNode_XDefault@CHitNet@@QAENXZ 10005130 f i Dlg_CClk.obj
 0001:00004150       ?SetMergeNode_XDefault@CHitNet@@QAEXN@Z 10005150 f i Dlg_CClk.obj
 0001:00004180       ?GetMergeNode_Y@CHitNet@@QAENXZ 10005180 f i Dlg_CClk.obj
 0001:000041a0       ?SetMergeNode_Y@CHitNet@@QAEXN@Z 100051a0 f i Dlg_CClk.obj
 0001:000041d0       ?GetMergeNode_YOld@CHitNet@@QAENXZ 100051d0 f i Dlg_CClk.obj
 0001:000041f0       ?SetMergeNode_YOld@CHitNet@@QAEXN@Z 100051f0 f i Dlg_CClk.obj
 0001:00004220       ?GetMergeNode_YDefault@CHitNet@@QAENXZ 10005220 f i Dlg_CClk.obj
 0001:00004240       ?SetMergeNode_YDefault@CHitNet@@QAEXN@Z 10005240 f i Dlg_CClk.obj
 0001:00004270       ?GetMergeNode_Z@CHitNet@@QAENXZ 10005270 f i Dlg_CClk.obj
 0001:00004290       ?SetMergeNode_Z@CHitNet@@QAEXN@Z 10005290 f i Dlg_CClk.obj
 0001:000042c0       ?GetMergeNode_ZOld@CHitNet@@QAENXZ 100052c0 f i Dlg_CClk.obj
 0001:000042e0       ?SetMergeNode_ZOld@CHitNet@@QAEXN@Z 100052e0 f i Dlg_CClk.obj
 0001:00004310       ?GetMergeNode_ZDefault@CHitNet@@QAENXZ 10005310 f i Dlg_CClk.obj
 0001:00004330       ?SetMergeNode_ZDefault@CHitNet@@QAEXN@Z 10005330 f i Dlg_CClk.obj
 0001:00004360       ??1CHitNet@@UAE@XZ         10005360 f i Dlg_CClk.obj
 0001:00004390       ??_GCHitNet@@UAEPAXI@Z     10005390 f i Dlg_CClk.obj
 0001:000043d0       ??_ECHitNet@@UAEPAXI@Z     100053d0 f i Dlg_CClk.obj
 0001:00004450       ?GetObjectType@CLayer@@UAEHXZ 10005450 f i Dlg_CClk.obj
 0001:00004470       ?SetObjectType@CLayer@@UAEXH@Z 10005470 f i Dlg_CClk.obj
 0001:000044a0       ?GetElemType@CLayer@@UAEHXZ 100054a0 f i Dlg_CClk.obj
 0001:000044c0       ?SetElemType@CLayer@@UAEXH@Z 100054c0 f i Dlg_CClk.obj
 0001:000044f0       ?GetObjectNo@CLayer@@UAEJXZ 100054f0 f i Dlg_CClk.obj
 0001:00004510       ?SetObjectNo@CLayer@@UAEXJ@Z 10005510 f i Dlg_CClk.obj
 0001:00004540       ?GetCurrentLayer@CLayer@@UAEIXZ 10005540 f i Dlg_CClk.obj
 0001:00004560       ?SetCurrentLayer@CLayer@@UAEXI@Z 10005560 f i Dlg_CClk.obj
 0001:00004590       ?GetCurrentLayerOld@CLayer@@UAEIXZ 10005590 f i Dlg_CClk.obj
 0001:000045b0       ?SetCurrentLayerOld@CLayer@@UAEXI@Z 100055b0 f i Dlg_CClk.obj
 0001:000045e0       ?GetCurrentLayerDefault@CLayer@@UAEIXZ 100055e0 f i Dlg_CClk.obj
 0001:00004600       ?SetCurrentLayerDefault@CLayer@@UAEXI@Z 10005600 f i Dlg_CClk.obj
 0001:00004630       ??1CLayer@@UAE@XZ          10005630 f i Dlg_CClk.obj
 0001:00004660       ??_GCLayer@@UAEPAXI@Z      10005660 f i Dlg_CClk.obj
 0001:000046a0       ??_ECLayer@@UAEPAXI@Z      100056a0 f i Dlg_CClk.obj
 0001:00004720       ?GetObjectType@CPatchMnu@@UAEHXZ 10005720 f i Dlg_CClk.obj
 0001:00004740       ?SetObjectType@CPatchMnu@@UAEXH@Z 10005740 f i Dlg_CClk.obj
 0001:00004770       ?GetElemType@CPatchMnu@@UAEHXZ 10005770 f i Dlg_CClk.obj
 0001:00004790       ?SetElemType@CPatchMnu@@UAEXH@Z 10005790 f i Dlg_CClk.obj
 0001:000047c0       ?GetObjectNo@CPatchMnu@@UAEJXZ 100057c0 f i Dlg_CClk.obj
 0001:000047e0       ?SetObjectNo@CPatchMnu@@UAEXJ@Z 100057e0 f i Dlg_CClk.obj
 0001:00004810       ?GetCurrentPatchMnu@CPatchMnu@@UAEIXZ 10005810 f i Dlg_CClk.obj
 0001:00004830       ?SetCurrentPatchMnu@CPatchMnu@@UAEXI@Z 10005830 f i Dlg_CClk.obj
 0001:00004860       ?GetCurrentPatchMnuOld@CPatchMnu@@UAEIXZ 10005860 f i Dlg_CClk.obj
 0001:00004880       ?SetCurrentPatchMnuOld@CPatchMnu@@UAEXI@Z 10005880 f i Dlg_CClk.obj
 0001:000048b0       ?GetCurrentPatchMnuDefault@CPatchMnu@@UAEIXZ 100058b0 f i Dlg_CClk.obj
 0001:000048d0       ?SetCurrentPatchMnuDefault@CPatchMnu@@UAEXI@Z 100058d0 f i Dlg_CClk.obj
 0001:00004900       ?GetPatchMnuID@CPatchMnu@@UAE?AVCString@@I@Z 10005900 f i Dlg_CClk.obj
 0001:00004940       ?SetPatchMnuID@CPatchMnu@@UAEXVCString@@I@Z 10005940 f i Dlg_CClk.obj
 0001:000049a0       ?GetCurrentID@CPatchMnu@@UAE?AVCString@@XZ 100059a0 f i Dlg_CClk.obj
 0001:000049e0       ?SetCurrentID@CPatchMnu@@UAEXVCString@@@Z 100059e0 f i Dlg_CClk.obj
 0001:00004a40       ??1CPatchMnu@@UAE@XZ       10005a40 f i Dlg_CClk.obj
 0001:00004ad0       ??_GCPatchMnu@@UAEPAXI@Z   10005ad0 f i Dlg_CClk.obj
 0001:00004b10       ??_ECPatchMnu@@UAEPAXI@Z   10005b10 f i Dlg_CClk.obj
 0001:00004b90       ?GetObjectType@CObj3DMnu@@UAEHXZ 10005b90 f i Dlg_CClk.obj
 0001:00004bb0       ?SetObjectType@CObj3DMnu@@UAEXH@Z 10005bb0 f i Dlg_CClk.obj
 0001:00004be0       ?GetElemType@CObj3DMnu@@UAEHXZ 10005be0 f i Dlg_CClk.obj
 0001:00004c00       ?SetElemType@CObj3DMnu@@UAEXH@Z 10005c00 f i Dlg_CClk.obj
 0001:00004c30       ?GetObjectNo@CObj3DMnu@@UAEJXZ 10005c30 f i Dlg_CClk.obj
 0001:00004c50       ?SetObjectNo@CObj3DMnu@@UAEXJ@Z 10005c50 f i Dlg_CClk.obj
 0001:00004c80       ?GetCurrentObj3DMnu@CObj3DMnu@@UAEIXZ 10005c80 f i Dlg_CClk.obj
 0001:00004ca0       ?SetCurrentObj3DMnu@CObj3DMnu@@UAEXI@Z 10005ca0 f i Dlg_CClk.obj
 0001:00004cd0       ?GetCurrentObj3DMnuOld@CObj3DMnu@@UAEIXZ 10005cd0 f i Dlg_CClk.obj
 0001:00004cf0       ?SetCurrentObj3DMnuOld@CObj3DMnu@@UAEXI@Z 10005cf0 f i Dlg_CClk.obj
 0001:00004d20       ?GetCurrentObj3DMnuDefault@CObj3DMnu@@UAEIXZ 10005d20 f i Dlg_CClk.obj
 0001:00004d40       ?SetCurrentObj3DMnuDefault@CObj3DMnu@@UAEXI@Z 10005d40 f i Dlg_CClk.obj
 0001:00004d70       ?GetObj3DMnuID@CObj3DMnu@@UAE?AVCString@@I@Z 10005d70 f i Dlg_CClk.obj
 0001:00004db0       ?SetObj3DMnuID@CObj3DMnu@@UAEXVCString@@I@Z 10005db0 f i Dlg_CClk.obj
 0001:00004e10       ?GetCurrentID@CObj3DMnu@@UAE?AVCString@@XZ 10005e10 f i Dlg_CClk.obj
 0001:00004e50       ?SetCurrentID@CObj3DMnu@@UAEXVCString@@@Z 10005e50 f i Dlg_CClk.obj
 0001:00004eb0       ??1CObj3DMnu@@UAE@XZ       10005eb0 f i Dlg_CClk.obj
 0001:00004f40       ??_GCObj3DMnu@@UAEPAXI@Z   10005f40 f i Dlg_CClk.obj
 0001:00004f80       ??_ECObj3DMnu@@UAEPAXI@Z   10005f80 f i Dlg_CClk.obj
 0001:00005000       ?GetObjectType@CMapFactor@@UAEHXZ 10006000 f i Dlg_CClk.obj
 0001:00005020       ?SetObjectType@CMapFactor@@UAEXH@Z 10006020 f i Dlg_CClk.obj
 0001:00005050       ?GetElemType@CMapFactor@@UAEHXZ 10006050 f i Dlg_CClk.obj
 0001:00005070       ?SetElemType@CMapFactor@@UAEXH@Z 10006070 f i Dlg_CClk.obj
 0001:000050a0       ?GetObjectNo@CMapFactor@@UAEJXZ 100060a0 f i Dlg_CClk.obj
 0001:000050c0       ?SetObjectNo@CMapFactor@@UAEXJ@Z 100060c0 f i Dlg_CClk.obj
 0001:000050f0       ?GetMapFactor@CMapFactor@@UAENXZ 100060f0 f i Dlg_CClk.obj
 0001:00005110       ?SetMapFactor@CMapFactor@@UAEXN@Z 10006110 f i Dlg_CClk.obj
 0001:00005140       ?GetMapModeIndex@CMapFactor@@UAEHXZ 10006140 f i Dlg_CClk.obj
 0001:00005160       ?SetMapModeIndex@CMapFactor@@UAEXH@Z 10006160 f i Dlg_CClk.obj
 0001:00005190       ??1CMapFactor@@UAE@XZ      10006190 f i Dlg_CClk.obj
 0001:000051c0       ??_GCMapFactor@@UAEPAXI@Z  100061c0 f i Dlg_CClk.obj
 0001:00005200       ??_ECMapFactor@@UAEPAXI@Z  10006200 f i Dlg_CClk.obj
 0001:00005280       ?GetObjectType@CPrecision@@UAEHXZ 10006280 f i Dlg_CClk.obj
 0001:000052a0       ?SetObjectType@CPrecision@@UAEXH@Z 100062a0 f i Dlg_CClk.obj
 0001:000052d0       ?GetElemType@CPrecision@@UAEHXZ 100062d0 f i Dlg_CClk.obj
 0001:000052f0       ?SetElemType@CPrecision@@UAEXH@Z 100062f0 f i Dlg_CClk.obj
 0001:00005320       ?GetObjectNo@CPrecision@@UAEJXZ 10006320 f i Dlg_CClk.obj
 0001:00005340       ?SetObjectNo@CPrecision@@UAEXJ@Z 10006340 f i Dlg_CClk.obj
 0001:00005370       ?GetPrecision@CPrecision@@UAEIXZ 10006370 f i Dlg_CClk.obj
 0001:00005390       ?SetPrecision@CPrecision@@UAEXI@Z 10006390 f i Dlg_CClk.obj
 0001:000053c0       ?GetPrecisionOld@CPrecision@@UAEIXZ 100063c0 f i Dlg_CClk.obj
 0001:000053e0       ?SetPrecisionOld@CPrecision@@UAEXI@Z 100063e0 f i Dlg_CClk.obj
 0001:00005410       ?GetPrecisionDefault@CPrecision@@UAEIXZ 10006410 f i Dlg_CClk.obj
 0001:00005430       ?SetPrecisionDefault@CPrecision@@UAEXI@Z 10006430 f i Dlg_CClk.obj
 0001:00005460       ?GetWorldBase@CPrecision@@UAEJXZ 10006460 f i Dlg_CClk.obj
 0001:00005480       ?SetWorldBase@CPrecision@@UAEXJ@Z 10006480 f i Dlg_CClk.obj
 0001:000054b0       ?GetWorldBaseOld@CPrecision@@UAEJXZ 100064b0 f i Dlg_CClk.obj
 0001:000054d0       ?SetWorldBaseOld@CPrecision@@UAEXJ@Z 100064d0 f i Dlg_CClk.obj
 0001:00005500       ?GetWorldBaseDefault@CPrecision@@UAEJXZ 10006500 f i Dlg_CClk.obj
 0001:00005520       ?SetWorldBaseDefault@CPrecision@@UAEXJ@Z 10006520 f i Dlg_CClk.obj
 0001:00005550       ??1CPrecision@@UAE@XZ      10006550 f i Dlg_CClk.obj
 0001:00005580       ??_GCPrecision@@UAEPAXI@Z  10006580 f i Dlg_CClk.obj
 0001:000055c0       ??_ECPrecision@@UAEPAXI@Z  100065c0 f i Dlg_CClk.obj
 0001:00005640       ?GetObjectType@CScaleFactor@@UAEHXZ 10006640 f i Dlg_CClk.obj
 0001:00005660       ?SetObjectType@CScaleFactor@@UAEXH@Z 10006660 f i Dlg_CClk.obj
 0001:00005690       ?GetElemType@CScaleFactor@@UAEHXZ 10006690 f i Dlg_CClk.obj
 0001:000056b0       ?SetElemType@CScaleFactor@@UAEXH@Z 100066b0 f i Dlg_CClk.obj
 0001:000056e0       ?GetObjectNo@CScaleFactor@@UAEJXZ 100066e0 f i Dlg_CClk.obj
 0001:00005700       ?SetObjectNo@CScaleFactor@@UAEXJ@Z 10006700 f i Dlg_CClk.obj
 0001:00005730       ?GetScaleFactor@CScaleFactor@@UAENXZ 10006730 f i Dlg_CClk.obj
 0001:00005750       ?SetScaleFactor@CScaleFactor@@UAEXN@Z 10006750 f i Dlg_CClk.obj
 0001:00005780       ?GetScaleFactorOld@CScaleFactor@@UAENXZ 10006780 f i Dlg_CClk.obj
 0001:000057a0       ?SetScaleFactorOld@CScaleFactor@@UAEXN@Z 100067a0 f i Dlg_CClk.obj
 0001:000057d0       ?GetScaleFactorDefault@CScaleFactor@@UAENXZ 100067d0 f i Dlg_CClk.obj
 0001:000057f0       ?SetScaleFactorDefault@CScaleFactor@@UAEXN@Z 100067f0 f i Dlg_CClk.obj
 0001:00005820       ??1CScaleFactor@@UAE@XZ    10006820 f i Dlg_CClk.obj
 0001:00005850       ??_GCScaleFactor@@UAEPAXI@Z 10006850 f i Dlg_CClk.obj
 0001:00005890       ??_ECScaleFactor@@UAEPAXI@Z 10006890 f i Dlg_CClk.obj
 0001:00005910       ?GetObjectType@CUnit@@UAEHXZ 10006910 f i Dlg_CClk.obj
 0001:00005930       ?SetObjectType@CUnit@@UAEXH@Z 10006930 f i Dlg_CClk.obj
 0001:00005960       ?GetElemType@CUnit@@UAEHXZ 10006960 f i Dlg_CClk.obj
 0001:00005980       ?SetElemType@CUnit@@UAEXH@Z 10006980 f i Dlg_CClk.obj
 0001:000059b0       ?GetObjectNo@CUnit@@UAEJXZ 100069b0 f i Dlg_CClk.obj
 0001:000059d0       ?SetObjectNo@CUnit@@UAEXJ@Z 100069d0 f i Dlg_CClk.obj
 0001:00005a00       ?GetUnitName@CUnit@@UAE?AVCString@@I@Z 10006a00 f i Dlg_CClk.obj
 0001:00005a40       ?GetUnitIndex@CUnit@@UAEIXZ 10006a40 f i Dlg_CClk.obj
 0001:00005a60       ?SetUnitIndex@CUnit@@UAEXI@Z 10006a60 f i Dlg_CClk.obj
 0001:00005a90       ?GetUnitIndexOld@CUnit@@UAEIXZ 10006a90 f i Dlg_CClk.obj
 0001:00005ab0       ?SetUnitIndexOld@CUnit@@UAEXI@Z 10006ab0 f i Dlg_CClk.obj
 0001:00005ae0       ?GetUnitIndexDefault@CUnit@@UAEIXZ 10006ae0 f i Dlg_CClk.obj
 0001:00005b00       ?SetUnitIndexDefault@CUnit@@UAEXI@Z 10006b00 f i Dlg_CClk.obj
 0001:00005b30       ?GetUnitNameCount@CUnit@@UAEIXZ 10006b30 f i Dlg_CClk.obj
 0001:00005b50       ?SetUnitNameCount@CUnit@@UAEXI@Z 10006b50 f i Dlg_CClk.obj
 0001:00005b80       ??1CUnit@@UAE@XZ           10006b80 f i Dlg_CClk.obj
 0001:00005bf0       ??_GCUnit@@UAEPAXI@Z       10006bf0 f i Dlg_CClk.obj
 0001:00005c30       ??_ECUnit@@UAEPAXI@Z       10006c30 f i Dlg_CClk.obj
 0001:00005cb0       ??1CDataRowHint@@UAE@XZ    10006cb0 f i Dlg_CClk.obj
 0001:00005cd0       ?GetMapFactor@CObjectMgr@@UAEPAVCMapFactor@@XZ 10006cd0 f i Dlg_CClk.obj
 0001:00005cf0       ?GetPrecision@CObjectMgr@@UAEPAVCPrecision@@XZ 10006cf0 f i Dlg_CClk.obj
 0001:00005d10       ?GetScaleFactor@CObjectMgr@@UAEPAVCScaleFactor@@XZ 10006d10 f i Dlg_CClk.obj
 0001:00005d30       ?GetUnit@CObjectMgr@@UAEPAVCUnit@@XZ 10006d30 f i Dlg_CClk.obj
 0001:00005d50       ?GetObjectListFromIndex@CObjectMgr@@UAEPAVCDListMgr@@H@Z 10006d50 f i Dlg_CClk.obj
 0001:00005d90       ?IsSceneChanged@CObjectMgr@@UAEHXZ 10006d90 f i Dlg_CClk.obj
 0001:00005db0       ?SetSceneChanged@CObjectMgr@@UAEXH@Z 10006db0 f i Dlg_CClk.obj
 0001:00005de0       ?IsViewChanged@CObjectMgr@@UAEHXZ 10006de0 f i Dlg_CClk.obj
 0001:00005e00       ?SetViewChanged@CObjectMgr@@UAEXH@Z 10006e00 f i Dlg_CClk.obj
 0001:00005e30       ?GetMasterLastObjectNo@CObjectMgr@@UAEIXZ 10006e30 f i Dlg_CClk.obj
 0001:00005e50       ?SetMasterLastObjectNo@CObjectMgr@@UAEXI@Z 10006e50 f i Dlg_CClk.obj
 0001:00005e80       ?GetActiveObjectNo@CObjectMgr@@UAEIXZ 10006e80 f i Dlg_CClk.obj
 0001:00005ea0       ?SetActiveObjectNo@CObjectMgr@@UAEXI@Z 10006ea0 f i Dlg_CClk.obj
 0001:00005ed0       ?GetActiveListIndex@CObjectMgr@@UAEHXZ 10006ed0 f i Dlg_CClk.obj
 0001:00005ef0       ?SetActiveListIndex@CObjectMgr@@UAEXH@Z 10006ef0 f i Dlg_CClk.obj
 0001:00005f20       ?GetActiveObjectIndex@CObjectMgr@@UAEHXZ 10006f20 f i Dlg_CClk.obj
 0001:00005f40       ?SetActiveObjectIndex@CObjectMgr@@UAEXH@Z 10006f40 f i Dlg_CClk.obj
 0001:00005f70       ?GetActiveObjectType@CObjectMgr@@UAEHXZ 10006f70 f i Dlg_CClk.obj
 0001:00005f90       ?SetActiveObjectType@CObjectMgr@@UAEXH@Z 10006f90 f i Dlg_CClk.obj
 0001:00005fc0       ?GetRowList@CObjectMgr@@QAEPAV?$CList@JJ@@XZ 10006fc0 f i Dlg_CClk.obj
 0001:00005fe0       ?GetRowCount@CObjectMgr@@QAEHXZ 10006fe0 f i Dlg_CClk.obj
 0001:00006010       ?GetActiveRowIndex@CObjectMgr@@QAEHXZ 10007010 f i Dlg_CClk.obj
 0001:00006030       ?SetActiveRowIndex@CObjectMgr@@QAEXH@Z 10007030 f i Dlg_CClk.obj
 0001:00006060       ?GetFormat@CObjectMgr@@UAE?AVCString@@XZ 10007060 f i Dlg_CClk.obj
 0001:000060a0       ?IsMeshGenOn@CObjectMgr@@UAEHXZ 100070a0 f i Dlg_CClk.obj
 0001:000060c0       ?SetMeshGenOn@CObjectMgr@@UAEXH@Z 100070c0 f i Dlg_CClk.obj
 0001:000060f0       ?GetMeshType@CObjectMgr@@UAEIXZ 100070f0 f i Dlg_CClk.obj
 0001:00006110       ?SetMeshType@CObjectMgr@@UAEXI@Z 10007110 f i Dlg_CClk.obj
 0001:00006140       ?GetCurrentTopLevel@CObjectMgr@@UAEHXZ 10007140 f i Dlg_CClk.obj
 0001:00006160       ?SetCurrentTopLevel@CObjectMgr@@UAEXH@Z 10007160 f i Dlg_CClk.obj
 0001:00006190       ?GetObjectType@CElemInfo@@UAEHXZ 10007190 f i Dlg_CClk.obj
 0001:000061b0       ?SetObjectType@CElemInfo@@UAEXH@Z 100071b0 f i Dlg_CClk.obj
 0001:000061e0       ?GetElemType@CElemInfo@@UAEHXZ 100071e0 f i Dlg_CClk.obj
 0001:00006200       ?SetElemType@CElemInfo@@UAEXH@Z 10007200 f i Dlg_CClk.obj
 0001:00006230       ?GetObjectNo@CElemInfo@@UAEJXZ 10007230 f i Dlg_CClk.obj
 0001:00006250       ?SetObjectNo@CElemInfo@@UAEXJ@Z 10007250 f i Dlg_CClk.obj
 0001:00006280       ?GetInfoList@CElemInfo@@UAEPAVCDListMgr@@H@Z 10007280 f i Dlg_CClk.obj
 0001:000062b0       ??1CElemInfo@@UAE@XZ       100072b0 f i Dlg_CClk.obj
 0001:00006320       ??_GCElemInfo@@UAEPAXI@Z   10007320 f i Dlg_CClk.obj
 0001:00006360       ??_ECElemInfo@@UAEPAXI@Z   10007360 f i Dlg_CClk.obj
 0001:000063e0       ??1CMeshRowHint@@UAE@XZ    100073e0 f i Dlg_CClk.obj
 0001:00006400       ?GetRowList@CMsObjMgr@@QAEPAV?$CList@JJ@@XZ 10007400 f i Dlg_CClk.obj
 0001:00006420       ?GetRowCount@CMsObjMgr@@QAEHXZ 10007420 f i Dlg_CClk.obj
 0001:00006450       ?GetActiveRowIndex@CMsObjMgr@@QAEHXZ 10007450 f i Dlg_CClk.obj
 0001:00006470       ?SetActiveRowIndex@CMsObjMgr@@QAEXH@Z 10007470 f i Dlg_CClk.obj
 0001:000064a0       ??1CBaseRowHint@@UAE@XZ    100074a0 f i Dlg_CClk.obj
 0001:000064c0       ?GetCurrentItem@CDbObjMgr@@QAEAAVCString@@XZ 100074c0 f i Dlg_CClk.obj
 0001:000064e0       ?SetCurrentItem@CDbObjMgr@@QAEXAAVCString@@@Z 100074e0 f i Dlg_CClk.obj
 0001:00006510       ?GetCurrentParent@CDbObjMgr@@QAEAAVCString@@XZ 10007510 f i Dlg_CClk.obj
 0001:00006530       ?SetCurrentParent@CDbObjMgr@@QAEXAAVCString@@@Z 10007530 f i Dlg_CClk.obj
 0001:00006560       ??1CAxDataRowHint@@UAE@XZ  10007560 f i Dlg_CClk.obj
 0001:00006580       ?GetMapFactor@CAxObjMgr@@UAEPAVCMapFactor@@XZ 10007580 f i Dlg_CClk.obj
 0001:000065a0       ?GetPrecision@CAxObjMgr@@UAEPAVCPrecision@@XZ 100075a0 f i Dlg_CClk.obj
 0001:000065c0       ?GetScaleFactor@CAxObjMgr@@UAEPAVCScaleFactor@@XZ 100075c0 f i Dlg_CClk.obj
 0001:000065e0       ?GetUnit@CAxObjMgr@@UAEPAVCUnit@@XZ 100075e0 f i Dlg_CClk.obj
 0001:00006600       ?GetObjectListFromIndex@CAxObjMgr@@UAEPAVCDListMgr@@H@Z 10007600 f i Dlg_CClk.obj
 0001:00006640       ?IsSceneChanged@CAxObjMgr@@UAEHXZ 10007640 f i Dlg_CClk.obj
 0001:00006660       ?SetSceneChanged@CAxObjMgr@@UAEXH@Z 10007660 f i Dlg_CClk.obj
 0001:00006690       ?IsViewChanged@CAxObjMgr@@UAEHXZ 10007690 f i Dlg_CClk.obj
 0001:000066b0       ?SetViewChanged@CAxObjMgr@@UAEXH@Z 100076b0 f i Dlg_CClk.obj
 0001:000066e0       ?GetMasterLastObjectNo@CAxObjMgr@@UAEIXZ 100076e0 f i Dlg_CClk.obj
 0001:00006700       ?SetMasterLastObjectNo@CAxObjMgr@@UAEXI@Z 10007700 f i Dlg_CClk.obj
 0001:00006730       ?GetActiveObjectNo@CAxObjMgr@@UAEIXZ 10007730 f i Dlg_CClk.obj
 0001:00006750       ?SetActiveObjectNo@CAxObjMgr@@UAEXI@Z 10007750 f i Dlg_CClk.obj
 0001:00006780       ?GetActiveListIndex@CAxObjMgr@@UAEHXZ 10007780 f i Dlg_CClk.obj
 0001:000067a0       ?SetActiveListIndex@CAxObjMgr@@UAEXH@Z 100077a0 f i Dlg_CClk.obj
 0001:000067d0       ?GetActiveObjectIndex@CAxObjMgr@@UAEHXZ 100077d0 f i Dlg_CClk.obj
 0001:000067f0       ?SetActiveObjectIndex@CAxObjMgr@@UAEXH@Z 100077f0 f i Dlg_CClk.obj
 0001:00006820       ?GetActiveObjectType@CAxObjMgr@@UAEHXZ 10007820 f i Dlg_CClk.obj
 0001:00006840       ?SetActiveObjectType@CAxObjMgr@@UAEXH@Z 10007840 f i Dlg_CClk.obj
 0001:00006870       ?GetRowList@CAxObjMgr@@QAEPAV?$CList@JJ@@XZ 10007870 f i Dlg_CClk.obj
 0001:00006890       ?GetRowCount@CAxObjMgr@@QAEHXZ 10007890 f i Dlg_CClk.obj
 0001:000068c0       ?GetActiveRowIndex@CAxObjMgr@@QAEHXZ 100078c0 f i Dlg_CClk.obj
 0001:000068e0       ?SetActiveRowIndex@CAxObjMgr@@QAEXH@Z 100078e0 f i Dlg_CClk.obj
 0001:00006910       ?GetFormat@CAxObjMgr@@UAE?AVCString@@XZ 10007910 f i Dlg_CClk.obj
 0001:00006950       ?IsMeshGenOn@CAxObjMgr@@UAEHXZ 10007950 f i Dlg_CClk.obj
 0001:00006970       ?SetMeshGenOn@CAxObjMgr@@UAEXH@Z 10007970 f i Dlg_CClk.obj
 0001:000069a0       ?GetMeshType@CAxObjMgr@@UAEIXZ 100079a0 f i Dlg_CClk.obj
 0001:000069c0       ?SetMeshType@CAxObjMgr@@UAEXI@Z 100079c0 f i Dlg_CClk.obj
 0001:000069f0       ?GetCurrentTopLevel@CAxObjMgr@@UAEHXZ 100079f0 f i Dlg_CClk.obj
 0001:00006a10       ?SetCurrentTopLevel@CAxObjMgr@@UAEXH@Z 10007a10 f i Dlg_CClk.obj
 0001:00006a40       ?Parse_drPipe@CDrNode@@UAEPAUnodecard@@PAVCString@@@Z 10007a40 f i Dlg_CClk.obj
 0001:00006a60       ?GetNodeCard@CDrNode@@UAEPAUnodecard@@XZ 10007a60 f i Dlg_CClk.obj
 0001:00006a80       ?GetCardNo@CDrNode@@UAEHXZ 10007a80 f i Dlg_CClk.obj
 0001:00006aa0       ?SetCardNo@CDrNode@@UAEXH@Z 10007aa0 f i Dlg_CClk.obj
 0001:00006ad0       ?DoFormattedCardView@CDrNode@@UAEXPAVCString@@AAV2@@Z 10007ad0 f i Dlg_CClk.obj
 0001:00006af0       ?DoUnFormattedCardView@CDrNode@@UAEXPAVCString@@@Z 10007af0 f i Dlg_CClk.obj
 0001:00006b10       ?GetMaxCorners@CDrNode@@UAEHXZ 10007b10 f i Dlg_CClk.obj
 0001:00006b30       ?GetCategory@CDrNode@@UAE?AW4CATEGORY@@XZ 10007b30 f i Dlg_CClk.obj
 0001:00006b50       ?SetCategory@CDrNode@@UAEXW4CATEGORY@@@Z 10007b50 f i Dlg_CClk.obj
 0001:00006b70       ?GetPrecision@CDrNode@@UAEHXZ 10007b70 f i Dlg_CClk.obj
 0001:00006b90       ?SetPrecision@CDrNode@@UAEXH@Z 10007b90 f i Dlg_CClk.obj
 0001:00006bc0       ?GetFormat@CDrNode@@QAE?AVCString@@XZ 10007bc0 f i Dlg_CClk.obj
 0001:00006c00       ?SetFormat@CDrNode@@QAEXVCString@@@Z 10007c00 f i Dlg_CClk.obj
 0001:00006c60       ?GetMapFactor@CDrNode@@QAENXZ 10007c60 f i Dlg_CClk.obj
 0001:00006c80       ?SetMapFactor@CDrNode@@QAEXN@Z 10007c80 f i Dlg_CClk.obj
 0001:00006cb0       ?GetScaleFactor@CDrNode@@QAENXZ 10007cb0 f i Dlg_CClk.obj
 0001:00006cd0       ?SetScaleFactor@CDrNode@@QAEXN@Z 10007cd0 f i Dlg_CClk.obj
 0001:00006d00       ?GetMasterMultFac@CDrNode@@QAEJXZ 10007d00 f i Dlg_CClk.obj
 0001:00006d20       ?SetMasterMultFac@CDrNode@@QAEXJ@Z 10007d20 f i Dlg_CClk.obj
 0001:00006d50       ?GetLocalPos@CDrNode@@UAEPAUWORLD@@XZ 10007d50 f i Dlg_CClk.obj
 0001:00006d70       ?SetLocalPos@CDrNode@@UAEXUWORLD@@@Z 10007d70 f i Dlg_CClk.obj
 0001:00006da0       ?GetWorldPos@CDrNode@@UAEPAUWORLD@@XZ 10007da0 f i Dlg_CClk.obj
 0001:00006dc0       ?SetWorldPos@CDrNode@@UAEXUWORLD@@@Z 10007dc0 f i Dlg_CClk.obj
 0001:00006df0       ?GetEyePos@CDrNode@@UAEPAUWORLD@@XZ 10007df0 f i Dlg_CClk.obj
 0001:00006e10       ?SetEyePos@CDrNode@@UAEXUWORLD@@@Z 10007e10 f i Dlg_CClk.obj
 0001:00006e40       ?GetScreenPos3D@CDrNode@@UAEPAUWORLD@@XZ 10007e40 f i Dlg_CClk.obj
 0001:00006e60       ?SetScreenPos3D@CDrNode@@UAEXUWORLD@@@Z 10007e60 f i Dlg_CClk.obj
 0001:00006e90       ?GetScreenPos2D@CDrNode@@UAEPAUtagPOINT@@XZ 10007e90 f i Dlg_CClk.obj
 0001:00006eb0       ?SetScreenPos2D@CDrNode@@UAEXUtagPOINT@@@Z 10007eb0 f i Dlg_CClk.obj
 0001:00006ee0       ?GetNormalWorld@CDrNode@@UAEPAUWORLD@@XZ 10007ee0 f i Dlg_CClk.obj
 0001:00006f00       ?SetNormalWorld@CDrNode@@UAEXUWORLD@@@Z 10007f00 f i Dlg_CClk.obj
 0001:00006f30       ?GetNormalEye@CDrNode@@UAEPAUWORLD@@XZ 10007f30 f i Dlg_CClk.obj
 0001:00006f50       ?SetNormalEye@CDrNode@@UAEXUWORLD@@@Z 10007f50 f i Dlg_CClk.obj
 0001:00006f80       ?GetNormalScreen3D@CDrNode@@UAEPAUWORLD@@XZ 10007f80 f i Dlg_CClk.obj
 0001:00006fa0       ?SetNormalScreen3D@CDrNode@@UAEXUWORLD@@@Z 10007fa0 f i Dlg_CClk.obj
 0001:00006fd0       ?GetNormalScreen2D@CDrNode@@UAEPAUtagPOINT@@XZ 10007fd0 f i Dlg_CClk.obj
 0001:00006ff0       ?SetNormalScreen2D@CDrNode@@UAEXUtagPOINT@@@Z 10007ff0 f i Dlg_CClk.obj
 0001:00007020       ?GetLabelNo@CDrNode@@QAEJXZ 10008020 f i Dlg_CClk.obj
 0001:00007040       ?SetLabelNo@CDrNode@@QAEXJ@Z 10008040 f i Dlg_CClk.obj
 0001:00007070       ?IsMeshNode@CDrNode@@QAEHXZ 10008070 f i Dlg_CClk.obj
 0001:00007090       ?SetMeshNode@CDrNode@@QAEXH@Z 10008090 f i Dlg_CClk.obj
 0001:000070c0       ?IsGenerated@CDrNode@@QAEHXZ 100080c0 f i Dlg_CClk.obj
 0001:000070e0       ?SetGenerated@CDrNode@@QAEXH@Z 100080e0 f i Dlg_CClk.obj
 0001:00007110       ?IsControlNode@CDrNode@@QAEHXZ 10008110 f i Dlg_CClk.obj
 0001:00007140       ?SetControlNode@CDrNode@@QAEXH@Z 10008140 f i Dlg_CClk.obj
 0001:00007170       ?GetInputMode@CDrNode@@QAEHXZ 10008170 f i Dlg_CClk.obj
 0001:00007190       ?SetInputMode@CDrNode@@QAEXH@Z 10008190 f i Dlg_CClk.obj
 0001:000071c0       ?GetLength@CDrNode@@QAENXZ 100081c0 f i Dlg_CClk.obj
 0001:000071e0       ?SetLength@CDrNode@@QAEXN@Z 100081e0 f i Dlg_CClk.obj
 0001:00007210       ?GetDelta@CDrNode@@QAEPAUWORLD@@XZ 10008210 f i Dlg_CClk.obj
 0001:00007230       ?SetDelta@CDrNode@@QAEXUWORLD@@@Z 10008230 f i Dlg_CClk.obj
 0001:00007260       ?GetFromID@CDrNode@@QAE?AVCString@@XZ 10008260 f i Dlg_CClk.obj
 0001:000072a0       ?SetFromID@CDrNode@@QAEXVCString@@@Z 100082a0 f i Dlg_CClk.obj
 0001:00007300       ?GetToID@CDrNode@@QAE?AVCString@@XZ 10008300 f i Dlg_CClk.obj
 0001:00007340       ?SetToID@CDrNode@@QAEXVCString@@@Z 10008340 f i Dlg_CClk.obj
 0001:000073a0       ?IsRefCN@CDrNode@@QAEHXZ   100083a0 f i Dlg_CClk.obj
 0001:000073c0       ?SetRefCN@CDrNode@@QAEXH@Z 100083c0 f i Dlg_CClk.obj
 0001:000073f0       ?IsFromCN@CDrNode@@QAEHXZ  100083f0 f i Dlg_CClk.obj
 0001:00007410       ?SetFromCN@CDrNode@@QAEXH@Z 10008410 f i Dlg_CClk.obj
 0001:00007440       ?IsToCN@CDrNode@@QAEHXZ    10008440 f i Dlg_CClk.obj
 0001:00007460       ?SetToCN@CDrNode@@QAEXH@Z  10008460 f i Dlg_CClk.obj
 0001:00007490       ?IsSkewed@CDrNode@@UAEHXZ  10008490 f i Dlg_CClk.obj
 0001:000074b0       ?SetSkewed@CDrNode@@UAEXH@Z 100084b0 f i Dlg_CClk.obj
 0001:000074e0       ?IsLinSpr@CDrNode@@UAEHXZ  100084e0 f i Dlg_CClk.obj
 0001:00007500       ?SetLinSpr@CDrNode@@UAEXH@Z 10008500 f i Dlg_CClk.obj
 0001:00007530       ?IsLinSnu@CDrNode@@UAEHXZ  10008530 f i Dlg_CClk.obj
 0001:00007550       ?SetLinSnu@CDrNode@@UAEXH@Z 10008550 f i Dlg_CClk.obj
 0001:00007580       ?GetSuppCardList@CDrNode@@QAEPAV?$CList@Usupportcard@@U1@@@XZ 10008580 f i Dlg_CClk.obj
 0001:000075a0       ?GetStaLCardList@CDrNode@@QAEPAV?$CList@UstaLcard@@U1@@@XZ 100085a0 f i Dlg_CClk.obj
 0001:000075c0       ?IsDirty@CDrCurve@@UAEHXZ  100085c0 f i Dlg_CClk.obj
 0001:000075e0       ?SetDirty@CDrCurve@@UAEXH@Z 100085e0 f i Dlg_CClk.obj
 0001:00007610       ?IsControlShapeNeeded@CDrCurve@@UAEHXZ 10008610 f i Dlg_CClk.obj
 0001:00007630       ?SetControlShapeNeed@CDrCurve@@UAEXH@Z 10008630 f i Dlg_CClk.obj
 0001:00007660       ?IsPosted@CDrCurve@@UAEHXZ 10008660 f i Dlg_CClk.obj
 0001:00007680       ?SetPosted@CDrCurve@@UAEXH@Z 10008680 f i Dlg_CClk.obj
 0001:000076b0       ?GetCN_BSList@CDrCurve@@QAEPAVCDListMgr@@XZ 100086b0 f i Dlg_CClk.obj
 0001:000076d0       ?GetVNodeList@CDrCurve@@QAEPAVCDListMgr@@XZ 100086d0 f i Dlg_CClk.obj
 0001:000076f0       ?GetMeshElemDim@CDrCurve@@QAEHXZ 100086f0 f i Dlg_CClk.obj
 0001:00007710       ?SetMeshElemDim@CDrCurve@@QAEXH@Z 10008710 f i Dlg_CClk.obj
 0001:00007740       ?IsIso@CDrCurve@@QAEHXZ    10008740 f i Dlg_CClk.obj
 0001:00007760       ?SetIso@CDrCurve@@QAEXH@Z  10008760 f i Dlg_CClk.obj
 0001:00007790       ?GetIsoToID@CDrCurve@@QAEAAVCString@@XZ 10008790 f i Dlg_CClk.obj
 0001:000077b0       ?SetIsoToID@CDrCurve@@QAEXAAVCString@@@Z 100087b0 f i Dlg_CClk.obj
 0001:000077e0       ?GetCompoType@CDrCurve@@QAEHXZ 100087e0 f i Dlg_CClk.obj
 0001:00007800       ?SetCompoType@CDrCurve@@QAEXH@Z 10008800 f i Dlg_CClk.obj
 0001:00007830       ?GetCompoID@CDrCurve@@QAEAAVCString@@XZ 10008830 f i Dlg_CClk.obj
 0001:00007850       ?SetCompoID@CDrCurve@@QAEXAAVCString@@@Z 10008850 f i Dlg_CClk.obj
 0001:00007880       ?GetClass_S@CDrCurve@@QAEHXZ 10008880 f i Dlg_CClk.obj
 0001:000078a0       ?SetClass_S@CDrCurve@@QAEXH@Z 100088a0 f i Dlg_CClk.obj
 0001:000078d0       ?GetOutSegUnif_S@CDrCurve@@QAEHXZ 100088d0 f i Dlg_CClk.obj
 0001:000078f0       ?SetOutSegUnif_S@CDrCurve@@QAEXH@Z 100088f0 f i Dlg_CClk.obj
 0001:00007920       ?IsClosed_S@CDrCurve@@QAEHXZ 10008920 f i Dlg_CClk.obj
 0001:00007940       ?SetClosed_S@CDrCurve@@QAEXH@Z 10008940 f i Dlg_CClk.obj
 0001:00007970       ?GetCurveObjectType@CDrCurve@@QAEHXZ 10008970 f i Dlg_CClk.obj
 0001:00007990       ?SetCurveObjectType@CDrCurve@@QAEXH@Z 10008990 f i Dlg_CClk.obj
 0001:000079c0       ?GetMaxINodes_S@CDrCurve@@QAEHXZ 100089c0 f i Dlg_CClk.obj
 0001:000079e0       ?SetMaxINodes_S@CDrCurve@@QAEXH@Z 100089e0 f i Dlg_CClk.obj
 0001:00007a10       ?GetMaxCNodes_S@CDrCurve@@QAEHXZ 10008a10 f i Dlg_CClk.obj
 0001:00007a30       ?SetMaxCNodes_S@CDrCurve@@QAEXH@Z 10008a30 f i Dlg_CClk.obj
 0001:00007a60       ?GetMaxBezSegments_S@CDrCurve@@QAEHXZ 10008a60 f i Dlg_CClk.obj
 0001:00007a80       ?SetMaxBezSegments_S@CDrCurve@@QAEXH@Z 10008a80 f i Dlg_CClk.obj
 0001:00007ab0       ?GetMaxOutPts_S@CDrCurve@@QAEHXZ 10008ab0 f i Dlg_CClk.obj
 0001:00007ad0       ?SetMaxOutPts_S@CDrCurve@@QAEXH@Z 10008ad0 f i Dlg_CClk.obj
 0001:00007b00       ?GetLongOutPts@CDrCurve@@QAEJXZ 10008b00 f i Dlg_CClk.obj
 0001:00007b20       ?SetLongOutPts@CDrCurve@@QAEXJ@Z 10008b20 f i Dlg_CClk.obj
 0001:00007b50       ?GetCurveType_S@CDrCurve@@QAE?AW4CURVEPROC@@XZ 10008b50 f i Dlg_CClk.obj
 0001:00007b70       ?SetCurveType_S@CDrCurve@@QAEXW4CURVEPROC@@@Z 10008b70 f i Dlg_CClk.obj
 0001:00007ba0       ?GetOutMethod@CDrCurve@@QAE?AW4CURVEOUTPUT@@XZ 10008ba0 f i Dlg_CClk.obj
 0001:00007bc0       ?GetAlfa@CDrCurve@@QAENXZ  10008bc0 f i Dlg_CClk.obj
 0001:00007be0       ?GetBias@CDrCurve@@QAENXZ  10008be0 f i Dlg_CClk.obj
 0001:00007c00       ?GetTension@CDrCurve@@QAENXZ 10008c00 f i Dlg_CClk.obj
 0001:00007c20       ?IsUniform_S@CDrCurve@@QAEHXZ 10008c20 f i Dlg_CClk.obj
 0001:00007c40       ?SetUniform_S@CDrCurve@@QAEXH@Z 10008c40 f i Dlg_CClk.obj
 0001:00007c70       ?SetOutMethod_S@CDrCurve@@QAEXW4CURVEOUTPUT@@@Z 10008c70 f i Dlg_CClk.obj
 0001:00007ca0       ?GetMaxOutSeg_S@CDrCurve@@QAEHXZ 10008ca0 f i Dlg_CClk.obj
 0001:00007cc0       ?SetMaxOutSeg_S@CDrCurve@@QAEXH@Z 10008cc0 f i Dlg_CClk.obj
 0001:00007cf0       ?GetDis_AngPointer_S@CDrCurve@@QAEPANXZ 10008cf0 f i Dlg_CClk.obj
 0001:00007d10       ?SetDis_AngPointer_S@CDrCurve@@QAEXPAN@Z 10008d10 f i Dlg_CClk.obj
 0001:00007d40       ?GetNum_tPointer_S@CDrCurve@@QAEPAHXZ 10008d40 f i Dlg_CClk.obj
 0001:00007d60       ?SetNum_tPointer_S@CDrCurve@@QAEXPAH@Z 10008d60 f i Dlg_CClk.obj
 0001:00007d90       ?GetDis_tPointer_S@CDrCurve@@QAEPANXZ 10008d90 f i Dlg_CClk.obj
 0001:00007db0       ?SetDis_tPointer_S@CDrCurve@@QAEXPAN@Z 10008db0 f i Dlg_CClk.obj
 0001:00007de0       ?GetNum_tPointer_Ex_S@CDrCurve@@QAEPAHXZ 10008de0 f i Dlg_CClk.obj
 0001:00007e00       ?SetNum_tPointer_Ex_S@CDrCurve@@QAEXPAH@Z 10008e00 f i Dlg_CClk.obj
 0001:00007e30       ?GetnBSeg_Ex_S@CDrCurve@@QAEHXZ 10008e30 f i Dlg_CClk.obj
 0001:00007e50       ?SetnBSeg_Ex_S@CDrCurve@@QAEXH@Z 10008e50 f i Dlg_CClk.obj
 0001:00007e80       ?GetBSegPointer_Ex_S@CDrCurve@@QAEPAHXZ 10008e80 f i Dlg_CClk.obj
 0001:00007ea0       ?SetBSegPointer_Ex_S@CDrCurve@@QAEXPAH@Z 10008ea0 f i Dlg_CClk.obj
 0001:00007ed0       ?SetAlfa@CDrCurve@@QAEXN@Z 10008ed0 f i Dlg_CClk.obj
 0001:00007f00       ?SetBias@CDrCurve@@QAEXN@Z 10008f00 f i Dlg_CClk.obj
 0001:00007f30       ?SetTension@CDrCurve@@QAEXN@Z 10008f30 f i Dlg_CClk.obj
 0001:00007f60       ?GetMemIn@CDrCurve@@QAEPAUWORLD@@XZ 10008f60 f i Dlg_CClk.obj
 0001:00007f80       ?GetMemInWts@CDrCurve@@QAEPANXZ 10008f80 f i Dlg_CClk.obj
 0001:00007fa0       ?GetMemInDP@CDrCurve@@QAEPAUtagPOINT@@XZ 10008fa0 f i Dlg_CClk.obj
 0001:00007fc0       ?GetMemOut@CDrCurve@@QAEPAUWORLD@@XZ 10008fc0 f i Dlg_CClk.obj
 0001:00007fe0       ?GetMemOutWts@CDrCurve@@QAEPANXZ 10008fe0 f i Dlg_CClk.obj
 0001:00008000       ?GetMemOutDP@CDrCurve@@QAEPAUtagPOINT@@XZ 10009000 f i Dlg_CClk.obj
 0001:00008020       ?SetMemIn@CDrCurve@@QAEXPAUWORLD@@@Z 10009020 f i Dlg_CClk.obj
 0001:00008050       ?SetMemInWts@CDrCurve@@QAEXPAN@Z 10009050 f i Dlg_CClk.obj
 0001:00008080       ?SetMemInDP@CDrCurve@@QAEXPAUtagPOINT@@@Z 10009080 f i Dlg_CClk.obj
 0001:000080b0       ?SetMemOut@CDrCurve@@QAEXPAUWORLD@@@Z 100090b0 f i Dlg_CClk.obj
 0001:000080e0       ?SetMemOutWts@CDrCurve@@QAEXPAN@Z 100090e0 f i Dlg_CClk.obj
 0001:00008110       ?SetMemOutDP@CDrCurve@@QAEXPAUtagPOINT@@@Z 10009110 f i Dlg_CClk.obj
 0001:00008140       ?FixMemD@CDrCurve@@QAEPANJ@Z 10009140 f i Dlg_CClk.obj
 0001:00008180       ?FreeMemD@CDrCurve@@QAEXPAN@Z 10009180 f i Dlg_CClk.obj
 0001:000081b0       ?FixMem@CDrCurve@@QAEPAUWORLD@@J@Z 100091b0 f i Dlg_CClk.obj
 0001:000081f0       ?FreeMem@CDrCurve@@QAEXPAUWORLD@@@Z 100091f0 f i Dlg_CClk.obj
 0001:00008220       ?FixMemDP@CDrCurve@@QAEPAUtagPOINT@@J@Z 10009220 f i Dlg_CClk.obj
 0001:00008260       ?FreeMemDP@CDrCurve@@QAEXPAUtagPOINT@@@Z 10009260 f i Dlg_CClk.obj
 0001:00008290       ?GetData_S@CDrCurve@@QAEHXZ 10009290 f i Dlg_CClk.obj
 0001:000082b0       ?SetData_S@CDrCurve@@QAEXH@Z 100092b0 f i Dlg_CClk.obj
 0001:000082e0       ?GetOrder_S@CDrCurve@@QAEHXZ 100092e0 f i Dlg_CClk.obj
 0001:00008300       ?SetOrder_S@CDrCurve@@QAEXH@Z 10009300 f i Dlg_CClk.obj
 0001:00008330       ?GetKnotType_S@CDrCurve@@QAE?AW4KNOT@@XZ 10009330 f i Dlg_CClk.obj
 0001:00008350       ?SetKnotType_S@CDrCurve@@QAEXW4KNOT@@@Z 10009350 f i Dlg_CClk.obj
 0001:00008380       ?GetWtType_S@CDrCurve@@QAE?AW4WEIGHT@@XZ 10009380 f i Dlg_CClk.obj
 0001:000083a0       ?SetWtType_S@CDrCurve@@QAEXW4WEIGHT@@@Z 100093a0 f i Dlg_CClk.obj
 0001:000083d0       ?GetBCL_S@CDrCurve@@QAE?AW4BOUNDARY@@XZ 100093d0 f i Dlg_CClk.obj
 0001:000083f0       ?SetBCL_S@CDrCurve@@QAEXW4BOUNDARY@@@Z 100093f0 f i Dlg_CClk.obj
 0001:00008420       ?GetBCR_S@CDrCurve@@QAE?AW4BOUNDARY@@XZ 10009420 f i Dlg_CClk.obj
 0001:00008440       ?SetBCR_S@CDrCurve@@QAEXW4BOUNDARY@@@Z 10009440 f i Dlg_CClk.obj
 0001:00008470       ?GetTanL_S@CDrCurve@@QAE?AUVECTOR@@XZ 10009470 f i Dlg_CClk.obj
 0001:000084a0       ?SetTanL_S@CDrCurve@@QAEXUVECTOR@@@Z 100094a0 f i Dlg_CClk.obj
 0001:000084d0       ?GetTanR_S@CDrCurve@@QAE?AUVECTOR@@XZ 100094d0 f i Dlg_CClk.obj
 0001:00008500       ?SetTanR_S@CDrCurve@@QAEXUVECTOR@@@Z 10009500 f i Dlg_CClk.obj
 0001:00008530       ?GetnCon_BS_S@CDrCurve@@QAEHXZ 10009530 f i Dlg_CClk.obj
 0001:00008550       ?SetnCon_BS_S@CDrCurve@@QAEXH@Z 10009550 f i Dlg_CClk.obj
 0001:00008580       ?GetnCon_BZ_S@CDrCurve@@QAEHXZ 10009580 f i Dlg_CClk.obj
 0001:000085a0       ?SetnCon_BZ_S@CDrCurve@@QAEXH@Z 100095a0 f i Dlg_CClk.obj
 0001:000085d0       ?GetnMKnots_S@CDrCurve@@QAEHXZ 100095d0 f i Dlg_CClk.obj
 0001:000085f0       ?SetnMKnots_S@CDrCurve@@QAEXH@Z 100095f0 f i Dlg_CClk.obj
 0001:00008620       ?GetnKnots_S@CDrCurve@@QAEHXZ 10009620 f i Dlg_CClk.obj
 0001:00008640       ?SetnKnots_S@CDrCurve@@QAEXH@Z 10009640 f i Dlg_CClk.obj
 0001:00008670       ?GetnDim_S@CDrCurve@@QAEHXZ 10009670 f i Dlg_CClk.obj
 0001:00008690       ?SetnDim_S@CDrCurve@@QAEXH@Z 10009690 f i Dlg_CClk.obj
 0001:000086c0       ?GetpMKnots_S@CDrCurve@@QAEPANXZ 100096c0 f i Dlg_CClk.obj
 0001:000086e0       ?SetpMKnots_S@CDrCurve@@QAEXPAN@Z 100096e0 f i Dlg_CClk.obj
 0001:00008710       ?GetpWts_BS_S@CDrCurve@@QAEPANXZ 10009710 f i Dlg_CClk.obj
 0001:00008730       ?SetpWts_BS_S@CDrCurve@@QAEXPAN@Z 10009730 f i Dlg_CClk.obj
 0001:00008760       ?GetpKnots_S@CDrCurve@@QAEPANXZ 10009760 f i Dlg_CClk.obj
 0001:00008780       ?SetpKnots_S@CDrCurve@@QAEXPAN@Z 10009780 f i Dlg_CClk.obj
 0001:000087b0       ?GetpWts_DT_S@CDrCurve@@QAEPANXZ 100097b0 f i Dlg_CClk.obj
 0001:000087d0       ?SetpWts_DT_S@CDrCurve@@QAEXPAN@Z 100097d0 f i Dlg_CClk.obj
 0001:00008800       ?GetpWts_BZ_S@CDrCurve@@QAEPANXZ 10009800 f i Dlg_CClk.obj
 0001:00008820       ?SetpWts_BZ_S@CDrCurve@@QAEXPAN@Z 10009820 f i Dlg_CClk.obj
 0001:00008850       ?GetFromIDNode_S@CDrCurve@@QAEPAVCDrNode@@XZ 10009850 f i Dlg_CClk.obj
 0001:00008870       ?SetFromIDNode_S@CDrCurve@@QAEXPAVCDrNode@@@Z 10009870 f i Dlg_CClk.obj
 0001:000088a0       ?GetToIDNode_S@CDrCurve@@QAEPAVCDrNode@@XZ 100098a0 f i Dlg_CClk.obj
 0001:000088c0       ?SetToIDNode_S@CDrCurve@@QAEXPAVCDrNode@@@Z 100098c0 f i Dlg_CClk.obj
 0001:000088f0       ?GetData_Ex_S@CDrCurve@@QAEHXZ 100098f0 f i Dlg_CClk.obj
 0001:00008910       ?SetData_Ex_S@CDrCurve@@QAEXH@Z 10009910 f i Dlg_CClk.obj
 0001:00008940       ?IsExpanded_S@CDrCurve@@QAEHXZ 10009940 f i Dlg_CClk.obj
 0001:00008960       ?SetExpanded_S@CDrCurve@@QAEXH@Z 10009960 f i Dlg_CClk.obj
 0001:00008990       ?GetMaxENodes_S@CDrCurve@@QAEHXZ 10009990 f i Dlg_CClk.obj
 0001:000089b0       ?SetMaxENodes_S@CDrCurve@@QAEXH@Z 100099b0 f i Dlg_CClk.obj
 0001:000089e0       ?GetRadius_S@CDrCurve@@QAENXZ 100099e0 f i Dlg_CClk.obj
 0001:00008a00       ?SetRadius_S@CDrCurve@@QAEXN@Z 10009a00 f i Dlg_CClk.obj
 0001:00008a30       ?GetTheta_S@CDrCurve@@QAENXZ 10009a30 f i Dlg_CClk.obj
 0001:00008a50       ?SetTheta_S@CDrCurve@@QAEXN@Z 10009a50 f i Dlg_CClk.obj
 0001:00008a80       ?GetCenter_S@CDrCurve@@QAE?AUWORLD@@XZ 10009a80 f i Dlg_CClk.obj
 0001:00008ab0       ?SetCenter_S@CDrCurve@@QAEXUWORLD@@@Z 10009ab0 f i Dlg_CClk.obj
 0001:00008b10       ?GetNormal_S@CDrCurve@@QAE?AUWORLD@@XZ 10009b10 f i Dlg_CClk.obj
 0001:00008b40       ?SetNormal_S@CDrCurve@@QAEXUWORLD@@@Z 10009b40 f i Dlg_CClk.obj
 0001:00008ba0       ?GetSegAngle_S@CDrCurve@@QAENXZ 10009ba0 f i Dlg_CClk.obj
 0001:00008bc0       ?SetSegAngle_S@CDrCurve@@QAEXN@Z 10009bc0 f i Dlg_CClk.obj
 0001:00008bf0       ?GetCNode_CC@CDrCurve@@QAEPAVCDrNode@@XZ 10009bf0 f i Dlg_CClk.obj
 0001:00008c10       ?SetCNode_CC@CDrCurve@@QAEXPAVCDrNode@@@Z 10009c10 f i Dlg_CClk.obj
 0001:00008c40       ?GetCNode_TI@CDrCurve@@QAEPAVCDrNode@@XZ 10009c40 f i Dlg_CClk.obj
 0001:00008c60       ?SetCNode_TI@CDrCurve@@QAEXPAVCDrNode@@@Z 10009c60 f i Dlg_CClk.obj
 0001:00008c90       ?GetCNode_CA@CDrCurve@@QAEPAVCDrNode@@XZ 10009c90 f i Dlg_CClk.obj
 0001:00008cb0       ?SetCNode_CA@CDrCurve@@QAEXPAVCDrNode@@@Z 10009cb0 f i Dlg_CClk.obj
 0001:00008ce0       ?GetCNode_CB@CDrCurve@@QAEPAVCDrNode@@XZ 10009ce0 f i Dlg_CClk.obj
 0001:00008d00       ?SetCNode_CB@CDrCurve@@QAEXPAVCDrNode@@@Z 10009d00 f i Dlg_CClk.obj
 0001:00008d30       ?IsHole_S@CDrCurve@@QAEHXZ 10009d30 f i Dlg_CClk.obj
 0001:00008d50       ?SetHole_S@CDrCurve@@QAEXH@Z 10009d50 f i Dlg_CClk.obj
 0001:00008d80       ?GetpTangents_S@CDrCurve@@QAEPAUWORLD@@XZ 10009d80 f i Dlg_CClk.obj
 0001:00008da0       ?SetpTangents_S@CDrCurve@@QAEXPAUWORLD@@@Z 10009da0 f i Dlg_CClk.obj
 0001:00008dd0       ?GetpCurvatures_S@CDrCurve@@QAEPANXZ 10009dd0 f i Dlg_CClk.obj
 0001:00008df0       ?SetpCurvatures_S@CDrCurve@@QAEXPAN@Z 10009df0 f i Dlg_CClk.obj
 0001:00008e20       ?GetRatio_S@CDrCurve@@QAENXZ 10009e20 f i Dlg_CClk.obj
 0001:00008e40       ?SetRatio_S@CDrCurve@@QAEXN@Z 10009e40 f i Dlg_CClk.obj
 0001:00008e70       ?IsAxisInput@CDrCurve@@QAEHXZ 10009e70 f i Dlg_CClk.obj
 0001:00008e90       ?SetAxisInput@CDrCurve@@QAEXH@Z 10009e90 f i Dlg_CClk.obj
 0001:00008ec0       ?GetAxis@CDrCurve@@QAEHXZ  10009ec0 f i Dlg_CClk.obj
 0001:00008ee0       ?SetAxis@CDrCurve@@QAEXH@Z 10009ee0 f i Dlg_CClk.obj
 0001:00008f10       ?IsNegative@CDrCurve@@QAEHXZ 10009f10 f i Dlg_CClk.obj
 0001:00008f30       ?SetNegative@CDrCurve@@QAEXH@Z 10009f30 f i Dlg_CClk.obj
 0001:00008f60       ?GetCircleType@CDrCurve@@QAE?AW4CIRCLETYPE@@XZ 10009f60 f i Dlg_CClk.obj
 0001:00008f80       ?SetCircleType@CDrCurve@@QAEXW4CIRCLETYPE@@@Z 10009f80 f i Dlg_CClk.obj
 0001:00008fb0       ?GetInputType@CDrCurve@@QAEHXZ 10009fb0 f i Dlg_CClk.obj
 0001:00008fd0       ?SetInputType@CDrCurve@@QAEXH@Z 10009fd0 f i Dlg_CClk.obj
 0001:00009000       ?IsArcType@CDrCurve@@QAEHXZ 1000a000 f i Dlg_CClk.obj
 0001:00009020       ?SetArcType@CDrCurve@@QAEXH@Z 1000a020 f i Dlg_CClk.obj
 0001:00009050       ?GetElperSegList_S@CDrCurve@@QAEPAV?$CList@HH@@XZ 1000a050 f i Dlg_CClk.obj
 0001:00009070       ?IsSkewed@CDrCurve@@UAEHXZ 1000a070 f i Dlg_CClk.obj
 0001:00009090       ?SetSkewed@CDrCurve@@UAEXH@Z 1000a090 f i Dlg_CClk.obj
 0001:000090c0       ?IsLinSpr@CDrCurve@@UAEHXZ 1000a0c0 f i Dlg_CClk.obj
 0001:000090e0       ?SetLinSpr@CDrCurve@@UAEXH@Z 1000a0e0 f i Dlg_CClk.obj
 0001:00009110       ?IsLinSnu@CDrCurve@@UAEHXZ 1000a110 f i Dlg_CClk.obj
 0001:00009130       ?SetLinSnu@CDrCurve@@UAEXH@Z 1000a130 f i Dlg_CClk.obj
 0001:00009160       ?CullWorld@CDrCurve@@UAEHUWORLD@@@Z 1000a160 f i Dlg_CClk.obj
 0001:00009180       ?CullScreen@CDrCurve@@UAEHPAUMATRIX@@@Z 1000a180 f i Dlg_CClk.obj
 0001:000091a0       ?Calc_CentroidWorld@CDrCurve@@UAEXXZ 1000a1a0 f i Dlg_CClk.obj
 0001:000091c0       ?Calc_CentroidEye@CDrCurve@@UAEXXZ 1000a1c0 f i Dlg_CClk.obj
 0001:000091e0       ?Calc_CentroidScreen3D@CDrCurve@@UAEXNN@Z 1000a1e0 f i Dlg_CClk.obj
 0001:00009200       ?Calc_NormalWorld@CDrCurve@@UAEXXZ 1000a200 f i Dlg_CClk.obj
 0001:00009220       ?TransformNormalToEye@CDrCurve@@UAEXPAUMATRIX@@@Z 1000a220 f i Dlg_CClk.obj
 0001:00009240       ?ProjectNormalToScreen3D@CDrCurve@@UAEXPAUMATRIX@@NN@Z 1000a240 f i Dlg_CClk.obj
 0001:00009260       ?GetNormalWorld@CDrCurve@@UAEPAUWORLD@@XZ 1000a260 f i Dlg_CClk.obj
 0001:00009280       ?SetNormalWorld@CDrCurve@@UAEXUWORLD@@@Z 1000a280 f i Dlg_CClk.obj
 0001:000092a0       ?GetNormalEye@CDrCurve@@UAEPAUWORLD@@XZ 1000a2a0 f i Dlg_CClk.obj
 0001:000092c0       ?SetNormalEye@CDrCurve@@UAEXUWORLD@@@Z 1000a2c0 f i Dlg_CClk.obj
 0001:000092e0       ?GetNormalScreen3D@CDrCurve@@UAEPAUWORLD@@XZ 1000a2e0 f i Dlg_CClk.obj
 0001:00009300       ?SetNormalScreen3D@CDrCurve@@UAEXUWORLD@@@Z 1000a300 f i Dlg_CClk.obj
 0001:00009320       ?GetNormalScreen2D@CDrCurve@@UAEPAUtagPOINT@@XZ 1000a320 f i Dlg_CClk.obj
 0001:00009340       ?SetNormalScreen2D@CDrCurve@@UAEXUtagPOINT@@@Z 1000a340 f i Dlg_CClk.obj
 0001:00009360       ?GetNodTopoList@CDrCurve@@QAEPAVCDListMgr@@XZ 1000a360 f i Dlg_CClk.obj
 0001:00009380       ?GetSuppCardList@CDrCurve@@QAEPAV?$CList@Usupportcard@@U1@@@XZ 1000a380 f i Dlg_CClk.obj
 0001:000093a0       ?GetStaLCardList@CDrCurve@@QAEPAV?$CList@UstaLcard@@U1@@@XZ 1000a3a0 f i Dlg_CClk.obj
 0001:000093c0       ?GetBndryPtList@CDrCurve@@QAEPAV?$CList@UWORLD@@U1@@@XZ 1000a3c0 f i Dlg_CClk.obj
 0001:000093e0       ?GetBezierType@CDrCurve@@QAE?AW4BEZIERTYPE@@XZ 1000a3e0 f i Dlg_CClk.obj
 0001:00009400       ?SetBezierType@CDrCurve@@QAEXW4BEZIERTYPE@@@Z 1000a400 f i Dlg_CClk.obj
 0001:00009430       ??1CDlg_CClk@@UAE@XZ       1000a430 f i Dlg_CClk.obj
 0001:000094f0       ??_FCDlg_CClk@@QAEXXZ      1000a4f0 f i Dlg_CClk.obj
 0001:00009510       ??1CBitmapButton@@UAE@XZ   1000a510 f i Dlg_CClk.obj
 0001:00009730       ??0CDlg_CClk@@QAE@PAVCWnd@@@Z 1000a730 f   Dlg_CClk.obj
 0001:00009930       ??_GCDlg_CClk@@UAEPAXI@Z   1000a930 f i Dlg_CClk.obj
 0001:00009970       ??_ECDlg_CClk@@UAEPAXI@Z   1000a970 f i Dlg_CClk.obj
 0001:000099f0       ?DoDataExchange@CDlg_CClk@@MAEXPAVCDataExchange@@@Z 1000a9f0 f   Dlg_CClk.obj
 0001:00009b20       ?_GetBaseMessageMap@CDlg_CClk@@KGPBUAFX_MSGMAP@@XZ 1000ab20 f   Dlg_CClk.obj
 0001:00009b40       ?GetMessageMap@CDlg_CClk@@MBEPBUAFX_MSGMAP@@XZ 1000ab40 f   Dlg_CClk.obj
 0001:00009b60       ?OnInitDialog@CDlg_CClk@@MAEHXZ 1000ab60 f   Dlg_CClk.obj
 0001:00009d30       ?GetDocument@CDrGrafApp@@QAEPAVCDrGrafDoc@@XZ 1000ad30 f i Dlg_CClk.obj
 0001:00009d50       ?GetObjectMgr@CDrGrafDoc@@QAEPAVCObjectMgr@@XZ 1000ad50 f i Dlg_CClk.obj
 0001:00009d70       ?OnOK@CDlg_CClk@@MAEXXZ    1000ad70 f   Dlg_CClk.obj
 0001:00009dd0       ?OnCancel@CDlg_CClk@@MAEXXZ 1000add0 f   Dlg_CClk.obj
 0001:00009e50       ?FillListAllString_Select@CDlg_CClk@@IAEXPAVCDListMgr@@@Z 1000ae50 f   Dlg_CClk.obj
 0001:00009f50       ?OnAutoKn@CDlg_CClk@@IAEXXZ 1000af50 f   Dlg_CClk.obj
 0001:0000a000       ?OnAutoWt@CDlg_CClk@@IAEXXZ 1000b000 f   Dlg_CClk.obj
 0001:0000a050       ?OnUnifKn@CDlg_CClk@@IAEXXZ 1000b050 f   Dlg_CClk.obj
 0001:0000a0a0       ?OnUnifWt@CDlg_CClk@@IAEXXZ 1000b0a0 f   Dlg_CClk.obj
 0001:0000a0f0       ?OnNonuKn@CDlg_CClk@@IAEXXZ 1000b0f0 f   Dlg_CClk.obj
 0001:0000a230       ??1CDlg_Knot@@UAE@XZ       1000b230 f i Dlg_CClk.obj
 0001:0000a2b0       ?OnNonuWt@CDlg_CClk@@IAEXXZ 1000b2b0 f   Dlg_CClk.obj
 0001:0000a3e0       ??1CDlg_Wts@@UAE@XZ        1000b3e0 f i Dlg_CClk.obj
 0001:0000a460       ?OnSelchangeDegree@CDlg_CClk@@IAEXXZ 1000b460 f   Dlg_CClk.obj
 0001:0000abe0       ?OnBcLeftOn@CDlg_CClk@@IAEXXZ 1000bbe0 f   Dlg_CClk.obj
 0001:0000ada0       ?OnBcRightOn@CDlg_CClk@@IAEXXZ 1000bda0 f   Dlg_CClk.obj
 0001:0000af60       ?OnSelchangeBcLeft@CDlg_CClk@@IAEXXZ 1000bf60 f   Dlg_CClk.obj
 0001:0000b0a0       ??1CDlg_Tang@@UAE@XZ       1000c0a0 f i Dlg_CClk.obj
 0001:0000b130       ?OnSelchangeBcRight@CDlg_CClk@@IAEXXZ 1000c130 f   Dlg_CClk.obj
 0001:0000b270       ?SetDataBase_BC_N_KNOTs@CDlg_CClk@@IAEXPAVCDrCurve@@@Z 1000c270 f   Dlg_CClk.obj
 0001:0000b7e0       ?GetCount@?$CList@JJ@@QBEHXZ 1000c7e0 f i Dlg_CClk.obj
 0001:0000b800       ??_9@$BMM@AE               1000c800 f i Dlg_CClk.obj
 0001:0000b810       ??_9@$BNA@AE               1000c810 f i Dlg_CClk.obj
 0001:0000b820       ??0CDlg_CMesh@@QAE@PAVCWnd@@@Z 1000c820 f   Dlg_CMes.obj
 0001:0000b900       ??_ECDlg_CMesh@@UAEPAXI@Z  1000c900 f i Dlg_CMes.obj
 0001:0000b900       ??_GCDlg_CMesh@@UAEPAXI@Z  1000c900 f i Dlg_CMes.obj
 0001:0000b940       ??1CDlg_CMesh@@UAE@XZ      1000c940 f i Dlg_CMes.obj
 0001:0000b9b0       ?DoDataExchange@CDlg_CMesh@@MAEXPAVCDataExchange@@@Z 1000c9b0 f   Dlg_CMes.obj
 0001:0000b9f0       ?_GetBaseMessageMap@CDlg_CMesh@@KGPBUAFX_MSGMAP@@XZ 1000c9f0 f   Dlg_CMes.obj
 0001:0000ba10       ?GetMessageMap@CDlg_CMesh@@MBEPBUAFX_MSGMAP@@XZ 1000ca10 f   Dlg_CMes.obj
 0001:0000ba30       ?OnInitDialog@CDlg_CMesh@@MAEHXZ 1000ca30 f   Dlg_CMes.obj
 0001:0000bab0       ?OnUnifOt@CDlg_CMesh@@IAEXXZ 1000cab0 f   Dlg_CMes.obj
 0001:0000bb70       ??1CDlg_CMsU@@UAE@XZ       1000cb70 f i Dlg_CMes.obj
 0001:0000bbe0       ?OnNonuOt@CDlg_CMesh@@IAEXXZ 1000cbe0 f   Dlg_CMes.obj
 0001:0000bcd0       ??1CDlg_CMsN@@UAE@XZ       1000ccd0 f i Dlg_CMes.obj
 0001:0000bd60       ?OnKillfocusEloutUnif@CDlg_CMesh@@IAEXXZ 1000cd60 f   Dlg_CMes.obj
 0001:0000bd80       ?OnCancel@CDlg_CMesh@@MAEXXZ 1000cd80 f   Dlg_CMes.obj
 0001:0000bda0       ?OnOK@CDlg_CMesh@@MAEXXZ   1000cda0 f   Dlg_CMes.obj
 0001:0000bdd0       ??0CDlg_CMsN@@QAE@PAVCWnd@@@Z 1000cdd0 f   Dlg_CMsN.obj
 0001:0000bed0       ??_ECDlg_CMsN@@UAEPAXI@Z   1000ced0 f i Dlg_CMsN.obj
 0001:0000bed0       ??_GCDlg_CMsN@@UAEPAXI@Z   1000ced0 f i Dlg_CMsN.obj
 0001:0000bf10       ?DoDataExchange@CDlg_CMsN@@MAEXPAVCDataExchange@@@Z 1000cf10 f   Dlg_CMsN.obj
 0001:0000bf90       ?_GetBaseMessageMap@CDlg_CMsN@@KGPBUAFX_MSGMAP@@XZ 1000cf90 f   Dlg_CMsN.obj
 0001:0000bfb0       ?GetMessageMap@CDlg_CMsN@@MBEPBUAFX_MSGMAP@@XZ 1000cfb0 f   Dlg_CMsN.obj
 0001:0000bfd0       ?OnInitDialog@CDlg_CMsN@@MAEHXZ 1000cfd0 f   Dlg_CMsN.obj
 0001:0000c090       ?OnClickedEdit@CDlg_CMsN@@IAEXXZ 1000d090 f   Dlg_CMsN.obj
 0001:0000c100       ?OnChangeCentralAngle@CDlg_CMsN@@IAEXXZ 1000d100 f   Dlg_CMsN.obj
 0001:0000c120       ?OnOK@CDlg_CMsN@@MAEXXZ    1000d120 f   Dlg_CMsN.obj
 0001:0000c160       ?OnCancel@CDlg_CMsN@@MAEXXZ 1000d160 f   Dlg_CMsN.obj
 0001:0000c180       ?OnSelchangeList@CDlg_CMsN@@IAEXXZ 1000d180 f   Dlg_CMsN.obj
 0001:0000c1d0       ?UpdateList@CDlg_CMsN@@IAEXH@Z 1000d1d0 f   Dlg_CMsN.obj
 0001:0000c200       ?FillOthers@CDlg_CMsN@@IAEXH@Z 1000d200 f   Dlg_CMsN.obj
 0001:0000c2d0       ?FillListAllString@CDlg_CMsN@@IAEXXZ 1000d2d0 f   Dlg_CMsN.obj
 0001:0000c710       ??_ECString@@QAEPAXI@Z     1000d710 f i Dlg_CMsN.obj
 0001:0000c790       ?EmptyListAllString@CDlg_CMsN@@IAEXXZ 1000d790 f   Dlg_CMsN.obj
 0001:0000c7f0       ?SetInfoForDataBase@CDlg_CMsN@@IAEXXZ 1000d7f0 f   Dlg_CMsN.obj
 0001:0000c810       ??0CDlg_CMsR@@QAE@PAVCWnd@@@Z 1000d810 f   Dlg_CMsR.obj
 0001:0000c8f0       ??_ECDlg_CMsR@@UAEPAXI@Z   1000d8f0 f i Dlg_CMsR.obj
 0001:0000c8f0       ??_GCDlg_CMsR@@UAEPAXI@Z   1000d8f0 f i Dlg_CMsR.obj
 0001:0000c930       ??1CDlg_CMsR@@UAE@XZ       1000d930 f i Dlg_CMsR.obj
 0001:0000c9a0       ?DoDataExchange@CDlg_CMsR@@MAEXPAVCDataExchange@@@Z 1000d9a0 f   Dlg_CMsR.obj
 0001:0000ca30       ?_GetBaseMessageMap@CDlg_CMsR@@KGPBUAFX_MSGMAP@@XZ 1000da30 f   Dlg_CMsR.obj
 0001:0000ca50       ?GetMessageMap@CDlg_CMsR@@MBEPBUAFX_MSGMAP@@XZ 1000da50 f   Dlg_CMsR.obj
 0001:0000ca70       ?OnInitDialog@CDlg_CMsR@@MAEHXZ 1000da70 f   Dlg_CMsR.obj
 0001:0000caf0       ?OnOK@CDlg_CMsR@@MAEXXZ    1000daf0 f   Dlg_CMsR.obj
 0001:0000cb20       ?OnCancel@CDlg_CMsR@@MAEXXZ 1000db20 f   Dlg_CMsR.obj
 0001:0000cb60       ??0CDlg_CMsU@@QAE@PAVCWnd@@@Z 1000db60 f   Dlg_CMsU.obj
 0001:0000cc30       ??_ECDlg_CMsU@@UAEPAXI@Z   1000dc30 f i Dlg_CMsU.obj
 0001:0000cc30       ??_GCDlg_CMsU@@UAEPAXI@Z   1000dc30 f i Dlg_CMsU.obj
 0001:0000cc70       ?DoDataExchange@CDlg_CMsU@@MAEXPAVCDataExchange@@@Z 1000dc70 f   Dlg_CMsU.obj
 0001:0000ccd0       ?_GetBaseMessageMap@CDlg_CMsU@@KGPBUAFX_MSGMAP@@XZ 1000dcd0 f   Dlg_CMsU.obj
 0001:0000ccf0       ?GetMessageMap@CDlg_CMsU@@MBEPBUAFX_MSGMAP@@XZ 1000dcf0 f   Dlg_CMsU.obj
 0001:0000cd10       ?OnInitDialog@CDlg_CMsU@@MAEHXZ 1000dd10 f   Dlg_CMsU.obj
 0001:0000cd90       ?OnCancel@CDlg_CMsU@@MAEXXZ 1000dd90 f   Dlg_CMsU.obj
 0001:0000cdb0       ?OnOK@CDlg_CMsU@@MAEXXZ    1000ddb0 f   Dlg_CMsU.obj
 0001:0000cdd0       ?SetParallel@CXForm@@UAEXH@Z 1000ddd0 f i Dlg_cpro.obj
 0001:0000cdf0       ?GetParallel@CXForm@@UAEHXZ 1000ddf0 f i Dlg_cpro.obj
 0001:0000ce10       ??1CXForm@@UAE@XZ          1000de10 f i Dlg_cpro.obj
 0001:0000ce40       ??_GCXForm@@UAEPAXI@Z      1000de40 f i Dlg_cpro.obj
 0001:0000ce80       ??_ECXForm@@UAEPAXI@Z      1000de80 f i Dlg_cpro.obj
 0001:0000cf00       ?GetCurveList@CDrProf_C@@QAEPAVCDListMgr@@XZ 1000df00 f i Dlg_cpro.obj
 0001:0000cf20       ?GetLMList@CDrProf_C@@QAEPAVCDListMgr@@XZ 1000df20 f i Dlg_cpro.obj
 0001:0000cf40       ?GetCurve@CDrProf_C@@QAEPAVCDrCurve@@XZ 1000df40 f i Dlg_cpro.obj
 0001:0000cf60       ?SetCurve@CDrProf_C@@QAEXPAVCDrCurve@@@Z 1000df60 f i Dlg_cpro.obj
 0001:0000cf90       ?GetProfileType@CDrProf_C@@QAE?AW4PROFILETYPE@@XZ 1000df90 f i Dlg_cpro.obj
 0001:0000cfb0       ?SetProfileType@CDrProf_C@@QAEXW4PROFILETYPE@@@Z 1000dfb0 f i Dlg_cpro.obj
 0001:0000cfe0       ??0CDlg_CPro@@QAE@PAVCWnd@@@Z 1000dfe0 f   Dlg_cpro.obj
 0001:0000d1e0       ??_GCDlg_CPro@@UAEPAXI@Z   1000e1e0 f i Dlg_cpro.obj
 0001:0000d1e0       ??_ECDlg_CPro@@UAEPAXI@Z   1000e1e0 f i Dlg_cpro.obj
 0001:0000d220       ??1CDlg_CPro@@UAE@XZ       1000e220 f i Dlg_cpro.obj
 0001:0000d330       ?DoDataExchange@CDlg_CPro@@MAEXPAVCDataExchange@@@Z 1000e330 f   Dlg_cpro.obj
 0001:0000d380       ?_GetBaseMessageMap@CDlg_CPro@@KGPBUAFX_MSGMAP@@XZ 1000e380 f   Dlg_cpro.obj
 0001:0000d3a0       ?GetMessageMap@CDlg_CPro@@MBEPBUAFX_MSGMAP@@XZ 1000e3a0 f   Dlg_cpro.obj
 0001:0000d3c0       ?OnInitDialog@CDlg_CPro@@MAEHXZ 1000e3c0 f   Dlg_cpro.obj
 0001:0000d4f0       ?OnDefaultLmat@CDlg_CPro@@IAEXXZ 1000e4f0 f   Dlg_cpro.obj
 0001:0000d520       ?OnDel@CDlg_CPro@@IAEXXZ   1000e520 f   Dlg_cpro.obj
 0001:0000d5b0       ?OnAdd@CDlg_CPro@@IAEXXZ   1000e5b0 f   Dlg_cpro.obj
 0001:0000dc90       ?FirstCurve@CDlg_CPro@@IAEXXZ 1000ec90 f   Dlg_cpro.obj
 0001:0000e160       ??1CDlg_LMTR@@UAE@XZ       1000f160 f i Dlg_cpro.obj
 0001:0000e210       ?NonFirstCurve@CDlg_CPro@@IAEXXZ 1000f210 f   Dlg_cpro.obj
 0001:0000e690       ??1CDlg_LMR@@UAE@XZ        1000f690 f i Dlg_cpro.obj
 0001:0000e730       ?SetUpLocalm@CDlg_CPro@@IAEXPAUMATRIX@@@Z 1000f730 f   Dlg_cpro.obj
 0001:0000ea40       ?GetTranslations@CDlg_CPro@@IAEXXZ 1000fa40 f   Dlg_cpro.obj
 0001:0000ec90       ?EmptyListAllString@CDlg_CPro@@IAEXI@Z 1000fc90 f   Dlg_cpro.obj
 0001:0000ecf0       ?OnOK@CDlg_CPro@@MAEXXZ    1000fcf0 f   Dlg_cpro.obj
 0001:0000ee40       ?OnCancel@CDlg_CPro@@MAEXXZ 1000fe40 f   Dlg_cpro.obj
 0001:0000ee60       ?FillListAllString_Pool@CDlg_CPro@@IAEXXZ 1000fe60 f   Dlg_cpro.obj
 0001:0000ef90       ?FillListAllString_Profile@CDlg_CPro@@IAEXXZ 1000ff90 f   Dlg_cpro.obj
 0001:0000f0c0       ?SetInfoForDataBase@CDlg_CPro@@IAEXPAVCDrProf_C@@@Z 100100c0 f   Dlg_cpro.obj
 0001:0000f2d0       ??0CDlg_CPSI@@QAE@PAVCWnd@@@Z 100102d0 f   Dlg_CPSI.obj
 0001:0000f3b0       ??_ECDlg_CPSI@@UAEPAXI@Z   100103b0 f i Dlg_CPSI.obj
 0001:0000f3b0       ??_GCDlg_CPSI@@UAEPAXI@Z   100103b0 f i Dlg_CPSI.obj
 0001:0000f3f0       ??1CDlg_CPSI@@UAE@XZ       100103f0 f i Dlg_CPSI.obj
 0001:0000f470       ?DoDataExchange@CDlg_CPSI@@MAEXPAVCDataExchange@@@Z 10010470 f   Dlg_CPSI.obj
 0001:0000f4b0       ?_GetBaseMessageMap@CDlg_CPSI@@KGPBUAFX_MSGMAP@@XZ 100104b0 f   Dlg_CPSI.obj
 0001:0000f4d0       ?GetMessageMap@CDlg_CPSI@@MBEPBUAFX_MSGMAP@@XZ 100104d0 f   Dlg_CPSI.obj
 0001:0000f4f0       ?OnInitDialog@CDlg_CPSI@@MAEHXZ 100104f0 f   Dlg_CPSI.obj
 0001:0000f5e0       ?EmptyListAllString@CDlg_CPSI@@IAEXI@Z 100105e0 f   Dlg_CPSI.obj
 0001:0000f640       ?OnSelchangePoollist@CDlg_CPSI@@IAEXXZ 10010640 f   Dlg_CPSI.obj
 0001:0000f790       ?OnOK@CDlg_CPSI@@MAEXXZ    10010790 f   Dlg_CPSI.obj
 0001:0000f800       ?OnCancel@CDlg_CPSI@@MAEXXZ 10010800 f   Dlg_CPSI.obj
 0001:0000f820       ?FillListAllString_Pool@CDlg_CPSI@@IAEXXZ 10010820 f   Dlg_CPSI.obj
 0001:0000f940       ?FillListAllString_Profile@CDlg_CPSI@@IAEXXZ 10010940 f   Dlg_CPSI.obj
 0001:0000fa70       ??1CDlg_CrcI@@UAE@XZ       10010a70 f i Dlg_CrcI.obj
 0001:0000fae0       ??0CDlg_CrcI@@QAE@PAVCWnd@@W4CIRCLETYPE@@@Z 10010ae0 f   Dlg_CrcI.obj
 0001:0000fc40       ??_GCDlg_CrcI@@UAEPAXI@Z   10010c40 f i Dlg_CrcI.obj
 0001:0000fc80       ??_ECDlg_CrcI@@UAEPAXI@Z   10010c80 f i Dlg_CrcI.obj
 0001:0000fd00       ?DoDataExchange@CDlg_CrcI@@MAEXPAVCDataExchange@@@Z 10010d00 f   Dlg_CrcI.obj
 0001:0000fe90       ?_GetBaseMessageMap@CDlg_CrcI@@KGPBUAFX_MSGMAP@@XZ 10010e90 f   Dlg_CrcI.obj
 0001:0000feb0       ?GetMessageMap@CDlg_CrcI@@MBEPBUAFX_MSGMAP@@XZ 10010eb0 f   Dlg_CrcI.obj
 0001:0000fed0       ?OnInitDialog@CDlg_CrcI@@MAEHXZ 10010ed0 f   Dlg_CrcI.obj
 0001:00010320       ?Create@CDlg_CrcI@@QAEHXZ  10011320 f   Dlg_CrcI.obj
 0001:00010410       ?OnSelchangeCid@CDlg_CrcI@@IAEXXZ 10011410 f   Dlg_CrcI.obj
 0001:00010430       ?OnSelchangeNid@CDlg_CrcI@@IAEXXZ 10011430 f   Dlg_CrcI.obj
 0001:00010450       ?FillListAllString_Node@CDlg_CrcI@@IAEXXZ 10011450 f   Dlg_CrcI.obj
 0001:00010570       ?FillListAllString_Curve@CDlg_CrcI@@IAEXXZ 10011570 f   Dlg_CrcI.obj
 0001:000106b0       ?EmptyListAllString@CDlg_CrcI@@IAEXXZ 100116b0 f   Dlg_CrcI.obj
 0001:00010710       ?OnClosed@CDlg_CrcI@@IAEXXZ 10011710 f   Dlg_CrcI.obj
 0001:000107a0       ?OnAngspec@CDlg_CrcI@@IAEXXZ 100117a0 f   Dlg_CrcI.obj
 0001:00010840       ?OnArc@CDlg_CrcI@@IAEXXZ   10011840 f   Dlg_CrcI.obj
 0001:00010900       ?OnAutoSeg@CDlg_CrcI@@IAEXXZ 10011900 f   Dlg_CrcI.obj
 0001:00010960       ?OnKillfocusSegAngle@CDlg_CrcI@@IAEXXZ 10011960 f   Dlg_CrcI.obj
 0001:00010980       ?OnCancel@CDlg_CrcI@@MAEXXZ 10011980 f   Dlg_CrcI.obj
 0001:000109c0       ?OnUpdate@CDlg_CrcI@@IAEXXZ 100119c0 f   Dlg_CrcI.obj
 0001:00010b20       ?OnKillfocusCoord@CDlg_CrcI@@IAEXXZ 10011b20 f   Dlg_CrcI.obj
 0001:00010b70       ?OnAxis@CDlg_CrcI@@IAEXXZ  10011b70 f   Dlg_CrcI.obj
 0001:00010d30       ?OnAxisX@CDlg_CrcI@@IAEXXZ 10011d30 f   Dlg_CrcI.obj
 0001:00010d50       ?OnAxisY@CDlg_CrcI@@IAEXXZ 10011d50 f   Dlg_CrcI.obj
 0001:00010d70       ?OnAxisZ@CDlg_CrcI@@IAEXXZ 10011d70 f   Dlg_CrcI.obj
 0001:00010d90       ?OnNegative@CDlg_CrcI@@IAEXXZ 10011d90 f   Dlg_CrcI.obj
 0001:00010dc0       ?OnUniform@CDlg_CrcI@@IAEXXZ 10011dc0 f   Dlg_CrcI.obj
 0001:00010e30       ??0CDlg_CrcT@@QAE@PAVCWnd@@@Z 10011e30 f   Dlg_CrcT.obj
 0001:00010ef0       ??_ECDlg_CrcT@@UAEPAXI@Z   10011ef0 f i Dlg_CrcT.obj
 0001:00010ef0       ??_GCDlg_CrcT@@UAEPAXI@Z   10011ef0 f i Dlg_CrcT.obj
 0001:00010f30       ??1CDlg_CrcT@@UAE@XZ       10011f30 f i Dlg_CrcT.obj
 0001:00010fa0       ?DoDataExchange@CDlg_CrcT@@MAEXPAVCDataExchange@@@Z 10011fa0 f   Dlg_CrcT.obj
 0001:00010fd0       ?_GetBaseMessageMap@CDlg_CrcT@@KGPBUAFX_MSGMAP@@XZ 10011fd0 f   Dlg_CrcT.obj
 0001:00010ff0       ?GetMessageMap@CDlg_CrcT@@MBEPBUAFX_MSGMAP@@XZ 10011ff0 f   Dlg_CrcT.obj
 0001:00011010       ?OnInitDialog@CDlg_CrcT@@MAEHXZ 10012010 f   Dlg_CrcT.obj
 0001:000110d0       ?OnType1@CDlg_CrcT@@IAEXXZ 100120d0 f   Dlg_CrcT.obj
 0001:000110f0       ?OnType2@CDlg_CrcT@@IAEXXZ 100120f0 f   Dlg_CrcT.obj
 0001:00011110       ?OnType3@CDlg_CrcT@@IAEXXZ 10012110 f   Dlg_CrcT.obj
 0001:00011130       ?OnType4@CDlg_CrcT@@IAEXXZ 10012130 f   Dlg_CrcT.obj
 0001:00011150       ?OnType5@CDlg_CrcT@@IAEXXZ 10012150 f   Dlg_CrcT.obj
 0001:00011170       ?OnCancel@CDlg_CrcT@@MAEXXZ 10012170 f   Dlg_CrcT.obj
 0001:00011190       ?OnOK@CDlg_CrcT@@MAEXXZ    10012190 f   Dlg_CrcT.obj
 0001:000111c0       ??0CDlg_Knot@@QAE@PAVCWnd@@@Z 100121c0 f   Dlg_knot.obj
 0001:000112d0       ??_ECDlg_Knot@@UAEPAXI@Z   100122d0 f i Dlg_knot.obj
 0001:000112d0       ??_GCDlg_Knot@@UAEPAXI@Z   100122d0 f i Dlg_knot.obj
 0001:00011310       ?DoDataExchange@CDlg_Knot@@MAEXPAVCDataExchange@@@Z 10012310 f   Dlg_knot.obj
 0001:00011370       ?_GetBaseMessageMap@CDlg_Knot@@KGPBUAFX_MSGMAP@@XZ 10012370 f   Dlg_knot.obj
 0001:00011390       ?GetMessageMap@CDlg_Knot@@MBEPBUAFX_MSGMAP@@XZ 10012390 f   Dlg_knot.obj
 0001:000113b0       ?OnInitDialog@CDlg_Knot@@MAEHXZ 100123b0 f   Dlg_knot.obj
 0001:00011470       ?OnDel@CDlg_Knot@@IAEXXZ   10012470 f   Dlg_knot.obj
 0001:00011530       ?OnAdd@CDlg_Knot@@IAEXXZ   10012530 f   Dlg_knot.obj
 0001:000116c0       ?OnOK@CDlg_Knot@@MAEXXZ    100126c0 f   Dlg_knot.obj
 0001:00011780       ?OnSelchangeList@CDlg_Knot@@IAEXXZ 10012780 f   Dlg_knot.obj
 0001:000117d0       ?FillOthers@CDlg_Knot@@IAEXH@Z 100127d0 f   Dlg_knot.obj
 0001:00011800       ?FillListAllString@CDlg_Knot@@IAEXXZ 10012800 f   Dlg_knot.obj
 0001:000118f0       ?EmptyListAllString@CDlg_Knot@@IAEXXZ 100128f0 f   Dlg_knot.obj
 0001:00011960       ?IsSubDivided@CTriangle@@UAEHXZ 10012960 f i Dlg_LMR.obj
 0001:00011980       ?SetSubDivided@CTriangle@@UAEXH@Z 10012980 f i Dlg_LMR.obj
 0001:000119a0       ?GetSubTriangleIndex@CTriangle@@UAEHH@Z 100129a0 f i Dlg_LMR.obj
 0001:000119c0       ?SetSubTriangleIndex@CTriangle@@UAEXHH@Z 100129c0 f i Dlg_LMR.obj
 0001:000119f0       ?GetType@CTriangle@@UAEHXZ 100129f0 f i Dlg_LMR.obj
 0001:00011a10       ?SetType@CTriangle@@UAEXH@Z 10012a10 f i Dlg_LMR.obj
 0001:00011a30       ?GetCNIndexList@CTriangle@@UAEPAV?$CList@HH@@XZ 10012a30 f i Dlg_LMR.obj
 0001:00011a50       ?GetPatIndex@CTriangle@@UAEHXZ 10012a50 f i Dlg_LMR.obj
 0001:00011a70       ?SetPatIndex@CTriangle@@UAEXH@Z 10012a70 f i Dlg_LMR.obj
 0001:00011a90       ?GetDegree@CTriangle@@UAEHXZ 10012a90 f i Dlg_LMR.obj
 0001:00011ab0       ?SetDegree@CTriangle@@UAEXH@Z 10012ab0 f i Dlg_LMR.obj
 0001:00011ad0       ?GetVertexIndex@CTriangle@@UAEHH@Z 10012ad0 f i Dlg_LMR.obj
 0001:00011af0       ?SetVertexIndex@CTriangle@@UAEXHH@Z 10012af0 f i Dlg_LMR.obj
 0001:00011b20       ?GetVertexIndex@CTriangle@@UAEPAHXZ 10012b20 f i Dlg_LMR.obj
 0001:00011b40       ?GetNebrVertexIndex@CTriangle@@UAEHH@Z 10012b40 f i Dlg_LMR.obj
 0001:00011b60       ?SetNebrVertexIndex@CTriangle@@UAEXHH@Z 10012b60 f i Dlg_LMR.obj
 0001:00011b90       ?GetNebrVertexIndex@CTriangle@@UAEPAHXZ 10012b90 f i Dlg_LMR.obj
 0001:00011bb0       ?GetNebrTriangleIndex@CTriangle@@UAEHH@Z 10012bb0 f i Dlg_LMR.obj
 0001:00011bd0       ?SetNebrTriangleIndex@CTriangle@@UAEXHH@Z 10012bd0 f i Dlg_LMR.obj
 0001:00011c00       ?GetNebrTriangleIndex@CTriangle@@UAEPAHXZ 10012c00 f i Dlg_LMR.obj
 0001:00011c20       ?GetOutSeg@CTriangle@@UAEHXZ 10012c20 f i Dlg_LMR.obj
 0001:00011c40       ?SetOutSeg@CTriangle@@UAEXH@Z 10012c40 f i Dlg_LMR.obj
 0001:00011c60       ?GetiOutGlo@CTriangle@@UAEHXZ 10012c60 f i Dlg_LMR.obj
 0001:00011c80       ?SetiOutGlo@CTriangle@@UAEXH@Z 10012c80 f i Dlg_LMR.obj
 0001:00011cb0       ?GetjOutGlo@CTriangle@@UAEHXZ 10012cb0 f i Dlg_LMR.obj
 0001:00011cd0       ?SetjOutGlo@CTriangle@@UAEXH@Z 10012cd0 f i Dlg_LMR.obj
 0001:00011d00       ??1CTriangle@@UAE@XZ       10012d00 f i Dlg_LMR.obj
 0001:00011d60       ??_GCTriangle@@UAEPAXI@Z   10012d60 f i Dlg_LMR.obj
 0001:00011da0       ??_ECTriangle@@UAEPAXI@Z   10012da0 f i Dlg_LMR.obj
 0001:00011e20       ?GetCategory@CDrPatch@@UAE?AW4CATEGORY@@XZ 10012e20 f i Dlg_LMR.obj
 0001:00011e40       ?SetCategory@CDrPatch@@UAEXW4CATEGORY@@@Z 10012e40 f i Dlg_LMR.obj
 0001:00011e60       ?IsNormalNeeded@CDrPatch@@UAEHXZ 10012e60 f i Dlg_LMR.obj
 0001:00011e80       ?SetNormalNeed@CDrPatch@@UAEXH@Z 10012e80 f i Dlg_LMR.obj
 0001:00011eb0       ?GetCurveType_T@CDrPatch@@QAE?AW4CURVEPROC@@XZ 10012eb0 f i Dlg_LMR.obj
 0001:00011ed0       ?SetCurveType_T@CDrPatch@@QAEXW4CURVEPROC@@@Z 10012ed0 f i Dlg_LMR.obj
 0001:00011f00       ?GetOutSegUnif_T@CDrPatch@@QAEHXZ 10012f00 f i Dlg_LMR.obj
 0001:00011f20       ?SetOutSegUnif_T@CDrPatch@@QAEXH@Z 10012f20 f i Dlg_LMR.obj
 0001:00011f50       ?IsClosed_T@CDrPatch@@QAEHXZ 10012f50 f i Dlg_LMR.obj
 0001:00011f70       ?SetClosed_T@CDrPatch@@QAEXH@Z 10012f70 f i Dlg_LMR.obj
 0001:00011fa0       ?GetMaxBezSegments_T@CDrPatch@@QAEHXZ 10012fa0 f i Dlg_LMR.obj
 0001:00011fc0       ?SetMaxBezSegments_T@CDrPatch@@QAEXH@Z 10012fc0 f i Dlg_LMR.obj
 0001:00011ff0       ?GetMaxCNodes_T@CDrPatch@@QAEHXZ 10012ff0 f i Dlg_LMR.obj
 0001:00012010       ?SetMaxCNodes_T@CDrPatch@@QAEXH@Z 10013010 f i Dlg_LMR.obj
 0001:00012040       ?GetMaxOutPts_T@CDrPatch@@QAEHXZ 10013040 f i Dlg_LMR.obj
 0001:00012060       ?SetMaxOutPts_T@CDrPatch@@QAEXH@Z 10013060 f i Dlg_LMR.obj
 0001:00012090       ?GetNodes_S@CDrPatch@@QAEHXZ 10013090 f i Dlg_LMR.obj
 0001:000120b0       ?SetNodes_S@CDrPatch@@QAEXH@Z 100130b0 f i Dlg_LMR.obj
 0001:000120e0       ?GetNodes_T@CDrPatch@@QAEHXZ 100130e0 f i Dlg_LMR.obj
 0001:00012100       ?SetNodes_T@CDrPatch@@QAEXH@Z 10013100 f i Dlg_LMR.obj
 0001:00012130       ?GetPrimaryDir@CDrPatch@@QAEHXZ 10013130 f i Dlg_LMR.obj
 0001:00012150       ?SetPrimaryDir@CDrPatch@@QAEXH@Z 10013150 f i Dlg_LMR.obj
 0001:00012180       ?GetBlendCurve@CDrPatch@@QAEPAVCDrCurve@@XZ 10013180 f i Dlg_LMR.obj
 0001:000121a0       ?SetBlendCurve@CDrPatch@@QAEXPAVCDrCurve@@@Z 100131a0 f i Dlg_LMR.obj
 0001:000121d0       ?GetBlendCurve_U@CDrPatch@@QAEPAVCDrCurve@@XZ 100131d0 f i Dlg_LMR.obj
 0001:000121f0       ?SetBlendCurve_U@CDrPatch@@QAEXPAVCDrCurve@@@Z 100131f0 f i Dlg_LMR.obj
 0001:00012220       ?GetBlendCurve_V@CDrPatch@@QAEPAVCDrCurve@@XZ 10013220 f i Dlg_LMR.obj
 0001:00012240       ?SetBlendCurve_V@CDrPatch@@QAEXPAVCDrCurve@@@Z 10013240 f i Dlg_LMR.obj
 0001:00012270       ?GetBlendCurve_W@CDrPatch@@QAEPAVCDrCurve@@XZ 10013270 f i Dlg_LMR.obj
 0001:00012290       ?SetBlendCurve_W@CDrPatch@@QAEXPAVCDrCurve@@@Z 10013290 f i Dlg_LMR.obj
 0001:000122c0       ?GetVCurveList@CDrPatch@@QAEPAVCDListMgr@@XZ 100132c0 f i Dlg_LMR.obj
 0001:000122e0       ?GetCurveList_U@CDrPatch@@QAEPAVCDListMgr@@XZ 100132e0 f i Dlg_LMR.obj
 0001:00012300       ?GetCurveList_V@CDrPatch@@QAEPAVCDListMgr@@XZ 10013300 f i Dlg_LMR.obj
 0001:00012320       ?GetCurveList_W@CDrPatch@@QAEPAVCDListMgr@@XZ 10013320 f i Dlg_LMR.obj
 0001:00012340       ?GetCurveLatchList_U@CDrPatch@@QAEPAV?$CList@W4CURVELATCH@@W41@@@XZ 10013340 f i Dlg_LMR.obj
 0001:00012360       ?GetCurveLatchList_V@CDrPatch@@QAEPAV?$CList@W4CURVELATCH@@W41@@@XZ 10013360 f i Dlg_LMR.obj
 0001:00012380       ?GetCurveLatchList_W@CDrPatch@@QAEPAV?$CList@W4CURVELATCH@@W41@@@XZ 10013380 f i Dlg_LMR.obj
 0001:000123a0       ?IsAdvancedEnd_U@CDrPatch@@QAEHXZ 100133a0 f i Dlg_LMR.obj
 0001:000123c0       ?SetAdvancedEnd_U@CDrPatch@@QAEXH@Z 100133c0 f i Dlg_LMR.obj
 0001:000123f0       ?GetCornerTwist_U@CDrPatch@@QAEPAY01UWORLD@@XZ 100133f0 f i Dlg_LMR.obj
 0001:00012410       ?SetCornerTwist_U@CDrPatch@@QAEXPAY01UWORLD@@@Z 10013410 f i Dlg_LMR.obj
 0001:00012440       ?GetTwistMethod_U@CDrPatch@@QAE?AW4TWIST@@XZ 10013440 f i Dlg_LMR.obj
 0001:00012460       ?SetTwistMethod_U@CDrPatch@@QAEXW4TWIST@@@Z 10013460 f i Dlg_LMR.obj
 0001:00012490       ?IsAdvancedEnd_V@CDrPatch@@QAEHXZ 10013490 f i Dlg_LMR.obj
 0001:000124b0       ?SetAdvancedEnd_V@CDrPatch@@QAEXH@Z 100134b0 f i Dlg_LMR.obj
 0001:000124e0       ?GetCornerTwist_V@CDrPatch@@QAEPAY01UWORLD@@XZ 100134e0 f i Dlg_LMR.obj
 0001:00012500       ?SetCornerTwist_V@CDrPatch@@QAEXPAY01UWORLD@@@Z 10013500 f i Dlg_LMR.obj
 0001:00012530       ?GetTwistMethod_V@CDrPatch@@QAE?AW4TWIST@@XZ 10013530 f i Dlg_LMR.obj
 0001:00012550       ?SetTwistMethod_V@CDrPatch@@QAEXW4TWIST@@@Z 10013550 f i Dlg_LMR.obj
 0001:00012580       ?GetEndList_U@CDrPatch@@QAEPAV?$CList@Ublendend@@U1@@@XZ 10013580 f i Dlg_LMR.obj
 0001:000125a0       ?GetEndList_V@CDrPatch@@QAEPAV?$CList@Ublendend@@U1@@@XZ 100135a0 f i Dlg_LMR.obj
 0001:000125c0       ?GetElperSegList_T@CDrPatch@@QAEPAV?$CList@HH@@XZ 100135c0 f i Dlg_LMR.obj
 0001:000125e0       ?GetCurveID@CDrPatch@@QAE?AVCString@@H@Z 100135e0 f i Dlg_LMR.obj
 0001:00012620       ?SetCurveID@CDrPatch@@QAEXVCString@@H@Z 10013620 f i Dlg_LMR.obj
 0001:00012680       ?GetBndryCurve@CDrPatch@@QAEPAVCDrCurve@@H@Z 10013680 f i Dlg_LMR.obj
 0001:000126b0       ?SetCurve@CDrPatch@@QAEXPAVCDrCurve@@H@Z 100136b0 f i Dlg_LMR.obj
 0001:000126e0       ?GetCurveLatch@CDrPatch@@QAE?AW4CURVELATCH@@H@Z 100136e0 f i Dlg_LMR.obj
 0001:00012710       ?SetCurveLatch@CDrPatch@@QAEXW4CURVELATCH@@H@Z 10013710 f i Dlg_LMR.obj
 0001:00012740       ?GetFromIDNode_T@CDrPatch@@QAEPAVCDrNode@@XZ 10013740 f i Dlg_LMR.obj
 0001:00012760       ?SetFromIDNode_T@CDrPatch@@QAEXPAVCDrNode@@@Z 10013760 f i Dlg_LMR.obj
 0001:00012790       ?GetToIDNode_T@CDrPatch@@QAEPAVCDrNode@@XZ 10013790 f i Dlg_LMR.obj
 0001:000127b0       ?SetToIDNode_T@CDrPatch@@QAEXPAVCDrNode@@@Z 100137b0 f i Dlg_LMR.obj
 0001:000127e0       ?GetFromPtLocal_T@CDrPatch@@QAEPAUWORLD@@XZ 100137e0 f i Dlg_LMR.obj
 0001:00012800       ?SetFromPtLocal_T@CDrPatch@@QAEXUWORLD@@@Z 10013800 f i Dlg_LMR.obj
 0001:00012830       ?GetToPtLocal_T@CDrPatch@@QAEPAUWORLD@@XZ 10013830 f i Dlg_LMR.obj
 0001:00012850       ?SetToPtLocal_T@CDrPatch@@QAEXUWORLD@@@Z 10013850 f i Dlg_LMR.obj
 0001:00012880       ?GetFromPtWorld_T@CDrPatch@@QAEPAUWORLD@@XZ 10013880 f i Dlg_LMR.obj
 0001:000128a0       ?SetFromPtWorld_T@CDrPatch@@QAEXUWORLD@@@Z 100138a0 f i Dlg_LMR.obj
 0001:000128d0       ?GetToPtWorld_T@CDrPatch@@QAEPAUWORLD@@XZ 100138d0 f i Dlg_LMR.obj
 0001:000128f0       ?SetToPtWorld_T@CDrPatch@@QAEXUWORLD@@@Z 100138f0 f i Dlg_LMR.obj
 0001:00012920       ?GetFromPtEye_T@CDrPatch@@QAEPAUWORLD@@XZ 10013920 f i Dlg_LMR.obj
 0001:00012940       ?SetFromPtEye_T@CDrPatch@@QAEXUWORLD@@@Z 10013940 f i Dlg_LMR.obj
 0001:00012970       ?GetToPtEye_T@CDrPatch@@QAEPAUWORLD@@XZ 10013970 f i Dlg_LMR.obj
 0001:00012990       ?SetToPtEye_T@CDrPatch@@QAEXUWORLD@@@Z 10013990 f i Dlg_LMR.obj
 0001:000129c0       ?GetAxis_T@CDrPatch@@QAEPAUWORLD@@XZ 100139c0 f i Dlg_LMR.obj
 0001:000129e0       ?SetAxis_T@CDrPatch@@QAEXUWORLD@@@Z 100139e0 f i Dlg_LMR.obj
 0001:00012a10       ?GetExtruType_T@CDrPatch@@QAEHXZ 10013a10 f i Dlg_LMR.obj
 0001:00012a30       ?SetExtruType_T@CDrPatch@@QAEXH@Z 10013a30 f i Dlg_LMR.obj
 0001:00012a60       ?GetLength_T@CDrPatch@@QAENXZ 10013a60 f i Dlg_LMR.obj
 0001:00012a80       ?SetLength_T@CDrPatch@@QAEXN@Z 10013a80 f i Dlg_LMR.obj
 0001:00012ab0       ?GetWorldLength_T@CDrPatch@@QAE?AUWORLD@@XZ 10013ab0 f i Dlg_LMR.obj
 0001:00012ae0       ?SetWorldLength_T@CDrPatch@@QAEXUWORLD@@@Z 10013ae0 f i Dlg_LMR.obj
 0001:00012b10       ?GetSegs_T@CDrPatch@@QAEHXZ 10013b10 f i Dlg_LMR.obj
 0001:00012b30       ?SetSegs_T@CDrPatch@@QAEXH@Z 10013b30 f i Dlg_LMR.obj
 0001:00012b60       ?IsAxisInput_T@CDrPatch@@QAEHXZ 10013b60 f i Dlg_LMR.obj
 0001:00012b80       ?SetAxisInput_T@CDrPatch@@QAEXH@Z 10013b80 f i Dlg_LMR.obj
 0001:00012bb0       ?GetAxisType_T@CDrPatch@@QAEHXZ 10013bb0 f i Dlg_LMR.obj
 0001:00012bd0       ?SetAxisType_T@CDrPatch@@QAEXH@Z 10013bd0 f i Dlg_LMR.obj
 0001:00012c00       ?IsNegative_T@CDrPatch@@QAEHXZ 10013c00 f i Dlg_LMR.obj
 0001:00012c20       ?SetNegative_T@CDrPatch@@QAEXH@Z 10013c20 f i Dlg_LMR.obj
 0001:00012c50       ?GetCircleType_T@CDrPatch@@QAE?AW4CIRCLETYPE@@XZ 10013c50 f i Dlg_LMR.obj
 0001:00012c70       ?SetCircleType_T@CDrPatch@@QAEXW4CIRCLETYPE@@@Z 10013c70 f i Dlg_LMR.obj
 0001:00012ca0       ?GetAng_1_T@CDrPatch@@QAENXZ 10013ca0 f i Dlg_LMR.obj
 0001:00012cc0       ?SetAng_1_T@CDrPatch@@QAEXN@Z 10013cc0 f i Dlg_LMR.obj
 0001:00012cf0       ?GetAng_2_T@CDrPatch@@QAENXZ 10013cf0 f i Dlg_LMR.obj
 0001:00012d10       ?SetAng_2_T@CDrPatch@@QAEXN@Z 10013d10 f i Dlg_LMR.obj
 0001:00012d40       ?GetPatchProc@CDrPatch@@QAE?AW4PATCHPROC@@XZ 10013d40 f i Dlg_LMR.obj
 0001:00012d60       ?SetPatchProc@CDrPatch@@QAEXW4PATCHPROC@@@Z 10013d60 f i Dlg_LMR.obj
 0001:00012d90       ?GetPatchType@CDrPatch@@QAE?AW4PATCHTYPE@@XZ 10013d90 f i Dlg_LMR.obj
 0001:00012db0       ?SetPatchType@CDrPatch@@QAEXW4PATCHTYPE@@@Z 10013db0 f i Dlg_LMR.obj
 0001:00012de0       ?GetPatSubType@CDrPatch@@QAE?AW4PATSUBTYPE@@XZ 10013de0 f i Dlg_LMR.obj
 0001:00012e00       ?SetPatSubType@CDrPatch@@QAEXW4PATSUBTYPE@@@Z 10013e00 f i Dlg_LMR.obj
 0001:00012e30       ?GetOut_S@CDrPatch@@QAEHXZ 10013e30 f i Dlg_LMR.obj
 0001:00012e50       ?SetOut_S@CDrPatch@@QAEXH@Z 10013e50 f i Dlg_LMR.obj
 0001:00012e80       ?GetOut_T@CDrPatch@@QAEHXZ 10013e80 f i Dlg_LMR.obj
 0001:00012ea0       ?SetOut_T@CDrPatch@@QAEXH@Z 10013ea0 f i Dlg_LMR.obj
 0001:00012ed0       ?GetTotalElems@CDrPatch@@QAEJXZ 10013ed0 f i Dlg_LMR.obj
 0001:00012ef0       ?SetTotalElems@CDrPatch@@QAEXJ@Z 10013ef0 f i Dlg_LMR.obj
 0001:00012f20       ?GetPtrTangents_S@CDrPatch@@QAEPAUWORLD@@XZ 10013f20 f i Dlg_LMR.obj
 0001:00012f40       ?GetPtrTangents_T@CDrPatch@@QAEPAUWORLD@@XZ 10013f40 f i Dlg_LMR.obj
 0001:00012f60       ?GetPtrNormals@CDrPatch@@QAEPAUWORLD@@XZ 10013f60 f i Dlg_LMR.obj
 0001:00012f80       ?GetPtrTwists@CDrPatch@@QAEPAUWORLD@@XZ 10013f80 f i Dlg_LMR.obj
 0001:00012fa0       ?GetMemIn@CDrPatch@@UAEPAUWORLD@@H@Z 10013fa0 f i Dlg_LMR.obj
 0001:00012fd0       ?SetMemIn@CDrPatch@@UAEXPAUWORLD@@H@Z 10013fd0 f i Dlg_LMR.obj
 0001:00013000       ?SetMemIn@CDrPatch@@UAEXPAUWORLD@@@Z 10014000 f i Dlg_LMR.obj
 0001:00013030       ?SetMemInDP@CDrPatch@@UAEXPAUtagPOINT@@@Z 10014030 f i Dlg_LMR.obj
 0001:00013060       ?SetMemOut@CDrPatch@@UAEXPAUWORLD@@@Z 10014060 f i Dlg_LMR.obj
 0001:00013090       ?SetMemOutDP@CDrPatch@@UAEXPAUtagPOINT@@@Z 10014090 f i Dlg_LMR.obj
 0001:000130c0       ?IsUniform_T@CDrPatch@@QAEHXZ 100140c0 f i Dlg_LMR.obj
 0001:000130e0       ?SetUniform_T@CDrPatch@@QAEXH@Z 100140e0 f i Dlg_LMR.obj
 0001:00013110       ?GetClass_T@CDrPatch@@QAEHXZ 10014110 f i Dlg_LMR.obj
 0001:00013130       ?SetClass_T@CDrPatch@@QAEXH@Z 10014130 f i Dlg_LMR.obj
 0001:00013160       ?GetOrder_T@CDrPatch@@QAEHXZ 10014160 f i Dlg_LMR.obj
 0001:00013180       ?SetOrder_T@CDrPatch@@QAEXH@Z 10014180 f i Dlg_LMR.obj
 0001:000131b0       ?GetnDim_T@CDrPatch@@QAEHXZ 100141b0 f i Dlg_LMR.obj
 0001:000131d0       ?SetnDim_T@CDrPatch@@QAEXH@Z 100141d0 f i Dlg_LMR.obj
 0001:00013200       ?GetOutMethod_T@CDrPatch@@QAE?AW4PATCHOUTPUT@@XZ 10014200 f i Dlg_LMR.obj
 0001:00013220       ?SetOutMethod_T@CDrPatch@@QAEXW4PATCHOUTPUT@@@Z 10014220 f i Dlg_LMR.obj
 0001:00013250       ?GetMaxOutSeg_T@CDrPatch@@QAEHXZ 10014250 f i Dlg_LMR.obj
 0001:00013270       ?SetMaxOutSeg_T@CDrPatch@@QAEXH@Z 10014270 f i Dlg_LMR.obj
 0001:000132a0       ?GetNum_tPointer_T@CDrPatch@@QAEPAHXZ 100142a0 f i Dlg_LMR.obj
 0001:000132c0       ?SetNum_tPointer_T@CDrPatch@@QAEXPAH@Z 100142c0 f i Dlg_LMR.obj
 0001:000132f0       ?GetDis_tPointer_T@CDrPatch@@QAEPANXZ 100142f0 f i Dlg_LMR.obj
 0001:00013310       ?SetDis_tPointer_T@CDrPatch@@QAEXPAN@Z 10014310 f i Dlg_LMR.obj
 0001:00013340       ?GetNum_tPointer_Ex_T@CDrPatch@@QAEPAHXZ 10014340 f i Dlg_LMR.obj
 0001:00013360       ?SetNum_tPointer_Ex_T@CDrPatch@@QAEXPAH@Z 10014360 f i Dlg_LMR.obj
 0001:00013390       ?GetDis_AngPointer_T@CDrPatch@@QAEPANXZ 10014390 f i Dlg_LMR.obj
 0001:000133b0       ?SetDis_AngPointer_T@CDrPatch@@QAEXPAN@Z 100143b0 f i Dlg_LMR.obj
 0001:000133e0       ?GetData_Ex_T@CDrPatch@@QAEHXZ 100143e0 f i Dlg_LMR.obj
 0001:00013400       ?SetData_Ex_T@CDrPatch@@QAEXH@Z 10014400 f i Dlg_LMR.obj
 0001:00013430       ?IsExpanded_T@CDrPatch@@QAEHXZ 10014430 f i Dlg_LMR.obj
 0001:00013450       ?SetExpanded_T@CDrPatch@@QAEXH@Z 10014450 f i Dlg_LMR.obj
 0001:00013480       ?GetMaxENodes_T@CDrPatch@@QAEHXZ 10014480 f i Dlg_LMR.obj
 0001:000134a0       ?SetMaxENodes_T@CDrPatch@@QAEXH@Z 100144a0 f i Dlg_LMR.obj
 0001:000134d0       ?GetRadius_T@CDrPatch@@QAENXZ 100144d0 f i Dlg_LMR.obj
 0001:000134f0       ?SetRadius_T@CDrPatch@@QAEXN@Z 100144f0 f i Dlg_LMR.obj
 0001:00013520       ?GetTheta_T@CDrPatch@@QAENXZ 10014520 f i Dlg_LMR.obj
 0001:00013540       ?SetTheta_T@CDrPatch@@QAEXN@Z 10014540 f i Dlg_LMR.obj
 0001:00013570       ?GetCenter_T@CDrPatch@@QAE?AUWORLD@@XZ 10014570 f i Dlg_LMR.obj
 0001:000135a0       ?SetCenter_T@CDrPatch@@QAEXUWORLD@@@Z 100145a0 f i Dlg_LMR.obj
 0001:00013600       ?GetNormal_T@CDrPatch@@QAE?AUWORLD@@XZ 10014600 f i Dlg_LMR.obj
 0001:00013630       ?SetNormal_T@CDrPatch@@QAEXUWORLD@@@Z 10014630 f i Dlg_LMR.obj
 0001:00013690       ?GetSegAngle_T@CDrPatch@@QAENXZ 10014690 f i Dlg_LMR.obj
 0001:000136b0       ?SetSegAngle_T@CDrPatch@@QAEXN@Z 100146b0 f i Dlg_LMR.obj
 0001:000136e0       ?IsHole_T@CDrPatch@@QAEHXZ 100146e0 f i Dlg_LMR.obj
 0001:00013700       ?SetHole_T@CDrPatch@@QAEXH@Z 10014700 f i Dlg_LMR.obj
 0001:00013730       ?GetpTangents_T@CDrPatch@@QAEPAUWORLD@@XZ 10014730 f i Dlg_LMR.obj
 0001:00013750       ?SetpTangents_T@CDrPatch@@QAEXPAUWORLD@@@Z 10014750 f i Dlg_LMR.obj
 0001:00013780       ?GetpCurvatures_T@CDrPatch@@QAEPANXZ 10014780 f i Dlg_LMR.obj
 0001:000137a0       ?SetpCurvatures_T@CDrPatch@@QAEXPAN@Z 100147a0 f i Dlg_LMR.obj
 0001:000137d0       ?GetRatio_T@CDrPatch@@QAENXZ 100147d0 f i Dlg_LMR.obj
 0001:000137f0       ?SetRatio_T@CDrPatch@@QAEXN@Z 100147f0 f i Dlg_LMR.obj
 0001:00013820       ?GetTwistType_T@CDrPatch@@QAEHXZ 10014820 f i Dlg_LMR.obj
 0001:00013840       ?SetTwistType_T@CDrPatch@@QAEXH@Z 10014840 f i Dlg_LMR.obj
 0001:00013870       ?GetTwistList_T@CDrPatch@@QAEPAV?$CList@NN@@XZ 10014870 f i Dlg_LMR.obj
 0001:00013890       ?GetScaleType_T@CDrPatch@@QAEHXZ 10014890 f i Dlg_LMR.obj
 0001:000138b0       ?SetScaleType_T@CDrPatch@@QAEXH@Z 100148b0 f i Dlg_LMR.obj
 0001:000138e0       ?GetScaleList_T@CDrPatch@@QAEPAV?$CList@NN@@XZ 100148e0 f i Dlg_LMR.obj
 0001:00013900       ?IsIncTwist_T@CDrPatch@@QAEHXZ 10014900 f i Dlg_LMR.obj
 0001:00013920       ?SetIncTwist_T@CDrPatch@@QAEXH@Z 10014920 f i Dlg_LMR.obj
 0001:00013950       ?GetTwistMult_T@CDrPatch@@QAENXZ 10014950 f i Dlg_LMR.obj
 0001:00013970       ?SetTwistMult_T@CDrPatch@@QAEXN@Z 10014970 f i Dlg_LMR.obj
 0001:000139a0       ?GetTwistStart_T@CDrPatch@@QAENXZ 100149a0 f i Dlg_LMR.obj
 0001:000139c0       ?SetTwistStart_T@CDrPatch@@QAEXN@Z 100149c0 f i Dlg_LMR.obj
 0001:000139f0       ?IsIncScale_T@CDrPatch@@QAEHXZ 100149f0 f i Dlg_LMR.obj
 0001:00013a10       ?SetIncScale_T@CDrPatch@@QAEXH@Z 10014a10 f i Dlg_LMR.obj
 0001:00013a40       ?GetScaleMult_T@CDrPatch@@QAENXZ 10014a40 f i Dlg_LMR.obj
 0001:00013a60       ?SetScaleMult_T@CDrPatch@@QAEXN@Z 10014a60 f i Dlg_LMR.obj
 0001:00013a90       ?GetScaleStart_T@CDrPatch@@QAENXZ 10014a90 f i Dlg_LMR.obj
 0001:00013ab0       ?SetScaleStart_T@CDrPatch@@QAEXN@Z 10014ab0 f i Dlg_LMR.obj
 0001:00013ae0       ?GetWorldTwistMult_T@CDrPatch@@QAE?AUWORLD@@XZ 10014ae0 f i Dlg_LMR.obj
 0001:00013b10       ?SetWorldTwistMult_T@CDrPatch@@QAEXUWORLD@@@Z 10014b10 f i Dlg_LMR.obj
 0001:00013b40       ?GetWorldTwistStart_T@CDrPatch@@QAE?AUWORLD@@XZ 10014b40 f i Dlg_LMR.obj
 0001:00013b70       ?SetWorldTwistStart_T@CDrPatch@@QAEXUWORLD@@@Z 10014b70 f i Dlg_LMR.obj
 0001:00013ba0       ?GetWorldScaleMult_T@CDrPatch@@QAE?AUWORLD@@XZ 10014ba0 f i Dlg_LMR.obj
 0001:00013bd0       ?SetWorldScaleMult_T@CDrPatch@@QAEXUWORLD@@@Z 10014bd0 f i Dlg_LMR.obj
 0001:00013c00       ?GetWorldScaleStart_T@CDrPatch@@QAE?AUWORLD@@XZ 10014c00 f i Dlg_LMR.obj
 0001:00013c30       ?SetWorldScaleStart_T@CDrPatch@@QAEXUWORLD@@@Z 10014c30 f i Dlg_LMR.obj
 0001:00013c60       ?GetTriangleList@CDrPatch@@UAEPAVCDListMgr@@XZ 10014c60 f i Dlg_LMR.obj
 0001:00013c80       ?GetnOutGlo_S@CDrPatch@@QAEHXZ 10014c80 f i Dlg_LMR.obj
 0001:00013ca0       ?SetnOutGlo_S@CDrPatch@@QAEXH@Z 10014ca0 f i Dlg_LMR.obj
 0001:00013cd0       ?IsGenBCurve@CDrPatch@@QAEHXZ 10014cd0 f i Dlg_LMR.obj
 0001:00013cf0       ?SetGenBCurve@CDrPatch@@QAEXH@Z 10014cf0 f i Dlg_LMR.obj
 0001:00013d20       ??0CDlg_LMR@@QAE@PAVCWnd@@@Z 10014d20 f   Dlg_LMR.obj
 0001:00013eb0       ??_ECDlg_LMR@@UAEPAXI@Z    10014eb0 f i Dlg_LMR.obj
 0001:00013eb0       ??_GCDlg_LMR@@UAEPAXI@Z    10014eb0 f i Dlg_LMR.obj
 0001:00013ef0       ?DoDataExchange@CDlg_LMR@@MAEXPAVCDataExchange@@@Z 10014ef0 f   Dlg_LMR.obj
 0001:00014030       ?_GetBaseMessageMap@CDlg_LMR@@KGPBUAFX_MSGMAP@@XZ 10015030 f   Dlg_LMR.obj
 0001:00014050       ?GetMessageMap@CDlg_LMR@@MBEPBUAFX_MSGMAP@@XZ 10015050 f   Dlg_LMR.obj
 0001:00014070       ?OnInitDialog@CDlg_LMR@@MAEHXZ 10015070 f   Dlg_LMR.obj
 0001:00014340       ?OnTangent@CDlg_LMR@@IAEXXZ 10015340 f   Dlg_LMR.obj
 0001:00014360       ?OnAngleInput@CDlg_LMR@@IAEXXZ 10015360 f   Dlg_LMR.obj
 0001:000144b0       ?OnSelchangeCnodeFrom@CDlg_LMR@@IAEXXZ 100154b0 f   Dlg_LMR.obj
 0001:00014520       ?OnSelchangeCnodeTo@CDlg_LMR@@IAEXXZ 10015520 f   Dlg_LMR.obj
 0001:00014590       ?FillListAllString@CDlg_LMR@@IAEHIAAVCString@@@Z 10015590 f   Dlg_LMR.obj
 0001:000146e0       ?ShowRotations@CDlg_LMR@@IAEXXZ 100156e0 f   Dlg_LMR.obj
 0001:00014ab0       ?OnCancel@CDlg_LMR@@MAEXXZ 10015ab0 f   Dlg_LMR.obj
 0001:00014ad0       ?OnOK@CDlg_LMR@@MAEXXZ     10015ad0 f   Dlg_LMR.obj
 0001:00014b00       ??1?$CList@HH@@UAE@XZ      10015b00 f i Dlg_LMR.obj
 0001:00014b80       ?Serialize@?$CList@HH@@UAEXAAVCArchive@@@Z 10015b80 f i Dlg_LMR.obj
 0001:00014c70       ?Dump@?$CList@HH@@UBEXAAVCDumpContext@@@Z 10015c70 f i Dlg_LMR.obj
 0001:00014d10       ?AssertValid@?$CList@HH@@UBEXXZ 10015d10 f i Dlg_LMR.obj
 0001:00014de0       ??_E?$CList@HH@@UAEPAXI@Z  10015de0 f i Dlg_LMR.obj
 0001:00014de0       ??_G?$CList@HH@@UAEPAXI@Z  10015de0 f i Dlg_LMR.obj
 0001:00014e20       ?AddTail@?$CList@HH@@QAEPAU__POSITION@@H@Z 10015e20 f i Dlg_LMR.obj
 0001:00014e90       ?RemoveAll@?$CList@HH@@QAEXXZ 10015e90 f i Dlg_LMR.obj
 0001:00014f20       ?GetHeadPosition@?$CList@HH@@QBEPAU__POSITION@@XZ 10015f20 f i Dlg_LMR.obj
 0001:00014f40       ?GetNext@?$CList@HH@@QAEAAHAAPAU__POSITION@@@Z 10015f40 f i Dlg_LMR.obj
 0001:00014fa0       ?SerializeElements@@YGXAAVCArchive@@PAHH@Z 10015fa0 f i Dlg_LMR.obj
 0001:00015020       ?DumpElements@@YGXAAVCDumpContext@@PBHH@Z 10016020 f i Dlg_LMR.obj
 0001:00015070       ?NewNode@?$CList@HH@@IAEPAUCNode@1@PAU21@0@Z 10016070 f i Dlg_LMR.obj
 0001:00015190       ?DestructElements@@YGXPAHH@Z 10016190 f i Dlg_LMR.obj
 0001:00015200       ?ConstructElements@@YGXPAHH@Z 10016200 f i Dlg_LMR.obj
 0001:00015290       ??2@YAPAXIPAX@Z            10016290 f i Dlg_LMR.obj
 0001:000152b0       ??0CDlg_LMTR@@QAE@PAVCWnd@@@Z 100162b0 f   Dlg_LMTR.obj
 0001:00015490       ??_GCDlg_LMTR@@UAEPAXI@Z   10016490 f i Dlg_LMTR.obj
 0001:00015490       ??_ECDlg_LMTR@@UAEPAXI@Z   10016490 f i Dlg_LMTR.obj
 0001:000154d0       ?DoDataExchange@CDlg_LMTR@@MAEXPAVCDataExchange@@@Z 100164d0 f   Dlg_LMTR.obj
 0001:00015660       ?_GetBaseMessageMap@CDlg_LMTR@@KGPBUAFX_MSGMAP@@XZ 10016660 f   Dlg_LMTR.obj
 0001:00015680       ?GetMessageMap@CDlg_LMTR@@MBEPBUAFX_MSGMAP@@XZ 10016680 f   Dlg_LMTR.obj
 0001:000156a0       ?OnInitDialog@CDlg_LMTR@@MAEHXZ 100166a0 f   Dlg_LMTR.obj
 0001:000159b0       ?OnTangent@CDlg_LMTR@@IAEXXZ 100169b0 f   Dlg_LMTR.obj
 0001:000159d0       ?OnAngleInput@CDlg_LMTR@@IAEXXZ 100169d0 f   Dlg_LMTR.obj
 0001:00015b20       ?OnSelchangeCnodeFrom@CDlg_LMTR@@IAEXXZ 10016b20 f   Dlg_LMTR.obj
 0001:00015b90       ?OnSelchangeCnodeTo@CDlg_LMTR@@IAEXXZ 10016b90 f   Dlg_LMTR.obj
 0001:00015c00       ?OnSelchangeTranPt@CDlg_LMTR@@IAEXXZ 10016c00 f   Dlg_LMTR.obj
 0001:00015c30       ?FillListAllString@CDlg_LMTR@@IAEHIAAVCString@@@Z 10016c30 f   Dlg_LMTR.obj
 0001:00015d80       ?ShowRotations@CDlg_LMTR@@IAEXXZ 10016d80 f   Dlg_LMTR.obj
 0001:00016150       ?ShowTranslations@CDlg_LMTR@@IAEXXZ 10017150 f   Dlg_LMTR.obj
 0001:00016380       ?OnCancel@CDlg_LMTR@@MAEXXZ 10017380 f   Dlg_LMTR.obj
 0001:000163a0       ?OnOK@CDlg_LMTR@@MAEXXZ    100173a0 f   Dlg_LMTR.obj
 0001:000163d0       ??1CDlg_LQCI@@UAE@XZ       100173d0 f i dlg_lqci.obj
 0001:00016440       ??0CDlg_LQCI@@QAE@PAVCWnd@@@Z 10017440 f   dlg_lqci.obj
 0001:00016500       ??_GCDlg_LQCI@@UAEPAXI@Z   10017500 f i dlg_lqci.obj
 0001:00016540       ??_ECDlg_LQCI@@UAEPAXI@Z   10017540 f i dlg_lqci.obj
 0001:000165c0       ?DoDataExchange@CDlg_LQCI@@MAEXPAVCDataExchange@@@Z 100175c0 f   dlg_lqci.obj
 0001:000166b0       ?_GetBaseMessageMap@CDlg_LQCI@@KGPBUAFX_MSGMAP@@XZ 100176b0 f   dlg_lqci.obj
 0001:000166d0       ?GetMessageMap@CDlg_LQCI@@MBEPBUAFX_MSGMAP@@XZ 100176d0 f   dlg_lqci.obj
 0001:000166f0       ?OnInitDialog@CDlg_LQCI@@MAEHXZ 100176f0 f   dlg_lqci.obj
 0001:00016720       ?Create@CDlg_LQCI@@QAEHXZ  10017720 f   dlg_lqci.obj
 0001:00016810       ?OnSelchangeCid@CDlg_LQCI@@IAEXXZ 10017810 f   dlg_lqci.obj
 0001:00016830       ?OnSelchangeNid@CDlg_LQCI@@IAEXXZ 10017830 f   dlg_lqci.obj
 0001:00016850       ?OnClosed@CDlg_LQCI@@IAEXXZ 10017850 f   dlg_lqci.obj
 0001:000168e0       ?OnCancel@CDlg_LQCI@@MAEXXZ 100178e0 f   dlg_lqci.obj
 0001:00016920       ?OnUpdate@CDlg_LQCI@@IAEXXZ 10017920 f   dlg_lqci.obj
 0001:00016970       ?OnKillfocusCoord@CDlg_LQCI@@IAEXXZ 10017970 f   dlg_lqci.obj
 0001:000169c0       ?OnUniform@CDlg_LQCI@@IAEXXZ 100179c0 f   dlg_lqci.obj
 0001:000169e0       ??0CDlg_Tang@@QAE@PAVCWnd@@@Z 100179e0 f   Dlg_tang.obj
 0001:00016b40       ??_ECDlg_Tang@@UAEPAXI@Z   10017b40 f i Dlg_tang.obj
 0001:00016b40       ??_GCDlg_Tang@@UAEPAXI@Z   10017b40 f i Dlg_tang.obj
 0001:00016b80       ?DoDataExchange@CDlg_Tang@@MAEXPAVCDataExchange@@@Z 10017b80 f   Dlg_tang.obj
 0001:00016c30       ?_GetBaseMessageMap@CDlg_Tang@@KGPBUAFX_MSGMAP@@XZ 10017c30 f   Dlg_tang.obj
 0001:00016c50       ?GetMessageMap@CDlg_Tang@@MBEPBUAFX_MSGMAP@@XZ 10017c50 f   Dlg_tang.obj
 0001:00016c70       ?OnInitDialog@CDlg_Tang@@MAEHXZ 10017c70 f   Dlg_tang.obj
 0001:00016e50       ?OnCoordInput@CDlg_Tang@@IAEXXZ 10017e50 f   Dlg_tang.obj
 0001:00016f50       ?OnSelchangeCnodeFrom@CDlg_Tang@@IAEXXZ 10017f50 f   Dlg_tang.obj
 0001:00016fc0       ?OnSelchangeCnodeTo@CDlg_Tang@@IAEXXZ 10017fc0 f   Dlg_tang.obj
 0001:00017030       ?FillListAllString@CDlg_Tang@@IAEHIAAVCString@@@Z 10018030 f   Dlg_tang.obj
 0001:00017180       ?ShowTangent@CDlg_Tang@@IAEXXZ 10018180 f   Dlg_tang.obj
 0001:00017650       ?OnCancel@CDlg_Tang@@MAEXXZ 10018650 f   Dlg_tang.obj
 0001:00017670       ?OnOK@CDlg_Tang@@MAEXXZ    10018670 f   Dlg_tang.obj
 0001:000176a0       ??0CDlg_Wts@@QAE@PAVCWnd@@@Z 100186a0 f   Dlg_wts.obj
 0001:000177a0       ??_ECDlg_Wts@@UAEPAXI@Z    100187a0 f i Dlg_wts.obj
 0001:000177a0       ??_GCDlg_Wts@@UAEPAXI@Z    100187a0 f i Dlg_wts.obj
 0001:000177e0       ?DoDataExchange@CDlg_Wts@@MAEXPAVCDataExchange@@@Z 100187e0 f   Dlg_wts.obj
 0001:00017830       ?_GetBaseMessageMap@CDlg_Wts@@KGPBUAFX_MSGMAP@@XZ 10018830 f   Dlg_wts.obj
 0001:00017850       ?GetMessageMap@CDlg_Wts@@MBEPBUAFX_MSGMAP@@XZ 10018850 f   Dlg_wts.obj
 0001:00017870       ?OnInitDialog@CDlg_Wts@@MAEHXZ 10018870 f   Dlg_wts.obj
 0001:00017930       ?OnDel@CDlg_Wts@@IAEXXZ    10018930 f   Dlg_wts.obj
 0001:000179f0       ?OnAdd@CDlg_Wts@@IAEXXZ    100189f0 f   Dlg_wts.obj
 0001:00017b30       ?OnEdit@CDlg_Wts@@IAEXXZ   10018b30 f   Dlg_wts.obj
 0001:00017bb0       ?OnOK@CDlg_Wts@@MAEXXZ     10018bb0 f   Dlg_wts.obj
 0001:00017cb0       ??_GCString@@QAEPAXI@Z     10018cb0 f i Dlg_wts.obj
 0001:00017cf0       ?OnSelchangeList@CDlg_Wts@@IAEXXZ 10018cf0 f   Dlg_wts.obj
 0001:00017d40       ?FillOthers@CDlg_Wts@@IAEXH@Z 10018d40 f   Dlg_wts.obj
 0001:00017d70       ?FillListAllString@CDlg_Wts@@IAEXXZ 10018d70 f   Dlg_wts.obj
 0001:00017e50       ?EmptyListAllString@CDlg_Wts@@IAEXXZ 10018e50 f   Dlg_wts.obj
 0001:00017ec0       ??0CElg_CNO3@@QAE@PAVCDrCurve@@PAVCWnd@@@Z 10018ec0 f   Elg_CNO3.obj
 0001:00018040       ??_GCElg_CNO3@@UAEPAXI@Z   10019040 f i Elg_CNO3.obj
 0001:00018040       ??_ECElg_CNO3@@UAEPAXI@Z   10019040 f i Elg_CNO3.obj
 0001:00018080       ??1CElg_CNO3@@UAE@XZ       10019080 f i Elg_CNO3.obj
 0001:00018100       ?DoDataExchange@CElg_CNO3@@MAEXPAVCDataExchange@@@Z 10019100 f   Elg_CNO3.obj
 0001:000181f0       ?_GetBaseMessageMap@CElg_CNO3@@KGPBUAFX_MSGMAP@@XZ 100191f0 f   Elg_CNO3.obj
 0001:00018210       ?GetMessageMap@CElg_CNO3@@MBEPBUAFX_MSGMAP@@XZ 10019210 f   Elg_CNO3.obj
 0001:00018230       ?OnInitDialog@CElg_CNO3@@MAEHXZ 10019230 f   Elg_CNO3.obj
 0001:00018340       ?Init@CElg_CNO3@@IAEXXZ    10019340 f   Elg_CNO3.obj
 0001:00018650       ?OnDel@CElg_CNO3@@IAEXXZ   10019650 f   Elg_CNO3.obj
 0001:000186d0       ?OnAdd@CElg_CNO3@@IAEXXZ   100196d0 f   Elg_CNO3.obj
 0001:00018810       ?OnOK@CElg_CNO3@@MAEXXZ    10019810 f   Elg_CNO3.obj
 0001:00018990       ?OnCancel@CElg_CNO3@@MAEXXZ 10019990 f   Elg_CNO3.obj
 0001:000189f0       ?FillListAllString_Select@CElg_CNO3@@IAEXXZ 100199f0 f   Elg_CNO3.obj
 0001:00018b20       ?FillListAllString_Pool@CElg_CNO3@@IAEXXZ 10019b20 f   Elg_CNO3.obj
 0001:00018c50       ?FillListAllString_Curve@CElg_CNO3@@IAEXXZ 10019c50 f   Elg_CNO3.obj
 0001:00018d90       ?EmptyListAllString@CElg_CNO3@@IAEXXZ 10019d90 f   Elg_CNO3.obj
 0001:00018df0       ?OnClosed@CElg_CNO3@@IAEXXZ 10019df0 f   Elg_CNO3.obj
 0001:00018f30       ?OnAngspec@CElg_CNO3@@IAEXXZ 10019f30 f   Elg_CNO3.obj
 0001:00018fb0       ?OnArc@CElg_CNO3@@IAEXXZ   10019fb0 f   Elg_CNO3.obj
 0001:00019030       ?OnAutoSeg@CElg_CNO3@@IAEXXZ 1001a030 f   Elg_CNO3.obj
 0001:000190a0       ?OnKillfocusSegAngle@CElg_CNO3@@IAEXXZ 1001a0a0 f   Elg_CNO3.obj
 0001:000190c0       ?SetInfoForDataBase@CElg_CNO3@@IAEHPAVCDrCurve@@@Z 1001a0c0 f   Elg_CNO3.obj
 0001:00019ab0       ?SetAdditionalInfo@CElg_CNO3@@IAEHPAVCDrCurve@@PAN@Z 1001aab0 f   Elg_CNO3.obj
 0001:00019bd0       ?SetUpINodes@CElg_CNO3@@IAEHPAVCDListMgr@@PAUWORLD@@H@Z 1001abd0 f   Elg_CNO3.obj
 0001:00019cc0       ?Calc_C_R_Normal@CElg_CNO3@@IAEHPAUWORLD@@0PAN0@Z 1001acc0 f   Elg_CNO3.obj
 0001:0001a170       ?Calc_CentralAngles@CElg_CNO3@@IAENPAUWORLD@@U2@N@Z 1001b170 f   Elg_CNO3.obj
 0001:0001a2b0       ?CreateObject@CIn_Circle@@SGPAVCObject@@XZ 1001b2b0 f   In_Circle.obj
 0001:0001a320       ?_GetBaseClass@CIn_Circle@@KGPAUCRuntimeClass@@XZ 1001b320 f   In_Circle.obj
 0001:0001a340       ?GetRuntimeClass@CIn_Circle@@UBEPAUCRuntimeClass@@XZ 1001b340 f   In_Circle.obj
 0001:0001a3a0       ??0AFX_CLASSINIT@@QAE@PAUCRuntimeClass@@@Z 1001b3a0 f i In_Circle.obj
 0001:0001a3d0       ??5@YGAAVCArchive@@AAV0@AAPAVCIn_Circle@@@Z 1001b3d0 f   In_Circle.obj
 0001:0001a400       ??0CIn_Circle@@QAE@XZ      1001b400 f   In_Circle.obj
 0001:0001a430       ?SetnData_S@CIn_Conics@@UAEXH@Z 1001b430 f i In_Circle.obj
 0001:0001a450       ?SetnOrder_S@CIn_Conics@@UAEXH@Z 1001b450 f i In_Circle.obj
 0001:0001a470       ?SetbClosed_S@CIn_Conics@@UAEXH@Z 1001b470 f i In_Circle.obj
 0001:0001a490       ?SetnDim_S@CIn_Conics@@UAEXH@Z 1001b490 f i In_Circle.obj
 0001:0001a4b0       ?SetnDegree_S@CIn_Conics@@UAEXH@Z 1001b4b0 f i In_Circle.obj
 0001:0001a4d0       ?SetnSeg_DT_S@CIn_Conics@@UAEXH@Z 1001b4d0 f i In_Circle.obj
 0001:0001a4f0       ?SetnCon_BS_S@CIn_Conics@@UAEXH@Z 1001b4f0 f i In_Circle.obj
 0001:0001a510       ?SetnCon_BZ_S@CIn_Conics@@UAEXH@Z 1001b510 f i In_Circle.obj
 0001:0001a530       ?GetpWts_BS_S@CIn_Conics@@UAEPANXZ 1001b530 f i In_Circle.obj
 0001:0001a550       ?GetpWts_BZ_S@CIn_Conics@@UAEPANXZ 1001b550 f i In_Circle.obj
 0001:0001a570       ?GetpData@CIn_Conics@@UAEPAUWORLD@@XZ 1001b570 f i In_Circle.obj
 0001:0001a590       ?GetpCon_BS_S@CIn_Conics@@UAEPAUWORLD@@XZ 1001b590 f i In_Circle.obj
 0001:0001a5b0       ?GetpCon_BZ_S@CIn_Conics@@UAEPAUWORLD@@XZ 1001b5b0 f i In_Circle.obj
 0001:0001a5d0       ?SetpWts_BS_S@CIn_Conics@@UAEXPAN@Z 1001b5d0 f i In_Circle.obj
 0001:0001a5f0       ?SetpWts_BZ_S@CIn_Conics@@UAEXPAN@Z 1001b5f0 f i In_Circle.obj
 0001:0001a610       ?SetpData@CIn_Conics@@UAEXPAUWORLD@@@Z 1001b610 f i In_Circle.obj
 0001:0001a630       ?SetpCon_BS_S@CIn_Conics@@UAEXPAUWORLD@@@Z 1001b630 f i In_Circle.obj
 0001:0001a650       ?SetpCon_BZ_S@CIn_Conics@@UAEXPAUWORLD@@@Z 1001b650 f i In_Circle.obj
 0001:0001a670       ??_GCIn_Circle@@UAEPAXI@Z  1001b670 f i In_Circle.obj
 0001:0001a670       ??_ECIn_Circle@@UAEPAXI@Z  1001b670 f i In_Circle.obj
 0001:0001a6b0       ??1CIn_Circle@@UAE@XZ      1001b6b0 f   In_Circle.obj
 0001:0001a6e0       ?Prepare@CIn_Circle@@QAEHXZ 1001b6e0 f   In_Circle.obj
 0001:0001a7a0       ?Compute_InBetweens@CIn_Circle@@IAEHPAUWORLD@@U2@N0PANHH@Z 1001b7a0 f   In_Circle.obj
 0001:0001a8b0       ?Compute_b1_w1@CIn_Circle@@IAEHUWORLD@@00NPAU2@PAN@Z 1001b8b0 f   In_Circle.obj
 0001:0001a9b0       ?Interpolate@CIn_Circle@@QAEHXZ 1001b9b0 f   In_Circle.obj
 0001:0001ab60       ?Serialize@CIn_Circle@@UAEXAAVCArchive@@@Z 1001bb60 f   In_Circle.obj
 0001:0001abb0       ?CreateObject@CIn_Conics@@SGPAVCObject@@XZ 1001bbb0 f   In_Conics.obj
 0001:0001ac20       ?_GetBaseClass@CIn_Conics@@KGPAUCRuntimeClass@@XZ 1001bc20 f   In_Conics.obj
 0001:0001ac40       ?GetRuntimeClass@CIn_Conics@@UBEPAUCRuntimeClass@@XZ 1001bc40 f   In_Conics.obj
 0001:0001aca0       ??5@YGAAVCArchive@@AAV0@AAPAVCIn_Conics@@@Z 1001bca0 f   In_Conics.obj
 0001:0001acd0       ??0CIn_Conics@@QAE@XZ      1001bcd0 f   In_Conics.obj
 0001:0001ad60       ??_ECIn_Conics@@UAEPAXI@Z  1001bd60 f i In_Conics.obj
 0001:0001ad60       ??_GCIn_Conics@@UAEPAXI@Z  1001bd60 f i In_Conics.obj
 0001:0001ada0       ??1CIn_Conics@@UAE@XZ      1001bda0 f   In_Conics.obj
 0001:0001aec0       ?FillUpBezier@CIn_Conics@@IAEHPAUWORLD@@0PAN01HHH@Z 1001bec0 f   In_Conics.obj
 0001:0001b2c0       ?FillUpSpline@CIn_Conics@@IAEHPAUWORLD@@PANH01HHH@Z 1001c2c0 f   In_Conics.obj
 0001:0001b460       ?GetPlanarCoords@CIn_Conics@@IAEHUWORLD@@000PAU2@111@Z 1001c460 f   In_Conics.obj
 0001:0001b6a0       ?Rat_Subdivide_Conic@CIn_Conics@@IAEHUWORLD@@0000PAU2@PAN12@Z 1001c6a0 f   In_Conics.obj
 0001:0001b870       ?FindBaryfor3rdPt@CIn_Conics@@IAEHUWORLD@@000PAU2@@Z 1001c870 f   In_Conics.obj
 0001:0001b9c0       ?Compute_w1@CIn_Conics@@IAEHUWORLD@@PAN@Z 1001c9c0 f   In_Conics.obj
 0001:0001ba10       ?Serialize@CIn_Conics@@UAEXAAVCArchive@@@Z 1001ca10 f   In_Conics.obj
 0001:0001ba60       ?CreateObject@CIn_Parab@@SGPAVCObject@@XZ 1001ca60 f   In_Parab.obj
 0001:0001bad0       ?_GetBaseClass@CIn_Parab@@KGPAUCRuntimeClass@@XZ 1001cad0 f   In_Parab.obj
 0001:0001baf0       ?GetRuntimeClass@CIn_Parab@@UBEPAUCRuntimeClass@@XZ 1001caf0 f   In_Parab.obj
 0001:0001bb50       ??5@YGAAVCArchive@@AAV0@AAPAVCIn_Parab@@@Z 1001cb50 f   In_Parab.obj
 0001:0001bb80       ??0CIn_Parab@@QAE@XZ       1001cb80 f   In_Parab.obj
 0001:0001bbf0       ??_GCIn_Parab@@UAEPAXI@Z   1001cbf0 f i In_Parab.obj
 0001:0001bbf0       ??_ECIn_Parab@@UAEPAXI@Z   1001cbf0 f i In_Parab.obj
 0001:0001bc30       ??1CIn_Parab@@UAE@XZ       1001cc30 f   In_Parab.obj
 0001:0001bd50       ?Prepare@CIn_Parab@@QAEHXZ 1001cd50 f   In_Parab.obj
 0001:0001bdf0       ?Compute_InBetweens@CIn_Parab@@IAEHPAUWORLD@@0PANH@Z 1001cdf0 f   In_Parab.obj
 0001:0001c060       ?Interpolate@CIn_Parab@@QAEHXZ 1001d060 f   In_Parab.obj
 0001:0001c250       ?Serialize@CIn_Parab@@UAEXAAVCArchive@@@Z 1001d250 f   In_Parab.obj
 0001:0001c2a0       ?CreateObject@CInter_C1@@SGPAVCObject@@XZ 1001d2a0 f   Inter_c1.obj
 0001:0001c310       ?_GetBaseClass@CInter_C1@@KGPAUCRuntimeClass@@XZ 1001d310 f   Inter_c1.obj
 0001:0001c330       ?GetRuntimeClass@CInter_C1@@UBEPAUCRuntimeClass@@XZ 1001d330 f   Inter_c1.obj
 0001:0001c390       ??5@YGAAVCArchive@@AAV0@AAPAVCInter_C1@@@Z 1001d390 f   Inter_c1.obj
 0001:0001c3c0       ??0CInter_C1@@QAE@XZ       1001d3c0 f   Inter_c1.obj
 0001:0001c410       ?SetnData_S@CInter_C1@@UAEXH@Z 1001d410 f i Inter_c1.obj
 0001:0001c430       ?SetnOrder_S@CInter_C1@@UAEXH@Z 1001d430 f i Inter_c1.obj
 0001:0001c450       ?SetbClosed_S@CInter_C1@@UAEXH@Z 1001d450 f i Inter_c1.obj
 0001:0001c470       ?SetnDegree_S@CInter_C1@@UAEXH@Z 1001d470 f i Inter_c1.obj
 0001:0001c490       ?SetnSeg_DT_S@CInter_C1@@UAEXH@Z 1001d490 f i Inter_c1.obj
 0001:0001c4b0       ?SetnCon_BS_S@CInter_C1@@UAEXH@Z 1001d4b0 f i Inter_c1.obj
 0001:0001c4d0       ?SetnCon_BZ_S@CInter_C1@@UAEXH@Z 1001d4d0 f i Inter_c1.obj
 0001:0001c4f0       ?GetpData@CInter_C1@@UAEPAUWORLD@@XZ 1001d4f0 f i Inter_c1.obj
 0001:0001c510       ?GetpCon_BS_S@CInter_C1@@UAEPAUWORLD@@XZ 1001d510 f i Inter_c1.obj
 0001:0001c530       ?GetpCon_BZ_S@CInter_C1@@UAEPAUWORLD@@XZ 1001d530 f i Inter_c1.obj
 0001:0001c550       ?SetpData@CInter_C1@@UAEXPAUWORLD@@@Z 1001d550 f i Inter_c1.obj
 0001:0001c570       ?SetpCon_BS_S@CInter_C1@@UAEXPAUWORLD@@@Z 1001d570 f i Inter_c1.obj
 0001:0001c590       ?SetpCon_BZ_S@CInter_C1@@UAEXPAUWORLD@@@Z 1001d590 f i Inter_c1.obj
 0001:0001c5b0       ??_GCInter_C1@@UAEPAXI@Z   1001d5b0 f i Inter_c1.obj
 0001:0001c5b0       ??_ECInter_C1@@UAEPAXI@Z   1001d5b0 f i Inter_c1.obj
 0001:0001c5f0       ??1CInter_C1@@UAE@XZ       1001d5f0 f   Inter_c1.obj
 0001:0001c6b0       ?Interpolate@CInter_C1@@UAEHXZ 1001d6b0 f   Inter_c1.obj
 0001:0001c7d0       ?FillUpSpline@CInter_C1@@IAEHPAUWORLD@@0HH@Z 1001d7d0 f   Inter_c1.obj
 0001:0001cc10       ?FillUpBezier@CInter_C1@@IAEHPAUWORLD@@0HH@Z 1001dc10 f   Inter_c1.obj
 0001:0001ceb0       ?Serialize@CInter_C1@@UAEXAAVCArchive@@@Z 1001deb0 f   Inter_c1.obj
 0001:0001cf00       ?CreateObject@CInter_C2@@SGPAVCObject@@XZ 1001df00 f   Inter_c2.obj
 0001:0001cf70       ?_GetBaseClass@CInter_C2@@KGPAUCRuntimeClass@@XZ 1001df70 f   Inter_c2.obj
 0001:0001cf90       ?GetRuntimeClass@CInter_C2@@UBEPAUCRuntimeClass@@XZ 1001df90 f   Inter_c2.obj
 0001:0001cff0       ??5@YGAAVCArchive@@AAV0@AAPAVCInter_C2@@@Z 1001dff0 f   Inter_c2.obj
 0001:0001d020       ??0CInter_C2@@QAE@XZ       1001e020 f   Inter_c2.obj
 0001:0001d100       ?SetnData_S@CInter_C2@@UAEXH@Z 1001e100 f i Inter_c2.obj
 0001:0001d120       ?SetnOrder_S@CInter_C2@@UAEXH@Z 1001e120 f i Inter_c2.obj
 0001:0001d140       ?SetbClosed_S@CInter_C2@@UAEXH@Z 1001e140 f i Inter_c2.obj
 0001:0001d160       ?SetKnotType_S@CInter_C2@@UAEXW4KNOT@@@Z 1001e160 f i Inter_c2.obj
 0001:0001d180       ?SetWtType_S@CInter_C2@@UAEXW4WEIGHT@@@Z 1001e180 f i Inter_c2.obj
 0001:0001d1a0       ?SetBCL@CInter_C2@@UAEXW4BOUNDARY@@@Z 1001e1a0 f i Inter_c2.obj
 0001:0001d1c0       ?SetBCR@CInter_C2@@UAEXW4BOUNDARY@@@Z 1001e1c0 f i Inter_c2.obj
 0001:0001d1e0       ?SetTanL@CInter_C2@@UAEXUVECTOR@@@Z 1001e1e0 f i Inter_c2.obj
 0001:0001d210       ?SetTanR@CInter_C2@@UAEXUVECTOR@@@Z 1001e210 f i Inter_c2.obj
 0001:0001d240       ?SetnDim_S@CInter_C2@@UAEXH@Z 1001e240 f i Inter_c2.obj
 0001:0001d260       ?SetnDegree_S@CInter_C2@@UAEXH@Z 1001e260 f i Inter_c2.obj
 0001:0001d280       ?SetnSeg_DT_S@CInter_C2@@UAEXH@Z 1001e280 f i Inter_c2.obj
 0001:0001d2a0       ?SetnCon_BS_S@CInter_C2@@UAEXH@Z 1001e2a0 f i Inter_c2.obj
 0001:0001d2c0       ?SetnKnots_S@CInter_C2@@UAEXH@Z 1001e2c0 f i Inter_c2.obj
 0001:0001d2e0       ?SetnMKnots_S@CInter_C2@@UAEXH@Z 1001e2e0 f i Inter_c2.obj
 0001:0001d300       ?SetnCon_BZ_S@CInter_C2@@UAEXH@Z 1001e300 f i Inter_c2.obj
 0001:0001d320       ?GetpMKnot_S@CInter_C2@@UAEPANXZ 1001e320 f i Inter_c2.obj
 0001:0001d340       ?GetpKnot_S@CInter_C2@@UAEPANXZ 1001e340 f i Inter_c2.obj
 0001:0001d360       ?GetpWts_DT_S@CInter_C2@@UAEPANXZ 1001e360 f i Inter_c2.obj
 0001:0001d380       ?GetpWts_BS_S@CInter_C2@@UAEPANXZ 1001e380 f i Inter_c2.obj
 0001:0001d3a0       ?GetpWts_BZ_S@CInter_C2@@UAEPANXZ 1001e3a0 f i Inter_c2.obj
 0001:0001d3c0       ?GetpData@CInter_C2@@UAEPAUWORLD@@XZ 1001e3c0 f i Inter_c2.obj
 0001:0001d3e0       ?GetpCon_BS_S@CInter_C2@@UAEPAUWORLD@@XZ 1001e3e0 f i Inter_c2.obj
 0001:0001d400       ?GetpCon_BZ_S@CInter_C2@@UAEPAUWORLD@@XZ 1001e400 f i Inter_c2.obj
 0001:0001d420       ?SetpMKnot_S@CInter_C2@@UAEXPAN@Z 1001e420 f i Inter_c2.obj
 0001:0001d450       ?SetpKnot_S@CInter_C2@@UAEXPAN@Z 1001e450 f i Inter_c2.obj
 0001:0001d480       ?SetpWts_DT_S@CInter_C2@@UAEXPAN@Z 1001e480 f i Inter_c2.obj
 0001:0001d4b0       ?SetpWts_BS_S@CInter_C2@@UAEXPAN@Z 1001e4b0 f i Inter_c2.obj
 0001:0001d4e0       ?SetpWts_BZ_S@CInter_C2@@UAEXPAN@Z 1001e4e0 f i Inter_c2.obj
 0001:0001d510       ?SetpData@CInter_C2@@UAEXPAUWORLD@@@Z 1001e510 f i Inter_c2.obj
 0001:0001d540       ?SetpCon_BS_S@CInter_C2@@UAEXPAUWORLD@@@Z 1001e540 f i Inter_c2.obj
 0001:0001d570       ?SetpCon_BZ_S@CInter_C2@@UAEXPAUWORLD@@@Z 1001e570 f i Inter_c2.obj
 0001:0001d5a0       ??_GCInter_C2@@UAEPAXI@Z   1001e5a0 f i Inter_c2.obj
 0001:0001d5a0       ??_ECInter_C2@@UAEPAXI@Z   1001e5a0 f i Inter_c2.obj
 0001:0001d5e0       ??1CInter_C2@@UAE@XZ       1001e5e0 f   Inter_c2.obj
 0001:0001d820       ?Interpolate@CInter_C2@@UAEHXZ 1001e820 f   Inter_c2.obj
 0001:0001e090       ?SwitchDataAroundIf_BCR@CInter_C2@@IAEHPAUWORLD@@W4WEIGHT@@PANHAAW4BOUNDARY@@3AAUVECTOR@@4@Z 1001f090 f   Inter_c2.obj
 0001:0001e360       ?SetupKnots@CInter_C2@@IAEHPAUWORLD@@W4KNOT@@PANH@Z 1001f360 f   Inter_c2.obj
 0001:0001e8d0       ?SetupWeights@CInter_C2@@IAEHW4WEIGHT@@PANH@Z 1001f8d0 f   Inter_c2.obj
 0001:0001e970       ?SetupData4D@CInter_C2@@IAEHPAUWORLD@@PANH@Z 1001f970 f   Inter_c2.obj
 0001:0001ea10       ?SetupSystem_Close@CInter_C2@@IAEHPAN000H@Z 1001fa10 f   Inter_c2.obj
 0001:0001eaf0       ?SetupBC_Close@CInter_C2@@IAEHPAUWORLD@@PANPAY03NHH@Z 1001faf0 f   Inter_c2.obj
 0001:0001ebc0       ?SetupSystem_Open@CInter_C2@@IAEHPAN000H@Z 1001fbc0 f   Inter_c2.obj
 0001:0001ec90       ?SetupBC_Open@CInter_C2@@IAEHPAN00PAUWORLD@@00UVECTOR@@2PAY03NW4BOUNDARY@@4HH@Z 1001fc90 f   Inter_c2.obj
 0001:0001f040       ?BC_Auto@CInter_C2@@IAEHPAUWORLD@@PANPAY03NW4ENDS@@HH@Z 10020040 f   Inter_c2.obj
 0001:0001f070       ?BC_Tangent@CInter_C2@@IAEHPAUWORLD@@PAN1UVECTOR@@2PAY03NW4ENDS@@HH@Z 10020070 f   Inter_c2.obj
 0001:0001f1e0       ?BC_Free@CInter_C2@@IAEHPAN00PAUWORLD@@00PAY03NW4ENDS@@HH@Z 100201e0 f   Inter_c2.obj
 0001:0001f3c0       ?BC_Bessel@CInter_C2@@IAEHPAUWORLD@@PAN1PAY03NW4ENDS@@HH@Z 100203c0 f   Inter_c2.obj
 0001:0001f710       ?SolveSystem_Open@CInter_C2@@IAEHPAN00PAY03N1HH@Z 10020710 f   Inter_c2.obj
 0001:0001fc50       ?SolveSystem_Close@CInter_C2@@IAEHPAN00PAY03N1HH@Z 10020c50 f   Inter_c2.obj
 0001:00020190       ?FillUpSpline_Open@CInter_C2@@IAEHPAY03NHPAUWORLD@@PAN12H@Z 10021190 f   Inter_c2.obj
 0001:00020a30       ?FillUpSpline_Close@CInter_C2@@IAEHPAY03NHPAUWORLD@@PAN12H@Z 10021a30 f   Inter_c2.obj
 0001:000212c0       ?Convert_BS2BZ@CInter_C2@@IAEHPAY03NPAN0HHH@Z 100222c0 f   Inter_c2.obj
 0001:00021850       ?Convert_BS2BZ@CInter_C2@@IAEHPAY03NPAUWORLD@@PAN221HHH@Z 10022850 f   Inter_c2.obj
 0001:00021950       ?Set4DPreImage_BS@CInter_C2@@IAEHPAY03NPAUWORLD@@PAN0HHH@Z 10022950 f   Inter_c2.obj
 0001:00021fc0       ?FillUpBezier@CInter_C2@@IAEHPAY03NPAUWORLD@@PANHHH@Z 10022fc0 f   Inter_c2.obj
 0001:00022400       ?SwitchControlsBackIf_BCR@CInter_C2@@IAEHPAUWORLD@@PANH01H@Z 10023400 f   Inter_c2.obj
 0001:00022750       ?UpdateToMultKnots@CInter_C2@@IAEHPANH0HH@Z 10023750 f   Inter_c2.obj
 0001:00022770       ?Serialize@CInter_C2@@UAEXAAVCArchive@@@Z 10023770 f   Inter_c2.obj
 0001:000227c0       ?CreateObject@CInter_C3@@SGPAVCObject@@XZ 100237c0 f   Inter_c3.obj
 0001:00022830       ?_GetBaseClass@CInter_C3@@KGPAUCRuntimeClass@@XZ 10023830 f   Inter_c3.obj
 0001:00022850       ?GetRuntimeClass@CInter_C3@@UBEPAUCRuntimeClass@@XZ 10023850 f   Inter_c3.obj
 0001:000228b0       ??5@YGAAVCArchive@@AAV0@AAPAVCInter_C3@@@Z 100238b0 f   Inter_c3.obj
 0001:000228e0       ??0CInter_C3@@QAE@XZ       100238e0 f   Inter_c3.obj
 0001:000229c0       ?SetnData_S@CInter_C3@@UAEXH@Z 100239c0 f i Inter_c3.obj
 0001:000229e0       ?SetnOrder_S@CInter_C3@@UAEXH@Z 100239e0 f i Inter_c3.obj
 0001:00022a00       ?SetbClosed_S@CInter_C3@@UAEXH@Z 10023a00 f i Inter_c3.obj
 0001:00022a20       ?SetKnotType_S@CInter_C3@@UAEXW4KNOT@@@Z 10023a20 f i Inter_c3.obj
 0001:00022a40       ?SetWtType_S@CInter_C3@@UAEXW4WEIGHT@@@Z 10023a40 f i Inter_c3.obj
 0001:00022a60       ?SetBCL@CInter_C3@@UAEXW4BOUNDARY@@@Z 10023a60 f i Inter_c3.obj
 0001:00022a80       ?SetBCR@CInter_C3@@UAEXW4BOUNDARY@@@Z 10023a80 f i Inter_c3.obj
 0001:00022aa0       ?SetTanL@CInter_C3@@UAEXUVECTOR@@@Z 10023aa0 f i Inter_c3.obj
 0001:00022ad0       ?SetTanR@CInter_C3@@UAEXUVECTOR@@@Z 10023ad0 f i Inter_c3.obj
 0001:00022b00       ?SetnDim_S@CInter_C3@@UAEXH@Z 10023b00 f i Inter_c3.obj
 0001:00022b20       ?SetnDegree_S@CInter_C3@@UAEXH@Z 10023b20 f i Inter_c3.obj
 0001:00022b40       ?SetnSeg_DT_S@CInter_C3@@UAEXH@Z 10023b40 f i Inter_c3.obj
 0001:00022b60       ?SetnCon_BS_S@CInter_C3@@UAEXH@Z 10023b60 f i Inter_c3.obj
 0001:00022b80       ?SetnKnots_S@CInter_C3@@UAEXH@Z 10023b80 f i Inter_c3.obj
 0001:00022ba0       ?SetnMKnots_S@CInter_C3@@UAEXH@Z 10023ba0 f i Inter_c3.obj
 0001:00022bc0       ?SetnCon_BZ_S@CInter_C3@@UAEXH@Z 10023bc0 f i Inter_c3.obj
 0001:00022be0       ?GetpMKnot_S@CInter_C3@@UAEPANXZ 10023be0 f i Inter_c3.obj
 0001:00022c00       ?GetpKnot_S@CInter_C3@@UAEPANXZ 10023c00 f i Inter_c3.obj
 0001:00022c20       ?GetpWts_DT_S@CInter_C3@@UAEPANXZ 10023c20 f i Inter_c3.obj
 0001:00022c40       ?GetpWts_BS_S@CInter_C3@@UAEPANXZ 10023c40 f i Inter_c3.obj
 0001:00022c60       ?GetpWts_BZ_S@CInter_C3@@UAEPANXZ 10023c60 f i Inter_c3.obj
 0001:00022c80       ?GetpData@CInter_C3@@UAEPAUWORLD@@XZ 10023c80 f i Inter_c3.obj
 0001:00022ca0       ?GetpCon_BS_S@CInter_C3@@UAEPAUWORLD@@XZ 10023ca0 f i Inter_c3.obj
 0001:00022cc0       ?GetpCon_BZ_S@CInter_C3@@UAEPAUWORLD@@XZ 10023cc0 f i Inter_c3.obj
 0001:00022ce0       ?SetpMKnot_S@CInter_C3@@UAEXPAN@Z 10023ce0 f i Inter_c3.obj
 0001:00022d10       ?SetpKnot_S@CInter_C3@@UAEXPAN@Z 10023d10 f i Inter_c3.obj
 0001:00022d40       ?SetpWts_DT_S@CInter_C3@@UAEXPAN@Z 10023d40 f i Inter_c3.obj
 0001:00022d70       ?SetpWts_BS_S@CInter_C3@@UAEXPAN@Z 10023d70 f i Inter_c3.obj
 0001:00022da0       ?SetpWts_BZ_S@CInter_C3@@UAEXPAN@Z 10023da0 f i Inter_c3.obj
 0001:00022dd0       ?SetpData@CInter_C3@@UAEXPAUWORLD@@@Z 10023dd0 f i Inter_c3.obj
 0001:00022e00       ?SetpCon_BS_S@CInter_C3@@UAEXPAUWORLD@@@Z 10023e00 f i Inter_c3.obj
 0001:00022e30       ?SetpCon_BZ_S@CInter_C3@@UAEXPAUWORLD@@@Z 10023e30 f i Inter_c3.obj
 0001:00022e60       ??_ECInter_C3@@UAEPAXI@Z   10023e60 f i Inter_c3.obj
 0001:00022e60       ??_GCInter_C3@@UAEPAXI@Z   10023e60 f i Inter_c3.obj
 0001:00022ea0       ??1CInter_C3@@UAE@XZ       10023ea0 f   Inter_c3.obj
 0001:000230e0       ?Interpolate@CInter_C3@@UAEHXZ 100240e0 f   Inter_c3.obj
 0001:00023890       ?SetupWeights@CInter_C3@@IAEHW4WEIGHT@@PANH@Z 10024890 f   Inter_c3.obj
 0001:00023930       ?SetupData4D@CInter_C3@@IAEHPAUWORLD@@PANH@Z 10024930 f   Inter_c3.obj
 0001:000239d0       ?SetupKnots@CInter_C3@@IAEHPAUWORLD@@W4KNOT@@PANH@Z 100249d0 f   Inter_c3.obj
 0001:00023f90       ?SetupSystem_Close@CInter_C3@@IAEHPAN000H@Z 10024f90 f   Inter_c3.obj
 0001:00024170       ?SetupBC_Close@CInter_C3@@IAEHPAUWORLD@@PANPAY03NHH@Z 10025170 f   Inter_c3.obj
 0001:00024240       ?SetupSystem_Open@CInter_C3@@IAEHPAN000H@Z 10025240 f   Inter_c3.obj
 0001:00024520       ?SetupBC_Open@CInter_C3@@IAEHPAN00PAUWORLD@@00UVECTOR@@2PAY03NW4BOUNDARY@@4HH@Z 10025520 f   Inter_c3.obj
 0001:00024970       ?BC_Auto@CInter_C3@@IAEHPAUWORLD@@PANPAY03NW4ENDS@@HH@Z 10025970 f   Inter_c3.obj
 0001:000249a0       ?BC_Tangent@CInter_C3@@IAEHPAUWORLD@@PAN1UVECTOR@@2PAY03NW4ENDS@@HH@Z 100259a0 f   Inter_c3.obj
 0001:00024b00       ?BC_Free@CInter_C3@@IAEHPAN00PAUWORLD@@00PAY03NW4ENDS@@HH@Z 10025b00 f   Inter_c3.obj
 0001:00024dc0       ?BC_Bessel@CInter_C3@@IAEHPAUWORLD@@PAN1PAY03NW4ENDS@@HH@Z 10025dc0 f   Inter_c3.obj
 0001:000251d0       ?BC_Quadratic@CInter_C3@@IAEHPAN00PAUWORLD@@00PAY03NW4ENDS@@HH@Z 100261d0 f   Inter_c3.obj
 0001:000254e0       ?BC_Not_A_Knot@CInter_C3@@IAEHPANQAPAN0PAUWORLD@@00PAY03NW4ENDS@@HH@Z 100264e0 f   Inter_c3.obj
 0001:000255a0       ?SolveSystem_Open@CInter_C3@@IAEHPAN00PAY03N1HH@Z 100265a0 f   Inter_c3.obj
 0001:00025ae0       ?SolveSystem_Close@CInter_C3@@IAEHPAN00PAY03N1HH@Z 10026ae0 f   Inter_c3.obj
 0001:00026020       ?FillUpSpline_Open@CInter_C3@@IAEHPAY03NHPAUWORLD@@PAN12H@Z 10027020 f   Inter_c3.obj
 0001:000268d0       ?FillUpSpline_Close@CInter_C3@@IAEHPAY03NHPAUWORLD@@PAN12H@Z 100278d0 f   Inter_c3.obj
 0001:00027190       ?Convert_BS2BZ@CInter_C3@@IAEHPAY03NPAN0HHH@Z 10028190 f   Inter_c3.obj
 0001:00028090       ?Convert_BS2BZ@CInter_C3@@IAEHPAY03NPAUWORLD@@PAN221HHH@Z 10029090 f   Inter_c3.obj
 0001:00028190       ?Set4DPreImage_BS@CInter_C3@@IAEHPAY03NPAUWORLD@@PAN0HHH@Z 10029190 f   Inter_c3.obj
 0001:000288a0       ?FillUpBezier@CInter_C3@@IAEHPAY03NPAUWORLD@@PANHHH@Z 100298a0 f   Inter_c3.obj
 0001:00028c00       ?UpdateToMultKnots@CInter_C3@@IAEHPANH0HH@Z 10029c00 f   Inter_c3.obj
 0001:00028c20       ?Serialize@CInter_C3@@UAEXAAVCArchive@@@Z 10029c20 f   Inter_c3.obj
 0001:00028c70       ?GetMaxCorners@CDrLabel@@UAEHXZ 10029c70 f i Mc_Bezier.obj
 0001:00028c90       ?SetProjectedCoords@CDrLabel@@UAEXUtagPOINT@@H@Z 10029c90 f i Mc_Bezier.obj
 0001:00028cc0       ?IsMoved@CDrLabel@@UAEHXZ  10029cc0 f i Mc_Bezier.obj
 0001:00028ce0       ?SetMoved@CDrLabel@@UAEXH@Z 10029ce0 f i Mc_Bezier.obj
 0001:00028d10       ?GetNodePtr@CDrLabel@@UAEPAVCDrNode@@XZ 10029d10 f i Mc_Bezier.obj
 0001:00028d30       ?SetNodePtr@CDrLabel@@UAEXPAVCDrNode@@@Z 10029d30 f i Mc_Bezier.obj
 0001:00028d60       ?GetContextObj@CDrLabel@@UAE?AW4CONTEXTOBJ@@XZ 10029d60 f i Mc_Bezier.obj
 0001:00028d80       ?SetContextObj@CDrLabel@@UAEXW4CONTEXTOBJ@@@Z 10029d80 f i Mc_Bezier.obj
 0001:00028db0       ?GetMeshElemType@CDrLabel@@UAEIXZ 10029db0 f i Mc_Bezier.obj
 0001:00028dd0       ?SetMeshElemType@CDrLabel@@UAEXI@Z 10029dd0 f i Mc_Bezier.obj
 0001:00028e00       ?GetColor@CDrLabel@@UAEKXZ 10029e00 f i Mc_Bezier.obj
 0001:00028e20       ?SetColor@CDrLabel@@UAEXK@Z 10029e20 f i Mc_Bezier.obj
 0001:00028e50       ?GetViewNum@CDrLabel@@UAEHXZ 10029e50 f i Mc_Bezier.obj
 0001:00028e70       ?SetViewNum@CDrLabel@@UAEXH@Z 10029e70 f i Mc_Bezier.obj
 0001:00028ea0       ?GetType@CDrLabel@@UAEHXZ  10029ea0 f i Mc_Bezier.obj
 0001:00028ec0       ?SetType@CDrLabel@@UAEXH@Z 10029ec0 f i Mc_Bezier.obj
 0001:00028ef0       ?GetText@CDrLabel@@UAE?AVCString@@XZ 10029ef0 f i Mc_Bezier.obj
 0001:00028f30       ?SetText@CDrLabel@@UAEXVCString@@@Z 10029f30 f i Mc_Bezier.obj
 0001:00028f90       ?SetLogFont@CDrLabel@@UAEXUtagLOGFONTA@@@Z 10029f90 f i Mc_Bezier.obj
 0001:00028fc0       ?GetLogFont@CDrLabel@@UAE?AUtagLOGFONTA@@XZ 10029fc0 f i Mc_Bezier.obj
 0001:00028ff0       ?GetOtherCorner@CDrLabel@@UAE?AUtagPOINT@@XZ 10029ff0 f i Mc_Bezier.obj
 0001:00029020       ?SetOtherCorner@CDrLabel@@UAEXUtagPOINT@@@Z 1002a020 f i Mc_Bezier.obj
 0001:00029050       ?GetAngle@CDrLabel@@UAEHXZ 1002a050 f i Mc_Bezier.obj
 0001:00029070       ?SetAngle@CDrLabel@@UAEXH@Z 1002a070 f i Mc_Bezier.obj
 0001:000290a0       ??1CDrLabel@@UAE@XZ        1002a0a0 f i Mc_Bezier.obj
 0001:00029100       ??_GCDrLabel@@UAEPAXI@Z    1002a100 f i Mc_Bezier.obj
 0001:00029140       ??_ECDrLabel@@UAEPAXI@Z    1002a140 f i Mc_Bezier.obj
 0001:000291c0       ?Setid@CMI_GangN@@QAEXVCString@@@Z 1002a1c0 f i Mc_Bezier.obj
 0001:00029220       ?FixMemD@CMI_GangN@@QAEPANJ@Z 1002a220 f i Mc_Bezier.obj
 0001:00029260       ?FreeMemD@CMI_GangN@@QAEXPAN@Z 1002a260 f i Mc_Bezier.obj
 0001:00029290       ?FixMem@CMI_GangN@@QAEPAUWORLD@@J@Z 1002a290 f i Mc_Bezier.obj
 0001:000292d0       ?FreeMem@CMI_GangN@@QAEXPAUWORLD@@@Z 1002a2d0 f i Mc_Bezier.obj
 0001:00029300       ?IsNoDefault@CMI_GangC@@QAEHXZ 1002a300 f i Mc_Bezier.obj
 0001:00029320       ?SetNoDefault@CMI_GangC@@QAEXH@Z 1002a320 f i Mc_Bezier.obj
 0001:00029340       ?IsAxisInput@CMI_GangC@@QAEHXZ 1002a340 f i Mc_Bezier.obj
 0001:00029360       ?SetAxisInput@CMI_GangC@@QAEXH@Z 1002a360 f i Mc_Bezier.obj
 0001:00029390       ?GetAxis@CMI_GangC@@QAEHXZ 1002a390 f i Mc_Bezier.obj
 0001:000293b0       ?SetAxis@CMI_GangC@@QAEXH@Z 1002a3b0 f i Mc_Bezier.obj
 0001:000293e0       ?IsNegative@CMI_GangC@@QAEHXZ 1002a3e0 f i Mc_Bezier.obj
 0001:00029400       ?SetNegative@CMI_GangC@@QAEXH@Z 1002a400 f i Mc_Bezier.obj
 0001:00029430       ?GetbBack@CMI_GangC@@QAEHXZ 1002a430 f i Mc_Bezier.obj
 0001:00029450       ?SetbBack@CMI_GangC@@QAEXH@Z 1002a450 f i Mc_Bezier.obj
 0001:00029480       ?GetBezierType@CMI_GangC@@QAE?AW4BEZIERTYPE@@XZ 1002a480 f i Mc_Bezier.obj
 0001:000294a0       ?SetBezierType@CMI_GangC@@QAEXW4BEZIERTYPE@@@Z 1002a4a0 f i Mc_Bezier.obj
 0001:000294c0       ?CreateObject@CMC_Bezier@@SGPAVCObject@@XZ 1002a4c0 f   Mc_Bezier.obj
 0001:00029540       ?_GetBaseClass@CMC_Bezier@@KGPAUCRuntimeClass@@XZ 1002a540 f   Mc_Bezier.obj
 0001:00029560       ?GetRuntimeClass@CMC_Bezier@@UBEPAUCRuntimeClass@@XZ 1002a560 f   Mc_Bezier.obj
 0001:000295c0       ??5@YGAAVCArchive@@AAV0@AAPAVCMC_Bezier@@@Z 1002a5c0 f   Mc_Bezier.obj
 0001:000295f0       ??0CMC_Bezier@@QAE@XZ      1002a5f0 f   Mc_Bezier.obj
 0001:000296c0       ??_GCMC_Bezier@@UAEPAXI@Z  1002a6c0 f i Mc_Bezier.obj
 0001:00029700       ??_ECMC_Bezier@@UAEPAXI@Z  1002a700 f i Mc_Bezier.obj
 0001:00029780       ??1CMC_Bezier@@UAE@XZ      1002a780 f   Mc_Bezier.obj
 0001:000299d0       ?GoDoIt@CMC_Bezier@@QAEHPAVCDrCurve@@H@Z 1002a9d0 f   Mc_Bezier.obj
 0001:00029a80       ?InterPolate_BZ@CMC_Bezier@@QAEHH@Z 1002aa80 f   Mc_Bezier.obj
 0001:00029bf0       ?C1_SetMemory@CMC_Bezier@@IAEHXZ 1002abf0 f   Mc_Bezier.obj
 0001:00029ce0       ?BZ_Interpolation_C1@CMC_Bezier@@IAEHPAUWORLD@@0H@Z 1002ace0 f   Mc_Bezier.obj
 0001:00029da0       ?BZ_Interpolation_C2@CMC_Bezier@@IAEHPAUWORLD@@0H@Z 1002ada0 f   Mc_Bezier.obj
 0001:00029eb0       ?BZ_Interpolation_C3@CMC_Bezier@@IAEHPAVCDrCurve@@PAUWORLD@@1H@Z 1002aeb0 f   Mc_Bezier.obj
 0001:0002a280       ?BZ_PostInterpolation@CMC_Bezier@@IAEHPAUWORLD@@0HH@Z 1002b280 f   Mc_Bezier.obj
 0001:0002a750       ?Serialize@CMC_Bezier@@UAEXAAVCArchive@@@Z 1002b750 f   Mc_Bezier.obj
 0001:0002a7a0       ?CreateObject@CMC_Circle@@SGPAVCObject@@XZ 1002b7a0 f   Mc_Circle.obj
 0001:0002a820       ?_GetBaseClass@CMC_Circle@@KGPAUCRuntimeClass@@XZ 1002b820 f   Mc_Circle.obj
 0001:0002a840       ?GetRuntimeClass@CMC_Circle@@UBEPAUCRuntimeClass@@XZ 1002b840 f   Mc_Circle.obj
 0001:0002a8a0       ??5@YGAAVCArchive@@AAV0@AAPAVCMC_Circle@@@Z 1002b8a0 f   Mc_Circle.obj
 0001:0002a8d0       ??0CMC_Circle@@QAE@XZ      1002b8d0 f   Mc_Circle.obj
 0001:0002a960       ??_GCMC_Circle@@UAEPAXI@Z  1002b960 f i Mc_Circle.obj
 0001:0002a9a0       ??_ECMC_Circle@@UAEPAXI@Z  1002b9a0 f i Mc_Circle.obj
 0001:0002aa20       ??1CMC_Circle@@UAE@XZ      1002ba20 f   Mc_Circle.obj
 0001:0002aaa0       ?CreateCircle@CMC_Circle@@QAEPAVCDrCurve@@AAVCString@@PAV2@PAVCDListMgr@@W4CURVEPROC@@PAV?$CList@HH@@W4CIRCLETYPE@@NNNHPAVCDrNode@@6H@Z 1002baa0 f   Mc_Circle.obj
 0001:0002af50       ?SetCommonInfoForCircle@CMC_Circle@@IAEHPAVCDrCurve@@@Z 1002bf50 f   Mc_Circle.obj
 0001:0002b2a0       ?CalcAdditionalInfo@CMC_Circle@@IAEHPAVCDrCurve@@HW4CIRCLETYPE@@@Z 1002c2a0 f   Mc_Circle.obj
 0001:0002b340       ?PackINodeList@CMC_Circle@@IAEHPAVCDrCurve@@@Z 1002c340 f   Mc_Circle.obj
 0001:0002b650       ?PackAuxiliaryList@CMC_Circle@@IAEHPAVCDrCurve@@AAUWORLD@@PAVCDListMgr@@@Z 1002c650 f   Mc_Circle.obj
 0001:0002b750       ?CalcAdditionalInfo_Rot@CMC_Circle@@IAEHPAVCDrCurve@@H@Z 1002c750 f   Mc_Circle.obj
 0001:0002baa0       ?CalcAdditionalInfo_3Node@CMC_Circle@@IAEHPAVCDrCurve@@H@Z 1002caa0 f   Mc_Circle.obj
 0001:0002bdf0       ?CalcAdditionalInfo_2N_TI@CMC_Circle@@IAEHPAVCDrCurve@@H@Z 1002cdf0 f   Mc_Circle.obj
 0001:0002c0e0       ?CalcAdditionalInfo_2N_CC@CMC_Circle@@IAEHPAVCDrCurve@@H@Z 1002d0e0 f   Mc_Circle.obj
 0001:0002c3d0       ?CalcAdditionalInfo_2CN_TI_R@CMC_Circle@@IAEHPAVCDrCurve@@H@Z 1002d3d0 f   Mc_Circle.obj
 0001:0002c6f0       ?BezierInfo@CMC_Circle@@IAEHPAVCDrCurve@@@Z 1002d6f0 f   Mc_Circle.obj
 0001:0002ca20       ?BezierSeg_N_Mesh_Done@CMC_Circle@@IAEHAAV?$CList@HH@@0AAV?$CList@NN@@AAPAH2AAPANAAH4AAN@Z 1002da20 f   Mc_Circle.obj
 0001:0002cc80       ?BezierSeg_N_Mesh_Update@CMC_Circle@@IAEHAAV?$CList@HH@@0AAV?$CList@NN@@AAPAHAAPANHAAH@Z 1002dc80 f   Mc_Circle.obj
 0001:0002cd50       ?BezierSeg_N_Mesh@CMC_Circle@@IAEHPAVCDrCurve@@AAUWORLD@@11AAPAHAAPANHH@Z 1002dd50 f   Mc_Circle.obj
 0001:0002d000       ?BezierSeg_N_Mesh_Uniform@CMC_Circle@@IAEHPAVCDrCurve@@AAPAHAAPANNH@Z 1002e000 f   Mc_Circle.obj
 0001:0002d220       ?BezierSeg_N_Mesh_NonUniform@CMC_Circle@@IAEHPAVCDrCurve@@AAPAHAAPANNNH@Z 1002e220 f   Mc_Circle.obj
 0001:0002d360       ?SetBezierControlInfo@CMC_Circle@@IAEHPAVCDrCurve@@HAAPAH1AAPANHHN@Z 1002e360 f   Mc_Circle.obj
 0001:0002d560       ?GoDoIt@CMC_Circle@@QAEHPAVCDrCurve@@HW4CIRCLETYPE@@@Z 1002e560 f   Mc_Circle.obj
 0001:0002d740       ?GoDoIt@CMC_Circle@@IAEHPAVCDrCurve@@H@Z 1002e740 f   Mc_Circle.obj
 0001:0002da10       ?SetMemory@CMC_Circle@@IAEHXZ 1002ea10 f   Mc_Circle.obj
 0001:0002daa0       ?GenerateBezier_b0s_b2s@CMC_Circle@@IAEHPAVCDrCurve@@@Z 1002eaa0 f   Mc_Circle.obj
 0001:0002de50       ?GetBezEndPtsbyRotation@CMC_Circle@@IAEHHUWORLD@@0HPANHPAHPAU2@3@Z 1002ee50 f   Mc_Circle.obj
 0001:0002e250       ?GetAPtByRotation@CMC_Circle@@IAEHPAUWORLD@@U2@1N0@Z 1002f250 f   Mc_Circle.obj
 0001:0002e4a0       ?InterPolate@CMC_Circle@@IAEHH@Z 1002f4a0 f   Mc_Circle.obj
 0001:0002e550       ?PrepInterpolation@CMC_Circle@@IAEHXZ 1002f550 f   Mc_Circle.obj
 0001:0002e9b0       ?SetCenter@CIn_Circle@@QAEXUWORLD@@@Z 1002f9b0 f i Mc_Circle.obj
 0001:0002ea00       ?SetRadius@CIn_Circle@@QAEXN@Z 1002fa00 f i Mc_Circle.obj
 0001:0002ea30       ?SetNormal@CIn_Circle@@QAEXUWORLD@@@Z 1002fa30 f i Mc_Circle.obj
 0001:0002ea80       ?PostInterpolation@CMC_Circle@@IAEHH@Z 1002fa80 f   Mc_Circle.obj
 0001:0002ef10       ?UnitAxisFromEndNodes@CMC_Circle@@IAEXPAUWORLD@@AAU2@1@Z 1002ff10 f   Mc_Circle.obj
 0001:0002ef90       ?Calc_CandR@CMC_Circle@@IAEHPAUWORLD@@0PANU2@2@Z 1002ff90 f   Mc_Circle.obj
 0001:0002f0b0       ?Calc_C_R_Normal@CMC_Circle@@IAEHPAUWORLD@@0PAN0@Z 100300b0 f   Mc_Circle.obj
 0001:0002f560       ?Calc_CRNPhifromTI@CMC_Circle@@IAEHPAUWORLD@@0PAN01@Z 10030560 f   Mc_Circle.obj
 0001:0002f7d0       ?Calc_CRNPhifromCC@CMC_Circle@@IAEHPAUWORLD@@0PAN01@Z 100307d0 f   Mc_Circle.obj
 0001:0002fa70       ?Calc_NiNj_CRNPhi@CMC_Circle@@IAEHPAUWORLD@@0000PAN1@Z 10030a70 f   Mc_Circle.obj
 0001:0002fe90       ?Calc_CentralAngles@CMC_Circle@@IAENPAUWORLD@@U2@N1@Z 10030e90 f   Mc_Circle.obj
 0001:000300e0       ?Serialize@CMC_Circle@@UAEXAAVCArchive@@@Z 100310e0 f   Mc_Circle.obj
 0001:00030130       ??0?$CList@UWORLD@@U1@@@QAE@H@Z 10031130 f i Mc_Circle.obj
 0001:000301f0       ?GetCount@?$CList@UWORLD@@U1@@@QBEHXZ 100311f0 f i Mc_Circle.obj
 0001:00030210       ?IsEmpty@?$CList@UWORLD@@U1@@@QBEHXZ 10031210 f i Mc_Circle.obj
 0001:00030240       ?AddTail@?$CList@UWORLD@@U1@@@QAEPAU__POSITION@@UWORLD@@@Z 10031240 f i Mc_Circle.obj
 0001:000302c0       ?RemoveAll@?$CList@UWORLD@@U1@@@QAEXXZ 100312c0 f i Mc_Circle.obj
 0001:00030350       ?GetAt@?$CList@UWORLD@@U1@@@QAEAAUWORLD@@PAU__POSITION@@@Z 10031350 f i Mc_Circle.obj
 0001:000303a0       ?FindIndex@?$CList@UWORLD@@U1@@@QBEPAU__POSITION@@H@Z 100313a0 f i Mc_Circle.obj
 0001:00030430       ??1?$CList@UWORLD@@U1@@@UAE@XZ 10031430 f i Mc_Circle.obj
 0001:000304b0       ?Serialize@?$CList@UWORLD@@U1@@@UAEXAAVCArchive@@@Z 100314b0 f i Mc_Circle.obj
 0001:000305a0       ?Dump@?$CList@UWORLD@@U1@@@UBEXAAVCDumpContext@@@Z 100315a0 f i Mc_Circle.obj
 0001:00030640       ?AssertValid@?$CList@UWORLD@@U1@@@UBEXXZ 10031640 f i Mc_Circle.obj
 0001:00030710       ??0?$CList@HH@@QAE@H@Z     10031710 f i Mc_Circle.obj
 0001:000307d0       ?GetCount@?$CList@HH@@QBEHXZ 100317d0 f i Mc_Circle.obj
 0001:000307f0       ?GetHead@?$CList@HH@@QAEAAHXZ 100317f0 f i Mc_Circle.obj
 0001:00030830       ?GetTail@?$CList@HH@@QAEAAHXZ 10031830 f i Mc_Circle.obj
 0001:00030870       ?AddTail@?$CList@HH@@QAEXPAV1@@Z 10031870 f i Mc_Circle.obj
 0001:00030900       ?GetAt@?$CList@HH@@QAEAAHPAU__POSITION@@@Z 10031900 f i Mc_Circle.obj
 0001:00030950       ?FindIndex@?$CList@HH@@QBEPAU__POSITION@@H@Z 10031950 f i Mc_Circle.obj
 0001:000309e0       ??0?$CList@NN@@QAE@H@Z     100319e0 f i Mc_Circle.obj
 0001:00030aa0       ?GetCount@?$CList@NN@@QBEHXZ 10031aa0 f i Mc_Circle.obj
 0001:00030ac0       ?AddTail@?$CList@NN@@QAEPAU__POSITION@@N@Z 10031ac0 f i Mc_Circle.obj
 0001:00030b40       ?RemoveAll@?$CList@NN@@QAEXXZ 10031b40 f i Mc_Circle.obj
 0001:00030bd0       ?GetHeadPosition@?$CList@NN@@QBEPAU__POSITION@@XZ 10031bd0 f i Mc_Circle.obj
 0001:00030bf0       ?GetNext@?$CList@NN@@QAEAANAAPAU__POSITION@@@Z 10031bf0 f i Mc_Circle.obj
 0001:00030c50       ??1?$CList@NN@@UAE@XZ      10031c50 f i Mc_Circle.obj
 0001:00030cd0       ?Serialize@?$CList@NN@@UAEXAAVCArchive@@@Z 10031cd0 f i Mc_Circle.obj
 0001:00030dc0       ?Dump@?$CList@NN@@UBEXAAVCDumpContext@@@Z 10031dc0 f i Mc_Circle.obj
 0001:00030e60       ?AssertValid@?$CList@NN@@UBEXXZ 10031e60 f i Mc_Circle.obj
 0001:00030f30       ??_G?$CList@UWORLD@@U1@@@UAEPAXI@Z 10031f30 f i Mc_Circle.obj
 0001:00030f30       ??_E?$CList@UWORLD@@U1@@@UAEPAXI@Z 10031f30 f i Mc_Circle.obj
 0001:00030f70       ??_G?$CList@NN@@UAEPAXI@Z  10031f70 f i Mc_Circle.obj
 0001:00030f70       ??_E?$CList@NN@@UAEPAXI@Z  10031f70 f i Mc_Circle.obj
 0001:00030fb0       ?GetHeadPosition@?$CList@UWORLD@@U1@@@QBEPAU__POSITION@@XZ 10031fb0 f i Mc_Circle.obj
 0001:00030fd0       ?GetNext@?$CList@UWORLD@@U1@@@QAEAAUWORLD@@AAPAU__POSITION@@@Z 10031fd0 f i Mc_Circle.obj
 0001:00031030       ?NewNode@?$CList@UWORLD@@U1@@@IAEPAUCNode@1@PAU21@0@Z 10032030 f i Mc_Circle.obj
 0001:00031150       ?DestructElements@@YGXPAUWORLD@@H@Z 10032150 f i Mc_Circle.obj
 0001:000311c0       ?SerializeElements@@YGXAAVCArchive@@PAUWORLD@@H@Z 100321c0 f i Mc_Circle.obj
 0001:00031240       ?DumpElements@@YGXAAVCDumpContext@@PBUWORLD@@H@Z 10032240 f i Mc_Circle.obj
 0001:00031290       ?NewNode@?$CList@NN@@IAEPAUCNode@1@PAU21@0@Z 10032290 f i Mc_Circle.obj
 0001:000313b0       ?DestructElements@@YGXPANH@Z 100323b0 f i Mc_Circle.obj
 0001:00031420       ?SerializeElements@@YGXAAVCArchive@@PANH@Z 10032420 f i Mc_Circle.obj
 0001:000314a0       ?DumpElements@@YGXAAVCDumpContext@@PBNH@Z 100324a0 f i Mc_Circle.obj
 0001:000314f0       ?ConstructElements@@YGXPAUWORLD@@H@Z 100324f0 f i Mc_Circle.obj
 0001:00031580       ?ConstructElements@@YGXPANH@Z 10032580 f i Mc_Circle.obj
 0001:00031610       ?CreateObject@CMC_Cube@@SGPAVCObject@@XZ 10032610 f   Mc_Cube.obj
 0001:00031690       ?_GetBaseClass@CMC_Cube@@KGPAUCRuntimeClass@@XZ 10032690 f   Mc_Cube.obj
 0001:000316b0       ?GetRuntimeClass@CMC_Cube@@UBEPAUCRuntimeClass@@XZ 100326b0 f   Mc_Cube.obj
 0001:00031710       ??5@YGAAVCArchive@@AAV0@AAPAVCMC_Cube@@@Z 10032710 f   Mc_Cube.obj
 0001:00031740       ??0CMC_Cube@@QAE@XZ        10032740 f   Mc_Cube.obj
 0001:00031810       ??_GCMC_Cube@@UAEPAXI@Z    10032810 f i Mc_Cube.obj
 0001:00031850       ??_ECMC_Cube@@UAEPAXI@Z    10032850 f i Mc_Cube.obj
 0001:000318d0       ??1CMC_Cube@@UAE@XZ        100328d0 f   Mc_Cube.obj
 0001:00031b20       ?GoDoIt@CMC_Cube@@QAEPAVCDrCurve@@XZ 10032b20 f   Mc_Cube.obj
 0001:00031c90       ?GoDoIt@CMC_Cube@@QAEHPAVCDrCurve@@H@Z 10032c90 f   Mc_Cube.obj
 0001:00031d40       ?GetInfo@CMC_Cube@@IAEPAVCDrCurve@@H@Z 10032d40 f   Mc_Cube.obj
 0001:00031f00       ?InterPolate_C3@CMC_Cube@@QAEHH@Z 10032f00 f   Mc_Cube.obj
 0001:000320c0       ?C3_SetMemory@CMC_Cube@@IAEHXZ 100330c0 f   Mc_Cube.obj
 0001:00032260       ?C3_PrepInterpolation@CMC_Cube@@IAEHPAVCInter_C3@@@Z 10033260 f   Mc_Cube.obj
 0001:000329b0       ?C3_PostInterpolation@CMC_Cube@@IAEHPAVCInter_C3@@H@Z 100339b0 f   Mc_Cube.obj
 0001:00032f60       ?Serialize@CMC_Cube@@UAEXAAVCArchive@@@Z 10033f60 f   Mc_Cube.obj
 0001:00032fb0       ?CreateObject@CMC_Lin@@SGPAVCObject@@XZ 10033fb0 f   Mc_Lin.obj
 0001:00033030       ?_GetBaseClass@CMC_Lin@@KGPAUCRuntimeClass@@XZ 10034030 f   Mc_Lin.obj
 0001:00033050       ?GetRuntimeClass@CMC_Lin@@UBEPAUCRuntimeClass@@XZ 10034050 f   Mc_Lin.obj
 0001:000330b0       ??5@YGAAVCArchive@@AAV0@AAPAVCMC_Lin@@@Z 100340b0 f   Mc_Lin.obj
 0001:000330e0       ??0CMC_Lin@@QAE@XZ         100340e0 f   Mc_Lin.obj
 0001:000331b0       ??_GCMC_Lin@@UAEPAXI@Z     100341b0 f i Mc_Lin.obj
 0001:000331f0       ??_ECMC_Lin@@UAEPAXI@Z     100341f0 f i Mc_Lin.obj
 0001:00033270       ??1CMC_Lin@@UAE@XZ         10034270 f   Mc_Lin.obj
 0001:000334c0       ?GoDoIt@CMC_Lin@@QAEPAVCDrCurve@@XZ 100344c0 f   Mc_Lin.obj
 0001:00033630       ?GoDoIt@CMC_Lin@@QAEHPAVCDrCurve@@H@Z 10034630 f   Mc_Lin.obj
 0001:000336e0       ?GetInfo@CMC_Lin@@IAEPAVCDrCurve@@H@Z 100346e0 f   Mc_Lin.obj
 0001:000338a0       ?InterPolate_C1@CMC_Lin@@QAEHH@Z 100348a0 f   Mc_Lin.obj
 0001:00033a10       ?C1_SetMemory@CMC_Lin@@IAEHXZ 10034a10 f   Mc_Lin.obj
 0001:00033a90       ?C1_PrepInterpolation@CMC_Lin@@IAEHPAVCInter_C1@@@Z 10034a90 f   Mc_Lin.obj
 0001:00033ec0       ?C1_PostInterpolation@CMC_Lin@@IAEHPAVCInter_C1@@H@Z 10034ec0 f   Mc_Lin.obj
 0001:00034540       ?Serialize@CMC_Lin@@UAEXAAVCArchive@@@Z 10035540 f   Mc_Lin.obj
 0001:00034590       ?CreateObject@CMC_Parab@@SGPAVCObject@@XZ 10035590 f   Mc_Parab.obj
 0001:00034610       ?_GetBaseClass@CMC_Parab@@KGPAUCRuntimeClass@@XZ 10035610 f   Mc_Parab.obj
 0001:00034630       ?GetRuntimeClass@CMC_Parab@@UBEPAUCRuntimeClass@@XZ 10035630 f   Mc_Parab.obj
 0001:00034690       ??5@YGAAVCArchive@@AAV0@AAPAVCMC_Parab@@@Z 10035690 f   Mc_Parab.obj
 0001:000346c0       ??0CMC_Parab@@QAE@XZ       100356c0 f   Mc_Parab.obj
 0001:00034740       ??_GCMC_Parab@@UAEPAXI@Z   10035740 f i Mc_Parab.obj
 0001:00034780       ??_ECMC_Parab@@UAEPAXI@Z   10035780 f i Mc_Parab.obj
 0001:00034800       ??1CMC_Parab@@UAE@XZ       10035800 f   Mc_Parab.obj
 0001:00034860       ?CreateParabola@CMC_Parab@@QAEPAVCDrCurve@@AAVCString@@PAV2@PAVCDListMgr@@W4CURVEPROC@@PAV?$CList@HH@@HH@Z 10035860 f   Mc_Parab.obj
 0001:00034a00       ?GoDoIt@CMC_Parab@@QAEPAVCDrCurve@@XZ 10035a00 f   Mc_Parab.obj
 0001:00034b70       ?GoDoIt@CMC_Parab@@QAEHPAVCDrCurve@@H@Z 10035b70 f   Mc_Parab.obj
 0001:00034d80       ?GetInfo@CMC_Parab@@IAEPAVCDrCurve@@H@Z 10035d80 f   Mc_Parab.obj
 0001:00034f50       ?InterPolate@CMC_Parab@@QAEHH@Z 10035f50 f   Mc_Parab.obj
 0001:00035030       ?SetMemory@CMC_Parab@@IAEHXZ 10036030 f   Mc_Parab.obj
 0001:000350b0       ?PrepInterpolation@CMC_Parab@@IAEHXZ 100360b0 f   Mc_Parab.obj
 0001:00035580       ?PostInterpolation@CMC_Parab@@IAEHH@Z 10036580 f   Mc_Parab.obj
 0001:00035bb0       ?Serialize@CMC_Parab@@UAEXAAVCArchive@@@Z 10036bb0 f   Mc_Parab.obj
 0001:00035c00       ?CreateObject@CMC_Quad@@SGPAVCObject@@XZ 10036c00 f   Mc_Quad.obj
 0001:00035c80       ?_GetBaseClass@CMC_Quad@@KGPAUCRuntimeClass@@XZ 10036c80 f   Mc_Quad.obj
 0001:00035ca0       ?GetRuntimeClass@CMC_Quad@@UBEPAUCRuntimeClass@@XZ 10036ca0 f   Mc_Quad.obj
 0001:00035d00       ??5@YGAAVCArchive@@AAV0@AAPAVCMC_Quad@@@Z 10036d00 f   Mc_Quad.obj
 0001:00035d30       ??0CMC_Quad@@QAE@XZ        10036d30 f   Mc_Quad.obj
 0001:00035e00       ??_GCMC_Quad@@UAEPAXI@Z    10036e00 f i Mc_Quad.obj
 0001:00035e40       ??_ECMC_Quad@@UAEPAXI@Z    10036e40 f i Mc_Quad.obj
 0001:00035ec0       ??1CMC_Quad@@UAE@XZ        10036ec0 f   Mc_Quad.obj
 0001:00036110       ?GoDoIt@CMC_Quad@@QAEPAVCDrCurve@@XZ 10037110 f   Mc_Quad.obj
 0001:00036280       ?GoDoIt@CMC_Quad@@QAEHPAVCDrCurve@@H@Z 10037280 f   Mc_Quad.obj
 0001:00036330       ?GetInfo@CMC_Quad@@IAEPAVCDrCurve@@H@Z 10037330 f   Mc_Quad.obj
 0001:000364f0       ?InterPolate_C2@CMC_Quad@@QAEHH@Z 100374f0 f   Mc_Quad.obj
 0001:000366b0       ?C2_SetMemory@CMC_Quad@@IAEHXZ 100376b0 f   Mc_Quad.obj
 0001:00036850       ?C2_PrepInterpolation@CMC_Quad@@IAEHPAVCInter_C2@@@Z 10037850 f   Mc_Quad.obj
 0001:00036fa0       ?C2_PostInterpolation@CMC_Quad@@IAEHPAVCInter_C2@@H@Z 10037fa0 f   Mc_Quad.obj
 0001:00037580       ?Serialize@CMC_Quad@@UAEXAAVCArchive@@@Z 10038580 f   Mc_Quad.obj
 0001:000375d0       _ExtRawDllMain@12          100385d0 f   MCurdll.obj
 0001:00037630       _InitMCurDLL@0             10038630 f   MCurdll.obj
 0001:00037680       _DllMain@12                10038680 f   MCurdll.obj
 0001:000376f0       ??B?$CTypedSimpleList@PAUCRuntimeClass@@@@QAEPAUCRuntimeClass@@XZ 100386f0 f i MCurdll.obj
 0001:00037710       ??B?$CTypedSimpleList@PAVCOleObjectFactory@@@@QAEPAVCOleObjectFactory@@XZ 10038710 f i MCurdll.obj
 0001:00037730       ?GetHead@CSimpleList@@QBEPAXXZ 10038730 f i MCurdll.obj
 0001:00037750       ?CreateObject@CMCurMgr@@SGPAVCObject@@XZ 10038750 f   MCurMgr.obj
 0001:000377c0       ?_GetBaseClass@CMCurMgr@@KGPAUCRuntimeClass@@XZ 100387c0 f   MCurMgr.obj
 0001:000377e0       ?GetRuntimeClass@CMCurMgr@@UBEPAUCRuntimeClass@@XZ 100387e0 f   MCurMgr.obj
 0001:00037840       ??5@YGAAVCArchive@@AAV0@AAPAVCMCurMgr@@@Z 10038840 f   MCurMgr.obj
 0001:00037870       ??0CMCurMgr@@QAE@XZ        10038870 f   MCurMgr.obj
 0001:000378a0       ??_GCMCurMgr@@UAEPAXI@Z    100388a0 f i MCurMgr.obj
 0001:000378e0       ??_ECMCurMgr@@UAEPAXI@Z    100388e0 f i MCurMgr.obj
 0001:00037960       ??1CMCurMgr@@UAE@XZ        10038960 f   MCurMgr.obj
 0001:00037990       ?SetResource@CMCurMgr@@IAEPAUHINSTANCE__@@XZ 10038990 f   MCurMgr.obj
 0001:00037a40       ?RestoreResource@CMCurMgr@@IAEXPAUHINSTANCE__@@@Z 10038a40 f   MCurMgr.obj
 0001:00037ac0       ?DoModal_Cur_Advance_In@CMCurMgr@@QAEIPAVCDrCurve@@H@Z 10038ac0 f   MCurMgr.obj
 0001:00037b70       ?DoModal_CIRCLE_Type@CMCurMgr@@QAEIAAW4CIRCLETYPE@@@Z 10038b70 f   MCurMgr.obj
 0001:00037c20       ?DoModal_Cur_I_LB@CMCurMgr@@QAEIPAVCString@@H@Z 10038c20 f   MCurMgr.obj
 0001:00037c40       ?DoModal_Cur_I_RB@CMCurMgr@@QAEIPAVCString@@H@Z 10038c40 f   MCurMgr.obj
 0001:00037c60       ?DoModal_Cur_I_CIRCLE@CMCurMgr@@QAEIPAVCString@@H@Z 10038c60 f   MCurMgr.obj
 0001:00037d10       ?DoModal_Profile_C@CMCurMgr@@QAEIPAVCString@@H@Z 10038d10 f   MCurMgr.obj
 0001:00037dc0       ?DoModal_Profile_C_ShowInfo@CMCurMgr@@QAEIPAVCString@@PAVCDListMgr@@@Z 10038dc0 f   MCurMgr.obj
 0001:00037e70       ?Serialize@CMCurMgr@@UAEXAAVCArchive@@@Z 10038e70 f   MCurMgr.obj
 0001:00037ec0       ?CreateObject@CMI_GangC@@SGPAVCObject@@XZ 10038ec0 f   Mi_GangC.obj
 0001:00037f30       ?_GetBaseClass@CMI_GangC@@KGPAUCRuntimeClass@@XZ 10038f30 f   Mi_GangC.obj
 0001:00037f50       ?GetRuntimeClass@CMI_GangC@@UBEPAUCRuntimeClass@@XZ 10038f50 f   Mi_GangC.obj
 0001:00037fb0       ??5@YGAAVCArchive@@AAV0@AAPAVCMI_GangC@@@Z 10038fb0 f   Mi_GangC.obj
 0001:00037fe0       ??0CMI_GangC@@QAE@XZ       10038fe0 f   Mi_GangC.obj
 0001:000380e0       ??_GCMI_GangC@@UAEPAXI@Z   100390e0 f i Mi_GangC.obj
 0001:00038120       ??_ECMI_GangC@@UAEPAXI@Z   10039120 f i Mi_GangC.obj
 0001:000381a0       ??1CMI_GangC@@UAE@XZ       100391a0 f   Mi_GangC.obj
 0001:00038400       ?WORtoWOP_VECTOR@CMI_GangC@@QAEHAAUVECTOR@@@Z 10039400 f   Mi_GangC.obj
 0001:00038560       ?WORtoWOP_WORLD@CMI_GangC@@QAEHAAUWORLD@@@Z 10039560 f   Mi_GangC.obj
 0001:00038690       ?WOPtoWOR_VECTOR@CMI_GangC@@QAEHAAUVECTOR@@@Z 10039690 f   Mi_GangC.obj
 0001:000387f0       ?WOPtoWOR_WORLD@CMI_GangC@@QAEHAAUWORLD@@@Z 100397f0 f   Mi_GangC.obj
 0001:00038920       ?CreateBezCNsFromTanEnds_Cubic@CMI_GangC@@QAEHPAVCDrCurve@@@Z 10039920 f   Mi_GangC.obj
 0001:00039010       ?CreateCurveAnyType@CMI_GangC@@QAEHPAVCDrCurve@@AAUcurve@@@Z 1003a010 f   Mi_GangC.obj
 0001:00039330       ?InsertAllInfo_Curve@CMI_GangC@@QAEHH@Z 1003a330 f   Mi_GangC.obj
 0001:000393f0       ?SetUpINodes_Wts@CMI_GangC@@QAEXPAVCDListMgr@@PAUWORLD@@PANH@Z 1003a3f0 f   Mi_GangC.obj
 0001:000394b0       ?SetUpINodes@CMI_GangC@@QAEHPAVCDListMgr@@PAUWORLD@@H@Z 1003a4b0 f   Mi_GangC.obj
 0001:000395a0       ?GenerateCurveVNodes@CMI_GangC@@QAEHPAVCDrCurve@@AAVCString@@@Z 1003a5a0 f   Mi_GangC.obj
 0001:00039840       ?FillMeshNodesCurve@CMI_GangC@@QAEHPAVCDrCurve@@PAUWORLD@@PANH@Z 1003a840 f   Mi_GangC.obj
 0001:00039a10       ?FillMeshTangentsCurve@CMI_GangC@@QAEHPAVCDrCurve@@PAUWORLD@@H@Z 1003aa10 f   Mi_GangC.obj
 0001:00039b80       ?CreateCurve@CMI_GangC@@QAEPAVCDrCurve@@AAVCString@@PAV2@PAVCDListMgr@@W4CURVEPROC@@PAV?$CList@HH@@HH@Z 1003ab80 f   Mi_GangC.obj
 0001:0003a060       ?SetIsoInfoForCurveBase@CMI_GangC@@QAEXPAVCDrCurve@@@Z 1003b060 f   Mi_GangC.obj
 0001:0003a090       ?SetDefaultInfoForCurveBase@CMI_GangC@@QAEXPAVCDrCurve@@@Z 1003b090 f   Mi_GangC.obj
 0001:0003a160       ?SetInfoForCurveBase@CMI_GangC@@QAEXPAVCDrCurve@@PAV?$CList@HH@@H@Z 1003b160 f   Mi_GangC.obj
 0001:0003a950       ?SetBZ_Knots@CMI_GangC@@QAEHPAVCDrCurve@@@Z 1003b950 f   Mi_GangC.obj
 0001:0003ab40       ?SetInfoForBezierPtsBase@CMI_GangC@@QAEXPAVCDrCurve@@PAV?$CList@HH@@H@Z 1003bb40 f   Mi_GangC.obj
 0001:0003b370       ?SetupKnots@CMI_GangC@@QAEHPAUWORLD@@W4KNOT@@PANH@Z 1003c370 f   Mi_GangC.obj
 0001:0003b8e0       ?Serialize@CMI_GangC@@UAEXAAVCArchive@@@Z 1003c8e0 f   Mi_GangC.obj
 0001:0003b92a       ?GetObjectIndexfromKey@CObjectMgr@@QAEHHVCString@@I@Z 1003c92a f   OMgr_D32:OMgr_D32.dll
 0001:0003b930       ?GetSpecObject@CObjectMgr@@QAEPAVCDrObject@@H@Z 1003c930 f   OMgr_D32:OMgr_D32.dll
 0001:0003b936       ?UpdateAllViewsWithActiveIndex@CObjectMgr@@QAEXPAVCView@@IH@Z 1003c936 f   OMgr_D32:OMgr_D32.dll
 0001:0003b93c       ?SetObjInfoID@CObjectMgr@@QAEHAAVCString@@I@Z 1003c93c f   OMgr_D32:OMgr_D32.dll
 0001:0003b942       ?SetNodeInfoID@CObjectMgr@@QAEHAAVCString@@HI@Z 1003c942 f   OMgr_D32:OMgr_D32.dll
 0001:0003b948       ?GetRuntimeClass@CMatObj@@UBEPAUCRuntimeClass@@XZ 1003c948 f   Spec_d32:Spec_D32.dll
 0001:0003b94e       ?InitBooleans@CBooleans@@UAEXXZ 1003c94e f   Spec_d32:Spec_D32.dll
 0001:0003b954       ?ReadDefaultBooleans@CBooleans@@UAEXXZ 1003c954 f   Spec_d32:Spec_D32.dll
 0001:0003b95a       ?ToggleZoom@CBooleans@@UAEHHH@Z 1003c95a f   Spec_d32:Spec_D32.dll
 0001:0003b960       ?IsZoomOn@CBooleans@@UAEHHH@Z 1003c960 f   Spec_d32:Spec_D32.dll
 0001:0003b966       ?SetZoomEnabled@CBooleans@@UAEXHH@Z 1003c966 f   Spec_d32:Spec_D32.dll
 0001:0003b96c       ?IsZoomEnabled@CBooleans@@UAEHH@Z 1003c96c f   Spec_d32:Spec_D32.dll
 0001:0003b972       ?SetObjectInfo@CBooleans@@UAEXPAVCDrObject@@@Z 1003c972 f   Spec_d32:Spec_D32.dll
 0001:0003b978       ?GetObjectInfo@CBooleans@@UAEXPAVCDrObject@@@Z 1003c978 f   Spec_d32:Spec_D32.dll
 0001:0003b97e       ?Pack_drPipe@CBooleans@@UAEXPAVCString@@@Z 1003c97e f   Spec_d32:Spec_D32.dll
 0001:0003b984       ?SetScreen3DCorner@CDrObject@@UAEXPAUWORLD@@H@Z 1003c984 f   Spec_d32:Spec_D32.dll
 0001:0003b98a       ?GetScreen3DCorner@CDrObject@@UAEXPAUWORLD@@H@Z 1003c98a f   Spec_d32:Spec_D32.dll
 0001:0003b990       ?SetEyeCorner@CDrObject@@UAEXPAUWORLD@@H@Z 1003c990 f   Spec_d32:Spec_D32.dll
 0001:0003b996       ?GetEyeCorner@CDrObject@@UAEXPAUWORLD@@H@Z 1003c996 f   Spec_d32:Spec_D32.dll
 0001:0003b99c       ?SetWorldCorner@CDrObject@@UAEXPAUWORLD@@H@Z 1003c99c f   Spec_d32:Spec_D32.dll
 0001:0003b9a2       ?GetWorldCorner@CDrObject@@UAEXPAUWORLD@@H@Z 1003c9a2 f   Spec_d32:Spec_D32.dll
 0001:0003b9a8       ?SetLocalCorner@CDrObject@@UAEXPAUWORLD@@H@Z 1003c9a8 f   Spec_d32:Spec_D32.dll
 0001:0003b9ae       ?GetLocalCorner@CDrObject@@UAEXPAUWORLD@@H@Z 1003c9ae f   Spec_d32:Spec_D32.dll
 0001:0003b9b4       ?DoDataView@CBooleans@@UAEXPAVCDC@@H@Z 1003c9b4 f   Spec_d32:Spec_D32.dll
 0001:0003b9ba       ?Serialize@CBooleans@@UAEXAAVCArchive@@@Z 1003c9ba f   Spec_d32:Spec_D32.dll
 0001:0003b9c0       ?GetRuntimeClass@CBooleans@@UBEPAUCRuntimeClass@@XZ 1003c9c0 f   Spec_d32:Spec_D32.dll
 0001:0003b9c6       ??1CDrObject@@UAE@XZ       1003c9c6 f   Spec_d32:Spec_D32.dll
 0001:0003b9cc       ?InitDataWindow@CDataWindow@@UAEXXZ 1003c9cc f   Spec_d32:Spec_D32.dll
 0001:0003b9d2       ?ReadDefaultDataWindow@CDataWindow@@UAEXXZ 1003c9d2 f   Spec_d32:Spec_D32.dll
 0001:0003b9d8       ?SetWinExtWIC@CDataWindow@@UAEXXZ 1003c9d8 f   Spec_d32:Spec_D32.dll
 0001:0003b9de       ?SetWinMinMaxWIC@CDataWindow@@UAEXULPOINT3@@@Z 1003c9de f   Spec_d32:Spec_D32.dll
 0001:0003b9e4       ?SetObjectInfo@CDataWindow@@UAEXPAVCDrObject@@@Z 1003c9e4 f   Spec_d32:Spec_D32.dll
 0001:0003b9ea       ?GetObjectInfo@CDataWindow@@UAEXPAVCDrObject@@@Z 1003c9ea f   Spec_d32:Spec_D32.dll
 0001:0003b9f0       ?Pack_drPipe@CDataWindow@@UAEXPAVCString@@@Z 1003c9f0 f   Spec_d32:Spec_D32.dll
 0001:0003b9f6       ?DoDataView@CDataWindow@@UAEXPAVCDC@@H@Z 1003c9f6 f   Spec_d32:Spec_D32.dll
 0001:0003b9fc       ?Serialize@CDataWindow@@UAEXAAVCArchive@@@Z 1003c9fc f   Spec_d32:Spec_D32.dll
 0001:0003ba02       ?GetRuntimeClass@CDataWindow@@UBEPAUCRuntimeClass@@XZ 1003ca02 f   Spec_d32:Spec_D32.dll
 0001:0003ba08       ?InitDrFont@CDrFont@@UAEXXZ 1003ca08 f   Spec_d32:Spec_D32.dll
 0001:0003ba0e       ?ReadDefaultDrFont@CDrFont@@UAEXXZ 1003ca0e f   Spec_d32:Spec_D32.dll
 0001:0003ba14       ?DoTextFont@CDrFont@@UAEXXZ 1003ca14 f   Spec_d32:Spec_D32.dll
 0001:0003ba1a       ?SetObjectInfo@CDrFont@@UAEXPAVCDrObject@@@Z 1003ca1a f   Spec_d32:Spec_D32.dll
 0001:0003ba20       ?GetObjectInfo@CDrFont@@UAEXPAVCDrObject@@@Z 1003ca20 f   Spec_d32:Spec_D32.dll
 0001:0003ba26       ?Pack_drPipe@CDrFont@@UAEXPAVCString@@@Z 1003ca26 f   Spec_d32:Spec_D32.dll
 0001:0003ba2c       ?DoDataView@CDrFont@@UAEXPAVCDC@@H@Z 1003ca2c f   Spec_d32:Spec_D32.dll
 0001:0003ba32       ?Serialize@CDrFont@@UAEXAAVCArchive@@@Z 1003ca32 f   Spec_d32:Spec_D32.dll
 0001:0003ba38       ?GetRuntimeClass@CDrFont@@UBEPAUCRuntimeClass@@XZ 1003ca38 f   Spec_d32:Spec_D32.dll
 0001:0003ba3e       ?InitDrPen@CDrPen@@UAEXXZ  1003ca3e f   Spec_d32:Spec_D32.dll
 0001:0003ba44       ?ReadDefaultDrPen@CDrPen@@UAEXXZ 1003ca44 f   Spec_d32:Spec_D32.dll
 0001:0003ba4a       ?ReplacePen@CDrPen@@UAEXXZ 1003ca4a f   Spec_d32:Spec_D32.dll
 0001:0003ba50       ?SetObjectInfo@CDrPen@@UAEXPAVCDrObject@@@Z 1003ca50 f   Spec_d32:Spec_D32.dll
 0001:0003ba56       ?GetObjectInfo@CDrPen@@UAEXPAVCDrObject@@@Z 1003ca56 f   Spec_d32:Spec_D32.dll
 0001:0003ba5c       ?Pack_drPipe@CDrPen@@UAEXPAVCString@@@Z 1003ca5c f   Spec_d32:Spec_D32.dll
 0001:0003ba62       ?DoDataView@CDrPen@@UAEXPAVCDC@@H@Z 1003ca62 f   Spec_d32:Spec_D32.dll
 0001:0003ba68       ?Serialize@CDrPen@@UAEXAAVCArchive@@@Z 1003ca68 f   Spec_d32:Spec_D32.dll
 0001:0003ba6e       ?GetRuntimeClass@CDrPen@@UBEPAUCRuntimeClass@@XZ 1003ca6e f   Spec_d32:Spec_D32.dll
 0001:0003ba74       ?SetObjectInfo@CHitNet@@UAEXPAVCDrObject@@@Z 1003ca74 f   Spec_d32:Spec_D32.dll
 0001:0003ba7a       ?GetObjectInfo@CHitNet@@UAEXPAVCDrObject@@@Z 1003ca7a f   Spec_d32:Spec_D32.dll
 0001:0003ba80       ?Pack_drPipe@CHitNet@@UAEXPAVCString@@@Z 1003ca80 f   Spec_d32:Spec_D32.dll
 0001:0003ba86       ?DoDataView@CHitNet@@UAEXPAVCDC@@H@Z 1003ca86 f   Spec_d32:Spec_D32.dll
 0001:0003ba8c       ?Serialize@CHitNet@@UAEXAAVCArchive@@@Z 1003ca8c f   Spec_d32:Spec_D32.dll
 0001:0003ba92       ?GetRuntimeClass@CHitNet@@UBEPAUCRuntimeClass@@XZ 1003ca92 f   Spec_d32:Spec_D32.dll
 0001:0003ba98       ?InitLayer@CLayer@@UAEXXZ  1003ca98 f   Spec_d32:Spec_D32.dll
 0001:0003ba9e       ?ReadDefaultLayer@CLayer@@UAEXXZ 1003ca9e f   Spec_d32:Spec_D32.dll
 0001:0003baa4       ?SetLayerDefaultArray@CLayer@@UAEXQAY01I@Z 1003caa4 f   Spec_d32:Spec_D32.dll
 0001:0003baaa       ?GetLayerDefaultArray@CLayer@@UAEXQAY01I@Z 1003caaa f   Spec_d32:Spec_D32.dll
 0001:0003bab0       ?SetLayerOldArray@CLayer@@UAEXQAY01I@Z 1003cab0 f   Spec_d32:Spec_D32.dll
 0001:0003bab6       ?GetLayerOldArray@CLayer@@UAEXQAY01I@Z 1003cab6 f   Spec_d32:Spec_D32.dll
 0001:0003babc       ?SetLayerArray@CLayer@@UAEXQAY01I@Z 1003cabc f   Spec_d32:Spec_D32.dll
 0001:0003bac2       ?GetLayerArray@CLayer@@UAEXQAY01I@Z 1003cac2 f   Spec_d32:Spec_D32.dll
 0001:0003bac8       ?SetLayerInfo@CLayer@@UAEXII@Z 1003cac8 f   Spec_d32:Spec_D32.dll
 0001:0003bace       ?GetLayerInfo@CLayer@@UAE?AVCString@@I@Z 1003cace f   Spec_d32:Spec_D32.dll
 0001:0003bad4       ?SetObjectInfo@CLayer@@UAEXPAVCDrObject@@@Z 1003cad4 f   Spec_d32:Spec_D32.dll
 0001:0003bada       ?GetObjectInfo@CLayer@@UAEXPAVCDrObject@@@Z 1003cada f   Spec_d32:Spec_D32.dll
 0001:0003bae0       ?Pack_drPipe@CLayer@@UAEXPAVCString@@@Z 1003cae0 f   Spec_d32:Spec_D32.dll
 0001:0003bae6       ?DoDataView@CLayer@@UAEXPAVCDC@@H@Z 1003cae6 f   Spec_d32:Spec_D32.dll
 0001:0003baec       ?Serialize@CLayer@@UAEXAAVCArchive@@@Z 1003caec f   Spec_d32:Spec_D32.dll
 0001:0003baf2       ?GetRuntimeClass@CLayer@@UBEPAUCRuntimeClass@@XZ 1003caf2 f   Spec_d32:Spec_D32.dll
 0001:0003baf8       ?InitPatchMnu@CPatchMnu@@UAEXXZ 1003caf8 f   Spec_d32:Spec_D32.dll
 0001:0003bafe       ?ReadDefaultPatchMnu@CPatchMnu@@UAEXXZ 1003cafe f   Spec_d32:Spec_D32.dll
 0001:0003bb04       ?SetPatchMnuDefaultArray@CPatchMnu@@UAEXQAY01I@Z 1003cb04 f   Spec_d32:Spec_D32.dll
 0001:0003bb0a       ?GetPatchMnuDefaultArray@CPatchMnu@@UAEXQAY01I@Z 1003cb0a f   Spec_d32:Spec_D32.dll
 0001:0003bb10       ?SetPatchMnuOldArray@CPatchMnu@@UAEXQAY01I@Z 1003cb10 f   Spec_d32:Spec_D32.dll
 0001:0003bb16       ?GetPatchMnuOldArray@CPatchMnu@@UAEXQAY01I@Z 1003cb16 f   Spec_d32:Spec_D32.dll
 0001:0003bb1c       ?SetPatchMnuArray@CPatchMnu@@UAEXQAY01I@Z 1003cb1c f   Spec_d32:Spec_D32.dll
 0001:0003bb22       ?GetPatchMnuArray@CPatchMnu@@UAEXQAY01I@Z 1003cb22 f   Spec_d32:Spec_D32.dll
 0001:0003bb28       ?SetPatchMnuIDArray@CPatchMnu@@UAEXQAVCString@@@Z 1003cb28 f   Spec_d32:Spec_D32.dll
 0001:0003bb2e       ?GetPatchMnuIDArray@CPatchMnu@@UAEXQAVCString@@@Z 1003cb2e f   Spec_d32:Spec_D32.dll
 0001:0003bb34       ?SetPatchMnuInfo@CPatchMnu@@UAEXII@Z 1003cb34 f   Spec_d32:Spec_D32.dll
 0001:0003bb3a       ?GetPatchMnuInfo@CPatchMnu@@UAE?AVCString@@I@Z 1003cb3a f   Spec_d32:Spec_D32.dll
 0001:0003bb40       ?SetObjectInfo@CPatchMnu@@UAEXPAVCDrObject@@@Z 1003cb40 f   Spec_d32:Spec_D32.dll
 0001:0003bb46       ?GetObjectInfo@CPatchMnu@@UAEXPAVCDrObject@@@Z 1003cb46 f   Spec_d32:Spec_D32.dll
 0001:0003bb4c       ?Pack_drPipe@CPatchMnu@@UAEXPAVCString@@@Z 1003cb4c f   Spec_d32:Spec_D32.dll
 0001:0003bb52       ?DoDataView@CPatchMnu@@UAEXPAVCDC@@H@Z 1003cb52 f   Spec_d32:Spec_D32.dll
 0001:0003bb58       ?Serialize@CPatchMnu@@UAEXAAVCArchive@@@Z 1003cb58 f   Spec_d32:Spec_D32.dll
 0001:0003bb5e       ?GetRuntimeClass@CPatchMnu@@UBEPAUCRuntimeClass@@XZ 1003cb5e f   Spec_d32:Spec_D32.dll
 0001:0003bb64       ?InitObj3DMnu@CObj3DMnu@@UAEXXZ 1003cb64 f   Spec_d32:Spec_D32.dll
 0001:0003bb6a       ?ReadDefaultObj3DMnu@CObj3DMnu@@UAEXXZ 1003cb6a f   Spec_d32:Spec_D32.dll
 0001:0003bb70       ?SetObj3DMnuDefaultArray@CObj3DMnu@@UAEXQAY01I@Z 1003cb70 f   Spec_d32:Spec_D32.dll
 0001:0003bb76       ?GetObj3DMnuDefaultArray@CObj3DMnu@@UAEXQAY01I@Z 1003cb76 f   Spec_d32:Spec_D32.dll
 0001:0003bb7c       ?SetObj3DMnuOldArray@CObj3DMnu@@UAEXQAY01I@Z 1003cb7c f   Spec_d32:Spec_D32.dll
 0001:0003bb82       ?GetObj3DMnuOldArray@CObj3DMnu@@UAEXQAY01I@Z 1003cb82 f   Spec_d32:Spec_D32.dll
 0001:0003bb88       ?SetObj3DMnuArray@CObj3DMnu@@UAEXQAY01I@Z 1003cb88 f   Spec_d32:Spec_D32.dll
 0001:0003bb8e       ?GetObj3DMnuArray@CObj3DMnu@@UAEXQAY01I@Z 1003cb8e f   Spec_d32:Spec_D32.dll
 0001:0003bb94       ?SetObj3DMnuIDArray@CObj3DMnu@@UAEXQAVCString@@@Z 1003cb94 f   Spec_d32:Spec_D32.dll
 0001:0003bb9a       ?GetObj3DMnuIDArray@CObj3DMnu@@UAEXQAVCString@@@Z 1003cb9a f   Spec_d32:Spec_D32.dll
 0001:0003bba0       ?SetObj3DMnuInfo@CObj3DMnu@@UAEXII@Z 1003cba0 f   Spec_d32:Spec_D32.dll
 0001:0003bba6       ?GetObj3DMnuInfo@CObj3DMnu@@UAE?AVCString@@I@Z 1003cba6 f   Spec_d32:Spec_D32.dll
 0001:0003bbac       ?SetObjectInfo@CObj3DMnu@@UAEXPAVCDrObject@@@Z 1003cbac f   Spec_d32:Spec_D32.dll
 0001:0003bbb2       ?GetObjectInfo@CObj3DMnu@@UAEXPAVCDrObject@@@Z 1003cbb2 f   Spec_d32:Spec_D32.dll
 0001:0003bbb8       ?Pack_drPipe@CObj3DMnu@@UAEXPAVCString@@@Z 1003cbb8 f   Spec_d32:Spec_D32.dll
 0001:0003bbbe       ?DoDataView@CObj3DMnu@@UAEXPAVCDC@@H@Z 1003cbbe f   Spec_d32:Spec_D32.dll
 0001:0003bbc4       ?Serialize@CObj3DMnu@@UAEXAAVCArchive@@@Z 1003cbc4 f   Spec_d32:Spec_D32.dll
 0001:0003bbca       ?GetRuntimeClass@CObj3DMnu@@UBEPAUCRuntimeClass@@XZ 1003cbca f   Spec_d32:Spec_D32.dll
 0001:0003bbd0       ?InitMapFactor@CMapFactor@@UAEXXZ 1003cbd0 f   Spec_d32:Spec_D32.dll
 0001:0003bbd6       ?ReadDefaultMapFactor@CMapFactor@@UAEXXZ 1003cbd6 f   Spec_d32:Spec_D32.dll
 0001:0003bbdc       ?SetObjectInfo@CMapFactor@@UAEXPAVCDrObject@@@Z 1003cbdc f   Spec_d32:Spec_D32.dll
 0001:0003bbe2       ?GetObjectInfo@CMapFactor@@UAEXPAVCDrObject@@@Z 1003cbe2 f   Spec_d32:Spec_D32.dll
 0001:0003bbe8       ?Pack_drPipe@CMapFactor@@UAEXPAVCString@@@Z 1003cbe8 f   Spec_d32:Spec_D32.dll
 0001:0003bbee       ?DoDataView@CMapFactor@@UAEXPAVCDC@@H@Z 1003cbee f   Spec_d32:Spec_D32.dll
 0001:0003bbf4       ?Serialize@CMapFactor@@UAEXAAVCArchive@@@Z 1003cbf4 f   Spec_d32:Spec_D32.dll
 0001:0003bbfa       ?GetRuntimeClass@CMapFactor@@UBEPAUCRuntimeClass@@XZ 1003cbfa f   Spec_d32:Spec_D32.dll
 0001:0003bc00       ?InitPrecision@CPrecision@@UAEXXZ 1003cc00 f   Spec_d32:Spec_D32.dll
 0001:0003bc06       ?ReadDefaultPrecision@CPrecision@@UAEXXZ 1003cc06 f   Spec_d32:Spec_D32.dll
 0001:0003bc0c       ?SetObjectInfo@CPrecision@@UAEXPAVCDrObject@@@Z 1003cc0c f   Spec_d32:Spec_D32.dll
 0001:0003bc12       ?GetObjectInfo@CPrecision@@UAEXPAVCDrObject@@@Z 1003cc12 f   Spec_d32:Spec_D32.dll
 0001:0003bc18       ?Pack_drPipe@CPrecision@@UAEXPAVCString@@@Z 1003cc18 f   Spec_d32:Spec_D32.dll
 0001:0003bc1e       ?DoDataView@CPrecision@@UAEXPAVCDC@@H@Z 1003cc1e f   Spec_d32:Spec_D32.dll
 0001:0003bc24       ?Serialize@CPrecision@@UAEXAAVCArchive@@@Z 1003cc24 f   Spec_d32:Spec_D32.dll
 0001:0003bc2a       ?GetRuntimeClass@CPrecision@@UBEPAUCRuntimeClass@@XZ 1003cc2a f   Spec_d32:Spec_D32.dll
 0001:0003bc30       ?InitScaleFactor@CScaleFactor@@UAEXXZ 1003cc30 f   Spec_d32:Spec_D32.dll
 0001:0003bc36       ?ReadDefaultScaleFactor@CScaleFactor@@UAEXXZ 1003cc36 f   Spec_d32:Spec_D32.dll
 0001:0003bc3c       ?SetObjectInfo@CScaleFactor@@UAEXPAVCDrObject@@@Z 1003cc3c f   Spec_d32:Spec_D32.dll
 0001:0003bc42       ?GetObjectInfo@CScaleFactor@@UAEXPAVCDrObject@@@Z 1003cc42 f   Spec_d32:Spec_D32.dll
 0001:0003bc48       ?Pack_drPipe@CScaleFactor@@UAEXPAVCString@@@Z 1003cc48 f   Spec_d32:Spec_D32.dll
 0001:0003bc4e       ?DoDataView@CScaleFactor@@UAEXPAVCDC@@H@Z 1003cc4e f   Spec_d32:Spec_D32.dll
 0001:0003bc54       ?Serialize@CScaleFactor@@UAEXAAVCArchive@@@Z 1003cc54 f   Spec_d32:Spec_D32.dll
 0001:0003bc5a       ?GetRuntimeClass@CScaleFactor@@UBEPAUCRuntimeClass@@XZ 1003cc5a f   Spec_d32:Spec_D32.dll
 0001:0003bc60       ?InitUnit@CUnit@@UAEXXZ    1003cc60 f   Spec_d32:Spec_D32.dll
 0001:0003bc66       ?ReadDefaultUnit@CUnit@@UAEXXZ 1003cc66 f   Spec_d32:Spec_D32.dll
 0001:0003bc6c       ?SetObjectInfo@CUnit@@UAEXPAVCDrObject@@@Z 1003cc6c f   Spec_d32:Spec_D32.dll
 0001:0003bc72       ?GetObjectInfo@CUnit@@UAEXPAVCDrObject@@@Z 1003cc72 f   Spec_d32:Spec_D32.dll
 0001:0003bc78       ?Pack_drPipe@CUnit@@UAEXPAVCString@@@Z 1003cc78 f   Spec_d32:Spec_D32.dll
 0001:0003bc7e       ?DoDataView@CUnit@@UAEXPAVCDC@@H@Z 1003cc7e f   Spec_d32:Spec_D32.dll
 0001:0003bc84       ?Serialize@CUnit@@UAEXAAVCArchive@@@Z 1003cc84 f   Spec_d32:Spec_D32.dll
 0001:0003bc8a       ?GetRuntimeClass@CUnit@@UBEPAUCRuntimeClass@@XZ 1003cc8a f   Spec_d32:Spec_D32.dll
 0001:0003bc90       ??1CDListMgr@@UAE@XZ       1003cc90 f   Spec_d32:Spec_D32.dll
 0001:0003bc96       ?GetNextObject@CDListMgr@@QAEPAVCObject@@AAPAU__POSITION@@@Z 1003cc96 f   Spec_d32:Spec_D32.dll
 0001:0003bc9c       ?GetFirstObjectPos@CDListMgr@@QAEPAU__POSITION@@XZ 1003cc9c f   Spec_d32:Spec_D32.dll
 0001:0003bca2       ??0CMatObj@@QAE@XZ         1003cca2 f   Spec_d32:Spec_D32.dll
 0001:0003bca8       ??0CDListMgr@@QAE@XZ       1003cca8 f   Spec_d32:Spec_D32.dll
 0001:0003bcae       ?GetSpecificObjectCount@CDListMgr@@QAEHH@Z 1003ccae f   Spec_d32:Spec_D32.dll
 0001:0003bcb4       ?DeleteObject@CDListMgr@@QAEHH@Z 1003ccb4 f   Spec_d32:Spec_D32.dll
 0001:0003bcba       ?InsertObject@CDListMgr@@QAEHPAVCObject@@@Z 1003ccba f   Spec_d32:Spec_D32.dll
 0001:0003bcc0       ?GetObjectA@CDListMgr@@QAEPAVCObject@@H@Z 1003ccc0 f   Spec_d32:Spec_D32.dll
 0001:0003bcc6       ?GetObjectIndex@CDListMgr@@QAEHIVCString@@@Z 1003ccc6 f   Spec_d32:Spec_D32.dll
 0001:0003bccc       ?GetObjectIndex@CDListMgr@@QAEHPAVCObject@@@Z 1003cccc f   Spec_d32:Spec_D32.dll
 0001:0003bcd2       ?RemoveObject@CDListMgr@@QAEHH@Z 1003ccd2 f   Spec_d32:Spec_D32.dll
 0001:0003bcd8       ?SetCorner@CDrLabel@@UAEXUtagPOINT@@H@Z 1003ccd8 f   Draw_D32:Draw_D32.dll
 0001:0003bcde       ?GetCorner@CDrLabel@@UAE?AUtagPOINT@@H@Z 1003ccde f   Draw_D32:Draw_D32.dll
 0001:0003bce4       ?GetObjectInfo@CDrLabel@@UAEXPAVCDrObject@@@Z 1003cce4 f   Draw_D32:Draw_D32.dll
 0001:0003bcea       ?SetObjectInfo@CDrLabel@@UAEXPAVCDrObject@@@Z 1003ccea f   Draw_D32:Draw_D32.dll
 0001:0003bcf0       ?Pack_drPipe@CDrLabel@@UAEXPAVCString@@@Z 1003ccf0 f   Draw_D32:Draw_D32.dll
 0001:0003bcf6       ?IsKeyMatch@CDrLabel@@UAEHPAVCDrObject@@VCString@@I@Z 1003ccf6 f   Draw_D32:Draw_D32.dll
 0001:0003bcfc       ?IsObjectHit@CDrLabel@@UAEHPAVCClientDC@@HUtagPOINT@@PAVCRect@@H@Z 1003ccfc f   Draw_D32:Draw_D32.dll
 0001:0003bd02       ?GetRawCoords@CDrLabel@@UAEXPAJPAHH@Z 1003cd02 f   Draw_D32:Draw_D32.dll
 0001:0003bd08       ?FinishObject@CDrLabel@@UAEXPAVCClientDC@@H@Z 1003cd08 f   Draw_D32:Draw_D32.dll
 0001:0003bd0e       ?DealObjectDialog@CDrLabel@@UAEHXZ 1003cd0e f   Draw_D32:Draw_D32.dll
 0001:0003bd14       ?DoDrawView@CDrLabel@@UAEXPAVCDC@@HH@Z 1003cd14 f   Draw_D32:Draw_D32.dll
 0001:0003bd1a       ?Corner_3Dto2D@CDrLabel@@UAEXXZ 1003cd1a f   Draw_D32:Draw_D32.dll
 0001:0003bd20       ?InitDraw@CDrLabel@@UAEXPAVCDC@@HHPAUMATRIX@@1NNN@Z 1003cd20 f   Draw_D32:Draw_D32.dll
 0001:0003bd26       ?DoDataView@CDrLabel@@UAEXPAVCDC@@H@Z 1003cd26 f   Draw_D32:Draw_D32.dll
 0001:0003bd2c       ?Serialize@CDrLabel@@UAEXAAVCArchive@@@Z 1003cd2c f   Draw_D32:Draw_D32.dll
 0001:0003bd32       ?GetRuntimeClass@CDrLabel@@UBEPAUCRuntimeClass@@XZ 1003cd32 f   Draw_D32:Draw_D32.dll
 0001:0003bd38       ?Init@CElemInfo@@UAEXXZ    1003cd38 f   Elem_D32:Elem_D32.dll
 0001:0003bd3e       ?ReadDefault@CElemInfo@@UAEXXZ 1003cd3e f   Elem_D32:Elem_D32.dll
 0001:0003bd44       ?SetObjectInfo@CElemInfo@@UAEXPAVCDrObject@@@Z 1003cd44 f   Elem_D32:Elem_D32.dll
 0001:0003bd4a       ?GetObjectInfo@CElemInfo@@UAEXPAVCDrObject@@@Z 1003cd4a f   Elem_D32:Elem_D32.dll
 0001:0003bd50       ?Pack_drPipe@CElemInfo@@UAEXPAVCString@@@Z 1003cd50 f   Elem_D32:Elem_D32.dll
 0001:0003bd56       ?DoDataView@CElemInfo@@UAEXPAVCDC@@H@Z 1003cd56 f   Elem_D32:Elem_D32.dll
 0001:0003bd5c       ?Serialize@CElemInfo@@UAEXAAVCArchive@@@Z 1003cd5c f   Elem_D32:Elem_D32.dll
 0001:0003bd62       ?GetRuntimeClass@CElemInfo@@UBEPAUCRuntimeClass@@XZ 1003cd62 f   Elem_D32:Elem_D32.dll
 0001:0003bd68       ?GetRuntimeClass@CTriangle@@UBEPAUCRuntimeClass@@XZ 1003cd68 f   OGen_D32:OGEN_D32.dll
 0001:0003bd6e       ?NumberOfCurves@CDrCurve@@QAEHW4CURVEPROC@@HPAHHH@Z 1003cd6e f   OGen_D32:OGEN_D32.dll
 0001:0003bd74       ?GenerateCurve@CDrCurve@@QAEHPAUWORLD@@PAN@Z 1003cd74 f   OGen_D32:OGEN_D32.dll
 0001:0003bd7a       ?RefillCNLocalPosForPosting@CDrCurve@@QAEXXZ 1003cd7a f   OGen_D32:OGEN_D32.dll
 0001:0003bd80       ?GenerateTangent@CDrCurve@@QAEHPAUWORLD@@@Z 1003cd80 f   OGen_D32:OGEN_D32.dll
 0001:0003bd86       ?Serialize@C3DMath@@UAEXAAVCArchive@@@Z 1003cd86 f   Dr3D_D32:Dr3D_D32.dll
 0001:0003bd8c       ?GetRuntimeClass@C3DMath@@UBEPAUCRuntimeClass@@XZ 1003cd8c f   Dr3D_D32:Dr3D_D32.dll
 0001:0003bd92       ?BlockCopy@C3DMath@@QAEXPAD0K@Z 1003cd92 f   Dr3D_D32:Dr3D_D32.dll
 0001:0003bd98       ??0C3DMath@@QAE@XZ         1003cd98 f   Dr3D_D32:Dr3D_D32.dll
 0001:0003bd9e       ?Project@CXForm@@UAEXPAUMATRIX@@PAUWORLD@@1@Z 1003cd9e f   Dr3D_D32:Dr3D_D32.dll
 0001:0003bda4       ?ComposeWin3DtoScreen3DMATRIX@CXForm@@UAEXPAUMATRIX@@UWORLD@@1@Z 1003cda4 f   Dr3D_D32:Dr3D_D32.dll
 0001:0003bdaa       ?TransformPerToParCVV@CXForm@@UAEXNPAUWORLD@@0@Z 1003cdaa f   Dr3D_D32:Dr3D_D32.dll
 0001:0003bdb0       ?Transform@CXForm@@UAEXPAUWORLD@@0PAUMATRIX@@@Z 1003cdb0 f   Dr3D_D32:Dr3D_D32.dll
 0001:0003bdb6       ?ComposeCombineMATRIX@CXForm@@UAEXPAUMATRIX@@00@Z 1003cdb6 f   Dr3D_D32:Dr3D_D32.dll
 0001:0003bdbc       ?Per_SetVMMATRIX@CXForm@@UAENPAUMATRIX@@UWORLD@@1NNNN@Z 1003cdbc f   Dr3D_D32:Dr3D_D32.dll
 0001:0003bdc2       ?Par_SetVMMATRIX@CXForm@@UAEXPAUMATRIX@@UWORLD@@1NNNN@Z 1003cdc2 f   Dr3D_D32:Dr3D_D32.dll
 0001:0003bdc8       ?SetVOMATRIX@CXForm@@UAEXPAUMATRIX@@UWORLD@@11@Z 1003cdc8 f   Dr3D_D32:Dr3D_D32.dll
 0001:0003bdce       ?ALT_ComposeViewMATRIX@CXForm@@UAEHPAUMATRIX@@UWORLD@@1111NNNN@Z 1003cdce f   Dr3D_D32:Dr3D_D32.dll
 0001:0003bdd4       ?PerToParCVVMATRIX@CXForm@@UAEXPAUMATRIX@@N@Z 1003cdd4 f   Dr3D_D32:Dr3D_D32.dll
 0001:0003bdda       ?ComposeViewMATRIX@CXForm@@UAENPAUMATRIX@@UWORLD@@1111NNNN@Z 1003cdda f   Dr3D_D32:Dr3D_D32.dll
 0001:0003bde0       ?ComposeLocalMATRIX@CXForm@@UAEXPAUMATRIX@@NNNNNNNNNNNN@Z 1003cde0 f   Dr3D_D32:Dr3D_D32.dll
 0001:0003bde6       ?VRCtoWORLDRotationMATRIX@CXForm@@UAEXPAUMATRIX@@PAUWORLD@@1@Z 1003cde6 f   Dr3D_D32:Dr3D_D32.dll
 0001:0003bdec       ?RotateToNewXMATRIX@CXForm@@UAEXPAUWORLD@@PAUMATRIX@@W4XFMODE@@@Z 1003cdec f   Dr3D_D32:Dr3D_D32.dll
 0001:0003bdf2       ?HeadToNewXLocMATRIX@CXForm@@UAEXPAUWORLD@@0PAUMATRIX@@W4XFMODE@@@Z 1003cdf2 f   Dr3D_D32:Dr3D_D32.dll
 0001:0003bdf8       ?RotateToNewYMATRIX@CXForm@@UAEXPAUWORLD@@PAUMATRIX@@W4XFMODE@@@Z 1003cdf8 f   Dr3D_D32:Dr3D_D32.dll
 0001:0003bdfe       ?HeadToNewYLocMATRIX@CXForm@@UAEXPAUWORLD@@0PAUMATRIX@@W4XFMODE@@@Z 1003cdfe f   Dr3D_D32:Dr3D_D32.dll
 0001:0003be04       ?RotateToNewZMATRIX@CXForm@@UAEXPAUWORLD@@PAUMATRIX@@W4XFMODE@@@Z 1003ce04 f   Dr3D_D32:Dr3D_D32.dll
 0001:0003be0a       ?HeadToNewZLocMATRIX@CXForm@@UAEXPAUWORLD@@0PAUMATRIX@@W4XFMODE@@@Z 1003ce0a f   Dr3D_D32:Dr3D_D32.dll
 0001:0003be10       ?RotateAboutLineMATRIX@CXForm@@UAEXPAUMATRIX@@PAUWORLD@@1NW4XFMODE@@@Z 1003ce10 f   Dr3D_D32:Dr3D_D32.dll
 0001:0003be16       ?Translate@CXForm@@UAEXPAUMATRIX@@NNNW4XFMODE@@@Z 1003ce16 f   Dr3D_D32:Dr3D_D32.dll
 0001:0003be1c       ?Rotate_Z@CXForm@@UAEXPAUMATRIX@@NW4XFMODE@@@Z 1003ce1c f   Dr3D_D32:Dr3D_D32.dll
 0001:0003be22       ?Rotate_Y@CXForm@@UAEXPAUMATRIX@@NW4XFMODE@@@Z 1003ce22 f   Dr3D_D32:Dr3D_D32.dll
 0001:0003be28       ?Rotate_X@CXForm@@UAEXPAUMATRIX@@NW4XFMODE@@@Z 1003ce28 f   Dr3D_D32:Dr3D_D32.dll
 0001:0003be2e       ?Shear_Z@CXForm@@UAEXPAUMATRIX@@NNW4XFMODE@@@Z 1003ce2e f   Dr3D_D32:Dr3D_D32.dll
 0001:0003be34       ?Shear_Y@CXForm@@UAEXPAUMATRIX@@NNW4XFMODE@@@Z 1003ce34 f   Dr3D_D32:Dr3D_D32.dll
 0001:0003be3a       ?Shear_X@CXForm@@UAEXPAUMATRIX@@NNW4XFMODE@@@Z 1003ce3a f   Dr3D_D32:Dr3D_D32.dll
 0001:0003be40       ?Scale@CXForm@@UAEXPAUMATRIX@@NNNW4XFMODE@@@Z 1003ce40 f   Dr3D_D32:Dr3D_D32.dll
 0001:0003be46       ?Reflect@CXForm@@UAEXPAUMATRIX@@UWORLD@@N@Z 1003ce46 f   Dr3D_D32:Dr3D_D32.dll
 0001:0003be4c       ?Serialize@CXForm@@UAEXAAVCArchive@@@Z 1003ce4c f   Dr3D_D32:Dr3D_D32.dll
 0001:0003be52       ?GetRuntimeClass@CXForm@@UBEPAUCRuntimeClass@@XZ 1003ce52 f   Dr3D_D32:Dr3D_D32.dll
 0001:0003be58       ?GetIdentityMATRIX@C3DMath@@QAEXPAUMATRIX@@@Z 1003ce58 f   Dr3D_D32:Dr3D_D32.dll
 0001:0003be5e       ??0CXForm@@QAE@XZ          1003ce5e f   Dr3D_D32:Dr3D_D32.dll
 0001:0003be64       ?F_MultMATRIX@C3DMath@@QAEXPAUMATRIX@@00@Z 1003ce64 f   Dr3D_D32:Dr3D_D32.dll
 0001:0003be6a       ??0CXForm@@QAE@H@Z         1003ce6a f   Dr3D_D32:Dr3D_D32.dll
 0001:0003be70       ?Normalize@C3DMath@@QAEXPAUWORLD@@0@Z 1003ce70 f   Dr3D_D32:Dr3D_D32.dll
 0001:0003be76       ?Sub3DPts@C3DMath@@QAEXPAUWORLD@@00@Z 1003ce76 f   Dr3D_D32:Dr3D_D32.dll
 0001:0003be7c       ?TransposeMATRIX@C3DMath@@QAEXPAUMATRIX@@@Z 1003ce7c f   Dr3D_D32:Dr3D_D32.dll
 0001:0003be82       ?Cross3DPts@C3DMath@@QAEXPAUWORLD@@00@Z 1003ce82 f   Dr3D_D32:Dr3D_D32.dll
 0001:0003be88       ?Avg3DPts@C3DMath@@QAEXPAUWORLD@@00@Z 1003ce88 f   Dr3D_D32:Dr3D_D32.dll
 0001:0003be8e       ?Dot3DPts@C3DMath@@QAENPAUWORLD@@0@Z 1003ce8e f   Dr3D_D32:Dr3D_D32.dll
 0001:0003be94       ?Add3DPts@C3DMath@@QAEXPAUWORLD@@00@Z 1003ce94 f   Dr3D_D32:Dr3D_D32.dll
 0001:0003be9a       ?Scale3DPts@C3DMath@@QAEXNPAUWORLD@@@Z 1003ce9a f   Dr3D_D32:Dr3D_D32.dll
 0001:0003bea0       ?Solve_TriDiag@C3DMath@@QAEHPAN00PAY03N1HH@Z 1003cea0 f   Dr3D_D32:Dr3D_D32.dll
 0001:0003bea6       ?Solve_TriDiagPeriodic@C3DMath@@QAEHPAN00PAY03N1HH@Z 1003cea6 f   Dr3D_D32:Dr3D_D32.dll
 0001:0003beac       ?AreSame_WORLD@C3DMath@@QAEHPAUWORLD@@0N@Z 1003ceac f   Dr3D_D32:Dr3D_D32.dll
 0001:0003beb2       ?PostNode@CMI_GangN@@QAEPAVCDrNode@@AAVCString@@IUWORLD@@H@Z 1003ceb2 f   MNod_D32:MNod_D32.dll
 0001:0003beb8       ?CreateNode@CMI_GangN@@QAEPAVCDrNode@@AAVCString@@PAVCDrLabel@@UWORLD@@HHAAH3I@Z 1003ceb8 f   MNod_D32:MNod_D32.dll
 0001:0003bebe       ??1CMI_GangN@@UAE@XZ       1003cebe f   MNod_D32:MNod_D32.dll
 0001:0003bec4       ??0CMI_GangN@@QAE@XZ       1003cec4 f   MNod_D32:MNod_D32.dll
 0001:0003beca       ?Serialize@CMI_GangN@@UAEXAAVCArchive@@@Z 1003ceca f   MNod_D32:MNod_D32.dll
 0001:0003bed0       ?Dump@CObject@@UBEXAAVCDumpContext@@@Z 1003ced0 f   mfc42d:MFC42D.DLL
 0001:0003bed6       ?AssertValid@CObject@@UBEXXZ 1003ced6 f   mfc42d:MFC42D.DLL
 0001:0003bedc       ??1CObject@@UAE@XZ         1003cedc f   mfc42d:MFC42D.DLL
 0001:0003bee2       ??3CObject@@SGXPAX@Z       1003cee2 f   mfc42d:MFC42D.DLL
 0001:0003bee8       ??3@YAXPAX@Z               1003cee8 f   mfc42d:MFC42D.DLL
 0001:0003beee       ??0CString@@QAE@ABV0@@Z    1003ceee f   mfc42d:MFC42D.DLL
 0001:0003bef4       ??1CString@@QAE@XZ         1003cef4 f   mfc42d:MFC42D.DLL
 0001:0003befa       ??4CString@@QAEABV0@ABV0@@Z 1003cefa f   mfc42d:MFC42D.DLL
 0001:0003bf00       ?Serialize@CObject@@UAEXAAVCArchive@@@Z 1003cf00 f   mfc42d:MFC42D.DLL
 0001:0003bf06       ??1CPen@@UAE@XZ            1003cf06 f   mfc42d:MFC42D.DLL
 0001:0003bf0c       ??2@YAPAXI@Z               1003cf0c f   mfc42d:MFC42D.DLL
 0001:0003bf12       ??1CDialog@@UAE@XZ         1003cf12 f   mfc42d:MFC42D.DLL
 0001:0003bf18       ??1CButton@@UAE@XZ         1003cf18 f   mfc42d:MFC42D.DLL
 0001:0003bf1e       ??1CBitmap@@UAE@XZ         1003cf1e f   mfc42d:MFC42D.DLL
 0001:0003bf24       ??0CString@@QAE@PBD@Z      1003cf24 f   mfc42d:MFC42D.DLL
 0001:0003bf2a       ?PreInitDialog@CDialog@@MAEXXZ 1003cf2a f   mfc42d:MFC42D.DLL
 0001:0003bf30       ?OnSetFont@CDialog@@UAEXPAVCFont@@@Z 1003cf30 f   mfc42d:MFC42D.DLL
 0001:0003bf36       ?DoModal@CDialog@@UAEHXZ   1003cf36 f   mfc42d:MFC42D.DLL
 0001:0003bf3c       ?SetOccDialogInfo@CDialog@@MAEHPAU_AFX_OCC_DIALOG_INFO@@@Z 1003cf3c f   mfc42d:MFC42D.DLL
 0001:0003bf42       ?IsFrameWnd@CWnd@@UBEHXZ   1003cf42 f   mfc42d:MFC42D.DLL
 0001:0003bf48       ?CheckAutoCenter@CDialog@@UAEHXZ 1003cf48 f   mfc42d:MFC42D.DLL
 0001:0003bf4e       ?OnChildNotify@CWnd@@MAEHIIJPAJ@Z 1003cf4e f   mfc42d:MFC42D.DLL
 0001:0003bf54       ?PostNcDestroy@CWnd@@MAEXXZ 1003cf54 f   mfc42d:MFC42D.DLL
 0001:0003bf5a       ?DefWindowProcA@CWnd@@MAEJIIJ@Z 1003cf5a f   mfc42d:MFC42D.DLL
 0001:0003bf60       ?OnWndMsg@CWnd@@MAEHIIJPAJ@Z 1003cf60 f   mfc42d:MFC42D.DLL
 0001:0003bf66       ?WindowProc@CWnd@@MAEJIIJ@Z 1003cf66 f   mfc42d:MFC42D.DLL
 0001:0003bf6c       ?OnAmbientProperty@CWnd@@UAEHPAVCOleControlSite@@JPAUtagVARIANT@@@Z 1003cf6c f   mfc42d:MFC42D.DLL
 0001:0003bf72       ?PreTranslateMessage@CDialog@@UAEHPAUtagMSG@@@Z 1003cf72 f   mfc42d:MFC42D.DLL
 0001:0003bf78       ?EndModalState@CWnd@@UAEXXZ 1003cf78 f   mfc42d:MFC42D.DLL
 0001:0003bf7e       ?BeginModalState@CWnd@@UAEXXZ 1003cf7e f   mfc42d:MFC42D.DLL
 0001:0003bf84       ?GetSuperWndProcAddr@CWnd@@MAEPAP6GJPAUHWND__@@IIJ@ZXZ 1003cf84 f   mfc42d:MFC42D.DLL
 0001:0003bf8a       ?OnNotify@CWnd@@MAEHIJPAJ@Z 1003cf8a f   mfc42d:MFC42D.DLL
 0001:0003bf90       ?OnCommand@CWnd@@MAEHIJ@Z  1003cf90 f   mfc42d:MFC42D.DLL
 0001:0003bf96       ?EndModalLoop@CWnd@@UAEXH@Z 1003cf96 f   mfc42d:MFC42D.DLL
 0001:0003bf9c       ?ContinueModal@CWnd@@UAEHXZ 1003cf9c f   mfc42d:MFC42D.DLL
 0001:0003bfa2       ?WinHelpA@CWnd@@UAEXKI@Z   1003cfa2 f   mfc42d:MFC42D.DLL
 0001:0003bfa8       ?GetScrollBarCtrl@CWnd@@UBEPAVCScrollBar@@H@Z 1003cfa8 f   mfc42d:MFC42D.DLL
 0001:0003bfae       ?OnToolHitTest@CWnd@@UBEHVCPoint@@PAUtagTOOLINFOA@@@Z 1003cfae f   mfc42d:MFC42D.DLL
 0001:0003bfb4       ?CalcWindowRect@CWnd@@UAEXPAUtagRECT@@I@Z 1003cfb4 f   mfc42d:MFC42D.DLL
 0001:0003bfba       ?PreCreateWindow@CWnd@@UAEHAAUtagCREATESTRUCTA@@@Z 1003cfba f   mfc42d:MFC42D.DLL
 0001:0003bfc0       ?DestroyWindow@CWnd@@UAEHXZ 1003cfc0 f   mfc42d:MFC42D.DLL
 0001:0003bfc6       ?Create@CWnd@@UAEHPBD0KABUtagRECT@@PAV1@IPAUCCreateContext@@@Z 1003cfc6 f   mfc42d:MFC42D.DLL
 0001:0003bfcc       ?PreSubclassWindow@CWnd@@UAEXXZ 1003cfcc f   mfc42d:MFC42D.DLL
 0001:0003bfd2       ?GetConnectionHook@CCmdTarget@@MAEPAUIConnectionPoint@@ABU_GUID@@@Z 1003cfd2 f   mfc42d:MFC42D.DLL
 0001:0003bfd8       ?GetExtraConnectionPoints@CCmdTarget@@MAEHPAVCPtrArray@@@Z 1003cfd8 f   mfc42d:MFC42D.DLL
 0001:0003bfde       ?GetInterfaceHook@CCmdTarget@@UAEPAUIUnknown@@PBX@Z 1003cfde f   mfc42d:MFC42D.DLL
 0001:0003bfe4       ?OnCreateAggregates@CCmdTarget@@UAEHXZ 1003cfe4 f   mfc42d:MFC42D.DLL
 0001:0003bfea       ?GetEventSinkMap@CCmdTarget@@MBEPBUAFX_EVENTSINKMAP@@XZ 1003cfea f   mfc42d:MFC42D.DLL
 0001:0003bff0       ?GetInterfaceMap@CCmdTarget@@MBEPBUAFX_INTERFACEMAP@@XZ 1003cff0 f   mfc42d:MFC42D.DLL
 0001:0003bff6       ?GetConnectionMap@CCmdTarget@@MBEPBUAFX_CONNECTIONMAP@@XZ 1003cff6 f   mfc42d:MFC42D.DLL
 0001:0003bffc       ?GetDispatchMap@CCmdTarget@@MBEPBUAFX_DISPMAP@@XZ 1003cffc f   mfc42d:MFC42D.DLL
 0001:0003c002       ?GetCommandMap@CCmdTarget@@MBEPBUAFX_OLECMDMAP@@XZ 1003d002 f   mfc42d:MFC42D.DLL
 0001:0003c008       ?GetTypeLib@CCmdTarget@@UAEJKPAPAUITypeLib@@@Z 1003d008 f   mfc42d:MFC42D.DLL
 0001:0003c00e       ?GetTypeLibCache@CCmdTarget@@UAEPAVCTypeLibCache@@XZ 1003d00e f   mfc42d:MFC42D.DLL
 0001:0003c014       ?GetTypeInfoCount@CCmdTarget@@UAEIXZ 1003d014 f   mfc42d:MFC42D.DLL
 0001:0003c01a       ?GetDispatchIID@CCmdTarget@@UAEHPAU_GUID@@@Z 1003d01a f   mfc42d:MFC42D.DLL
 0001:0003c020       ?IsInvokeAllowed@CCmdTarget@@UAEHJ@Z 1003d020 f   mfc42d:MFC42D.DLL
 0001:0003c026       ?OnFinalRelease@CWnd@@UAEXXZ 1003d026 f   mfc42d:MFC42D.DLL
 0001:0003c02c       ?OnCmdMsg@CDialog@@UAEHIHPAXPAUAFX_CMDHANDLERINFO@@@Z 1003d02c f   mfc42d:MFC42D.DLL
 0001:0003c032       ?Dump@CDialog@@UBEXAAVCDumpContext@@@Z 1003d032 f   mfc42d:MFC42D.DLL
 0001:0003c038       ?AssertValid@CDialog@@UBEXXZ 1003d038 f   mfc42d:MFC42D.DLL
 0001:0003c03e       ?GetRuntimeClass@CDialog@@UBEPAUCRuntimeClass@@XZ 1003d03e f   mfc42d:MFC42D.DLL
 0001:0003c044       ??4CString@@QAEABV0@PBD@Z  1003d044 f   mfc42d:MFC42D.DLL
 0001:0003c04a       ?LoadBitmaps@CBitmapButton@@QAEHPBD000@Z 1003d04a f   mfc42d:MFC42D.DLL
 0001:0003c050       ??0CString@@QAE@XZ         1003d050 f   mfc42d:MFC42D.DLL
 0001:0003c056       ??0CBitmapButton@@QAE@XZ   1003d056 f   mfc42d:MFC42D.DLL
 0001:0003c05c       ??0CDialog@@QAE@IPAVCWnd@@@Z 1003d05c f   mfc42d:MFC42D.DLL
 0001:0003c062       ?DDX_Text@@YGXPAVCDataExchange@@HAAVCString@@@Z 1003d062 f   mfc42d:MFC42D.DLL
 0001:0003c068       ?DDX_CBString@@YGXPAVCDataExchange@@HAAVCString@@@Z 1003d068 f   mfc42d:MFC42D.DLL
 0001:0003c06e       ?DDX_Check@@YGXPAVCDataExchange@@HAAH@Z 1003d06e f   mfc42d:MFC42D.DLL
 0001:0003c074       ?DoDataExchange@CWnd@@MAEXPAVCDataExchange@@@Z 1003d074 f   mfc42d:MFC42D.DLL
 0001:0003c07a       ?UpdateData@CWnd@@QAEHH@Z  1003d07a f   mfc42d:MFC42D.DLL
 0001:0003c080       ?SetCurSel@CComboBox@@QAEHH@Z 1003d080 f   mfc42d:MFC42D.DLL
 0001:0003c086       ?EnableWindow@CWnd@@QAEHH@Z 1003d086 f   mfc42d:MFC42D.DLL
 0001:0003c08c       ?GetDlgItem@CWnd@@QBEPAV1@H@Z 1003d08c f   mfc42d:MFC42D.DLL
 0001:0003c092       ?IsEmpty@CObList@@QBEHXZ   1003d092 f   mfc42d:MFC42D.DLL
 0001:0003c098       ?AfxGetApp@@YGPAVCWinApp@@XZ 1003d098 f   mfc42d:MFC42D.DLL
 0001:0003c09e       ?SizeToContent@CBitmapButton@@QAEXXZ 1003d09e f   mfc42d:MFC42D.DLL
 0001:0003c0a4       ?SubclassDlgItem@CWnd@@QAEHIPAV1@@Z 1003d0a4 f   mfc42d:MFC42D.DLL
 0001:0003c0aa       ?OnInitDialog@CDialog@@UAEHXZ 1003d0aa f   mfc42d:MFC42D.DLL
 0001:0003c0b0       ?OnOK@CDialog@@MAEXXZ      1003d0b0 f   mfc42d:MFC42D.DLL
 0001:0003c0b6       ?OnCancel@CDialog@@MAEXXZ  1003d0b6 f   mfc42d:MFC42D.DLL
 0001:0003c0bc       ?AddString@CListBox@@QAEHPBD@Z 1003d0bc f   mfc42d:MFC42D.DLL
 0001:0003c0c2       ??BCString@@QBEPBDXZ       1003d0c2 f   mfc42d:MFC42D.DLL
 0001:0003c0c8       ?GetCount@CObList@@QBEHXZ  1003d0c8 f   mfc42d:MFC42D.DLL
 0001:0003c0ce       ?DeleteString@CComboBox@@QAEHI@Z 1003d0ce f   mfc42d:MFC42D.DLL
 0001:0003c0d4       ?FindStringExact@CComboBox@@QBEHHPBD@Z 1003d0d4 f   mfc42d:MFC42D.DLL
 0001:0003c0da       ??H@YG?AVCString@@ABV0@PBD@Z 1003d0da f   mfc42d:MFC42D.DLL
 0001:0003c0e0       ?AddString@CComboBox@@QAEHPBD@Z 1003d0e0 f   mfc42d:MFC42D.DLL
 0001:0003c0e6       ?ResetContent@CComboBox@@QAEXXZ 1003d0e6 f   mfc42d:MFC42D.DLL
 0001:0003c0ec       ??8@YG_NABVCString@@0@Z    1003d0ec f   mfc42d:MFC42D.DLL
 0001:0003c0f2       ?GetLBText@CComboBox@@QBEXHAAVCString@@@Z 1003d0f2 f   mfc42d:MFC42D.DLL
 0001:0003c0f8       ?GetCurSel@CComboBox@@QBEHXZ 1003d0f8 f   mfc42d:MFC42D.DLL
 0001:0003c0fe       ??8@YG_NABVCString@@PBD@Z  1003d0fe f   mfc42d:MFC42D.DLL
 0001:0003c104       ?Left@CString@@QBE?AV1@H@Z 1003d104 f   mfc42d:MFC42D.DLL
 0001:0003c10a       ?DDX_Text@@YGXPAVCDataExchange@@HAAH@Z 1003d10a f   mfc42d:MFC42D.DLL
 0001:0003c110       ?OnDestroy@CWnd@@IAEXXZ    1003d110 f   mfc42d:MFC42D.DLL
 0001:0003c116       ?DDV_MinMaxInt@@YGXPAVCDataExchange@@HHH@Z 1003d116 f   mfc42d:MFC42D.DLL
 0001:0003c11c       ?SetCurSel@CListBox@@QAEHH@Z 1003d11c f   mfc42d:MFC42D.DLL
 0001:0003c122       ?GetCurSel@CListBox@@QBEHXZ 1003d122 f   mfc42d:MFC42D.DLL
 0001:0003c128       ?GetAt@CObList@@QAEAAPAVCObject@@PAU__POSITION@@@Z 1003d128 f   mfc42d:MFC42D.DLL
 0001:0003c12e       ?FindIndex@CObList@@QBEPAU__POSITION@@H@Z 1003d12e f   mfc42d:MFC42D.DLL
 0001:0003c134       ??YCString@@QAEABV0@PBD@Z  1003d134 f   mfc42d:MFC42D.DLL
 0001:0003c13a       ??H@YG?AVCString@@ABV0@0@Z 1003d13a f   mfc42d:MFC42D.DLL
 0001:0003c140       ?AfxMessageBox@@YGHPBDII@Z 1003d140 f   mfc42d:MFC42D.DLL
 0001:0003c146       ?DeleteString@CListBox@@QAEHI@Z 1003d146 f   mfc42d:MFC42D.DLL
 0001:0003c14c       ?GetCount@CListBox@@QBEHXZ 1003d14c f   mfc42d:MFC42D.DLL
 0001:0003c152       ?DDV_MinMaxDouble@@YGXPAVCDataExchange@@ABNNN@Z 1003d152 f   mfc42d:MFC42D.DLL
 0001:0003c158       ?DDX_Text@@YGXPAVCDataExchange@@HAAN@Z 1003d158 f   mfc42d:MFC42D.DLL
 0001:0003c15e       ?SetFocus@CWnd@@QAEPAV1@XZ 1003d15e f   mfc42d:MFC42D.DLL
 0001:0003c164       ??2CObject@@SGPAXI@Z       1003d164 f   mfc42d:MFC42D.DLL
 0001:0003c16a       ?GetTail@CObList@@QAEAAPAVCObject@@XZ 1003d16a f   mfc42d:MFC42D.DLL
 0001:0003c170       ?GetHead@CObList@@QAEAAPAVCObject@@XZ 1003d170 f   mfc42d:MFC42D.DLL
 0001:0003c176       ?FindString@CListBox@@QBEHHPBD@Z 1003d176 f   mfc42d:MFC42D.DLL
 0001:0003c17c       ?GetText@CListBox@@QBEXHAAVCString@@@Z 1003d17c f   mfc42d:MFC42D.DLL
 0001:0003c182       ??8@YG_NPBDABVCString@@@Z  1003d182 f   mfc42d:MFC42D.DLL
 0001:0003c188       ?AddTail@CObList@@QAEXPAV1@@Z 1003d188 f   mfc42d:MFC42D.DLL
 0001:0003c18e       ??0CDialog@@QAE@XZ         1003d18e f   mfc42d:MFC42D.DLL
 0001:0003c194       ?SetWindowTextA@CWnd@@QAEXPBD@Z 1003d194 f   mfc42d:MFC42D.DLL
 0001:0003c19a       ?SetCheck@CButton@@QAEXH@Z 1003d19a f   mfc42d:MFC42D.DLL
 0001:0003c1a0       ?Create@CDialog@@QAEHIPAVCWnd@@@Z 1003d1a0 f   mfc42d:MFC42D.DLL
 0001:0003c1a6       ?AfxSetResourceHandle@@YGXPAUHINSTANCE__@@@Z 1003d1a6 f   mfc42d:MFC42D.DLL
 0001:0003c1ac       ?AfxGetResourceHandle@@YGPAUHINSTANCE__@@XZ 1003d1ac f   mfc42d:MFC42D.DLL
 0001:0003c1b2       ?AfxTrace@@YAXPBDZZ        1003d1b2 f   mfc42d:MFC42D.DLL
 0001:0003c1b8       ?LoadStringA@CString@@QAEHI@Z 1003d1b8 f   mfc42d:MFC42D.DLL
 0001:0003c1be       ?SendMessageA@CWnd@@QAEJIIJ@Z 1003d1be f   mfc42d:MFC42D.DLL
 0001:0003c1c4       ?CenterWindow@CWnd@@QAEXPAV1@@Z 1003d1c4 f   mfc42d:MFC42D.DLL
 0001:0003c1ca       ?AfxGetMainWnd@@YGPAVCWnd@@XZ 1003d1ca f   mfc42d:MFC42D.DLL
 0001:0003c1d0       ?GetRuntimeClass@CObject@@UBEPAUCRuntimeClass@@XZ 1003d1d0 f   mfc42d:MFC42D.DLL
 0001:0003c1d6       ?AfxAssertFailedLine@@YGHPBDH@Z 1003d1d6 f   mfc42d:MFC42D.DLL
 0001:0003c1dc       ?ReadCount@CArchive@@QAEKXZ 1003d1dc f   mfc42d:MFC42D.DLL
 0001:0003c1e2       ?AfxIsValidAddress@@YGHPBXIH@Z 1003d1e2 f   mfc42d:MFC42D.DLL
 0001:0003c1e8       ?WriteCount@CArchive@@QAEXK@Z 1003d1e8 f   mfc42d:MFC42D.DLL
 0001:0003c1ee       ?IsStoring@CArchive@@QBEHXZ 1003d1ee f   mfc42d:MFC42D.DLL
 0001:0003c1f4       ?AfxAssertValidObject@@YGXPBVCObject@@PBDH@Z 1003d1f4 f   mfc42d:MFC42D.DLL
 0001:0003c1fa       ?GetDepth@CDumpContext@@QBEHXZ 1003d1fa f   mfc42d:MFC42D.DLL
 0001:0003c200       ??6CDumpContext@@QAEAAV0@H@Z 1003d200 f   mfc42d:MFC42D.DLL
 0001:0003c206       ??6CDumpContext@@QAEAAV0@PBD@Z 1003d206 f   mfc42d:MFC42D.DLL
 0001:0003c20c       ?FreeDataChain@CPlex@@QAEXXZ 1003d20c f   mfc42d:MFC42D.DLL
 0001:0003c212       ?Read@CArchive@@QAEIPAXI@Z 1003d212 f   mfc42d:MFC42D.DLL
 0001:0003c218       ?Write@CArchive@@QAEXPBXI@Z 1003d218 f   mfc42d:MFC42D.DLL
 0001:0003c21e       ?Create@CPlex@@SGPAU1@AAPAU1@II@Z 1003d21e f   mfc42d:MFC42D.DLL
 0001:0003c224       ?GetBuffer@CString@@QAEPADH@Z 1003d224 f   mfc42d:MFC42D.DLL
 0001:0003c22a       ??2@YAPAXIPBDH@Z           1003d22a f   mfc42d:MFC42D.DLL
 0001:0003c230       ?AfxClassInit@@YGXPAUCRuntimeClass@@@Z 1003d230 f   mfc42d:MFC42D.DLL
 0001:0003c236       ?ReadObject@CArchive@@QAEPAVCObject@@PBUCRuntimeClass@@@Z 1003d236 f   mfc42d:MFC42D.DLL
 0001:0003c23c       ??0CObject@@IAE@XZ         1003d23c f   mfc42d:MFC42D.DLL
 0001:0003c242       ??3@YAXPAXPBDH@Z           1003d242 f   mfc42d:MFC42D.DLL
 0001:0003c248       ??3CObject@@SGXPAXPBDH@Z   1003d248 f   mfc42d:MFC42D.DLL
 0001:0003c24e       ??2CObject@@SGPAXIPBDH@Z   1003d24e f   mfc42d:MFC42D.DLL
 0001:0003c254       ?GetLength@CString@@QBEHXZ 1003d254 f   mfc42d:MFC42D.DLL
 0001:0003c25a       ?GetHeadPosition@CObList@@QBEPAU__POSITION@@XZ 1003d25a f   mfc42d:MFC42D.DLL
 0001:0003c260       ?RemoveAll@CObList@@QAEXXZ 1003d260 f   mfc42d:MFC42D.DLL
 0001:0003c266       ?ReleaseBuffer@CString@@QAEXH@Z 1003d266 f   mfc42d:MFC42D.DLL
 0001:0003c26c       ?AfxGetModuleState@@YGPAVAFX_MODULE_STATE@@XZ 1003d26c f   mfc42d:MFC42D.DLL
 0001:0003c272       ??0CDynLinkLibrary@@QAE@AAUAFX_EXTENSION_MODULE@@H@Z 1003d272 f   mfc42d:MFC42D.DLL
 0001:0003c278       ?AfxInitExtensionModule@@YGHAAUAFX_EXTENSION_MODULE@@PAUHINSTANCE__@@@Z 1003d278 f   mfc42d:MFC42D.DLL
 0001:0003c280       _sqrt                      1003d280 f   msvcrtd:MSVCRTD.dll
 0001:0003c290       ??_M@YGXPAXIHP6EX0@Z@Z     1003d290 f   msvcrtd:ehvecdtr.obj
 0001:0003c340       ?__ArrayUnwind@@YGXPAXIHP6EX0@Z@Z 1003d340 f   msvcrtd:ehvecdtr.obj
 0001:0003c3ec       ___CxxFrameHandler         1003d3ec f   msvcrtd:MSVCRTD.dll
 0001:0003c400       __onexit                   1003d400 f   msvcrtd:atonexit.obj
 0001:0003c440       _atexit                    1003d440 f   msvcrtd:atonexit.obj
 0001:0003c458       _sprintf                   1003d458 f   msvcrtd:MSVCRTD.dll
 0001:0003c460       ??_L@YGXPAXIHP6EX0@Z1@Z    1003d460 f   msvcrtd:ehvecctr.obj
 0001:0003c500       _fabs                      1003d500 f   msvcrtd:MSVCRTD.dll
 0001:0003c506       _acos                      1003d506 f   msvcrtd:MSVCRTD.dll
 0001:0003c50c       _memset                    1003d50c f   msvcrtd:MSVCRTD.dll
 0001:0003c512       __ftol                     1003d512 f   msvcrtd:MSVCRTD.dll
 0001:0003c518       _atan                      1003d518 f   msvcrtd:MSVCRTD.dll
 0001:0003c51e       _tan                       1003d51e f   msvcrtd:MSVCRTD.dll
 0001:0003c524       _sin                       1003d524 f   msvcrtd:MSVCRTD.dll
 0001:0003c530       __CRT_INIT@12              1003d530 f   msvcrtd:crtdll.obj
 0001:0003c640       __DllMainCRTStartup@12     1003d640 f   msvcrtd:crtdll.obj
 0001:0003c734       __except_handler3          1003d734 f   msvcrtd:MSVCRTD.dll
 0001:0003c73a       ?terminate@@YAXXZ          1003d73a f   msvcrtd:MSVCRTD.dll
 0001:0003c740       ___dllonexit               1003d740 f   msvcrtd:MSVCRTD.dll
 0001:0003c746       __free_dbg                 1003d746 f   msvcrtd:MSVCRTD.dll
 0001:0003c74c       __initterm                 1003d74c f   msvcrtd:MSVCRTD.dll
 0001:0003c752       __malloc_dbg               1003d752 f   msvcrtd:MSVCRTD.dll
 0001:0003c760       ?data@CPlex@@QAEPAXXZ      1003d760 f i Dlg_LMR.obj
 0002:00000000       __imp_?HeadToNewZLocMATRIX@CXForm@@UAEXPAUWORLD@@0PAUMATRIX@@W4XFMODE@@@Z 10040000     Dr3D_D32:Dr3D_D32.dll
 0002:00000004       __imp_?Avg3DPts@C3DMath@@QAEXPAUWORLD@@00@Z 10040004     Dr3D_D32:Dr3D_D32.dll
 0002:00000008       __imp_?Cross3DPts@C3DMath@@QAEXPAUWORLD@@00@Z 10040008     Dr3D_D32:Dr3D_D32.dll
 0002:0000000c       __imp_?TransposeMATRIX@C3DMath@@QAEXPAUMATRIX@@@Z 1004000c     Dr3D_D32:Dr3D_D32.dll
 0002:00000010       __imp_?Sub3DPts@C3DMath@@QAEXPAUWORLD@@00@Z 10040010     Dr3D_D32:Dr3D_D32.dll
 0002:00000014       __imp_?Normalize@C3DMath@@QAEXPAUWORLD@@0@Z 10040014     Dr3D_D32:Dr3D_D32.dll
 0002:00000018       __imp_??0CXForm@@QAE@H@Z   10040018     Dr3D_D32:Dr3D_D32.dll
 0002:0000001c       __imp_?F_MultMATRIX@C3DMath@@QAEXPAUMATRIX@@00@Z 1004001c     Dr3D_D32:Dr3D_D32.dll
 0002:00000020       __imp_??0CXForm@@QAE@XZ    10040020     Dr3D_D32:Dr3D_D32.dll
 0002:00000024       __imp_?GetIdentityMATRIX@C3DMath@@QAEXPAUMATRIX@@@Z 10040024     Dr3D_D32:Dr3D_D32.dll
 0002:00000028       __imp_?GetRuntimeClass@CXForm@@UBEPAUCRuntimeClass@@XZ 10040028     Dr3D_D32:Dr3D_D32.dll
 0002:0000002c       __imp_?Serialize@CXForm@@UAEXAAVCArchive@@@Z 1004002c     Dr3D_D32:Dr3D_D32.dll
 0002:00000030       __imp_?Reflect@CXForm@@UAEXPAUMATRIX@@UWORLD@@N@Z 10040030     Dr3D_D32:Dr3D_D32.dll
 0002:00000034       __imp_?Scale@CXForm@@UAEXPAUMATRIX@@NNNW4XFMODE@@@Z 10040034     Dr3D_D32:Dr3D_D32.dll
 0002:00000038       __imp_?AreSame_WORLD@C3DMath@@QAEHPAUWORLD@@0N@Z 10040038     Dr3D_D32:Dr3D_D32.dll
 0002:0000003c       __imp_?Solve_TriDiagPeriodic@C3DMath@@QAEHPAN00PAY03N1HH@Z 1004003c     Dr3D_D32:Dr3D_D32.dll
 0002:00000040       __imp_?Solve_TriDiag@C3DMath@@QAEHPAN00PAY03N1HH@Z 10040040     Dr3D_D32:Dr3D_D32.dll
 0002:00000044       __imp_?Scale3DPts@C3DMath@@QAEXNPAUWORLD@@@Z 10040044     Dr3D_D32:Dr3D_D32.dll
 0002:00000048       __imp_?Shear_X@CXForm@@UAEXPAUMATRIX@@NNW4XFMODE@@@Z 10040048     Dr3D_D32:Dr3D_D32.dll
 0002:0000004c       __imp_?Shear_Y@CXForm@@UAEXPAUMATRIX@@NNW4XFMODE@@@Z 1004004c     Dr3D_D32:Dr3D_D32.dll
 0002:00000050       __imp_?Shear_Z@CXForm@@UAEXPAUMATRIX@@NNW4XFMODE@@@Z 10040050     Dr3D_D32:Dr3D_D32.dll
 0002:00000054       __imp_?Rotate_X@CXForm@@UAEXPAUMATRIX@@NW4XFMODE@@@Z 10040054     Dr3D_D32:Dr3D_D32.dll
 0002:00000058       __imp_?Rotate_Y@CXForm@@UAEXPAUMATRIX@@NW4XFMODE@@@Z 10040058     Dr3D_D32:Dr3D_D32.dll
 0002:0000005c       __imp_?Rotate_Z@CXForm@@UAEXPAUMATRIX@@NW4XFMODE@@@Z 1004005c     Dr3D_D32:Dr3D_D32.dll
 0002:00000060       __imp_?Translate@CXForm@@UAEXPAUMATRIX@@NNNW4XFMODE@@@Z 10040060     Dr3D_D32:Dr3D_D32.dll
 0002:00000064       __imp_?RotateAboutLineMATRIX@CXForm@@UAEXPAUMATRIX@@PAUWORLD@@1NW4XFMODE@@@Z 10040064     Dr3D_D32:Dr3D_D32.dll
 0002:00000068       __imp_?Add3DPts@C3DMath@@QAEXPAUWORLD@@00@Z 10040068     Dr3D_D32:Dr3D_D32.dll
 0002:0000006c       __imp_?RotateToNewZMATRIX@CXForm@@UAEXPAUWORLD@@PAUMATRIX@@W4XFMODE@@@Z 1004006c     Dr3D_D32:Dr3D_D32.dll
 0002:00000070       __imp_?HeadToNewYLocMATRIX@CXForm@@UAEXPAUWORLD@@0PAUMATRIX@@W4XFMODE@@@Z 10040070     Dr3D_D32:Dr3D_D32.dll
 0002:00000074       __imp_?RotateToNewYMATRIX@CXForm@@UAEXPAUWORLD@@PAUMATRIX@@W4XFMODE@@@Z 10040074     Dr3D_D32:Dr3D_D32.dll
 0002:00000078       __imp_?HeadToNewXLocMATRIX@CXForm@@UAEXPAUWORLD@@0PAUMATRIX@@W4XFMODE@@@Z 10040078     Dr3D_D32:Dr3D_D32.dll
 0002:0000007c       __imp_?RotateToNewXMATRIX@CXForm@@UAEXPAUWORLD@@PAUMATRIX@@W4XFMODE@@@Z 1004007c     Dr3D_D32:Dr3D_D32.dll
 0002:00000080       __imp_?VRCtoWORLDRotationMATRIX@CXForm@@UAEXPAUMATRIX@@PAUWORLD@@1@Z 10040080     Dr3D_D32:Dr3D_D32.dll
 0002:00000084       __imp_?ComposeLocalMATRIX@CXForm@@UAEXPAUMATRIX@@NNNNNNNNNNNN@Z 10040084     Dr3D_D32:Dr3D_D32.dll
 0002:00000088       __imp_?ComposeViewMATRIX@CXForm@@UAENPAUMATRIX@@UWORLD@@1111NNNN@Z 10040088     Dr3D_D32:Dr3D_D32.dll
 0002:0000008c       __imp_?PerToParCVVMATRIX@CXForm@@UAEXPAUMATRIX@@N@Z 1004008c     Dr3D_D32:Dr3D_D32.dll
 0002:00000090       __imp_?ALT_ComposeViewMATRIX@CXForm@@UAEHPAUMATRIX@@UWORLD@@1111NNNN@Z 10040090     Dr3D_D32:Dr3D_D32.dll
 0002:00000094       __imp_?SetVOMATRIX@CXForm@@UAEXPAUMATRIX@@UWORLD@@11@Z 10040094     Dr3D_D32:Dr3D_D32.dll
 0002:00000098       __imp_?Par_SetVMMATRIX@CXForm@@UAEXPAUMATRIX@@UWORLD@@1NNNN@Z 10040098     Dr3D_D32:Dr3D_D32.dll
 0002:0000009c       __imp_?Per_SetVMMATRIX@CXForm@@UAENPAUMATRIX@@UWORLD@@1NNNN@Z 1004009c     Dr3D_D32:Dr3D_D32.dll
 0002:000000a0       __imp_?ComposeCombineMATRIX@CXForm@@UAEXPAUMATRIX@@00@Z 100400a0     Dr3D_D32:Dr3D_D32.dll
 0002:000000a4       __imp_?Transform@CXForm@@UAEXPAUWORLD@@0PAUMATRIX@@@Z 100400a4     Dr3D_D32:Dr3D_D32.dll
 0002:000000a8       __imp_?TransformPerToParCVV@CXForm@@UAEXNPAUWORLD@@0@Z 100400a8     Dr3D_D32:Dr3D_D32.dll
 0002:000000ac       __imp_?ComposeWin3DtoScreen3DMATRIX@CXForm@@UAEXPAUMATRIX@@UWORLD@@1@Z 100400ac     Dr3D_D32:Dr3D_D32.dll
 0002:000000b0       __imp_?Project@CXForm@@UAEXPAUMATRIX@@PAUWORLD@@1@Z 100400b0     Dr3D_D32:Dr3D_D32.dll
 0002:000000b4       __imp_??0C3DMath@@QAE@XZ   100400b4     Dr3D_D32:Dr3D_D32.dll
 0002:000000b8       __imp_?BlockCopy@C3DMath@@QAEXPAD0K@Z 100400b8     Dr3D_D32:Dr3D_D32.dll
 0002:000000bc       __imp_?GetRuntimeClass@C3DMath@@UBEPAUCRuntimeClass@@XZ 100400bc     Dr3D_D32:Dr3D_D32.dll
 0002:000000c0       __imp_?Serialize@C3DMath@@UAEXAAVCArchive@@@Z 100400c0     Dr3D_D32:Dr3D_D32.dll
 0002:000000c4       __imp_?Dot3DPts@C3DMath@@QAENPAUWORLD@@0@Z 100400c4     Dr3D_D32:Dr3D_D32.dll
 0002:000000c8       \177Dr3D_D32_NULL_THUNK_DATA 100400c8     Dr3D_D32:Dr3D_D32.dll
 0002:000000cc       __imp_?InitDraw@CDrLabel@@UAEXPAVCDC@@HHPAUMATRIX@@1NNN@Z 100400cc     Draw_D32:Draw_D32.dll
 0002:000000d0       __imp_?GetCorner@CDrLabel@@UAE?AUtagPOINT@@H@Z 100400d0     Draw_D32:Draw_D32.dll
 0002:000000d4       __imp_?GetObjectInfo@CDrLabel@@UAEXPAVCDrObject@@@Z 100400d4     Draw_D32:Draw_D32.dll
 0002:000000d8       __imp_?SetObjectInfo@CDrLabel@@UAEXPAVCDrObject@@@Z 100400d8     Draw_D32:Draw_D32.dll
 0002:000000dc       __imp_?Pack_drPipe@CDrLabel@@UAEXPAVCString@@@Z 100400dc     Draw_D32:Draw_D32.dll
 0002:000000e0       __imp_?IsKeyMatch@CDrLabel@@UAEHPAVCDrObject@@VCString@@I@Z 100400e0     Draw_D32:Draw_D32.dll
 0002:000000e4       __imp_?IsObjectHit@CDrLabel@@UAEHPAVCClientDC@@HUtagPOINT@@PAVCRect@@H@Z 100400e4     Draw_D32:Draw_D32.dll
 0002:000000e8       __imp_?GetRawCoords@CDrLabel@@UAEXPAJPAHH@Z 100400e8     Draw_D32:Draw_D32.dll
 0002:000000ec       __imp_?GetRuntimeClass@CDrLabel@@UBEPAUCRuntimeClass@@XZ 100400ec     Draw_D32:Draw_D32.dll
 0002:000000f0       __imp_?Serialize@CDrLabel@@UAEXAAVCArchive@@@Z 100400f0     Draw_D32:Draw_D32.dll
 0002:000000f4       __imp_?DoDataView@CDrLabel@@UAEXPAVCDC@@H@Z 100400f4     Draw_D32:Draw_D32.dll
 0002:000000f8       __imp_?SetCorner@CDrLabel@@UAEXUtagPOINT@@H@Z 100400f8     Draw_D32:Draw_D32.dll
 0002:000000fc       __imp_?Corner_3Dto2D@CDrLabel@@UAEXXZ 100400fc     Draw_D32:Draw_D32.dll
 0002:00000100       __imp_?DoDrawView@CDrLabel@@UAEXPAVCDC@@HH@Z 10040100     Draw_D32:Draw_D32.dll
 0002:00000104       __imp_?DealObjectDialog@CDrLabel@@UAEHXZ 10040104     Draw_D32:Draw_D32.dll
 0002:00000108       __imp_?FinishObject@CDrLabel@@UAEXPAVCClientDC@@H@Z 10040108     Draw_D32:Draw_D32.dll
 0002:0000010c       \177Draw_D32_NULL_THUNK_DATA 1004010c     Draw_D32:Draw_D32.dll
 0002:00000110       __imp_?ReadDefault@CElemInfo@@UAEXXZ 10040110     Elem_D32:Elem_D32.dll
 0002:00000114       __imp_?SetObjectInfo@CElemInfo@@UAEXPAVCDrObject@@@Z 10040114     Elem_D32:Elem_D32.dll
 0002:00000118       __imp_?GetObjectInfo@CElemInfo@@UAEXPAVCDrObject@@@Z 10040118     Elem_D32:Elem_D32.dll
 0002:0000011c       __imp_?Pack_drPipe@CElemInfo@@UAEXPAVCString@@@Z 1004011c     Elem_D32:Elem_D32.dll
 0002:00000120       __imp_?DoDataView@CElemInfo@@UAEXPAVCDC@@H@Z 10040120     Elem_D32:Elem_D32.dll
 0002:00000124       __imp_?Serialize@CElemInfo@@UAEXAAVCArchive@@@Z 10040124     Elem_D32:Elem_D32.dll
 0002:00000128       __imp_?Init@CElemInfo@@UAEXXZ 10040128     Elem_D32:Elem_D32.dll
 0002:0000012c       __imp_?GetRuntimeClass@CElemInfo@@UBEPAUCRuntimeClass@@XZ 1004012c     Elem_D32:Elem_D32.dll
 0002:00000130       \177Elem_D32_NULL_THUNK_DATA 10040130     Elem_D32:Elem_D32.dll
 0002:00000134       __imp_?GetAt@CObList@@QAEAAPAVCObject@@PAU__POSITION@@@Z 10040134     mfc42d:MFC42D.DLL
 0002:00000138       __imp_?GetCurSel@CListBox@@QBEHXZ 10040138     mfc42d:MFC42D.DLL
 0002:0000013c       __imp_?SetCurSel@CListBox@@QAEHH@Z 1004013c     mfc42d:MFC42D.DLL
 0002:00000140       __imp_?DDV_MinMaxInt@@YGXPAVCDataExchange@@HHH@Z 10040140     mfc42d:MFC42D.DLL
 0002:00000144       __imp_?OnDestroy@CWnd@@IAEXXZ 10040144     mfc42d:MFC42D.DLL
 0002:00000148       __imp_?DDX_Text@@YGXPAVCDataExchange@@HAAH@Z 10040148     mfc42d:MFC42D.DLL
 0002:0000014c       __imp_?Left@CString@@QBE?AV1@H@Z 1004014c     mfc42d:MFC42D.DLL
 0002:00000150       __imp_??8@YG_NABVCString@@PBD@Z 10040150     mfc42d:MFC42D.DLL
 0002:00000154       __imp_?GetCurSel@CComboBox@@QBEHXZ 10040154     mfc42d:MFC42D.DLL
 0002:00000158       __imp_?GetLBText@CComboBox@@QBEXHAAVCString@@@Z 10040158     mfc42d:MFC42D.DLL
 0002:0000015c       __imp_??8@YG_NABVCString@@0@Z 1004015c     mfc42d:MFC42D.DLL
 0002:00000160       __imp_?ResetContent@CComboBox@@QAEXXZ 10040160     mfc42d:MFC42D.DLL
 0002:00000164       __imp_?AddString@CComboBox@@QAEHPBD@Z 10040164     mfc42d:MFC42D.DLL
 0002:00000168       __imp_??H@YG?AVCString@@ABV0@PBD@Z 10040168     mfc42d:MFC42D.DLL
 0002:0000016c       __imp_?FindStringExact@CComboBox@@QBEHHPBD@Z 1004016c     mfc42d:MFC42D.DLL
 0002:00000170       __imp_?DeleteString@CComboBox@@QAEHI@Z 10040170     mfc42d:MFC42D.DLL
 0002:00000174       __imp_?GetCount@CObList@@QBEHXZ 10040174     mfc42d:MFC42D.DLL
 0002:00000178       __imp_??BCString@@QBEPBDXZ 10040178     mfc42d:MFC42D.DLL
 0002:0000017c       __imp_?AddString@CListBox@@QAEHPBD@Z 1004017c     mfc42d:MFC42D.DLL
 0002:00000180       __imp_?OnCancel@CDialog@@MAEXXZ 10040180     mfc42d:MFC42D.DLL
 0002:00000184       __imp_?OnOK@CDialog@@MAEXXZ 10040184     mfc42d:MFC42D.DLL
 0002:00000188       __imp_?OnInitDialog@CDialog@@UAEHXZ 10040188     mfc42d:MFC42D.DLL
 0002:0000018c       __imp_?SubclassDlgItem@CWnd@@QAEHIPAV1@@Z 1004018c     mfc42d:MFC42D.DLL
 0002:00000190       __imp_?SizeToContent@CBitmapButton@@QAEXXZ 10040190     mfc42d:MFC42D.DLL
 0002:00000194       __imp_?AfxGetApp@@YGPAVCWinApp@@XZ 10040194     mfc42d:MFC42D.DLL
 0002:00000198       __imp_?IsEmpty@CObList@@QBEHXZ 10040198     mfc42d:MFC42D.DLL
 0002:0000019c       __imp_?GetDlgItem@CWnd@@QBEPAV1@H@Z 1004019c     mfc42d:MFC42D.DLL
 0002:000001a0       __imp_?EnableWindow@CWnd@@QAEHH@Z 100401a0     mfc42d:MFC42D.DLL
 0002:000001a4       __imp_?SetCurSel@CComboBox@@QAEHH@Z 100401a4     mfc42d:MFC42D.DLL
 0002:000001a8       __imp_?UpdateData@CWnd@@QAEHH@Z 100401a8     mfc42d:MFC42D.DLL
 0002:000001ac       __imp_?messageMap@CDialog@@1UAFX_MSGMAP@@B 100401ac     mfc42d:MFC42D.DLL
 0002:000001b0       __imp_?DoDataExchange@CWnd@@MAEXPAVCDataExchange@@@Z 100401b0     mfc42d:MFC42D.DLL
 0002:000001b4       __imp_?DDX_Check@@YGXPAVCDataExchange@@HAAH@Z 100401b4     mfc42d:MFC42D.DLL
 0002:000001b8       __imp_?DDX_CBString@@YGXPAVCDataExchange@@HAAVCString@@@Z 100401b8     mfc42d:MFC42D.DLL
 0002:000001bc       __imp_?DDX_Text@@YGXPAVCDataExchange@@HAAVCString@@@Z 100401bc     mfc42d:MFC42D.DLL
 0002:000001c0       __imp_??0CDialog@@QAE@IPAVCWnd@@@Z 100401c0     mfc42d:MFC42D.DLL
 0002:000001c4       __imp_??0CBitmapButton@@QAE@XZ 100401c4     mfc42d:MFC42D.DLL
 0002:000001c8       __imp_??0CString@@QAE@XZ   100401c8     mfc42d:MFC42D.DLL
 0002:000001cc       __imp_?LoadBitmaps@CBitmapButton@@QAEHPBD000@Z 100401cc     mfc42d:MFC42D.DLL
 0002:000001d0       __imp_??4CString@@QAEABV0@PBD@Z 100401d0     mfc42d:MFC42D.DLL
 0002:000001d4       __imp_?FindIndex@CObList@@QBEPAU__POSITION@@H@Z 100401d4     mfc42d:MFC42D.DLL
 0002:000001d8       __imp_?AfxGetMainWnd@@YGPAVCWnd@@XZ 100401d8     mfc42d:MFC42D.DLL
 0002:000001dc       __imp_?Dump@CDialog@@UBEXAAVCDumpContext@@@Z 100401dc     mfc42d:MFC42D.DLL
 0002:000001e0       __imp_?OnCmdMsg@CDialog@@UAEHIHPAXPAUAFX_CMDHANDLERINFO@@@Z 100401e0     mfc42d:MFC42D.DLL
 0002:000001e4       __imp_?OnFinalRelease@CWnd@@UAEXXZ 100401e4     mfc42d:MFC42D.DLL
 0002:000001e8       __imp_?IsInvokeAllowed@CCmdTarget@@UAEHJ@Z 100401e8     mfc42d:MFC42D.DLL
 0002:000001ec       __imp_?GetDispatchIID@CCmdTarget@@UAEHPAU_GUID@@@Z 100401ec     mfc42d:MFC42D.DLL
 0002:000001f0       __imp_?GetTypeInfoCount@CCmdTarget@@UAEIXZ 100401f0     mfc42d:MFC42D.DLL
 0002:000001f4       __imp_?GetTypeLibCache@CCmdTarget@@UAEPAVCTypeLibCache@@XZ 100401f4     mfc42d:MFC42D.DLL
 0002:000001f8       __imp_?GetTypeLib@CCmdTarget@@UAEJKPAPAUITypeLib@@@Z 100401f8     mfc42d:MFC42D.DLL
 0002:000001fc       __imp_?GetCommandMap@CCmdTarget@@MBEPBUAFX_OLECMDMAP@@XZ 100401fc     mfc42d:MFC42D.DLL
 0002:00000200       __imp_?GetDispatchMap@CCmdTarget@@MBEPBUAFX_DISPMAP@@XZ 10040200     mfc42d:MFC42D.DLL
 0002:00000204       __imp_?GetConnectionMap@CCmdTarget@@MBEPBUAFX_CONNECTIONMAP@@XZ 10040204     mfc42d:MFC42D.DLL
 0002:00000208       __imp_?GetInterfaceMap@CCmdTarget@@MBEPBUAFX_INTERFACEMAP@@XZ 10040208     mfc42d:MFC42D.DLL
 0002:0000020c       __imp_?GetEventSinkMap@CCmdTarget@@MBEPBUAFX_EVENTSINKMAP@@XZ 1004020c     mfc42d:MFC42D.DLL
 0002:00000210       __imp_?OnCreateAggregates@CCmdTarget@@UAEHXZ 10040210     mfc42d:MFC42D.DLL
 0002:00000214       __imp_?GetInterfaceHook@CCmdTarget@@UAEPAUIUnknown@@PBX@Z 10040214     mfc42d:MFC42D.DLL
 0002:00000218       __imp_?GetExtraConnectionPoints@CCmdTarget@@MAEHPAVCPtrArray@@@Z 10040218     mfc42d:MFC42D.DLL
 0002:0000021c       __imp_?GetConnectionHook@CCmdTarget@@MAEPAUIConnectionPoint@@ABU_GUID@@@Z 1004021c     mfc42d:MFC42D.DLL
 0002:00000220       __imp_?PreSubclassWindow@CWnd@@UAEXXZ 10040220     mfc42d:MFC42D.DLL
 0002:00000224       __imp_?Create@CWnd@@UAEHPBD0KABUtagRECT@@PAV1@IPAUCCreateContext@@@Z 10040224     mfc42d:MFC42D.DLL
 0002:00000228       __imp_?DestroyWindow@CWnd@@UAEHXZ 10040228     mfc42d:MFC42D.DLL
 0002:0000022c       __imp_?PreCreateWindow@CWnd@@UAEHAAUtagCREATESTRUCTA@@@Z 1004022c     mfc42d:MFC42D.DLL
 0002:00000230       __imp_?CalcWindowRect@CWnd@@UAEXPAUtagRECT@@I@Z 10040230     mfc42d:MFC42D.DLL
 0002:00000234       __imp_?OnToolHitTest@CWnd@@UBEHVCPoint@@PAUtagTOOLINFOA@@@Z 10040234     mfc42d:MFC42D.DLL
 0002:00000238       __imp_?GetScrollBarCtrl@CWnd@@UBEPAVCScrollBar@@H@Z 10040238     mfc42d:MFC42D.DLL
 0002:0000023c       __imp_?WinHelpA@CWnd@@UAEXKI@Z 1004023c     mfc42d:MFC42D.DLL
 0002:00000240       __imp_?ContinueModal@CWnd@@UAEHXZ 10040240     mfc42d:MFC42D.DLL
 0002:00000244       __imp_?EndModalLoop@CWnd@@UAEXH@Z 10040244     mfc42d:MFC42D.DLL
 0002:00000248       __imp_?OnCommand@CWnd@@MAEHIJ@Z 10040248     mfc42d:MFC42D.DLL
 0002:0000024c       __imp_?OnNotify@CWnd@@MAEHIJPAJ@Z 1004024c     mfc42d:MFC42D.DLL
 0002:00000250       __imp_?GetSuperWndProcAddr@CWnd@@MAEPAP6GJPAUHWND__@@IIJ@ZXZ 10040250     mfc42d:MFC42D.DLL
 0002:00000254       __imp_?BeginModalState@CWnd@@UAEXXZ 10040254     mfc42d:MFC42D.DLL
 0002:00000258       __imp_?EndModalState@CWnd@@UAEXXZ 10040258     mfc42d:MFC42D.DLL
 0002:0000025c       __imp_?PreTranslateMessage@CDialog@@UAEHPAUtagMSG@@@Z 1004025c     mfc42d:MFC42D.DLL
 0002:00000260       __imp_?OnAmbientProperty@CWnd@@UAEHPAVCOleControlSite@@JPAUtagVARIANT@@@Z 10040260     mfc42d:MFC42D.DLL
 0002:00000264       __imp_?WindowProc@CWnd@@MAEJIIJ@Z 10040264     mfc42d:MFC42D.DLL
 0002:00000268       __imp_?OnWndMsg@CWnd@@MAEHIIJPAJ@Z 10040268     mfc42d:MFC42D.DLL
 0002:0000026c       __imp_?DefWindowProcA@CWnd@@MAEJIIJ@Z 1004026c     mfc42d:MFC42D.DLL
 0002:00000270       __imp_?PostNcDestroy@CWnd@@MAEXXZ 10040270     mfc42d:MFC42D.DLL
 0002:00000274       __imp_?OnChildNotify@CWnd@@MAEHIIJPAJ@Z 10040274     mfc42d:MFC42D.DLL
 0002:00000278       __imp_?CheckAutoCenter@CDialog@@UAEHXZ 10040278     mfc42d:MFC42D.DLL
 0002:0000027c       __imp_??YCString@@QAEABV0@PBD@Z 1004027c     mfc42d:MFC42D.DLL
 0002:00000280       __imp_??H@YG?AVCString@@ABV0@0@Z 10040280     mfc42d:MFC42D.DLL
 0002:00000284       __imp_?AfxMessageBox@@YGHPBDII@Z 10040284     mfc42d:MFC42D.DLL
 0002:00000288       __imp_?DeleteString@CListBox@@QAEHI@Z 10040288     mfc42d:MFC42D.DLL
 0002:0000028c       __imp_?GetCount@CListBox@@QBEHXZ 1004028c     mfc42d:MFC42D.DLL
 0002:00000290       __imp_?DDV_MinMaxDouble@@YGXPAVCDataExchange@@ABNNN@Z 10040290     mfc42d:MFC42D.DLL
 0002:00000294       __imp_?DDX_Text@@YGXPAVCDataExchange@@HAAN@Z 10040294     mfc42d:MFC42D.DLL
 0002:00000298       __imp_?SetFocus@CWnd@@QAEPAV1@XZ 10040298     mfc42d:MFC42D.DLL
 0002:0000029c       __imp_??2CObject@@SGPAXI@Z 1004029c     mfc42d:MFC42D.DLL
 0002:000002a0       __imp_?GetTail@CObList@@QAEAAPAVCObject@@XZ 100402a0     mfc42d:MFC42D.DLL
 0002:000002a4       __imp_?GetHead@CObList@@QAEAAPAVCObject@@XZ 100402a4     mfc42d:MFC42D.DLL
 0002:000002a8       __imp_?FindString@CListBox@@QBEHHPBD@Z 100402a8     mfc42d:MFC42D.DLL
 0002:000002ac       __imp_?GetText@CListBox@@QBEXHAAVCString@@@Z 100402ac     mfc42d:MFC42D.DLL
 0002:000002b0       __imp_??8@YG_NPBDABVCString@@@Z 100402b0     mfc42d:MFC42D.DLL
 0002:000002b4       __imp_?AddTail@CObList@@QAEXPAV1@@Z 100402b4     mfc42d:MFC42D.DLL
 0002:000002b8       __imp_??0CDialog@@QAE@XZ   100402b8     mfc42d:MFC42D.DLL
 0002:000002bc       __imp_?SetWindowTextA@CWnd@@QAEXPBD@Z 100402bc     mfc42d:MFC42D.DLL
 0002:000002c0       __imp_?SetCheck@CButton@@QAEXH@Z 100402c0     mfc42d:MFC42D.DLL
 0002:000002c4       __imp_?Create@CDialog@@QAEHIPAVCWnd@@@Z 100402c4     mfc42d:MFC42D.DLL
 0002:000002c8       __imp_?AfxSetResourceHandle@@YGXPAUHINSTANCE__@@@Z 100402c8     mfc42d:MFC42D.DLL
 0002:000002cc       __imp_?AfxGetResourceHandle@@YGPAUHINSTANCE__@@XZ 100402cc     mfc42d:MFC42D.DLL
 0002:000002d0       __imp_?AfxTrace@@YAXPBDZZ  100402d0     mfc42d:MFC42D.DLL
 0002:000002d4       __imp_?LoadStringA@CString@@QAEHI@Z 100402d4     mfc42d:MFC42D.DLL
 0002:000002d8       __imp_?SendMessageA@CWnd@@QAEJIIJ@Z 100402d8     mfc42d:MFC42D.DLL
 0002:000002dc       __imp_?GetRuntimeClass@CDialog@@UBEPAUCRuntimeClass@@XZ 100402dc     mfc42d:MFC42D.DLL
 0002:000002e0       __imp_?CenterWindow@CWnd@@QAEXPAV1@@Z 100402e0     mfc42d:MFC42D.DLL
 0002:000002e4       __imp_?IsFrameWnd@CWnd@@UBEHXZ 100402e4     mfc42d:MFC42D.DLL
 0002:000002e8       __imp_?SetOccDialogInfo@CDialog@@MAEHPAU_AFX_OCC_DIALOG_INFO@@@Z 100402e8     mfc42d:MFC42D.DLL
 0002:000002ec       __imp_?DoModal@CDialog@@UAEHXZ 100402ec     mfc42d:MFC42D.DLL
 0002:000002f0       __imp_?OnSetFont@CDialog@@UAEXPAVCFont@@@Z 100402f0     mfc42d:MFC42D.DLL
 0002:000002f4       __imp_?PreInitDialog@CDialog@@MAEXXZ 100402f4     mfc42d:MFC42D.DLL
 0002:000002f8       __imp_??0CString@@QAE@PBD@Z 100402f8     mfc42d:MFC42D.DLL
 0002:000002fc       __imp_?GetRuntimeClass@CObject@@UBEPAUCRuntimeClass@@XZ 100402fc     mfc42d:MFC42D.DLL
 0002:00000300       __imp_?AfxAssertFailedLine@@YGHPBDH@Z 10040300     mfc42d:MFC42D.DLL
 0002:00000304       __imp_?ReadCount@CArchive@@QAEKXZ 10040304     mfc42d:MFC42D.DLL
 0002:00000308       __imp_?AfxIsValidAddress@@YGHPBXIH@Z 10040308     mfc42d:MFC42D.DLL
 0002:0000030c       __imp_?WriteCount@CArchive@@QAEXK@Z 1004030c     mfc42d:MFC42D.DLL
 0002:00000310       __imp_?IsStoring@CArchive@@QBEHXZ 10040310     mfc42d:MFC42D.DLL
 0002:00000314       __imp_?AfxAssertValidObject@@YGXPBVCObject@@PBDH@Z 10040314     mfc42d:MFC42D.DLL
 0002:00000318       __imp_?GetDepth@CDumpContext@@QBEHXZ 10040318     mfc42d:MFC42D.DLL
 0002:0000031c       __imp_??6CDumpContext@@QAEAAV0@H@Z 1004031c     mfc42d:MFC42D.DLL
 0002:00000320       __imp_??6CDumpContext@@QAEAAV0@PBD@Z 10040320     mfc42d:MFC42D.DLL
 0002:00000324       __imp_?FreeDataChain@CPlex@@QAEXXZ 10040324     mfc42d:MFC42D.DLL
 0002:00000328       __imp_?Read@CArchive@@QAEIPAXI@Z 10040328     mfc42d:MFC42D.DLL
 0002:0000032c       __imp_?Write@CArchive@@QAEXPBXI@Z 1004032c     mfc42d:MFC42D.DLL
 0002:00000330       __imp_?Create@CPlex@@SGPAU1@AAPAU1@II@Z 10040330     mfc42d:MFC42D.DLL
 0002:00000334       __imp_?GetBuffer@CString@@QAEPADH@Z 10040334     mfc42d:MFC42D.DLL
 0002:00000338       __imp_??2@YAPAXIPBDH@Z     10040338     mfc42d:MFC42D.DLL
 0002:0000033c       __imp_?AfxClassInit@@YGXPAUCRuntimeClass@@@Z 1004033c     mfc42d:MFC42D.DLL
 0002:00000340       __imp_?ReadObject@CArchive@@QAEPAVCObject@@PBUCRuntimeClass@@@Z 10040340     mfc42d:MFC42D.DLL
 0002:00000344       __imp_?classCObject@CObject@@2UCRuntimeClass@@B 10040344     mfc42d:MFC42D.DLL
 0002:00000348       __imp_??0CObject@@IAE@XZ   10040348     mfc42d:MFC42D.DLL
 0002:0000034c       __imp_??3@YAXPAXPBDH@Z     1004034c     mfc42d:MFC42D.DLL
 0002:00000350       __imp_??3CObject@@SGXPAXPBDH@Z 10040350     mfc42d:MFC42D.DLL
 0002:00000354       __imp_??2CObject@@SGPAXIPBDH@Z 10040354     mfc42d:MFC42D.DLL
 0002:00000358       __imp_?GetLength@CString@@QBEHXZ 10040358     mfc42d:MFC42D.DLL
 0002:0000035c       __imp_?GetHeadPosition@CObList@@QBEPAU__POSITION@@XZ 1004035c     mfc42d:MFC42D.DLL
 0002:00000360       __imp_?RemoveAll@CObList@@QAEXXZ 10040360     mfc42d:MFC42D.DLL
 0002:00000364       __imp_?ReleaseBuffer@CString@@QAEXH@Z 10040364     mfc42d:MFC42D.DLL
 0002:00000368       __imp_?AfxGetModuleState@@YGPAVAFX_MODULE_STATE@@XZ 10040368     mfc42d:MFC42D.DLL
 0002:0000036c       __imp_??0CDynLinkLibrary@@QAE@AAUAFX_EXTENSION_MODULE@@H@Z 1004036c     mfc42d:MFC42D.DLL
 0002:00000370       __imp_?AfxInitExtensionModule@@YGHAAUAFX_EXTENSION_MODULE@@PAUHINSTANCE__@@@Z 10040370     mfc42d:MFC42D.DLL
 0002:00000374       __imp_?Dump@CObject@@UBEXAAVCDumpContext@@@Z 10040374     mfc42d:MFC42D.DLL
 0002:00000378       __imp_?AssertValid@CObject@@UBEXXZ 10040378     mfc42d:MFC42D.DLL
 0002:0000037c       __imp_??1CObject@@UAE@XZ   1004037c     mfc42d:MFC42D.DLL
 0002:00000380       __imp_??3CObject@@SGXPAX@Z 10040380     mfc42d:MFC42D.DLL
 0002:00000384       __imp_??3@YAXPAX@Z         10040384     mfc42d:MFC42D.DLL
 0002:00000388       __imp_??0CString@@QAE@ABV0@@Z 10040388     mfc42d:MFC42D.DLL
 0002:0000038c       __imp_??1CString@@QAE@XZ   1004038c     mfc42d:MFC42D.DLL
 0002:00000390       __imp_??4CString@@QAEABV0@ABV0@@Z 10040390     mfc42d:MFC42D.DLL
 0002:00000394       __imp_?Serialize@CObject@@UAEXAAVCArchive@@@Z 10040394     mfc42d:MFC42D.DLL
 0002:00000398       __imp_??1CPen@@UAE@XZ      10040398     mfc42d:MFC42D.DLL
 0002:0000039c       __imp_??2@YAPAXI@Z         1004039c     mfc42d:MFC42D.DLL
 0002:000003a0       __imp_??1CDialog@@UAE@XZ   100403a0     mfc42d:MFC42D.DLL
 0002:000003a4       __imp_??1CButton@@UAE@XZ   100403a4     mfc42d:MFC42D.DLL
 0002:000003a8       __imp_?AssertValid@CDialog@@UBEXXZ 100403a8     mfc42d:MFC42D.DLL
 0002:000003ac       __imp_??1CBitmap@@UAE@XZ   100403ac     mfc42d:MFC42D.DLL
 0002:000003b0       \177MFC42D_NULL_THUNK_DATA 100403b0     mfc42d:MFC42D.DLL
 0002:000003b4       __imp_?Serialize@CMI_GangN@@UAEXAAVCArchive@@@Z 100403b4     MNod_D32:MNod_D32.dll
 0002:000003b8       __imp_??0CMI_GangN@@QAE@XZ 100403b8     MNod_D32:MNod_D32.dll
 0002:000003bc       __imp_??1CMI_GangN@@UAE@XZ 100403bc     MNod_D32:MNod_D32.dll
 0002:000003c0       __imp_?CreateNode@CMI_GangN@@QAEPAVCDrNode@@AAVCString@@PAVCDrLabel@@UWORLD@@HHAAH3I@Z 100403c0     MNod_D32:MNod_D32.dll
 0002:000003c4       __imp_?PostNode@CMI_GangN@@QAEPAVCDrNode@@AAVCString@@IUWORLD@@H@Z 100403c4     MNod_D32:MNod_D32.dll
 0002:000003c8       \177MNod_D32_NULL_THUNK_DATA 100403c8     MNod_D32:MNod_D32.dll
 0002:000003cc       __imp__sprintf             100403cc     msvcrtd:MSVCRTD.dll
 0002:000003d0       __imp____CxxFrameHandler   100403d0     msvcrtd:MSVCRTD.dll
 0002:000003d4       __imp__sqrt                100403d4     msvcrtd:MSVCRTD.dll
 0002:000003d8       __imp__fabs                100403d8     msvcrtd:MSVCRTD.dll
 0002:000003dc       __imp__acos                100403dc     msvcrtd:MSVCRTD.dll
 0002:000003e0       __imp__memset              100403e0     msvcrtd:MSVCRTD.dll
 0002:000003e4       __imp___ftol               100403e4     msvcrtd:MSVCRTD.dll
 0002:000003e8       __imp__atan                100403e8     msvcrtd:MSVCRTD.dll
 0002:000003ec       __imp__tan                 100403ec     msvcrtd:MSVCRTD.dll
 0002:000003f0       __imp__sin                 100403f0     msvcrtd:MSVCRTD.dll
 0002:000003f4       __imp___except_handler3    100403f4     msvcrtd:MSVCRTD.dll
 0002:000003f8       __imp_?terminate@@YAXXZ    100403f8     msvcrtd:MSVCRTD.dll
 0002:000003fc       __imp____dllonexit         100403fc     msvcrtd:MSVCRTD.dll
 0002:00000400       __imp___onexit             10040400     msvcrtd:MSVCRTD.dll
 0002:00000404       __imp___free_dbg           10040404     msvcrtd:MSVCRTD.dll
 0002:00000408       __imp___initterm           10040408     msvcrtd:MSVCRTD.dll
 0002:0000040c       __imp___malloc_dbg         1004040c     msvcrtd:MSVCRTD.dll
 0002:00000410       __imp___adjust_fdiv        10040410     msvcrtd:MSVCRTD.dll
 0002:00000414       \177MSVCRTD_NULL_THUNK_DATA 10040414     msvcrtd:MSVCRTD.dll
 0002:00000418       __imp_?GenerateTangent@CDrCurve@@QAEHPAUWORLD@@@Z 10040418     OGen_D32:OGEN_D32.dll
 0002:0000041c       __imp_?RefillCNLocalPosForPosting@CDrCurve@@QAEXXZ 1004041c     OGen_D32:OGEN_D32.dll
 0002:00000420       __imp_?GenerateCurve@CDrCurve@@QAEHPAUWORLD@@PAN@Z 10040420     OGen_D32:OGEN_D32.dll
 0002:00000424       __imp_?NumberOfCurves@CDrCurve@@QAEHW4CURVEPROC@@HPAHHH@Z 10040424     OGen_D32:OGEN_D32.dll
 0002:00000428       __imp_?GetRuntimeClass@CTriangle@@UBEPAUCRuntimeClass@@XZ 10040428     OGen_D32:OGEN_D32.dll
 0002:0000042c       \177OGEN_D32_NULL_THUNK_DATA 1004042c     OGen_D32:OGEN_D32.dll
 0002:00000430       __imp_?GetSpecObject@CObjectMgr@@QAEPAVCDrObject@@H@Z 10040430     OMgr_D32:OMgr_D32.dll
 0002:00000434       __imp_?UpdateAllViewsWithActiveIndex@CObjectMgr@@QAEXPAVCView@@IH@Z 10040434     OMgr_D32:OMgr_D32.dll
 0002:00000438       __imp_?SetObjInfoID@CObjectMgr@@QAEHAAVCString@@I@Z 10040438     OMgr_D32:OMgr_D32.dll
 0002:0000043c       __imp_?SetNodeInfoID@CObjectMgr@@QAEHAAVCString@@HI@Z 1004043c     OMgr_D32:OMgr_D32.dll
 0002:00000440       __imp_?GetObjectIndexfromKey@CObjectMgr@@QAEHHVCString@@I@Z 10040440     OMgr_D32:OMgr_D32.dll
 0002:00000444       \177OMgr_D32_NULL_THUNK_DATA 10040444     OMgr_D32:OMgr_D32.dll
 0002:00000448       __imp_?DeleteObject@CDListMgr@@QAEHH@Z 10040448     Spec_d32:Spec_D32.dll
 0002:0000044c       __imp_?GetSpecificObjectCount@CDListMgr@@QAEHH@Z 1004044c     Spec_d32:Spec_D32.dll
 0002:00000450       __imp_??0CDListMgr@@QAE@XZ 10040450     Spec_d32:Spec_D32.dll
 0002:00000454       __imp_??0CMatObj@@QAE@XZ   10040454     Spec_d32:Spec_D32.dll
 0002:00000458       __imp_?GetFirstObjectPos@CDListMgr@@QAEPAU__POSITION@@XZ 10040458     Spec_d32:Spec_D32.dll
 0002:0000045c       __imp_?GetNextObject@CDListMgr@@QAEPAVCObject@@AAPAU__POSITION@@@Z 1004045c     Spec_d32:Spec_D32.dll
 0002:00000460       __imp_??1CDListMgr@@UAE@XZ 10040460     Spec_d32:Spec_D32.dll
 0002:00000464       __imp_?GetRuntimeClass@CUnit@@UBEPAUCRuntimeClass@@XZ 10040464     Spec_d32:Spec_D32.dll
 0002:00000468       __imp_?Serialize@CUnit@@UAEXAAVCArchive@@@Z 10040468     Spec_d32:Spec_D32.dll
 0002:0000046c       __imp_?DoDataView@CUnit@@UAEXPAVCDC@@H@Z 1004046c     Spec_d32:Spec_D32.dll
 0002:00000470       __imp_?Pack_drPipe@CUnit@@UAEXPAVCString@@@Z 10040470     Spec_d32:Spec_D32.dll
 0002:00000474       __imp_?GetObjectInfo@CUnit@@UAEXPAVCDrObject@@@Z 10040474     Spec_d32:Spec_D32.dll
 0002:00000478       __imp_?SetObjectInfo@CUnit@@UAEXPAVCDrObject@@@Z 10040478     Spec_d32:Spec_D32.dll
 0002:0000047c       __imp_?ReadDefaultUnit@CUnit@@UAEXXZ 1004047c     Spec_d32:Spec_D32.dll
 0002:00000480       __imp_?InitUnit@CUnit@@UAEXXZ 10040480     Spec_d32:Spec_D32.dll
 0002:00000484       __imp_?GetRuntimeClass@CScaleFactor@@UBEPAUCRuntimeClass@@XZ 10040484     Spec_d32:Spec_D32.dll
 0002:00000488       __imp_?Serialize@CScaleFactor@@UAEXAAVCArchive@@@Z 10040488     Spec_d32:Spec_D32.dll
 0002:0000048c       __imp_?DoDataView@CScaleFactor@@UAEXPAVCDC@@H@Z 1004048c     Spec_d32:Spec_D32.dll
 0002:00000490       __imp_?Pack_drPipe@CScaleFactor@@UAEXPAVCString@@@Z 10040490     Spec_d32:Spec_D32.dll
 0002:00000494       __imp_?GetObjectInfo@CScaleFactor@@UAEXPAVCDrObject@@@Z 10040494     Spec_d32:Spec_D32.dll
 0002:00000498       __imp_?SetObjectInfo@CScaleFactor@@UAEXPAVCDrObject@@@Z 10040498     Spec_d32:Spec_D32.dll
 0002:0000049c       __imp_?ReadDefaultScaleFactor@CScaleFactor@@UAEXXZ 1004049c     Spec_d32:Spec_D32.dll
 0002:000004a0       __imp_?InitScaleFactor@CScaleFactor@@UAEXXZ 100404a0     Spec_d32:Spec_D32.dll
 0002:000004a4       __imp_?GetRuntimeClass@CPrecision@@UBEPAUCRuntimeClass@@XZ 100404a4     Spec_d32:Spec_D32.dll
 0002:000004a8       __imp_?Serialize@CPrecision@@UAEXAAVCArchive@@@Z 100404a8     Spec_d32:Spec_D32.dll
 0002:000004ac       __imp_?DoDataView@CPrecision@@UAEXPAVCDC@@H@Z 100404ac     Spec_d32:Spec_D32.dll
 0002:000004b0       __imp_?Pack_drPipe@CPrecision@@UAEXPAVCString@@@Z 100404b0     Spec_d32:Spec_D32.dll
 0002:000004b4       __imp_?GetObjectInfo@CPrecision@@UAEXPAVCDrObject@@@Z 100404b4     Spec_d32:Spec_D32.dll
 0002:000004b8       __imp_?SetObjectInfo@CPrecision@@UAEXPAVCDrObject@@@Z 100404b8     Spec_d32:Spec_D32.dll
 0002:000004bc       __imp_?ReadDefaultPrecision@CPrecision@@UAEXXZ 100404bc     Spec_d32:Spec_D32.dll
 0002:000004c0       __imp_?InitPrecision@CPrecision@@UAEXXZ 100404c0     Spec_d32:Spec_D32.dll
 0002:000004c4       __imp_?GetRuntimeClass@CMapFactor@@UBEPAUCRuntimeClass@@XZ 100404c4     Spec_d32:Spec_D32.dll
 0002:000004c8       __imp_?Serialize@CMapFactor@@UAEXAAVCArchive@@@Z 100404c8     Spec_d32:Spec_D32.dll
 0002:000004cc       __imp_?DoDataView@CMapFactor@@UAEXPAVCDC@@H@Z 100404cc     Spec_d32:Spec_D32.dll
 0002:000004d0       __imp_?Pack_drPipe@CMapFactor@@UAEXPAVCString@@@Z 100404d0     Spec_d32:Spec_D32.dll
 0002:000004d4       __imp_?GetObjectInfo@CMapFactor@@UAEXPAVCDrObject@@@Z 100404d4     Spec_d32:Spec_D32.dll
 0002:000004d8       __imp_?SetObjectInfo@CMapFactor@@UAEXPAVCDrObject@@@Z 100404d8     Spec_d32:Spec_D32.dll
 0002:000004dc       __imp_?ReadDefaultMapFactor@CMapFactor@@UAEXXZ 100404dc     Spec_d32:Spec_D32.dll
 0002:000004e0       __imp_?InitMapFactor@CMapFactor@@UAEXXZ 100404e0     Spec_d32:Spec_D32.dll
 0002:000004e4       __imp_?GetRuntimeClass@CObj3DMnu@@UBEPAUCRuntimeClass@@XZ 100404e4     Spec_d32:Spec_D32.dll
 0002:000004e8       __imp_?Serialize@CObj3DMnu@@UAEXAAVCArchive@@@Z 100404e8     Spec_d32:Spec_D32.dll
 0002:000004ec       __imp_?DoDataView@CObj3DMnu@@UAEXPAVCDC@@H@Z 100404ec     Spec_d32:Spec_D32.dll
 0002:000004f0       __imp_?Pack_drPipe@CObj3DMnu@@UAEXPAVCString@@@Z 100404f0     Spec_d32:Spec_D32.dll
 0002:000004f4       __imp_?GetObjectInfo@CObj3DMnu@@UAEXPAVCDrObject@@@Z 100404f4     Spec_d32:Spec_D32.dll
 0002:000004f8       __imp_?SetObjectInfo@CObj3DMnu@@UAEXPAVCDrObject@@@Z 100404f8     Spec_d32:Spec_D32.dll
 0002:000004fc       __imp_?GetObj3DMnuInfo@CObj3DMnu@@UAE?AVCString@@I@Z 100404fc     Spec_d32:Spec_D32.dll
 0002:00000500       __imp_?SetObj3DMnuInfo@CObj3DMnu@@UAEXII@Z 10040500     Spec_d32:Spec_D32.dll
 0002:00000504       __imp_?GetObj3DMnuIDArray@CObj3DMnu@@UAEXQAVCString@@@Z 10040504     Spec_d32:Spec_D32.dll
 0002:00000508       __imp_?SetObj3DMnuIDArray@CObj3DMnu@@UAEXQAVCString@@@Z 10040508     Spec_d32:Spec_D32.dll
 0002:0000050c       __imp_?GetObj3DMnuArray@CObj3DMnu@@UAEXQAY01I@Z 1004050c     Spec_d32:Spec_D32.dll
 0002:00000510       __imp_?SetObj3DMnuArray@CObj3DMnu@@UAEXQAY01I@Z 10040510     Spec_d32:Spec_D32.dll
 0002:00000514       __imp_?GetObj3DMnuOldArray@CObj3DMnu@@UAEXQAY01I@Z 10040514     Spec_d32:Spec_D32.dll
 0002:00000518       __imp_?SetObj3DMnuOldArray@CObj3DMnu@@UAEXQAY01I@Z 10040518     Spec_d32:Spec_D32.dll
 0002:0000051c       __imp_?GetObj3DMnuDefaultArray@CObj3DMnu@@UAEXQAY01I@Z 1004051c     Spec_d32:Spec_D32.dll
 0002:00000520       __imp_?SetObj3DMnuDefaultArray@CObj3DMnu@@UAEXQAY01I@Z 10040520     Spec_d32:Spec_D32.dll
 0002:00000524       __imp_?ReadDefaultObj3DMnu@CObj3DMnu@@UAEXXZ 10040524     Spec_d32:Spec_D32.dll
 0002:00000528       __imp_?InitObj3DMnu@CObj3DMnu@@UAEXXZ 10040528     Spec_d32:Spec_D32.dll
 0002:0000052c       __imp_?GetRuntimeClass@CPatchMnu@@UBEPAUCRuntimeClass@@XZ 1004052c     Spec_d32:Spec_D32.dll
 0002:00000530       __imp_?Serialize@CPatchMnu@@UAEXAAVCArchive@@@Z 10040530     Spec_d32:Spec_D32.dll
 0002:00000534       __imp_?DoDataView@CPatchMnu@@UAEXPAVCDC@@H@Z 10040534     Spec_d32:Spec_D32.dll
 0002:00000538       __imp_?Pack_drPipe@CPatchMnu@@UAEXPAVCString@@@Z 10040538     Spec_d32:Spec_D32.dll
 0002:0000053c       __imp_?GetObjectInfo@CPatchMnu@@UAEXPAVCDrObject@@@Z 1004053c     Spec_d32:Spec_D32.dll
 0002:00000540       __imp_?SetObjectInfo@CPatchMnu@@UAEXPAVCDrObject@@@Z 10040540     Spec_d32:Spec_D32.dll
 0002:00000544       __imp_?GetPatchMnuInfo@CPatchMnu@@UAE?AVCString@@I@Z 10040544     Spec_d32:Spec_D32.dll
 0002:00000548       __imp_?SetPatchMnuInfo@CPatchMnu@@UAEXII@Z 10040548     Spec_d32:Spec_D32.dll
 0002:0000054c       __imp_?GetPatchMnuIDArray@CPatchMnu@@UAEXQAVCString@@@Z 1004054c     Spec_d32:Spec_D32.dll
 0002:00000550       __imp_?SetPatchMnuIDArray@CPatchMnu@@UAEXQAVCString@@@Z 10040550     Spec_d32:Spec_D32.dll
 0002:00000554       __imp_?GetPatchMnuArray@CPatchMnu@@UAEXQAY01I@Z 10040554     Spec_d32:Spec_D32.dll
 0002:00000558       __imp_?SetPatchMnuArray@CPatchMnu@@UAEXQAY01I@Z 10040558     Spec_d32:Spec_D32.dll
 0002:0000055c       __imp_?GetPatchMnuOldArray@CPatchMnu@@UAEXQAY01I@Z 1004055c     Spec_d32:Spec_D32.dll
 0002:00000560       __imp_?InsertObject@CDListMgr@@QAEHPAVCObject@@@Z 10040560     Spec_d32:Spec_D32.dll
 0002:00000564       __imp_?GetPatchMnuDefaultArray@CPatchMnu@@UAEXQAY01I@Z 10040564     Spec_d32:Spec_D32.dll
 0002:00000568       __imp_?SetPatchMnuDefaultArray@CPatchMnu@@UAEXQAY01I@Z 10040568     Spec_d32:Spec_D32.dll
 0002:0000056c       __imp_?ReadDefaultPatchMnu@CPatchMnu@@UAEXXZ 1004056c     Spec_d32:Spec_D32.dll
 0002:00000570       __imp_?InitPatchMnu@CPatchMnu@@UAEXXZ 10040570     Spec_d32:Spec_D32.dll
 0002:00000574       __imp_?GetRuntimeClass@CLayer@@UBEPAUCRuntimeClass@@XZ 10040574     Spec_d32:Spec_D32.dll
 0002:00000578       __imp_?Serialize@CLayer@@UAEXAAVCArchive@@@Z 10040578     Spec_d32:Spec_D32.dll
 0002:0000057c       __imp_?DoDataView@CLayer@@UAEXPAVCDC@@H@Z 1004057c     Spec_d32:Spec_D32.dll
 0002:00000580       __imp_?Pack_drPipe@CLayer@@UAEXPAVCString@@@Z 10040580     Spec_d32:Spec_D32.dll
 0002:00000584       __imp_?GetObjectInfo@CLayer@@UAEXPAVCDrObject@@@Z 10040584     Spec_d32:Spec_D32.dll
 0002:00000588       __imp_?SetObjectInfo@CLayer@@UAEXPAVCDrObject@@@Z 10040588     Spec_d32:Spec_D32.dll
 0002:0000058c       __imp_?GetLayerInfo@CLayer@@UAE?AVCString@@I@Z 1004058c     Spec_d32:Spec_D32.dll
 0002:00000590       __imp_?SetLayerInfo@CLayer@@UAEXII@Z 10040590     Spec_d32:Spec_D32.dll
 0002:00000594       __imp_?GetLayerArray@CLayer@@UAEXQAY01I@Z 10040594     Spec_d32:Spec_D32.dll
 0002:00000598       __imp_?SetLayerArray@CLayer@@UAEXQAY01I@Z 10040598     Spec_d32:Spec_D32.dll
 0002:0000059c       __imp_?GetLayerOldArray@CLayer@@UAEXQAY01I@Z 1004059c     Spec_d32:Spec_D32.dll
 0002:000005a0       __imp_?SetLayerOldArray@CLayer@@UAEXQAY01I@Z 100405a0     Spec_d32:Spec_D32.dll
 0002:000005a4       __imp_?GetLayerDefaultArray@CLayer@@UAEXQAY01I@Z 100405a4     Spec_d32:Spec_D32.dll
 0002:000005a8       __imp_?SetLayerDefaultArray@CLayer@@UAEXQAY01I@Z 100405a8     Spec_d32:Spec_D32.dll
 0002:000005ac       __imp_?ReadDefaultLayer@CLayer@@UAEXXZ 100405ac     Spec_d32:Spec_D32.dll
 0002:000005b0       __imp_?InitLayer@CLayer@@UAEXXZ 100405b0     Spec_d32:Spec_D32.dll
 0002:000005b4       __imp_?GetRuntimeClass@CHitNet@@UBEPAUCRuntimeClass@@XZ 100405b4     Spec_d32:Spec_D32.dll
 0002:000005b8       __imp_?Serialize@CHitNet@@UAEXAAVCArchive@@@Z 100405b8     Spec_d32:Spec_D32.dll
 0002:000005bc       __imp_?DoDataView@CHitNet@@UAEXPAVCDC@@H@Z 100405bc     Spec_d32:Spec_D32.dll
 0002:000005c0       __imp_?Pack_drPipe@CHitNet@@UAEXPAVCString@@@Z 100405c0     Spec_d32:Spec_D32.dll
 0002:000005c4       __imp_?GetObjectInfo@CHitNet@@UAEXPAVCDrObject@@@Z 100405c4     Spec_d32:Spec_D32.dll
 0002:000005c8       __imp_?SetObjectInfo@CHitNet@@UAEXPAVCDrObject@@@Z 100405c8     Spec_d32:Spec_D32.dll
 0002:000005cc       __imp_?GetRuntimeClass@CDrPen@@UBEPAUCRuntimeClass@@XZ 100405cc     Spec_d32:Spec_D32.dll
 0002:000005d0       __imp_?Serialize@CDrPen@@UAEXAAVCArchive@@@Z 100405d0     Spec_d32:Spec_D32.dll
 0002:000005d4       __imp_?DoDataView@CDrPen@@UAEXPAVCDC@@H@Z 100405d4     Spec_d32:Spec_D32.dll
 0002:000005d8       __imp_?Pack_drPipe@CDrPen@@UAEXPAVCString@@@Z 100405d8     Spec_d32:Spec_D32.dll
 0002:000005dc       __imp_?GetObjectInfo@CDrPen@@UAEXPAVCDrObject@@@Z 100405dc     Spec_d32:Spec_D32.dll
 0002:000005e0       __imp_?SetObjectInfo@CDrPen@@UAEXPAVCDrObject@@@Z 100405e0     Spec_d32:Spec_D32.dll
 0002:000005e4       __imp_?ReplacePen@CDrPen@@UAEXXZ 100405e4     Spec_d32:Spec_D32.dll
 0002:000005e8       __imp_?ReadDefaultDrPen@CDrPen@@UAEXXZ 100405e8     Spec_d32:Spec_D32.dll
 0002:000005ec       __imp_?InitDrPen@CDrPen@@UAEXXZ 100405ec     Spec_d32:Spec_D32.dll
 0002:000005f0       __imp_?GetRuntimeClass@CDrFont@@UBEPAUCRuntimeClass@@XZ 100405f0     Spec_d32:Spec_D32.dll
 0002:000005f4       __imp_?Serialize@CDrFont@@UAEXAAVCArchive@@@Z 100405f4     Spec_d32:Spec_D32.dll
 0002:000005f8       __imp_?DoDataView@CDrFont@@UAEXPAVCDC@@H@Z 100405f8     Spec_d32:Spec_D32.dll
 0002:000005fc       __imp_?Pack_drPipe@CDrFont@@UAEXPAVCString@@@Z 100405fc     Spec_d32:Spec_D32.dll
 0002:00000600       __imp_?GetObjectInfo@CDrFont@@UAEXPAVCDrObject@@@Z 10040600     Spec_d32:Spec_D32.dll
 0002:00000604       __imp_?SetObjectInfo@CDrFont@@UAEXPAVCDrObject@@@Z 10040604     Spec_d32:Spec_D32.dll
 0002:00000608       __imp_?DoTextFont@CDrFont@@UAEXXZ 10040608     Spec_d32:Spec_D32.dll
 0002:0000060c       __imp_?ReadDefaultDrFont@CDrFont@@UAEXXZ 1004060c     Spec_d32:Spec_D32.dll
 0002:00000610       __imp_?InitDrFont@CDrFont@@UAEXXZ 10040610     Spec_d32:Spec_D32.dll
 0002:00000614       __imp_?GetRuntimeClass@CDataWindow@@UBEPAUCRuntimeClass@@XZ 10040614     Spec_d32:Spec_D32.dll
 0002:00000618       __imp_?Serialize@CDataWindow@@UAEXAAVCArchive@@@Z 10040618     Spec_d32:Spec_D32.dll
 0002:0000061c       __imp_?DoDataView@CDataWindow@@UAEXPAVCDC@@H@Z 1004061c     Spec_d32:Spec_D32.dll
 0002:00000620       __imp_?Pack_drPipe@CDataWindow@@UAEXPAVCString@@@Z 10040620     Spec_d32:Spec_D32.dll
 0002:00000624       __imp_?GetObjectInfo@CDataWindow@@UAEXPAVCDrObject@@@Z 10040624     Spec_d32:Spec_D32.dll
 0002:00000628       __imp_?SetObjectInfo@CDataWindow@@UAEXPAVCDrObject@@@Z 10040628     Spec_d32:Spec_D32.dll
 0002:0000062c       __imp_?SetWinMinMaxWIC@CDataWindow@@UAEXULPOINT3@@@Z 1004062c     Spec_d32:Spec_D32.dll
 0002:00000630       __imp_?SetWinExtWIC@CDataWindow@@UAEXXZ 10040630     Spec_d32:Spec_D32.dll
 0002:00000634       __imp_?ReadDefaultDataWindow@CDataWindow@@UAEXXZ 10040634     Spec_d32:Spec_D32.dll
 0002:00000638       __imp_?InitDataWindow@CDataWindow@@UAEXXZ 10040638     Spec_d32:Spec_D32.dll
 0002:0000063c       __imp_??1CDrObject@@UAE@XZ 1004063c     Spec_d32:Spec_D32.dll
 0002:00000640       __imp_?GetRuntimeClass@CBooleans@@UBEPAUCRuntimeClass@@XZ 10040640     Spec_d32:Spec_D32.dll
 0002:00000644       __imp_?Serialize@CBooleans@@UAEXAAVCArchive@@@Z 10040644     Spec_d32:Spec_D32.dll
 0002:00000648       __imp_?DoDataView@CBooleans@@UAEXPAVCDC@@H@Z 10040648     Spec_d32:Spec_D32.dll
 0002:0000064c       __imp_?GetLocalCorner@CDrObject@@UAEXPAUWORLD@@H@Z 1004064c     Spec_d32:Spec_D32.dll
 0002:00000650       __imp_?SetLocalCorner@CDrObject@@UAEXPAUWORLD@@H@Z 10040650     Spec_d32:Spec_D32.dll
 0002:00000654       __imp_?GetWorldCorner@CDrObject@@UAEXPAUWORLD@@H@Z 10040654     Spec_d32:Spec_D32.dll
 0002:00000658       __imp_?SetWorldCorner@CDrObject@@UAEXPAUWORLD@@H@Z 10040658     Spec_d32:Spec_D32.dll
 0002:0000065c       __imp_?GetEyeCorner@CDrObject@@UAEXPAUWORLD@@H@Z 1004065c     Spec_d32:Spec_D32.dll
 0002:00000660       __imp_?SetEyeCorner@CDrObject@@UAEXPAUWORLD@@H@Z 10040660     Spec_d32:Spec_D32.dll
 0002:00000664       __imp_?GetScreen3DCorner@CDrObject@@UAEXPAUWORLD@@H@Z 10040664     Spec_d32:Spec_D32.dll
 0002:00000668       __imp_?SetScreen3DCorner@CDrObject@@UAEXPAUWORLD@@H@Z 10040668     Spec_d32:Spec_D32.dll
 0002:0000066c       __imp_?Pack_drPipe@CBooleans@@UAEXPAVCString@@@Z 1004066c     Spec_d32:Spec_D32.dll
 0002:00000670       __imp_?GetObjectInfo@CBooleans@@UAEXPAVCDrObject@@@Z 10040670     Spec_d32:Spec_D32.dll
 0002:00000674       __imp_?SetObjectInfo@CBooleans@@UAEXPAVCDrObject@@@Z 10040674     Spec_d32:Spec_D32.dll
 0002:00000678       __imp_?IsZoomEnabled@CBooleans@@UAEHH@Z 10040678     Spec_d32:Spec_D32.dll
 0002:0000067c       __imp_?SetZoomEnabled@CBooleans@@UAEXHH@Z 1004067c     Spec_d32:Spec_D32.dll
 0002:00000680       __imp_?IsZoomOn@CBooleans@@UAEHHH@Z 10040680     Spec_d32:Spec_D32.dll
 0002:00000684       __imp_?ToggleZoom@CBooleans@@UAEHHH@Z 10040684     Spec_d32:Spec_D32.dll
 0002:00000688       __imp_?ReadDefaultBooleans@CBooleans@@UAEXXZ 10040688     Spec_d32:Spec_D32.dll
 0002:0000068c       __imp_?InitBooleans@CBooleans@@UAEXXZ 1004068c     Spec_d32:Spec_D32.dll
 0002:00000690       __imp_?GetRuntimeClass@CMatObj@@UBEPAUCRuntimeClass@@XZ 10040690     Spec_d32:Spec_D32.dll
 0002:00000694       __imp_?GetObjectA@CDListMgr@@QAEPAVCObject@@H@Z 10040694     Spec_d32:Spec_D32.dll
 0002:00000698       __imp_?GetObjectIndex@CDListMgr@@QAEHIVCString@@@Z 10040698     Spec_d32:Spec_D32.dll
 0002:0000069c       __imp_?GetObjectIndex@CDListMgr@@QAEHPAVCObject@@@Z 1004069c     Spec_d32:Spec_D32.dll
 0002:000006a0       __imp_?RemoveObject@CDListMgr@@QAEHH@Z 100406a0     Spec_d32:Spec_D32.dll
 0002:000006a4       __imp_?SetPatchMnuOldArray@CPatchMnu@@UAEXQAY01I@Z 100406a4     Spec_d32:Spec_D32.dll
 0002:000006a8       \177Spec_D32_NULL_THUNK_DATA 100406a8     Spec_d32:Spec_D32.dll
 0002:000006d0       ?messageMap@CDlg_CClk@@1UAFX_MSGMAP@@B 100406d0     Dlg_CClk.obj
 0002:000006d8       ?_messageEntries@CDlg_CClk@@0QBUAFX_MSGMAP_ENTRY@@B 100406d8     Dlg_CClk.obj
 0002:000008d0       ??_7C3DMath@@6B@           100408d0     Dlg_CClk.obj
 0002:000008e4       ??_7CMatObj@@6B@           100408e4     Dlg_CClk.obj
 0002:000009c0       ??_7CBooleans@@6B@         100409c0     Dlg_CClk.obj
 0002:00000c00       ??_7CDataWindow@@6B@       10040c00     Dlg_CClk.obj
 0002:00000d70       ??_7CDrFont@@6B@           10040d70     Dlg_CClk.obj
 0002:00000ee0       ??_7CDrPen@@6B@            10040ee0     Dlg_CClk.obj
 0002:000010b0       ??_7CHitNet@@6B@           100410b0     Dlg_CClk.obj
 0002:00001200       ??_7CLayer@@6B@            10041200     Dlg_CClk.obj
 0002:00001390       ??_7CPatchMnu@@6B@         10041390     Dlg_CClk.obj
 0002:00001538       ??_7CObj3DMnu@@6B@         10041538     Dlg_CClk.obj
 0002:000016e0       ??_7CMapFactor@@6B@        100416e0     Dlg_CClk.obj
 0002:00001848       ??_7CPrecision@@6B@        10041848     Dlg_CClk.obj
 0002:000019d0       ??_7CScaleFactor@@6B@      100419d0     Dlg_CClk.obj
 0002:00001b40       ??_7CUnit@@6B@             10041b40     Dlg_CClk.obj
 0002:00001cbc       ??_7CElemInfo@@6B@         10041cbc     Dlg_CClk.obj
 0002:00001e18       ??_C@_07DMFD@TANGENT?$AA@  10041e18     Dlg_CClk.obj
 0002:00001e20       ??_C@_0L@JOIF@NOT_A_KNOT?$AA@ 10041e20     Dlg_CClk.obj
 0002:00001e2c       ??_C@_09KFEJ@QUADRATIC?$AA@ 10041e2c     Dlg_CClk.obj
 0002:00001e38       ??_C@_06OLIF@BESSEL?$AA@   10041e38     Dlg_CClk.obj
 0002:00001e40       ??_C@_04MICK@FREE?$AA@     10041e40     Dlg_CClk.obj
 0002:00001e48       ??_C@_07GPNJ@CLAMPED?$AA@  10041e48     Dlg_CClk.obj
 0002:00001e50       ??_C@_04PBGA@AUTO?$AA@     10041e50     Dlg_CClk.obj
 0002:00001e58       ??_C@_05CKCA@CUBIC?$AA@    10041e58     Dlg_CClk.obj
 0002:00001e60       ??_C@_06OAFN@LINEAR?$AA@   10041e60     Dlg_CClk.obj
 0002:00001e68       ??_C@_00A@?$AA@            10041e68     Dlg_CClk.obj
 0002:00001e6c       ??_C@_08OKPH@Image2Up?$AA@ 10041e6c     Dlg_CClk.obj
 0002:00001e78       ??_C@_0L@KCBH@Image2Down?$AA@ 10041e78     Dlg_CClk.obj
 0002:00001e84       ??_C@_0M@DMDD@Image2Focus?$AA@ 10041e84     Dlg_CClk.obj
 0002:00001e90       ??_C@_08BMMM@Image1Up?$AA@ 10041e90     Dlg_CClk.obj
 0002:00001e9c       ??_C@_0L@ECHI@Image1Down?$AA@ 10041e9c     Dlg_CClk.obj
 0002:00001ea8       ??_C@_0M@ICND@Image1Focus?$AA@ 10041ea8     Dlg_CClk.obj
 0002:00001eb4       ??_7CDlg_CClk@@6B@         10041eb4     Dlg_CClk.obj
 0002:00001f8c       ??_C@_03NAME@?4?4?4?$AA@   10041f8c     Dlg_CClk.obj
 0002:00001f90       ?messageMap@CDlg_CMesh@@1UAFX_MSGMAP@@B 10041f90     Dlg_CMes.obj
 0002:00001f98       ?_messageEntries@CDlg_CMesh@@0QBUAFX_MSGMAP_ENTRY@@B 10041f98     Dlg_CMes.obj
 0002:00002028       ??_7CDlg_CMesh@@6B@        10042028     Dlg_CMes.obj
 0002:00002100       ?messageMap@CDlg_CMsN@@1UAFX_MSGMAP@@B 10042100     Dlg_CMsN.obj
 0002:00002108       ?_messageEntries@CDlg_CMsN@@0QBUAFX_MSGMAP_ENTRY@@B 10042108     Dlg_CMsN.obj
 0002:000021c8       ??_7CDlg_CMsN@@6B@         100421c8     Dlg_CMsN.obj
 0002:000022a0       ??_C@_0M@KLMF@?5?5?5?5?5?5?5?5?5?$CFd?$AA@ 100422a0     Dlg_CMsN.obj
 0002:000022ac       ??_C@_09EBOI@?5?5?5?5?5?5?5?5?5?$AA@ 100422ac     Dlg_CMsN.obj
 0002:000022b8       ??_C@_0CP@GGMG@Internal?5Problem?3?6CDlg_CMsN?3?3Fil@ 100422b8     Dlg_CMsN.obj
 0002:000022e8       ??_C@_0CF@GDMC@Please?5Select?5Curve?5Input?5Data?5N@ 100422e8     Dlg_CMsN.obj
 0002:00002310       ?messageMap@CDlg_CMsR@@1UAFX_MSGMAP@@B 10042310     Dlg_CMsR.obj
 0002:00002318       ?_messageEntries@CDlg_CMsR@@0QBUAFX_MSGMAP_ENTRY@@B 10042318     Dlg_CMsR.obj
 0002:00002330       ??_7CDlg_CMsR@@6B@         10042330     Dlg_CMsR.obj
 0002:00002408       ?messageMap@CDlg_CMsU@@1UAFX_MSGMAP@@B 10042408     Dlg_CMsU.obj
 0002:00002410       ?_messageEntries@CDlg_CMsU@@0QBUAFX_MSGMAP_ENTRY@@B 10042410     Dlg_CMsU.obj
 0002:00002458       ??_7CDlg_CMsU@@6B@         10042458     Dlg_CMsU.obj
 0002:00002530       ?messageMap@CDlg_CPro@@1UAFX_MSGMAP@@B 10042530     Dlg_cpro.obj
 0002:00002538       ?_messageEntries@CDlg_CPro@@0QBUAFX_MSGMAP_ENTRY@@B 10042538     Dlg_cpro.obj
 0002:00002610       ??_7CXForm@@6B@            10042610     Dlg_cpro.obj
 0002:000026a0       ??_7CDlg_CPro@@6B@         100426a0     Dlg_cpro.obj
 0002:00002778       ??_C@_0CM@PFEJ@Internal?5Problem?3CDlg_CPro?3?3OnAd@ 10042778     Dlg_cpro.obj
 0002:000027a4       ??_C@_0CC@ODOE@Internal?5Problem?3CDlg_CPro?3?3OnAd@ 100427a4     Dlg_cpro.obj
 0002:000027c8       ??_C@_0CI@IFKB@Do?5You?5Want?5to?5Select?5this?5Curve@ 100427c8     Dlg_cpro.obj
 0002:000027f0       ??_C@_08OAJO@BACKWARD?$AA@ 100427f0     Dlg_cpro.obj
 0002:000027fc       ??_C@_0BP@KBPP@Internal?5Problem?3Dlg_LMat?1SelC?$AA@ 100427fc     Dlg_cpro.obj
 0002:0000281c       ??_C@_0BL@JODO@Please?5Select?5a?5Profile?5ID?$AA@ 1004281c     Dlg_cpro.obj
 0002:00002838       ??_C@_0CJ@HDJN@Atleast?5?51?5Curve?5Required?6None?5S@ 10042838     Dlg_cpro.obj
 0002:00002868       ?messageMap@CDlg_CPSI@@1UAFX_MSGMAP@@B 10042868     Dlg_CPSI.obj
 0002:00002870       ?_messageEntries@CDlg_CPSI@@0QBUAFX_MSGMAP_ENTRY@@B 10042870     Dlg_CPSI.obj
 0002:000028d0       ??_7CDlg_CPSI@@6B@         100428d0     Dlg_CPSI.obj
 0002:000029a8       ?messageMap@CDlg_CrcI@@1UAFX_MSGMAP@@B 100429a8     Dlg_CrcI.obj
 0002:000029b0       ?_messageEntries@CDlg_CrcI@@0QBUAFX_MSGMAP_ENTRY@@B 100429b0     Dlg_CrcI.obj
 0002:00002c68       ??_7CDlg_CrcI@@6B@         10042c68     Dlg_CrcI.obj
 0002:00002d40       ??_C@_07KPNG@CNode_A?$AA@  10042d40     Dlg_CrcI.obj
 0002:00002d48       ??_C@_0CP@CIOM@CIRCLE?5by?52?5CNodes?5on?5Tangents?5?$CG@ 10042d48     Dlg_CrcI.obj
 0002:00002d78       ??_C@_0CD@CGPG@CIRCLE?5by?52?5End?5Nodes?5?$CG?5Center?$CIC@ 10042d78     Dlg_CrcI.obj
 0002:00002d9c       ??_C@_06CNLI@Node_I?$AA@   10042d9c     Dlg_CrcI.obj
 0002:00002da4       ??_C@_0BL@FABB@CIRCLE?5by?52?5End?5Nodes?5?$CG?5TI?$AA@ 10042da4     Dlg_CrcI.obj
 0002:00002dc0       ??_C@_08KBAG@Ist?5Node?$AA@ 10042dc0     Dlg_CrcI.obj
 0002:00002dcc       ??_C@_0DJ@OMFD@CIRCLE?5from?53?5Nodes?5on?5Circumfer@ 10042dcc     Dlg_CrcI.obj
 0002:00002e08       ??_C@_0BA@OAJB@Bezier?6Segments?$AA@ 10042e08     Dlg_CrcI.obj
 0002:00002e18       ??_C@_09HJPA@Rot?4Angle?$AA@ 10042e18     Dlg_CrcI.obj
 0002:00002e24       ??_C@_08BJPB@Node_Rot?$AA@ 10042e24     Dlg_CrcI.obj
 0002:00002e30       ??_C@_0DC@BINE@CIRCLE?5by?5Rotation?5of?5a?5Node?5?$CI?5A@ 10042e30     Dlg_CrcI.obj
 0002:00002e64       ??_C@_0BC@MGIN@LastSegment?6Elems?$AA@ 10042e64     Dlg_CrcI.obj
 0002:00002e78       ??_C@_0BG@LFDF@resource?5string?5?$DN?5?$CFs?6?$AA@ 10042e78     Dlg_CrcI.obj
 0002:00002e90       ??_C@_09EANA@Arc?5Angle?$AA@ 10042e90     Dlg_CrcI.obj
 0002:00002e9c       ??_C@_0EF@OPLA@INVALID?5DATA?3?6For?5Open?5Circle?6At@ 10042e9c     Dlg_CrcI.obj
 0002:00002ee4       ??_C@_0EI@HPGL@INVALID?5DATA?3?6For?5Closed?5Circle?6@ 10042ee4     Dlg_CrcI.obj
 0002:00002f2c       ??_C@_0EH@BFON@INVALID?5DATA?3?6For?5Circle?6Atleast@ 10042f2c     Dlg_CrcI.obj
 0002:00002f74       ??_C@_08COKH@Negative?$AA@ 10042f74     Dlg_CrcI.obj
 0002:00002f80       ??_C@_01NCG@Z?$AA@         10042f80     Dlg_CrcI.obj
 0002:00002f84       ??_C@_01PCJP@Y?$AA@        10042f84     Dlg_CrcI.obj
 0002:00002f88       ??_C@_01FIAI@X?$AA@        10042f88     Dlg_CrcI.obj
 0002:00002f90       ?messageMap@CDlg_CrcT@@1UAFX_MSGMAP@@B 10042f90     Dlg_CrcT.obj
 0002:00002f98       ?_messageEntries@CDlg_CrcT@@0QBUAFX_MSGMAP_ENTRY@@B 10042f98     Dlg_CrcT.obj
 0002:000030d0       ??_7CDlg_CrcT@@6B@         100430d0     Dlg_CrcT.obj
 0002:000031a8       ?messageMap@CDlg_Knot@@1UAFX_MSGMAP@@B 100431a8     Dlg_knot.obj
 0002:000031b0       ?_messageEntries@CDlg_Knot@@0QBUAFX_MSGMAP_ENTRY@@B 100431b0     Dlg_knot.obj
 0002:00003258       ??_7CDlg_Knot@@6B@         10043258     Dlg_knot.obj
 0002:00003330       ??_C@_02MECO@?$CFd?$AA@    10043330     Dlg_knot.obj
 0002:00003334       ??_C@_0CO@CGJE@Only?5Distinct?5Knots?5Allowed?6for?5@ 10043334     Dlg_knot.obj
 0002:00003364       ??_C@_0BB@GNBB@Got?5All?5?$CFd?5Knots?$AA@ 10043364     Dlg_knot.obj
 0002:00003378       ??_C@_0BE@CGGM@Need?5?$CFd?5More?5Knots?$CB?$AA@ 10043378     Dlg_knot.obj
 0002:0000338c       ??_C@_02JBAA@?$CFf?$AA@    1004338c     Dlg_knot.obj
 0002:00003390       ?messageMap@CDlg_LMR@@1UAFX_MSGMAP@@B 10043390     Dlg_LMR.obj
 0002:00003398       ?_messageEntries@CDlg_LMR@@0QBUAFX_MSGMAP_ENTRY@@B 10043398     Dlg_LMR.obj
 0002:00003470       ??_7CTriangle@@6B@         10043470     Dlg_LMR.obj
 0002:000034ec       ??_7CDlg_LMR@@6B@          100434ec     Dlg_LMR.obj
 0002:000035c8       __real@8@3c018000000000000000 100435c8     Dlg_LMR.obj
 0002:000035d0       __real@8@4006b400000000000000 100435d0     Dlg_LMR.obj
 0002:000035d8       ??_7?$CList@HH@@6B@        100435d8     Dlg_LMR.obj
 0002:000035ec       ??_C@_01BJG@?6?$AA@        100435ec     Dlg_LMR.obj
 0002:000035f0       ??_C@_05KIFI@with?5?$AA@   100435f0     Dlg_LMR.obj
 0002:000035f8       ??_C@_09LOPF@?5elements?$AA@ 100435f8     Dlg_LMR.obj
 0002:00003608       ?messageMap@CDlg_LMTR@@1UAFX_MSGMAP@@B 10043608     Dlg_LMTR.obj
 0002:00003610       ?_messageEntries@CDlg_LMTR@@0QBUAFX_MSGMAP_ENTRY@@B 10043610     Dlg_LMTR.obj
 0002:00003700       ??_7CDlg_LMTR@@6B@         10043700     Dlg_LMTR.obj
 0002:000037d8       ?messageMap@CDlg_LQCI@@1UAFX_MSGMAP@@B 100437d8     dlg_lqci.obj
 0002:000037e0       ?_messageEntries@CDlg_LQCI@@0QBUAFX_MSGMAP_ENTRY@@B 100437e0     dlg_lqci.obj
 0002:00003900       ??_7CDlg_LQCI@@6B@         10043900     dlg_lqci.obj
 0002:000039d8       ?messageMap@CDlg_Tang@@1UAFX_MSGMAP@@B 100439d8     Dlg_tang.obj
 0002:000039e0       ?_messageEntries@CDlg_Tang@@0QBUAFX_MSGMAP_ENTRY@@B 100439e0     Dlg_tang.obj
 0002:00003a88       ??_7CDlg_Tang@@6B@         10043a88     Dlg_tang.obj
 0002:00003b60       ?messageMap@CDlg_Wts@@1UAFX_MSGMAP@@B 10043b60     Dlg_wts.obj
 0002:00003b68       ?_messageEntries@CDlg_Wts@@0QBUAFX_MSGMAP_ENTRY@@B 10043b68     Dlg_wts.obj
 0002:00003c40       ??_7CDlg_Wts@@6B@          10043c40     Dlg_wts.obj
 0002:00003d18       ??_C@_0BD@CEIG@Got?5All?5?$CFd?5Weights?$AA@ 10043d18     Dlg_wts.obj
 0002:00003d2c       ??_C@_0BG@KIBM@Need?5?$CFd?5More?5Weights?$CB?$AA@ 10043d2c     Dlg_wts.obj
 0002:00003d44       ??_C@_07HHMN@?$CF2d?5?5?$CFf?$AA@ 10043d44     Dlg_wts.obj
 0002:00003d50       ?messageMap@CElg_CNO3@@1UAFX_MSGMAP@@B 10043d50     Elg_CNO3.obj
 0002:00003d58       ?_messageEntries@CElg_CNO3@@0QBUAFX_MSGMAP_ENTRY@@B 10043d58     Elg_CNO3.obj
 0002:00003ef0       ??_7CElg_CNO3@@6B@         10043ef0     Elg_CNO3.obj
 0002:00003fc8       ??_C@_0ED@PCJD@You?5may?5Select?5Exactly?53?5Nodes?6T@ 10043fc8     Elg_CNO3.obj
 0002:0000400c       ??_C@_0BJ@PLNF@Need?5atleast?53?5Elements?$CB?$AA@ 1004400c     Elg_CNO3.obj
 0002:00004028       ??_C@_0EK@KOPE@Exact?5No?4?5of?5Nodes?5Required?7?$DN?5?$CFd@ 10044028     Elg_CNO3.obj
 0002:00004074       ??_C@_0BK@CJCA@Please?5Select?5a?5Circle?5ID?$AA@ 10044074     Elg_CNO3.obj
 0002:00004090       __real@8@40008000000000000000 10044090     Elg_CNO3.obj
 0002:00004098       ??_C@_0CD@EJGF@Error?3?6Too?5Few?5Number?5of?5Element@ 10044098     Elg_CNO3.obj
 0002:000040c0       __real@8@4005f000000000000000 100440c0     Elg_CNO3.obj
 0002:000040c8       __real@8@4007b400000000000000 100440c8     Elg_CNO3.obj
 0002:000040d0       __real@8@00000000000000000000 100440d0     Elg_CNO3.obj
 0002:000040d8       __real@8@3fff8000000000000000 100440d8     Elg_CNO3.obj
 0002:000040e0       ??_C@_0DJ@OLFE@ERROR?3Memory?5Failure?$CB?6CElg_CNO3?3@ 100440e0     Elg_CNO3.obj
 0002:0000411c       ??_C@_0L@OBLJ@CIn_Circle?$AA@ 1004411c     In_Circle.obj
 0002:00004128       ??_7CIn_Circle@@6B@        10044128     In_Circle.obj
 0002:00004188       __real@8@3ffe8000000000000000 10044188     In_Circle.obj
 0002:00004190       ??_C@_0CD@FNLL@ERROR?3Interpolate?5?9Memory?5Failur@ 10044190     In_Circle.obj
 0002:000041b4       ??_C@_0BJ@JLII@?5CIn_Circle?3?5?5?5?5Loading?6?$AA@ 100441b4     In_Circle.obj
 0002:000041d0       ??_C@_0BJ@FMNO@?5CIn_Circle?3?5?5?5?5Storing?6?$AA@ 100441d0     In_Circle.obj
 0002:000041ec       ??_C@_0L@HNAE@CIn_Conics?$AA@ 100441ec     In_Conics.obj
 0002:000041f8       ??_7CIn_Conics@@6B@        100441f8     In_Conics.obj
 0002:00004254       ??_C@_0L@NNPP@?$CF2d?5?$CF7?42f?6?$AA@ 10044254     In_Conics.obj
 0002:00004260       ??_C@_0CM@CEAO@Wts?$FL?$CFd?$FN?6?5?5?5?5?5?5X?5?5?5?5?5?5?5?5?5?5?5?5?5Y?5?5?5@ 10044260     In_Conics.obj
 0002:0000428c       ??_C@_0BG@OLNC@Increase?5buffer?5to?5?$CFd?$AA@ 1004428c     In_Conics.obj
 0002:000042a4       ??_C@_0BH@CGJP@?$CF2d?5?$CF7?42f?5?$CF7?42f?5?$CF7?42f?6?$AA@ 100442a4     In_Conics.obj
 0002:000042bc       ??_C@_0CN@BGAA@Cons?$FL?$CFd?$FN?6?5?5?5?5?5?5X?5?5?5?5?5?5?5?5?5?5?5?5?5Y?5?5@ 100442bc     In_Conics.obj
 0002:000042ec       ??_C@_0CG@PDLP@FillUpBezier?6CIn_Conics?3?3FillUpB@ 100442ec     In_Conics.obj
 0002:00004314       ??_C@_0BJ@FCH@?5CIn_Conics?3?5?5?5?5Loading?6?$AA@ 10044314     In_Conics.obj
 0002:00004330       ??_C@_0BJ@MCHB@?5CIn_Conics?3?5?5?5?5Storing?6?$AA@ 10044330     In_Conics.obj
 0002:0000434c       ??_C@_09BMLF@CIn_Parab?$AA@ 1004434c     In_Parab.obj
 0002:00004358       ??_7CIn_Parab@@6B@         10044358     In_Parab.obj
 0002:000043b4       ??_C@_0BI@JIJG@?5CIn_Parab?3?5?5?5?5Loading?6?$AA@ 100443b4     In_Parab.obj
 0002:000043cc       ??_C@_0BI@FPMA@?5CIn_Parab?3?5?5?5?5Storing?6?$AA@ 100443cc     In_Parab.obj
 0002:000043e4       ??_C@_09GEOK@CInter_C1?$AA@ 100443e4     Inter_c1.obj
 0002:000043f0       ??_7CInter_C1@@6B@         100443f0     Inter_c1.obj
 0002:0000443c       ??_C@_0CD@MLMF@B_SplineCon?$FL?$CFd?$FN?6?5?5?5?5?5X?5?5?5?5?5Y?5?5?5?5@ 1004443c     Inter_c1.obj
 0002:00004460       ??_C@_0BD@FCID@?$CF7?41f?5?$CF7?41f?5?$CF7?41f?6?$AA@ 10044460     Inter_c1.obj
 0002:00004474       ??_C@_0BM@HHAI@Data?$FL?$CFd?$FN?6?5?5?5?5?5X?5?5?5?5?5Y?5?5?5?5Z?6?$AA@ 10044474     Inter_c1.obj
 0002:00004490       ??_C@_0N@CBOA@FillUpSpline?$AA@ 10044490     Inter_c1.obj
 0002:000044a0       ??_C@_0DI@IIHF@Bezier?5Controls?$FL?$CFd?$FN?6?5?5?5?5?5?5X?5?5?5?5?5@ 100444a0     Inter_c1.obj
 0002:000044d8       ??_C@_0BA@LLEF@In?5FillUpBezier?$AA@ 100444d8     Inter_c1.obj
 0002:000044e8       ??_C@_0BI@OFFI@?5CInter_C1?3?5?5?5?5Loading?6?$AA@ 100444e8     Inter_c1.obj
 0002:00004500       ??_C@_0BI@CCAO@?5CInter_C1?3?5?5?5?5Storing?6?$AA@ 10044500     Inter_c1.obj
 0002:00004518       ??_C@_09JLFD@CInter_C2?$AA@ 10044518     Inter_c2.obj
 0002:00004524       ??_7CInter_C2@@6B@         10044524     Inter_c2.obj
 0002:000045c0       __real@8@c00fc34f800000000000 100445c0     Inter_c2.obj
 0002:000045c8       ??_C@_09GEJH@Knot?$FL?$CFd?$FN?6?$AA@ 100445c8     Inter_c2.obj
 0002:000045d4       ??_C@_09PHPI@Data?$FL?$CFd?$FN?6?$AA@ 100445d4     Inter_c2.obj
 0002:000045e0       ??_C@_0BG@JEJI@CInter_C2?3?3SetupKnots?$AA@ 100445e0     Inter_c2.obj
 0002:000045f8       ??_C@_0EC@IFKM@Error?3SetupSystem_Close?6Too?5Few?5@ 100445f8     Inter_c2.obj
 0002:0000463c       ??_C@_0BD@LMOM@UNRECOGNIZED?5B?4C?4?$CB?$AA@ 1004463c     Inter_c2.obj
 0002:00004650       ??_C@_0CJ@IILH@CInter_C3?3?3BC_Auto?3?5SHOULD?5NOT?5B@ 10044650     Inter_c2.obj
 0002:00004680       __real@8@4000c000000000000000 10044680     Inter_c2.obj
 0002:00004688       ??_C@_0N@DBCM@Sol?$FL?$CFd?$FN?$FL?$CFd?$FN?6?$AA@ 10044688     Inter_c2.obj
 0002:00004698       ??_C@_0CF@INDJ@SolveSystem_Open?3Error?6SolveTriD@ 10044698     Inter_c2.obj
 0002:000046c0       ??_C@_06NDGF@?$CF7?42f?5?$AA@ 100446c0     Inter_c2.obj
 0002:000046c8       ??_C@_0N@ENKB@RHS?$FL?$CFd?$FN?$FL?$CFd?$FN?6?$AA@ 100446c8     Inter_c2.obj
 0002:000046d8       ??_C@_0BD@KFIA@?$CF7?42f?5?$CF7?42f?5?$CF7?42f?6?$AA@ 100446d8     Inter_c2.obj
 0002:000046ec       ??_C@_0CE@GFHP@alfa?$FL?$CFd?$FN?5?5?5?5?5beta?$FL?$CFd?$FN?5?5?5?5?5gama?$FL?$CF@ 100446ec     Inter_c2.obj
 0002:00004710       ??_C@_0CG@DNP@Just?5Before?5Calling?6Solve_TriDia@ 10044710     Inter_c2.obj
 0002:00004738       ??_C@_0CO@IAHF@SolveSystem_Close?3Error?6SolveTri@ 10044738     Inter_c2.obj
 0002:00004768       ??_C@_0CO@FJHB@Just?5Before?5Calling?6Solve_TriDia@ 10044768     Inter_c2.obj
 0002:00004798       ??_C@_06HGCI@?$CF7?41f?6?$AA@ 10044798     Inter_c2.obj
 0002:000047a0       ??_C@_0BB@EHGC@B_SplineWts?$FL?$CFd?$FN?6?$AA@ 100447a0     Inter_c2.obj
 0002:000047b4       ??_C@_0BO@MDNB@FillUpSpline_Open?3NONRATIONAL?$AA@ 100447b4     Inter_c2.obj
 0002:000047d4       ??_C@_0BC@MGCF@B_Spline?5Wts?$FL?$CFd?$FN?6?$AA@ 100447d4     Inter_c2.obj
 0002:000047e8       ??_C@_0N@CNHD@DataWts?$FL?$CFd?$FN?6?$AA@ 100447e8     Inter_c2.obj
 0002:000047f8       ??_C@_0BM@BCK@FillUpSpline_CLOSE?3RATIONAL?$AA@ 100447f8     Inter_c2.obj
 0002:00004814       ??_C@_0M@ECMO@BZ?$FL?$CFd?$FN?$FL?$CFd?$FN?6?$AA@ 10044814     Inter_c2.obj
 0002:00004820       ??_C@_04KKHH@?$CF2d?5?$AA@ 10044820     Inter_c2.obj
 0002:00004828       ??_C@_0M@LDBO@BS?$FL?$CFd?$FN?$FL?$CFd?$FN?6?$AA@ 10044828     Inter_c2.obj
 0002:00004834       ??_C@_0O@NBFK@ConvertBStoBZ?$AA@ 10044834     Inter_c2.obj
 0002:00004844       ??_C@_0O@BGNO@Set4DPreImage?$AA@ 10044844     Inter_c2.obj
 0002:00004854       ??_C@_0BA@KEFM@Bezier?5Wts?$FL?$CFd?$FN?6?$AA@ 10044854     Inter_c2.obj
 0002:00004864       ??_C@_0BI@FKL@?5CInter_C2?3?5?5?5?5Loading?6?$AA@ 10044864     Inter_c2.obj
 0002:0000487c       ??_C@_0BI@MCPN@?5CInter_C2?3?5?5?5?5Storing?6?$AA@ 1004487c     Inter_c2.obj
 0002:00004894       ??_C@_09DBME@CInter_C3?$AA@ 10044894     Inter_c3.obj
 0002:000048a0       ??_7CInter_C3@@6B@         100448a0     Inter_c3.obj
 0002:00004938       ??_C@_0BG@MFPF@CInter_C3?3?3SetupKnots?$AA@ 10044938     Inter_c3.obj
 0002:00004950       ??_C@_0BM@EIBJ@Not?9a?9Knot?5NOT?5Implemented?$CB?$AA@ 10044950     Inter_c3.obj
 0002:0000496c       ??_C@_0BP@NPOH@FillUpSpline_CLOSE?3NONRATIONAL?$AA@ 1004496c     Inter_c3.obj
 0002:0000498c       ??_C@_0BI@KFPK@?5CInter_C3?3?5?5?5?5Loading?6?$AA@ 1004498c     Inter_c3.obj
 0002:000049a4       ??_C@_0BI@GCKM@?5CInter_C3?3?5?5?5?5Storing?6?$AA@ 100449a4     Inter_c3.obj
 0002:000049bc       ??_C@_0L@JBNH@CMC_Bezier?$AA@ 100449bc     Mc_Bezier.obj
 0002:000049c8       ??_7CDrLabel@@6B@          100449c8     Mc_Bezier.obj
 0002:00004b60       ??_7CMC_Bezier@@6B@        10044b60     Mc_Bezier.obj
 0002:00004b74       ??_C@_0DM@GJDI@Internal?5ERROR?3?6CMC_Bezier?3?3BZ_I@ 10044b74     Mc_Bezier.obj
 0002:00004bb0       ??_C@_0DM@IMCE@Internal?5ERROR?3?6CMC_Bezier?3?3BZ_I@ 10044bb0     Mc_Bezier.obj
 0002:00004bec       ??_C@_0DM@LMBM@Internal?5ERROR?3?6CMC_Bezier?3?3BZ_I@ 10044bec     Mc_Bezier.obj
 0002:00004c28       ??_C@_07EFBK@?$CFs_?$CFd?$CFd?$AA@ 10044c28     Mc_Bezier.obj
 0002:00004c30       ??_C@_0BJ@PDBN@?5CMC_Bezier?3?5?5?5?5Loading?6?$AA@ 10044c30     Mc_Bezier.obj
 0002:00004c4c       ??_C@_0BJ@DEEL@?5CMC_Bezier?3?5?5?5?5Storing?6?$AA@ 10044c4c     Mc_Bezier.obj
 0002:00004c68       ??_C@_0L@MEKL@CMC_Circle?$AA@ 10044c68     Mc_Circle.obj
 0002:00004c74       ??_7CMC_Circle@@6B@        10044c74     Mc_Circle.obj
 0002:00004c88       ??_C@_0DI@PKMC@Internal?5ERROR?6CMC_Circle?3?3Creat@ 10044c88     Mc_Circle.obj
 0002:00004cc0       ??_C@_04OGJB@_Ctr?$AA@     10044cc0     Mc_Circle.obj
 0002:00004cc8       ??_C@_0DF@KAAL@ERROR?3Memory?5Failure?$CB?6CMC_Circle@ 10044cc8     Mc_Circle.obj
 0002:00004d00       ??_C@_0DF@KJM@ERROR?3Memory?5Failure?$CB?6CMC_Circle@ 10044d00     Mc_Circle.obj
 0002:00004d38       ??_C@_0DF@FPHJ@ERROR?3Memory?5Failure?$CB?6CMC_Circle@ 10044d38     Mc_Circle.obj
 0002:00004d70       ??_C@_0EE@JKIL@ERROR?3?6CMC_Circle?3?3BezierSeg_N_M@ 10044d70     Mc_Circle.obj
 0002:00004db4       ??_C@_0EB@DGHP@ERROR?3?6CMC_Circle?3?3BezierSeg_N_M@ 10044db4     Mc_Circle.obj
 0002:00004df8       __real@8@4004b400000000000000 10044df8     Mc_Circle.obj
 0002:00004e00       ??_C@_0DG@IHFP@ERROR?3?6CMC_Circle?3?3SetMemory?6m_p@ 10044e00     Mc_Circle.obj
 0002:00004e38       ??_C@_0DA@LKDE@m_pData?$FL?$CFd?$FN?6?5?5?5?5?5?5X?5?5?5?5?5?5?5?5?5?5?5?5?5@ 10044e38     Mc_Circle.obj
 0002:00004e68       ??_C@_0CG@DNPM@m_pData?6CMC_Circle?3?3PostInterpol@ 10044e68     Mc_Circle.obj
 0002:00004e90       ??_C@_0DG@JMJB@CMC_Circle?3?3GenerateBezier_b0s_b@ 10044e90     Mc_Circle.obj
 0002:00004ec8       ??_C@_0DG@OEIH@Internal?5Problem?3?6CMC_Circle?3?3Ro@ 10044ec8     Mc_Circle.obj
 0002:00004f00       ??_C@_0BL@DMIA@k?$DN?$CF2d?5?5?$CF7?42f?5?$CF7?42f?5?$CF7?42f?5?6?$AA@ 10044f00     Mc_Circle.obj
 0002:00004f1c       ??_C@_0BA@IIAP@pOut?$FL?$CFd?$FN?$FL?$CFd?$FN?3?5?6?$AA@ 10044f1c     Mc_Circle.obj
 0002:00004f2c       ??_C@_0CA@FBBM@Leaving?5CMC_Circle?3?3RotateCurve?$AA@ 10044f2c     Mc_Circle.obj
 0002:00004f4c       ??_C@_0DG@JPCC@Internal?5Problem?3?6CMC_Circle?3?3Ro@ 10044f4c     Mc_Circle.obj
 0002:00004f84       ??_C@_0N@IPCO@Theta?7?5?$DN?5?$CFf?6?$AA@ 10044f84     Mc_Circle.obj
 0002:00004f94       ??_C@_0O@OCHC@nConBZ?7?5?$DN?5?$CFd?6?$AA@ 10044f94     Mc_Circle.obj
 0002:00004fa4       ??_C@_0O@OLCI@nConBS?7?5?$DN?5?$CFd?6?$AA@ 10044fa4     Mc_Circle.obj
 0002:00004fb4       ??_C@_0P@MANA@CSeg_DT?7?5?$DN?5?$CFd?6?$AA@ 10044fb4     Mc_Circle.obj
 0002:00004fc4       ??_C@_0M@CGKD@Degr?7?5?$DN?5?$CFd?6?$AA@ 10044fc4     Mc_Circle.obj
 0002:00004fd0       ??_C@_0P@JEGK@bClosed?7?5?$DN?5?$CFs?6?$AA@ 10044fd0     Mc_Circle.obj
 0002:00004fe0       ??_C@_04MIME@OPEN?$AA@     10044fe0     Mc_Circle.obj
 0002:00004fe8       ??_C@_06GBGL@CLOSED?$AA@   10044fe8     Mc_Circle.obj
 0002:00004ff0       ??_C@_0O@KFHD@nOrder?7?5?$DN?5?$CFd?6?$AA@ 10044ff0     Mc_Circle.obj
 0002:00005000       ??_C@_0P@MPCP@nDat_Ex?7?5?$DN?5?$CFd?6?$AA@ 10045000     Mc_Circle.obj
 0002:00005010       ??_C@_0CE@BEJK@CMI_Cur_I?3?3Circle_PrepInterpolat@ 10045010     Mc_Circle.obj
 0002:00005038       __real@8@4005b400000000000000 10045038     Mc_Circle.obj
 0002:00005040       ??_C@_0BJ@KKOF@?5CMC_Circle?3?5?5?5?5Loading?6?$AA@ 10045040     Mc_Circle.obj
 0002:0000505c       ??_C@_0BJ@GNLD@?5CMC_Circle?3?5?5?5?5Storing?6?$AA@ 1004505c     Mc_Circle.obj
 0002:00005078       ??_7?$CList@UWORLD@@U1@@@6B@ 10045078     Mc_Circle.obj
 0002:0000508c       ??_7?$CList@NN@@6B@        1004508c     Mc_Circle.obj
 0002:000050a0       ??_C@_08EIIL@CMC_Cube?$AA@ 100450a0     Mc_Cube.obj
 0002:000050ac       ??_7CMC_Cube@@6B@          100450ac     Mc_Cube.obj
 0002:000050c0       ??_C@_0BP@EDNA@Got?5All?5?$CFd?5Interpolation?5Nodes?$AA@ 100450c0     Mc_Cube.obj
 0002:000050e0       ??_C@_0P@HMF@nMKnots?7?5?$DN?5?$CFd?6?$AA@ 100450e0     Mc_Cube.obj
 0002:000050f0       ??_C@_0O@ENE@nKnots?7?5?$DN?5?$CFd?6?$AA@ 100450f0     Mc_Cube.obj
 0002:00005100       ??_C@_0M@CFBE@nDim?7?5?$DN?5?$CFd?6?$AA@ 10045100     Mc_Cube.obj
 0002:0000510c       ??_C@_0P@LLFL@nData_S?7?5?$DN?5?$CFd?6?$AA@ 1004510c     Mc_Cube.obj
 0002:0000511c       ??_C@_0BP@JNPK@CMC_Cube?3?3C3_PrepInterpolation?$AA@ 1004511c     Mc_Cube.obj
 0002:0000513c       ??_C@_0BH@ODJO@?5CMC_Cube?3?5?5?5?5Loading?6?$AA@ 1004513c     Mc_Cube.obj
 0002:00005154       ??_C@_0BH@CEMI@?5CMC_Cube?3?5?5?5?5Storing?6?$AA@ 10045154     Mc_Cube.obj
 0002:0000516c       ??_C@_07DFOJ@CMC_Lin?$AA@  1004516c     Mc_Lin.obj
 0002:00005174       ??_7CMC_Lin@@6B@           10045174     Mc_Lin.obj
 0002:00005188       ??_C@_0BO@LBON@CMC_Lin?3?3C1_PrepInterpolation?$AA@ 10045188     Mc_Lin.obj
 0002:000051a8       ??_C@_0DN@HDEH@Internal?5ERROR?6CMC_Lin?3?3C1_PostI@ 100451a8     Mc_Lin.obj
 0002:000051e8       ??_C@_0BG@FFGA@?5CMC_Lin?3?5?5?5?5Loading?6?$AA@ 100451e8     Mc_Lin.obj
 0002:00005200       ??_C@_0BG@JCDG@?5CMC_Lin?3?5?5?5?5Storing?6?$AA@ 10045200     Mc_Lin.obj
 0002:00005218       ??_C@_09ONF@CMC_Parab?$AA@ 10045218     Mc_Parab.obj
 0002:00005224       ??_7CMC_Parab@@6B@         10045224     Mc_Parab.obj
 0002:00005238       ??_C@_0DF@JDEO@ERROR?3?6CMC_Parab?3?3SetMemory?6m_pD@ 10045238     Mc_Parab.obj
 0002:00005270       ??_C@_0CA@DLBE@CMC_Parab?3?3C2_PrepInterpolation?$AA@ 10045270     Mc_Parab.obj
 0002:00005290       ??_C@_0DM@NHDC@Internal?5ERROR?6CMC_Parab?3?3PostIn@ 10045290     Mc_Parab.obj
 0002:000052cc       ??_C@_0BI@PFKN@?5CMC_Parab?3?5?5?5?5Loading?6?$AA@ 100452cc     Mc_Parab.obj
 0002:000052e4       ??_C@_0BI@DCPL@?5CMC_Parab?3?5?5?5?5Storing?6?$AA@ 100452e4     Mc_Parab.obj
 0002:000052fc       ??_C@_08MGGG@CMC_Quad?$AA@ 100452fc     Mc_Quad.obj
 0002:00005308       ??_7CMC_Quad@@6B@          10045308     Mc_Quad.obj
 0002:0000531c       ??_C@_0BP@JIEF@CMC_Quad?3?3C2_PrepInterpolation?$AA@ 1004531c     Mc_Quad.obj
 0002:0000533c       ??_C@_0BH@KOHA@?5CMC_Quad?3?5?5?5?5Loading?6?$AA@ 1004533c     Mc_Quad.obj
 0002:00005354       ??_C@_0BH@GJCG@?5CMC_Quad?3?5?5?5?5Storing?6?$AA@ 10045354     Mc_Quad.obj
 0002:0000536c       ??_C@_0BH@FNP@MCur?4DLL?5Terminating?$CB?6?$AA@ 1004536c     MCurdll.obj
 0002:00005384       ??_C@_02DILL@?$CFs?$AA@    10045384     MCurdll.obj
 0002:00005388       ??_C@_0BI@FFJO@MCur?4DLL?5Initializing?$CB?6?$AA@ 10045388     MCurdll.obj
 0002:000053a0       ??_C@_08JEOP@CMCurMgr?$AA@ 100453a0     MCurMgr.obj
 0002:000053ac       ??_7CMCurMgr@@6B@          100453ac     MCurMgr.obj
 0002:000053c0       ??_C@_0BD@EPNA@?5EDlgMgr?7?3Loading?6?$AA@ 100453c0     MCurMgr.obj
 0002:000053d4       ??_C@_0BD@IIIG@?5EDlgMgr?7?3Storing?6?$AA@ 100453d4     MCurMgr.obj
 0002:000053e8       ??_C@_09DDPB@CMI_GangC?$AA@ 100453e8     Mi_GangC.obj
 0002:000053f4       ??_7CMI_GangC@@6B@         100453f4     Mi_GangC.obj
 0002:00005408       ??_C@_0EG@MCHE@Internal?5ERROR?3?6CMI_GangC?3?3Creat@ 10045408     Mi_GangC.obj
 0002:00005450       ??_C@_0DH@PJFL@Internal?5ERROR?6CMC_Bezier?3?3SetBZ@ 10045450     Mi_GangC.obj
 0002:00005488       ??_C@_0ED@GCIN@Internal?5ERROR?3?6CMI_GangC?3?3SetIn@ 10045488     Mi_GangC.obj
 0002:000054cc       ??_C@_0BH@PDON@CMC_Circle?3?3SetupKnots?$AA@ 100454cc     Mi_GangC.obj
 0002:000054e4       ??_C@_0BI@OLKH@?5CMI_GangC?3?5?5?5?5Loading?6?$AA@ 100454e4     Mi_GangC.obj
 0002:000054fc       ??_C@_0BI@CMPB@?5CMI_GangC?3?5?5?5?5Storing?6?$AA@ 100454fc     Mi_GangC.obj
 0002:00005518       _IID_IDocHostUIHandlerDispatch 10045518     mfcs42d:stdafx.obj
 0002:00005528       _IID_IInternalConnection   10045528     mfcs42d:stdafx.obj
 0002:00005538       _IID_IAxWinAmbientDispatch 10045538     mfcs42d:stdafx.obj
 0002:00005548       _IID_IAxWinHostWindow      10045548     mfcs42d:stdafx.obj
 0002:00005558       _IID_IRegistrar            10045558     mfcs42d:stdafx.obj
 0002:00005568       _CLSID_Registrar           10045568     mfcs42d:stdafx.obj
 0002:00005578       _LIBID_ATLLib              10045578     mfcs42d:stdafx.obj
 0002:000055b4       ??_C@_08JKC@crtdll?4c?$AA@ 100455b4     msvcrtd:crtdll.obj
 0002:00007f98       __IMPORT_DESCRIPTOR_OMgr_D32 10047f98     OMgr_D32:OMgr_D32.dll
 0002:00007fac       __IMPORT_DESCRIPTOR_Spec_D32 10047fac     Spec_d32:Spec_D32.dll
 0002:00007fc0       __IMPORT_DESCRIPTOR_Draw_D32 10047fc0     Draw_D32:Draw_D32.dll
 0002:00007fd4       __IMPORT_DESCRIPTOR_Elem_D32 10047fd4     Elem_D32:Elem_D32.dll
 0002:00007fe8       __IMPORT_DESCRIPTOR_OGEN_D32 10047fe8     OGen_D32:OGEN_D32.dll
 0002:00007ffc       __IMPORT_DESCRIPTOR_Dr3D_D32 10047ffc     Dr3D_D32:Dr3D_D32.dll
 0002:00008010       __IMPORT_DESCRIPTOR_MNod_D32 10048010     MNod_D32:MNod_D32.dll
 0002:00008024       __IMPORT_DESCRIPTOR_MFC42D 10048024     mfc42d:MFC42D.DLL
 0002:00008038       __IMPORT_DESCRIPTOR_MSVCRTD 10048038     msvcrtd:MSVCRTD.dll
 0002:0000804c       __NULL_IMPORT_DESCRIPTOR   1004804c     OMgr_D32:OMgr_D32.dll
 0003:00000000       ___xc_a                    1005b000     msvcrtd:cinitexe.obj
 0003:00000044       ___xc_z                    1005b044     msvcrtd:cinitexe.obj
 0003:00000048       ___xi_a                    1005b048     msvcrtd:cinitexe.obj
 0003:0000004c       ___xi_z                    1005b04c     msvcrtd:cinitexe.obj
 0003:0000031c       ?__LINE__Var@?1??SetInfoForDataBase@CElg_CNO3@@IAEHPAVCDrCurve@@@Z@4FA 1005b31c     Elg_CNO3.obj
 0003:00000320       ?__LINE__Var@?1??SetAdditionalInfo@CElg_CNO3@@IAEHPAVCDrCurve@@PAN@Z@4FA 1005b320     Elg_CNO3.obj
 0003:00000358       ?classCIn_Circle@CIn_Circle@@2UCRuntimeClass@@A 1005b358     In_Circle.obj
 0003:00000370       ?__LINE__Var@?1??Prepare@CIn_Circle@@QAEHXZ@4FA 1005b370     In_Circle.obj
 0003:00000374       ?__LINE__Var@?1??Interpolate@CIn_Circle@@QAEHXZ@4FA 1005b374     In_Circle.obj
 0003:000003a8       ?classCIn_Conics@CIn_Conics@@2UCRuntimeClass@@A 1005b3a8     In_Conics.obj
 0003:000003c0       ?__LINE__Var@?1??FillUpBezier@CIn_Conics@@IAEHPAUWORLD@@0PAN01HHH@Z@4FA 1005b3c0     In_Conics.obj
 0003:000003f8       ?classCIn_Parab@CIn_Parab@@2UCRuntimeClass@@A 1005b3f8     In_Parab.obj
 0003:00000410       ?__LINE__Var@?1??Prepare@CIn_Parab@@QAEHXZ@4FA 1005b410     In_Parab.obj
 0003:00000414       ?__LINE__Var@?1??Interpolate@CIn_Parab@@QAEHXZ@4FA 1005b414     In_Parab.obj
 0003:00000448       ?classCInter_C1@CInter_C1@@2UCRuntimeClass@@A 1005b448     Inter_c1.obj
 0003:00000460       ?__LINE__Var@?1??Interpolate@CInter_C1@@UAEHXZ@4FA 1005b460     Inter_c1.obj
 0003:00000464       ?__LINE__Var@?1??FillUpSpline@CInter_C1@@IAEHPAUWORLD@@0HH@Z@4FA 1005b464     Inter_c1.obj
 0003:00000468       ?__LINE__Var@?1??FillUpBezier@CInter_C1@@IAEHPAUWORLD@@0HH@Z@4FA 1005b468     Inter_c1.obj
 0003:000004a0       ?classCInter_C2@CInter_C2@@2UCRuntimeClass@@A 1005b4a0     Inter_c2.obj
 0003:000004b8       ?__LINE__Var@?1??Interpolate@CInter_C2@@UAEHXZ@4FA 1005b4b8     Inter_c2.obj
 0003:000004bc       ?__LINE__Var@?1??SetupKnots@CInter_C2@@IAEHPAUWORLD@@W4KNOT@@PANH@Z@4FA 1005b4bc     Inter_c2.obj
 0003:000004c0       ?__LINE__Var@?1??SolveSystem_Open@CInter_C2@@IAEHPAN00PAY03N1HH@Z@4FA 1005b4c0     Inter_c2.obj
 0003:000004c4       ?__LINE__Var@?1??SolveSystem_Close@CInter_C2@@IAEHPAN00PAY03N1HH@Z@4FA 1005b4c4     Inter_c2.obj
 0003:000004c8       ?__LINE__Var@?1??FillUpSpline_Open@CInter_C2@@IAEHPAY03NHPAUWORLD@@PAN12H@Z@4FA 1005b4c8     Inter_c2.obj
 0003:000004cc       ?__LINE__Var@?1??FillUpSpline_Close@CInter_C2@@IAEHPAY03NHPAUWORLD@@PAN12H@Z@4FA 1005b4cc     Inter_c2.obj
 0003:000004d0       ?__LINE__Var@?1??Convert_BS2BZ@CInter_C2@@IAEHPAY03NPAN0HHH@Z@4FA 1005b4d0     Inter_c2.obj
 0003:000004d4       ?__LINE__Var@?1??Convert_BS2BZ@CInter_C2@@IAEHPAY03NPAUWORLD@@PAN221HHH@Z@4FA 1005b4d4     Inter_c2.obj
 0003:000004d8       ?__LINE__Var@?1??Set4DPreImage_BS@CInter_C2@@IAEHPAY03NPAUWORLD@@PAN0HHH@Z@4FA 1005b4d8     Inter_c2.obj
 0003:000004dc       ?__LINE__Var@?1??FillUpBezier@CInter_C2@@IAEHPAY03NPAUWORLD@@PANHHH@Z@4FA 1005b4dc     Inter_c2.obj
 0003:00000510       ?classCInter_C3@CInter_C3@@2UCRuntimeClass@@A 1005b510     Inter_c3.obj
 0003:00000528       ?__LINE__Var@?1??Interpolate@CInter_C3@@UAEHXZ@4FA 1005b528     Inter_c3.obj
 0003:0000052c       ?__LINE__Var@?1??SetupKnots@CInter_C3@@IAEHPAUWORLD@@W4KNOT@@PANH@Z@4FA 1005b52c     Inter_c3.obj
 0003:00000530       ?__LINE__Var@?1??SolveSystem_Open@CInter_C3@@IAEHPAN00PAY03N1HH@Z@4FA 1005b530     Inter_c3.obj
 0003:00000534       ?__LINE__Var@?1??SolveSystem_Close@CInter_C3@@IAEHPAN00PAY03N1HH@Z@4FA 1005b534     Inter_c3.obj
 0003:00000538       ?__LINE__Var@?1??FillUpSpline_Open@CInter_C3@@IAEHPAY03NHPAUWORLD@@PAN12H@Z@4FA 1005b538     Inter_c3.obj
 0003:0000053c       ?__LINE__Var@?1??FillUpSpline_Close@CInter_C3@@IAEHPAY03NHPAUWORLD@@PAN12H@Z@4FA 1005b53c     Inter_c3.obj
 0003:00000540       ?__LINE__Var@?1??Convert_BS2BZ@CInter_C3@@IAEHPAY03NPAN0HHH@Z@4FA 1005b540     Inter_c3.obj
 0003:00000544       ?__LINE__Var@?1??Convert_BS2BZ@CInter_C3@@IAEHPAY03NPAUWORLD@@PAN221HHH@Z@4FA 1005b544     Inter_c3.obj
 0003:00000548       ?__LINE__Var@?1??Set4DPreImage_BS@CInter_C3@@IAEHPAY03NPAUWORLD@@PAN0HHH@Z@4FA 1005b548     Inter_c3.obj
 0003:0000054c       ?__LINE__Var@?1??FillUpBezier@CInter_C3@@IAEHPAY03NPAUWORLD@@PANHHH@Z@4FA 1005b54c     Inter_c3.obj
 0003:00000580       ?classCMC_Bezier@CMC_Bezier@@2UCRuntimeClass@@A 1005b580     Mc_Bezier.obj
 0003:00000598       ?__LINE__Var@?1??C1_SetMemory@CMC_Bezier@@IAEHXZ@4FA 1005b598     Mc_Bezier.obj
 0003:0000059c       ?__LINE__Var@?1??BZ_PostInterpolation@CMC_Bezier@@IAEHPAUWORLD@@0HH@Z@4FA 1005b59c     Mc_Bezier.obj
 0003:000005d0       ?classCMC_Circle@CMC_Circle@@2UCRuntimeClass@@A 1005b5d0     Mc_Circle.obj
 0003:000005e8       ?__LINE__Var@?1??CreateCircle@CMC_Circle@@QAEPAVCDrCurve@@AAVCString@@PAV3@PAVCDListMgr@@W4CURVEPROC@@PAV?$CList@HH@@W4CIRCLETYPE@@NNNHPAVCDrNode@@6H@Z@4FA 1005b5e8     Mc_Circle.obj
 0003:000005ec       ?__LINE__Var@?1??CalcAdditionalInfo_Rot@CMC_Circle@@IAEHPAVCDrCurve@@H@Z@4FA 1005b5ec     Mc_Circle.obj
 0003:000005f0       ?__LINE__Var@?1??CalcAdditionalInfo_3Node@CMC_Circle@@IAEHPAVCDrCurve@@H@Z@4FA 1005b5f0     Mc_Circle.obj
 0003:000005f4       ?__LINE__Var@?1??CalcAdditionalInfo_2N_TI@CMC_Circle@@IAEHPAVCDrCurve@@H@Z@4FA 1005b5f4     Mc_Circle.obj
 0003:000005f8       ?__LINE__Var@?1??CalcAdditionalInfo_2N_CC@CMC_Circle@@IAEHPAVCDrCurve@@H@Z@4FA 1005b5f8     Mc_Circle.obj
 0003:000005fc       ?__LINE__Var@?1??CalcAdditionalInfo_2CN_TI_R@CMC_Circle@@IAEHPAVCDrCurve@@H@Z@4FA 1005b5fc     Mc_Circle.obj
 0003:00000600       ?__LINE__Var@?1??BezierInfo@CMC_Circle@@IAEHPAVCDrCurve@@@Z@4FA 1005b600     Mc_Circle.obj
 0003:00000604       ?__LINE__Var@?1??BezierSeg_N_Mesh_Done@CMC_Circle@@IAEHAAV?$CList@HH@@0AAV?$CList@NN@@AAPAH2AAPANAAH4AAN@Z@4FA 1005b604     Mc_Circle.obj
 0003:00000608       ?__LINE__Var@?1??BezierSeg_N_Mesh_Uniform@CMC_Circle@@IAEHPAVCDrCurve@@AAPAHAAPANNH@Z@4FA 1005b608     Mc_Circle.obj
 0003:0000060c       ?__LINE__Var@?1??BezierSeg_N_Mesh_NonUniform@CMC_Circle@@IAEHPAVCDrCurve@@AAPAHAAPANNNH@Z@4FA 1005b60c     Mc_Circle.obj
 0003:00000610       ?__LINE__Var@?1??GoDoIt@CMC_Circle@@QAEHPAVCDrCurve@@HW4CIRCLETYPE@@@Z@4FA 1005b610     Mc_Circle.obj
 0003:00000614       ?__LINE__Var@?1??SetMemory@CMC_Circle@@IAEHXZ@4FA 1005b614     Mc_Circle.obj
 0003:00000618       ?__LINE__Var@?1??GenerateBezier_b0s_b2s@CMC_Circle@@IAEHPAVCDrCurve@@@Z@4FA 1005b618     Mc_Circle.obj
 0003:0000061c       ?__LINE__Var@?1??GetBezEndPtsbyRotation@CMC_Circle@@IAEHHUWORLD@@0HPANHPAHPAU3@3@Z@4FA 1005b61c     Mc_Circle.obj
 0003:00000620       ?__LINE__Var@?1??PrepInterpolation@CMC_Circle@@IAEHXZ@4FA 1005b620     Mc_Circle.obj
 0003:00000624       ?__LINE__Var@?1??PostInterpolation@CMC_Circle@@IAEHH@Z@4FA 1005b624     Mc_Circle.obj
 0003:00000658       ?classCMC_Cube@CMC_Cube@@2UCRuntimeClass@@A 1005b658     Mc_Cube.obj
 0003:00000670       ?__LINE__Var@?1??GoDoIt@CMC_Cube@@QAEPAVCDrCurve@@XZ@4FA 1005b670     Mc_Cube.obj
 0003:00000674       ?__LINE__Var@?1??C3_SetMemory@CMC_Cube@@IAEHXZ@4FA 1005b674     Mc_Cube.obj
 0003:00000678       ?__LINE__Var@?1??C3_PrepInterpolation@CMC_Cube@@IAEHPAVCInter_C3@@@Z@4FA 1005b678     Mc_Cube.obj
 0003:0000067c       ?__LINE__Var@?1??C3_PostInterpolation@CMC_Cube@@IAEHPAVCInter_C3@@H@Z@4FA 1005b67c     Mc_Cube.obj
 0003:000006b0       ?classCMC_Lin@CMC_Lin@@2UCRuntimeClass@@A 1005b6b0     Mc_Lin.obj
 0003:000006c8       ?__LINE__Var@?1??GoDoIt@CMC_Lin@@QAEPAVCDrCurve@@XZ@4FA 1005b6c8     Mc_Lin.obj
 0003:000006cc       ?__LINE__Var@?1??C1_SetMemory@CMC_Lin@@IAEHXZ@4FA 1005b6cc     Mc_Lin.obj
 0003:000006d0       ?__LINE__Var@?1??C1_PrepInterpolation@CMC_Lin@@IAEHPAVCInter_C1@@@Z@4FA 1005b6d0     Mc_Lin.obj
 0003:000006d4       ?__LINE__Var@?1??C1_PostInterpolation@CMC_Lin@@IAEHPAVCInter_C1@@H@Z@4FA 1005b6d4     Mc_Lin.obj
 0003:00000708       ?classCMC_Parab@CMC_Parab@@2UCRuntimeClass@@A 1005b708     Mc_Parab.obj
 0003:00000720       ?__LINE__Var@?1??GoDoIt@CMC_Parab@@QAEPAVCDrCurve@@XZ@4FA 1005b720     Mc_Parab.obj
 0003:00000724       ?__LINE__Var@?1??SetMemory@CMC_Parab@@IAEHXZ@4FA 1005b724     Mc_Parab.obj
 0003:00000728       ?__LINE__Var@?1??PrepInterpolation@CMC_Parab@@IAEHXZ@4FA 1005b728     Mc_Parab.obj
 0003:0000072c       ?__LINE__Var@?1??PostInterpolation@CMC_Parab@@IAEHH@Z@4FA 1005b72c     Mc_Parab.obj
 0003:00000760       ?classCMC_Quad@CMC_Quad@@2UCRuntimeClass@@A 1005b760     Mc_Quad.obj
 0003:00000778       ?__LINE__Var@?1??GoDoIt@CMC_Quad@@QAEPAVCDrCurve@@XZ@4FA 1005b778     Mc_Quad.obj
 0003:0000077c       ?__LINE__Var@?1??C2_SetMemory@CMC_Quad@@IAEHXZ@4FA 1005b77c     Mc_Quad.obj
 0003:00000780       ?__LINE__Var@?1??C2_PrepInterpolation@CMC_Quad@@IAEHPAVCInter_C2@@@Z@4FA 1005b780     Mc_Quad.obj
 0003:00000784       ?__LINE__Var@?1??C2_PostInterpolation@CMC_Quad@@IAEHPAVCInter_C2@@H@Z@4FA 1005b784     Mc_Quad.obj
 0003:000007ac       __pRawDllMain              1005b7ac     MCurdll.obj
 0003:000007e0       ?classCMCurMgr@CMCurMgr@@2UCRuntimeClass@@A 1005b7e0     MCurMgr.obj
 0003:00000828       ?classCMI_GangC@CMI_GangC@@2UCRuntimeClass@@A 1005b828     Mi_GangC.obj
 0003:00000840       ?__LINE__Var@?1??CreateBezCNsFromTanEnds_Cubic@CMI_GangC@@QAEHPAVCDrCurve@@@Z@4FA 1005b840     Mi_GangC.obj
 0003:00000844       ?__LINE__Var@?1??SetInfoForCurveBase@CMI_GangC@@QAEXPAVCDrCurve@@PAV?$CList@HH@@H@Z@4FA 1005b844     Mi_GangC.obj
 0003:00000848       ?__LINE__Var@?1??SetBZ_Knots@CMI_GangC@@QAEHPAVCDrCurve@@@Z@4FA 1005b848     Mi_GangC.obj
 0003:0000084c       ?__LINE__Var@?1??SetInfoForBezierPtsBase@CMI_GangC@@QAEXPAVCDrCurve@@PAV?$CList@HH@@H@Z@4FA 1005b84c     Mi_GangC.obj
 0003:00000850       ?__LINE__Var@?1??SetupKnots@CMI_GangC@@QAEHPAUWORLD@@W4KNOT@@PANH@Z@4FA 1005b850     Mi_GangC.obj
 0003:00000858       ?GUID_ATLVer30@ATL@@3U_GUID@@A 1005b858     mfcs42d:stdafx.obj
 0003:00000898       ?_init_CIn_Circle@@3UAFX_CLASSINIT@@A 1005b898     In_Circle.obj
 0003:0000089c       ?_init_CIn_Conics@@3UAFX_CLASSINIT@@A 1005b89c     In_Conics.obj
 0003:000008a0       ?_init_CIn_Parab@@3UAFX_CLASSINIT@@A 1005b8a0     In_Parab.obj
 0003:000008a4       ?_init_CInter_C1@@3UAFX_CLASSINIT@@A 1005b8a4     Inter_c1.obj
 0003:000008a8       ?_init_CInter_C2@@3UAFX_CLASSINIT@@A 1005b8a8     Inter_c2.obj
 0003:000008ac       ?_init_CInter_C3@@3UAFX_CLASSINIT@@A 1005b8ac     Inter_c3.obj
 0003:000008b0       ?_init_CMC_Bezier@@3UAFX_CLASSINIT@@A 1005b8b0     Mc_Bezier.obj
 0003:000008b4       ?_init_CMC_Circle@@3UAFX_CLASSINIT@@A 1005b8b4     Mc_Circle.obj
 0003:000008b8       ?_init_CMC_Cube@@3UAFX_CLASSINIT@@A 1005b8b8     Mc_Cube.obj
 0003:000008bc       ?_init_CMC_Lin@@3UAFX_CLASSINIT@@A 1005b8bc     Mc_Lin.obj
 0003:000008c0       ?_init_CMC_Parab@@3UAFX_CLASSINIT@@A 1005b8c0     Mc_Parab.obj
 0003:000008c4       ?_init_CMC_Quad@@3UAFX_CLASSINIT@@A 1005b8c4     Mc_Quad.obj
 0003:000008c8       __afxForceEXTDLL           1005b8c8     MCurdll.obj
 0003:000008d0       ?extensionMCur_DLL@@3UAFX_EXTENSION_MODULE@@A 1005b8d0     MCurdll.obj
 0003:000008e4       ?_init_CMCurMgr@@3UAFX_CLASSINIT@@A 1005b8e4     MCurMgr.obj
 0003:000008e8       ?_init_CMI_GangC@@3UAFX_CLASSINIT@@A 1005b8e8     Mi_GangC.obj
 0003:000008ec       __afxForceEXCLUDE          1005b8ec     mfcs42d:nolib.obj
 0003:000008f0       ?ATL_CREATE_OBJECT@CComApartment@ATL@@2IA 1005b8f0     mfcs42d:stdafx.obj
 0003:000008f8       ?m_libid@CComModule@ATL@@2U_GUID@@A 1005b8f8     mfcs42d:stdafx.obj
 0003:00000908       ?_pModule@ATL@@3PAVCComModule@1@A 1005b908     mfcs42d:stdafx.obj
 0003:0000090c       __afxForceSTDAFX           1005b90c     mfcs42d:stdafx.obj
 0003:00000914       __adjust_fdiv              1005b914     <common>
 0003:00000918       ___onexitend               1005b918     <common>
 0003:0000091c       ___onexitbegin             1005b91c     <common>

 entry point at        0001:0003c640

 Static symbols

 0001:00037f70       _$E306                     10038f70 f   Mi_GangC.obj
 0001:00037f90       _$E305                     10038f90 f   Mi_GangC.obj
 0001:00037800       _$E299                     10038800 f   MCurMgr.obj
 0001:00037820       _$E298                     10038820 f   MCurMgr.obj
 0001:00035cc0       _$E296                     10036cc0 f   Mc_Quad.obj
 0001:00035ce0       _$E295                     10036ce0 f   Mc_Quad.obj
 0001:00034650       _$E297                     10035650 f   Mc_Parab.obj
 0001:00034670       _$E296                     10035670 f   Mc_Parab.obj
 0001:00033070       _$E296                     10034070 f   Mc_Lin.obj
 0001:00033090       _$E295                     10034090 f   Mc_Lin.obj
 0001:000316d0       _$E296                     100326d0 f   Mc_Cube.obj
 0001:000316f0       _$E295                     100326f0 f   Mc_Cube.obj
 0001:0002a860       _$E295                     1002b860 f   Mc_Circle.obj
 0001:0002a880       _$E294                     1002b880 f   Mc_Circle.obj
 0001:00029580       _$E295                     1002a580 f   Mc_Bezier.obj
 0001:000295a0       _$E294                     1002a5a0 f   Mc_Bezier.obj
 0001:00022870       _$E288                     10023870 f   Inter_c3.obj
 0001:00022890       _$E287                     10023890 f   Inter_c3.obj
 0001:0001cfb0       _$E288                     1001dfb0 f   Inter_c2.obj
 0001:0001cfd0       _$E287                     1001dfd0 f   Inter_c2.obj
 0001:0001c350       _$E288                     1001d350 f   Inter_c1.obj
 0001:0001c370       _$E287                     1001d370 f   Inter_c1.obj
 0001:0001bb10       _$E290                     1001cb10 f   In_Parab.obj
 0001:0001bb30       _$E289                     1001cb30 f   In_Parab.obj
 0001:0001ac60       _$E289                     1001bc60 f   In_Conics.obj
 0001:0001ac80       _$E288                     1001bc80 f   In_Conics.obj
 0001:0001a360       _$E290                     1001b360 f   In_Circle.obj
 0001:0001a380       _$E289                     1001b380 f   In_Circle.obj
 0001:00009590       _$E297                     1000a590 f   Dlg_CClk.obj
 0001:000095b0       _$E294                     1000a5b0 f   Dlg_CClk.obj
 0001:00009630       _$E296                     1000a630 f   Dlg_CClk.obj
 0001:00009650       _$E295                     1000a650 f   Dlg_CClk.obj
 0001:00009680       _$E302                     1000a680 f   Dlg_CClk.obj
 0001:000096a0       _$E299                     1000a6a0 f   Dlg_CClk.obj
 0001:000096e0       _$E301                     1000a6e0 f   Dlg_CClk.obj
 0001:00009700       _$E300                     1000a700 f   Dlg_CClk.obj
 0001:0003c3c0       ?ArrayUnwindFilter@@YAHPAU_EXCEPTION_POINTERS@@@Z 1003d3c0 f   msvcrtd:ehvecdtr.obj
