 OGen_D32

 Timestamp is 4035524f (Thu Feb 19 16:18:23 2004)

 Preferred load address is 10000000

 Start         Length     Name                   Class
 0001:00000000 00044508H .text                   CODE
 0001:00044510 00000019H .text$AFX_COL1          CODE
 0001:00044530 000025a3H .text$x                 CODE
 0002:00000000 000002d0H .idata$5                DATA
 0002:000002d0 0000338dH .rdata                  DATA
 0002:00003660 00002618H .xdata$x                DATA
 0002:00005c78 00000050H .idata$2                DATA
 0002:00005cc8 00000014H .idata$3                DATA
 0002:00005cdc 000002d0H .idata$4                DATA
 0002:00005fac 00000e70H .idata$6                DATA
 0002:00006e20 00010b98H .edata                  DATA
 0003:00000000 00000004H .CRT$XCA                DATA
 0003:00000004 0000001cH .CRT$XCU                DATA
 0003:00000020 00000004H .CRT$XCZ                DATA
 0003:00000024 00000004H .CRT$XIA                DATA
 0003:00000028 00000004H .CRT$XIZ                DATA
 0003:00000030 00002050H .data                   DATA
 0003:00002080 00000360H .bss                    DATA

  Address         Publics by Value              Rva+Base     Lib:Object

 0001:00000000       ?Set3DPts@C3DMath@@QAEXPAULPOINT3@@JJJ@Z 10001000 f i Curve.obj
 0001:00000030       ?Set3DPts@C3DMath@@QAEXPAUWORLD@@NNN@Z 10001030 f i Curve.obj
 0001:00000080       ?Len3DPts@C3DMath@@QAENPAUWORLD@@@Z 10001080 f i Curve.obj
 0001:000000d0       ??1C3DMath@@UAE@XZ         100010d0 f i Curve.obj
 0001:00000100       ??_GC3DMath@@UAEPAXI@Z     10001100 f i Curve.obj
 0001:00000140       ??_EC3DMath@@UAEPAXI@Z     10001140 f i Curve.obj
 0001:000001c0       ??1CCurve@@UAE@XZ          100011c0 f i Curve.obj
 0001:000001f0       ??_GCCurve@@UAEPAXI@Z      100011f0 f i Curve.obj
 0001:00000230       ??_ECCurve@@UAEPAXI@Z      10001230 f i Curve.obj
 0001:000002b0       ?_GetBaseClass@CCurve@@KGPAUCRuntimeClass@@XZ 100012b0 f   Curve.obj
 0001:000002d0       ?GetRuntimeClass@CCurve@@UBEPAUCRuntimeClass@@XZ 100012d0 f   Curve.obj
 0001:000002f0       ??0CCurve@@QAE@XZ          100012f0 f   Curve.obj
 0001:00000340       ?CtlPtStep@CCurve@@QAEHW4CURVEPROC@@H@Z 10001340 f   Curve.obj
 0001:00000420       ?NumberOfCurves@CCurve@@QAEHW4CURVEPROC@@HPAHHH@Z 10001420 f   Curve.obj
 0001:00000490       ?DegreeElevate_Seg@CCurve@@QAEHPAUWORLD@@0H@Z 10001490 f   Curve.obj
 0001:00000620       ?Rat_DegreeElevate_Seg@CCurve@@QAEHPAUWORLD@@PAN01H@Z 10001620 f   Curve.obj
 0001:00000860       ?Tangent_t@CCurve@@QAEHPAUWORLD@@NHAAU2@@Z 10001860 f   Curve.obj
 0001:00000960       ?Tangent_0@CCurve@@QAEHPAUWORLD@@HAAU2@@Z 10001960 f   Curve.obj
 0001:000009f0       ?Tangent_0@CCurve@@QAEHUWORLD@@0HAAU2@@Z 100019f0 f   Curve.obj
 0001:00000a80       ?Tangent_1@CCurve@@QAEHUWORLD@@0HAAU2@@Z 10001a80 f   Curve.obj
 0001:00000b10       ?Curvature_t@CCurve@@QAENPAUWORLD@@NH@Z 10001b10 f   Curve.obj
 0001:00000bf0       ?Curvature_0@CCurve@@QAENPAUWORLD@@H@Z 10001bf0 f   Curve.obj
 0001:00000ce0       ?SubDivide_t@CCurve@@QAEHPAUWORLD@@N0HH@Z 10001ce0 f   Curve.obj
 0001:00000ff0       ?Rat_Tangent_t@CCurve@@QAEHPAUWORLD@@PANNHAAU2@@Z 10001ff0 f   Curve.obj
 0001:00001140       ?Rat_Tangent_t_for_Patch@CCurve@@QAEHPAUWORLD@@PANNH1AAU2@@Z 10002140 f   Curve.obj
 0001:000012a0       ?Rat_Tangent_0@CCurve@@QAEHUWORLD@@0NNHAAU2@@Z 100022a0 f   Curve.obj
 0001:00001340       ?Rat_Tangent_0@CCurve@@QAEHPAUWORLD@@PANHAAU2@@Z 10002340 f   Curve.obj
 0001:000013e0       ?Rat_Tangent_1@CCurve@@QAEHUWORLD@@0NNHAAU2@@Z 100023e0 f   Curve.obj
 0001:00001480       ?Rat_Curvature_t@CCurve@@QAENPAUWORLD@@PANNH@Z 10002480 f   Curve.obj
 0001:000015b0       ?Rat_Curvature_0@CCurve@@QAENPAUWORLD@@PANH@Z 100025b0 f   Curve.obj
 0001:000016b0       ?TriangleArea@CCurve@@QAENUWORLD@@00@Z 100026b0 f   Curve.obj
 0001:00001770       ?Rat_SubDivide_t@CCurve@@QAEHPAUWORLD@@PANN01HH@Z 10002770 f   Curve.obj
 0001:00001bb0       ?GetTangentAtaNode@CCurve@@QAEHUWORLD@@AAU2@HHHHPANPAU2@N@Z 10002bb0 f   Curve.obj
 0001:00001c90       ?GetCurrentBezSeg_N_ControlIndex@CCurve@@QAEHUWORLD@@AAH1HHHPANPAU2@N@Z 10002c90 f   Curve.obj
 0001:00001db0       ?GetBezSegEndTangent_0@CCurve@@QAEHHHPAUWORLD@@PANHHAAU2@@Z 10002db0 f   Curve.obj
 0001:00001ed0       ?GetBezSegEndTangent_1@CCurve@@QAEHHHPAUWORLD@@PANHHAAU2@@Z 10002ed0 f   Curve.obj
 0001:00001ff0       ?_GetBaseClass@CCurve_1@@KGPAUCRuntimeClass@@XZ 10002ff0 f   Curve_1.obj
 0001:00002010       ?GetRuntimeClass@CCurve_1@@UBEPAUCRuntimeClass@@XZ 10003010 f   Curve_1.obj
 0001:00002030       ??0CCurve_1@@QAE@XZ        10003030 f   Curve_1.obj
 0001:00002060       ??_ECCurve_1@@UAEPAXI@Z    10003060 f i Curve_1.obj
 0001:00002060       ??_GCCurve_1@@UAEPAXI@Z    10003060 f i Curve_1.obj
 0001:000020a0       ??1CCurve_1@@UAE@XZ        100030a0 f i Curve_1.obj
 0001:000020d0       ?SetBasis@CCurve_1@@QAEPAY01NW4CURVEPROC@@NNN@Z 100030d0 f   Curve_1.obj
 0001:00002110       ?GetBlending_NUSpline@CCurve_1@@IAEXHNPAN0@Z 10003110 f   Curve_1.obj
 0001:00002130       ?HO_GetAPointOnABezSegCurve@CCurve_1@@QAEHHPAUWORLD@@HPANHN01H@Z 10003130 f   Curve_1.obj
 0001:000021e0       ?HO_GenerateAPointOnASingleBezCurve@CCurve_1@@IAEHPAUWORLD@@HPANN01@Z 100031e0 f   Curve_1.obj
 0001:000023b0       ?HO_MakeCurves@CCurve_1@@QAEHHPAY01NHHPAUWORLD@@HPANPAH212H@Z 100033b0 f   Curve_1.obj
 0001:000024b0       ?HO_Make_A_Curve@CCurve_1@@QAEHHPAUWORLD@@PANHPAY01N0H1H101H@Z 100034b0 f   Curve_1.obj
 0001:00002790       ?HO_Make_A_Curve_Pt@CCurve_1@@QAEHPAY03NHNPAUWORLD@@PAN@Z 10003790 f   Curve_1.obj
 0001:00002890       ?HO_ComputeMG@CCurve_1@@QAEXPAY03NPAY01N0H@Z 10003890 f   Curve_1.obj
 0001:00002ae0       ??_GCString@@QAEPAXI@Z     10003ae0 f i Curve_1.obj
 0001:00002b20       ?FD_ForwardDifference@CCurve_1@@IAEPAY01NH@Z 10003b20 f   Curve_1.obj
 0001:00002c90       ?FD_ComputeEA@CCurve_1@@IAEXPAY03NPAY01N0@Z 10003c90 f   Curve_1.obj
 0001:00002d50       ?FD_MultMat@CCurve_1@@IAEXPAY01N00@Z 10003d50 f   Curve_1.obj
 0001:00002e10       ?FD_GeneratePoints_Unif@CCurve_1@@IAEHPAY03NHPAUWORLD@@H@Z 10003e10 f   Curve_1.obj
 0001:00002f50       ?FD_ComputeFDiff_x_Mcoeff@CCurve_1@@IAEPAY01NW4CURVEPROC@@NNNH@Z 10003f50 f   Curve_1.obj
 0001:00003030       ?FD_MakeCurves@CCurve_1@@IAEHHPAUWORLD@@HPANPAH0H@Z 10004030 f   Curve_1.obj
 0001:00003340       ?GenerateCurve@CCurve_1@@QAEHW4CURVEOUTPUT@@HHPAUWORLD@@HPANPAH212HH@Z 10004340 f   Curve_1.obj
 0001:000036d0       ?MakeTangents@CCurve_1@@QAEHHHPAUWORLD@@HPANPAH10H@Z 100046d0 f   Curve_1.obj
 0001:00003840       ?MakeCurvatures@CCurve_1@@QAEHHHPAUWORLD@@HPANPAH11H@Z 10004840 f   Curve_1.obj
 0001:00003980       ?_GetBaseClass@CCurve_2@@KGPAUCRuntimeClass@@XZ 10004980 f   Curve_2.obj
 0001:000039a0       ?GetRuntimeClass@CCurve_2@@UBEPAUCRuntimeClass@@XZ 100049a0 f   Curve_2.obj
 0001:000039c0       ??0CCurve_2@@QAE@XZ        100049c0 f   Curve_2.obj
 0001:000039f0       ??_ECCurve_2@@UAEPAXI@Z    100049f0 f i Curve_2.obj
 0001:000039f0       ??_GCCurve_2@@UAEPAXI@Z    100049f0 f i Curve_2.obj
 0001:00003a30       ??1CCurve_2@@UAE@XZ        10004a30 f i Curve_2.obj
 0001:00003a60       ?SetBasis@CCurve_2@@QAEPAY02NW4CURVEPROC@@NNN@Z 10004a60 f   Curve_2.obj
 0001:00003aa0       ?GetBlending_NUSpline@CCurve_2@@IAEXHNPAN0@Z 10004aa0 f   Curve_2.obj
 0001:00003ac0       ?HO_GetAPointOnABezSegCurve@CCurve_2@@QAEHHPAUWORLD@@HPANHN01H@Z 10004ac0 f   Curve_2.obj
 0001:00003b70       ?HO_GenerateAPointOnASingleBezCurve@CCurve_2@@IAEHPAUWORLD@@HPANN01@Z 10004b70 f   Curve_2.obj
 0001:00003d40       ?HO_MakeCurves@CCurve_2@@QAEHHPAY02NHHPAUWORLD@@HPANPAH212H@Z 10004d40 f   Curve_2.obj
 0001:00003e50       ?HO_Make_A_Curve@CCurve_2@@QAEHHPAUWORLD@@PANHPAY02N0H1H101H@Z 10004e50 f   Curve_2.obj
 0001:00004130       ?HO_Make_A_Curve_Pt@CCurve_2@@QAEHPAY03NHNPAUWORLD@@PAN@Z 10005130 f   Curve_2.obj
 0001:00004270       ?HO_ComputeMG@CCurve_2@@QAEXPAY03NPAY02N0H@Z 10005270 f   Curve_2.obj
 0001:000044c0       ?FD_ForwardDifference@CCurve_2@@IAEPAY02NH@Z 100054c0 f   Curve_2.obj
 0001:00004630       ?FD_ComputeEA@CCurve_2@@IAEXPAY03NPAY02N0@Z 10005630 f   Curve_2.obj
 0001:000046f0       ?FD_MultMat@CCurve_2@@IAEXPAY02N00@Z 100056f0 f   Curve_2.obj
 0001:000047b0       ?FD_GeneratePoints_Unif@CCurve_2@@IAEHPAY03NHPAUWORLD@@H@Z 100057b0 f   Curve_2.obj
 0001:000048f0       ?FD_ComputeFDiff_x_Mcoeff@CCurve_2@@IAEPAY02NW4CURVEPROC@@NNNH@Z 100058f0 f   Curve_2.obj
 0001:000049f0       ?FD_MakeCurves@CCurve_2@@IAEHHPAUWORLD@@HPANPAH0H@Z 100059f0 f   Curve_2.obj
 0001:00004d00       ?GenerateCurve@CCurve_2@@QAEHW4CURVEOUTPUT@@HHPAUWORLD@@HPANPAH212HH@Z 10005d00 f   Curve_2.obj
 0001:00005090       ?MakeTangents@CCurve_2@@QAEHHHPAUWORLD@@HPANPAH10H@Z 10006090 f   Curve_2.obj
 0001:00005400       ?MakeCurvatures@CCurve_2@@QAEHHHPAUWORLD@@HPANPAH11H@Z 10006400 f   Curve_2.obj
 0001:00005730       ?_GetBaseClass@CCurve_3@@KGPAUCRuntimeClass@@XZ 10006730 f   Curve_3.obj
 0001:00005750       ?GetRuntimeClass@CCurve_3@@UBEPAUCRuntimeClass@@XZ 10006750 f   Curve_3.obj
 0001:00005770       ??0CCurve_3@@QAE@XZ        10006770 f   Curve_3.obj
 0001:000057c0       ??_ECCurve_3@@UAEPAXI@Z    100067c0 f i Curve_3.obj
 0001:000057c0       ??_GCCurve_3@@UAEPAXI@Z    100067c0 f i Curve_3.obj
 0001:00005800       ??1CCurve_3@@UAE@XZ        10006800 f i Curve_3.obj
 0001:00005830       ?SetBasis@CCurve_3@@QAEPAY03NW4CURVEPROC@@NNN@Z 10006830 f   Curve_3.obj
 0001:00005e10       ?GetBlending_NUSpline@CCurve_3@@IAEXHNPAN0@Z 10006e10 f   Curve_3.obj
 0001:000061f0       ?HO_GetAPointOnABezSegCurve@CCurve_3@@QAEHHPAUWORLD@@HPANHN01H@Z 100071f0 f   Curve_3.obj
 0001:000062b0       ?HO_GenerateAPointOnASingleBezCurve@CCurve_3@@IAEHPAUWORLD@@HPANN01@Z 100072b0 f   Curve_3.obj
 0001:00006490       ?HO_MakeCurves@CCurve_3@@QAEHHPAY03NHHPAUWORLD@@HPANPAH212H@Z 10007490 f   Curve_3.obj
 0001:000065b0       ?HO_Make_A_Curve@CCurve_3@@QAEHHPAUWORLD@@PANHPAY03N0H1H101H@Z 100075b0 f   Curve_3.obj
 0001:000068a0       ?HO_Make_A_Curve_Pt@CCurve_3@@QAEHPAY03NHNPAUWORLD@@PAN@Z 100078a0 f   Curve_3.obj
 0001:00006a20       ?HO_ComputeMG@CCurve_3@@QAEXPAY03N00H@Z 10007a20 f   Curve_3.obj
 0001:00006c70       ?FD_ForwardDifference@CCurve_3@@IAEPAY03NH@Z 10007c70 f   Curve_3.obj
 0001:00006de0       ?FD_ComputeEA@CCurve_3@@IAEXPAY03N00@Z 10007de0 f   Curve_3.obj
 0001:00006ea0       ?FD_GeneratePoints_Unif@CCurve_3@@IAEHPAY03NHPAUWORLD@@H@Z 10007ea0 f   Curve_3.obj
 0001:00006fe0       ?FD_ComputeFDiff_x_Mcoeff@CCurve_3@@IAEPAY03NW4CURVEPROC@@NNNH@Z 10007fe0 f   Curve_3.obj
 0001:000070f0       ?FD_MakeCurves@CCurve_3@@IAEHHPAUWORLD@@HPANPAH0H@Z 100080f0 f   Curve_3.obj
 0001:00007400       ?GenerateCurve@CCurve_3@@QAEHW4CURVEOUTPUT@@HHPAUWORLD@@HPANPAH212HH@Z 10008400 f   Curve_3.obj
 0001:00007790       ?MakeTangents@CCurve_3@@QAEHHHPAUWORLD@@HPANPAH10H@Z 10008790 f   Curve_3.obj
 0001:00007900       ?MakeCurvatures@CCurve_3@@QAEHHHPAUWORLD@@HPANPAH11H@Z 10008900 f   Curve_3.obj
 0001:00007a40       ?SetParallel@CXForm@@UAEXH@Z 10008a40 f i Drcurve.obj
 0001:00007a60       ?GetParallel@CXForm@@UAEHXZ 10008a60 f i Drcurve.obj
 0001:00007a80       ??1CXForm@@UAE@XZ          10008a80 f i Drcurve.obj
 0001:00007ab0       ??_GCXForm@@UAEPAXI@Z      10008ab0 f i Drcurve.obj
 0001:00007af0       ??_ECXForm@@UAEPAXI@Z      10008af0 f i Drcurve.obj
 0001:00007b70       ?GetMatrix@CMatObj@@UAEPAUMATRIX@@XZ 10008b70 f i Drcurve.obj
 0001:00007b90       ?SetMatrix@CMatObj@@UAEXPAUMATRIX@@@Z 10008b90 f i Drcurve.obj
 0001:00007c00       ?GetCurveLatch@CMatObj@@UAE?AW4CURVELATCH@@XZ 10008c00 f i Drcurve.obj
 0001:00007c20       ?SetCurveLatch@CMatObj@@UAEXW4CURVELATCH@@@Z 10008c20 f i Drcurve.obj
 0001:00007c40       ?IsInstanced_Prof@CMatObj@@UAEHXZ 10008c40 f i Drcurve.obj
 0001:00007c60       ?SetInstanced_Prof@CMatObj@@UAEXH@Z 10008c60 f i Drcurve.obj
 0001:00007c80       ?GetFromID@CMatObj@@UAE?AVCString@@XZ 10008c80 f i Drcurve.obj
 0001:00007cc0       ?SetFromID@CMatObj@@UAEXVCString@@@Z 10008cc0 f i Drcurve.obj
 0001:00007d20       ?GetFromPt@CMatObj@@UAE?AUWORLD@@XZ 10008d20 f i Drcurve.obj
 0001:00007d50       ?SetFromPt@CMatObj@@UAEXUWORLD@@@Z 10008d50 f i Drcurve.obj
 0001:00007d80       ?GetToID@CMatObj@@UAE?AVCString@@XZ 10008d80 f i Drcurve.obj
 0001:00007dc0       ?SetToID@CMatObj@@UAEXVCString@@@Z 10008dc0 f i Drcurve.obj
 0001:00007e20       ?GetToPt@CMatObj@@UAE?AUWORLD@@XZ 10008e20 f i Drcurve.obj
 0001:00007e50       ?SetToPt@CMatObj@@UAEXUWORLD@@@Z 10008e50 f i Drcurve.obj
 0001:00007e80       ?GetRotPtID@CMatObj@@UAE?AVCString@@XZ 10008e80 f i Drcurve.obj
 0001:00007ec0       ?SetRotPtID@CMatObj@@UAEXVCString@@@Z 10008ec0 f i Drcurve.obj
 0001:00007f20       ?GetRotPt@CMatObj@@UAE?AUWORLD@@XZ 10008f20 f i Drcurve.obj
 0001:00007f50       ?SetRotPt@CMatObj@@UAEXUWORLD@@@Z 10008f50 f i Drcurve.obj
 0001:00007f80       ?IsCoordIn@CMatObj@@UAEHXZ 10008f80 f i Drcurve.obj
 0001:00007fa0       ?SetCoordIn@CMatObj@@UAEXH@Z 10008fa0 f i Drcurve.obj
 0001:00007fd0       ?GetTranPtID@CMatObj@@UAE?AVCString@@XZ 10008fd0 f i Drcurve.obj
 0001:00008010       ?SetTranPtID@CMatObj@@UAEXVCString@@@Z 10009010 f i Drcurve.obj
 0001:00008070       ?GetTranslation@CMatObj@@UAE?AUWORLD@@XZ 10009070 f i Drcurve.obj
 0001:000080a0       ?SetTranslation@CMatObj@@UAEXUWORLD@@@Z 100090a0 f i Drcurve.obj
 0001:000080d0       ?IsAngleIn@CMatObj@@UAEHXZ 100090d0 f i Drcurve.obj
 0001:000080f0       ?SetAngleIn@CMatObj@@UAEXH@Z 100090f0 f i Drcurve.obj
 0001:00008120       ?IsDirCos@CMatObj@@UAEHXZ  10009120 f i Drcurve.obj
 0001:00008140       ?SetDirCos@CMatObj@@UAEXH@Z 10009140 f i Drcurve.obj
 0001:00008170       ?GetDirCosDirect@CMatObj@@UAE?AUWORLD@@XZ 10009170 f i Drcurve.obj
 0001:000081a0       ?SetDirCosDirect@CMatObj@@UAEXUWORLD@@@Z 100091a0 f i Drcurve.obj
 0001:000081d0       ?GetRotation@CMatObj@@UAE?AUWORLD@@XZ 100091d0 f i Drcurve.obj
 0001:00008200       ?SetRotation@CMatObj@@UAEXUWORLD@@@Z 10009200 f i Drcurve.obj
 0001:00008230       ?GetScale@CMatObj@@UAE?AUWORLD@@XZ 10009230 f i Drcurve.obj
 0001:00008260       ?SetScale@CMatObj@@UAEXUWORLD@@@Z 10009260 f i Drcurve.obj
 0001:00008290       ?GetShear@CMatObj@@UAE?AUWORLD@@XZ 10009290 f i Drcurve.obj
 0001:000082c0       ?SetShear@CMatObj@@UAEXUWORLD@@@Z 100092c0 f i Drcurve.obj
 0001:000082f0       ?IsNoRot@CMatObj@@UAEHXZ   100092f0 f i Drcurve.obj
 0001:00008310       ?SetNoRot@CMatObj@@UAEXH@Z 10009310 f i Drcurve.obj
 0001:00008340       ?IsNoTran@CMatObj@@UAEHXZ  10009340 f i Drcurve.obj
 0001:00008360       ?SetNoTran@CMatObj@@UAEXH@Z 10009360 f i Drcurve.obj
 0001:00008390       ?IsNoScale@CMatObj@@UAEHXZ 10009390 f i Drcurve.obj
 0001:000083b0       ?SetNoScale@CMatObj@@UAEXH@Z 100093b0 f i Drcurve.obj
 0001:000083e0       ?IsNoShear@CMatObj@@UAEHXZ 100093e0 f i Drcurve.obj
 0001:00008400       ?SetNoShear@CMatObj@@UAEXH@Z 10009400 f i Drcurve.obj
 0001:00008430       ?GetXformType@CMatObj@@UAE?AW4XFORMTYPE@@XZ 10009430 f i Drcurve.obj
 0001:00008450       ?SetXformType@CMatObj@@UAEXW4XFORMTYPE@@@Z 10009450 f i Drcurve.obj
 0001:00008480       ?GetSpawnType@CMatObj@@UAE?AW4SPAWNTYPE@@XZ 10009480 f i Drcurve.obj
 0001:000084a0       ?SetSpawnType@CMatObj@@UAEXW4SPAWNTYPE@@@Z 100094a0 f i Drcurve.obj
 0001:000084d0       ?GetCreOp@CMatObj@@UAEIXZ  100094d0 f i Drcurve.obj
 0001:000084f0       ?SetCreOp@CMatObj@@UAEXI@Z 100094f0 f i Drcurve.obj
 0001:00008520       ??1CMatObj@@UAE@XZ         10009520 f i Drcurve.obj
 0001:000085c0       ??_GCMatObj@@UAEPAXI@Z     100095c0 f i Drcurve.obj
 0001:00008600       ??_ECMatObj@@UAEPAXI@Z     10009600 f i Drcurve.obj
 0001:00008680       ?ReadyToDelete@CDrObject@@UAEXXZ 10009680 f i Drcurve.obj
 0001:000086a0       ?DoFormattedCardView@CDrObject@@UAEXPAVCString@@AAV2@@Z 100096a0 f i Drcurve.obj
 0001:000086c0       ?DoUnFormattedCardView@CDrObject@@UAEXPAVCString@@@Z 100096c0 f i Drcurve.obj
 0001:000086e0       ?DoDataView@CDrObject@@UAEXPAVCDC@@H@Z 100096e0 f i Drcurve.obj
 0001:00008700       ?InitDraw@CDrObject@@UAEXPAVCDC@@HHPAUMATRIX@@1NNN@Z 10009700 f i Drcurve.obj
 0001:00008720       ?InitDraw@CDrObject@@UAEXPAVCDC@@HHPAUMATRIX@@1NNNN@Z 10009720 f i Drcurve.obj
 0001:00008740       ?Corner_3Dto2D@CDrObject@@UAEXXZ 10009740 f i Drcurve.obj
 0001:00008760       ?DoDrawView@CDrObject@@UAEXPAVCDC@@@Z 10009760 f i Drcurve.obj
 0001:00008780       ?DoDrawView@CDrObject@@UAEXPAVCDC@@H@Z 10009780 f i Drcurve.obj
 0001:000087a0       ?DoDrawView@CDrObject@@UAEXPAVCDC@@HH@Z 100097a0 f i Drcurve.obj
 0001:000087c0       ?DealObjectDialog@CDrObject@@UAEHXZ 100097c0 f i Drcurve.obj
 0001:000087e0       ?TransformObjectToWorld@CDrObject@@UAEXPAUMATRIX@@H@Z 100097e0 f i Drcurve.obj
 0001:00008800       ?TransformObjectToView@CDrObject@@UAEXPAUMATRIX@@@Z 10009800 f i Drcurve.obj
 0001:00008820       ?TransformObjectToViewDirect@CDrObject@@UAEXPAUMATRIX@@00H@Z 10009820 f i Drcurve.obj
 0001:00008840       ?RemoveHiddenObject@CDrObject@@UAEHPAUMATRIX@@UWORLD@@H@Z 10009840 f i Drcurve.obj
 0001:00008860       ?ProjectObject@CDrObject@@UAEXPAUMATRIX@@NN@Z 10009860 f i Drcurve.obj
 0001:00008880       ?Calc_2DBoundsScreen@CDrObject@@UAEHXZ 10009880 f i Drcurve.obj
 0001:000088a0       ?Calc_3DBoundsLocal@CDrObject@@UAEHXZ 100098a0 f i Drcurve.obj
 0001:000088c0       ?FinishObject@CDrObject@@UAEXPAVCClientDC@@H@Z 100098c0 f i Drcurve.obj
 0001:000088e0       ?FinishObject@CDrObject@@UAEXH@Z 100098e0 f i Drcurve.obj
 0001:00008900       ?FinishObject@CDrObject@@UAEXXZ 10009900 f i Drcurve.obj
 0001:00008920       ?GetMaxCorners@CDrObject@@UAEHXZ 10009920 f i Drcurve.obj
 0001:00008940       ?GetRawCoords@CDrObject@@UAEXPAJPAHH@Z 10009940 f i Drcurve.obj
 0001:00008960       ?SetProjectedCoords@CDrObject@@UAEXUtagPOINT@@H@Z 10009960 f i Drcurve.obj
 0001:00008980       ?RearrangeProjectedCoords@CDrObject@@UAEXXZ 10009980 f i Drcurve.obj
 0001:000089a0       ?IsObjectHit@CDrObject@@UAEHNUWORLD@@@Z 100099a0 f i Drcurve.obj
 0001:000089c0       ?IsObjectHit@CDrObject@@UAEHHUtagPOINT@@H@Z 100099c0 f i Drcurve.obj
 0001:000089e0       ?IsObjectHit@CDrObject@@UAEHHUtagPOINT@@@Z 100099e0 f i Drcurve.obj
 0001:00008a00       ?IsObjectHit@CDrObject@@UAEHPAVCClientDC@@HUtagPOINT@@PAVCRect@@H@Z 10009a00 f i Drcurve.obj
 0001:00008a20       ?IsKeyMatch@CDrObject@@UAEHPAV1@VCString@@I@Z 10009a20 f i Drcurve.obj
 0001:00008a50       ?IsKeyMatch@CDrObject@@UAEHVCString@@I@Z 10009a50 f i Drcurve.obj
 0001:00008a80       ?IsControlShapeNeeded@CDrObject@@UAEHXZ 10009a80 f i Drcurve.obj
 0001:00008aa0       ?SetControlShapeNeed@CDrObject@@UAEXH@Z 10009aa0 f i Drcurve.obj
 0001:00008ac0       ?IsNormalNeeded@CDrObject@@UAEHXZ 10009ac0 f i Drcurve.obj
 0001:00008ae0       ?SetNormalNeed@CDrObject@@UAEXH@Z 10009ae0 f i Drcurve.obj
 0001:00008b00       ?IsCulled@CDrObject@@UAEHXZ 10009b00 f i Drcurve.obj
 0001:00008b20       ?SetCulled@CDrObject@@UAEXH@Z 10009b20 f i Drcurve.obj
 0001:00008b40       ?IsSkewed@CDrObject@@UAEHXZ 10009b40 f i Drcurve.obj
 0001:00008b60       ?SetSkewed@CDrObject@@UAEXH@Z 10009b60 f i Drcurve.obj
 0001:00008b80       ?IsLinSpr@CDrObject@@UAEHXZ 10009b80 f i Drcurve.obj
 0001:00008ba0       ?SetLinSpr@CDrObject@@UAEXH@Z 10009ba0 f i Drcurve.obj
 0001:00008bc0       ?IsLinSnu@CDrObject@@UAEHXZ 10009bc0 f i Drcurve.obj
 0001:00008be0       ?SetLinSnu@CDrObject@@UAEXH@Z 10009be0 f i Drcurve.obj
 0001:00008c00       ?CullWorld@CDrObject@@UAEHUWORLD@@@Z 10009c00 f i Drcurve.obj
 0001:00008c20       ?CullScreen@CDrObject@@UAEHPAUMATRIX@@@Z 10009c20 f i Drcurve.obj
 0001:00008c40       ?Calc_CentroidWorld@CDrObject@@UAEXXZ 10009c40 f i Drcurve.obj
 0001:00008c60       ?Calc_CentroidEye@CDrObject@@UAEXXZ 10009c60 f i Drcurve.obj
 0001:00008c80       ?Calc_CentroidScreen3D@CDrObject@@UAEXNN@Z 10009c80 f i Drcurve.obj
 0001:00008ca0       ?Calc_NormalWorld@CDrObject@@UAEXXZ 10009ca0 f i Drcurve.obj
 0001:00008cc0       ?TransformNormalToEye@CDrObject@@UAEXPAUMATRIX@@@Z 10009cc0 f i Drcurve.obj
 0001:00008ce0       ?ProjectNormalToScreen3D@CDrObject@@UAEXPAUMATRIX@@NN@Z 10009ce0 f i Drcurve.obj
 0001:00008d00       ?GetNormalWorld@CDrObject@@UAEPAUWORLD@@XZ 10009d00 f i Drcurve.obj
 0001:00008d20       ?SetNormalWorld@CDrObject@@UAEXUWORLD@@@Z 10009d20 f i Drcurve.obj
 0001:00008d40       ?GetNormalEye@CDrObject@@UAEPAUWORLD@@XZ 10009d40 f i Drcurve.obj
 0001:00008d60       ?SetNormalEye@CDrObject@@UAEXUWORLD@@@Z 10009d60 f i Drcurve.obj
 0001:00008d80       ?GetNormalScreen3D@CDrObject@@UAEPAUWORLD@@XZ 10009d80 f i Drcurve.obj
 0001:00008da0       ?SetNormalScreen3D@CDrObject@@UAEXUWORLD@@@Z 10009da0 f i Drcurve.obj
 0001:00008dc0       ?GetNormalScreen2D@CDrObject@@UAEPAUtagPOINT@@XZ 10009dc0 f i Drcurve.obj
 0001:00008de0       ?SetNormalScreen2D@CDrObject@@UAEXUtagPOINT@@@Z 10009de0 f i Drcurve.obj
 0001:00008e00       ?GetObjectList@CDrObject@@UAEPAVCDListMgr@@XZ 10009e00 f i Drcurve.obj
 0001:00008e20       ?GetBoundingRect@CDrObject@@QAE?AVCRect@@XZ 10009e20 f i Drcurve.obj
 0001:00008e60       ?GetRInfo@CDrObject@@QAEPAURENDINFO@@XZ 10009e60 f i Drcurve.obj
 0001:00008e80       ?IsParallel@CDrObject@@QAEHXZ 10009e80 f i Drcurve.obj
 0001:00008ea0       ?GetnView@CDrObject@@QAEHXZ 10009ea0 f i Drcurve.obj
 0001:00008ec0       ?GetdzMin@CDrObject@@QAENXZ 10009ec0 f i Drcurve.obj
 0001:00008ee0       ?GetdScale_U@CDrObject@@QAENXZ 10009ee0 f i Drcurve.obj
 0001:00008f00       ?GetdScale_V@CDrObject@@QAENXZ 10009f00 f i Drcurve.obj
 0001:00008f20       ?GetpViewM@CDrObject@@QAEPAUMATRIX@@XZ 10009f20 f i Drcurve.obj
 0001:00008f40       ?Getpvv3DM@CDrObject@@QAEPAUMATRIX@@XZ 10009f40 f i Drcurve.obj
 0001:00008f60       ?GetpComposedM@CDrObject@@QAEPAUMATRIX@@XZ 10009f60 f i Drcurve.obj
 0001:00008f80       ?SetParallel@CDrObject@@QAEXH@Z 10009f80 f i Drcurve.obj
 0001:00008fb0       ?SetnView@CDrObject@@QAEXH@Z 10009fb0 f i Drcurve.obj
 0001:00008fe0       ?SetdzMin@CDrObject@@QAEXN@Z 10009fe0 f i Drcurve.obj
 0001:00009010       ?SetdScale_U@CDrObject@@QAEXN@Z 1000a010 f i Drcurve.obj
 0001:00009040       ?SetdScale_V@CDrObject@@QAEXN@Z 1000a040 f i Drcurve.obj
 0001:00009070       ?SetpViewM@CDrObject@@QAEXPAUMATRIX@@@Z 1000a070 f i Drcurve.obj
 0001:000090a0       ?Setpvv3DM@CDrObject@@QAEXPAUMATRIX@@@Z 1000a0a0 f i Drcurve.obj
 0001:000090d0       ?SetpComposedM@CDrObject@@QAEXPAUMATRIX@@@Z 1000a0d0 f i Drcurve.obj
 0001:00009100       ?GetLevelType@CDrObject@@QAEHXZ 1000a100 f i Drcurve.obj
 0001:00009120       ?SetLevelType@CDrObject@@QAEXH@Z 1000a120 f i Drcurve.obj
 0001:00009150       ?GetObjectID@CDrObject@@QAE?AVCString@@XZ 1000a150 f i Drcurve.obj
 0001:00009190       ?SetObjectID@CDrObject@@QAEXVCString@@@Z 1000a190 f i Drcurve.obj
 0001:000091f0       ?GetObjectNo@CDrObject@@QAEJXZ 1000a1f0 f i Drcurve.obj
 0001:00009210       ?SetObjectNo@CDrObject@@QAEXJ@Z 1000a210 f i Drcurve.obj
 0001:00009240       ?GetObjectType@CDrObject@@QAEHXZ 1000a240 f i Drcurve.obj
 0001:00009260       ?SetObjectType@CDrObject@@QAEXH@Z 1000a260 f i Drcurve.obj
 0001:00009290       ?GetElemType@CDrObject@@QAEHXZ 1000a290 f i Drcurve.obj
 0001:000092b0       ?SetElemType@CDrObject@@QAEXH@Z 1000a2b0 f i Drcurve.obj
 0001:000092e0       ?GetPenInfo@CDrObject@@QAEXAAIAAK0@Z 1000a2e0 f i Drcurve.obj
 0001:00009320       ?SetPenInfo@CDrObject@@QAEXIKI@Z 1000a320 f i Drcurve.obj
 0001:00009360       ?GetPenInfoHi@CDrObject@@QAEXAAIAAK0@Z 1000a360 f i Drcurve.obj
 0001:000093a0       ?SetPenInfoHi@CDrObject@@QAEXIKI@Z 1000a3a0 f i Drcurve.obj
 0001:000093e0       ?GetLayer@CDrObject@@QAEIXZ 1000a3e0 f i Drcurve.obj
 0001:00009400       ?SetLayer@CDrObject@@QAEXI@Z 1000a400 f i Drcurve.obj
 0001:00009430       ?IsClipped@CDrObject@@QAEHXZ 1000a430 f i Drcurve.obj
 0001:00009450       ?SetClipped@CDrObject@@QAEXH@Z 1000a450 f i Drcurve.obj
 0001:00009480       ?IsVirtual@CDrObject@@QAEHXZ 1000a480 f i Drcurve.obj
 0001:000094a0       ?SetVirtual@CDrObject@@QAEXH@Z 1000a4a0 f i Drcurve.obj
 0001:000094c0       ?IsShow@CDrObject@@QAEHXZ  1000a4c0 f i Drcurve.obj
 0001:000094e0       ?SetShow@CDrObject@@QAEXH@Z 1000a4e0 f i Drcurve.obj
 0001:00009510       ?GetParentID@CDrObject@@QAEAAVCString@@XZ 1000a510 f i Drcurve.obj
 0001:00009530       ?SetParentID@CDrObject@@QAEXAAVCString@@@Z 1000a530 f i Drcurve.obj
 0001:00009560       ?GetParentType@CDrObject@@QAEIXZ 1000a560 f i Drcurve.obj
 0001:00009580       ?SetParentType@CDrObject@@QAEXI@Z 1000a580 f i Drcurve.obj
 0001:000095a0       ?IsInstanced@CDrObject@@QAEHXZ 1000a5a0 f i Drcurve.obj
 0001:000095c0       ?SetInstanced@CDrObject@@QAEXH@Z 1000a5c0 f i Drcurve.obj
 0001:000095e0       ?GetMatObj@CDrObject@@QAEPAVCMatObj@@XZ 1000a5e0 f i Drcurve.obj
 0001:00009600       ?SetMatObj@CDrObject@@QAEXPAVCMatObj@@@Z 1000a600 f i Drcurve.obj
 0001:00009620       ?GetSpeLList@CDrObject@@QAEPAVCDListMgr@@XZ 1000a620 f i Drcurve.obj
 0001:00009640       ?GetDynLList@CDrObject@@QAEPAVCDListMgr@@XZ 1000a640 f i Drcurve.obj
 0001:00009660       ?GetStaLList@CDrObject@@QAEPAVCDListMgr@@XZ 1000a660 f i Drcurve.obj
 0001:00009680       ?GetSuppList@CDrObject@@QAEPAVCDListMgr@@XZ 1000a680 f i Drcurve.obj
 0001:000096a0       ?GetElemList@CDrObject@@QAEPAVCDListMgr@@XZ 1000a6a0 f i Drcurve.obj
 0001:000096c0       ?GetCurveList@CDrObject@@QAEPAVCDListMgr@@XZ 1000a6c0 f i Drcurve.obj
 0001:000096e0       ?GetCProfList@CDrObject@@QAEPAVCDListMgr@@XZ 1000a6e0 f i Drcurve.obj
 0001:00009700       ?GetPatchList@CDrObject@@QAEPAVCDListMgr@@XZ 1000a700 f i Drcurve.obj
 0001:00009720       ?GetSolidList@CDrObject@@QAEPAVCDListMgr@@XZ 1000a720 f i Drcurve.obj
 0001:00009740       ?GetObj3DList@CDrObject@@QAEPAVCDListMgr@@XZ 1000a740 f i Drcurve.obj
 0001:00009760       ?GetCNodeList@CDrObject@@QAEPAVCDListMgr@@XZ 1000a760 f i Drcurve.obj
 0001:00009780       ?GetINodeList@CDrObject@@QAEPAVCDListMgr@@XZ 1000a780 f i Drcurve.obj
 0001:000097a0       ?GetNodeList@CDrObject@@QAEPAVCDListMgr@@XZ 1000a7a0 f i Drcurve.obj
 0001:000097c0       ?GetLabelList@CDrObject@@QAEPAVCDListMgr@@XZ 1000a7c0 f i Drcurve.obj
 0001:000097e0       ?GetFE0DList@CDrObject@@QAEPAVCDListMgr@@XZ 1000a7e0 f i Drcurve.obj
 0001:00009800       ?GetFE1DList@CDrObject@@QAEPAVCDListMgr@@XZ 1000a800 f i Drcurve.obj
 0001:00009820       ?GetFE2DList@CDrObject@@QAEPAVCDListMgr@@XZ 1000a820 f i Drcurve.obj
 0001:00009840       ?GetFE3DList@CDrObject@@QAEPAVCDListMgr@@XZ 1000a840 f i Drcurve.obj
 0001:00009860       ?GetMs0List@CDrObject@@QAEPAVCDListMgr@@XZ 1000a860 f i Drcurve.obj
 0001:00009880       ?GetMs1List@CDrObject@@QAEPAVCDListMgr@@XZ 1000a880 f i Drcurve.obj
 0001:000098a0       ?GetMs2List@CDrObject@@QAEPAVCDListMgr@@XZ 1000a8a0 f i Drcurve.obj
 0001:000098c0       ?GetMs3List@CDrObject@@QAEPAVCDListMgr@@XZ 1000a8c0 f i Drcurve.obj
 0001:000098e0       ?GetMbj3DList@CDrObject@@QAEPAVCDListMgr@@XZ 1000a8e0 f i Drcurve.obj
 0001:00009900       ?GetM2DProfList@CDrObject@@QAEPAVCDListMgr@@XZ 1000a900 f i Drcurve.obj
 0001:00009920       ?GetM3DProfList@CDrObject@@QAEPAVCDListMgr@@XZ 1000a920 f i Drcurve.obj
 0001:00009940       ?GetMbjProfList@CDrObject@@QAEPAVCDListMgr@@XZ 1000a940 f i Drcurve.obj
 0001:00009960       ?GetScreen2DCorner@CDrObject@@UAE?AUtagPOINT@@H@Z 1000a960 f i Drcurve.obj
 0001:000099a0       ?SetScreen2DCorner@CDrObject@@UAEXUtagPOINT@@H@Z 1000a9a0 f i Drcurve.obj
 0001:000099d0       ?GetSpawnType@CDrObject@@QAE?AW4SPAWNTYPE@@XZ 1000a9d0 f i Drcurve.obj
 0001:000099f0       ?SetSpawnType@CDrObject@@QAEXW4SPAWNTYPE@@@Z 1000a9f0 f i Drcurve.obj
 0001:00009a10       ?GetCategory@CDrObject@@QAE?AW4CATEGORY@@XZ 1000aa10 f i Drcurve.obj
 0001:00009a30       ?SetCategory@CDrObject@@QAEXW4CATEGORY@@@Z 1000aa30 f i Drcurve.obj
 0001:00009a50       ?GetSubCat@CDrObject@@QAE?AW4SUBCAT@@XZ 1000aa50 f i Drcurve.obj
 0001:00009a70       ?SetSubCat@CDrObject@@QAEXW4SUBCAT@@@Z 1000aa70 f i Drcurve.obj
 0001:00009a90       ?GetElemDimLim@CDrObject@@QAE?AW4ELEMDIMLIM@@XZ 1000aa90 f i Drcurve.obj
 0001:00009ab0       ?SetElemDimLim@CDrObject@@QAEXW4ELEMDIMLIM@@@Z 1000aab0 f i Drcurve.obj
 0001:00009ad0       ?IsDirty@CDrObject@@QAEHXZ 1000aad0 f i Drcurve.obj
 0001:00009b00       ?SetDirty@CDrObject@@QAEXH@Z 1000ab00 f i Drcurve.obj
 0001:00009b30       ?IsMoved@CDrObject@@QAEHXZ 1000ab30 f i Drcurve.obj
 0001:00009b50       ?SetMoved@CDrObject@@QAEXH@Z 1000ab50 f i Drcurve.obj
 0001:00009b80       ?IsEdited@CDrObject@@QAEHXZ 1000ab80 f i Drcurve.obj
 0001:00009ba0       ?SetEdited@CDrObject@@QAEXH@Z 1000aba0 f i Drcurve.obj
 0001:00009bd0       ?IsPosted@CDrObject@@QAEHXZ 1000abd0 f i Drcurve.obj
 0001:00009bf0       ?SetPosted@CDrObject@@QAEXH@Z 1000abf0 f i Drcurve.obj
 0001:00009c20       ?IsDeleted@CDrObject@@QAEHXZ 1000ac20 f i Drcurve.obj
 0001:00009c40       ?SetDeleted@CDrObject@@QAEXH@Z 1000ac40 f i Drcurve.obj
 0001:00009c70       ?IsToBeMoved@CDrObject@@QAEHXZ 1000ac70 f i Drcurve.obj
 0001:00009c90       ?SetToBeMoved@CDrObject@@QAEXH@Z 1000ac90 f i Drcurve.obj
 0001:00009cb0       ?IsToBeEdited@CDrObject@@QAEHXZ 1000acb0 f i Drcurve.obj
 0001:00009cd0       ?SetToBeEdited@CDrObject@@QAEXH@Z 1000acd0 f i Drcurve.obj
 0001:00009cf0       ?IsToBePosted@CDrObject@@QAEHXZ 1000acf0 f i Drcurve.obj
 0001:00009d10       ?SetToBePosted@CDrObject@@QAEXH@Z 1000ad10 f i Drcurve.obj
 0001:00009d30       ?IsToBeUnPosted@CDrObject@@QAEHXZ 1000ad30 f i Drcurve.obj
 0001:00009d50       ?SetToBeUnPosted@CDrObject@@QAEXH@Z 1000ad50 f i Drcurve.obj
 0001:00009d70       ?IsToBeDeleted@CDrObject@@QAEHXZ 1000ad70 f i Drcurve.obj
 0001:00009d90       ?SetToBeDeleted@CDrObject@@QAEXH@Z 1000ad90 f i Drcurve.obj
 0001:00009db0       ?IsFormatted@CDrObject@@QAEHXZ 1000adb0 f i Drcurve.obj
 0001:00009dd0       ?SetFormatted@CDrObject@@QAEXH@Z 1000add0 f i Drcurve.obj
 0001:00009df0       ?Parse_drPipe@CDrNode@@UAEPAUnodecard@@PAVCString@@@Z 1000adf0 f i Drcurve.obj
 0001:00009e10       ?GetNodeCard@CDrNode@@UAEPAUnodecard@@XZ 1000ae10 f i Drcurve.obj
 0001:00009e30       ?GetCardNo@CDrNode@@UAEHXZ 1000ae30 f i Drcurve.obj
 0001:00009e50       ?SetCardNo@CDrNode@@UAEXH@Z 1000ae50 f i Drcurve.obj
 0001:00009e80       ?DoFormattedCardView@CDrNode@@UAEXPAVCString@@AAV2@@Z 1000ae80 f i Drcurve.obj
 0001:00009ea0       ?DoUnFormattedCardView@CDrNode@@UAEXPAVCString@@@Z 1000aea0 f i Drcurve.obj
 0001:00009ec0       ?GetMaxCorners@CDrNode@@UAEHXZ 1000aec0 f i Drcurve.obj
 0001:00009ee0       ?GetCategory@CDrNode@@UAE?AW4CATEGORY@@XZ 1000aee0 f i Drcurve.obj
 0001:00009f00       ?SetCategory@CDrNode@@UAEXW4CATEGORY@@@Z 1000af00 f i Drcurve.obj
 0001:00009f20       ?GetPrecision@CDrNode@@UAEHXZ 1000af20 f i Drcurve.obj
 0001:00009f40       ?SetPrecision@CDrNode@@UAEXH@Z 1000af40 f i Drcurve.obj
 0001:00009f70       ?GetFormat@CDrNode@@QAE?AVCString@@XZ 1000af70 f i Drcurve.obj
 0001:00009fb0       ?SetFormat@CDrNode@@QAEXVCString@@@Z 1000afb0 f i Drcurve.obj
 0001:0000a010       ?GetMapFactor@CDrNode@@QAENXZ 1000b010 f i Drcurve.obj
 0001:0000a030       ?SetMapFactor@CDrNode@@QAEXN@Z 1000b030 f i Drcurve.obj
 0001:0000a060       ?GetScaleFactor@CDrNode@@QAENXZ 1000b060 f i Drcurve.obj
 0001:0000a080       ?SetScaleFactor@CDrNode@@QAEXN@Z 1000b080 f i Drcurve.obj
 0001:0000a0b0       ?GetMasterMultFac@CDrNode@@QAEJXZ 1000b0b0 f i Drcurve.obj
 0001:0000a0d0       ?SetMasterMultFac@CDrNode@@QAEXJ@Z 1000b0d0 f i Drcurve.obj
 0001:0000a100       ?GetLocalPos@CDrNode@@UAEPAUWORLD@@XZ 1000b100 f i Drcurve.obj
 0001:0000a120       ?SetLocalPos@CDrNode@@UAEXUWORLD@@@Z 1000b120 f i Drcurve.obj
 0001:0000a150       ?GetWorldPos@CDrNode@@UAEPAUWORLD@@XZ 1000b150 f i Drcurve.obj
 0001:0000a170       ?SetWorldPos@CDrNode@@UAEXUWORLD@@@Z 1000b170 f i Drcurve.obj
 0001:0000a1a0       ?GetEyePos@CDrNode@@UAEPAUWORLD@@XZ 1000b1a0 f i Drcurve.obj
 0001:0000a1c0       ?SetEyePos@CDrNode@@UAEXUWORLD@@@Z 1000b1c0 f i Drcurve.obj
 0001:0000a1f0       ?GetScreenPos3D@CDrNode@@UAEPAUWORLD@@XZ 1000b1f0 f i Drcurve.obj
 0001:0000a210       ?SetScreenPos3D@CDrNode@@UAEXUWORLD@@@Z 1000b210 f i Drcurve.obj
 0001:0000a240       ?GetScreenPos2D@CDrNode@@UAEPAUtagPOINT@@XZ 1000b240 f i Drcurve.obj
 0001:0000a260       ?SetScreenPos2D@CDrNode@@UAEXUtagPOINT@@@Z 1000b260 f i Drcurve.obj
 0001:0000a290       ?GetNormalWorld@CDrNode@@UAEPAUWORLD@@XZ 1000b290 f i Drcurve.obj
 0001:0000a2b0       ?SetNormalWorld@CDrNode@@UAEXUWORLD@@@Z 1000b2b0 f i Drcurve.obj
 0001:0000a2e0       ?GetNormalEye@CDrNode@@UAEPAUWORLD@@XZ 1000b2e0 f i Drcurve.obj
 0001:0000a300       ?SetNormalEye@CDrNode@@UAEXUWORLD@@@Z 1000b300 f i Drcurve.obj
 0001:0000a330       ?GetNormalScreen3D@CDrNode@@UAEPAUWORLD@@XZ 1000b330 f i Drcurve.obj
 0001:0000a350       ?SetNormalScreen3D@CDrNode@@UAEXUWORLD@@@Z 1000b350 f i Drcurve.obj
 0001:0000a380       ?GetNormalScreen2D@CDrNode@@UAEPAUtagPOINT@@XZ 1000b380 f i Drcurve.obj
 0001:0000a3a0       ?SetNormalScreen2D@CDrNode@@UAEXUtagPOINT@@@Z 1000b3a0 f i Drcurve.obj
 0001:0000a3d0       ?GetLabelNo@CDrNode@@QAEJXZ 1000b3d0 f i Drcurve.obj
 0001:0000a3f0       ?SetLabelNo@CDrNode@@QAEXJ@Z 1000b3f0 f i Drcurve.obj
 0001:0000a420       ?IsMeshNode@CDrNode@@QAEHXZ 1000b420 f i Drcurve.obj
 0001:0000a440       ?SetMeshNode@CDrNode@@QAEXH@Z 1000b440 f i Drcurve.obj
 0001:0000a470       ?IsGenerated@CDrNode@@QAEHXZ 1000b470 f i Drcurve.obj
 0001:0000a490       ?SetGenerated@CDrNode@@QAEXH@Z 1000b490 f i Drcurve.obj
 0001:0000a4c0       ?IsControlNode@CDrNode@@QAEHXZ 1000b4c0 f i Drcurve.obj
 0001:0000a4f0       ?SetControlNode@CDrNode@@QAEXH@Z 1000b4f0 f i Drcurve.obj
 0001:0000a520       ?GetInputMode@CDrNode@@QAEHXZ 1000b520 f i Drcurve.obj
 0001:0000a540       ?SetInputMode@CDrNode@@QAEXH@Z 1000b540 f i Drcurve.obj
 0001:0000a570       ?GetLength@CDrNode@@QAENXZ 1000b570 f i Drcurve.obj
 0001:0000a590       ?SetLength@CDrNode@@QAEXN@Z 1000b590 f i Drcurve.obj
 0001:0000a5c0       ?GetDelta@CDrNode@@QAEPAUWORLD@@XZ 1000b5c0 f i Drcurve.obj
 0001:0000a5e0       ?SetDelta@CDrNode@@QAEXUWORLD@@@Z 1000b5e0 f i Drcurve.obj
 0001:0000a610       ?GetFromID@CDrNode@@QAE?AVCString@@XZ 1000b610 f i Drcurve.obj
 0001:0000a650       ?SetFromID@CDrNode@@QAEXVCString@@@Z 1000b650 f i Drcurve.obj
 0001:0000a6b0       ?GetToID@CDrNode@@QAE?AVCString@@XZ 1000b6b0 f i Drcurve.obj
 0001:0000a6f0       ?SetToID@CDrNode@@QAEXVCString@@@Z 1000b6f0 f i Drcurve.obj
 0001:0000a750       ?IsRefCN@CDrNode@@QAEHXZ   1000b750 f i Drcurve.obj
 0001:0000a770       ?SetRefCN@CDrNode@@QAEXH@Z 1000b770 f i Drcurve.obj
 0001:0000a7a0       ?IsFromCN@CDrNode@@QAEHXZ  1000b7a0 f i Drcurve.obj
 0001:0000a7c0       ?SetFromCN@CDrNode@@QAEXH@Z 1000b7c0 f i Drcurve.obj
 0001:0000a7f0       ?IsToCN@CDrNode@@QAEHXZ    1000b7f0 f i Drcurve.obj
 0001:0000a810       ?SetToCN@CDrNode@@QAEXH@Z  1000b810 f i Drcurve.obj
 0001:0000a840       ?IsSkewed@CDrNode@@UAEHXZ  1000b840 f i Drcurve.obj
 0001:0000a860       ?SetSkewed@CDrNode@@UAEXH@Z 1000b860 f i Drcurve.obj
 0001:0000a890       ?IsLinSpr@CDrNode@@UAEHXZ  1000b890 f i Drcurve.obj
 0001:0000a8b0       ?SetLinSpr@CDrNode@@UAEXH@Z 1000b8b0 f i Drcurve.obj
 0001:0000a8e0       ?IsLinSnu@CDrNode@@UAEHXZ  1000b8e0 f i Drcurve.obj
 0001:0000a900       ?SetLinSnu@CDrNode@@UAEXH@Z 1000b900 f i Drcurve.obj
 0001:0000a930       ?GetSuppCardList@CDrNode@@QAEPAV?$CList@Usupportcard@@U1@@@XZ 1000b930 f i Drcurve.obj
 0001:0000a950       ?GetStaLCardList@CDrNode@@QAEPAV?$CList@UstaLcard@@U1@@@XZ 1000b950 f i Drcurve.obj
 0001:0000a970       ?IsDirty@CDrCurve@@UAEHXZ  1000b970 f i Drcurve.obj
 0001:0000a990       ?SetDirty@CDrCurve@@UAEXH@Z 1000b990 f i Drcurve.obj
 0001:0000a9c0       ?IsControlShapeNeeded@CDrCurve@@UAEHXZ 1000b9c0 f i Drcurve.obj
 0001:0000a9e0       ?SetControlShapeNeed@CDrCurve@@UAEXH@Z 1000b9e0 f i Drcurve.obj
 0001:0000aa10       ?IsPosted@CDrCurve@@UAEHXZ 1000ba10 f i Drcurve.obj
 0001:0000aa30       ?SetPosted@CDrCurve@@UAEXH@Z 1000ba30 f i Drcurve.obj
 0001:0000aa60       ?GetCN_BSList@CDrCurve@@QAEPAVCDListMgr@@XZ 1000ba60 f i Drcurve.obj
 0001:0000aa80       ?GetVNodeList@CDrCurve@@QAEPAVCDListMgr@@XZ 1000ba80 f i Drcurve.obj
 0001:0000aaa0       ?GetMeshElemDim@CDrCurve@@QAEHXZ 1000baa0 f i Drcurve.obj
 0001:0000aac0       ?SetMeshElemDim@CDrCurve@@QAEXH@Z 1000bac0 f i Drcurve.obj
 0001:0000aaf0       ?IsIso@CDrCurve@@QAEHXZ    1000baf0 f i Drcurve.obj
 0001:0000ab10       ?SetIso@CDrCurve@@QAEXH@Z  1000bb10 f i Drcurve.obj
 0001:0000ab40       ?GetIsoToID@CDrCurve@@QAEAAVCString@@XZ 1000bb40 f i Drcurve.obj
 0001:0000ab60       ?SetIsoToID@CDrCurve@@QAEXAAVCString@@@Z 1000bb60 f i Drcurve.obj
 0001:0000ab90       ?GetCompoType@CDrCurve@@QAEHXZ 1000bb90 f i Drcurve.obj
 0001:0000abb0       ?SetCompoType@CDrCurve@@QAEXH@Z 1000bbb0 f i Drcurve.obj
 0001:0000abe0       ?GetCompoID@CDrCurve@@QAEAAVCString@@XZ 1000bbe0 f i Drcurve.obj
 0001:0000ac00       ?SetCompoID@CDrCurve@@QAEXAAVCString@@@Z 1000bc00 f i Drcurve.obj
 0001:0000ac30       ?GetClass_S@CDrCurve@@QAEHXZ 1000bc30 f i Drcurve.obj
 0001:0000ac50       ?SetClass_S@CDrCurve@@QAEXH@Z 1000bc50 f i Drcurve.obj
 0001:0000ac80       ?GetOutSegUnif_S@CDrCurve@@QAEHXZ 1000bc80 f i Drcurve.obj
 0001:0000aca0       ?SetOutSegUnif_S@CDrCurve@@QAEXH@Z 1000bca0 f i Drcurve.obj
 0001:0000acd0       ?IsClosed_S@CDrCurve@@QAEHXZ 1000bcd0 f i Drcurve.obj
 0001:0000acf0       ?SetClosed_S@CDrCurve@@QAEXH@Z 1000bcf0 f i Drcurve.obj
 0001:0000ad20       ?GetCurveObjectType@CDrCurve@@QAEHXZ 1000bd20 f i Drcurve.obj
 0001:0000ad40       ?SetCurveObjectType@CDrCurve@@QAEXH@Z 1000bd40 f i Drcurve.obj
 0001:0000ad70       ?GetMaxINodes_S@CDrCurve@@QAEHXZ 1000bd70 f i Drcurve.obj
 0001:0000ad90       ?SetMaxINodes_S@CDrCurve@@QAEXH@Z 1000bd90 f i Drcurve.obj
 0001:0000adc0       ?GetMaxCNodes_S@CDrCurve@@QAEHXZ 1000bdc0 f i Drcurve.obj
 0001:0000ade0       ?SetMaxCNodes_S@CDrCurve@@QAEXH@Z 1000bde0 f i Drcurve.obj
 0001:0000ae10       ?GetMaxBezSegments_S@CDrCurve@@QAEHXZ 1000be10 f i Drcurve.obj
 0001:0000ae30       ?SetMaxBezSegments_S@CDrCurve@@QAEXH@Z 1000be30 f i Drcurve.obj
 0001:0000ae60       ?GetMaxOutPts_S@CDrCurve@@QAEHXZ 1000be60 f i Drcurve.obj
 0001:0000ae80       ?SetMaxOutPts_S@CDrCurve@@QAEXH@Z 1000be80 f i Drcurve.obj
 0001:0000aeb0       ?GetLongOutPts@CDrCurve@@QAEJXZ 1000beb0 f i Drcurve.obj
 0001:0000aed0       ?SetLongOutPts@CDrCurve@@QAEXJ@Z 1000bed0 f i Drcurve.obj
 0001:0000af00       ?GetCurveType_S@CDrCurve@@QAE?AW4CURVEPROC@@XZ 1000bf00 f i Drcurve.obj
 0001:0000af20       ?SetCurveType_S@CDrCurve@@QAEXW4CURVEPROC@@@Z 1000bf20 f i Drcurve.obj
 0001:0000af50       ?GetOutMethod@CDrCurve@@QAE?AW4CURVEOUTPUT@@XZ 1000bf50 f i Drcurve.obj
 0001:0000af70       ?GetAlfa@CDrCurve@@QAENXZ  1000bf70 f i Drcurve.obj
 0001:0000af90       ?GetBias@CDrCurve@@QAENXZ  1000bf90 f i Drcurve.obj
 0001:0000afb0       ?GetTension@CDrCurve@@QAENXZ 1000bfb0 f i Drcurve.obj
 0001:0000afd0       ?IsUniform_S@CDrCurve@@QAEHXZ 1000bfd0 f i Drcurve.obj
 0001:0000aff0       ?SetUniform_S@CDrCurve@@QAEXH@Z 1000bff0 f i Drcurve.obj
 0001:0000b020       ?SetOutMethod_S@CDrCurve@@QAEXW4CURVEOUTPUT@@@Z 1000c020 f i Drcurve.obj
 0001:0000b050       ?GetMaxOutSeg_S@CDrCurve@@QAEHXZ 1000c050 f i Drcurve.obj
 0001:0000b070       ?SetMaxOutSeg_S@CDrCurve@@QAEXH@Z 1000c070 f i Drcurve.obj
 0001:0000b0a0       ?GetDis_AngPointer_S@CDrCurve@@QAEPANXZ 1000c0a0 f i Drcurve.obj
 0001:0000b0c0       ?SetDis_AngPointer_S@CDrCurve@@QAEXPAN@Z 1000c0c0 f i Drcurve.obj
 0001:0000b0f0       ?GetNum_tPointer_S@CDrCurve@@QAEPAHXZ 1000c0f0 f i Drcurve.obj
 0001:0000b110       ?SetNum_tPointer_S@CDrCurve@@QAEXPAH@Z 1000c110 f i Drcurve.obj
 0001:0000b140       ?GetDis_tPointer_S@CDrCurve@@QAEPANXZ 1000c140 f i Drcurve.obj
 0001:0000b160       ?SetDis_tPointer_S@CDrCurve@@QAEXPAN@Z 1000c160 f i Drcurve.obj
 0001:0000b190       ?GetNum_tPointer_Ex_S@CDrCurve@@QAEPAHXZ 1000c190 f i Drcurve.obj
 0001:0000b1b0       ?SetNum_tPointer_Ex_S@CDrCurve@@QAEXPAH@Z 1000c1b0 f i Drcurve.obj
 0001:0000b1e0       ?GetnBSeg_Ex_S@CDrCurve@@QAEHXZ 1000c1e0 f i Drcurve.obj
 0001:0000b200       ?SetnBSeg_Ex_S@CDrCurve@@QAEXH@Z 1000c200 f i Drcurve.obj
 0001:0000b230       ?GetBSegPointer_Ex_S@CDrCurve@@QAEPAHXZ 1000c230 f i Drcurve.obj
 0001:0000b250       ?SetBSegPointer_Ex_S@CDrCurve@@QAEXPAH@Z 1000c250 f i Drcurve.obj
 0001:0000b280       ?SetAlfa@CDrCurve@@QAEXN@Z 1000c280 f i Drcurve.obj
 0001:0000b2b0       ?SetBias@CDrCurve@@QAEXN@Z 1000c2b0 f i Drcurve.obj
 0001:0000b2e0       ?SetTension@CDrCurve@@QAEXN@Z 1000c2e0 f i Drcurve.obj
 0001:0000b310       ?GetMemIn@CDrCurve@@QAEPAUWORLD@@XZ 1000c310 f i Drcurve.obj
 0001:0000b330       ?GetMemInWts@CDrCurve@@QAEPANXZ 1000c330 f i Drcurve.obj
 0001:0000b350       ?GetMemInDP@CDrCurve@@QAEPAUtagPOINT@@XZ 1000c350 f i Drcurve.obj
 0001:0000b370       ?GetMemOut@CDrCurve@@QAEPAUWORLD@@XZ 1000c370 f i Drcurve.obj
 0001:0000b390       ?GetMemOutWts@CDrCurve@@QAEPANXZ 1000c390 f i Drcurve.obj
 0001:0000b3b0       ?GetMemOutDP@CDrCurve@@QAEPAUtagPOINT@@XZ 1000c3b0 f i Drcurve.obj
 0001:0000b3d0       ?SetMemIn@CDrCurve@@QAEXPAUWORLD@@@Z 1000c3d0 f i Drcurve.obj
 0001:0000b400       ?SetMemInWts@CDrCurve@@QAEXPAN@Z 1000c400 f i Drcurve.obj
 0001:0000b430       ?SetMemInDP@CDrCurve@@QAEXPAUtagPOINT@@@Z 1000c430 f i Drcurve.obj
 0001:0000b460       ?SetMemOut@CDrCurve@@QAEXPAUWORLD@@@Z 1000c460 f i Drcurve.obj
 0001:0000b490       ?SetMemOutWts@CDrCurve@@QAEXPAN@Z 1000c490 f i Drcurve.obj
 0001:0000b4c0       ?SetMemOutDP@CDrCurve@@QAEXPAUtagPOINT@@@Z 1000c4c0 f i Drcurve.obj
 0001:0000b4f0       ?FixMemD@CDrCurve@@QAEPANJ@Z 1000c4f0 f i Drcurve.obj
 0001:0000b530       ?FreeMemD@CDrCurve@@QAEXPAN@Z 1000c530 f i Drcurve.obj
 0001:0000b560       ?FixMem@CDrCurve@@QAEPAUWORLD@@J@Z 1000c560 f i Drcurve.obj
 0001:0000b5a0       ?FreeMem@CDrCurve@@QAEXPAUWORLD@@@Z 1000c5a0 f i Drcurve.obj
 0001:0000b5d0       ?FixMemDP@CDrCurve@@QAEPAUtagPOINT@@J@Z 1000c5d0 f i Drcurve.obj
 0001:0000b610       ?FreeMemDP@CDrCurve@@QAEXPAUtagPOINT@@@Z 1000c610 f i Drcurve.obj
 0001:0000b640       ?GetData_S@CDrCurve@@QAEHXZ 1000c640 f i Drcurve.obj
 0001:0000b660       ?SetData_S@CDrCurve@@QAEXH@Z 1000c660 f i Drcurve.obj
 0001:0000b690       ?GetOrder_S@CDrCurve@@QAEHXZ 1000c690 f i Drcurve.obj
 0001:0000b6b0       ?SetOrder_S@CDrCurve@@QAEXH@Z 1000c6b0 f i Drcurve.obj
 0001:0000b6e0       ?GetKnotType_S@CDrCurve@@QAE?AW4KNOT@@XZ 1000c6e0 f i Drcurve.obj
 0001:0000b700       ?SetKnotType_S@CDrCurve@@QAEXW4KNOT@@@Z 1000c700 f i Drcurve.obj
 0001:0000b730       ?GetWtType_S@CDrCurve@@QAE?AW4WEIGHT@@XZ 1000c730 f i Drcurve.obj
 0001:0000b750       ?SetWtType_S@CDrCurve@@QAEXW4WEIGHT@@@Z 1000c750 f i Drcurve.obj
 0001:0000b780       ?GetBCL_S@CDrCurve@@QAE?AW4BOUNDARY@@XZ 1000c780 f i Drcurve.obj
 0001:0000b7a0       ?SetBCL_S@CDrCurve@@QAEXW4BOUNDARY@@@Z 1000c7a0 f i Drcurve.obj
 0001:0000b7d0       ?GetBCR_S@CDrCurve@@QAE?AW4BOUNDARY@@XZ 1000c7d0 f i Drcurve.obj
 0001:0000b7f0       ?SetBCR_S@CDrCurve@@QAEXW4BOUNDARY@@@Z 1000c7f0 f i Drcurve.obj
 0001:0000b820       ?GetTanL_S@CDrCurve@@QAE?AUVECTOR@@XZ 1000c820 f i Drcurve.obj
 0001:0000b850       ?SetTanL_S@CDrCurve@@QAEXUVECTOR@@@Z 1000c850 f i Drcurve.obj
 0001:0000b880       ?GetTanR_S@CDrCurve@@QAE?AUVECTOR@@XZ 1000c880 f i Drcurve.obj
 0001:0000b8b0       ?SetTanR_S@CDrCurve@@QAEXUVECTOR@@@Z 1000c8b0 f i Drcurve.obj
 0001:0000b8e0       ?GetnCon_BS_S@CDrCurve@@QAEHXZ 1000c8e0 f i Drcurve.obj
 0001:0000b900       ?SetnCon_BS_S@CDrCurve@@QAEXH@Z 1000c900 f i Drcurve.obj
 0001:0000b930       ?GetnCon_BZ_S@CDrCurve@@QAEHXZ 1000c930 f i Drcurve.obj
 0001:0000b950       ?SetnCon_BZ_S@CDrCurve@@QAEXH@Z 1000c950 f i Drcurve.obj
 0001:0000b980       ?GetnMKnots_S@CDrCurve@@QAEHXZ 1000c980 f i Drcurve.obj
 0001:0000b9a0       ?SetnMKnots_S@CDrCurve@@QAEXH@Z 1000c9a0 f i Drcurve.obj
 0001:0000b9d0       ?GetnKnots_S@CDrCurve@@QAEHXZ 1000c9d0 f i Drcurve.obj
 0001:0000b9f0       ?SetnKnots_S@CDrCurve@@QAEXH@Z 1000c9f0 f i Drcurve.obj
 0001:0000ba20       ?GetnDim_S@CDrCurve@@QAEHXZ 1000ca20 f i Drcurve.obj
 0001:0000ba40       ?SetnDim_S@CDrCurve@@QAEXH@Z 1000ca40 f i Drcurve.obj
 0001:0000ba70       ?GetpMKnots_S@CDrCurve@@QAEPANXZ 1000ca70 f i Drcurve.obj
 0001:0000ba90       ?SetpMKnots_S@CDrCurve@@QAEXPAN@Z 1000ca90 f i Drcurve.obj
 0001:0000bac0       ?GetpWts_BS_S@CDrCurve@@QAEPANXZ 1000cac0 f i Drcurve.obj
 0001:0000bae0       ?SetpWts_BS_S@CDrCurve@@QAEXPAN@Z 1000cae0 f i Drcurve.obj
 0001:0000bb10       ?GetpKnots_S@CDrCurve@@QAEPANXZ 1000cb10 f i Drcurve.obj
 0001:0000bb30       ?SetpKnots_S@CDrCurve@@QAEXPAN@Z 1000cb30 f i Drcurve.obj
 0001:0000bb60       ?GetpWts_DT_S@CDrCurve@@QAEPANXZ 1000cb60 f i Drcurve.obj
 0001:0000bb80       ?SetpWts_DT_S@CDrCurve@@QAEXPAN@Z 1000cb80 f i Drcurve.obj
 0001:0000bbb0       ?GetpWts_BZ_S@CDrCurve@@QAEPANXZ 1000cbb0 f i Drcurve.obj
 0001:0000bbd0       ?SetpWts_BZ_S@CDrCurve@@QAEXPAN@Z 1000cbd0 f i Drcurve.obj
 0001:0000bc00       ?GetFromIDNode_S@CDrCurve@@QAEPAVCDrNode@@XZ 1000cc00 f i Drcurve.obj
 0001:0000bc20       ?SetFromIDNode_S@CDrCurve@@QAEXPAVCDrNode@@@Z 1000cc20 f i Drcurve.obj
 0001:0000bc50       ?GetToIDNode_S@CDrCurve@@QAEPAVCDrNode@@XZ 1000cc50 f i Drcurve.obj
 0001:0000bc70       ?SetToIDNode_S@CDrCurve@@QAEXPAVCDrNode@@@Z 1000cc70 f i Drcurve.obj
 0001:0000bca0       ?GetData_Ex_S@CDrCurve@@QAEHXZ 1000cca0 f i Drcurve.obj
 0001:0000bcc0       ?SetData_Ex_S@CDrCurve@@QAEXH@Z 1000ccc0 f i Drcurve.obj
 0001:0000bcf0       ?IsExpanded_S@CDrCurve@@QAEHXZ 1000ccf0 f i Drcurve.obj
 0001:0000bd10       ?SetExpanded_S@CDrCurve@@QAEXH@Z 1000cd10 f i Drcurve.obj
 0001:0000bd40       ?GetMaxENodes_S@CDrCurve@@QAEHXZ 1000cd40 f i Drcurve.obj
 0001:0000bd60       ?SetMaxENodes_S@CDrCurve@@QAEXH@Z 1000cd60 f i Drcurve.obj
 0001:0000bd90       ?GetRadius_S@CDrCurve@@QAENXZ 1000cd90 f i Drcurve.obj
 0001:0000bdb0       ?SetRadius_S@CDrCurve@@QAEXN@Z 1000cdb0 f i Drcurve.obj
 0001:0000bde0       ?GetTheta_S@CDrCurve@@QAENXZ 1000cde0 f i Drcurve.obj
 0001:0000be00       ?SetTheta_S@CDrCurve@@QAEXN@Z 1000ce00 f i Drcurve.obj
 0001:0000be30       ?GetCenter_S@CDrCurve@@QAE?AUWORLD@@XZ 1000ce30 f i Drcurve.obj
 0001:0000be60       ?SetCenter_S@CDrCurve@@QAEXUWORLD@@@Z 1000ce60 f i Drcurve.obj
 0001:0000bec0       ?GetNormal_S@CDrCurve@@QAE?AUWORLD@@XZ 1000cec0 f i Drcurve.obj
 0001:0000bef0       ?SetNormal_S@CDrCurve@@QAEXUWORLD@@@Z 1000cef0 f i Drcurve.obj
 0001:0000bf50       ?GetSegAngle_S@CDrCurve@@QAENXZ 1000cf50 f i Drcurve.obj
 0001:0000bf70       ?SetSegAngle_S@CDrCurve@@QAEXN@Z 1000cf70 f i Drcurve.obj
 0001:0000bfa0       ?GetCNode_CC@CDrCurve@@QAEPAVCDrNode@@XZ 1000cfa0 f i Drcurve.obj
 0001:0000bfc0       ?SetCNode_CC@CDrCurve@@QAEXPAVCDrNode@@@Z 1000cfc0 f i Drcurve.obj
 0001:0000bff0       ?GetCNode_TI@CDrCurve@@QAEPAVCDrNode@@XZ 1000cff0 f i Drcurve.obj
 0001:0000c010       ?SetCNode_TI@CDrCurve@@QAEXPAVCDrNode@@@Z 1000d010 f i Drcurve.obj
 0001:0000c040       ?GetCNode_CA@CDrCurve@@QAEPAVCDrNode@@XZ 1000d040 f i Drcurve.obj
 0001:0000c060       ?SetCNode_CA@CDrCurve@@QAEXPAVCDrNode@@@Z 1000d060 f i Drcurve.obj
 0001:0000c090       ?GetCNode_CB@CDrCurve@@QAEPAVCDrNode@@XZ 1000d090 f i Drcurve.obj
 0001:0000c0b0       ?SetCNode_CB@CDrCurve@@QAEXPAVCDrNode@@@Z 1000d0b0 f i Drcurve.obj
 0001:0000c0e0       ?IsHole_S@CDrCurve@@QAEHXZ 1000d0e0 f i Drcurve.obj
 0001:0000c100       ?SetHole_S@CDrCurve@@QAEXH@Z 1000d100 f i Drcurve.obj
 0001:0000c130       ?GetpTangents_S@CDrCurve@@QAEPAUWORLD@@XZ 1000d130 f i Drcurve.obj
 0001:0000c150       ?SetpTangents_S@CDrCurve@@QAEXPAUWORLD@@@Z 1000d150 f i Drcurve.obj
 0001:0000c180       ?GetpCurvatures_S@CDrCurve@@QAEPANXZ 1000d180 f i Drcurve.obj
 0001:0000c1a0       ?SetpCurvatures_S@CDrCurve@@QAEXPAN@Z 1000d1a0 f i Drcurve.obj
 0001:0000c1d0       ?GetRatio_S@CDrCurve@@QAENXZ 1000d1d0 f i Drcurve.obj
 0001:0000c1f0       ?SetRatio_S@CDrCurve@@QAEXN@Z 1000d1f0 f i Drcurve.obj
 0001:0000c220       ?IsAxisInput@CDrCurve@@QAEHXZ 1000d220 f i Drcurve.obj
 0001:0000c240       ?SetAxisInput@CDrCurve@@QAEXH@Z 1000d240 f i Drcurve.obj
 0001:0000c270       ?GetAxis@CDrCurve@@QAEHXZ  1000d270 f i Drcurve.obj
 0001:0000c290       ?SetAxis@CDrCurve@@QAEXH@Z 1000d290 f i Drcurve.obj
 0001:0000c2c0       ?IsNegative@CDrCurve@@QAEHXZ 1000d2c0 f i Drcurve.obj
 0001:0000c2e0       ?SetNegative@CDrCurve@@QAEXH@Z 1000d2e0 f i Drcurve.obj
 0001:0000c310       ?GetCircleType@CDrCurve@@QAE?AW4CIRCLETYPE@@XZ 1000d310 f i Drcurve.obj
 0001:0000c330       ?SetCircleType@CDrCurve@@QAEXW4CIRCLETYPE@@@Z 1000d330 f i Drcurve.obj
 0001:0000c360       ?GetInputType@CDrCurve@@QAEHXZ 1000d360 f i Drcurve.obj
 0001:0000c380       ?SetInputType@CDrCurve@@QAEXH@Z 1000d380 f i Drcurve.obj
 0001:0000c3b0       ?IsArcType@CDrCurve@@QAEHXZ 1000d3b0 f i Drcurve.obj
 0001:0000c3d0       ?SetArcType@CDrCurve@@QAEXH@Z 1000d3d0 f i Drcurve.obj
 0001:0000c400       ?GetElperSegList_S@CDrCurve@@QAEPAV?$CList@HH@@XZ 1000d400 f i Drcurve.obj
 0001:0000c420       ?IsSkewed@CDrCurve@@UAEHXZ 1000d420 f i Drcurve.obj
 0001:0000c440       ?SetSkewed@CDrCurve@@UAEXH@Z 1000d440 f i Drcurve.obj
 0001:0000c470       ?IsLinSpr@CDrCurve@@UAEHXZ 1000d470 f i Drcurve.obj
 0001:0000c490       ?SetLinSpr@CDrCurve@@UAEXH@Z 1000d490 f i Drcurve.obj
 0001:0000c4c0       ?IsLinSnu@CDrCurve@@UAEHXZ 1000d4c0 f i Drcurve.obj
 0001:0000c4e0       ?SetLinSnu@CDrCurve@@UAEXH@Z 1000d4e0 f i Drcurve.obj
 0001:0000c510       ?CullWorld@CDrCurve@@UAEHUWORLD@@@Z 1000d510 f i Drcurve.obj
 0001:0000c530       ?CullScreen@CDrCurve@@UAEHPAUMATRIX@@@Z 1000d530 f i Drcurve.obj
 0001:0000c550       ?Calc_CentroidWorld@CDrCurve@@UAEXXZ 1000d550 f i Drcurve.obj
 0001:0000c570       ?Calc_CentroidEye@CDrCurve@@UAEXXZ 1000d570 f i Drcurve.obj
 0001:0000c590       ?Calc_CentroidScreen3D@CDrCurve@@UAEXNN@Z 1000d590 f i Drcurve.obj
 0001:0000c5b0       ?Calc_NormalWorld@CDrCurve@@UAEXXZ 1000d5b0 f i Drcurve.obj
 0001:0000c5d0       ?TransformNormalToEye@CDrCurve@@UAEXPAUMATRIX@@@Z 1000d5d0 f i Drcurve.obj
 0001:0000c5f0       ?ProjectNormalToScreen3D@CDrCurve@@UAEXPAUMATRIX@@NN@Z 1000d5f0 f i Drcurve.obj
 0001:0000c610       ?GetNormalWorld@CDrCurve@@UAEPAUWORLD@@XZ 1000d610 f i Drcurve.obj
 0001:0000c630       ?SetNormalWorld@CDrCurve@@UAEXUWORLD@@@Z 1000d630 f i Drcurve.obj
 0001:0000c650       ?GetNormalEye@CDrCurve@@UAEPAUWORLD@@XZ 1000d650 f i Drcurve.obj
 0001:0000c670       ?SetNormalEye@CDrCurve@@UAEXUWORLD@@@Z 1000d670 f i Drcurve.obj
 0001:0000c690       ?GetNormalScreen3D@CDrCurve@@UAEPAUWORLD@@XZ 1000d690 f i Drcurve.obj
 0001:0000c6b0       ?SetNormalScreen3D@CDrCurve@@UAEXUWORLD@@@Z 1000d6b0 f i Drcurve.obj
 0001:0000c6d0       ?GetNormalScreen2D@CDrCurve@@UAEPAUtagPOINT@@XZ 1000d6d0 f i Drcurve.obj
 0001:0000c6f0       ?SetNormalScreen2D@CDrCurve@@UAEXUtagPOINT@@@Z 1000d6f0 f i Drcurve.obj
 0001:0000c710       ?GetNodTopoList@CDrCurve@@QAEPAVCDListMgr@@XZ 1000d710 f i Drcurve.obj
 0001:0000c730       ?GetSuppCardList@CDrCurve@@QAEPAV?$CList@Usupportcard@@U1@@@XZ 1000d730 f i Drcurve.obj
 0001:0000c750       ?GetStaLCardList@CDrCurve@@QAEPAV?$CList@UstaLcard@@U1@@@XZ 1000d750 f i Drcurve.obj
 0001:0000c770       ?GetBndryPtList@CDrCurve@@QAEPAV?$CList@UWORLD@@U1@@@XZ 1000d770 f i Drcurve.obj
 0001:0000c790       ?GetBezierType@CDrCurve@@QAE?AW4BEZIERTYPE@@XZ 1000d790 f i Drcurve.obj
 0001:0000c7b0       ?SetBezierType@CDrCurve@@QAEXW4BEZIERTYPE@@@Z 1000d7b0 f i Drcurve.obj
 0001:0000c7e0       ?CreateObject@CDrCurve@@SGPAVCObject@@XZ 1000d7e0 f   Drcurve.obj
 0001:0000c850       ?_GetBaseClass@CDrCurve@@KGPAUCRuntimeClass@@XZ 1000d850 f   Drcurve.obj
 0001:0000c870       ?GetRuntimeClass@CDrCurve@@UBEPAUCRuntimeClass@@XZ 1000d870 f   Drcurve.obj
 0001:0000c8d0       ??0AFX_CLASSINIT@@QAE@PAUCRuntimeClass@@@Z 1000d8d0 f i Drcurve.obj
 0001:0000c900       ??5@YGAAVCArchive@@AAV0@AAPAVCDrCurve@@@Z 1000d900 f   Drcurve.obj
 0001:0000c930       ??0CDrCurve@@QAE@XZ        1000d930 f   Drcurve.obj
 0001:0000ce50       ??_GCDrCurve@@UAEPAXI@Z    1000de50 f i Drcurve.obj
 0001:0000ce90       ??_ECDrCurve@@UAEPAXI@Z    1000de90 f i Drcurve.obj
 0001:0000cf10       ??1CDrCurve@@UAE@XZ        1000df10 f   Drcurve.obj
 0001:0000d2e0       ?ReadyToDelete@CDrCurve@@UAEXXZ 1000e2e0 f   Drcurve.obj
 0001:0000d680       ??1supportcard@@QAE@XZ     1000e680 f i Drcurve.obj
 0001:0000d700       ??1staLcard@@QAE@XZ        1000e700 f i Drcurve.obj
 0001:0000d7c0       ?DealObjectDialog@CDrCurve@@UAEHXZ 1000e7c0 f   Drcurve.obj
 0001:0000d7e0       ?SetObjectInfo@CDrCurve@@UAEXPAVCDrObject@@@Z 1000e7e0 f   Drcurve.obj
 0001:0000e340       ?GetObjectInfo@CDrCurve@@UAEXPAVCDrObject@@@Z 1000f340 f   Drcurve.obj
 0001:0000ee90       ?DoDataView@CDrCurve@@UAEXPAVCDC@@H@Z 1000fe90 f   Drcurve.obj
 0001:0000ef10       ?Pack_drPipe@CDrCurve@@UAEXPAVCString@@@Z 1000ff10 f   Drcurve.obj
 0001:0000f030       ?Get_EndTangent@CDrCurve@@QAEXAAUWORLD@@HN@Z 10010030 f   Drcurve.obj
 0001:0000f0c0       ?Get_EndTangent_Vector@CDrCurve@@QAEXAAUVECTOR@@HN@Z 100100c0 f   Drcurve.obj
 0001:0000f190       ?Get_TangentAtaNode_Vector@CDrCurve@@QAEXUWORLD@@AAUVECTOR@@N@Z 10010190 f   Drcurve.obj
 0001:0000f210       ?Calc_3DBoundsLocal@CDrCurve@@UAEHXZ 10010210 f   Drcurve.obj
 0001:0000f3c0       ?TransformObjectToWorld@CDrCurve@@UAEXPAUMATRIX@@H@Z 100103c0 f   Drcurve.obj
 0001:0000f3f0       ?TransformObjectToView@CDrCurve@@UAEXPAUMATRIX@@@Z 100103f0 f   Drcurve.obj
 0001:0000f430       ?Gen_XFormedCurveForDirtyDraw@CDrCurve@@IAEXXZ 10010430 f   Drcurve.obj
 0001:0000f650       ?RemoveHiddenObject@CDrCurve@@UAEHPAUMATRIX@@UWORLD@@H@Z 10010650 f   Drcurve.obj
 0001:0000f670       ?ProjectObject@CDrCurve@@UAEXPAUMATRIX@@NN@Z 10010670 f   Drcurve.obj
 0001:0000f6b0       ?TransformToWorldPos@CDrCurve@@IAEXPAUMATRIX@@H@Z 100106b0 f   Drcurve.obj
 0001:0000f980       ?TransformToEyePos@CDrCurve@@IAEXPAUMATRIX@@@Z 10010980 f   Drcurve.obj
 0001:0000fac0       ?ProjectToScreenPos@CDrCurve@@IAEXPAUMATRIX@@NN@Z 10010ac0 f   Drcurve.obj
 0001:0000fbf0       ?RefillCNEyePosForDirtyDraw@CDrCurve@@QAEXXZ 10010bf0 f   Drcurve.obj
 0001:0000fd10       ?RefillCNLocalPosForPosting@CDrCurve@@QAEXXZ 10010d10 f   Drcurve.obj
 0001:0000fe40       ?ProjectForDirtyDraw@CDrCurve@@IAEXPAUMATRIX@@NN@Z 10010e40 f   Drcurve.obj
 0001:0000ff60       ?Calc_ScreenRectFromCNodes@CDrCurve@@IAEXXZ 10010f60 f   Drcurve.obj
 0001:0000ff90       ?Rearrange3DCorners@CDrCurve@@IAEXPAUWORLD@@0@Z 10010f90 f   Drcurve.obj
 0001:00010070       ?Rearrange2DCorners@CDrCurve@@IAEXXZ 10011070 f   Drcurve.obj
 0001:00010100       ?FinishObject@CDrCurve@@MAEXXZ 10011100 f   Drcurve.obj
 0001:000102d0       ?InitDraw@CDrCurve@@UAEXPAVCDC@@HHPAUMATRIX@@1NNN@Z 100112d0 f   Drcurve.obj
 0001:000103e0       ?DoDrawView@CDrCurve@@UAEXPAVCDC@@H@Z 100113e0 f   Drcurve.obj
 0001:00010530       ?GoDoIt@CDrCurve@@IAEXPAVCDC@@@Z 10011530 f   Drcurve.obj
 0001:00010790       ?GoDoControlNodes@CDrCurve@@IAEXPAVCDC@@@Z 10011790 f   Drcurve.obj
 0001:000108e0       ?NumberOfCurves@CDrCurve@@QAEHW4CURVEPROC@@HPAHHH@Z 100118e0 f   Drcurve.obj
 0001:00010970       ?GenerateCurve@CDrCurve@@QAEHPAUWORLD@@PAN@Z 10011970 f   Drcurve.obj
 0001:00010d80       ?Get_TangentAtaNode@CDrCurve@@QAEHUWORLD@@AAU2@N@Z 10011d80 f   Drcurve.obj
 0001:00010e30       ?GenerateTangent@CDrCurve@@QAEHPAUWORLD@@@Z 10011e30 f   Drcurve.obj
 0001:00011200       ?IsKeyMatch@CDrCurve@@UAEHPAVCDrObject@@VCString@@I@Z 10012200 f   Drcurve.obj
 0001:000112c0       ?IsObjectHit@CDrCurve@@UAEHHUtagPOINT@@@Z 100122c0 f   Drcurve.obj
 0001:00011760       ?AppendToObject@CDrCurve@@QAEHPAVCDListMgr@@00000000@Z 10012760 f   Drcurve.obj
 0001:00011920       ?GetCurrentBezSeg_N_s@CDrCurve@@QAEHHAAHAAN@Z 10012920 f   Drcurve.obj
 0001:00011a10       ?GetAPointOnCurrentBezSeg@CDrCurve@@QAEHHPAUWORLD@@PAN@Z 10012a10 f   Drcurve.obj
 0001:00011b80       ?Serialize@CDrCurve@@UAEXAAVCArchive@@@Z 10012b80 f   Drcurve.obj
 0001:00011f00       ??0?$CList@Usupportcard@@U1@@@QAE@H@Z 10012f00 f i Drcurve.obj
 0001:00011fc0       ?IsEmpty@?$CList@Usupportcard@@U1@@@QBEHXZ 10012fc0 f i Drcurve.obj
 0001:00011ff0       ?RemoveHead@?$CList@Usupportcard@@U1@@@QAE?AUsupportcard@@XZ 10012ff0 f i Drcurve.obj
 0001:00012130       ?AddTail@?$CList@Usupportcard@@U1@@@QAEXPAV1@@Z 10013130 f i Drcurve.obj
 0001:000121d0       ?RemoveAll@?$CList@Usupportcard@@U1@@@QAEXXZ 100131d0 f i Drcurve.obj
 0001:00012260       ??1?$CList@Usupportcard@@U1@@@UAE@XZ 10013260 f i Drcurve.obj
 0001:000122e0       ?Serialize@?$CList@Usupportcard@@U1@@@UAEXAAVCArchive@@@Z 100132e0 f i Drcurve.obj
 0001:00012430       ?Dump@?$CList@Usupportcard@@U1@@@UBEXAAVCDumpContext@@@Z 10013430 f i Drcurve.obj
 0001:000124d0       ?AssertValid@?$CList@Usupportcard@@U1@@@UBEXXZ 100134d0 f i Drcurve.obj
 0001:000125a0       ??0?$CList@UstaLcard@@U1@@@QAE@H@Z 100135a0 f i Drcurve.obj
 0001:00012660       ?IsEmpty@?$CList@UstaLcard@@U1@@@QBEHXZ 10013660 f i Drcurve.obj
 0001:00012690       ?RemoveHead@?$CList@UstaLcard@@U1@@@QAE?AUstaLcard@@XZ 10013690 f i Drcurve.obj
 0001:000127d0       ?AddTail@?$CList@UstaLcard@@U1@@@QAEXPAV1@@Z 100137d0 f i Drcurve.obj
 0001:00012870       ?RemoveAll@?$CList@UstaLcard@@U1@@@QAEXXZ 10013870 f i Drcurve.obj
 0001:00012900       ??1?$CList@UstaLcard@@U1@@@UAE@XZ 10013900 f i Drcurve.obj
 0001:00012980       ?Serialize@?$CList@UstaLcard@@U1@@@UAEXAAVCArchive@@@Z 10013980 f i Drcurve.obj
 0001:00012ad0       ?Dump@?$CList@UstaLcard@@U1@@@UBEXAAVCDumpContext@@@Z 10013ad0 f i Drcurve.obj
 0001:00012b70       ?AssertValid@?$CList@UstaLcard@@U1@@@UBEXXZ 10013b70 f i Drcurve.obj
 0001:00012c40       ??0?$CList@UWORLD@@U1@@@QAE@H@Z 10013c40 f i Drcurve.obj
 0001:00012d00       ?IsEmpty@?$CList@UWORLD@@U1@@@QBEHXZ 10013d00 f i Drcurve.obj
 0001:00012d30       ?AddTail@?$CList@UWORLD@@U1@@@QAEXPAV1@@Z 10013d30 f i Drcurve.obj
 0001:00012dc0       ??1?$CList@UWORLD@@U1@@@UAE@XZ 10013dc0 f i Drcurve.obj
 0001:00012e40       ?Serialize@?$CList@UWORLD@@U1@@@UAEXAAVCArchive@@@Z 10013e40 f i Drcurve.obj
 0001:00012f30       ?Dump@?$CList@UWORLD@@U1@@@UBEXAAVCDumpContext@@@Z 10013f30 f i Drcurve.obj
 0001:00012fd0       ?AssertValid@?$CList@UWORLD@@U1@@@UBEXXZ 10013fd0 f i Drcurve.obj
 0001:000130a0       ??0?$CList@HH@@QAE@H@Z     100140a0 f i Drcurve.obj
 0001:00013160       ?IsEmpty@?$CList@HH@@QBEHXZ 10014160 f i Drcurve.obj
 0001:00013190       ?AddTail@?$CList@HH@@QAEXPAV1@@Z 10014190 f i Drcurve.obj
 0001:00013220       ?RemoveAll@?$CList@HH@@QAEXXZ 10014220 f i Drcurve.obj
 0001:000132b0       ??1?$CList@HH@@UAE@XZ      100142b0 f i Drcurve.obj
 0001:00013330       ?Serialize@?$CList@HH@@UAEXAAVCArchive@@@Z 10014330 f i Drcurve.obj
 0001:00013420       ?Dump@?$CList@HH@@UBEXAAVCDumpContext@@@Z 10014420 f i Drcurve.obj
 0001:000134c0       ?AssertValid@?$CList@HH@@UBEXXZ 100144c0 f i Drcurve.obj
 0001:00013590       ??_E?$CList@Usupportcard@@U1@@@UAEPAXI@Z 10014590 f i Drcurve.obj
 0001:00013590       ??_G?$CList@Usupportcard@@U1@@@UAEPAXI@Z 10014590 f i Drcurve.obj
 0001:000135d0       ??0supportcard@@QAE@ABU0@@Z 100145d0 f i Drcurve.obj
 0001:000137c0       ??0supportcard@@QAE@XZ     100147c0 f i Drcurve.obj
 0001:00013840       ??_E?$CList@UstaLcard@@U1@@@UAEPAXI@Z 10014840 f i Drcurve.obj
 0001:00013840       ??_G?$CList@UstaLcard@@U1@@@UAEPAXI@Z 10014840 f i Drcurve.obj
 0001:00013880       ??0staLcard@@QAE@ABU0@@Z   10014880 f i Drcurve.obj
 0001:00013b70       ??0staLcard@@QAE@XZ        10014b70 f i Drcurve.obj
 0001:00013c40       ??_G?$CList@UWORLD@@U1@@@UAEPAXI@Z 10014c40 f i Drcurve.obj
 0001:00013c40       ??_E?$CList@UWORLD@@U1@@@UAEPAXI@Z 10014c40 f i Drcurve.obj
 0001:00013c80       ??_E?$CList@HH@@UAEPAXI@Z  10014c80 f i Drcurve.obj
 0001:00013c80       ??_G?$CList@HH@@UAEPAXI@Z  10014c80 f i Drcurve.obj
 0001:00013cc0       ?AddTail@?$CList@Usupportcard@@U1@@@QAEPAU__POSITION@@Usupportcard@@@Z 10014cc0 f i Drcurve.obj
 0001:00013d80       ?GetHeadPosition@?$CList@Usupportcard@@U1@@@QBEPAU__POSITION@@XZ 10014d80 f i Drcurve.obj
 0001:00013da0       ?GetNext@?$CList@Usupportcard@@U1@@@QAEAAUsupportcard@@AAPAU__POSITION@@@Z 10014da0 f i Drcurve.obj
 0001:00013e00       ?FreeNode@?$CList@Usupportcard@@U1@@@IAEXPAUCNode@1@@Z 10014e00 f i Drcurve.obj
 0001:00013e80       ?DestructElements@@YGXPAUsupportcard@@H@Z 10014e80 f i Drcurve.obj
 0001:00013f00       ?SerializeElements@@YGXAAVCArchive@@PAUsupportcard@@H@Z 10014f00 f i Drcurve.obj
 0001:00013f90       ?DumpElements@@YGXAAVCDumpContext@@PBUsupportcard@@H@Z 10014f90 f i Drcurve.obj
 0001:00013fe0       ?AddTail@?$CList@UstaLcard@@U1@@@QAEPAU__POSITION@@UstaLcard@@@Z 10014fe0 f i Drcurve.obj
 0001:000140a0       ?GetHeadPosition@?$CList@UstaLcard@@U1@@@QBEPAU__POSITION@@XZ 100150a0 f i Drcurve.obj
 0001:000140c0       ?GetNext@?$CList@UstaLcard@@U1@@@QAEAAUstaLcard@@AAPAU__POSITION@@@Z 100150c0 f i Drcurve.obj
 0001:00014120       ?FreeNode@?$CList@UstaLcard@@U1@@@IAEXPAUCNode@1@@Z 10015120 f i Drcurve.obj
 0001:000141a0       ?DestructElements@@YGXPAUstaLcard@@H@Z 100151a0 f i Drcurve.obj
 0001:00014220       ?SerializeElements@@YGXAAVCArchive@@PAUstaLcard@@H@Z 10015220 f i Drcurve.obj
 0001:000142b0       ?DumpElements@@YGXAAVCDumpContext@@PBUstaLcard@@H@Z 100152b0 f i Drcurve.obj
 0001:00014300       ?AddTail@?$CList@UWORLD@@U1@@@QAEPAU__POSITION@@UWORLD@@@Z 10015300 f i Drcurve.obj
 0001:00014380       ?RemoveAll@?$CList@UWORLD@@U1@@@QAEXXZ 10015380 f i Drcurve.obj
 0001:00014410       ?GetHeadPosition@?$CList@UWORLD@@U1@@@QBEPAU__POSITION@@XZ 10015410 f i Drcurve.obj
 0001:00014430       ?GetNext@?$CList@UWORLD@@U1@@@QAEAAUWORLD@@AAPAU__POSITION@@@Z 10015430 f i Drcurve.obj
 0001:00014490       ?SerializeElements@@YGXAAVCArchive@@PAUWORLD@@H@Z 10015490 f i Drcurve.obj
 0001:00014510       ?DumpElements@@YGXAAVCDumpContext@@PBUWORLD@@H@Z 10015510 f i Drcurve.obj
 0001:00014560       ?AddTail@?$CList@HH@@QAEPAU__POSITION@@H@Z 10015560 f i Drcurve.obj
 0001:000145d0       ?GetHeadPosition@?$CList@HH@@QBEPAU__POSITION@@XZ 100155d0 f i Drcurve.obj
 0001:000145f0       ?GetNext@?$CList@HH@@QAEAAHAAPAU__POSITION@@@Z 100155f0 f i Drcurve.obj
 0001:00014650       ?DestructElements@@YGXPAHH@Z 10015650 f i Drcurve.obj
 0001:000146c0       ?SerializeElements@@YGXAAVCArchive@@PAHH@Z 100156c0 f i Drcurve.obj
 0001:00014740       ?DumpElements@@YGXAAVCDumpContext@@PBHH@Z 10015740 f i Drcurve.obj
 0001:00014790       ??4supportcard@@QAEAAU0@ABU0@@Z 10015790 f i Drcurve.obj
 0001:000149a0       ??_Gsupportcard@@QAEPAXI@Z 100159a0 f i Drcurve.obj
 0001:000149e0       ??4staLcard@@QAEAAU0@ABU0@@Z 100159e0 f i Drcurve.obj
 0001:00014cd0       ??_GstaLcard@@QAEPAXI@Z    10015cd0 f i Drcurve.obj
 0001:00014d10       ?NewNode@?$CList@Usupportcard@@U1@@@IAEPAUCNode@1@PAU21@0@Z 10015d10 f i Drcurve.obj
 0001:00014e40       ?NewNode@?$CList@UstaLcard@@U1@@@IAEPAUCNode@1@PAU21@0@Z 10015e40 f i Drcurve.obj
 0001:00014f70       ?NewNode@?$CList@UWORLD@@U1@@@IAEPAUCNode@1@PAU21@0@Z 10015f70 f i Drcurve.obj
 0001:00015090       ?DestructElements@@YGXPAUWORLD@@H@Z 10016090 f i Drcurve.obj
 0001:00015100       ?NewNode@?$CList@HH@@IAEPAUCNode@1@PAU21@0@Z 10016100 f i Drcurve.obj
 0001:00015220       ?ConstructElements@@YGXPAUsupportcard@@H@Z 10016220 f i Drcurve.obj
 0001:00015310       ??2@YAPAXIPAX@Z            10016310 f i Drcurve.obj
 0001:00015330       ??3@YAXPAX0@Z              10016330 f i Drcurve.obj
 0001:00015340       ?ConstructElements@@YGXPAUstaLcard@@H@Z 10016340 f i Drcurve.obj
 0001:00015430       ?ConstructElements@@YGXPAUWORLD@@H@Z 10016430 f i Drcurve.obj
 0001:000154c0       ?ConstructElements@@YGXPAHH@Z 100164c0 f i Drcurve.obj
 0001:00015550       ?SetzMin@CDrClip@@UAEXN@Z  10016550 f i Drnode.obj
 0001:00015580       ?GetzMin@CDrClip@@UAENXZ   10016580 f i Drnode.obj
 0001:000155a0       ?SetPerspective@CDrClip@@UAEXH@Z 100165a0 f i Drnode.obj
 0001:000155c0       ?GetPerspective@CDrClip@@UAEHXZ 100165c0 f i Drnode.obj
 0001:000155e0       ?SetCanonical@CDrClip@@UAEXH@Z 100165e0 f i Drnode.obj
 0001:00015600       ?GetCanonical@CDrClip@@UAEHXZ 10016600 f i Drnode.obj
 0001:00015620       ?CreateObject@CDrNode@@SGPAVCObject@@XZ 10016620 f   Drnode.obj
 0001:00015690       ?_GetBaseClass@CDrNode@@KGPAUCRuntimeClass@@XZ 10016690 f   Drnode.obj
 0001:000156b0       ?GetRuntimeClass@CDrNode@@UBEPAUCRuntimeClass@@XZ 100166b0 f   Drnode.obj
 0001:00015710       ??5@YGAAVCArchive@@AAV0@AAPAVCDrNode@@@Z 10016710 f   Drnode.obj
 0001:00015740       ??0CDrNode@@QAE@XZ         10016740 f   Drnode.obj
 0001:00015930       ??_GCDrNode@@UAEPAXI@Z     10016930 f i Drnode.obj
 0001:00015970       ??_ECDrNode@@UAEPAXI@Z     10016970 f i Drnode.obj
 0001:000159f0       ??0nodecard@@QAE@XZ        100169f0 f i Drnode.obj
 0001:00015a80       ??1nodecard@@QAE@XZ        10016a80 f i Drnode.obj
 0001:00015b10       ??1CDrNode@@UAE@XZ         10016b10 f   Drnode.obj
 0001:00015be0       ?ReadyToDelete@CDrNode@@UAEXXZ 10016be0 f   Drnode.obj
 0001:00016200       ?DealObjectDialog@CDrNode@@UAEHXZ 10017200 f   Drnode.obj
 0001:00016220       ?SetObjectInfo@CDrNode@@UAEXPAVCDrObject@@@Z 10017220 f   Drnode.obj
 0001:000166f0       ?GetObjectInfo@CDrNode@@UAEXPAVCDrObject@@@Z 100176f0 f   Drnode.obj
 0001:00016bc0       ?DoDataView@CDrNode@@UAEXPAVCDC@@H@Z 10017bc0 f   Drnode.obj
 0001:00016c40       ?Pack_drPipe@CDrNode@@UAEXPAVCString@@@Z 10017c40 f   Drnode.obj
 0001:00016f50       ?TransformObjectToWorld@CDrNode@@UAEXPAUMATRIX@@H@Z 10017f50 f   Drnode.obj
 0001:00016f80       ?TransformObjectToView@CDrNode@@UAEXPAUMATRIX@@@Z 10017f80 f   Drnode.obj
 0001:00016fb0       ?RemoveHiddenObject@CDrNode@@UAEHPAUMATRIX@@UWORLD@@H@Z 10017fb0 f   Drnode.obj
 0001:00016fd0       ?ProjectObject@CDrNode@@UAEXPAUMATRIX@@NN@Z 10017fd0 f   Drnode.obj
 0001:00017010       ?TransformToWorldPos@CDrNode@@IAEXPAUMATRIX@@H@Z 10018010 f   Drnode.obj
 0001:00017050       ?TransformToEyePos@CDrNode@@IAEXPAUMATRIX@@@Z 10018050 f   Drnode.obj
 0001:00017080       ?ProjectToScreenPos@CDrNode@@IAEXPAUMATRIX@@NN@Z 10018080 f   Drnode.obj
 0001:000170f0       ?Calc_ScreenRectFromCNodes@CDrNode@@IAEXXZ 100180f0 f   Drnode.obj
 0001:00017110       ?FinishObject@CDrNode@@UAEXXZ 10018110 f   Drnode.obj
 0001:000171c0       ?Calc_WorldPos@CDrNode@@QAEXPAUMATRIX@@H@Z 100181c0 f   Drnode.obj
 0001:00017290       ?Calc_EyePos@CDrNode@@QAEXPAUMATRIX@@@Z 10018290 f   Drnode.obj
 0001:00017330       ?ProjectToScreenPos3D@CDrNode@@QAEXPAUMATRIX@@@Z 10018330 f   Drnode.obj
 0001:000173d0       ?Calc_NormalWorld@CDrNode@@UAEXXZ 100183d0 f   Drnode.obj
 0001:00017490       ?Calc_NormalEye@CDrNode@@QAEXXZ 10018490 f   Drnode.obj
 0001:00017550       ?Calc_NormalScreen3D@CDrNode@@QAEXXZ 10018550 f   Drnode.obj
 0001:00017610       ?InitDraw@CDrNode@@UAEXPAVCDC@@HHPAUMATRIX@@1NNN@Z 10018610 f   Drnode.obj
 0001:00017830       ?DoDrawView@CDrNode@@UAEXPAVCDC@@H@Z 10018830 f   Drnode.obj
 0001:00017870       ?GoDoIt@CDrNode@@IAEXPAVCDC@@PAUtagPOINT@@H@Z 10018870 f   Drnode.obj
 0001:00017a80       ?IsKeyMatch@CDrNode@@UAEHPAVCDrObject@@VCString@@I@Z 10018a80 f   Drnode.obj
 0001:00017be0       ?Serialize@CDrNode@@UAEXAAVCArchive@@@Z 10018be0 f   Drnode.obj
 0001:00017fd0       ?IsObjectHit@CDrNode@@UAEHHUtagPOINT@@@Z 10018fd0 f   Drnode.obj
 0001:00018090       ?IsObjectHit@CDrNode@@UAEHNUWORLD@@@Z 10019090 f   Drnode.obj
 0001:00018150       ?IsSubDivided@CTriangle@@UAEHXZ 10019150 f i Drobj3d.obj
 0001:00018170       ?SetSubDivided@CTriangle@@UAEXH@Z 10019170 f i Drobj3d.obj
 0001:00018190       ?GetSubTriangleIndex@CTriangle@@UAEHH@Z 10019190 f i Drobj3d.obj
 0001:000181b0       ?SetSubTriangleIndex@CTriangle@@UAEXHH@Z 100191b0 f i Drobj3d.obj
 0001:000181e0       ?GetType@CTriangle@@UAEHXZ 100191e0 f i Drobj3d.obj
 0001:00018200       ?SetType@CTriangle@@UAEXH@Z 10019200 f i Drobj3d.obj
 0001:00018220       ?GetCNIndexList@CTriangle@@UAEPAV?$CList@HH@@XZ 10019220 f i Drobj3d.obj
 0001:00018240       ?GetPatIndex@CTriangle@@UAEHXZ 10019240 f i Drobj3d.obj
 0001:00018260       ?SetPatIndex@CTriangle@@UAEXH@Z 10019260 f i Drobj3d.obj
 0001:00018280       ?GetDegree@CTriangle@@UAEHXZ 10019280 f i Drobj3d.obj
 0001:000182a0       ?SetDegree@CTriangle@@UAEXH@Z 100192a0 f i Drobj3d.obj
 0001:000182c0       ?GetVertexIndex@CTriangle@@UAEHH@Z 100192c0 f i Drobj3d.obj
 0001:000182e0       ?SetVertexIndex@CTriangle@@UAEXHH@Z 100192e0 f i Drobj3d.obj
 0001:00018310       ?GetVertexIndex@CTriangle@@UAEPAHXZ 10019310 f i Drobj3d.obj
 0001:00018330       ?GetNebrVertexIndex@CTriangle@@UAEHH@Z 10019330 f i Drobj3d.obj
 0001:00018350       ?SetNebrVertexIndex@CTriangle@@UAEXHH@Z 10019350 f i Drobj3d.obj
 0001:00018380       ?GetNebrVertexIndex@CTriangle@@UAEPAHXZ 10019380 f i Drobj3d.obj
 0001:000183a0       ?GetNebrTriangleIndex@CTriangle@@UAEHH@Z 100193a0 f i Drobj3d.obj
 0001:000183c0       ?SetNebrTriangleIndex@CTriangle@@UAEXHH@Z 100193c0 f i Drobj3d.obj
 0001:000183f0       ?GetNebrTriangleIndex@CTriangle@@UAEPAHXZ 100193f0 f i Drobj3d.obj
 0001:00018410       ?GetOutSeg@CTriangle@@UAEHXZ 10019410 f i Drobj3d.obj
 0001:00018430       ?SetOutSeg@CTriangle@@UAEXH@Z 10019430 f i Drobj3d.obj
 0001:00018450       ?GetiOutGlo@CTriangle@@UAEHXZ 10019450 f i Drobj3d.obj
 0001:00018470       ?SetiOutGlo@CTriangle@@UAEXH@Z 10019470 f i Drobj3d.obj
 0001:000184a0       ?GetjOutGlo@CTriangle@@UAEHXZ 100194a0 f i Drobj3d.obj
 0001:000184c0       ?SetjOutGlo@CTriangle@@UAEXH@Z 100194c0 f i Drobj3d.obj
 0001:000184f0       ??1CTriangle@@UAE@XZ       100194f0 f i Drobj3d.obj
 0001:00018550       ??_GCTriangle@@UAEPAXI@Z   10019550 f i Drobj3d.obj
 0001:00018590       ??_ECTriangle@@UAEPAXI@Z   10019590 f i Drobj3d.obj
 0001:00018610       ?GetCategory@CDrPatch@@UAE?AW4CATEGORY@@XZ 10019610 f i Drobj3d.obj
 0001:00018630       ?SetCategory@CDrPatch@@UAEXW4CATEGORY@@@Z 10019630 f i Drobj3d.obj
 0001:00018650       ?IsNormalNeeded@CDrPatch@@UAEHXZ 10019650 f i Drobj3d.obj
 0001:00018670       ?SetNormalNeed@CDrPatch@@UAEXH@Z 10019670 f i Drobj3d.obj
 0001:000186a0       ?GetCurveType_T@CDrPatch@@QAE?AW4CURVEPROC@@XZ 100196a0 f i Drobj3d.obj
 0001:000186c0       ?SetCurveType_T@CDrPatch@@QAEXW4CURVEPROC@@@Z 100196c0 f i Drobj3d.obj
 0001:000186f0       ?GetOutSegUnif_T@CDrPatch@@QAEHXZ 100196f0 f i Drobj3d.obj
 0001:00018710       ?SetOutSegUnif_T@CDrPatch@@QAEXH@Z 10019710 f i Drobj3d.obj
 0001:00018740       ?IsClosed_T@CDrPatch@@QAEHXZ 10019740 f i Drobj3d.obj
 0001:00018760       ?SetClosed_T@CDrPatch@@QAEXH@Z 10019760 f i Drobj3d.obj
 0001:00018790       ?GetMaxBezSegments_T@CDrPatch@@QAEHXZ 10019790 f i Drobj3d.obj
 0001:000187b0       ?SetMaxBezSegments_T@CDrPatch@@QAEXH@Z 100197b0 f i Drobj3d.obj
 0001:000187e0       ?GetMaxCNodes_T@CDrPatch@@QAEHXZ 100197e0 f i Drobj3d.obj
 0001:00018800       ?SetMaxCNodes_T@CDrPatch@@QAEXH@Z 10019800 f i Drobj3d.obj
 0001:00018830       ?GetMaxOutPts_T@CDrPatch@@QAEHXZ 10019830 f i Drobj3d.obj
 0001:00018850       ?SetMaxOutPts_T@CDrPatch@@QAEXH@Z 10019850 f i Drobj3d.obj
 0001:00018880       ?GetNodes_S@CDrPatch@@QAEHXZ 10019880 f i Drobj3d.obj
 0001:000188a0       ?SetNodes_S@CDrPatch@@QAEXH@Z 100198a0 f i Drobj3d.obj
 0001:000188d0       ?GetNodes_T@CDrPatch@@QAEHXZ 100198d0 f i Drobj3d.obj
 0001:000188f0       ?SetNodes_T@CDrPatch@@QAEXH@Z 100198f0 f i Drobj3d.obj
 0001:00018920       ?GetPrimaryDir@CDrPatch@@QAEHXZ 10019920 f i Drobj3d.obj
 0001:00018940       ?SetPrimaryDir@CDrPatch@@QAEXH@Z 10019940 f i Drobj3d.obj
 0001:00018970       ?GetBlendCurve@CDrPatch@@QAEPAVCDrCurve@@XZ 10019970 f i Drobj3d.obj
 0001:00018990       ?SetBlendCurve@CDrPatch@@QAEXPAVCDrCurve@@@Z 10019990 f i Drobj3d.obj
 0001:000189c0       ?GetBlendCurve_U@CDrPatch@@QAEPAVCDrCurve@@XZ 100199c0 f i Drobj3d.obj
 0001:000189e0       ?SetBlendCurve_U@CDrPatch@@QAEXPAVCDrCurve@@@Z 100199e0 f i Drobj3d.obj
 0001:00018a10       ?GetBlendCurve_V@CDrPatch@@QAEPAVCDrCurve@@XZ 10019a10 f i Drobj3d.obj
 0001:00018a30       ?SetBlendCurve_V@CDrPatch@@QAEXPAVCDrCurve@@@Z 10019a30 f i Drobj3d.obj
 0001:00018a60       ?GetBlendCurve_W@CDrPatch@@QAEPAVCDrCurve@@XZ 10019a60 f i Drobj3d.obj
 0001:00018a80       ?SetBlendCurve_W@CDrPatch@@QAEXPAVCDrCurve@@@Z 10019a80 f i Drobj3d.obj
 0001:00018ab0       ?GetVCurveList@CDrPatch@@QAEPAVCDListMgr@@XZ 10019ab0 f i Drobj3d.obj
 0001:00018ad0       ?GetCurveList_U@CDrPatch@@QAEPAVCDListMgr@@XZ 10019ad0 f i Drobj3d.obj
 0001:00018af0       ?GetCurveList_V@CDrPatch@@QAEPAVCDListMgr@@XZ 10019af0 f i Drobj3d.obj
 0001:00018b10       ?GetCurveList_W@CDrPatch@@QAEPAVCDListMgr@@XZ 10019b10 f i Drobj3d.obj
 0001:00018b30       ?GetCurveLatchList_U@CDrPatch@@QAEPAV?$CList@W4CURVELATCH@@W41@@@XZ 10019b30 f i Drobj3d.obj
 0001:00018b50       ?GetCurveLatchList_V@CDrPatch@@QAEPAV?$CList@W4CURVELATCH@@W41@@@XZ 10019b50 f i Drobj3d.obj
 0001:00018b70       ?GetCurveLatchList_W@CDrPatch@@QAEPAV?$CList@W4CURVELATCH@@W41@@@XZ 10019b70 f i Drobj3d.obj
 0001:00018b90       ?IsAdvancedEnd_U@CDrPatch@@QAEHXZ 10019b90 f i Drobj3d.obj
 0001:00018bb0       ?SetAdvancedEnd_U@CDrPatch@@QAEXH@Z 10019bb0 f i Drobj3d.obj
 0001:00018be0       ?GetCornerTwist_U@CDrPatch@@QAEPAY01UWORLD@@XZ 10019be0 f i Drobj3d.obj
 0001:00018c00       ?SetCornerTwist_U@CDrPatch@@QAEXPAY01UWORLD@@@Z 10019c00 f i Drobj3d.obj
 0001:00018c30       ?GetTwistMethod_U@CDrPatch@@QAE?AW4TWIST@@XZ 10019c30 f i Drobj3d.obj
 0001:00018c50       ?SetTwistMethod_U@CDrPatch@@QAEXW4TWIST@@@Z 10019c50 f i Drobj3d.obj
 0001:00018c80       ?IsAdvancedEnd_V@CDrPatch@@QAEHXZ 10019c80 f i Drobj3d.obj
 0001:00018ca0       ?SetAdvancedEnd_V@CDrPatch@@QAEXH@Z 10019ca0 f i Drobj3d.obj
 0001:00018cd0       ?GetCornerTwist_V@CDrPatch@@QAEPAY01UWORLD@@XZ 10019cd0 f i Drobj3d.obj
 0001:00018cf0       ?SetCornerTwist_V@CDrPatch@@QAEXPAY01UWORLD@@@Z 10019cf0 f i Drobj3d.obj
 0001:00018d20       ?GetTwistMethod_V@CDrPatch@@QAE?AW4TWIST@@XZ 10019d20 f i Drobj3d.obj
 0001:00018d40       ?SetTwistMethod_V@CDrPatch@@QAEXW4TWIST@@@Z 10019d40 f i Drobj3d.obj
 0001:00018d70       ?GetEndList_U@CDrPatch@@QAEPAV?$CList@Ublendend@@U1@@@XZ 10019d70 f i Drobj3d.obj
 0001:00018d90       ?GetEndList_V@CDrPatch@@QAEPAV?$CList@Ublendend@@U1@@@XZ 10019d90 f i Drobj3d.obj
 0001:00018db0       ?GetElperSegList_T@CDrPatch@@QAEPAV?$CList@HH@@XZ 10019db0 f i Drobj3d.obj
 0001:00018dd0       ?GetCurveID@CDrPatch@@QAE?AVCString@@H@Z 10019dd0 f i Drobj3d.obj
 0001:00018e10       ?SetCurveID@CDrPatch@@QAEXVCString@@H@Z 10019e10 f i Drobj3d.obj
 0001:00018e70       ?GetBndryCurve@CDrPatch@@QAEPAVCDrCurve@@H@Z 10019e70 f i Drobj3d.obj
 0001:00018ea0       ?SetCurve@CDrPatch@@QAEXPAVCDrCurve@@H@Z 10019ea0 f i Drobj3d.obj
 0001:00018ed0       ?GetCurveLatch@CDrPatch@@QAE?AW4CURVELATCH@@H@Z 10019ed0 f i Drobj3d.obj
 0001:00018f00       ?SetCurveLatch@CDrPatch@@QAEXW4CURVELATCH@@H@Z 10019f00 f i Drobj3d.obj
 0001:00018f30       ?GetFromIDNode_T@CDrPatch@@QAEPAVCDrNode@@XZ 10019f30 f i Drobj3d.obj
 0001:00018f50       ?SetFromIDNode_T@CDrPatch@@QAEXPAVCDrNode@@@Z 10019f50 f i Drobj3d.obj
 0001:00018f80       ?GetToIDNode_T@CDrPatch@@QAEPAVCDrNode@@XZ 10019f80 f i Drobj3d.obj
 0001:00018fa0       ?SetToIDNode_T@CDrPatch@@QAEXPAVCDrNode@@@Z 10019fa0 f i Drobj3d.obj
 0001:00018fd0       ?GetFromPtLocal_T@CDrPatch@@QAEPAUWORLD@@XZ 10019fd0 f i Drobj3d.obj
 0001:00018ff0       ?SetFromPtLocal_T@CDrPatch@@QAEXUWORLD@@@Z 10019ff0 f i Drobj3d.obj
 0001:00019020       ?GetToPtLocal_T@CDrPatch@@QAEPAUWORLD@@XZ 1001a020 f i Drobj3d.obj
 0001:00019040       ?SetToPtLocal_T@CDrPatch@@QAEXUWORLD@@@Z 1001a040 f i Drobj3d.obj
 0001:00019070       ?GetFromPtWorld_T@CDrPatch@@QAEPAUWORLD@@XZ 1001a070 f i Drobj3d.obj
 0001:00019090       ?SetFromPtWorld_T@CDrPatch@@QAEXUWORLD@@@Z 1001a090 f i Drobj3d.obj
 0001:000190c0       ?GetToPtWorld_T@CDrPatch@@QAEPAUWORLD@@XZ 1001a0c0 f i Drobj3d.obj
 0001:000190e0       ?SetToPtWorld_T@CDrPatch@@QAEXUWORLD@@@Z 1001a0e0 f i Drobj3d.obj
 0001:00019110       ?GetFromPtEye_T@CDrPatch@@QAEPAUWORLD@@XZ 1001a110 f i Drobj3d.obj
 0001:00019130       ?SetFromPtEye_T@CDrPatch@@QAEXUWORLD@@@Z 1001a130 f i Drobj3d.obj
 0001:00019160       ?GetToPtEye_T@CDrPatch@@QAEPAUWORLD@@XZ 1001a160 f i Drobj3d.obj
 0001:00019180       ?SetToPtEye_T@CDrPatch@@QAEXUWORLD@@@Z 1001a180 f i Drobj3d.obj
 0001:000191b0       ?GetAxis_T@CDrPatch@@QAEPAUWORLD@@XZ 1001a1b0 f i Drobj3d.obj
 0001:000191d0       ?SetAxis_T@CDrPatch@@QAEXUWORLD@@@Z 1001a1d0 f i Drobj3d.obj
 0001:00019200       ?GetExtruType_T@CDrPatch@@QAEHXZ 1001a200 f i Drobj3d.obj
 0001:00019220       ?SetExtruType_T@CDrPatch@@QAEXH@Z 1001a220 f i Drobj3d.obj
 0001:00019250       ?GetLength_T@CDrPatch@@QAENXZ 1001a250 f i Drobj3d.obj
 0001:00019270       ?SetLength_T@CDrPatch@@QAEXN@Z 1001a270 f i Drobj3d.obj
 0001:000192a0       ?GetWorldLength_T@CDrPatch@@QAE?AUWORLD@@XZ 1001a2a0 f i Drobj3d.obj
 0001:000192d0       ?SetWorldLength_T@CDrPatch@@QAEXUWORLD@@@Z 1001a2d0 f i Drobj3d.obj
 0001:00019300       ?GetSegs_T@CDrPatch@@QAEHXZ 1001a300 f i Drobj3d.obj
 0001:00019320       ?SetSegs_T@CDrPatch@@QAEXH@Z 1001a320 f i Drobj3d.obj
 0001:00019350       ?IsAxisInput_T@CDrPatch@@QAEHXZ 1001a350 f i Drobj3d.obj
 0001:00019370       ?SetAxisInput_T@CDrPatch@@QAEXH@Z 1001a370 f i Drobj3d.obj
 0001:000193a0       ?GetAxisType_T@CDrPatch@@QAEHXZ 1001a3a0 f i Drobj3d.obj
 0001:000193c0       ?SetAxisType_T@CDrPatch@@QAEXH@Z 1001a3c0 f i Drobj3d.obj
 0001:000193f0       ?IsNegative_T@CDrPatch@@QAEHXZ 1001a3f0 f i Drobj3d.obj
 0001:00019410       ?SetNegative_T@CDrPatch@@QAEXH@Z 1001a410 f i Drobj3d.obj
 0001:00019440       ?GetCircleType_T@CDrPatch@@QAE?AW4CIRCLETYPE@@XZ 1001a440 f i Drobj3d.obj
 0001:00019460       ?SetCircleType_T@CDrPatch@@QAEXW4CIRCLETYPE@@@Z 1001a460 f i Drobj3d.obj
 0001:00019490       ?GetAng_1_T@CDrPatch@@QAENXZ 1001a490 f i Drobj3d.obj
 0001:000194b0       ?SetAng_1_T@CDrPatch@@QAEXN@Z 1001a4b0 f i Drobj3d.obj
 0001:000194e0       ?GetAng_2_T@CDrPatch@@QAENXZ 1001a4e0 f i Drobj3d.obj
 0001:00019500       ?SetAng_2_T@CDrPatch@@QAEXN@Z 1001a500 f i Drobj3d.obj
 0001:00019530       ?GetPatchProc@CDrPatch@@QAE?AW4PATCHPROC@@XZ 1001a530 f i Drobj3d.obj
 0001:00019550       ?SetPatchProc@CDrPatch@@QAEXW4PATCHPROC@@@Z 1001a550 f i Drobj3d.obj
 0001:00019580       ?GetPatchType@CDrPatch@@QAE?AW4PATCHTYPE@@XZ 1001a580 f i Drobj3d.obj
 0001:000195a0       ?SetPatchType@CDrPatch@@QAEXW4PATCHTYPE@@@Z 1001a5a0 f i Drobj3d.obj
 0001:000195d0       ?GetPatSubType@CDrPatch@@QAE?AW4PATSUBTYPE@@XZ 1001a5d0 f i Drobj3d.obj
 0001:000195f0       ?SetPatSubType@CDrPatch@@QAEXW4PATSUBTYPE@@@Z 1001a5f0 f i Drobj3d.obj
 0001:00019620       ?GetOut_S@CDrPatch@@QAEHXZ 1001a620 f i Drobj3d.obj
 0001:00019640       ?SetOut_S@CDrPatch@@QAEXH@Z 1001a640 f i Drobj3d.obj
 0001:00019670       ?GetOut_T@CDrPatch@@QAEHXZ 1001a670 f i Drobj3d.obj
 0001:00019690       ?SetOut_T@CDrPatch@@QAEXH@Z 1001a690 f i Drobj3d.obj
 0001:000196c0       ?GetTotalElems@CDrPatch@@QAEJXZ 1001a6c0 f i Drobj3d.obj
 0001:000196e0       ?SetTotalElems@CDrPatch@@QAEXJ@Z 1001a6e0 f i Drobj3d.obj
 0001:00019710       ?GetPtrTangents_S@CDrPatch@@QAEPAUWORLD@@XZ 1001a710 f i Drobj3d.obj
 0001:00019730       ?GetPtrTangents_T@CDrPatch@@QAEPAUWORLD@@XZ 1001a730 f i Drobj3d.obj
 0001:00019750       ?GetPtrNormals@CDrPatch@@QAEPAUWORLD@@XZ 1001a750 f i Drobj3d.obj
 0001:00019770       ?GetPtrTwists@CDrPatch@@QAEPAUWORLD@@XZ 1001a770 f i Drobj3d.obj
 0001:00019790       ?GetMemIn@CDrPatch@@UAEPAUWORLD@@H@Z 1001a790 f i Drobj3d.obj
 0001:000197c0       ?SetMemIn@CDrPatch@@UAEXPAUWORLD@@H@Z 1001a7c0 f i Drobj3d.obj
 0001:000197f0       ?SetMemIn@CDrPatch@@UAEXPAUWORLD@@@Z 1001a7f0 f i Drobj3d.obj
 0001:00019820       ?SetMemInDP@CDrPatch@@UAEXPAUtagPOINT@@@Z 1001a820 f i Drobj3d.obj
 0001:00019850       ?SetMemOut@CDrPatch@@UAEXPAUWORLD@@@Z 1001a850 f i Drobj3d.obj
 0001:00019880       ?SetMemOutDP@CDrPatch@@UAEXPAUtagPOINT@@@Z 1001a880 f i Drobj3d.obj
 0001:000198b0       ?IsUniform_T@CDrPatch@@QAEHXZ 1001a8b0 f i Drobj3d.obj
 0001:000198d0       ?SetUniform_T@CDrPatch@@QAEXH@Z 1001a8d0 f i Drobj3d.obj
 0001:00019900       ?GetClass_T@CDrPatch@@QAEHXZ 1001a900 f i Drobj3d.obj
 0001:00019920       ?SetClass_T@CDrPatch@@QAEXH@Z 1001a920 f i Drobj3d.obj
 0001:00019950       ?GetOrder_T@CDrPatch@@QAEHXZ 1001a950 f i Drobj3d.obj
 0001:00019970       ?SetOrder_T@CDrPatch@@QAEXH@Z 1001a970 f i Drobj3d.obj
 0001:000199a0       ?GetnDim_T@CDrPatch@@QAEHXZ 1001a9a0 f i Drobj3d.obj
 0001:000199c0       ?SetnDim_T@CDrPatch@@QAEXH@Z 1001a9c0 f i Drobj3d.obj
 0001:000199f0       ?GetOutMethod_T@CDrPatch@@QAE?AW4PATCHOUTPUT@@XZ 1001a9f0 f i Drobj3d.obj
 0001:00019a10       ?SetOutMethod_T@CDrPatch@@QAEXW4PATCHOUTPUT@@@Z 1001aa10 f i Drobj3d.obj
 0001:00019a40       ?GetMaxOutSeg_T@CDrPatch@@QAEHXZ 1001aa40 f i Drobj3d.obj
 0001:00019a60       ?SetMaxOutSeg_T@CDrPatch@@QAEXH@Z 1001aa60 f i Drobj3d.obj
 0001:00019a90       ?GetNum_tPointer_T@CDrPatch@@QAEPAHXZ 1001aa90 f i Drobj3d.obj
 0001:00019ab0       ?SetNum_tPointer_T@CDrPatch@@QAEXPAH@Z 1001aab0 f i Drobj3d.obj
 0001:00019ae0       ?GetDis_tPointer_T@CDrPatch@@QAEPANXZ 1001aae0 f i Drobj3d.obj
 0001:00019b00       ?SetDis_tPointer_T@CDrPatch@@QAEXPAN@Z 1001ab00 f i Drobj3d.obj
 0001:00019b30       ?GetNum_tPointer_Ex_T@CDrPatch@@QAEPAHXZ 1001ab30 f i Drobj3d.obj
 0001:00019b50       ?SetNum_tPointer_Ex_T@CDrPatch@@QAEXPAH@Z 1001ab50 f i Drobj3d.obj
 0001:00019b80       ?GetDis_AngPointer_T@CDrPatch@@QAEPANXZ 1001ab80 f i Drobj3d.obj
 0001:00019ba0       ?SetDis_AngPointer_T@CDrPatch@@QAEXPAN@Z 1001aba0 f i Drobj3d.obj
 0001:00019bd0       ?GetData_Ex_T@CDrPatch@@QAEHXZ 1001abd0 f i Drobj3d.obj
 0001:00019bf0       ?SetData_Ex_T@CDrPatch@@QAEXH@Z 1001abf0 f i Drobj3d.obj
 0001:00019c20       ?IsExpanded_T@CDrPatch@@QAEHXZ 1001ac20 f i Drobj3d.obj
 0001:00019c40       ?SetExpanded_T@CDrPatch@@QAEXH@Z 1001ac40 f i Drobj3d.obj
 0001:00019c70       ?GetMaxENodes_T@CDrPatch@@QAEHXZ 1001ac70 f i Drobj3d.obj
 0001:00019c90       ?SetMaxENodes_T@CDrPatch@@QAEXH@Z 1001ac90 f i Drobj3d.obj
 0001:00019cc0       ?GetRadius_T@CDrPatch@@QAENXZ 1001acc0 f i Drobj3d.obj
 0001:00019ce0       ?SetRadius_T@CDrPatch@@QAEXN@Z 1001ace0 f i Drobj3d.obj
 0001:00019d10       ?GetTheta_T@CDrPatch@@QAENXZ 1001ad10 f i Drobj3d.obj
 0001:00019d30       ?SetTheta_T@CDrPatch@@QAEXN@Z 1001ad30 f i Drobj3d.obj
 0001:00019d60       ?GetCenter_T@CDrPatch@@QAE?AUWORLD@@XZ 1001ad60 f i Drobj3d.obj
 0001:00019d90       ?SetCenter_T@CDrPatch@@QAEXUWORLD@@@Z 1001ad90 f i Drobj3d.obj
 0001:00019df0       ?GetNormal_T@CDrPatch@@QAE?AUWORLD@@XZ 1001adf0 f i Drobj3d.obj
 0001:00019e20       ?SetNormal_T@CDrPatch@@QAEXUWORLD@@@Z 1001ae20 f i Drobj3d.obj
 0001:00019e80       ?GetSegAngle_T@CDrPatch@@QAENXZ 1001ae80 f i Drobj3d.obj
 0001:00019ea0       ?SetSegAngle_T@CDrPatch@@QAEXN@Z 1001aea0 f i Drobj3d.obj
 0001:00019ed0       ?IsHole_T@CDrPatch@@QAEHXZ 1001aed0 f i Drobj3d.obj
 0001:00019ef0       ?SetHole_T@CDrPatch@@QAEXH@Z 1001aef0 f i Drobj3d.obj
 0001:00019f20       ?GetpTangents_T@CDrPatch@@QAEPAUWORLD@@XZ 1001af20 f i Drobj3d.obj
 0001:00019f40       ?SetpTangents_T@CDrPatch@@QAEXPAUWORLD@@@Z 1001af40 f i Drobj3d.obj
 0001:00019f70       ?GetpCurvatures_T@CDrPatch@@QAEPANXZ 1001af70 f i Drobj3d.obj
 0001:00019f90       ?SetpCurvatures_T@CDrPatch@@QAEXPAN@Z 1001af90 f i Drobj3d.obj
 0001:00019fc0       ?GetRatio_T@CDrPatch@@QAENXZ 1001afc0 f i Drobj3d.obj
 0001:00019fe0       ?SetRatio_T@CDrPatch@@QAEXN@Z 1001afe0 f i Drobj3d.obj
 0001:0001a010       ?GetTwistType_T@CDrPatch@@QAEHXZ 1001b010 f i Drobj3d.obj
 0001:0001a030       ?SetTwistType_T@CDrPatch@@QAEXH@Z 1001b030 f i Drobj3d.obj
 0001:0001a060       ?GetTwistList_T@CDrPatch@@QAEPAV?$CList@NN@@XZ 1001b060 f i Drobj3d.obj
 0001:0001a080       ?GetScaleType_T@CDrPatch@@QAEHXZ 1001b080 f i Drobj3d.obj
 0001:0001a0a0       ?SetScaleType_T@CDrPatch@@QAEXH@Z 1001b0a0 f i Drobj3d.obj
 0001:0001a0d0       ?GetScaleList_T@CDrPatch@@QAEPAV?$CList@NN@@XZ 1001b0d0 f i Drobj3d.obj
 0001:0001a0f0       ?IsIncTwist_T@CDrPatch@@QAEHXZ 1001b0f0 f i Drobj3d.obj
 0001:0001a110       ?SetIncTwist_T@CDrPatch@@QAEXH@Z 1001b110 f i Drobj3d.obj
 0001:0001a140       ?GetTwistMult_T@CDrPatch@@QAENXZ 1001b140 f i Drobj3d.obj
 0001:0001a160       ?SetTwistMult_T@CDrPatch@@QAEXN@Z 1001b160 f i Drobj3d.obj
 0001:0001a190       ?GetTwistStart_T@CDrPatch@@QAENXZ 1001b190 f i Drobj3d.obj
 0001:0001a1b0       ?SetTwistStart_T@CDrPatch@@QAEXN@Z 1001b1b0 f i Drobj3d.obj
 0001:0001a1e0       ?IsIncScale_T@CDrPatch@@QAEHXZ 1001b1e0 f i Drobj3d.obj
 0001:0001a200       ?SetIncScale_T@CDrPatch@@QAEXH@Z 1001b200 f i Drobj3d.obj
 0001:0001a230       ?GetScaleMult_T@CDrPatch@@QAENXZ 1001b230 f i Drobj3d.obj
 0001:0001a250       ?SetScaleMult_T@CDrPatch@@QAEXN@Z 1001b250 f i Drobj3d.obj
 0001:0001a280       ?GetScaleStart_T@CDrPatch@@QAENXZ 1001b280 f i Drobj3d.obj
 0001:0001a2a0       ?SetScaleStart_T@CDrPatch@@QAEXN@Z 1001b2a0 f i Drobj3d.obj
 0001:0001a2d0       ?GetWorldTwistMult_T@CDrPatch@@QAE?AUWORLD@@XZ 1001b2d0 f i Drobj3d.obj
 0001:0001a300       ?SetWorldTwistMult_T@CDrPatch@@QAEXUWORLD@@@Z 1001b300 f i Drobj3d.obj
 0001:0001a330       ?GetWorldTwistStart_T@CDrPatch@@QAE?AUWORLD@@XZ 1001b330 f i Drobj3d.obj
 0001:0001a360       ?SetWorldTwistStart_T@CDrPatch@@QAEXUWORLD@@@Z 1001b360 f i Drobj3d.obj
 0001:0001a390       ?GetWorldScaleMult_T@CDrPatch@@QAE?AUWORLD@@XZ 1001b390 f i Drobj3d.obj
 0001:0001a3c0       ?SetWorldScaleMult_T@CDrPatch@@QAEXUWORLD@@@Z 1001b3c0 f i Drobj3d.obj
 0001:0001a3f0       ?GetWorldScaleStart_T@CDrPatch@@QAE?AUWORLD@@XZ 1001b3f0 f i Drobj3d.obj
 0001:0001a420       ?SetWorldScaleStart_T@CDrPatch@@QAEXUWORLD@@@Z 1001b420 f i Drobj3d.obj
 0001:0001a450       ?GetTriangleList@CDrPatch@@UAEPAVCDListMgr@@XZ 1001b450 f i Drobj3d.obj
 0001:0001a470       ?GetnOutGlo_S@CDrPatch@@QAEHXZ 1001b470 f i Drobj3d.obj
 0001:0001a490       ?SetnOutGlo_S@CDrPatch@@QAEXH@Z 1001b490 f i Drobj3d.obj
 0001:0001a4c0       ?IsGenBCurve@CDrPatch@@QAEHXZ 1001b4c0 f i Drobj3d.obj
 0001:0001a4e0       ?SetGenBCurve@CDrPatch@@QAEXH@Z 1001b4e0 f i Drobj3d.obj
 0001:0001a510       ?IsTackled@CDrObj3D@@QAEHXZ 1001b510 f i Drobj3d.obj
 0001:0001a530       ?SetTackled@CDrObj3D@@QAEXH@Z 1001b530 f i Drobj3d.obj
 0001:0001a560       ?CreateObject@CDrObj3D@@SGPAVCObject@@XZ 1001b560 f   Drobj3d.obj
 0001:0001a5d0       ?_GetBaseClass@CDrObj3D@@KGPAUCRuntimeClass@@XZ 1001b5d0 f   Drobj3d.obj
 0001:0001a5f0       ?GetRuntimeClass@CDrObj3D@@UBEPAUCRuntimeClass@@XZ 1001b5f0 f   Drobj3d.obj
 0001:0001a650       ??5@YGAAVCArchive@@AAV0@AAPAVCDrObj3D@@@Z 1001b650 f   Drobj3d.obj
 0001:0001a680       ??0CDrObj3D@@QAE@XZ        1001b680 f   Drobj3d.obj
 0001:0001a720       ??_GCDrObj3D@@UAEPAXI@Z    1001b720 f i Drobj3d.obj
 0001:0001a760       ??_ECDrObj3D@@UAEPAXI@Z    1001b760 f i Drobj3d.obj
 0001:0001a7e0       ??1CDrObj3D@@UAE@XZ        1001b7e0 f   Drobj3d.obj
 0001:0001a840       ?ReadyToDelete@CDrObj3D@@UAEXXZ 1001b840 f   Drobj3d.obj
 0001:0001aa20       ?DealObjectDialog@CDrObj3D@@UAEHXZ 1001ba20 f   Drobj3d.obj
 0001:0001aa40       ?SetObjectInfo@CDrObj3D@@UAEXPAVCDrObject@@@Z 1001ba40 f   Drobj3d.obj
 0001:0001ab30       ?GetObjectInfo@CDrObj3D@@UAEXPAVCDrObject@@@Z 1001bb30 f   Drobj3d.obj
 0001:0001ac20       ?DoDataView@CDrObj3D@@UAEXPAVCDC@@H@Z 1001bc20 f   Drobj3d.obj
 0001:0001aca0       ?Pack_drPipe@CDrObj3D@@UAEXPAVCString@@@Z 1001bca0 f   Drobj3d.obj
 0001:0001ad80       ?Calc_3DBoundsLocal@CDrObj3D@@UAEHXZ 1001bd80 f   Drobj3d.obj
 0001:0001add0       ?TransformObjectToWorld@CDrObj3D@@UAEXPAUMATRIX@@H@Z 1001bdd0 f   Drobj3d.obj
 0001:0001b230       ?TransformObjectToView@CDrObj3D@@UAEXPAUMATRIX@@@Z 1001c230 f   Drobj3d.obj
 0001:0001b660       ?RemoveHiddenObject@CDrObj3D@@UAEHPAUMATRIX@@UWORLD@@H@Z 1001c660 f   Drobj3d.obj
 0001:0001b850       ?ProjectObject@CDrObj3D@@UAEXPAUMATRIX@@NN@Z 1001c850 f   Drobj3d.obj
 0001:0001bcd0       ?Calc_ScreenRectFromGenerators@CDrObj3D@@IAEXXZ 1001ccd0 f   Drobj3d.obj
 0001:0001bee0       ?Calc_NewMin@CDrObj3D@@IAE?AUWORLD@@U2@0@Z 1001cee0 f   Drobj3d.obj
 0001:0001bf60       ?Calc_NewMax@CDrObj3D@@IAE?AUWORLD@@U2@0@Z 1001cf60 f   Drobj3d.obj
 0001:0001bfe0       ?InitDraw@CDrObj3D@@UAEXPAVCDC@@HHPAUMATRIX@@1NNN@Z 1001cfe0 f   Drobj3d.obj
 0001:0001c0f0       ?DoDrawView@CDrObj3D@@UAEXPAVCDC@@H@Z 1001d0f0 f   Drobj3d.obj
 0001:0001c150       ?IsKeyMatch@CDrObj3D@@UAEHPAVCDrObject@@VCString@@I@Z 1001d150 f   Drobj3d.obj
 0001:0001c210       ?IsObjectHit@CDrObj3D@@UAEHHUtagPOINT@@@Z 1001d210 f   Drobj3d.obj
 0001:0001c3a0       ?AppendToObject@CDrObj3D@@UAEHPAVCDListMgr@@000@Z 1001d3a0 f   Drobj3d.obj
 0001:0001c470       ?Serialize@CDrObj3D@@UAEXAAVCArchive@@@Z 1001d470 f   Drobj3d.obj
 0001:0001c4c0       ??1CSurface3@@UAE@XZ       1001d4c0 f i Drpatch.obj
 0001:0001c4f0       ??_GCSurface3@@UAEPAXI@Z   1001d4f0 f i Drpatch.obj
 0001:0001c530       ??_ECSurface3@@UAEPAXI@Z   1001d530 f i Drpatch.obj
 0001:0001c5b0       ??1CSurface4@@UAE@XZ       1001d5b0 f i Drpatch.obj
 0001:0001c5e0       ??_GCSurface4@@UAEPAXI@Z   1001d5e0 f i Drpatch.obj
 0001:0001c620       ??_ECSurface4@@UAEPAXI@Z   1001d620 f i Drpatch.obj
 0001:0001c6a0       ??1CPat_Tan3@@UAE@XZ       1001d6a0 f i Drpatch.obj
 0001:0001c6d0       ??_GCPat_Tan3@@UAEPAXI@Z   1001d6d0 f i Drpatch.obj
 0001:0001c710       ??_ECPat_Tan3@@UAEPAXI@Z   1001d710 f i Drpatch.obj
 0001:0001c790       ??1CPat_Tan4@@UAE@XZ       1001d790 f i Drpatch.obj
 0001:0001c7c0       ??_GCPat_Tan4@@UAEPAXI@Z   1001d7c0 f i Drpatch.obj
 0001:0001c800       ??_ECPat_Tan4@@UAEPAXI@Z   1001d800 f i Drpatch.obj
 0001:0001c880       ?CreateObject@CDrPatch@@SGPAVCObject@@XZ 1001d880 f   Drpatch.obj
 0001:0001c8f0       ?_GetBaseClass@CDrPatch@@KGPAUCRuntimeClass@@XZ 1001d8f0 f   Drpatch.obj
 0001:0001c910       ?GetRuntimeClass@CDrPatch@@UBEPAUCRuntimeClass@@XZ 1001d910 f   Drpatch.obj
 0001:0001c970       ??5@YGAAVCArchive@@AAV0@AAPAVCDrPatch@@@Z 1001d970 f   Drpatch.obj
 0001:0001c9a0       ??0CDrPatch@@QAE@XZ        1001d9a0 f   Drpatch.obj
 0001:0001ceb0       ??_GCDrPatch@@UAEPAXI@Z    1001deb0 f i Drpatch.obj
 0001:0001cef0       ??_ECDrPatch@@UAEPAXI@Z    1001def0 f i Drpatch.obj
 0001:0001cf70       ??1CDrPatch@@UAE@XZ        1001df70 f   Drpatch.obj
 0001:0001d480       ?ReadyToDelete@CDrPatch@@UAEXXZ 1001e480 f   Drpatch.obj
 0001:0001d8f0       ?DealObjectDialog@CDrPatch@@UAEHXZ 1001e8f0 f   Drpatch.obj
 0001:0001d910       ?SetObjectInfo@CDrPatch@@UAEXPAVCDrObject@@@Z 1001e910 f   Drpatch.obj
 0001:0001e2c0       ?GetObjectInfo@CDrPatch@@UAEXPAVCDrObject@@@Z 1001f2c0 f   Drpatch.obj
 0001:0001ec80       ?Pack_drPipe@CDrPatch@@UAEXPAVCString@@@Z 1001fc80 f   Drpatch.obj
 0001:0001eda0       ?TransformObjectToWorld@CDrPatch@@UAEXPAUMATRIX@@H@Z 1001fda0 f   Drpatch.obj
 0001:0001edf0       ?TransformObjectToView@CDrPatch@@UAEXPAUMATRIX@@@Z 1001fdf0 f   Drpatch.obj
 0001:0001eed0       ?RemoveHiddenObject@CDrPatch@@UAEHPAUMATRIX@@UWORLD@@H@Z 1001fed0 f   Drpatch.obj
 0001:0001ef30       ?ProjectObject@CDrPatch@@UAEXPAUMATRIX@@NN@Z 1001ff30 f   Drpatch.obj
 0001:0001efb0       ?UnitAxisFromEndNodes@CDrPatch@@IAEXXZ 1001ffb0 f   Drpatch.obj
 0001:0001f130       ?Generate_Patch3@CDrPatch@@QAEHPAUWORLD@@PAN@Z 10020130 f   Drpatch.obj
 0001:0001f220       ?Generate_Patch4@CDrPatch@@QAEHPAUWORLD@@PAN@Z 10020220 f   Drpatch.obj
 0001:0001f390       ?Generate_Normal3@CDrPatch@@QAEHPAUWORLD@@@Z 10020390 f   Drpatch.obj
 0001:0001f450       ?Generate_Tangents_N_Normal3@CDrPatch@@QAEHPAUWORLD@@@Z 10020450 f   Drpatch.obj
 0001:0001f580       ?Generate_Tangent3@CDrPatch@@QAEHPAUWORLD@@H@Z 10020580 f   Drpatch.obj
 0001:0001f6b0       ?Generate_Tangent3@CDrPatch@@QAEHPAUWORLD@@H0H@Z 100206b0 f   Drpatch.obj
 0001:0001f7e0       ?Get_Tan_N_NorAtaNode_3@CDrPatch@@QAEHUWORLD@@AAU2@11N@Z 100207e0 f   Drpatch.obj
 0001:0001f8a0       ?Get_A_Tan_AtaNode_3@CDrPatch@@QAEHUWORLD@@AAU2@AAHN@Z 100208a0 f   Drpatch.obj
 0001:0001f950       ?Get_TangentsAtaNode_3@CDrPatch@@QAEHUWORLD@@AAU2@1N@Z 10020950 f   Drpatch.obj
 0001:0001fa00       ?Get_Tan_N_NorAtaNode_4@CDrPatch@@QAEHUWORLD@@AAU2@11N@Z 10020a00 f   Drpatch.obj
 0001:0001fac0       ?Get_A_Tan_AtaNode_4@CDrPatch@@QAEHUWORLD@@AAU2@AAHN@Z 10020ac0 f   Drpatch.obj
 0001:0001fba0       ?Generate_Normal4@CDrPatch@@QAEHPAUWORLD@@@Z 10020ba0 f   Drpatch.obj
 0001:0001fc60       ?Get_TangentsAtaNode_4@CDrPatch@@QAEHUWORLD@@AAU2@1N@Z 10020c60 f   Drpatch.obj
 0001:0001fd30       ?Generate_Tangents_N_Normal4@CDrPatch@@QAEHPAUWORLD@@@Z 10020d30 f   Drpatch.obj
 0001:0001fe90       ?Generate_Tangent4@CDrPatch@@QAEHPAUWORLD@@H@Z 10020e90 f   Drpatch.obj
 0001:000202d0       ?GetCurrentBezSeg_N_st_4@CDrPatch@@QAEHHHAAH0AAN1@Z 100212d0 f   Drpatch.obj
 0001:00020460       ?GetAPointOnCurrentBezSeg_4@CDrPatch@@QAEHHHPAUWORLD@@PAN@Z 10021460 f   Drpatch.obj
 0001:000205a0       ?CullWorld@CDrPatch@@UAEHUWORLD@@@Z 100215a0 f   Drpatch.obj
 0001:00020630       ?CullScreen@CDrPatch@@UAEHPAUMATRIX@@@Z 10021630 f   Drpatch.obj
 0001:000206a0       ?TransformToWorldPos@CDrPatch@@IAEXPAUMATRIX@@H@Z 100216a0 f   Drpatch.obj
 0001:000209d0       ?TransformToEyePos@CDrPatch@@IAEXPAUMATRIX@@@Z 100219d0 f   Drpatch.obj
 0001:00020b50       ?ProjectToScreenPos@CDrPatch@@IAEXPAUMATRIX@@NN@Z 10021b50 f   Drpatch.obj
 0001:00020ce0       ?Calc_ScreenRectFromPoly@CDrPatch@@IAEXXZ 10021ce0 f   Drpatch.obj
 0001:00020da0       ?Calc_PolyNormalWorld@CDrPatch@@UAEXXZ 10021da0 f   Drpatch.obj
 0001:00020e00       ?TransformPolyNormalToEye@CDrPatch@@UAEXPAUMATRIX@@@Z 10021e00 f   Drpatch.obj
 0001:00020e80       ?ProjectPolyNormalToScreen3D@CDrPatch@@UAEXPAUMATRIX@@NN@Z 10021e80 f   Drpatch.obj
 0001:00020f20       ?Calc_NodeNormalWorld@CDrPatch@@UAEXXZ 10021f20 f   Drpatch.obj
 0001:00020f70       ?Calc_NodeNormalEye@CDrPatch@@UAEXXZ 10021f70 f   Drpatch.obj
 0001:00020fc0       ?Calc_NodeNormalScreen3D@CDrPatch@@UAEXXZ 10021fc0 f   Drpatch.obj
 0001:00021010       ?DoDataView@CDrPatch@@UAEXPAVCDC@@H@Z 10022010 f   Drpatch.obj
 0001:00021090       ?InitDraw@CDrPatch@@UAEXPAVCDC@@HHPAUMATRIX@@1NNN@Z 10022090 f   Drpatch.obj
 0001:000211a0       ?DoDrawView@CDrPatch@@UAEXPAVCDC@@H@Z 100221a0 f   Drpatch.obj
 0001:00021350       ?GoDoIt@CDrPatch@@IAEXPAVCDC@@@Z 10022350 f   Drpatch.obj
 0001:00021630       ?GoDoIt_3@CDrPatch@@IAEXPAVCDC@@@Z 10022630 f   Drpatch.obj
 0001:000218b0       ?TRIANGLE_1@CDrPatch@@IAEXPAVCDC@@HHH@Z 100228b0 f   Drpatch.obj
 0001:00021c00       ?TRIANGLE_2@CDrPatch@@IAEXPAVCDC@@HHH@Z 10022c00 f   Drpatch.obj
 0001:00021f50       ?GoDoControlNodes@CDrPatch@@IAEXPAVCDC@@@Z 10022f50 f   Drpatch.obj
 0001:00022160       ?GoDoControlNodes_3@CDrPatch@@IAEXPAVCDC@@@Z 10023160 f   Drpatch.obj
 0001:00022240       ?NumberOfPatches@CDrPatch@@QAEHXZ 10023240 f   Drpatch.obj
 0001:000222d0       ?NumberOfElements@CDrPatch@@QAEHIH@Z 100232d0 f   Drpatch.obj
 0001:000222f0       ?IsKeyMatch@CDrPatch@@UAEHPAVCDrObject@@VCString@@I@Z 100232f0 f   Drpatch.obj
 0001:000223b0       ?IsObjectHit@CDrPatch@@UAEHHUtagPOINT@@@Z 100233b0 f   Drpatch.obj
 0001:00022450       ?IsObjectHit_YScanLineWidth@CDrPatch@@IAEXUtagPOINT@@00AAH1@Z 10023450 f   Drpatch.obj
 0001:00022500       ?IsObjectHit_Alt_4@CDrPatch@@IAEHHUtagPOINT@@@Z 10023500 f   Drpatch.obj
 0001:000227b0       ?IsObjectHit_Alt_3@CDrPatch@@IAEHHUtagPOINT@@@Z 100237b0 f   Drpatch.obj
 0001:000227f0       ?ObjectHit_Generate2DPts@CDrPatch@@IAEHXZ 100237f0 f   Drpatch.obj
 0001:00022a00       ?IsObjectHit_4@CDrPatch@@IAEHHUtagPOINT@@@Z 10023a00 f   Drpatch.obj
 0001:00022d20       ?IsObjectBndryHit@CDrPatch@@QAEHHUtagPOINT@@AAH@Z 10023d20 f   Drpatch.obj
 0001:00022d90       ?IsObjectBndryHit_4@CDrPatch@@IAEHHUtagPOINT@@AAH@Z 10023d90 f   Drpatch.obj
 0001:00023130       ?Collect_BoundaryPoints_4@CDrPatch@@IAEHHPAUWORLD@@PAUtagPOINT@@@Z 10024130 f   Drpatch.obj
 0001:000233c0       ?Collect_BoundaryPoints_4@CDrPatch@@IAEHH@Z 100243c0 f   Drpatch.obj
 0001:000236d0       ?IsObjectHit_3@CDrPatch@@IAEHHUtagPOINT@@@Z 100246d0 f   Drpatch.obj
 0001:00023950       ?IsObjectBndryHit_3@CDrPatch@@IAEHHUtagPOINT@@AAH@Z 10024950 f   Drpatch.obj
 0001:000239d0       ?Collect_BoundaryPoints_3@CDrPatch@@IAEHHHH@Z 100249d0 f   Drpatch.obj
 0001:00023c00       ?TRIANGLE_1_Bndry@CDrPatch@@IAEXPAUWORLD@@HH@Z 10024c00 f   Drpatch.obj
 0001:00023dd0       ?TRIANGLE_2_Bndry@CDrPatch@@IAEXPAUWORLD@@HH@Z 10024dd0 f   Drpatch.obj
 0001:00023fa0       ?AppendToObject@CDrPatch@@UAEHPAVCDListMgr@@00000@Z 10024fa0 f   Drpatch.obj
 0001:000240d0       ?Serialize@CDrPatch@@UAEXAAVCArchive@@@Z 100250d0 f   Drpatch.obj
 0001:000243e0       ?RemoveHead@?$CList@HH@@QAEHXZ 100253e0 f i Drpatch.obj
 0001:000244b0       ??0?$CList@W4CURVELATCH@@W41@@@QAE@H@Z 100254b0 f i Drpatch.obj
 0001:00024570       ?IsEmpty@?$CList@W4CURVELATCH@@W41@@@QBEHXZ 10025570 f i Drpatch.obj
 0001:000245a0       ?AddTail@?$CList@W4CURVELATCH@@W41@@@QAEXPAV1@@Z 100255a0 f i Drpatch.obj
 0001:00024630       ?RemoveAll@?$CList@W4CURVELATCH@@W41@@@QAEXXZ 10025630 f i Drpatch.obj
 0001:000246c0       ??1?$CList@W4CURVELATCH@@W41@@@UAE@XZ 100256c0 f i Drpatch.obj
 0001:00024740       ?Serialize@?$CList@W4CURVELATCH@@W41@@@UAEXAAVCArchive@@@Z 10025740 f i Drpatch.obj
 0001:00024830       ?Dump@?$CList@W4CURVELATCH@@W41@@@UBEXAAVCDumpContext@@@Z 10025830 f i Drpatch.obj
 0001:000248d0       ?AssertValid@?$CList@W4CURVELATCH@@W41@@@UBEXXZ 100258d0 f i Drpatch.obj
 0001:000249a0       ??0?$CList@Ublendend@@U1@@@QAE@H@Z 100259a0 f i Drpatch.obj
 0001:00024a60       ?IsEmpty@?$CList@Ublendend@@U1@@@QBEHXZ 10025a60 f i Drpatch.obj
 0001:00024a90       ?AddTail@?$CList@Ublendend@@U1@@@QAEXPAV1@@Z 10025a90 f i Drpatch.obj
 0001:00024b20       ?RemoveAll@?$CList@Ublendend@@U1@@@QAEXXZ 10025b20 f i Drpatch.obj
 0001:00024bb0       ??1?$CList@Ublendend@@U1@@@UAE@XZ 10025bb0 f i Drpatch.obj
 0001:00024c30       ?Serialize@?$CList@Ublendend@@U1@@@UAEXAAVCArchive@@@Z 10025c30 f i Drpatch.obj
 0001:00024d20       ?Dump@?$CList@Ublendend@@U1@@@UBEXAAVCDumpContext@@@Z 10025d20 f i Drpatch.obj
 0001:00024dc0       ?AssertValid@?$CList@Ublendend@@U1@@@UBEXXZ 10025dc0 f i Drpatch.obj
 0001:00024e90       ??0?$CList@NN@@QAE@H@Z     10025e90 f i Drpatch.obj
 0001:00024f50       ?IsEmpty@?$CList@NN@@QBEHXZ 10025f50 f i Drpatch.obj
 0001:00024f80       ?AddTail@?$CList@NN@@QAEXPAV1@@Z 10025f80 f i Drpatch.obj
 0001:00025010       ?RemoveAll@?$CList@NN@@QAEXXZ 10026010 f i Drpatch.obj
 0001:000250a0       ??1?$CList@NN@@UAE@XZ      100260a0 f i Drpatch.obj
 0001:00025120       ?Serialize@?$CList@NN@@UAEXAAVCArchive@@@Z 10026120 f i Drpatch.obj
 0001:00025210       ?Dump@?$CList@NN@@UBEXAAVCDumpContext@@@Z 10026210 f i Drpatch.obj
 0001:000252b0       ?AssertValid@?$CList@NN@@UBEXXZ 100262b0 f i Drpatch.obj
 0001:00025380       ??_G?$CList@W4CURVELATCH@@W41@@@UAEPAXI@Z 10026380 f i Drpatch.obj
 0001:00025380       ??_E?$CList@W4CURVELATCH@@W41@@@UAEPAXI@Z 10026380 f i Drpatch.obj
 0001:000253c0       ??_G?$CList@Ublendend@@U1@@@UAEPAXI@Z 100263c0 f i Drpatch.obj
 0001:000253c0       ??_E?$CList@Ublendend@@U1@@@UAEPAXI@Z 100263c0 f i Drpatch.obj
 0001:00025400       ??_G?$CList@NN@@UAEPAXI@Z  10026400 f i Drpatch.obj
 0001:00025400       ??_E?$CList@NN@@UAEPAXI@Z  10026400 f i Drpatch.obj
 0001:00025440       ?FreeNode@?$CList@HH@@IAEXPAUCNode@1@@Z 10026440 f i Drpatch.obj
 0001:000254c0       ?AddTail@?$CList@W4CURVELATCH@@W41@@@QAEPAU__POSITION@@W4CURVELATCH@@@Z 100264c0 f i Drpatch.obj
 0001:00025530       ?GetHeadPosition@?$CList@W4CURVELATCH@@W41@@@QBEPAU__POSITION@@XZ 10026530 f i Drpatch.obj
 0001:00025550       ?GetNext@?$CList@W4CURVELATCH@@W41@@@QAEAAW4CURVELATCH@@AAPAU__POSITION@@@Z 10026550 f i Drpatch.obj
 0001:000255b0       ?DestructElements@@YGXPAW4CURVELATCH@@H@Z 100265b0 f i Drpatch.obj
 0001:00025620       ?SerializeElements@@YGXAAVCArchive@@PAW4CURVELATCH@@H@Z 10026620 f i Drpatch.obj
 0001:000256a0       ?DumpElements@@YGXAAVCDumpContext@@PBW4CURVELATCH@@H@Z 100266a0 f i Drpatch.obj
 0001:000256f0       ?AddTail@?$CList@Ublendend@@U1@@@QAEPAU__POSITION@@Ublendend@@@Z 100266f0 f i Drpatch.obj
 0001:00025770       ?GetHeadPosition@?$CList@Ublendend@@U1@@@QBEPAU__POSITION@@XZ 10026770 f i Drpatch.obj
 0001:00025790       ?GetNext@?$CList@Ublendend@@U1@@@QAEAAUblendend@@AAPAU__POSITION@@@Z 10026790 f i Drpatch.obj
 0001:000257f0       ?DestructElements@@YGXPAUblendend@@H@Z 100267f0 f i Drpatch.obj
 0001:00025860       ?SerializeElements@@YGXAAVCArchive@@PAUblendend@@H@Z 10026860 f i Drpatch.obj
 0001:000258e0       ?DumpElements@@YGXAAVCDumpContext@@PBUblendend@@H@Z 100268e0 f i Drpatch.obj
 0001:00025930       ?AddTail@?$CList@NN@@QAEPAU__POSITION@@N@Z 10026930 f i Drpatch.obj
 0001:000259b0       ?GetHeadPosition@?$CList@NN@@QBEPAU__POSITION@@XZ 100269b0 f i Drpatch.obj
 0001:000259d0       ?GetNext@?$CList@NN@@QAEAANAAPAU__POSITION@@@Z 100269d0 f i Drpatch.obj
 0001:00025a30       ?DestructElements@@YGXPANH@Z 10026a30 f i Drpatch.obj
 0001:00025aa0       ?SerializeElements@@YGXAAVCArchive@@PANH@Z 10026aa0 f i Drpatch.obj
 0001:00025b20       ?DumpElements@@YGXAAVCDumpContext@@PBNH@Z 10026b20 f i Drpatch.obj
 0001:00025b70       ?NewNode@?$CList@W4CURVELATCH@@W41@@@IAEPAUCNode@1@PAU21@0@Z 10026b70 f i Drpatch.obj
 0001:00025c90       ?NewNode@?$CList@Ublendend@@U1@@@IAEPAUCNode@1@PAU21@0@Z 10026c90 f i Drpatch.obj
 0001:00025db0       ?NewNode@?$CList@NN@@IAEPAUCNode@1@PAU21@0@Z 10026db0 f i Drpatch.obj
 0001:00025ed0       ?ConstructElements@@YGXPAW4CURVELATCH@@H@Z 10026ed0 f i Drpatch.obj
 0001:00025f60       ?ConstructElements@@YGXPAUblendend@@H@Z 10026f60 f i Drpatch.obj
 0001:00025ff0       ?ConstructElements@@YGXPANH@Z 10026ff0 f i Drpatch.obj
 0001:00026080       ?GetCurveList@CDrProf_C@@QAEPAVCDListMgr@@XZ 10027080 f i Drprof_c.obj
 0001:000260a0       ?GetLMList@CDrProf_C@@QAEPAVCDListMgr@@XZ 100270a0 f i Drprof_c.obj
 0001:000260c0       ?GetCurve@CDrProf_C@@QAEPAVCDrCurve@@XZ 100270c0 f i Drprof_c.obj
 0001:000260e0       ?SetCurve@CDrProf_C@@QAEXPAVCDrCurve@@@Z 100270e0 f i Drprof_c.obj
 0001:00026110       ?GetProfileType@CDrProf_C@@QAE?AW4PROFILETYPE@@XZ 10027110 f i Drprof_c.obj
 0001:00026130       ?SetProfileType@CDrProf_C@@QAEXW4PROFILETYPE@@@Z 10027130 f i Drprof_c.obj
 0001:00026160       ?CreateObject@CDrProf_C@@SGPAVCObject@@XZ 10027160 f   Drprof_c.obj
 0001:000261d0       ?_GetBaseClass@CDrProf_C@@KGPAUCRuntimeClass@@XZ 100271d0 f   Drprof_c.obj
 0001:000261f0       ?GetRuntimeClass@CDrProf_C@@UBEPAUCRuntimeClass@@XZ 100271f0 f   Drprof_c.obj
 0001:00026250       ??5@YGAAVCArchive@@AAV0@AAPAVCDrProf_C@@@Z 10027250 f   Drprof_c.obj
 0001:00026280       ??0CDrProf_C@@QAE@XZ       10027280 f   Drprof_c.obj
 0001:00026330       ??_GCDrProf_C@@UAEPAXI@Z   10027330 f i Drprof_c.obj
 0001:00026370       ??_ECDrProf_C@@UAEPAXI@Z   10027370 f i Drprof_c.obj
 0001:000263f0       ??1CDrProf_C@@UAE@XZ       100273f0 f   Drprof_c.obj
 0001:00026470       ?ReadyToDelete@CDrProf_C@@UAEXXZ 10027470 f   Drprof_c.obj
 0001:00026580       ?DealObjectDialog@CDrProf_C@@UAEHXZ 10027580 f   Drprof_c.obj
 0001:000265a0       ?SetObjectInfo@CDrProf_C@@UAEXPAVCDrObject@@@Z 100275a0 f   Drprof_c.obj
 0001:00026640       ?GetObjectInfo@CDrProf_C@@UAEXPAVCDrObject@@@Z 10027640 f   Drprof_c.obj
 0001:000266e0       ?InitDraw@CDrProf_C@@UAEXPAVCDC@@HHPAUMATRIX@@1NNN@Z 100276e0 f   Drprof_c.obj
 0001:000267f0       ?DoDataView@CDrProf_C@@UAEXPAVCDC@@H@Z 100277f0 f   Drprof_c.obj
 0001:00026870       ?Pack_drPipe@CDrProf_C@@UAEXPAVCString@@@Z 10027870 f   Drprof_c.obj
 0001:00026990       ?Calc_3DBoundsLocal@CDrProf_C@@UAEHXZ 10027990 f   Drprof_c.obj
 0001:000269e0       ?TransformObjectToWorld@CDrProf_C@@UAEXPAUMATRIX@@H@Z 100279e0 f   Drprof_c.obj
 0001:00026c40       ?TransformObjectToView@CDrProf_C@@UAEXPAUMATRIX@@@Z 10027c40 f   Drprof_c.obj
 0001:00026da0       ?RemoveHiddenObject@CDrProf_C@@UAEHPAUMATRIX@@UWORLD@@H@Z 10027da0 f   Drprof_c.obj
 0001:00026e10       ?ProjectObject@CDrProf_C@@UAEXPAUMATRIX@@NN@Z 10027e10 f   Drprof_c.obj
 0001:00026f90       ?Calc_ScreenRectFromGenerators@CDrProf_C@@IAEXXZ 10027f90 f   Drprof_c.obj
 0001:00027020       ?Calc_NewMin@CDrProf_C@@IAE?AUWORLD@@U2@0@Z 10028020 f   Drprof_c.obj
 0001:000270a0       ?Calc_NewMax@CDrProf_C@@IAE?AUWORLD@@U2@0@Z 100280a0 f   Drprof_c.obj
 0001:00027120       ?DoDrawView@CDrProf_C@@UAEXPAVCDC@@H@Z 10028120 f   Drprof_c.obj
 0001:00027160       ?IsKeyMatch@CDrProf_C@@UAEHPAVCDrObject@@VCString@@I@Z 10028160 f   Drprof_c.obj
 0001:00027220       ?IsObjectHit@CDrProf_C@@UAEHPAVCDrObject@@PAVCClientDC@@HUtagPOINT@@PAUtagRECT@@@Z 10028220 f   Drprof_c.obj
 0001:00027260       ?AppendToObject@CDrProf_C@@UAEHPAVCDListMgr@@@Z 10028260 f   Drprof_c.obj
 0001:000272b0       ?Serialize@CDrProf_C@@UAEXAAVCArchive@@@Z 100282b0 f   Drprof_c.obj
 0001:00027300       ?GetPatchList@CDrProf_P@@UAEPAVCDListMgr@@XZ 10028300 f i Drprof_P.obj
 0001:00027320       ?GetCurIndexList@CDrProf_P@@UAEPAV?$CList@HH@@XZ 10028320 f i Drprof_P.obj
 0001:00027340       ?GetPatch@CDrProf_P@@UAEPAVCDrPatch@@XZ 10028340 f i Drprof_P.obj
 0001:00027360       ?SetPatch@CDrProf_P@@UAEXPAVCDrPatch@@@Z 10028360 f i Drprof_P.obj
 0001:00027390       ?CreateObject@CDrProf_P@@SGPAVCObject@@XZ 10028390 f   Drprof_P.obj
 0001:00027400       ?_GetBaseClass@CDrProf_P@@KGPAUCRuntimeClass@@XZ 10028400 f   Drprof_P.obj
 0001:00027420       ?GetRuntimeClass@CDrProf_P@@UBEPAUCRuntimeClass@@XZ 10028420 f   Drprof_P.obj
 0001:00027480       ??5@YGAAVCArchive@@AAV0@AAPAVCDrProf_P@@@Z 10028480 f   Drprof_P.obj
 0001:000274b0       ??0CDrProf_P@@QAE@XZ       100284b0 f   Drprof_P.obj
 0001:00027570       ??_GCDrProf_P@@UAEPAXI@Z   10028570 f i Drprof_P.obj
 0001:000275b0       ??_ECDrProf_P@@UAEPAXI@Z   100285b0 f i Drprof_P.obj
 0001:00027630       ??1CDrProf_P@@UAE@XZ       10028630 f   Drprof_P.obj
 0001:000276b0       ?ReadyToDelete@CDrProf_P@@UAEXXZ 100286b0 f   Drprof_P.obj
 0001:000277c0       ?DealObjectDialog@CDrProf_P@@UAEHXZ 100287c0 f   Drprof_P.obj
 0001:000277e0       ?SetObjectInfo@CDrProf_P@@UAEXPAVCDrObject@@@Z 100287e0 f   Drprof_P.obj
 0001:00027870       ?GetObjectInfo@CDrProf_P@@UAEXPAVCDrObject@@@Z 10028870 f   Drprof_P.obj
 0001:00027900       ?InitDraw@CDrProf_P@@UAEXPAVCDC@@HHPAUMATRIX@@1NNN@Z 10028900 f   Drprof_P.obj
 0001:00027a10       ?DoDataView@CDrProf_P@@UAEXPAVCDC@@H@Z 10028a10 f   Drprof_P.obj
 0001:00027a90       ?Pack_drPipe@CDrProf_P@@UAEXPAVCString@@@Z 10028a90 f   Drprof_P.obj
 0001:00027bb0       ?Calc_3DBoundsLocal@CDrProf_P@@UAEHXZ 10028bb0 f   Drprof_P.obj
 0001:00027c00       ?TransformObjectToWorld@CDrProf_P@@UAEXPAUMATRIX@@H@Z 10028c00 f   Drprof_P.obj
 0001:00027e60       ?TransformObjectToView@CDrProf_P@@UAEXPAUMATRIX@@@Z 10028e60 f   Drprof_P.obj
 0001:00027fc0       ?RemoveHiddenObject@CDrProf_P@@UAEHPAUMATRIX@@UWORLD@@H@Z 10028fc0 f   Drprof_P.obj
 0001:00028030       ?ProjectObject@CDrProf_P@@UAEXPAUMATRIX@@NN@Z 10029030 f   Drprof_P.obj
 0001:000281b0       ?Calc_ScreenRectFromGenerators@CDrProf_P@@IAEXXZ 100291b0 f   Drprof_P.obj
 0001:00028240       ?DoDrawView@CDrProf_P@@UAEXPAVCDC@@H@Z 10029240 f   Drprof_P.obj
 0001:00028280       ?IsKeyMatch@CDrProf_P@@UAEHPAVCDrObject@@VCString@@I@Z 10029280 f   Drprof_P.obj
 0001:00028340       ?IsObjectHit@CDrProf_P@@UAEHPAVCDrObject@@PAVCClientDC@@HUtagPOINT@@PAUtagRECT@@@Z 10029340 f   Drprof_P.obj
 0001:00028380       ?AppendToObject@CDrProf_P@@UAEHPAVCDListMgr@@@Z 10029380 f   Drprof_P.obj
 0001:000283d0       ?Serialize@CDrProf_P@@UAEXAAVCArchive@@@Z 100293d0 f   Drprof_P.obj
 0001:00028420       ?GetType@CPentaHed@@UAEHXZ 10029420 f i Drsolid.obj
 0001:00028440       ?SetType@CPentaHed@@UAEXH@Z 10029440 f i Drsolid.obj
 0001:00028460       ?GetCNIndexList@CPentaHed@@UAEPAV?$CList@HH@@XZ 10029460 f i Drsolid.obj
 0001:00028480       ?GetSolIndex@CPentaHed@@UAEHXZ 10029480 f i Drsolid.obj
 0001:000284a0       ?SetSolIndex@CPentaHed@@UAEXH@Z 100294a0 f i Drsolid.obj
 0001:000284c0       ?GetDegree_ST@CPentaHed@@UAEHXZ 100294c0 f i Drsolid.obj
 0001:000284e0       ?SetDegree_ST@CPentaHed@@UAEXH@Z 100294e0 f i Drsolid.obj
 0001:00028500       ?GetDegree_R@CPentaHed@@UAEHXZ 10029500 f i Drsolid.obj
 0001:00028520       ?SetDegree_R@CPentaHed@@UAEXH@Z 10029520 f i Drsolid.obj
 0001:00028540       ?GetVertexIndex@CPentaHed@@UAEHH@Z 10029540 f i Drsolid.obj
 0001:00028560       ?SetVertexIndex@CPentaHed@@UAEXHH@Z 10029560 f i Drsolid.obj
 0001:00028590       ?GetVertexIndex@CPentaHed@@UAEPAHXZ 10029590 f i Drsolid.obj
 0001:000285b0       ?GetNebrVertexIndex@CPentaHed@@UAEHH@Z 100295b0 f i Drsolid.obj
 0001:000285d0       ?SetNebrVertexIndex@CPentaHed@@UAEXHH@Z 100295d0 f i Drsolid.obj
 0001:00028600       ?GetNebrVertexIndex@CPentaHed@@UAEPAHXZ 10029600 f i Drsolid.obj
 0001:00028620       ?GetNebrPentaHedIndex@CPentaHed@@UAEHH@Z 10029620 f i Drsolid.obj
 0001:00028640       ?SetNebrPentaHedIndex@CPentaHed@@UAEXHH@Z 10029640 f i Drsolid.obj
 0001:00028670       ?GetNebrPentaHedIndex@CPentaHed@@UAEPAHXZ 10029670 f i Drsolid.obj
 0001:00028690       ?GetOutStartIndex@CPentaHed@@UAEHXZ 10029690 f i Drsolid.obj
 0001:000286b0       ?SetOutStartIndex@CPentaHed@@UAEXH@Z 100296b0 f i Drsolid.obj
 0001:000286d0       ?GetOutSeg_S@CPentaHed@@UAEHXZ 100296d0 f i Drsolid.obj
 0001:000286f0       ?SetOutSeg_S@CPentaHed@@UAEXH@Z 100296f0 f i Drsolid.obj
 0001:00028710       ?GetOutSeg_R@CPentaHed@@UAEHXZ 10029710 f i Drsolid.obj
 0001:00028730       ?SetOutSeg_R@CPentaHed@@UAEXH@Z 10029730 f i Drsolid.obj
 0001:00028750       ?GetiOutGlo_ST@CPentaHed@@UAEHXZ 10029750 f i Drsolid.obj
 0001:00028770       ?SetiOutGlo_ST@CPentaHed@@UAEXH@Z 10029770 f i Drsolid.obj
 0001:00028790       ?GetjOutGlo_ST@CPentaHed@@UAEHXZ 10029790 f i Drsolid.obj
 0001:000287b0       ?SetjOutGlo_ST@CPentaHed@@UAEXH@Z 100297b0 f i Drsolid.obj
 0001:000287d0       ??1CPentaHed@@UAE@XZ       100297d0 f i Drsolid.obj
 0001:00028830       ??_GCPentaHed@@UAEPAXI@Z   10029830 f i Drsolid.obj
 0001:00028870       ??_ECPentaHed@@UAEPAXI@Z   10029870 f i Drsolid.obj
 0001:000288f0       ?IsNormalNeeded@CDrSolid@@UAEHXZ 100298f0 f i Drsolid.obj
 0001:00028910       ?SetNormalNeed@CDrSolid@@UAEXH@Z 10029910 f i Drsolid.obj
 0001:00028940       ?GetCurveType_R@CDrSolid@@QAE?AW4CURVEPROC@@XZ 10029940 f i Drsolid.obj
 0001:00028960       ?SetCurveType_R@CDrSolid@@QAEXW4CURVEPROC@@@Z 10029960 f i Drsolid.obj
 0001:00028990       ?GetOutSegUnif_R@CDrSolid@@QAEHXZ 10029990 f i Drsolid.obj
 0001:000289b0       ?SetOutSegUnif_R@CDrSolid@@QAEXH@Z 100299b0 f i Drsolid.obj
 0001:000289e0       ?IsClosed_R@CDrSolid@@QAEHXZ 100299e0 f i Drsolid.obj
 0001:00028a00       ?SetClosed_R@CDrSolid@@QAEXH@Z 10029a00 f i Drsolid.obj
 0001:00028a30       ?GetSolidObjectType@CDrSolid@@QAEHXZ 10029a30 f i Drsolid.obj
 0001:00028a50       ?SetSolidObjectType@CDrSolid@@QAEXH@Z 10029a50 f i Drsolid.obj
 0001:00028a80       ?GetMaxBezSegments_R@CDrSolid@@QAEHXZ 10029a80 f i Drsolid.obj
 0001:00028aa0       ?SetMaxBezSegments_R@CDrSolid@@QAEXH@Z 10029aa0 f i Drsolid.obj
 0001:00028ad0       ?GetMaxCNodes_R@CDrSolid@@QAEHXZ 10029ad0 f i Drsolid.obj
 0001:00028af0       ?SetMaxCNodes_R@CDrSolid@@QAEXH@Z 10029af0 f i Drsolid.obj
 0001:00028b20       ?GetMaxOutPts_R@CDrSolid@@QAEHXZ 10029b20 f i Drsolid.obj
 0001:00028b40       ?SetMaxOutPts_R@CDrSolid@@QAEXH@Z 10029b40 f i Drsolid.obj
 0001:00028b70       ?GetPatchID@CDrSolid@@QAE?AVCString@@H@Z 10029b70 f i Drsolid.obj
 0001:00028bb0       ?SetPatchID@CDrSolid@@QAEXVCString@@H@Z 10029bb0 f i Drsolid.obj
 0001:00028c10       ?GetFromIDNode_R@CDrSolid@@QAEPAVCDrNode@@XZ 10029c10 f i Drsolid.obj
 0001:00028c30       ?SetFromIDNode_R@CDrSolid@@QAEXPAVCDrNode@@@Z 10029c30 f i Drsolid.obj
 0001:00028c60       ?GetToIDNode_R@CDrSolid@@QAEPAVCDrNode@@XZ 10029c60 f i Drsolid.obj
 0001:00028c80       ?SetToIDNode_R@CDrSolid@@QAEXPAVCDrNode@@@Z 10029c80 f i Drsolid.obj
 0001:00028cb0       ?GetFromPtLocal_R@CDrSolid@@QAEPAUWORLD@@XZ 10029cb0 f i Drsolid.obj
 0001:00028cd0       ?SetFromPtLocal_R@CDrSolid@@QAEXUWORLD@@@Z 10029cd0 f i Drsolid.obj
 0001:00028d00       ?GetToPtLocal_R@CDrSolid@@QAEPAUWORLD@@XZ 10029d00 f i Drsolid.obj
 0001:00028d20       ?SetToPtLocal_R@CDrSolid@@QAEXUWORLD@@@Z 10029d20 f i Drsolid.obj
 0001:00028d50       ?GetFromPtWorld_R@CDrSolid@@QAEPAUWORLD@@XZ 10029d50 f i Drsolid.obj
 0001:00028d70       ?SetFromPtWorld_R@CDrSolid@@QAEXUWORLD@@@Z 10029d70 f i Drsolid.obj
 0001:00028da0       ?GetToPtWorld_R@CDrSolid@@QAEPAUWORLD@@XZ 10029da0 f i Drsolid.obj
 0001:00028dc0       ?SetToPtWorld_R@CDrSolid@@QAEXUWORLD@@@Z 10029dc0 f i Drsolid.obj
 0001:00028df0       ?GetFromPtEye_R@CDrSolid@@QAEPAUWORLD@@XZ 10029df0 f i Drsolid.obj
 0001:00028e10       ?SetFromPtEye_R@CDrSolid@@QAEXUWORLD@@@Z 10029e10 f i Drsolid.obj
 0001:00028e40       ?GetToPtEye_R@CDrSolid@@QAEPAUWORLD@@XZ 10029e40 f i Drsolid.obj
 0001:00028e60       ?SetToPtEye_R@CDrSolid@@QAEXUWORLD@@@Z 10029e60 f i Drsolid.obj
 0001:00028e90       ?GetAxis_R@CDrSolid@@QAEPAUWORLD@@XZ 10029e90 f i Drsolid.obj
 0001:00028eb0       ?SetAxis_R@CDrSolid@@QAEXUWORLD@@@Z 10029eb0 f i Drsolid.obj
 0001:00028ee0       ?GetExtruType_R@CDrSolid@@QAEHXZ 10029ee0 f i Drsolid.obj
 0001:00028f00       ?SetExtruType_R@CDrSolid@@QAEXH@Z 10029f00 f i Drsolid.obj
 0001:00028f30       ?GetLength_R@CDrSolid@@QAENXZ 10029f30 f i Drsolid.obj
 0001:00028f50       ?SetLength_R@CDrSolid@@QAEXN@Z 10029f50 f i Drsolid.obj
 0001:00028f80       ?GetWorldLength_R@CDrSolid@@QAE?AUWORLD@@XZ 10029f80 f i Drsolid.obj
 0001:00028fb0       ?SetWorldLength_R@CDrSolid@@QAEXUWORLD@@@Z 10029fb0 f i Drsolid.obj
 0001:00028fe0       ?GetSegs_R@CDrSolid@@QAEHXZ 10029fe0 f i Drsolid.obj
 0001:00029000       ?SetSegs_R@CDrSolid@@QAEXH@Z 1002a000 f i Drsolid.obj
 0001:00029030       ?GetSolidProc@CDrSolid@@QAE?AW4SOLIDPROC@@XZ 1002a030 f i Drsolid.obj
 0001:00029050       ?SetSolidProc@CDrSolid@@QAEXW4SOLIDPROC@@@Z 1002a050 f i Drsolid.obj
 0001:00029080       ?GetSolidType@CDrSolid@@QAE?AW4SOLIDTYPE@@XZ 1002a080 f i Drsolid.obj
 0001:000290a0       ?SetSolidType@CDrSolid@@QAEXW4SOLIDTYPE@@@Z 1002a0a0 f i Drsolid.obj
 0001:000290d0       ?GetSolSubType@CDrSolid@@QAE?AW4SOLSUBTYPE@@XZ 1002a0d0 f i Drsolid.obj
 0001:000290f0       ?SetSolSubType@CDrSolid@@QAEXW4SOLSUBTYPE@@@Z 1002a0f0 f i Drsolid.obj
 0001:00029120       ?GetOut_R@CDrSolid@@QAEHXZ 1002a120 f i Drsolid.obj
 0001:00029140       ?SetOut_R@CDrSolid@@QAEXH@Z 1002a140 f i Drsolid.obj
 0001:00029170       ?IsUniform_R@CDrSolid@@QAEHXZ 1002a170 f i Drsolid.obj
 0001:00029190       ?SetUniform_R@CDrSolid@@QAEXH@Z 1002a190 f i Drsolid.obj
 0001:000291c0       ?GetOrder_R@CDrSolid@@QAEHXZ 1002a1c0 f i Drsolid.obj
 0001:000291e0       ?SetOrder_R@CDrSolid@@QAEXH@Z 1002a1e0 f i Drsolid.obj
 0001:00029210       ?GetnDim_R@CDrSolid@@QAEHXZ 1002a210 f i Drsolid.obj
 0001:00029230       ?SetnDim_R@CDrSolid@@QAEXH@Z 1002a230 f i Drsolid.obj
 0001:00029260       ?GetOutMethod_R@CDrSolid@@QAE?AW4SOLIDOUTPUT@@XZ 1002a260 f i Drsolid.obj
 0001:00029280       ?SetOutMethod_R@CDrSolid@@QAEXW4SOLIDOUTPUT@@@Z 1002a280 f i Drsolid.obj
 0001:000292b0       ?GetMaxOutSeg_R@CDrSolid@@QAEHXZ 1002a2b0 f i Drsolid.obj
 0001:000292d0       ?SetMaxOutSeg_R@CDrSolid@@QAEXH@Z 1002a2d0 f i Drsolid.obj
 0001:00029300       ?GetNum_tPointer_R@CDrSolid@@QAEPAHXZ 1002a300 f i Drsolid.obj
 0001:00029320       ?SetNum_tPointer_R@CDrSolid@@QAEXPAH@Z 1002a320 f i Drsolid.obj
 0001:00029350       ?GetDis_tPointer_R@CDrSolid@@QAEPANXZ 1002a350 f i Drsolid.obj
 0001:00029370       ?SetDis_tPointer_R@CDrSolid@@QAEXPAN@Z 1002a370 f i Drsolid.obj
 0001:000293a0       ?GetNum_tPointer_Ex_R@CDrSolid@@QAEPAHXZ 1002a3a0 f i Drsolid.obj
 0001:000293c0       ?SetNum_tPointer_Ex_R@CDrSolid@@QAEXPAH@Z 1002a3c0 f i Drsolid.obj
 0001:000293f0       ?GetDis_AngPointer_R@CDrSolid@@QAEPANXZ 1002a3f0 f i Drsolid.obj
 0001:00029410       ?SetDis_AngPointer_R@CDrSolid@@QAEXPAN@Z 1002a410 f i Drsolid.obj
 0001:00029440       ?GetNum_tPointer_ST@CDrSolid@@QAEPAHXZ 1002a440 f i Drsolid.obj
 0001:00029460       ?SetNum_tPointer_ST@CDrSolid@@QAEXPAH@Z 1002a460 f i Drsolid.obj
 0001:00029490       ?GetDis_tPointer_ST@CDrSolid@@QAEPANXZ 1002a490 f i Drsolid.obj
 0001:000294b0       ?SetDis_tPointer_ST@CDrSolid@@QAEXPAN@Z 1002a4b0 f i Drsolid.obj
 0001:000294e0       ?GetNum_tPointer_Ex_ST@CDrSolid@@QAEPAHXZ 1002a4e0 f i Drsolid.obj
 0001:00029500       ?SetNum_tPointer_Ex_ST@CDrSolid@@QAEXPAH@Z 1002a500 f i Drsolid.obj
 0001:00029530       ?GetDis_AngPointer_ST@CDrSolid@@QAEPANXZ 1002a530 f i Drsolid.obj
 0001:00029550       ?SetDis_AngPointer_ST@CDrSolid@@QAEXPAN@Z 1002a550 f i Drsolid.obj
 0001:00029580       ?GetData_Ex_R@CDrSolid@@QAEHXZ 1002a580 f i Drsolid.obj
 0001:000295a0       ?SetData_Ex_R@CDrSolid@@QAEXH@Z 1002a5a0 f i Drsolid.obj
 0001:000295d0       ?IsExpanded_R@CDrSolid@@QAEHXZ 1002a5d0 f i Drsolid.obj
 0001:000295f0       ?SetExpanded_R@CDrSolid@@QAEXH@Z 1002a5f0 f i Drsolid.obj
 0001:00029620       ?GetMaxENodes_R@CDrSolid@@QAEHXZ 1002a620 f i Drsolid.obj
 0001:00029640       ?SetMaxENodes_R@CDrSolid@@QAEXH@Z 1002a640 f i Drsolid.obj
 0001:00029670       ?GetRadius_R@CDrSolid@@QAENXZ 1002a670 f i Drsolid.obj
 0001:00029690       ?SetRadius_R@CDrSolid@@QAEXN@Z 1002a690 f i Drsolid.obj
 0001:000296c0       ?GetTheta_R@CDrSolid@@QAENXZ 1002a6c0 f i Drsolid.obj
 0001:000296e0       ?SetTheta_R@CDrSolid@@QAEXN@Z 1002a6e0 f i Drsolid.obj
 0001:00029710       ?GetCenter_R@CDrSolid@@QAE?AUWORLD@@XZ 1002a710 f i Drsolid.obj
 0001:00029740       ?SetCenter_R@CDrSolid@@QAEXUWORLD@@@Z 1002a740 f i Drsolid.obj
 0001:000297a0       ?GetNormal_R@CDrSolid@@QAE?AUWORLD@@XZ 1002a7a0 f i Drsolid.obj
 0001:000297d0       ?SetNormal_R@CDrSolid@@QAEXUWORLD@@@Z 1002a7d0 f i Drsolid.obj
 0001:00029830       ?GetSegAngle_R@CDrSolid@@QAENXZ 1002a830 f i Drsolid.obj
 0001:00029850       ?SetSegAngle_R@CDrSolid@@QAEXN@Z 1002a850 f i Drsolid.obj
 0001:00029880       ?IsHole_R@CDrSolid@@QAEHXZ 1002a880 f i Drsolid.obj
 0001:000298a0       ?SetHole_R@CDrSolid@@QAEXH@Z 1002a8a0 f i Drsolid.obj
 0001:000298d0       ?GetpTangents_R@CDrSolid@@QAEPAUWORLD@@XZ 1002a8d0 f i Drsolid.obj
 0001:000298f0       ?SetpTangents_R@CDrSolid@@QAEXPAUWORLD@@@Z 1002a8f0 f i Drsolid.obj
 0001:00029920       ?GetpCurvatures_R@CDrSolid@@QAEPANXZ 1002a920 f i Drsolid.obj
 0001:00029940       ?SetpCurvatures_R@CDrSolid@@QAEXPAN@Z 1002a940 f i Drsolid.obj
 0001:00029970       ?GetRatio_R@CDrSolid@@QAENXZ 1002a970 f i Drsolid.obj
 0001:00029990       ?SetRatio_R@CDrSolid@@QAEXN@Z 1002a990 f i Drsolid.obj
 0001:000299c0       ?GetTwistType_R@CDrSolid@@QAEHXZ 1002a9c0 f i Drsolid.obj
 0001:000299e0       ?SetTwistType_R@CDrSolid@@QAEXH@Z 1002a9e0 f i Drsolid.obj
 0001:00029a10       ?GetTwistList_R@CDrSolid@@QAEPAV?$CList@NN@@XZ 1002aa10 f i Drsolid.obj
 0001:00029a30       ?GetScaleType_R@CDrSolid@@QAEHXZ 1002aa30 f i Drsolid.obj
 0001:00029a50       ?SetScaleType_R@CDrSolid@@QAEXH@Z 1002aa50 f i Drsolid.obj
 0001:00029a80       ?GetScaleList_R@CDrSolid@@QAEPAV?$CList@NN@@XZ 1002aa80 f i Drsolid.obj
 0001:00029aa0       ?IsIncTwist_R@CDrSolid@@QAEHXZ 1002aaa0 f i Drsolid.obj
 0001:00029ac0       ?SetIncTwist_R@CDrSolid@@QAEXH@Z 1002aac0 f i Drsolid.obj
 0001:00029af0       ?GetTwistMult_R@CDrSolid@@QAENXZ 1002aaf0 f i Drsolid.obj
 0001:00029b10       ?SetTwistMult_R@CDrSolid@@QAEXN@Z 1002ab10 f i Drsolid.obj
 0001:00029b40       ?GetTwistStart_R@CDrSolid@@QAENXZ 1002ab40 f i Drsolid.obj
 0001:00029b60       ?SetTwistStart_R@CDrSolid@@QAEXN@Z 1002ab60 f i Drsolid.obj
 0001:00029b90       ?IsIncScale_R@CDrSolid@@QAEHXZ 1002ab90 f i Drsolid.obj
 0001:00029bb0       ?SetIncScale_R@CDrSolid@@QAEXH@Z 1002abb0 f i Drsolid.obj
 0001:00029be0       ?GetScaleMult_R@CDrSolid@@QAENXZ 1002abe0 f i Drsolid.obj
 0001:00029c00       ?SetScaleMult_R@CDrSolid@@QAEXN@Z 1002ac00 f i Drsolid.obj
 0001:00029c30       ?GetScaleStart_R@CDrSolid@@QAENXZ 1002ac30 f i Drsolid.obj
 0001:00029c50       ?SetScaleStart_R@CDrSolid@@QAEXN@Z 1002ac50 f i Drsolid.obj
 0001:00029c80       ?GetPentaList@CDrSolid@@QAEPAVCDListMgr@@XZ 1002ac80 f i Drsolid.obj
 0001:00029ca0       ?GetnTriangles_ST@CDrSolid@@QAEHXZ 1002aca0 f i Drsolid.obj
 0001:00029cc0       ?SetnTriangles_ST@CDrSolid@@QAEXH@Z 1002acc0 f i Drsolid.obj
 0001:00029cf0       ?GetElperSegList_R@CDrSolid@@QAEPAV?$CList@HH@@XZ 1002acf0 f i Drsolid.obj
 0001:00029d10       ?IsGenBPatch@CDrSolid@@QAEHXZ 1002ad10 f i Drsolid.obj
 0001:00029d30       ?SetGenBPatch@CDrSolid@@QAEXH@Z 1002ad30 f i Drsolid.obj
 0001:00029d60       ?GetVPatchList@CDrSolid@@QAEPAVCDListMgr@@XZ 1002ad60 f i Drsolid.obj
 0001:00029d80       ?GetPatchList_U@CDrSolid@@QAEPAVCDListMgr@@XZ 1002ad80 f i Drsolid.obj
 0001:00029da0       ?GetPatchList_V@CDrSolid@@QAEPAVCDListMgr@@XZ 1002ada0 f i Drsolid.obj
 0001:00029dc0       ?GetPatchList_W@CDrSolid@@QAEPAVCDListMgr@@XZ 1002adc0 f i Drsolid.obj
 0001:00029de0       ?GetPatchLatchList_U@CDrSolid@@QAEPAV?$CList@W4PATCHLATCH@@W41@@@XZ 1002ade0 f i Drsolid.obj
 0001:00029e00       ?GetPatchLatchList_V@CDrSolid@@QAEPAV?$CList@W4PATCHLATCH@@W41@@@XZ 1002ae00 f i Drsolid.obj
 0001:00029e20       ?GetPatchLatchList_W@CDrSolid@@QAEPAV?$CList@W4PATCHLATCH@@W41@@@XZ 1002ae20 f i Drsolid.obj
 0001:00029e40       ?IsAxisInput_R@CDrSolid@@QAEHXZ 1002ae40 f i Drsolid.obj
 0001:00029e60       ?SetAxisInput_R@CDrSolid@@QAEXH@Z 1002ae60 f i Drsolid.obj
 0001:00029e90       ?GetAxisType_R@CDrSolid@@QAEHXZ 1002ae90 f i Drsolid.obj
 0001:00029eb0       ?SetAxisType_R@CDrSolid@@QAEXH@Z 1002aeb0 f i Drsolid.obj
 0001:00029ee0       ?IsNegative_R@CDrSolid@@QAEHXZ 1002aee0 f i Drsolid.obj
 0001:00029f00       ?SetNegative_R@CDrSolid@@QAEXH@Z 1002af00 f i Drsolid.obj
 0001:00029f30       ?GetCircleType_R@CDrSolid@@QAE?AW4CIRCLETYPE@@XZ 1002af30 f i Drsolid.obj
 0001:00029f50       ?SetCircleType_R@CDrSolid@@QAEXW4CIRCLETYPE@@@Z 1002af50 f i Drsolid.obj
 0001:00029f80       ?GetAng_1_R@CDrSolid@@QAENXZ 1002af80 f i Drsolid.obj
 0001:00029fa0       ?SetAng_1_R@CDrSolid@@QAEXN@Z 1002afa0 f i Drsolid.obj
 0001:00029fd0       ?GetAng_2_R@CDrSolid@@QAENXZ 1002afd0 f i Drsolid.obj
 0001:00029ff0       ?SetAng_2_R@CDrSolid@@QAEXN@Z 1002aff0 f i Drsolid.obj
 0001:0002a020       ?CreateObject@CDrSolid@@SGPAVCObject@@XZ 1002b020 f   Drsolid.obj
 0001:0002a0a0       ?_GetBaseClass@CDrSolid@@KGPAUCRuntimeClass@@XZ 1002b0a0 f   Drsolid.obj
 0001:0002a0c0       ?GetRuntimeClass@CDrSolid@@UBEPAUCRuntimeClass@@XZ 1002b0c0 f   Drsolid.obj
 0001:0002a120       ??5@YGAAVCArchive@@AAV0@AAPAVCDrSolid@@@Z 1002b120 f   Drsolid.obj
 0001:0002a150       ??0CDrSolid@@QAE@XZ        1002b150 f   Drsolid.obj
 0001:0002a540       ??_GCDrSolid@@UAEPAXI@Z    1002b540 f i Drsolid.obj
 0001:0002a580       ??_ECDrSolid@@UAEPAXI@Z    1002b580 f i Drsolid.obj
 0001:0002a600       ??1CDrSolid@@UAE@XZ        1002b600 f   Drsolid.obj
 0001:0002aa50       ?ReadyToDelete@CDrSolid@@UAEXXZ 1002ba50 f   Drsolid.obj
 0001:0002ad90       ?DealObjectDialog@CDrSolid@@UAEHXZ 1002bd90 f   Drsolid.obj
 0001:0002adb0       ?SetObjectInfo@CDrSolid@@UAEXPAVCDrObject@@@Z 1002bdb0 f   Drsolid.obj
 0001:0002b3c0       ?GetObjectInfo@CDrSolid@@UAEXPAVCDrObject@@@Z 1002c3c0 f   Drsolid.obj
 0001:0002b9d0       ?Pack_drPipe@CDrSolid@@UAEXPAVCString@@@Z 1002c9d0 f   Drsolid.obj
 0001:0002baf0       ?TransformObjectToWorld@CDrSolid@@UAEXPAUMATRIX@@H@Z 1002caf0 f   Drsolid.obj
 0001:0002bb20       ?TransformObjectToView@CDrSolid@@UAEXPAUMATRIX@@@Z 1002cb20 f   Drsolid.obj
 0001:0002bc10       ?RemoveHiddenObject@CDrSolid@@UAEHPAUMATRIX@@UWORLD@@H@Z 1002cc10 f   Drsolid.obj
 0001:0002bc30       ?ProjectObject@CDrSolid@@UAEXPAUMATRIX@@NN@Z 1002cc30 f   Drsolid.obj
 0001:0002bc70       ?NumberOfSolides@CDrSolid@@QAEHXZ 1002cc70 f   Drsolid.obj
 0001:0002bd30       ?NumberOfBezierPenta@CDrSolid@@QAEHXZ 1002cd30 f   Drsolid.obj
 0001:0002bdb0       ?Generate_SolidTet@CDrSolid@@QAEHPAUWORLD@@PAN@Z 1002cdb0 f   Drsolid.obj
 0001:0002bde0       ?Generate_SolidPen@CDrSolid@@QAEHPAUWORLD@@PAN@Z 1002cde0 f   Drsolid.obj
 0001:0002bf20       ?Generate_SolidHex@CDrSolid@@QAEHPAUWORLD@@PAN@Z 1002cf20 f   Drsolid.obj
 0001:0002c330       ?TransformToWorldPos@CDrSolid@@IAEXPAUMATRIX@@H@Z 1002d330 f   Drsolid.obj
 0001:0002c660       ?TransformToEyePos@CDrSolid@@IAEXPAUMATRIX@@@Z 1002d660 f   Drsolid.obj
 0001:0002c7e0       ?ProjectToScreenPos@CDrSolid@@IAEXPAUMATRIX@@NN@Z 1002d7e0 f   Drsolid.obj
 0001:0002c910       ?DoDataView@CDrSolid@@UAEXPAVCDC@@H@Z 1002d910 f   Drsolid.obj
 0001:0002c990       ?InitDraw@CDrSolid@@UAEXPAVCDC@@HHPAUMATRIX@@1NNN@Z 1002d990 f   Drsolid.obj
 0001:0002caa0       ?DoDrawView@CDrSolid@@UAEXPAVCDC@@H@Z 1002daa0 f   Drsolid.obj
 0001:0002ccd0       ?GoDoIt_HEXA@CDrSolid@@IAEXPAVCDC@@@Z 1002dcd0 f   Drsolid.obj
 0001:0002cfb0       ?GoDoControlNodes_HEXA@CDrSolid@@IAEXPAVCDC@@@Z 1002dfb0 f   Drsolid.obj
 0001:0002d320       ?GoDoIt_PENTA@CDrSolid@@IAEXPAVCDC@@@Z 1002e320 f   Drsolid.obj
 0001:0002d470       ?PENTA_1@CDrSolid@@IAEXPAVCDC@@HHHHH@Z 1002e470 f   Drsolid.obj
 0001:0002d970       ?PENTA_2@CDrSolid@@IAEXPAVCDC@@HHHHH@Z 1002e970 f   Drsolid.obj
 0001:0002de70       ?GoDoControlNodes_PENTA@CDrSolid@@IAEXPAVCDC@@@Z 1002ee70 f   Drsolid.obj
 0001:0002df30       ?GoDoIt_TETRA@CDrSolid@@IAEXPAVCDC@@@Z 1002ef30 f   Drsolid.obj
 0001:0002df50       ?GoDoControlNodes_TETRA@CDrSolid@@IAEXPAVCDC@@@Z 1002ef50 f   Drsolid.obj
 0001:0002e010       ?NumberOfElements@CDrSolid@@QAEHIH@Z 1002f010 f   Drsolid.obj
 0001:0002e030       ?IsKeyMatch@CDrSolid@@UAEHPAVCDrObject@@VCString@@I@Z 1002f030 f   Drsolid.obj
 0001:0002e0f0       ?IsObjectHit@CDrSolid@@UAEHHUtagPOINT@@@Z 1002f0f0 f   Drsolid.obj
 0001:0002e170       ?IsObjectHit_TETRA@CDrSolid@@IAEHHUtagPOINT@@@Z 1002f170 f   Drsolid.obj
 0001:0002e1b0       ?IsObjectHit_PENTA@CDrSolid@@IAEHHUtagPOINT@@@Z 1002f1b0 f   Drsolid.obj
 0001:0002e3b0       ?ObjectHit_PENTA_1@CDrSolid@@IAEHHHHHHHUtagPOINT@@@Z 1002f3b0 f   Drsolid.obj
 0001:0002e860       ?ObjectHit_PENTA_2@CDrSolid@@IAEHHHHHHHUtagPOINT@@@Z 1002f860 f   Drsolid.obj
 0001:0002ed10       ?IsObjectHit_HEXA@CDrSolid@@IAEHHUtagPOINT@@@Z 1002fd10 f   Drsolid.obj
 0001:0002f1a0       ?ObjectHit_Generate2DPts@CDrSolid@@IAEHXZ 100301a0 f   Drsolid.obj
 0001:0002f380       ?AppendToObject@CDrSolid@@UAEHPAVCDListMgr@@0000@Z 10030380 f   Drsolid.obj
 0001:0002f480       ?Serialize@CDrSolid@@UAEXAAVCArchive@@@Z 10030480 f   Drsolid.obj
 0001:0002f790       ??0?$CList@W4PATCHLATCH@@W41@@@QAE@H@Z 10030790 f i Drsolid.obj
 0001:0002f850       ??1?$CList@W4PATCHLATCH@@W41@@@UAE@XZ 10030850 f i Drsolid.obj
 0001:0002f8d0       ?Serialize@?$CList@W4PATCHLATCH@@W41@@@UAEXAAVCArchive@@@Z 100308d0 f i Drsolid.obj
 0001:0002f9c0       ?Dump@?$CList@W4PATCHLATCH@@W41@@@UBEXAAVCDumpContext@@@Z 100309c0 f i Drsolid.obj
 0001:0002fa60       ?AssertValid@?$CList@W4PATCHLATCH@@W41@@@UBEXXZ 10030a60 f i Drsolid.obj
 0001:0002fb30       ??_E?$CList@W4PATCHLATCH@@W41@@@UAEPAXI@Z 10030b30 f i Drsolid.obj
 0001:0002fb30       ??_G?$CList@W4PATCHLATCH@@W41@@@UAEPAXI@Z 10030b30 f i Drsolid.obj
 0001:0002fb70       ?AddTail@?$CList@W4PATCHLATCH@@W41@@@QAEPAU__POSITION@@W4PATCHLATCH@@@Z 10030b70 f i Drsolid.obj
 0001:0002fbe0       ?RemoveAll@?$CList@W4PATCHLATCH@@W41@@@QAEXXZ 10030be0 f i Drsolid.obj
 0001:0002fc70       ?GetHeadPosition@?$CList@W4PATCHLATCH@@W41@@@QBEPAU__POSITION@@XZ 10030c70 f i Drsolid.obj
 0001:0002fc90       ?GetNext@?$CList@W4PATCHLATCH@@W41@@@QAEAAW4PATCHLATCH@@AAPAU__POSITION@@@Z 10030c90 f i Drsolid.obj
 0001:0002fcf0       ?SerializeElements@@YGXAAVCArchive@@PAW4PATCHLATCH@@H@Z 10030cf0 f i Drsolid.obj
 0001:0002fd70       ?DumpElements@@YGXAAVCDumpContext@@PBW4PATCHLATCH@@H@Z 10030d70 f i Drsolid.obj
 0001:0002fdc0       ?NewNode@?$CList@W4PATCHLATCH@@W41@@@IAEPAUCNode@1@PAU21@0@Z 10030dc0 f i Drsolid.obj
 0001:0002fee0       ?DestructElements@@YGXPAW4PATCHLATCH@@H@Z 10030ee0 f i Drsolid.obj
 0001:0002ff50       ?ConstructElements@@YGXPAW4PATCHLATCH@@H@Z 10030f50 f i Drsolid.obj
 0001:0002ffe0       _ExtRawDllMain@12          10030fe0 f   OGen_dll.obj
 0001:00030040       _InitOGenDLL@0             10031040 f   OGen_dll.obj
 0001:00030090       _DllMain@12                10031090 f   OGen_dll.obj
 0001:00030100       ??B?$CTypedSimpleList@PAUCRuntimeClass@@@@QAEPAUCRuntimeClass@@XZ 10031100 f i OGen_dll.obj
 0001:00030120       ??B?$CTypedSimpleList@PAVCOleObjectFactory@@@@QAEPAVCOleObjectFactory@@XZ 10031120 f i OGen_dll.obj
 0001:00030140       ?GetHead@CSimpleList@@QBEPAXXZ 10031140 f i OGen_dll.obj
 0001:00030160       ??1CPat_SubDiv4@@UAE@XZ    10031160 f i Pat_SubDiv4.obj
 0001:00030190       ??_GCPat_SubDiv4@@UAEPAXI@Z 10031190 f i Pat_SubDiv4.obj
 0001:000301d0       ??_ECPat_SubDiv4@@UAEPAXI@Z 100311d0 f i Pat_SubDiv4.obj
 0001:00030250       ?_GetBaseClass@CPat_SubDiv4@@KGPAUCRuntimeClass@@XZ 10031250 f   Pat_SubDiv4.obj
 0001:00030270       ?GetRuntimeClass@CPat_SubDiv4@@UBEPAUCRuntimeClass@@XZ 10031270 f   Pat_SubDiv4.obj
 0001:00030290       ??0CPat_SubDiv4@@QAE@XZ    10031290 f   Pat_SubDiv4.obj
 0001:000302c0       ?SubDivide_U@CPat_SubDiv4@@QAEHPAUWORLD@@N0HHH@Z 100312c0 f   Pat_SubDiv4.obj
 0001:000305b0       ?SubDivide_V@CPat_SubDiv4@@QAEHPAUWORLD@@N0HHH@Z 100315b0 f   Pat_SubDiv4.obj
 0001:00030890       ?SubDivide_UV@CPat_SubDiv4@@QAEHPAUWORLD@@NN0HHHH@Z 10031890 f   Pat_SubDiv4.obj
 0001:00030900       ?Rat_SubDivide_U@CPat_SubDiv4@@QAEHPAUWORLD@@PANN01HHH@Z 10031900 f   Pat_SubDiv4.obj
 0001:00030ce0       ?Rat_SubDivide_V@CPat_SubDiv4@@QAEHPAUWORLD@@PANN01HHH@Z 10031ce0 f   Pat_SubDiv4.obj
 0001:000310a0       ?Rat_SubDivide_UV@CPat_SubDiv4@@QAEHPAUWORLD@@PANNN01HHHH@Z 100320a0 f   Pat_SubDiv4.obj
 0001:00031120       ?_GetBaseClass@CPat_Tan3@@KGPAUCRuntimeClass@@XZ 10032120 f   Pat_Tan3.obj
 0001:00031140       ?GetRuntimeClass@CPat_Tan3@@UBEPAUCRuntimeClass@@XZ 10032140 f   Pat_Tan3.obj
 0001:00031160       ??0CPat_Tan3@@QAE@XZ       10032160 f   Pat_Tan3.obj
 0001:00031190       ?DC_GetTangentsForNormalAtaNode@CPat_Tan3@@QAEHUWORLD@@AAU2@1HHHHPAVCDListMgr@@PANPAU2@N@Z 10032190 f   Pat_Tan3.obj
 0001:000315c0       ?IsDesiredControlIndices@CPat_Tan3@@IAEHUWORLD@@AAHPAU2@HN@Z 100325c0 f   Pat_Tan3.obj
 0001:00031680       ?DC_GetTangentsForNormalAtaLIndex@CPat_Tan3@@IAEHHHHHHHPANPAUWORLD@@AAU2@2@Z 10032680 f   Pat_Tan3.obj
 0001:00031a20       ?DC_GetaTangentAtaNode@CPat_Tan3@@QAEHUWORLD@@AAU2@HHHHHPAVCDListMgr@@PANPAU2@N@Z 10032a20 f   Pat_Tan3.obj
 0001:00031e50       ?DC_GetaTangentAtaLIndex@CPat_Tan3@@IAEHHHHHHHPANPAUWORLD@@AAU2@AAH@Z 10032e50 f   Pat_Tan3.obj
 0001:00032180       ?DC_MakeTangentsInOneDir@CPat_Tan3@@IAEHHHHHHPAVCDListMgr@@PANPAUWORLD@@2H@Z 10033180 f   Pat_Tan3.obj
 0001:00032610       ?DC_Make_TangentsInOneDir_A_Patch@CPat_Tan3@@IAEHHHHHHHHHPANPAUWORLD@@1H@Z 10033610 f   Pat_Tan3.obj
 0001:000329b0       ?DC_MakeTangents@CPat_Tan3@@IAEHHHHHHPAVCDListMgr@@PANPAUWORLD@@22@Z 100339b0 f   Pat_Tan3.obj
 0001:00032e40       ?DC_Make_Tangents_A_Patch@CPat_Tan3@@IAEHHHHHHHHHPANPAUWORLD@@11@Z 10033e40 f   Pat_Tan3.obj
 0001:000332e0       ?Tangent_UV@CPat_Tan3@@IAEHPAUWORLD@@NNHHAAU2@@Z 100342e0 f   Pat_Tan3.obj
 0001:00033640       ?Tangent_00@CPat_Tan3@@IAEHPAUWORLD@@HHAAU2@@Z 10034640 f   Pat_Tan3.obj
 0001:00033760       ?SubDivide@CPat_Tan3@@IAEHPAUWORLD@@NN0HH@Z 10034760 f   Pat_Tan3.obj
 0001:00033b20       ?Pick_SubDivCons_U@CPat_Tan3@@IAEHPAUWORLD@@0HH@Z 10034b20 f   Pat_Tan3.obj
 0001:00033bc0       ?Pick_SubDivCons_V@CPat_Tan3@@IAEHPAUWORLD@@0HH@Z 10034bc0 f   Pat_Tan3.obj
 0001:00033c80       ?Pick_SubDivCons_W@CPat_Tan3@@IAEHPAUWORLD@@0HH@Z 10034c80 f   Pat_Tan3.obj
 0001:00033d40       ?Rat_Tangent_UV@CPat_Tan3@@IAEHPAUWORLD@@PANNNHHAAU2@@Z 10034d40 f   Pat_Tan3.obj
 0001:00033eb0       ?Rat_Tangent_00@CPat_Tan3@@IAEHPAUWORLD@@PANHHAAU2@@Z 10034eb0 f   Pat_Tan3.obj
 0001:00034010       ?Rat_SubDivide@CPat_Tan3@@IAEHPAUWORLD@@PANNN01HH@Z 10035010 f   Pat_Tan3.obj
 0001:00034560       ?Rat_Pick_SubDivCons_U@CPat_Tan3@@IAEHPAUWORLD@@0PAN1HH@Z 10035560 f   Pat_Tan3.obj
 0001:00034620       ?Rat_Pick_SubDivCons_V@CPat_Tan3@@IAEHPAUWORLD@@0PAN1HH@Z 10035620 f   Pat_Tan3.obj
 0001:00034700       ?Rat_Pick_SubDivCons_W@CPat_Tan3@@IAEHPAUWORLD@@0PAN1HH@Z 10035700 f   Pat_Tan3.obj
 0001:000347e0       ?MakeTangents@CPat_Tan3@@QAEHW4PATCHOUTPUT@@PAVCDListMgr@@HHHHHPAUWORLD@@PAN2H2HH@Z 100357e0 f   Pat_Tan3.obj
 0001:000348b0       ?MakeTangentsInOneDir@CPat_Tan3@@QAEHW4PATCHOUTPUT@@PAVCDListMgr@@HHHHHPAUWORLD@@PAN2HH@Z 100358b0 f   Pat_Tan3.obj
 0001:00034970       ?GetCount@?$CList@HH@@QBEHXZ 10035970 f i Pat_Tan3.obj
 0001:00034990       ?_GetBaseClass@CPat_Tan4@@KGPAUCRuntimeClass@@XZ 10035990 f   Pat_Tan4.obj
 0001:000349b0       ?GetRuntimeClass@CPat_Tan4@@UBEPAUCRuntimeClass@@XZ 100359b0 f   Pat_Tan4.obj
 0001:000349d0       ??0CPat_Tan4@@QAE@XZ       100359d0 f   Pat_Tan4.obj
 0001:00034a10       ?MakeTangents@CPat_Tan4@@QAEHHHHHHPAHPANHHHHH011PAUWORLD@@2@Z 10035a10 f   Pat_Tan4.obj
 0001:00034e60       ?Make_Tangents_A_Patch@CPat_Tan4@@QAEHPAY03PAUWORLD@@PAY03PANHHHHPANHHHH2PAU2@HHH@Z 10035e60 f   Pat_Tan4.obj
 0001:000359a0       ?GetaTangentAtaNode@CPat_Tan4@@QAEHUWORLD@@AAU2@AAHHHHHHHHHPANPAU2@N@Z 100369a0 f   Pat_Tan4.obj
 0001:00035ba0       ?GetTangentsAtaNode@CPat_Tan4@@QAEHUWORLD@@AAU2@1HHHHHHHHPANPAU2@N@Z 10036ba0 f   Pat_Tan4.obj
 0001:00035ee0       ?GetCurrentPatch_N_ControlIndices@CPat_Tan4@@IAEHUWORLD@@AAH111HHHHHHPANPAU2@N@Z 10036ee0 f   Pat_Tan4.obj
 0001:00036130       ?GetBezPatEdgeTangent_00@CPat_Tan4@@IAEHHAAUWORLD@@HHHHHHHHHHPANPAU2@@Z 10037130 f   Pat_Tan4.obj
 0001:000362f0       ?GetBezPatEdgeTangent_01@CPat_Tan4@@IAEHHAAUWORLD@@HHHHHHHHHHPANPAU2@@Z 100372f0 f   Pat_Tan4.obj
 0001:000364e0       ?GetBezPatEdgeTangent_10@CPat_Tan4@@IAEHHAAUWORLD@@HHHHHHHHHHPANPAU2@@Z 100374e0 f   Pat_Tan4.obj
 0001:000366e0       ?GetBezPatEdgeTangent_11@CPat_Tan4@@IAEHHAAUWORLD@@HHHHHHHHHHPANPAU2@@Z 100376e0 f   Pat_Tan4.obj
 0001:00036920       ?GetEdgeControls@CPat_Tan4@@IAEHQAY03UWORLD@@QAY03NHHHHHHHHPANPAU2@@Z 10037920 f   Pat_Tan4.obj
 0001:00036b90       ??1CPat_Twist4@@UAE@XZ     10037b90 f i Pat_Twist4.obj
 0001:00036bc0       ??_GCPat_Twist4@@UAEPAXI@Z 10037bc0 f i Pat_Twist4.obj
 0001:00036c00       ??_ECPat_Twist4@@UAEPAXI@Z 10037c00 f i Pat_Twist4.obj
 0001:00036c80       ?_GetBaseClass@CPat_Twist4@@KGPAUCRuntimeClass@@XZ 10037c80 f   Pat_Twist4.obj
 0001:00036ca0       ?GetRuntimeClass@CPat_Twist4@@UBEPAUCRuntimeClass@@XZ 10037ca0 f   Pat_Twist4.obj
 0001:00036cc0       ??0CPat_Twist4@@QAE@XZ     10037cc0 f   Pat_Twist4.obj
 0001:00036d00       ?MakeTwists@CPat_Twist4@@QAEHHHHHHPAHPANHHHHH01PAUWORLD@@2@Z 10037d00 f   Pat_Twist4.obj
 0001:000370c0       ?Make_Twists_A_Patch@CPat_Twist4@@QAEHPAY03PAUWORLD@@HHHHPANHHHH1PAU2@HHH@Z 100380c0 f   Pat_Twist4.obj
 0001:00037b50       ?GetaTwistAtaControlNode@CPat_Twist4@@QAEHUWORLD@@AAU2@HHHHHHHHPAU2@N@Z 10038b50 f   Pat_Twist4.obj
 0001:00037ce0       ?GetCurrentPatch_N_Controls@CPat_Twist4@@QAEHUWORLD@@AAH1HHHHHHPAU2@N2@Z 10038ce0 f   Pat_Twist4.obj
 0001:00037fd0       ?GetBezPatCornerTwist_00@CPat_Twist4@@QAEHAAUWORLD@@HHPAU2@@Z 10038fd0 f   Pat_Twist4.obj
 0001:00038040       ?GetBezPatCornerTwist_01@CPat_Twist4@@QAEHAAUWORLD@@HHPAU2@@Z 10039040 f   Pat_Twist4.obj
 0001:000380b0       ?GetBezPatCornerTwist_10@CPat_Twist4@@QAEHAAUWORLD@@HHPAU2@@Z 100390b0 f   Pat_Twist4.obj
 0001:00038120       ?GetBezPatCornerTwist_11@CPat_Twist4@@QAEHAAUWORLD@@HHPAU2@@Z 10039120 f   Pat_Twist4.obj
 0001:000381a0       ?CalcCornerTwist@CPat_Twist4@@IAEHAAUWORLD@@HHHHHHPAU2@@Z 100391a0 f   Pat_Twist4.obj
 0001:00038290       ?Pat_SubDivide_U@CPat_Twist4@@QAEHPAUWORLD@@N0HHH@Z 10039290 f   Pat_Twist4.obj
 0001:00038580       ?Pat_SubDivide_V@CPat_Twist4@@QAEHPAUWORLD@@N0HHH@Z 10039580 f   Pat_Twist4.obj
 0001:00038850       ?Pat_SubDivide_UV@CPat_Twist4@@QAEHPAUWORLD@@NN0HHHH@Z 10039850 f   Pat_Twist4.obj
 0001:000388d0       ?_GetBaseClass@CPentaHed@@KGPAUCRuntimeClass@@XZ 100398d0 f   Pentahed.obj
 0001:000388f0       ?GetRuntimeClass@CPentaHed@@UBEPAUCRuntimeClass@@XZ 100398f0 f   Pentahed.obj
 0001:00038910       ??0CPentaHed@@QAE@XZ       10039910 f   Pentahed.obj
 0001:00038980       ?GetLinearIndex@CPentaHed@@QAEHHHHH@Z 10039980 f   Pentahed.obj
 0001:000389a0       ?GetIJK@CPentaHed@@QAEXPAH00HH@Z 100399a0 f   Pentahed.obj
 0001:000389c0       ??1CRat_Twist4@@UAE@XZ     100399c0 f i Rat_Twist4.obj
 0001:000389f0       ??_GCRat_Twist4@@UAEPAXI@Z 100399f0 f i Rat_Twist4.obj
 0001:00038a30       ??_ECRat_Twist4@@UAEPAXI@Z 10039a30 f i Rat_Twist4.obj
 0001:00038ab0       ?_GetBaseClass@CRat_Twist4@@KGPAUCRuntimeClass@@XZ 10039ab0 f   Rat_Twist4.obj
 0001:00038ad0       ?GetRuntimeClass@CRat_Twist4@@UBEPAUCRuntimeClass@@XZ 10039ad0 f   Rat_Twist4.obj
 0001:00038af0       ??0CRat_Twist4@@QAE@XZ     10039af0 f   Rat_Twist4.obj
 0001:00038b20       ?MakeTwists@CRat_Twist4@@QAEHHHHHHPAHPANHHHHH011PAUWORLD@@2@Z 10039b20 f   Rat_Twist4.obj
 0001:00039030       ?Make_Twists_A_Patch@CRat_Twist4@@QAEHPAUWORLD@@PANHHHH1HHHH10HHH@Z 1003a030 f   Rat_Twist4.obj
 0001:00039640       ?GetaTwistAtaControlNode@CRat_Twist4@@QAEHUWORLD@@AAU2@HHHHHHHHPANPAU2@N@Z 1003a640 f   Rat_Twist4.obj
 0001:00039820       ?GetCurrentPatch_N_Controls@CRat_Twist4@@QAEHUWORLD@@AAH1HHHHHHPANPAU2@N32@Z 1003a820 f   Rat_Twist4.obj
 0001:00039b40       ?GetBezPatCornerTwist_00@CRat_Twist4@@QAEHAAUWORLD@@HHPAU2@PAN@Z 1003ab40 f   Rat_Twist4.obj
 0001:00039bb0       ?GetBezPatCornerTwist_01@CRat_Twist4@@QAEHAAUWORLD@@HHPAU2@PAN@Z 1003abb0 f   Rat_Twist4.obj
 0001:00039c20       ?GetBezPatCornerTwist_10@CRat_Twist4@@QAEHAAUWORLD@@HHPAU2@PAN@Z 1003ac20 f   Rat_Twist4.obj
 0001:00039c90       ?GetBezPatCornerTwist_11@CRat_Twist4@@QAEHAAUWORLD@@HHPAU2@PAN@Z 1003ac90 f   Rat_Twist4.obj
 0001:00039d10       ?CalcCornerTwist@CRat_Twist4@@IAEHAAUWORLD@@HHHHHHPAU2@PAN@Z 1003ad10 f   Rat_Twist4.obj
 0001:0003a030       ?Rat_SubDivide_U@CRat_Twist4@@QAEHPAUWORLD@@PANN01HHH@Z 1003b030 f   Rat_Twist4.obj
 0001:0003a410       ?Rat_SubDivide_V@CRat_Twist4@@QAEHPAUWORLD@@PANN01HHH@Z 1003b410 f   Rat_Twist4.obj
 0001:0003a7d0       ?Rat_SubDivide_UV@CRat_Twist4@@QAEHPAUWORLD@@PANNN01HHHH@Z 1003b7d0 f   Rat_Twist4.obj
 0001:0003a860       ?_GetBaseClass@CSolid4@@KGPAUCRuntimeClass@@XZ 1003b860 f   Solid4.obj
 0001:0003a880       ?GetRuntimeClass@CSolid4@@UBEPAUCRuntimeClass@@XZ 1003b880 f   Solid4.obj
 0001:0003a8a0       ??0CSolid4@@QAE@XZ         1003b8a0 f   Solid4.obj
 0001:0003a8e0       ??_ECSolid4@@UAEPAXI@Z     1003b8e0 f i Solid4.obj
 0001:0003a8e0       ??_GCSolid4@@UAEPAXI@Z     1003b8e0 f i Solid4.obj
 0001:0003a920       ??1CSolid4@@UAE@XZ         1003b920 f i Solid4.obj
 0001:0003a950       ?NumberOfSolides@CSolid4@@QAEHW4CURVEPROC@@HHHH0HHHH0HHHHPAH11111@Z 1003b950 f   Solid4.obj
 0001:0003ab90       ?HO_MakeSolides@CSolid4@@IAEHHHHHHHPAHPANHHHHHH01HHHHHH011PAUWORLD@@21@Z 1003bb90 f   Solid4.obj
 0001:0003b3a0       ?HO_Make_A_Solid@CSolid4@@IAEHPAY133PAUWORLD@@PAY133PANHHHHPANHHHH2HHHH2PAU2@2HHHHH@Z 1003c3a0 f   Solid4.obj
 0001:0003bca0       ?TensorProduct_3D@CSolid4@@QAEHW4SOLIDOUTPUT@@HHHHHPAHPANHHHHH12HHHHH12PAUWORLD@@232H@Z 1003cca0 f   Solid4.obj
 0001:0003bdc0       ?_GetBaseClass@CSolidHex@@KGPAUCRuntimeClass@@XZ 1003cdc0 f   SolidHex.obj
 0001:0003bde0       ?GetRuntimeClass@CSolidHex@@UBEPAUCRuntimeClass@@XZ 1003cde0 f   SolidHex.obj
 0001:0003be00       ??0CSolidHex@@QAE@XZ       1003ce00 f   SolidHex.obj
 0001:0003be40       ??_ECSolidHex@@UAEPAXI@Z   1003ce40 f i SolidHex.obj
 0001:0003be40       ??_GCSolidHex@@UAEPAXI@Z   1003ce40 f i SolidHex.obj
 0001:0003be80       ??1CSolidHex@@UAE@XZ       1003ce80 f i SolidHex.obj
 0001:0003beb0       ?NumberOfSolides@CSolidHex@@QAEHW4CURVEPROC@@HHHH0HHHH0HHHHPAH11111@Z 1003ceb0 f   SolidHex.obj
 0001:0003c0f0       ?HO_MakeSolides@CSolidHex@@IAEHHHHHHHPAHPANHHHHHH01HHHHHH011PAUWORLD@@21@Z 1003d0f0 f   SolidHex.obj
 0001:0003c900       ?HO_Make_A_Solid@CSolidHex@@IAEHPAY133PAUWORLD@@PAY133PANHHHHPANHHHH2HHHH2PAU2@2HHHHH@Z 1003d900 f   SolidHex.obj
 0001:0003d200       ?TensorProduct_3D@CSolidHex@@QAEHW4SOLIDOUTPUT@@HHHHHPAHPANHHHHH12HHHHH12PAUWORLD@@232H@Z 1003e200 f   SolidHex.obj
 0001:0003d320       ?_GetBaseClass@CSolidPen@@KGPAUCRuntimeClass@@XZ 1003e320 f   SolidPen.obj
 0001:0003d340       ?GetRuntimeClass@CSolidPen@@UBEPAUCRuntimeClass@@XZ 1003e340 f   SolidPen.obj
 0001:0003d360       ??0CSolidPen@@QAE@XZ       1003e360 f   SolidPen.obj
 0001:0003d390       ??_ECSolidPen@@UAEPAXI@Z   1003e390 f i SolidPen.obj
 0001:0003d390       ??_GCSolidPen@@UAEPAXI@Z   1003e390 f i SolidPen.obj
 0001:0003d3d0       ??1CSolidPen@@UAE@XZ       1003e3d0 f i SolidPen.obj
 0001:0003d400       ?NumberOfBezierPenta@CSolidPen@@QAEHW4CURVEPROC@@HHH0HHHHPAH1111@Z 1003e400 f   SolidPen.obj
 0001:0003d610       ?EX_MakeSolides@CSolidPen@@IAEHHHHHPANHHPAVCDListMgr@@0PAUWORLD@@20@Z 1003e610 f   SolidPen.obj
 0001:0003db90       ?EX_Make_A_Solid@CSolidPen@@IAEHHHHHHHHHPANHHHHHHHPAUWORLD@@010@Z 1003eb90 f   SolidPen.obj
 0001:0003e530       ?PentaHeds_3D@CSolidPen@@QAEHW4SOLIDOUTPUT@@HHHHPANHHPAVCDListMgr@@PAUWORLD@@131H@Z 1003f530 f   SolidPen.obj
 0001:0003e7c0       ?_GetBaseClass@CSurface3@@KGPAUCRuntimeClass@@XZ 1003f7c0 f   Surface3.obj
 0001:0003e7e0       ?GetRuntimeClass@CSurface3@@UBEPAUCRuntimeClass@@XZ 1003f7e0 f   Surface3.obj
 0001:0003e800       ??0CSurface3@@QAE@XZ       1003f800 f   Surface3.obj
 0001:0003e830       ?HO_GetAPointOnABezSegPatch@CSurface3@@QAEHHHHPAVCTriangle@@NNPAVCDListMgr@@PANPAUWORLD@@32@Z 1003f830 f   Surface3.obj
 0001:0003ec20       ?HO_GenerateAPointOnASingleBezPatch@CSurface3@@IAEHHHHNNPANPAUWORLD@@10@Z 1003fc20 f   Surface3.obj
 0001:0003ee80       ?EX_MakePatches@CSurface3@@IAEHHHHHHPAVCDListMgr@@PANPAUWORLD@@21@Z 1003fe80 f   Surface3.obj
 0001:0003f330       ?EX_Make_A_Patch@CSurface3@@IAEHHHHHHHHHPANPAUWORLD@@10@Z 10040330 f   Surface3.obj
 0001:0003f6e0       ?Linear@CSurface3@@IAEHPAUWORLD@@PANNN01@Z 100406e0 f   Surface3.obj
 0001:0003f830       ?Quadratic@CSurface3@@IAEHPAUWORLD@@PANNN01@Z 10040830 f   Surface3.obj
 0001:0003fa60       ?Cubic@CSurface3@@IAEHPAUWORLD@@PANNN01@Z 10040a60 f   Surface3.obj
 0001:0003fe00       ?Triangles_2D@CSurface3@@QAEHW4PATCHOUTPUT@@PAVCDListMgr@@HHHHHPAUWORLD@@PAN23H@Z 10040e00 f   Surface3.obj
 0001:0003fec0       ?_GetBaseClass@CSurface4@@KGPAUCRuntimeClass@@XZ 10040ec0 f   Surface4.obj
 0001:0003fee0       ?GetRuntimeClass@CSurface4@@UBEPAUCRuntimeClass@@XZ 10040ee0 f   Surface4.obj
 0001:0003ff00       ??0CSurface4@@QAE@XZ       10040f00 f   Surface4.obj
 0001:0003ff40       ?NumberOfPatches@CSurface4@@QAEHW4CURVEPROC@@HHH0HHHPAH1@Z 10040f40 f   Surface4.obj
 0001:000400c0       ?SetBasis@CSurface4@@IAEPAY03NW4CURVEPROC@@NN@Z 100410c0 f   Surface4.obj
 0001:00040520       ?ForwardDifference@CSurface4@@IAEPAY03NH@Z 10041520 f   Surface4.obj
 0001:00040690       ?ComputeEUM_G_XposeEVM@CSurface4@@IAEXPAY03UWORLD@@PAY03N10@Z 10041690 f   Surface4.obj
 0001:00040830       ?ComputeEUorV_x_M@CSurface4@@IAEXPAY03N00@Z 10041830 f   Surface4.obj
 0001:000408f0       ?GeneratePointsOnCubic@CSurface4@@IAEHPAY03UWORLD@@HHQAU2@HHHHH@Z 100418f0 f   Surface4.obj
 0001:00040c10       ?ComputeFDiff_x_Mcoeff@CSurface4@@QAEXW4CURVEPROC@@NNHHPAY03N1@Z 10041c10 f   Surface4.obj
 0001:00040d60       ?MakePatchesToFit@CSurface4@@IAEHW4CURVEPROC@@NNHHHHPAUWORLD@@1HHPAY03N2@Z 10041d60 f   Surface4.obj
 0001:00041650       ?SetBasis@CSurface4@@IAEXW4CURVEPROC@@PAY01NPAY02NPAY03NH@Z 10042650 f   Surface4.obj
 0001:00041670       ?HO_MakePatches@CSurface4@@IAEHHHHHHHPAHPANHHHHHH011PAUWORLD@@21@Z 10042670 f   Surface4.obj
 0001:00041ae0       ?HO_Make_A_Patch@CSurface4@@IAEHPAY03PAUWORLD@@PAY03PANHHHHPANHHHH2PAU2@2HHH@Z 10042ae0 f   Surface4.obj
 0001:00042620       ?HO_ComputeMG@CSurface4@@QAEXPAPAUWORLD@@PAPANPAY03N22HH@Z 10043620 f   Surface4.obj
 0001:00043060       ?HO_Make_A_CurvePt_V@CSurface4@@QAEHPAY03N00HHNPAUWORLD@@PAN@Z 10044060 f   Surface4.obj
 0001:00043120       ?HO_Make_A_Curve_U@CSurface4@@IAEHHHHHPANPAUWORLD@@010H@Z 10044120 f   Surface4.obj
 0001:00043290       ?TensorProduct_2D@CSurface4@@QAEHW4PATCHOUTPUT@@HHHHHPAHPANHHHHH12PAUWORLD@@232H@Z 10044290 f   Surface4.obj
 0001:00043370       ?HO_GetAPointOnABezSegPatch@CSurface4@@QAEHHHHHHHNHHHHHHNPANPAUWORLD@@10@Z 10044370 f   Surface4.obj
 0001:00043620       ?HO_GenerateAPointOnASingleBezPatch@CSurface4@@IAEHPAY03PAUWORLD@@PAY03PANHHNHHNPAU2@PAN@Z 10044620 f   Surface4.obj
 0001:00043b30       ?_GetBaseClass@CTriangle@@KGPAUCRuntimeClass@@XZ 10044b30 f   Triangle.obj
 0001:00043b50       ?GetRuntimeClass@CTriangle@@UBEPAUCRuntimeClass@@XZ 10044b50 f   Triangle.obj
 0001:00043b70       ??0CTriangle@@QAE@XZ       10044b70 f   Triangle.obj
 0001:00043be0       ?GetLinearIndex@CTriangle@@QAEHHHHH@Z 10044be0 f   Triangle.obj
 0001:00043c00       ?GetIJK@CTriangle@@QAEXPAH00HH@Z 10044c00 f   Triangle.obj
 0001:00043c7e       ?Serialize@C3DMath@@UAEXAAVCArchive@@@Z 10044c7e f   Dr3D_D32:Dr3D_D32.dll
 0001:00043c84       ?GetRuntimeClass@C3DMath@@UBEPAUCRuntimeClass@@XZ 10044c84 f   Dr3D_D32:Dr3D_D32.dll
 0001:00043c8a       ?Scale3DPts@C3DMath@@QAEXNPAUWORLD@@@Z 10044c8a f   Dr3D_D32:Dr3D_D32.dll
 0001:00043c90       ?Sub3DPts@C3DMath@@QAEXPAUWORLD@@00@Z 10044c90 f   Dr3D_D32:Dr3D_D32.dll
 0001:00043c96       ??0C3DMath@@QAE@XZ         10044c96 f   Dr3D_D32:Dr3D_D32.dll
 0001:00043c9c       ?Cross3DPts@C3DMath@@QAEXPAUWORLD@@00@Z 10044c9c f   Dr3D_D32:Dr3D_D32.dll
 0001:00043ca2       ?AreSame_WORLD@C3DMath@@QAEHPAUWORLD@@0N@Z 10044ca2 f   Dr3D_D32:Dr3D_D32.dll
 0001:00043ca8       ?BlockCopy@C3DMath@@QAEXPAD0K@Z 10044ca8 f   Dr3D_D32:Dr3D_D32.dll
 0001:00043cae       ?Project@CXForm@@UAEXPAUMATRIX@@PAUWORLD@@1@Z 10044cae f   Dr3D_D32:Dr3D_D32.dll
 0001:00043cb4       ?ComposeWin3DtoScreen3DMATRIX@CXForm@@UAEXPAUMATRIX@@UWORLD@@1@Z 10044cb4 f   Dr3D_D32:Dr3D_D32.dll
 0001:00043cba       ?TransformPerToParCVV@CXForm@@UAEXNPAUWORLD@@0@Z 10044cba f   Dr3D_D32:Dr3D_D32.dll
 0001:00043cc0       ?Transform@CXForm@@UAEXPAUWORLD@@0PAUMATRIX@@@Z 10044cc0 f   Dr3D_D32:Dr3D_D32.dll
 0001:00043cc6       ?ComposeCombineMATRIX@CXForm@@UAEXPAUMATRIX@@00@Z 10044cc6 f   Dr3D_D32:Dr3D_D32.dll
 0001:00043ccc       ?Per_SetVMMATRIX@CXForm@@UAENPAUMATRIX@@UWORLD@@1NNNN@Z 10044ccc f   Dr3D_D32:Dr3D_D32.dll
 0001:00043cd2       ?Par_SetVMMATRIX@CXForm@@UAEXPAUMATRIX@@UWORLD@@1NNNN@Z 10044cd2 f   Dr3D_D32:Dr3D_D32.dll
 0001:00043cd8       ?SetVOMATRIX@CXForm@@UAEXPAUMATRIX@@UWORLD@@11@Z 10044cd8 f   Dr3D_D32:Dr3D_D32.dll
 0001:00043cde       ?ALT_ComposeViewMATRIX@CXForm@@UAEHPAUMATRIX@@UWORLD@@1111NNNN@Z 10044cde f   Dr3D_D32:Dr3D_D32.dll
 0001:00043ce4       ?PerToParCVVMATRIX@CXForm@@UAEXPAUMATRIX@@N@Z 10044ce4 f   Dr3D_D32:Dr3D_D32.dll
 0001:00043cea       ?ComposeViewMATRIX@CXForm@@UAENPAUMATRIX@@UWORLD@@1111NNNN@Z 10044cea f   Dr3D_D32:Dr3D_D32.dll
 0001:00043cf0       ?ComposeLocalMATRIX@CXForm@@UAEXPAUMATRIX@@NNNNNNNNNNNN@Z 10044cf0 f   Dr3D_D32:Dr3D_D32.dll
 0001:00043cf6       ?VRCtoWORLDRotationMATRIX@CXForm@@UAEXPAUMATRIX@@PAUWORLD@@1@Z 10044cf6 f   Dr3D_D32:Dr3D_D32.dll
 0001:00043cfc       ?RotateToNewXMATRIX@CXForm@@UAEXPAUWORLD@@PAUMATRIX@@W4XFMODE@@@Z 10044cfc f   Dr3D_D32:Dr3D_D32.dll
 0001:00043d02       ?HeadToNewXLocMATRIX@CXForm@@UAEXPAUWORLD@@0PAUMATRIX@@W4XFMODE@@@Z 10044d02 f   Dr3D_D32:Dr3D_D32.dll
 0001:00043d08       ?RotateToNewYMATRIX@CXForm@@UAEXPAUWORLD@@PAUMATRIX@@W4XFMODE@@@Z 10044d08 f   Dr3D_D32:Dr3D_D32.dll
 0001:00043d0e       ?HeadToNewYLocMATRIX@CXForm@@UAEXPAUWORLD@@0PAUMATRIX@@W4XFMODE@@@Z 10044d0e f   Dr3D_D32:Dr3D_D32.dll
 0001:00043d14       ?RotateToNewZMATRIX@CXForm@@UAEXPAUWORLD@@PAUMATRIX@@W4XFMODE@@@Z 10044d14 f   Dr3D_D32:Dr3D_D32.dll
 0001:00043d1a       ?HeadToNewZLocMATRIX@CXForm@@UAEXPAUWORLD@@0PAUMATRIX@@W4XFMODE@@@Z 10044d1a f   Dr3D_D32:Dr3D_D32.dll
 0001:00043d20       ?RotateAboutLineMATRIX@CXForm@@UAEXPAUMATRIX@@PAUWORLD@@1NW4XFMODE@@@Z 10044d20 f   Dr3D_D32:Dr3D_D32.dll
 0001:00043d26       ?Translate@CXForm@@UAEXPAUMATRIX@@NNNW4XFMODE@@@Z 10044d26 f   Dr3D_D32:Dr3D_D32.dll
 0001:00043d2c       ?Rotate_Z@CXForm@@UAEXPAUMATRIX@@NW4XFMODE@@@Z 10044d2c f   Dr3D_D32:Dr3D_D32.dll
 0001:00043d32       ?Rotate_Y@CXForm@@UAEXPAUMATRIX@@NW4XFMODE@@@Z 10044d32 f   Dr3D_D32:Dr3D_D32.dll
 0001:00043d38       ?Rotate_X@CXForm@@UAEXPAUMATRIX@@NW4XFMODE@@@Z 10044d38 f   Dr3D_D32:Dr3D_D32.dll
 0001:00043d3e       ?Shear_Z@CXForm@@UAEXPAUMATRIX@@NNW4XFMODE@@@Z 10044d3e f   Dr3D_D32:Dr3D_D32.dll
 0001:00043d44       ?Shear_Y@CXForm@@UAEXPAUMATRIX@@NNW4XFMODE@@@Z 10044d44 f   Dr3D_D32:Dr3D_D32.dll
 0001:00043d4a       ?Shear_X@CXForm@@UAEXPAUMATRIX@@NNW4XFMODE@@@Z 10044d4a f   Dr3D_D32:Dr3D_D32.dll
 0001:00043d50       ?Scale@CXForm@@UAEXPAUMATRIX@@NNNW4XFMODE@@@Z 10044d50 f   Dr3D_D32:Dr3D_D32.dll
 0001:00043d56       ?Reflect@CXForm@@UAEXPAUMATRIX@@UWORLD@@N@Z 10044d56 f   Dr3D_D32:Dr3D_D32.dll
 0001:00043d5c       ?Serialize@CXForm@@UAEXAAVCArchive@@@Z 10044d5c f   Dr3D_D32:Dr3D_D32.dll
 0001:00043d62       ?GetRuntimeClass@CXForm@@UBEPAUCRuntimeClass@@XZ 10044d62 f   Dr3D_D32:Dr3D_D32.dll
 0001:00043d68       ??0CXForm@@QAE@XZ          10044d68 f   Dr3D_D32:Dr3D_D32.dll
 0001:00043d6e       ?MultMATRIX@C3DMath@@QAEXPAUMATRIX@@00@Z 10044d6e f   Dr3D_D32:Dr3D_D32.dll
 0001:00043d74       ?GetIdentityMATRIX@C3DMath@@QAEXPAUMATRIX@@@Z 10044d74 f   Dr3D_D32:Dr3D_D32.dll
 0001:00043d7a       ??1CDrClip@@UAE@XZ         10044d7a f   Dr3D_D32:Dr3D_D32.dll
 0001:00043d80       ??0CXForm@@QAE@H@Z         10044d80 f   Dr3D_D32:Dr3D_D32.dll
 0001:00043d86       ?ClipPt@CDrClip@@UAE?AW4VISIBILITY@@PAUWORLD@@@Z 10044d86 f   Dr3D_D32:Dr3D_D32.dll
 0001:00043d8c       ??0CDrClip@@QAE@NHH@Z      10044d8c f   Dr3D_D32:Dr3D_D32.dll
 0001:00043d92       ?GetRuntimeClass@CMatObj@@UBEPAUCRuntimeClass@@XZ 10044d92 f   Spec_D32:Spec_D32.dll
 0001:00043d98       ?classCDrObject@CDrObject@@2UCRuntimeClass@@A 10044d98 f   Spec_D32:Spec_D32.dll
 0001:00043d9e       ?SetScreen3DCorner@CDrObject@@UAEXPAUWORLD@@H@Z 10044d9e f   Spec_D32:Spec_D32.dll
 0001:00043da4       ?GetScreen3DCorner@CDrObject@@UAEXPAUWORLD@@H@Z 10044da4 f   Spec_D32:Spec_D32.dll
 0001:00043daa       ?SetEyeCorner@CDrObject@@UAEXPAUWORLD@@H@Z 10044daa f   Spec_D32:Spec_D32.dll
 0001:00043db0       ?GetEyeCorner@CDrObject@@UAEXPAUWORLD@@H@Z 10044db0 f   Spec_D32:Spec_D32.dll
 0001:00043db6       ?SetWorldCorner@CDrObject@@UAEXPAUWORLD@@H@Z 10044db6 f   Spec_D32:Spec_D32.dll
 0001:00043dbc       ?GetWorldCorner@CDrObject@@UAEXPAUWORLD@@H@Z 10044dbc f   Spec_D32:Spec_D32.dll
 0001:00043dc2       ?SetLocalCorner@CDrObject@@UAEXPAUWORLD@@H@Z 10044dc2 f   Spec_D32:Spec_D32.dll
 0001:00043dc8       ?GetLocalCorner@CDrObject@@UAEXPAUWORLD@@H@Z 10044dc8 f   Spec_D32:Spec_D32.dll
 0001:00043dce       ??1CDListMgr@@UAE@XZ       10044dce f   Spec_D32:Spec_D32.dll
 0001:00043dd4       ??1CDrObject@@UAE@XZ       10044dd4 f   Spec_D32:Spec_D32.dll
 0001:00043dda       ??0CDListMgr@@QAE@XZ       10044dda f   Spec_D32:Spec_D32.dll
 0001:00043de0       ??0CDrObject@@QAE@XZ       10044de0 f   Spec_D32:Spec_D32.dll
 0001:00043de6       ?RemoveObject@CDListMgr@@QAEHH@Z 10044de6 f   Spec_D32:Spec_D32.dll
 0001:00043dec       ?GetObjectIndex@CDListMgr@@QAEHPAVCObject@@@Z 10044dec f   Spec_D32:Spec_D32.dll
 0001:00043df2       ?SetObjectInfo@CDrObject@@QAEXPAV1@@Z 10044df2 f   Spec_D32:Spec_D32.dll
 0001:00043df8       ?GetObjectInfo@CDrObject@@QAEXPAV1@@Z 10044df8 f   Spec_D32:Spec_D32.dll
 0001:00043dfe       ?AddStr@CDrObject@@QAEXPAVCString@@0H@Z 10044dfe f   Spec_D32:Spec_D32.dll
 0001:00043e04       ?GetNextObject@CDListMgr@@QAEPAVCObject@@AAPAU__POSITION@@@Z 10044e04 f   Spec_D32:Spec_D32.dll
 0001:00043e0a       ?GetFirstObjectPos@CDListMgr@@QAEPAU__POSITION@@XZ 10044e0a f   Spec_D32:Spec_D32.dll
 0001:00043e10       ?GetLocalTransform@CDrObject@@QAEHPAUMATRIX@@@Z 10044e10 f   Spec_D32:Spec_D32.dll
 0001:00043e16       ?DrawLine3D@CDrObject@@QAEXPAVCDC@@PAUWORLD@@1H@Z 10044e16 f   Spec_D32:Spec_D32.dll
 0001:00043e1c       ?Serialize@CDrObject@@UAEXAAVCArchive@@@Z 10044e1c f   Spec_D32:Spec_D32.dll
 0001:00043e22       ?AddNum@CDrObject@@QAEXPAVCString@@JJJV2@@Z 10044e22 f   Spec_D32:Spec_D32.dll
 0001:00043e28       ?GetObjectA@CDListMgr@@QAEPAVCObject@@H@Z 10044e28 f   Spec_D32:Spec_D32.dll
 0001:00043e2e       ?Dump@CObject@@UBEXAAVCDumpContext@@@Z 10044e2e f   mfc42d:MFC42D.DLL
 0001:00043e34       ?AssertValid@CObject@@UBEXXZ 10044e34 f   mfc42d:MFC42D.DLL
 0001:00043e3a       ??1CObject@@UAE@XZ         10044e3a f   mfc42d:MFC42D.DLL
 0001:00043e40       ??3CObject@@SGXPAX@Z       10044e40 f   mfc42d:MFC42D.DLL
 0001:00043e46       ??3@YAXPAX@Z               10044e46 f   mfc42d:MFC42D.DLL
 0001:00043e4c       ?Serialize@CObject@@UAEXAAVCArchive@@@Z 10044e4c f   mfc42d:MFC42D.DLL
 0001:00043e52       ??0CObject@@IAE@XZ         10044e52 f   mfc42d:MFC42D.DLL
 0001:00043e58       ??2@YAPAXIPBDH@Z           10044e58 f   mfc42d:MFC42D.DLL
 0001:00043e5e       ?AfxMessageBox@@YGHPBDII@Z 10044e5e f   mfc42d:MFC42D.DLL
 0001:00043e64       ??3@YAXPAXPBDH@Z           10044e64 f   mfc42d:MFC42D.DLL
 0001:00043e6a       ??BCString@@QBEPBDXZ       10044e6a f   mfc42d:MFC42D.DLL
 0001:00043e70       ?GetBuffer@CString@@QAEPADH@Z 10044e70 f   mfc42d:MFC42D.DLL
 0001:00043e76       ??0CString@@QAE@XZ         10044e76 f   mfc42d:MFC42D.DLL
 0001:00043e7c       ??1CString@@QAE@XZ         10044e7c f   mfc42d:MFC42D.DLL
 0001:00043e82       ??0CString@@QAE@ABV0@@Z    10044e82 f   mfc42d:MFC42D.DLL
 0001:00043e88       ??4CString@@QAEABV0@ABV0@@Z 10044e88 f   mfc42d:MFC42D.DLL
 0001:00043e8e       ??2@YAPAXI@Z               10044e8e f   mfc42d:MFC42D.DLL
 0001:00043e94       ??2CObject@@SGPAXI@Z       10044e94 f   mfc42d:MFC42D.DLL
 0001:00043e9a       ?AfxClassInit@@YGXPAUCRuntimeClass@@@Z 10044e9a f   mfc42d:MFC42D.DLL
 0001:00043ea0       ?ReadObject@CArchive@@QAEPAVCObject@@PBUCRuntimeClass@@@Z 10044ea0 f   mfc42d:MFC42D.DLL
 0001:00043ea6       ?RemoveAll@CObList@@QAEXXZ 10044ea6 f   mfc42d:MFC42D.DLL
 0001:00043eac       ??4CString@@QAEABV0@PBD@Z  10044eac f   mfc42d:MFC42D.DLL
 0001:00043eb2       ?RemoveHead@CObList@@QAEPAVCObject@@XZ 10044eb2 f   mfc42d:MFC42D.DLL
 0001:00043eb8       ?IsEmpty@CObList@@QBEHXZ   10044eb8 f   mfc42d:MFC42D.DLL
 0001:00043ebe       ?AddTail@CObList@@QAEXPAV1@@Z 10044ebe f   mfc42d:MFC42D.DLL
 0001:00043ec4       ?TextOutA@CDC@@QAEHHHABVCString@@@Z 10044ec4 f   mfc42d:MFC42D.DLL
 0001:00043eca       ??0CString@@QAE@PBD@Z      10044eca f   mfc42d:MFC42D.DLL
 0001:00043ed0       ?GetTail@CObList@@QAEAAPAVCObject@@XZ 10044ed0 f   mfc42d:MFC42D.DLL
 0001:00043ed6       ?GetHead@CObList@@QAEAAPAVCObject@@XZ 10044ed6 f   mfc42d:MFC42D.DLL
 0001:00043edc       ?GetCount@CObList@@QBEHXZ  10044edc f   mfc42d:MFC42D.DLL
 0001:00043ee2       ?InflateRect@CRect@@QAEXUtagSIZE@@@Z 10044ee2 f   mfc42d:MFC42D.DLL
 0001:00043ee8       ??0CSize@@QAE@HH@Z         10044ee8 f   mfc42d:MFC42D.DLL
 0001:00043eee       ??0CRect@@QAE@HHHH@Z       10044eee f   mfc42d:MFC42D.DLL
 0001:00043ef4       ??1CPen@@UAE@XZ            10044ef4 f   mfc42d:MFC42D.DLL
 0001:00043efa       ?DeleteObject@CGdiObject@@QAEHXZ 10044efa f   mfc42d:MFC42D.DLL
 0001:00043f00       ?SelectObject@CDC@@QAEPAVCPen@@PAV2@@Z 10044f00 f   mfc42d:MFC42D.DLL
 0001:00043f06       ?CreatePen@CPen@@QAEHHHK@Z 10044f06 f   mfc42d:MFC42D.DLL
 0001:00043f0c       ??0CPen@@QAE@XZ            10044f0c f   mfc42d:MFC42D.DLL
 0001:00043f12       ?LineTo@CDC@@QAEHHH@Z      10044f12 f   mfc42d:MFC42D.DLL
 0001:00043f18       ?MoveTo@CDC@@QAE?AVCPoint@@HH@Z 10044f18 f   mfc42d:MFC42D.DLL
 0001:00043f1e       ??8@YG_NABVCString@@0@Z    10044f1e f   mfc42d:MFC42D.DLL
 0001:00043f24       ??1CRgn@@UAE@XZ            10044f24 f   mfc42d:MFC42D.DLL
 0001:00043f2a       ?PtInRegion@CRgn@@QBEHUtagPOINT@@@Z 10044f2a f   mfc42d:MFC42D.DLL
 0001:00043f30       ?CreatePolygonRgn@CRgn@@QAEHPAUtagPOINT@@HH@Z 10044f30 f   mfc42d:MFC42D.DLL
 0001:00043f36       ??0CRgn@@QAE@XZ            10044f36 f   mfc42d:MFC42D.DLL
 0001:00043f3c       ??5@YGAAVCArchive@@AAV0@AAUtagPOINT@@@Z 10044f3c f   mfc42d:MFC42D.DLL
 0001:00043f42       ??5CArchive@@QAEAAV0@AAK@Z 10044f42 f   mfc42d:MFC42D.DLL
 0001:00043f48       ??5@YGAAVCArchive@@AAV0@AAUtagRECT@@@Z 10044f48 f   mfc42d:MFC42D.DLL
 0001:00043f4e       ??5CArchive@@QAEAAV0@AAG@Z 10044f4e f   mfc42d:MFC42D.DLL
 0001:00043f54       ??6@YGAAVCArchive@@AAV0@UtagPOINT@@@Z 10044f54 f   mfc42d:MFC42D.DLL
 0001:00043f5a       ??6CArchive@@QAEAAV0@K@Z   10044f5a f   mfc42d:MFC42D.DLL
 0001:00043f60       ??6@YGAAVCArchive@@AAV0@ABUtagRECT@@@Z 10044f60 f   mfc42d:MFC42D.DLL
 0001:00043f66       ??6CArchive@@QAEAAV0@G@Z   10044f66 f   mfc42d:MFC42D.DLL
 0001:00043f6c       ?AfxTrace@@YAXPBDZZ        10044f6c f   mfc42d:MFC42D.DLL
 0001:00043f72       ?IsStoring@CArchive@@QBEHXZ 10044f72 f   mfc42d:MFC42D.DLL
 0001:00043f78       ?GetRuntimeClass@CObject@@UBEPAUCRuntimeClass@@XZ 10044f78 f   mfc42d:MFC42D.DLL
 0001:00043f7e       ?AfxAssertFailedLine@@YGHPBDH@Z 10044f7e f   mfc42d:MFC42D.DLL
 0001:00043f84       ?AfxIsValidAddress@@YGHPBXIH@Z 10044f84 f   mfc42d:MFC42D.DLL
 0001:00043f8a       ?AfxAssertValidObject@@YGXPBVCObject@@PBDH@Z 10044f8a f   mfc42d:MFC42D.DLL
 0001:00043f90       ?FreeDataChain@CPlex@@QAEXXZ 10044f90 f   mfc42d:MFC42D.DLL
 0001:00043f96       ?ReadCount@CArchive@@QAEKXZ 10044f96 f   mfc42d:MFC42D.DLL
 0001:00043f9c       ?WriteCount@CArchive@@QAEXK@Z 10044f9c f   mfc42d:MFC42D.DLL
 0001:00043fa2       ?GetDepth@CDumpContext@@QBEHXZ 10044fa2 f   mfc42d:MFC42D.DLL
 0001:00043fa8       ??6CDumpContext@@QAEAAV0@H@Z 10044fa8 f   mfc42d:MFC42D.DLL
 0001:00043fae       ??6CDumpContext@@QAEAAV0@PBD@Z 10044fae f   mfc42d:MFC42D.DLL
 0001:00043fb4       ?Read@CArchive@@QAEIPAXI@Z 10044fb4 f   mfc42d:MFC42D.DLL
 0001:00043fba       ?Write@CArchive@@QAEXPBXI@Z 10044fba f   mfc42d:MFC42D.DLL
 0001:00043fc0       ?Create@CPlex@@SGPAU1@AAPAU1@II@Z 10044fc0 f   mfc42d:MFC42D.DLL
 0001:00043fc6       ?SelectObject@CDC@@QAEPAVCBrush@@PAV2@@Z 10044fc6 f   mfc42d:MFC42D.DLL
 0001:00043fcc       ?Ellipse@CDC@@QAEHPBUtagRECT@@@Z 10044fcc f   mfc42d:MFC42D.DLL
 0001:00043fd2       ??0CRect@@QAE@XZ           10044fd2 f   mfc42d:MFC42D.DLL
 0001:00043fd8       ??5CArchive@@QAEAAV0@AAN@Z 10044fd8 f   mfc42d:MFC42D.DLL
 0001:00043fde       ??5CArchive@@QAEAAV0@AAE@Z 10044fde f   mfc42d:MFC42D.DLL
 0001:00043fe4       ??5CArchive@@QAEAAV0@AAJ@Z 10044fe4 f   mfc42d:MFC42D.DLL
 0001:00043fea       ??5@YGAAVCArchive@@AAV0@AAVCString@@@Z 10044fea f   mfc42d:MFC42D.DLL
 0001:00043ff0       ??6CArchive@@QAEAAV0@N@Z   10044ff0 f   mfc42d:MFC42D.DLL
 0001:00043ff6       ??6CArchive@@QAEAAV0@E@Z   10044ff6 f   mfc42d:MFC42D.DLL
 0001:00043ffc       ??6CArchive@@QAEAAV0@J@Z   10044ffc f   mfc42d:MFC42D.DLL
 0001:00044002       ??6@YGAAVCArchive@@AAV0@ABVCString@@@Z 10045002 f   mfc42d:MFC42D.DLL
 0001:00044008       ?PtInRect@CRect@@QBEHUtagPOINT@@@Z 10045008 f   mfc42d:MFC42D.DLL
 0001:0004400e       ?NormalizeRect@CRect@@QAEXXZ 1004500e f   mfc42d:MFC42D.DLL
 0001:00044014       ?SetRectEmpty@CRect@@QAEXXZ 10045014 f   mfc42d:MFC42D.DLL
 0001:0004401a       ?UnionRect@CRect@@QAEHPBUtagRECT@@0@Z 1004501a f   mfc42d:MFC42D.DLL
 0001:00044020       ??0CSize@@QAE@XZ           10045020 f   mfc42d:MFC42D.DLL
 0001:00044026       ??3CObject@@SGXPAXPBDH@Z   10045026 f   mfc42d:MFC42D.DLL
 0001:0004402c       ??2CObject@@SGPAXIPBDH@Z   1004502c f   mfc42d:MFC42D.DLL
 0001:00044032       ?AfxGetModuleState@@YGPAVAFX_MODULE_STATE@@XZ 10045032 f   mfc42d:MFC42D.DLL
 0001:00044038       ??0CDynLinkLibrary@@QAE@AAUAFX_EXTENSION_MODULE@@H@Z 10045038 f   mfc42d:MFC42D.DLL
 0001:0004403e       ?AfxInitExtensionModule@@YGHAAUAFX_EXTENSION_MODULE@@PAUHINSTANCE__@@@Z 1004503e f   mfc42d:MFC42D.DLL
 0001:00044050       _sqrt                      10045050 f   msvcrtd:MSVCRTD.dll
 0001:00044060       ??_M@YGXPAXIHP6EX0@Z@Z     10045060 f   msvcrtd:ehvecdtr.obj
 0001:00044110       ?__ArrayUnwind@@YGXPAXIHP6EX0@Z@Z 10045110 f   msvcrtd:ehvecdtr.obj
 0001:000441bc       ___CxxFrameHandler         100451bc f   msvcrtd:MSVCRTD.dll
 0001:000441c2       _sprintf                   100451c2 f   msvcrtd:MSVCRTD.dll
 0001:000441d0       __onexit                   100451d0 f   msvcrtd:atonexit.obj
 0001:00044210       _atexit                    10045210 f   msvcrtd:atonexit.obj
 0001:00044228       __ftol                     10045228 f   msvcrtd:MSVCRTD.dll
 0001:0004422e       _memset                    1004522e f   msvcrtd:MSVCRTD.dll
 0001:00044234       _pow                       10045234 f   msvcrtd:MSVCRTD.dll
 0001:00044240       ??_L@YGXPAXIHP6EX0@Z1@Z    10045240 f   msvcrtd:ehvecctr.obj
 0001:000442e0       __CRT_INIT@12              100452e0 f   msvcrtd:crtdll.obj
 0001:000443f0       __DllMainCRTStartup@12     100453f0 f   msvcrtd:crtdll.obj
 0001:000444e4       __except_handler3          100454e4 f   msvcrtd:MSVCRTD.dll
 0001:000444ea       ?terminate@@YAXXZ          100454ea f   msvcrtd:MSVCRTD.dll
 0001:000444f0       ___dllonexit               100454f0 f   msvcrtd:MSVCRTD.dll
 0001:000444f6       __free_dbg                 100454f6 f   msvcrtd:MSVCRTD.dll
 0001:000444fc       __initterm                 100454fc f   msvcrtd:MSVCRTD.dll
 0001:00044502       __malloc_dbg               10045502 f   msvcrtd:MSVCRTD.dll
 0001:00044510       ?data@CPlex@@QAEPAXXZ      10045510 f i Drcurve.obj
 0002:00000000       __imp_?Serialize@C3DMath@@UAEXAAVCArchive@@@Z 10048000     Dr3D_D32:Dr3D_D32.dll
 0002:00000004       __imp_?GetRuntimeClass@C3DMath@@UBEPAUCRuntimeClass@@XZ 10048004     Dr3D_D32:Dr3D_D32.dll
 0002:00000008       __imp_?Scale3DPts@C3DMath@@QAEXNPAUWORLD@@@Z 10048008     Dr3D_D32:Dr3D_D32.dll
 0002:0000000c       __imp_?Sub3DPts@C3DMath@@QAEXPAUWORLD@@00@Z 1004800c     Dr3D_D32:Dr3D_D32.dll
 0002:00000010       __imp_??0C3DMath@@QAE@XZ   10048010     Dr3D_D32:Dr3D_D32.dll
 0002:00000014       __imp_?Cross3DPts@C3DMath@@QAEXPAUWORLD@@00@Z 10048014     Dr3D_D32:Dr3D_D32.dll
 0002:00000018       __imp_?AreSame_WORLD@C3DMath@@QAEHPAUWORLD@@0N@Z 10048018     Dr3D_D32:Dr3D_D32.dll
 0002:0000001c       __imp_?BlockCopy@C3DMath@@QAEXPAD0K@Z 1004801c     Dr3D_D32:Dr3D_D32.dll
 0002:00000020       __imp_?Project@CXForm@@UAEXPAUMATRIX@@PAUWORLD@@1@Z 10048020     Dr3D_D32:Dr3D_D32.dll
 0002:00000024       __imp_?ComposeWin3DtoScreen3DMATRIX@CXForm@@UAEXPAUMATRIX@@UWORLD@@1@Z 10048024     Dr3D_D32:Dr3D_D32.dll
 0002:00000028       __imp_?TransformPerToParCVV@CXForm@@UAEXNPAUWORLD@@0@Z 10048028     Dr3D_D32:Dr3D_D32.dll
 0002:0000002c       __imp_?Transform@CXForm@@UAEXPAUWORLD@@0PAUMATRIX@@@Z 1004802c     Dr3D_D32:Dr3D_D32.dll
 0002:00000030       __imp_?ComposeCombineMATRIX@CXForm@@UAEXPAUMATRIX@@00@Z 10048030     Dr3D_D32:Dr3D_D32.dll
 0002:00000034       __imp_?Per_SetVMMATRIX@CXForm@@UAENPAUMATRIX@@UWORLD@@1NNNN@Z 10048034     Dr3D_D32:Dr3D_D32.dll
 0002:00000038       __imp_?Par_SetVMMATRIX@CXForm@@UAEXPAUMATRIX@@UWORLD@@1NNNN@Z 10048038     Dr3D_D32:Dr3D_D32.dll
 0002:0000003c       __imp_?SetVOMATRIX@CXForm@@UAEXPAUMATRIX@@UWORLD@@11@Z 1004803c     Dr3D_D32:Dr3D_D32.dll
 0002:00000040       __imp_?ALT_ComposeViewMATRIX@CXForm@@UAEHPAUMATRIX@@UWORLD@@1111NNNN@Z 10048040     Dr3D_D32:Dr3D_D32.dll
 0002:00000044       __imp_?PerToParCVVMATRIX@CXForm@@UAEXPAUMATRIX@@N@Z 10048044     Dr3D_D32:Dr3D_D32.dll
 0002:00000048       __imp_?ComposeViewMATRIX@CXForm@@UAENPAUMATRIX@@UWORLD@@1111NNNN@Z 10048048     Dr3D_D32:Dr3D_D32.dll
 0002:0000004c       __imp_?ComposeLocalMATRIX@CXForm@@UAEXPAUMATRIX@@NNNNNNNNNNNN@Z 1004804c     Dr3D_D32:Dr3D_D32.dll
 0002:00000050       __imp_?VRCtoWORLDRotationMATRIX@CXForm@@UAEXPAUMATRIX@@PAUWORLD@@1@Z 10048050     Dr3D_D32:Dr3D_D32.dll
 0002:00000054       __imp_?RotateToNewXMATRIX@CXForm@@UAEXPAUWORLD@@PAUMATRIX@@W4XFMODE@@@Z 10048054     Dr3D_D32:Dr3D_D32.dll
 0002:00000058       __imp_?HeadToNewXLocMATRIX@CXForm@@UAEXPAUWORLD@@0PAUMATRIX@@W4XFMODE@@@Z 10048058     Dr3D_D32:Dr3D_D32.dll
 0002:0000005c       __imp_?RotateToNewYMATRIX@CXForm@@UAEXPAUWORLD@@PAUMATRIX@@W4XFMODE@@@Z 1004805c     Dr3D_D32:Dr3D_D32.dll
 0002:00000060       __imp_?HeadToNewYLocMATRIX@CXForm@@UAEXPAUWORLD@@0PAUMATRIX@@W4XFMODE@@@Z 10048060     Dr3D_D32:Dr3D_D32.dll
 0002:00000064       __imp_?RotateToNewZMATRIX@CXForm@@UAEXPAUWORLD@@PAUMATRIX@@W4XFMODE@@@Z 10048064     Dr3D_D32:Dr3D_D32.dll
 0002:00000068       __imp_?HeadToNewZLocMATRIX@CXForm@@UAEXPAUWORLD@@0PAUMATRIX@@W4XFMODE@@@Z 10048068     Dr3D_D32:Dr3D_D32.dll
 0002:0000006c       __imp_?RotateAboutLineMATRIX@CXForm@@UAEXPAUMATRIX@@PAUWORLD@@1NW4XFMODE@@@Z 1004806c     Dr3D_D32:Dr3D_D32.dll
 0002:00000070       __imp_?Translate@CXForm@@UAEXPAUMATRIX@@NNNW4XFMODE@@@Z 10048070     Dr3D_D32:Dr3D_D32.dll
 0002:00000074       __imp_?Rotate_Z@CXForm@@UAEXPAUMATRIX@@NW4XFMODE@@@Z 10048074     Dr3D_D32:Dr3D_D32.dll
 0002:00000078       __imp_?Rotate_Y@CXForm@@UAEXPAUMATRIX@@NW4XFMODE@@@Z 10048078     Dr3D_D32:Dr3D_D32.dll
 0002:0000007c       __imp_?Rotate_X@CXForm@@UAEXPAUMATRIX@@NW4XFMODE@@@Z 1004807c     Dr3D_D32:Dr3D_D32.dll
 0002:00000080       __imp_?Shear_Z@CXForm@@UAEXPAUMATRIX@@NNW4XFMODE@@@Z 10048080     Dr3D_D32:Dr3D_D32.dll
 0002:00000084       __imp_?Shear_Y@CXForm@@UAEXPAUMATRIX@@NNW4XFMODE@@@Z 10048084     Dr3D_D32:Dr3D_D32.dll
 0002:00000088       __imp_?Shear_X@CXForm@@UAEXPAUMATRIX@@NNW4XFMODE@@@Z 10048088     Dr3D_D32:Dr3D_D32.dll
 0002:0000008c       __imp_?Scale@CXForm@@UAEXPAUMATRIX@@NNNW4XFMODE@@@Z 1004808c     Dr3D_D32:Dr3D_D32.dll
 0002:00000090       __imp_?Reflect@CXForm@@UAEXPAUMATRIX@@UWORLD@@N@Z 10048090     Dr3D_D32:Dr3D_D32.dll
 0002:00000094       __imp_?Serialize@CXForm@@UAEXAAVCArchive@@@Z 10048094     Dr3D_D32:Dr3D_D32.dll
 0002:00000098       __imp_?GetRuntimeClass@CXForm@@UBEPAUCRuntimeClass@@XZ 10048098     Dr3D_D32:Dr3D_D32.dll
 0002:0000009c       __imp_??0CXForm@@QAE@XZ    1004809c     Dr3D_D32:Dr3D_D32.dll
 0002:000000a0       __imp_?MultMATRIX@C3DMath@@QAEXPAUMATRIX@@00@Z 100480a0     Dr3D_D32:Dr3D_D32.dll
 0002:000000a4       __imp_?GetIdentityMATRIX@C3DMath@@QAEXPAUMATRIX@@@Z 100480a4     Dr3D_D32:Dr3D_D32.dll
 0002:000000a8       __imp_??1CDrClip@@UAE@XZ   100480a8     Dr3D_D32:Dr3D_D32.dll
 0002:000000ac       __imp_??0CXForm@@QAE@H@Z   100480ac     Dr3D_D32:Dr3D_D32.dll
 0002:000000b0       __imp_?ClipPt@CDrClip@@UAE?AW4VISIBILITY@@PAUWORLD@@@Z 100480b0     Dr3D_D32:Dr3D_D32.dll
 0002:000000b4       __imp_??0CDrClip@@QAE@NHH@Z 100480b4     Dr3D_D32:Dr3D_D32.dll
 0002:000000b8       \177Dr3D_D32_NULL_THUNK_DATA 100480b8     Dr3D_D32:Dr3D_D32.dll
 0002:000000bc       __imp_?AfxInitExtensionModule@@YGHAAUAFX_EXTENSION_MODULE@@PAUHINSTANCE__@@@Z 100480bc     mfc42d:MFC42D.DLL
 0002:000000c0       __imp_??0CDynLinkLibrary@@QAE@AAUAFX_EXTENSION_MODULE@@H@Z 100480c0     mfc42d:MFC42D.DLL
 0002:000000c4       __imp_?AfxGetModuleState@@YGPAVAFX_MODULE_STATE@@XZ 100480c4     mfc42d:MFC42D.DLL
 0002:000000c8       __imp_??2CObject@@SGPAXIPBDH@Z 100480c8     mfc42d:MFC42D.DLL
 0002:000000cc       __imp_??3CObject@@SGXPAXPBDH@Z 100480cc     mfc42d:MFC42D.DLL
 0002:000000d0       __imp_??0CSize@@QAE@XZ     100480d0     mfc42d:MFC42D.DLL
 0002:000000d4       __imp_?UnionRect@CRect@@QAEHPBUtagRECT@@0@Z 100480d4     mfc42d:MFC42D.DLL
 0002:000000d8       __imp_?SetRectEmpty@CRect@@QAEXXZ 100480d8     mfc42d:MFC42D.DLL
 0002:000000dc       __imp_?NormalizeRect@CRect@@QAEXXZ 100480dc     mfc42d:MFC42D.DLL
 0002:000000e0       __imp_?PtInRect@CRect@@QBEHUtagPOINT@@@Z 100480e0     mfc42d:MFC42D.DLL
 0002:000000e4       __imp_??6@YGAAVCArchive@@AAV0@ABVCString@@@Z 100480e4     mfc42d:MFC42D.DLL
 0002:000000e8       __imp_??6CArchive@@QAEAAV0@J@Z 100480e8     mfc42d:MFC42D.DLL
 0002:000000ec       __imp_??6CArchive@@QAEAAV0@E@Z 100480ec     mfc42d:MFC42D.DLL
 0002:000000f0       __imp_??6CArchive@@QAEAAV0@N@Z 100480f0     mfc42d:MFC42D.DLL
 0002:000000f4       __imp_??5@YGAAVCArchive@@AAV0@AAVCString@@@Z 100480f4     mfc42d:MFC42D.DLL
 0002:000000f8       __imp_??5CArchive@@QAEAAV0@AAJ@Z 100480f8     mfc42d:MFC42D.DLL
 0002:000000fc       __imp_??5CArchive@@QAEAAV0@AAE@Z 100480fc     mfc42d:MFC42D.DLL
 0002:00000100       __imp_??5CArchive@@QAEAAV0@AAN@Z 10048100     mfc42d:MFC42D.DLL
 0002:00000104       __imp_??0CRect@@QAE@XZ     10048104     mfc42d:MFC42D.DLL
 0002:00000108       __imp_?Ellipse@CDC@@QAEHPBUtagRECT@@@Z 10048108     mfc42d:MFC42D.DLL
 0002:0000010c       __imp_?SelectObject@CDC@@QAEPAVCBrush@@PAV2@@Z 1004810c     mfc42d:MFC42D.DLL
 0002:00000110       __imp_?Create@CPlex@@SGPAU1@AAPAU1@II@Z 10048110     mfc42d:MFC42D.DLL
 0002:00000114       __imp_?Write@CArchive@@QAEXPBXI@Z 10048114     mfc42d:MFC42D.DLL
 0002:00000118       __imp_?Read@CArchive@@QAEIPAXI@Z 10048118     mfc42d:MFC42D.DLL
 0002:0000011c       __imp_??6CDumpContext@@QAEAAV0@PBD@Z 1004811c     mfc42d:MFC42D.DLL
 0002:00000120       __imp_??6CDumpContext@@QAEAAV0@H@Z 10048120     mfc42d:MFC42D.DLL
 0002:00000124       __imp_?Dump@CObject@@UBEXAAVCDumpContext@@@Z 10048124     mfc42d:MFC42D.DLL
 0002:00000128       __imp_?AssertValid@CObject@@UBEXXZ 10048128     mfc42d:MFC42D.DLL
 0002:0000012c       __imp_??1CObject@@UAE@XZ   1004812c     mfc42d:MFC42D.DLL
 0002:00000130       __imp_??3CObject@@SGXPAX@Z 10048130     mfc42d:MFC42D.DLL
 0002:00000134       __imp_??3@YAXPAX@Z         10048134     mfc42d:MFC42D.DLL
 0002:00000138       __imp_?Serialize@CObject@@UAEXAAVCArchive@@@Z 10048138     mfc42d:MFC42D.DLL
 0002:0000013c       __imp_?classCObject@CObject@@2UCRuntimeClass@@B 1004813c     mfc42d:MFC42D.DLL
 0002:00000140       __imp_??0CObject@@IAE@XZ   10048140     mfc42d:MFC42D.DLL
 0002:00000144       __imp_??2@YAPAXIPBDH@Z     10048144     mfc42d:MFC42D.DLL
 0002:00000148       __imp_?AfxMessageBox@@YGHPBDII@Z 10048148     mfc42d:MFC42D.DLL
 0002:0000014c       __imp_??3@YAXPAXPBDH@Z     1004814c     mfc42d:MFC42D.DLL
 0002:00000150       __imp_??BCString@@QBEPBDXZ 10048150     mfc42d:MFC42D.DLL
 0002:00000154       __imp_?GetBuffer@CString@@QAEPADH@Z 10048154     mfc42d:MFC42D.DLL
 0002:00000158       __imp_??0CString@@QAE@XZ   10048158     mfc42d:MFC42D.DLL
 0002:0000015c       __imp_??1CString@@QAE@XZ   1004815c     mfc42d:MFC42D.DLL
 0002:00000160       __imp_??0CString@@QAE@ABV0@@Z 10048160     mfc42d:MFC42D.DLL
 0002:00000164       __imp_??4CString@@QAEABV0@ABV0@@Z 10048164     mfc42d:MFC42D.DLL
 0002:00000168       __imp_??2@YAPAXI@Z         10048168     mfc42d:MFC42D.DLL
 0002:0000016c       __imp_??2CObject@@SGPAXI@Z 1004816c     mfc42d:MFC42D.DLL
 0002:00000170       __imp_?AfxClassInit@@YGXPAUCRuntimeClass@@@Z 10048170     mfc42d:MFC42D.DLL
 0002:00000174       __imp_?ReadObject@CArchive@@QAEPAVCObject@@PBUCRuntimeClass@@@Z 10048174     mfc42d:MFC42D.DLL
 0002:00000178       __imp_?RemoveAll@CObList@@QAEXXZ 10048178     mfc42d:MFC42D.DLL
 0002:0000017c       __imp_??4CString@@QAEABV0@PBD@Z 1004817c     mfc42d:MFC42D.DLL
 0002:00000180       __imp_?RemoveHead@CObList@@QAEPAVCObject@@XZ 10048180     mfc42d:MFC42D.DLL
 0002:00000184       __imp_?IsEmpty@CObList@@QBEHXZ 10048184     mfc42d:MFC42D.DLL
 0002:00000188       __imp_?AddTail@CObList@@QAEXPAV1@@Z 10048188     mfc42d:MFC42D.DLL
 0002:0000018c       __imp_?TextOutA@CDC@@QAEHHHABVCString@@@Z 1004818c     mfc42d:MFC42D.DLL
 0002:00000190       __imp_??0CString@@QAE@PBD@Z 10048190     mfc42d:MFC42D.DLL
 0002:00000194       __imp_?GetTail@CObList@@QAEAAPAVCObject@@XZ 10048194     mfc42d:MFC42D.DLL
 0002:00000198       __imp_?GetHead@CObList@@QAEAAPAVCObject@@XZ 10048198     mfc42d:MFC42D.DLL
 0002:0000019c       __imp_?GetCount@CObList@@QBEHXZ 1004819c     mfc42d:MFC42D.DLL
 0002:000001a0       __imp_?InflateRect@CRect@@QAEXUtagSIZE@@@Z 100481a0     mfc42d:MFC42D.DLL
 0002:000001a4       __imp_??0CSize@@QAE@HH@Z   100481a4     mfc42d:MFC42D.DLL
 0002:000001a8       __imp_??0CRect@@QAE@HHHH@Z 100481a8     mfc42d:MFC42D.DLL
 0002:000001ac       __imp_??1CPen@@UAE@XZ      100481ac     mfc42d:MFC42D.DLL
 0002:000001b0       __imp_?DeleteObject@CGdiObject@@QAEHXZ 100481b0     mfc42d:MFC42D.DLL
 0002:000001b4       __imp_?SelectObject@CDC@@QAEPAVCPen@@PAV2@@Z 100481b4     mfc42d:MFC42D.DLL
 0002:000001b8       __imp_?CreatePen@CPen@@QAEHHHK@Z 100481b8     mfc42d:MFC42D.DLL
 0002:000001bc       __imp_??0CPen@@QAE@XZ      100481bc     mfc42d:MFC42D.DLL
 0002:000001c0       __imp_?LineTo@CDC@@QAEHHH@Z 100481c0     mfc42d:MFC42D.DLL
 0002:000001c4       __imp_?MoveTo@CDC@@QAE?AVCPoint@@HH@Z 100481c4     mfc42d:MFC42D.DLL
 0002:000001c8       __imp_??8@YG_NABVCString@@0@Z 100481c8     mfc42d:MFC42D.DLL
 0002:000001cc       __imp_??1CRgn@@UAE@XZ      100481cc     mfc42d:MFC42D.DLL
 0002:000001d0       __imp_?PtInRegion@CRgn@@QBEHUtagPOINT@@@Z 100481d0     mfc42d:MFC42D.DLL
 0002:000001d4       __imp_?CreatePolygonRgn@CRgn@@QAEHPAUtagPOINT@@HH@Z 100481d4     mfc42d:MFC42D.DLL
 0002:000001d8       __imp_??0CRgn@@QAE@XZ      100481d8     mfc42d:MFC42D.DLL
 0002:000001dc       __imp_??5@YGAAVCArchive@@AAV0@AAUtagPOINT@@@Z 100481dc     mfc42d:MFC42D.DLL
 0002:000001e0       __imp_??5CArchive@@QAEAAV0@AAK@Z 100481e0     mfc42d:MFC42D.DLL
 0002:000001e4       __imp_??5@YGAAVCArchive@@AAV0@AAUtagRECT@@@Z 100481e4     mfc42d:MFC42D.DLL
 0002:000001e8       __imp_??5CArchive@@QAEAAV0@AAG@Z 100481e8     mfc42d:MFC42D.DLL
 0002:000001ec       __imp_??6@YGAAVCArchive@@AAV0@UtagPOINT@@@Z 100481ec     mfc42d:MFC42D.DLL
 0002:000001f0       __imp_??6CArchive@@QAEAAV0@K@Z 100481f0     mfc42d:MFC42D.DLL
 0002:000001f4       __imp_??6@YGAAVCArchive@@AAV0@ABUtagRECT@@@Z 100481f4     mfc42d:MFC42D.DLL
 0002:000001f8       __imp_??6CArchive@@QAEAAV0@G@Z 100481f8     mfc42d:MFC42D.DLL
 0002:000001fc       __imp_?AfxTrace@@YAXPBDZZ  100481fc     mfc42d:MFC42D.DLL
 0002:00000200       __imp_?IsStoring@CArchive@@QBEHXZ 10048200     mfc42d:MFC42D.DLL
 0002:00000204       __imp_?GetRuntimeClass@CObject@@UBEPAUCRuntimeClass@@XZ 10048204     mfc42d:MFC42D.DLL
 0002:00000208       __imp_?AfxAssertFailedLine@@YGHPBDH@Z 10048208     mfc42d:MFC42D.DLL
 0002:0000020c       __imp_?AfxIsValidAddress@@YGHPBXIH@Z 1004820c     mfc42d:MFC42D.DLL
 0002:00000210       __imp_?AfxAssertValidObject@@YGXPBVCObject@@PBDH@Z 10048210     mfc42d:MFC42D.DLL
 0002:00000214       __imp_?FreeDataChain@CPlex@@QAEXXZ 10048214     mfc42d:MFC42D.DLL
 0002:00000218       __imp_?ReadCount@CArchive@@QAEKXZ 10048218     mfc42d:MFC42D.DLL
 0002:0000021c       __imp_?WriteCount@CArchive@@QAEXK@Z 1004821c     mfc42d:MFC42D.DLL
 0002:00000220       __imp_?GetDepth@CDumpContext@@QBEHXZ 10048220     mfc42d:MFC42D.DLL
 0002:00000224       \177MFC42D_NULL_THUNK_DATA 10048224     mfc42d:MFC42D.DLL
 0002:00000228       __imp___malloc_dbg         10048228     msvcrtd:MSVCRTD.dll
 0002:0000022c       __imp___initterm           1004822c     msvcrtd:MSVCRTD.dll
 0002:00000230       __imp___free_dbg           10048230     msvcrtd:MSVCRTD.dll
 0002:00000234       __imp___onexit             10048234     msvcrtd:MSVCRTD.dll
 0002:00000238       __imp____dllonexit         10048238     msvcrtd:MSVCRTD.dll
 0002:0000023c       __imp_?terminate@@YAXXZ    1004823c     msvcrtd:MSVCRTD.dll
 0002:00000240       __imp___except_handler3    10048240     msvcrtd:MSVCRTD.dll
 0002:00000244       __imp__pow                 10048244     msvcrtd:MSVCRTD.dll
 0002:00000248       __imp__memset              10048248     msvcrtd:MSVCRTD.dll
 0002:0000024c       __imp___ftol               1004824c     msvcrtd:MSVCRTD.dll
 0002:00000250       __imp__sprintf             10048250     msvcrtd:MSVCRTD.dll
 0002:00000254       __imp____CxxFrameHandler   10048254     msvcrtd:MSVCRTD.dll
 0002:00000258       __imp__sqrt                10048258     msvcrtd:MSVCRTD.dll
 0002:0000025c       __imp___adjust_fdiv        1004825c     msvcrtd:MSVCRTD.dll
 0002:00000260       \177MSVCRTD_NULL_THUNK_DATA 10048260     msvcrtd:MSVCRTD.dll
 0002:00000264       __imp_??1CDrObject@@UAE@XZ 10048264     Spec_D32:Spec_D32.dll
 0002:00000268       __imp_??1CDListMgr@@UAE@XZ 10048268     Spec_D32:Spec_D32.dll
 0002:0000026c       __imp_?GetLocalCorner@CDrObject@@UAEXPAUWORLD@@H@Z 1004826c     Spec_D32:Spec_D32.dll
 0002:00000270       __imp_?SetLocalCorner@CDrObject@@UAEXPAUWORLD@@H@Z 10048270     Spec_D32:Spec_D32.dll
 0002:00000274       __imp_?GetWorldCorner@CDrObject@@UAEXPAUWORLD@@H@Z 10048274     Spec_D32:Spec_D32.dll
 0002:00000278       __imp_??0CDListMgr@@QAE@XZ 10048278     Spec_D32:Spec_D32.dll
 0002:0000027c       __imp_?GetEyeCorner@CDrObject@@UAEXPAUWORLD@@H@Z 1004827c     Spec_D32:Spec_D32.dll
 0002:00000280       __imp_?SetEyeCorner@CDrObject@@UAEXPAUWORLD@@H@Z 10048280     Spec_D32:Spec_D32.dll
 0002:00000284       __imp_?GetScreen3DCorner@CDrObject@@UAEXPAUWORLD@@H@Z 10048284     Spec_D32:Spec_D32.dll
 0002:00000288       __imp_?SetScreen3DCorner@CDrObject@@UAEXPAUWORLD@@H@Z 10048288     Spec_D32:Spec_D32.dll
 0002:0000028c       __imp_?classCDrObject@CDrObject@@2UCRuntimeClass@@A 1004828c     Spec_D32:Spec_D32.dll
 0002:00000290       __imp_?GetRuntimeClass@CMatObj@@UBEPAUCRuntimeClass@@XZ 10048290     Spec_D32:Spec_D32.dll
 0002:00000294       __imp_??0CDrObject@@QAE@XZ 10048294     Spec_D32:Spec_D32.dll
 0002:00000298       __imp_?RemoveObject@CDListMgr@@QAEHH@Z 10048298     Spec_D32:Spec_D32.dll
 0002:0000029c       __imp_?GetObjectIndex@CDListMgr@@QAEHPAVCObject@@@Z 1004829c     Spec_D32:Spec_D32.dll
 0002:000002a0       __imp_?SetObjectInfo@CDrObject@@QAEXPAV1@@Z 100482a0     Spec_D32:Spec_D32.dll
 0002:000002a4       __imp_?GetObjectInfo@CDrObject@@QAEXPAV1@@Z 100482a4     Spec_D32:Spec_D32.dll
 0002:000002a8       __imp_?AddStr@CDrObject@@QAEXPAVCString@@0H@Z 100482a8     Spec_D32:Spec_D32.dll
 0002:000002ac       __imp_?GetNextObject@CDListMgr@@QAEPAVCObject@@AAPAU__POSITION@@@Z 100482ac     Spec_D32:Spec_D32.dll
 0002:000002b0       __imp_?GetFirstObjectPos@CDListMgr@@QAEPAU__POSITION@@XZ 100482b0     Spec_D32:Spec_D32.dll
 0002:000002b4       __imp_?GetLocalTransform@CDrObject@@QAEHPAUMATRIX@@@Z 100482b4     Spec_D32:Spec_D32.dll
 0002:000002b8       __imp_?DrawLine3D@CDrObject@@QAEXPAVCDC@@PAUWORLD@@1H@Z 100482b8     Spec_D32:Spec_D32.dll
 0002:000002bc       __imp_?Serialize@CDrObject@@UAEXAAVCArchive@@@Z 100482bc     Spec_D32:Spec_D32.dll
 0002:000002c0       __imp_?AddNum@CDrObject@@QAEXPAVCString@@JJJV2@@Z 100482c0     Spec_D32:Spec_D32.dll
 0002:000002c4       __imp_?GetObjectA@CDListMgr@@QAEPAVCObject@@H@Z 100482c4     Spec_D32:Spec_D32.dll
 0002:000002c8       __imp_?SetWorldCorner@CDrObject@@UAEXPAUWORLD@@H@Z 100482c8     Spec_D32:Spec_D32.dll
 0002:000002cc       \177Spec_D32_NULL_THUNK_DATA 100482cc     Spec_D32:Spec_D32.dll
 0002:000002f0       ?classCCurve@CCurve@@2UCRuntimeClass@@B 100482f0     Curve.obj
 0002:00000308       ??_C@_06PDFM@CCurve?$AA@   10048308     Curve.obj
 0002:00000310       ??_7C3DMath@@6B@           10048310     Curve.obj
 0002:00000324       ??_7CCurve@@6B@            10048324     Curve.obj
 0002:00000338       __real@8@3fff8000000000000000 10048338     Curve.obj
 0002:00000340       __real@8@3ffe8000000000000000 10048340     Curve.obj
 0002:00000348       ??_C@_0DD@CLHP@ERROR?3?6CCurve?3?3GetTangentAtaNode@ 10048348     Curve.obj
 0002:00000380       ?classCCurve_1@CCurve_1@@2UCRuntimeClass@@B 10048380     Curve_1.obj
 0002:00000398       ??_C@_08ODPN@CCurve_1?$AA@ 10048398     Curve_1.obj
 0002:000003a4       ??_7CCurve_1@@6B@          100483a4     Curve_1.obj
 0002:000003b8       ??_C@_01BJG@?6?$AA@        100483b8     Curve_1.obj
 0002:000003bc       ??_C@_06NDGF@?$CF7?42f?5?$AA@ 100483bc     Curve_1.obj
 0002:000003c4       ??_C@_0M@LBOC@MG?$FL?$CFd?$FN?$FL?$CFd?$FN?6?$AA@ 100483c4     Curve_1.obj
 0002:000003d0       ??_C@_0CE@JLOF@Just?5Leaving?6CCurve_1?3?3HO_Comput@ 100483d0     Curve_1.obj
 0002:000003f8       __real@8@4001c000000000000000 100483f8     Curve_1.obj
 0002:00000400       ??_C@_0BD@FCID@?$CF7?41f?5?$CF7?41f?5?$CF7?41f?6?$AA@ 10048400     Curve_1.obj
 0002:00000414       ??_C@_0CD@FNHM@pOut?$FL?$CFd?$FN?6?5?5?5?5?5X?5?5?5?5?5?5?5?5Y?5?5?5?5?5?5?5?5@ 10048414     Curve_1.obj
 0002:00000438       ??_C@_0CE@GOHJ@pOut?3Output?6CCurve_1?3?3GenerateCu@ 10048438     Curve_1.obj
 0002:0000045c       ??_C@_04EBLJ@?$CFd?5?6?$AA@ 1004845c     Curve_1.obj
 0002:00000464       ??_C@_0L@NLHB@Num_t?$FL?$CFd?$FN?6?$AA@ 10048464     Curve_1.obj
 0002:00000470       ??_C@_0BJ@OBLH@nCCurve_1?3?3GenerateCurve?$AA@ 10048470     Curve_1.obj
 0002:00000490       ?classCCurve_2@CCurve_2@@2UCRuntimeClass@@B 10048490     Curve_2.obj
 0002:000004a8       ??_C@_08BMEE@CCurve_2?$AA@ 100484a8     Curve_2.obj
 0002:000004b4       ??_7CCurve_2@@6B@          100484b4     Curve_2.obj
 0002:000004c8       ??_C@_0CE@NMAF@Just?5Leaving?6CCurve_2?3?3HO_Comput@ 100484c8     Curve_2.obj
 0002:000004ec       ??_C@_0CE@MDO@pOut?3Output?6CCurve_2?3?3GenerateCu@ 100484ec     Curve_2.obj
 0002:00000510       ??_C@_0BJ@IDPA@nCCurve_2?3?3GenerateCurve?$AA@ 10048510     Curve_2.obj
 0002:00000530       ?classCCurve_3@CCurve_3@@2UCRuntimeClass@@B 10048530     Curve_3.obj
 0002:00000548       ??_C@_08LGND@CCurve_3?$AA@ 10048548     Curve_3.obj
 0002:00000554       ??_7CCurve_3@@6B@          10048554     Curve_3.obj
 0002:00000568       __real@8@4000c000000000000000 10048568     Curve_3.obj
 0002:00000570       __real@8@40018000000000000000 10048570     Curve_3.obj
 0002:00000578       __real@8@40008000000000000000 10048578     Curve_3.obj
 0002:00000580       __real@8@00000000000000000000 10048580     Curve_3.obj
 0002:00000588       ??_C@_0CE@BOKF@Just?5Leaving?6CCurve_3?3?3HO_Comput@ 10048588     Curve_3.obj
 0002:000005ac       ??_C@_0DA@JDOI@pOut?9FIRST?5TIME?6?3Output?6CCurve_3@ 100485ac     Curve_3.obj
 0002:000005dc       ??_C@_0BJ@KCDC@nCCurve_3?3?3GenerateCurve?$AA@ 100485dc     Curve_3.obj
 0002:000005f8       ??_C@_08EEBC@CDrCurve?$AA@ 100485f8     Drcurve.obj
 0002:00000604       ??_7CXForm@@6B@            10048604     Drcurve.obj
 0002:00000694       ??_7CMatObj@@6B@           10048694     Drcurve.obj
 0002:00000770       ??_C@_00A@?$AA@            10048770     Drcurve.obj
 0002:00000774       ??_7CDrCurve@@6B@          10048774     Drcurve.obj
 0002:000008bc       ??_C@_01FCOA@?5?$AA@       100488bc     Drcurve.obj
 0002:000008c0       ??_C@_0DA@OBOO@Internal?5Problem?3?6DrCurve?3Transf@ 100488c0     Drcurve.obj
 0002:000008f0       ??_C@_0CF@FCOK@m_pOut?$FL?$CFd?$FN?6?5?5?5?5?5X?5?5?5?5?5?5?5?5Y?5?5?5?5?5?5@ 100488f0     Drcurve.obj
 0002:00000918       ??_C@_0DN@KJLK@m_pOut?3XFormed?5Output?6CDrCurve?3?3@ 10048918     Drcurve.obj
 0002:00000958       ??_C@_0BG@OLNC@Increase?5buffer?5to?5?$CFd?$AA@ 10048958     Drcurve.obj
 0002:00000970       ??_C@_0L@NNPP@?$CF2d?5?$CF7?42f?6?$AA@ 10048970     Drcurve.obj
 0002:0000097c       ??_C@_0BG@JBBC@BZ_Wts?$FL?$CFd?$FN?6?5?5?5?5?5?5Wts?6?$AA@ 1004897c     Drcurve.obj
 0002:00000994       ??_C@_0CC@CEPK@BezierWts?6CDrCurve?3?3GenerateCurv@ 10048994     Drcurve.obj
 0002:000009b8       ??_C@_0CP@NCCG@Internal?5Problem?3?6CDrCurve?3?6Get_@ 100489b8     Drcurve.obj
 0002:000009e8       ??_C@_0DJ@JCMN@Internal?5Problem?3?6CDrCurve?3?3IsOb@ 100489e8     Drcurve.obj
 0002:00000a24       ??_C@_0BD@GNEH@?5Curve?5?5?5?3Loading?6?$AA@ 10048a24     Drcurve.obj
 0002:00000a38       ??_C@_0BD@KKBB@?5Curve?5?5?5?3Storing?6?$AA@ 10048a38     Drcurve.obj
 0002:00000a4c       ??_7?$CList@Usupportcard@@U1@@@6B@ 10048a4c     Drcurve.obj
 0002:00000a60       ??_C@_05KIFI@with?5?$AA@   10048a60     Drcurve.obj
 0002:00000a68       ??_C@_09LOPF@?5elements?$AA@ 10048a68     Drcurve.obj
 0002:00000a74       ??_7?$CList@UstaLcard@@U1@@@6B@ 10048a74     Drcurve.obj
 0002:00000a88       ??_7?$CList@UWORLD@@U1@@@6B@ 10048a88     Drcurve.obj
 0002:00000a9c       ??_7?$CList@HH@@6B@        10048a9c     Drcurve.obj
 0002:00000ab0       ??_C@_07DNFK@CDrNode?$AA@  10048ab0     Drnode.obj
 0002:00000ab8       ??_7CDrNode@@6B@           10048ab8     Drnode.obj
 0002:00000c38       ??_C@_04FPID@NODE?$AA@     10048c38     Drnode.obj
 0002:00000c40       ??_C@_0BA@DBEK@?5Node?7?3Loading?6?$AA@ 10048c40     Drnode.obj
 0002:00000c50       ??_C@_0BA@PGBM@?5Node?7?3Storing?6?$AA@ 10048c50     Drnode.obj
 0002:00000c60       ??_C@_08MFDP@CDrObj3D?$AA@ 10048c60     Drobj3d.obj
 0002:00000c6c       ??_7CTriangle@@6B@         10048c6c     Drobj3d.obj
 0002:00000ce8       ??_7CDrObj3D@@6B@          10048ce8     Drobj3d.obj
 0002:00000e24       ??_C@_05EMAP@OBJ3D?$AA@    10048e24     Drobj3d.obj
 0002:00000e2c       ??_C@_0BD@JDDB@?5Obj3D?5?5?5?3Loading?6?$AA@ 10048e2c     Drobj3d.obj
 0002:00000e40       ??_C@_0BD@FEGH@?5Obj3D?5?5?5?3Storing?6?$AA@ 10048e40     Drobj3d.obj
 0002:00000e54       ??_C@_08PIOM@CDrPatch?$AA@ 10048e54     Drpatch.obj
 0002:00000e60       ??_7CSurface3@@6B@         10048e60     Drpatch.obj
 0002:00000e74       ??_7CSurface4@@6B@         10048e74     Drpatch.obj
 0002:00000e88       ??_7CPat_Tan3@@6B@         10048e88     Drpatch.obj
 0002:00000e9c       ??_7CPat_Tan4@@6B@         10048e9c     Drpatch.obj
 0002:00000eb0       ??_7CDrPatch@@6B@          10048eb0     Drpatch.obj
 0002:00001038       ??_C@_0DJ@KJJI@Internal?5Problem?3?6CDrPatch?3?6Gene@ 10049038     Drpatch.obj
 0002:00001074       ??_C@_0EF@HNFJ@Internal?5Problem?3?6CDrPatch?3?6Gene@ 10049074     Drpatch.obj
 0002:000010bc       ??_C@_0DF@BDLC@CDrPatch?3?6Generate_Patch3?6GORDON@ 100490bc     Drpatch.obj
 0002:000010f4       ??_C@_0DP@NNLB@Internal?5Problem?3?6CDrPatch?3?6Gene@ 100490f4     Drpatch.obj
 0002:00001134       ??_C@_0EF@EPMA@Internal?5Problem?3?6CDrPatch?3?6Gene@ 10049134     Drpatch.obj
 0002:0000117c       ??_C@_0DE@HDEA@ERROR?3?6Internal?5Problem?3?6CDrPatc@ 1004917c     Drpatch.obj
 0002:000011b0       ??_C@_0CP@POOK@ERROR?3?6Internal?5Problem?3?6Get_Tan@ 100491b0     Drpatch.obj
 0002:000011e0       ??_C@_0DD@OKDE@Internal?5Problem?3?6CDrPatch?3?6Get_@ 100491e0     Drpatch.obj
 0002:00001214       ??_C@_0DC@OIGM@Internal?5Problem?3?6CDrPatch?3?6Get_@ 10049214     Drpatch.obj
 0002:00001248       ??_C@_0DC@NKGG@Internal?5Problem?3?6CDrPatch?3?6Get_@ 10049248     Drpatch.obj
 0002:0000127c       ??_C@_0DC@LNIJ@Internal?5Problem?3?6CDrPatch?3?6Get_@ 1004927c     Drpatch.obj
 0002:000012b0       ??_C@_0EC@NNDA@ERROR?3?6Internal?5Problem?3?6CDrPatc@ 100492b0     Drpatch.obj
 0002:000012f4       ??_C@_0EC@IINF@ERROR?3?6Internal?5Problem?3?6CDrPatc@ 100492f4     Drpatch.obj
 0002:00001338       ??_C@_0DF@NPLP@CDrPatch?3?6Generate_Patch4?6GORDON@ 10049338     Drpatch.obj
 0002:00001370       ??_C@_0CD@GDBN@CDrPatch?3?3GoDoIt_3?6nType?5?$CB?$DN?$DN1?5or@ 10049370     Drpatch.obj
 0002:00001394       ??_C@_0DJ@DFCJ@Internal?5Problem?3?6CDrPatch?3?3IsOb@ 10049394     Drpatch.obj
 0002:000013d0       ??_C@_0DB@GIKL@Internal?5Problem?3?6CDrPatch?3?3IsOb@ 100493d0     Drpatch.obj
 0002:00001404       ??_C@_0EN@KABA@ERROR?3?6Internal?5Problem?3?6CDrPatc@ 10049404     Drpatch.obj
 0002:00001454       ??_C@_0DB@JAGC@Internal?5Problem?3?6CDrPatch?3?3IsOb@ 10049454     Drpatch.obj
 0002:00001488       ??_C@_0EK@JPOJ@ERROR?3?6Internal?5Problem?3?6CDrPatc@ 10049488     Drpatch.obj
 0002:000014d4       ??_C@_0EM@CAID@ERROR?3?6Internal?5Problem?3?6CDrPatc@ 100494d4     Drpatch.obj
 0002:00001520       ??_C@_0BD@JMGP@?5Patch?5?5?5?3Loading?6?$AA@ 10049520     Drpatch.obj
 0002:00001534       ??_C@_0BD@FLDJ@?5Patch?5?5?5?3Storing?6?$AA@ 10049534     Drpatch.obj
 0002:00001548       ??_7?$CList@W4CURVELATCH@@W41@@@6B@ 10049548     Drpatch.obj
 0002:0000155c       ??_7?$CList@Ublendend@@U1@@@6B@ 1004955c     Drpatch.obj
 0002:00001570       ??_7?$CList@NN@@6B@        10049570     Drpatch.obj
 0002:00001584       ??_C@_09KBO@CDrProf_C?$AA@ 10049584     Drprof_c.obj
 0002:00001590       ??_7CDrProf_C@@6B@         10049590     Drprof_c.obj
 0002:000016d0       ??_C@_09FMNH@CDrProf_P?$AA@ 100496d0     Drprof_P.obj
 0002:000016dc       ??_7CDrProf_P@@6B@         100496dc     Drprof_P.obj
 0002:0000182c       ??_C@_0BH@GNAF@?5CDrProf_P?5?5?5?3Loading?6?$AA@ 1004982c     Drprof_P.obj
 0002:00001844       ??_C@_0BH@KKFD@?5CDrProf_P?5?5?5?3Storing?6?$AA@ 10049844     Drprof_P.obj
 0002:0000185c       ??_C@_08DKMF@CDrSolid?$AA@ 1004985c     Drsolid.obj
 0002:00001868       ??_7CPentaHed@@6B@         10049868     Drsolid.obj
 0002:000018ec       ??_7CDrSolid@@6B@          100498ec     Drsolid.obj
 0002:00001a78       ??_C@_0CL@JLED@CDrSolid?3?3Generate_SolidTet?6NOT?5@ 10049a78     Drsolid.obj
 0002:00001aa4       ??_C@_0DL@KLKO@Internal?5Problem?3?6CDrSolid?3?6Gene@ 10049aa4     Drsolid.obj
 0002:00001ae0       ??_C@_0EH@KNFL@Internal?5Problem?3?6CDrSolid?3?6Gene@ 10049ae0     Drsolid.obj
 0002:00001b28       ??_C@_0DG@EJFF@CDrSolid?3?6Generate_SolidPen?6COON@ 10049b28     Drsolid.obj
 0002:00001b60       ??_C@_0DH@GMKD@CDrSolid?3?6Generate_SolidPen?6GORD@ 10049b60     Drsolid.obj
 0002:00001b98       ??_C@_0EC@IMDF@Internal?5Problem?3?6CDrSolid?31?6Gen@ 10049b98     Drsolid.obj
 0002:00001bdc       ??_C@_0EI@BLNA@Internal?5Problem?3?6CDrSolid?31?6Gen@ 10049bdc     Drsolid.obj
 0002:00001c24       ??_C@_0DI@KCLA@CDrSolid?31?6Generate_SolidHex?6GOR@ 10049c24     Drsolid.obj
 0002:00001c5c       ??_C@_0DH@FKKL@CDrSolid?31?6Generate_SolidHex?6COO@ 10049c5c     Drsolid.obj
 0002:00001c94       ??_C@_0CE@HGNJ@RTS?$CI?$CFd?0?$CFd?0?$CFd?$CJ?5?5?5?$CF7?42f?5?$CF7?42f?5?$CF7?42@ 10049c94     Drsolid.obj
 0002:00001cb8       ??_C@_0CM@CGNF@Control?5Nodes?3m_pIn?$FL?$CFd?0?$CFd?0?$CFd?$FN?5in@ 10049cb8     Drsolid.obj
 0002:00001ce4       ??_C@_0EB@MOJG@CDrSolid?3?3Generate_SolidHex?9Just@ 10049ce4     Drsolid.obj
 0002:00001d28       ??_C@_0CH@FEJI@CDrSolid?3?3GoDoIt_PENTA?6nType?5?$CB?$DN?$DN@ 10049d28     Drsolid.obj
 0002:00001d50       ??_C@_0CK@DJPC@CDrSolid?3?3ObjectHit_PENTA?6nType?5@ 10049d50     Drsolid.obj
 0002:00001d7c       ??_C@_0BD@PJGB@?5Solid?5?5?5?3Loading?6?$AA@ 10049d7c     Drsolid.obj
 0002:00001d90       ??_C@_0BD@DODH@?5Solid?5?5?5?3Storing?6?$AA@ 10049d90     Drsolid.obj
 0002:00001da4       ??_7?$CList@W4PATCHLATCH@@W41@@@6B@ 10049da4     Drsolid.obj
 0002:00001db8       ??_C@_0M@MADC@SPAWN?5Solid?$AA@ 10049db8     OGen_dll.obj
 0002:00001dc4       ??_C@_0N@OHKI@SPLICE?5Solid?$AA@ 10049dc4     OGen_dll.obj
 0002:00001dd4       ??_C@_0N@IGEK@Delete?5Solid?$AA@ 10049dd4     OGen_dll.obj
 0002:00001de4       ??_C@_0N@HNNM@UNPOST?5Solid?$AA@ 10049de4     OGen_dll.obj
 0002:00001df4       ??_C@_0L@ILDJ@POST?5Solid?$AA@ 10049df4     OGen_dll.obj
 0002:00001e00       ??_C@_0L@BGJP@MOVE?5Solid?$AA@ 10049e00     OGen_dll.obj
 0002:00001e0c       ??_C@_0L@MAIP@EDIT?5Solid?$AA@ 10049e0c     OGen_dll.obj
 0002:00001e18       ??_C@_0L@DPM@FLAT?5Solid?$AA@ 10049e18     OGen_dll.obj
 0002:00001e24       ??_C@_0M@FOEI@SWEPT?5Solid?$AA@ 10049e24     OGen_dll.obj
 0002:00001e30       ??_C@_0N@MKKB@DUCTED?5Solid?$AA@ 10049e30     OGen_dll.obj
 0002:00001e40       ??_C@_0P@IKAJ@EXTRUDED?5Solid?$AA@ 10049e40     OGen_dll.obj
 0002:00001e50       ??_C@_0N@DMKD@LOFTED?5Solid?$AA@ 10049e50     OGen_dll.obj
 0002:00001e60       ??_C@_0O@JLO@ROTATED?5Solid?$AA@ 10049e60     OGen_dll.obj
 0002:00001e70       ??_C@_0M@DOOL@Coons?5Solid?$AA@ 10049e70     OGen_dll.obj
 0002:00001e7c       ??_C@_0N@NFAI@Tensor?5Solid?$AA@ 10049e7c     OGen_dll.obj
 0002:00001e8c       ??_C@_0O@IHHM@Gordons?5Solid?$AA@ 10049e8c     OGen_dll.obj
 0002:00001e9c       ??_C@_05DEEH@SOLID?$AA@    10049e9c     OGen_dll.obj
 0002:00001ea4       ??_C@_0M@CBL@SPAWN?5Patch?$AA@ 10049ea4     OGen_dll.obj
 0002:00001eb0       ??_C@_0N@CFIB@SPLICE?5Patch?$AA@ 10049eb0     OGen_dll.obj
 0002:00001ec0       ??_C@_0L@EJBA@POST?5Patch?$AA@ 10049ec0     OGen_dll.obj
 0002:00001ecc       ??_C@_0N@LPPF@UNPOST?5Patch?$AA@ 10049ecc     OGen_dll.obj
 0002:00001edc       ??_C@_0N@EEGD@Delete?5Patch?$AA@ 10049edc     OGen_dll.obj
 0002:00001eec       ??_C@_0L@NELG@MOVE?5Patch?$AA@ 10049eec     OGen_dll.obj
 0002:00001ef8       ??_C@_0L@CKG@EDIT?5Patch?$AA@ 10049ef8     OGen_dll.obj
 0002:00001f04       ??_C@_0L@MBNF@FLAT?5Patch?$AA@ 10049f04     OGen_dll.obj
 0002:00001f10       ??_C@_0M@JMGB@SWEPT?5Patch?$AA@ 10049f10     OGen_dll.obj
 0002:00001f1c       ??_C@_0N@III@DUCTED?5Patch?$AA@ 10049f1c     OGen_dll.obj
 0002:00001f2c       ??_C@_0P@EICA@EXTRUDED?5Patch?$AA@ 10049f2c     OGen_dll.obj
 0002:00001f3c       ??_C@_0N@POIK@LOFTED?5Patch?$AA@ 10049f3c     OGen_dll.obj
 0002:00001f4c       ??_C@_0O@MLJH@ROTATED?5Patch?$AA@ 10049f4c     OGen_dll.obj
 0002:00001f5c       ??_C@_0M@PMMC@Coons?5Patch?$AA@ 10049f5c     OGen_dll.obj
 0002:00001f68       ??_C@_0O@EFFF@Gordons?5Patch?$AA@ 10049f68     OGen_dll.obj
 0002:00001f78       ??_C@_0N@BHCB@Tensor?5Patch?$AA@ 10049f78     OGen_dll.obj
 0002:00001f88       ??_C@_05PGGO@PATCH?$AA@    10049f88     OGen_dll.obj
 0002:00001f90       ??_C@_0M@LOOF@SPAWN?5Curve?$AA@ 10049f90     OGen_dll.obj
 0002:00001f9c       ??_C@_0N@JJHP@SPLICE?5Curve?$AA@ 10049f9c     OGen_dll.obj
 0002:00001fac       ??_C@_0N@MPEP@DELETE?5Curve?$AA@ 10049fac     OGen_dll.obj
 0002:00001fbc       ??_C@_0N@DAL@UNPOST?5Curve?$AA@ 10049fbc     OGen_dll.obj
 0002:00001fcc       ??_C@_0L@PFOO@POST?5Curve?$AA@ 10049fcc     OGen_dll.obj
 0002:00001fd8       ??_C@_0L@GIEI@MOVE?5Curve?$AA@ 10049fd8     OGen_dll.obj
 0002:00001fe4       ??_C@_0L@LOFI@EDIT?5Curve?$AA@ 10049fe4     OGen_dll.obj
 0002:00001ff0       ??_C@_0BA@PMJH@OPERATION?5Curve?$AA@ 10049ff0     OGen_dll.obj
 0002:00002000       ??_C@_0L@KDAP@NURB?5Curve?$AA@ 1004a000     OGen_dll.obj
 0002:0000200c       ??_C@_0P@FGGO@B?9SPLINE?5Curve?$AA@ 1004a00c     OGen_dll.obj
 0002:0000201c       ??_C@_0N@IOIN@BEZIER?5Curve?$AA@ 1004a01c     OGen_dll.obj
 0002:0000202c       ??_C@_0O@NLEA@HERMITE?5Curve?$AA@ 1004a02c     OGen_dll.obj
 0002:0000203c       ??_C@_0BA@OMIE@QUADRATIC?5Curve?$AA@ 1004a03c     OGen_dll.obj
 0002:0000204c       ??_C@_0N@ILBB@LINEAR?5Curve?$AA@ 1004a04c     OGen_dll.obj
 0002:0000205c       ??_C@_0P@HNHI@PARABOLA?5Curve?$AA@ 1004a05c     OGen_dll.obj
 0002:0000206c       ??_C@_0P@OJDG@ELLIPTIC?5Curve?$AA@ 1004a06c     OGen_dll.obj
 0002:0000207c       ??_C@_0P@GAFK@CIRCULAR?5Curve?$AA@ 1004a07c     OGen_dll.obj
 0002:0000208c       ??_C@_05EKJA@CURVE?$AA@    1004a08c     OGen_dll.obj
 0002:00002094       ??_C@_0BA@MFHJ@21?5Node?9HEXAHED?$AA@ 1004a094     OGen_dll.obj
 0002:000020a4       ??_C@_0BA@GFCI@20?5Node?9HEXAHED?$AA@ 1004a0a4     OGen_dll.obj
 0002:000020b4       ??_C@_0P@JMOM@8?5Node?9HEXAHED?$AA@ 1004a0b4     OGen_dll.obj
 0002:000020c4       ??_C@_0L@NOAE@3D?9HEXAHED?$AA@ 1004a0c4     OGen_dll.obj
 0002:000020d0       ??_C@_0BB@KFLD@10?5Node?9TETRAHED?$AA@ 1004a0d0     OGen_dll.obj
 0002:000020e4       ??_C@_0BA@KKIO@4?5Node?9TETRAHED?$AA@ 1004a0e4     OGen_dll.obj
 0002:000020f4       ??_C@_0M@KDEP@3D?9TETRAHED?$AA@ 1004a0f4     OGen_dll.obj
 0002:00002100       ??_C@_0BB@FBLE@15?5Node?9PENTAHED?$AA@ 1004a100     OGen_dll.obj
 0002:00002114       ??_C@_0BA@BDOI@6?5Node?9PENTAHED?$AA@ 1004a114     OGen_dll.obj
 0002:00002124       ??_C@_0M@JPGJ@3D?9PENTAHED?$AA@ 1004a124     OGen_dll.obj
 0002:00002130       ??_C@_05NKIM@BRICK?$AA@    1004a130     OGen_dll.obj
 0002:00002138       ??_C@_0L@MBJF@3D?5Element?$AA@ 1004a138     OGen_dll.obj
 0002:00002144       ??_C@_0L@CHFE@THIN?5SHELL?$AA@ 1004a144     OGen_dll.obj
 0002:00002150       ??_C@_0BB@KEIL@10?5Node?9TRIANGLE?$AA@ 1004a150     OGen_dll.obj
 0002:00002164       ??_C@_0BA@HGJF@9?5Node?9TRIANGLE?$AA@ 1004a164     OGen_dll.obj
 0002:00002174       ??_C@_0BA@COPG@6?5Node?9TRIANGLE?$AA@ 1004a174     OGen_dll.obj
 0002:00002184       ??_C@_0BA@OGNH@3?5Node?9TRIANGLE?$AA@ 1004a184     OGen_dll.obj
 0002:00002194       ??_C@_0M@EIPI@2D?9TRIANGLE?$AA@ 1004a194     OGen_dll.obj
 0002:000021a0       ??_C@_0N@BEDA@16?5Node?9QUAD?$AA@ 1004a1a0     OGen_dll.obj
 0002:000021b0       ??_C@_0N@LOAP@12?5Node?9QUAD?$AA@ 1004a1b0     OGen_dll.obj
 0002:000021c0       ??_C@_0M@NLPC@9?5Node?9QUAD?$AA@ 1004a1c0     OGen_dll.obj
 0002:000021cc       ??_C@_0M@DBHN@8?5Node?9QUAD?$AA@ 1004a1cc     OGen_dll.obj
 0002:000021d8       ??_C@_0M@MPDM@4?5Node?9QUAD?$AA@ 1004a1d8     OGen_dll.obj
 0002:000021e4       ??_C@_07FEJF@2D?9QUAD?$AA@ 1004a1e4     OGen_dll.obj
 0002:000021ec       ??_C@_04GIIE@FACE?$AA@     1004a1ec     OGen_dll.obj
 0002:000021f4       ??_C@_0L@EOFH@2D?5Element?$AA@ 1004a1f4     OGen_dll.obj
 0002:00002200       ??_C@_05HGOC@TRUSS?$AA@    1004a200     OGen_dll.obj
 0002:00002208       ??_C@_04MMHL@BEAM?$AA@     1004a208     OGen_dll.obj
 0002:00002210       ??_C@_05MEMP@ELBOW?$AA@    1004a210     OGen_dll.obj
 0002:00002218       ??_C@_04CDKK@PIPE?$AA@     1004a218     OGen_dll.obj
 0002:00002220       ??_C@_04EHJE@EDGE?$AA@     1004a220     OGen_dll.obj
 0002:00002228       ??_C@_0L@NOBB@1D?5Element?$AA@ 1004a228     OGen_dll.obj
 0002:00002234       ??_C@_05HHEN@MNODE?$AA@    1004a234     OGen_dll.obj
 0002:0000223c       ??_C@_09OKNM@Mesh?5NODE?$AA@ 1004a23c     OGen_dll.obj
 0002:00002248       ??_C@_05LGLI@CNODE?$AA@    1004a248     OGen_dll.obj
 0002:00002250       ??_C@_0N@PFFC@Control?5NODE?$AA@ 1004a250     OGen_dll.obj
 0002:00002260       ??_C@_0L@EIMA@Input?5NODE?$AA@ 1004a260     OGen_dll.obj
 0002:0000226c       ??_C@_05ONAC@VERTX?$AA@    1004a26c     OGen_dll.obj
 0002:00002274       ??_C@_0L@FBND@0D?5Element?$AA@ 1004a274     OGen_dll.obj
 0002:00002280       ??_C@_0BH@CHLG@OGen?4DLL?5Terminating?$CB?6?$AA@ 1004a280     OGen_dll.obj
 0002:00002298       ??_C@_02DILL@?$CFs?$AA@    1004a298     OGen_dll.obj
 0002:0000229c       ??_C@_0BI@NDLM@OGen?4DLL?5Initializing?$CB?6?$AA@ 1004a29c     OGen_dll.obj
 0002:000022b8       ?classCPat_SubDiv4@CPat_SubDiv4@@2UCRuntimeClass@@B 1004a2b8     Pat_SubDiv4.obj
 0002:000022d0       ??_C@_0N@EGLP@CPat_SubDiv4?$AA@ 1004a2d0     Pat_SubDiv4.obj
 0002:000022e0       ??_7CPat_SubDiv4@@6B@      1004a2e0     Pat_SubDiv4.obj
 0002:000022f8       ?classCPat_Tan3@CPat_Tan3@@2UCRuntimeClass@@B 1004a2f8     Pat_Tan3.obj
 0002:00002310       ??_C@_09GHI@CPat_Tan3?$AA@ 1004a310     Pat_Tan3.obj
 0002:0000231c       ??_C@_0DK@PFFN@ERROR?3?6CPat_Tan3?3?3DC_GetTangents@ 1004a31c     Pat_Tan3.obj
 0002:00002358       ??_C@_0CE@HGPI@m?$DN?$CF2d?5?5?$CF7?42f?5?$CF7?42f?5?$CF7?42f?5?5?5?5?$CF7?42@ 1004a358     Pat_Tan3.obj
 0002:0000237c       ??_C@_0BO@KJKF@pCon_UV?$FL?$CFd?$FN?5and?5pWts_UV?$FL?$CFd?$FN?3?6?$AA@ 1004a37c     Pat_Tan3.obj
 0002:0000239c       ??_C@_0CJ@IOAJ@Just?5in?5CPat_Tan3?3?3DC_GetTangent@ 1004a39c     Pat_Tan3.obj
 0002:000023c8       ??_C@_0BI@OGK@pCon?$FL?$CFd?$FN?5and?5pWts?$FL?$CFd?$FN?3?6?$AA@ 1004a3c8     Pat_Tan3.obj
 0002:000023e0       ??_C@_0CL@JMBM@Just?5in?5CPat_Tan3?3?3DC_MakeTangen@ 1004a3e0     Pat_Tan3.obj
 0002:0000240c       ??_C@_0CO@GNLN@CPat_Tan3?3?3MakePatchesInOneDir?6n@ 1004a40c     Pat_Tan3.obj
 0002:0000243c       ??_C@_0DA@JHPJ@ERROR?3?6CPat_Tan3?3?3MakePatches?6nC@ 1004a43c     Pat_Tan3.obj
 0002:0000246c       ??_C@_0BP@MBLG@Just?5in?5CPat_Tan3?3?3MakePatches?$AA@ 1004a46c     Pat_Tan3.obj
 0002:0000248c       ??_C@_0DD@GANM@CPat_Tan3?3?3EX_MakeTangents_A_Pat@ 1004a48c     Pat_Tan3.obj
 0002:000024c0       ??_C@_0CG@JLLN@CPat_Tan3?3?3MakePatches?6nOutP?5?$CB?$DN?5@ 1004a4c0     Pat_Tan3.obj
 0002:000024e8       ??_C@_0N@EPCA@?6?6NewC?$FL?$CFd?$FN?3?6?$AA@ 1004a4e8     Pat_Tan3.obj
 0002:000024f8       ??_C@_0BK@ICCD@m?$DN?$CF2d?5?5?$CF7?42f?5?$CF7?42f?5?$CF7?42f?6?$AA@ 1004a4f8     Pat_Tan3.obj
 0002:00002514       ??_C@_0L@JCJF@Cons?$FL?$CFd?$FN?3?6?$AA@ 1004a514     Pat_Tan3.obj
 0002:00002520       ??_C@_0CB@KLDK@u?5?$DN?5?$CF7?44f?5v?5?$DN?5?$CF7?44f?5nSide?5?$DN?5?$CFd?6?6@ 1004a520     Pat_Tan3.obj
 0002:00002544       ??_C@_0BO@NCMO@Just?5in?5CPat_Tan3?3?3Tangent_UV?$AA@ 1004a544     Pat_Tan3.obj
 0002:00002564       ??_C@_0DC@DIHH@Internal?5ERROR?6CPat_Tan3?3?3SubDiv@ 1004a564     Pat_Tan3.obj
 0002:00002598       ??_C@_0DG@KPJM@Internal?5ERROR?6CPat_Tan3?3?3Rat_Su@ 1004a598     Pat_Tan3.obj
 0002:000025d0       ??_C@_0CE@GEDF@CPat_Tan3?3?3MakeTangents?6nPtActua@ 1004a5d0     Pat_Tan3.obj
 0002:000025f4       ??_C@_0DL@BAGA@ERROR?6CPat_Tan3?3?3Triangles?6PA_Ex@ 1004a5f4     Pat_Tan3.obj
 0002:00002630       ??_C@_0DL@MJIL@ERROR?6CPat_Tan3?3?3Triangles?6PA_MO@ 1004a630     Pat_Tan3.obj
 0002:00002670       ?classCPat_Tan4@CPat_Tan4@@2UCRuntimeClass@@B 1004a670     Pat_Tan4.obj
 0002:00002688       ??_C@_09FDJN@CPat_Tan4?$AA@ 1004a688     Pat_Tan4.obj
 0002:00002694       ??_C@_0CK@NKFM@CPat_Tan4?3?3HO_MakePatches?6nOutP?5@ 1004a694     Pat_Tan4.obj
 0002:000026c0       ??_C@_0BD@ILMJ@pOut?$FL?$CFd?$FN?6iv?5?$DN?5?$CF2d?6?$AA@ 1004a6c0     Pat_Tan4.obj
 0002:000026d4       ??_C@_0EF@KLFM@Still?5in?5CPat_Tan4?3?3HO_Make_A_Pa@ 1004a6d4     Pat_Tan4.obj
 0002:0000271c       ??_C@_0CK@EDPO@CPat_Tan4?3?3HO_Make_A_Patch?6nOutU@ 1004a71c     Pat_Tan4.obj
 0002:00002748       ??_C@_0BL@DMIA@k?$DN?$CF2d?5?5?$CF7?42f?5?$CF7?42f?5?$CF7?42f?5?6?$AA@ 1004a748     Pat_Tan4.obj
 0002:00002764       ??_C@_0CG@FEIF@pCon_V4?$FL?$CFd?$FN?3?5Actually?$FL4?$FN?$FL4?$FN?6iv?5?$DN@ 1004a764     Pat_Tan4.obj
 0002:0000278c       ??_C@_0EC@GFOO@Still?5in?5CPat_Tan4?3?3Make_Tangent@ 1004a78c     Pat_Tan4.obj
 0002:000027d0       ??_C@_0CB@KPGK@m?$DN?$CF2d?5k?$DN?$CF2d?5?5?$CF7?42f?5?$CF7?42f?5?$CF7?42f?5?6@ 1004a7d0     Pat_Tan4.obj
 0002:000027f4       ??_C@_0CE@CKKF@ppCon_U4V4?$FL?$CFd?$FN?$FL?$CFd?$FN?3?5Actually?$FL4?$FN?$FL@ 1004a7f4     Pat_Tan4.obj
 0002:00002818       ??_C@_0CJ@GBMK@Just?5in?5CPat_Tan4?3?3Make_Tangents@ 1004a818     Pat_Tan4.obj
 0002:00002844       ??_C@_0DL@FPIJ@ERROR?3?6CPat_Tan4?3?3GetTangentsAta@ 1004a844     Pat_Tan4.obj
 0002:00002880       ??_C@_0EL@LOMK@ERROR?6CPat_Tan4?3?3GetBezPatEdgeNo@ 1004a880     Pat_Tan4.obj
 0002:000028d0       ?classCPat_Twist4@CPat_Twist4@@2UCRuntimeClass@@B 1004a8d0     Pat_Twist4.obj
 0002:000028e8       ??_C@_0M@CAAK@CPat_Twist4?$AA@ 1004a8e8     Pat_Twist4.obj
 0002:000028f4       ??_7CPat_Twist4@@6B@       1004a8f4     Pat_Twist4.obj
 0002:00002908       ??_C@_0CM@DEFN@CPat_Twist4?3?3HO_MakePatches?6nOut@ 1004a908     Pat_Twist4.obj
 0002:00002934       ??_C@_0CM@LIHB@CPat_Twist4?3?3HO_Make_A_Patch?6nOu@ 1004a934     Pat_Twist4.obj
 0002:00002960       ??_C@_0EH@MAJO@Still?5in?5CPat_Twist4?3?3HO_Make_A_@ 1004a960     Pat_Twist4.obj
 0002:000029a8       ??_C@_0CM@KNPP@CPat_Twist4?3?3HO_Make_A_Patch?6nOu@ 1004a9a8     Pat_Twist4.obj
 0002:000029d4       ??_C@_0DO@ILJP@CPat_Twist4?3?3HO_Make_A_Patch?6HO_@ 1004a9d4     Pat_Twist4.obj
 0002:00002a14       ??_C@_0CL@HMOF@Just?5in?5CPat_Twist4?3?3Make_Tangen@ 1004aa14     Pat_Twist4.obj
 0002:00002a40       ??_C@_0DL@MMCL@ERROR?3?6CRat_Twist4?3?3GetTwistsAta@ 1004aa40     Pat_Twist4.obj
 0002:00002a80       ?classCPentaHed@CPentaHed@@2UCRuntimeClass@@B 1004aa80     Pentahed.obj
 0002:00002a98       ??_C@_09JNHD@CPentaHed?$AA@ 1004aa98     Pentahed.obj
 0002:00002aa8       ?classCRat_Twist4@CRat_Twist4@@2UCRuntimeClass@@B 1004aaa8     Rat_Twist4.obj
 0002:00002ac0       ??_C@_0M@DPIO@CRat_Twist4?$AA@ 1004aac0     Rat_Twist4.obj
 0002:00002acc       ??_7CRat_Twist4@@6B@       1004aacc     Rat_Twist4.obj
 0002:00002ae0       ??_C@_0CM@JLLH@CRat_Twist4?3?3HO_MakePatches?6nOut@ 1004aae0     Rat_Twist4.obj
 0002:00002b0c       ??_C@_0CM@BHJL@CRat_Twist4?3?3HO_Make_A_Patch?6nOu@ 1004ab0c     Rat_Twist4.obj
 0002:00002b38       ??_C@_0EH@GEBL@Still?5in?5CRat_Twist4?3?3HO_Make_A_@ 1004ab38     Rat_Twist4.obj
 0002:00002b80       ??_C@_0CM@CBF@CRat_Twist4?3?3HO_Make_A_Patch?6nOu@ 1004ab80     Rat_Twist4.obj
 0002:00002bac       ??_C@_0DO@CPBK@CRat_Twist4?3?3HO_Make_A_Patch?6HO_@ 1004abac     Rat_Twist4.obj
 0002:00002bec       ??_C@_0DN@MICG@ERROR?3?6CRat_Twist4?3?3GetTangentsA@ 1004abec     Rat_Twist4.obj
 0002:00002c30       ?classCSolid4@CSolid4@@2UCRuntimeClass@@B 1004ac30     Solid4.obj
 0002:00002c48       ??_C@_07GEB@CSolid4?$AA@   1004ac48     Solid4.obj
 0002:00002c50       ??_7CSolid4@@6B@           1004ac50     Solid4.obj
 0002:00002c64       ??_C@_0DA@IOPL@CSolid4?3?3HO_MakeSolides?6nOutSTR?5@ 1004ac64     Solid4.obj
 0002:00002c94       ??_C@_0CN@LGCL@CSolid4?3?3HO_MakeSolides?6nOut?5?$CB?$DN?5@ 1004ac94     Solid4.obj
 0002:00002cc4       ??_C@_0CJ@FAH@CSolid4?3?3HO_MakeSolides?6nOutS?5?$CB?$DN@ 1004acc4     Solid4.obj
 0002:00002cf0       ??_C@_0CK@MDGB@CSolid4?3?3HO_Make_A_Solid?6nOutST?5@ 1004acf0     Solid4.obj
 0002:00002d1c       ??_C@_0CD@GAHJ@pCon_S4T4?$FL?$CFd?$FN?$FL?$CFd?$FN?3?5Actually?$FL4?$FN?$FL4@ 1004ad1c     Solid4.obj
 0002:00002d40       ??_C@_0EF@DGGD@CSolid4?3?3HO_Make_A_Solid?9Just?5be@ 1004ad40     Solid4.obj
 0002:00002d88       ??_C@_0DC@HKLM@CSolid4?3?3TensorProduct_Surfaces?6@ 1004ad88     Solid4.obj
 0002:00002dc0       ?classCSolidHex@CSolidHex@@2UCRuntimeClass@@B 1004adc0     SolidHex.obj
 0002:00002dd8       ??_C@_09IDIH@CSolidHex?$AA@ 1004add8     SolidHex.obj
 0002:00002de4       ??_7CSolidHex@@6B@         1004ade4     SolidHex.obj
 0002:00002df8       ??_C@_0DC@PMD@CSolidHex?3?3HO_MakeSolides?6nOutST@ 1004adf8     SolidHex.obj
 0002:00002e2c       ??_C@_0CP@GOEO@CSolidHex?3?3HO_MakeSolides?6nOut?5?$CB@ 1004ae2c     SolidHex.obj
 0002:00002e5c       ??_C@_0CL@NODH@CSolidHex?3?3HO_MakeSolides?6nOutS?5@ 1004ae5c     SolidHex.obj
 0002:00002e88       ??_C@_0CM@FJLK@CSolidHex?3?3HO_Make_A_Solid?6nOutS@ 1004ae88     SolidHex.obj
 0002:00002eb4       ??_C@_0EH@JOIH@CSolidHex?3?3HO_Make_A_Solid?9Just?5@ 1004aeb4     SolidHex.obj
 0002:00002efc       ??_C@_0DE@MAF@CSolidHex?3?3TensorProduct_Surface@ 1004aefc     SolidHex.obj
 0002:00002f30       ?classCSolidPen@CSolidPen@@2UCRuntimeClass@@B 1004af30     SolidPen.obj
 0002:00002f48       ??_C@_09GEFK@CSolidPen?$AA@ 1004af48     SolidPen.obj
 0002:00002f54       ??_7CSolidPen@@6B@         1004af54     SolidPen.obj
 0002:00002f68       ??_C@_0CH@FHHG@ERROR?3?6CSolidPen?3?3MakeSolides?6nO@ 1004af68     SolidPen.obj
 0002:00002f90       ??_C@_0DB@IACK@ERROR?3?6CSolidPen?3?3MakeSolides?6nC@ 1004af90     SolidPen.obj
 0002:00002fc4       ??_C@_0CA@ELMG@pCon_UVW?$FL?$CFd?$FN?5and?5pWts_UVW?$FL?$CFd?$FN?3?6?$AA@ 1004afc4     SolidPen.obj
 0002:00002fe4       ??_C@_0BP@NBPL@Just?5in?5CSolidPen?3?3MakeSolides?$AA@ 1004afe4     SolidPen.obj
 0002:00003004       ??_C@_0CL@PHN@CSolidPen?3?3HO_Make_A_Solid?6nType@ 1004b004     SolidPen.obj
 0002:00003030       ??_C@_0CM@LBAJ@CSolidPen?3?3HO_Make_A_Solid?6nOutS@ 1004b030     SolidPen.obj
 0002:0000305c       ??_C@_0BO@ONJE@pCon_ST?$FL?$CFd?$FN?5and?5pWts_ST?$FL?$CFd?$FN?3?6?$AA@ 1004b05c     SolidPen.obj
 0002:0000307c       ??_C@_0EH@LLKB@CSolidPen?3?3HO_Make_A_Solid?9Just?5@ 1004b07c     SolidPen.obj
 0002:000030c4       ??_C@_0CD@IPOB@pOut_STR?$FL?$CFd?$FN?5and?5pOutWts_STR?$FL?$CFd?$FN@ 1004b0c4     SolidPen.obj
 0002:000030e8       ??_C@_0DK@IPHF@CSolidPen?3?3PentaHeds_3D?9Just?5aft@ 1004b0e8     SolidPen.obj
 0002:00003124       ??_C@_0CE@HNAL@CSolidPen?3?3Triangles_2D?6nPtActua@ 1004b124     SolidPen.obj
 0002:00003148       ??_C@_0DI@GDPN@ERROR?6CSolidPen?3?3Triangles?6PA_DE@ 1004b148     SolidPen.obj
 0002:00003180       ??_C@_0DL@JMDD@ERROR?6CSolidPen?3?3Triangles?6PA_MO@ 1004b180     SolidPen.obj
 0002:000031c0       ?classCSurface3@CSurface3@@2UCRuntimeClass@@B 1004b1c0     Surface3.obj
 0002:000031d8       ??_C@_09DCMI@CSurface3?$AA@ 1004b1d8     Surface3.obj
 0002:000031e4       ??_C@_0CN@IELL@ERROR?3?6CSurface3?3?3MakePatches?6nC@ 1004b1e4     Surface3.obj
 0002:00003214       ??_C@_0BP@ONGB@Just?5in?5CSurface3?3?3MakePatches?$AA@ 1004b214     Surface3.obj
 0002:00003234       ??_C@_0CD@FNPB@Just?5in?5CSurface3?3?3EX_Make_A_Pat@ 1004b234     Surface3.obj
 0002:00003258       ??_C@_0CG@LILG@CSurface3?3?3MakePatches?6nOutP?5?$CB?$DN?5@ 1004b258     Surface3.obj
 0002:00003280       ??_C@_0CL@CEOC@CSurface3?3?3EX_Make_A_Patch?6nType@ 1004b280     Surface3.obj
 0002:000032ac       ??_C@_0CE@EAAP@CSurface3?3?3Triangles_2D?6nPtActua@ 1004b2ac     Surface3.obj
 0002:000032d0       ??_C@_0DI@MFDH@ERROR?6CSurface3?3?3Triangles?6PA_DE@ 1004b2d0     Surface3.obj
 0002:00003308       ??_C@_0DL@KBIO@ERROR?6CSurface3?3?3Triangles?6PA_MO@ 1004b308     Surface3.obj
 0002:00003348       ?classCSurface4@CSurface4@@2UCRuntimeClass@@B 1004b348     Surface4.obj
 0002:00003360       ??_C@_09GHCN@CSurface4?$AA@ 1004b360     Surface4.obj
 0002:0000336c       ??_C@_0CK@MFOE@CSurface4?3?3HO_MakePatches?6nOutP?5@ 1004b36c     Surface4.obj
 0002:00003398       ??_C@_0EF@ODMH@Still?5in?5CSurface4?3?3HO_Make_A_Pa@ 1004b398     Surface4.obj
 0002:000033e0       ??_C@_0CK@FMEG@CSurface4?3?3HO_Make_A_Patch?6nOutU@ 1004b3e0     Surface4.obj
 0002:0000340c       ??_C@_0CH@IPNN@ppCon_V4?$FL?$CFd?$FN?3?5Actually?$FL4?$FN?$FL4?$FN?6iv?5@ 1004b40c     Surface4.obj
 0002:00003434       ??_C@_0DP@LFNP@Still?5in?5CSurface4?3?3HO_Make_A_Pa@ 1004b434     Surface4.obj
 0002:00003474       ??_C@_0CD@INLO@Just?5in?5CSurface4?3?3HO_Make_A_Pat@ 1004b474     Surface4.obj
 0002:00003498       ??_C@_0O@KHIK@MG_1?$FL?$CFd?$FN?$FL?$CFd?$FN?6?$AA@ 1004b498     Surface4.obj
 0002:000034a8       ??_C@_0CF@LFN@Just?5Leaving?6CSurface4?3?3HO_Compu@ 1004b4a8     Surface4.obj
 0002:000034d0       ??_C@_0N@GDEF@G_1?$FL?$CFd?$FN?$FL?$CFd?$FN?6?$AA@ 1004b4d0     Surface4.obj
 0002:000034e0       ??_C@_0BH@CGJP@?$CF2d?5?$CF7?42f?5?$CF7?42f?5?$CF7?42f?6?$AA@ 1004b4e0     Surface4.obj
 0002:000034f8       ??_C@_0L@HMJO@ppInC?$FL?$CFd?$FN?6?$AA@ 1004b4f8     Surface4.obj
 0002:00003504       ??_C@_0L@CBDO@ppWts?$FL?$CFd?$FN?6?$AA@ 1004b504     Surface4.obj
 0002:00003510       ??_C@_0CA@EIEA@Just?5in?5CSurface4?3?3HO_ComputeMG?$AA@ 1004b510     Surface4.obj
 0002:00003530       ??_C@_0CL@LBEO@CSurface4?3?3HO_Make_A_Curve_U?6nOu@ 1004b530     Surface4.obj
 0002:0000355c       ??_C@_0DE@NFD@CSurface4?3?3TensorProduct_Surface@ 1004b55c     Surface4.obj
 0002:00003590       ?classCTriangle@CTriangle@@2UCRuntimeClass@@B 1004b590     Triangle.obj
 0002:000035a8       ??_C@_09OCLI@CTriangle?$AA@ 1004b5a8     Triangle.obj
 0002:000035b8       _IID_IDocHostUIHandlerDispatch 1004b5b8     mfcs42d:stdafx.obj
 0002:000035c8       _IID_IInternalConnection   1004b5c8     mfcs42d:stdafx.obj
 0002:000035d8       _IID_IAxWinAmbientDispatch 1004b5d8     mfcs42d:stdafx.obj
 0002:000035e8       _IID_IAxWinHostWindow      1004b5e8     mfcs42d:stdafx.obj
 0002:000035f8       _IID_IRegistrar            1004b5f8     mfcs42d:stdafx.obj
 0002:00003608       _CLSID_Registrar           1004b608     mfcs42d:stdafx.obj
 0002:00003618       _LIBID_ATLLib              1004b618     mfcs42d:stdafx.obj
 0002:00003654       ??_C@_08JKC@crtdll?4c?$AA@ 1004b654     msvcrtd:crtdll.obj
 0002:00005c78       __IMPORT_DESCRIPTOR_Dr3D_D32 1004dc78     Dr3D_D32:Dr3D_D32.dll
 0002:00005c8c       __IMPORT_DESCRIPTOR_Spec_D32 1004dc8c     Spec_D32:Spec_D32.dll
 0002:00005ca0       __IMPORT_DESCRIPTOR_MFC42D 1004dca0     mfc42d:MFC42D.DLL
 0002:00005cb4       __IMPORT_DESCRIPTOR_MSVCRTD 1004dcb4     msvcrtd:MSVCRTD.dll
 0002:00005cc8       __NULL_IMPORT_DESCRIPTOR   1004dcc8     Dr3D_D32:Dr3D_D32.dll
 0003:00000000       ___xc_a                    10060000     msvcrtd:cinitexe.obj
 0003:00000020       ___xc_z                    10060020     msvcrtd:cinitexe.obj
 0003:00000024       ___xi_a                    10060024     msvcrtd:cinitexe.obj
 0003:00000028       ___xi_z                    10060028     msvcrtd:cinitexe.obj
 0003:00000050       ?__LINE__Var@?1??Tangent_t@CCurve@@QAEHPAUWORLD@@NHAAU3@@Z@4FA 10060050     Curve.obj
 0003:00000054       ?__LINE__Var@?1??Curvature_t@CCurve@@QAENPAUWORLD@@NH@Z@4FA 10060054     Curve.obj
 0003:00000058       ?__LINE__Var@?1??Rat_Tangent_t@CCurve@@QAEHPAUWORLD@@PANNHAAU3@@Z@4FA 10060058     Curve.obj
 0003:0000005c       ?__LINE__Var@?1??Rat_Tangent_t_for_Patch@CCurve@@QAEHPAUWORLD@@PANNH1AAU3@@Z@4FA 1006005c     Curve.obj
 0003:00000060       ?__LINE__Var@?1??Rat_Curvature_t@CCurve@@QAENPAUWORLD@@PANNH@Z@4FA 10060060     Curve.obj
 0003:000000d8       ?__LINE__Var@?1??HO_ComputeMG@CCurve_1@@QAEXPAY03NPAY01N0H@Z@4FA 100600d8     Curve_1.obj
 0003:000000dc       ?__LINE__Var@?1??GenerateCurve@CCurve_1@@QAEHW4CURVEOUTPUT@@HHPAUWORLD@@HPANPAH212HH@Z@4FA 100600dc     Curve_1.obj
 0003:000001a0       ?__LINE__Var@?1??HO_ComputeMG@CCurve_2@@QAEXPAY03NPAY02N0H@Z@4FA 100601a0     Curve_2.obj
 0003:000001a4       ?__LINE__Var@?1??GenerateCurve@CCurve_2@@QAEHW4CURVEOUTPUT@@HHPAUWORLD@@HPANPAH212HH@Z@4FA 100601a4     Curve_2.obj
 0003:000001a8       ?__LINE__Var@?1??MakeTangents@CCurve_2@@QAEHHHPAUWORLD@@HPANPAH10H@Z@4FA 100601a8     Curve_2.obj
 0003:000001ac       ?__LINE__Var@?1??MakeCurvatures@CCurve_2@@QAEHHHPAUWORLD@@HPANPAH11H@Z@4FA 100601ac     Curve_2.obj
 0003:00000460       ?__LINE__Var@?1??HO_ComputeMG@CCurve_3@@QAEXPAY03N00H@Z@4FA 10060460     Curve_3.obj
 0003:00000464       ?__LINE__Var@?1??GenerateCurve@CCurve_3@@QAEHW4CURVEOUTPUT@@HHPAUWORLD@@HPANPAH212HH@Z@4FA 10060464     Curve_3.obj
 0003:00000498       ?classCDrCurve@CDrCurve@@2UCRuntimeClass@@A 10060498     Drcurve.obj
 0003:000004b0       ?__LINE__Var@?1??SetObjectInfo@CDrCurve@@UAEXPAVCDrObject@@@Z@4FA 100604b0     Drcurve.obj
 0003:000004b4       ?__LINE__Var@?1??GetObjectInfo@CDrCurve@@UAEXPAVCDrObject@@@Z@4FA 100604b4     Drcurve.obj
 0003:000004b8       ?__LINE__Var@?1??Gen_XFormedCurveForDirtyDraw@CDrCurve@@IAEXXZ@4FA 100604b8     Drcurve.obj
 0003:000004bc       ?__LINE__Var@?1??GenerateCurve@CDrCurve@@QAEHPAUWORLD@@PAN@Z@4FA 100604bc     Drcurve.obj
 0003:000004c0       ?__LINE__Var@?1??GenerateTangent@CDrCurve@@QAEHPAUWORLD@@@Z@4FA 100604c0     Drcurve.obj
 0003:000004f8       ?classCDrNode@CDrNode@@2UCRuntimeClass@@A 100604f8     Drnode.obj
 0003:00000540       ?classCDrObj3D@CDrObj3D@@2UCRuntimeClass@@A 10060540     Drobj3d.obj
 0003:00000588       ?classCDrPatch@CDrPatch@@2UCRuntimeClass@@A 10060588     Drpatch.obj
 0003:000005d0       ?classCDrProf_C@CDrProf_C@@2UCRuntimeClass@@A 100605d0     Drprof_c.obj
 0003:00000618       ?classCDrProf_P@CDrProf_P@@2UCRuntimeClass@@A 10060618     Drprof_P.obj
 0003:00000660       ?classCDrSolid@CDrSolid@@2UCRuntimeClass@@A 10060660     Drsolid.obj
 0003:00000678       ?__LINE__Var@?1??Generate_SolidHex@CDrSolid@@QAEHPAUWORLD@@PAN@Z@4FA 10060678     Drsolid.obj
 0003:00000690       ?ElTypes@@3PAUeltypes@@A   10060690     OGen_dll.obj
 0003:000009c0       ?nMax_ElemTypes@@3HA       100609c0     OGen_dll.obj
 0003:000009c8       ?CuTypes@@3PAUcutypes@@A   100609c8     OGen_dll.obj
 0003:00000b44       ?nMax_CurveTypes@@3HA      10060b44     OGen_dll.obj
 0003:00000b48       ?PaTypes@@3PAUpatypes@@A   10060b48     OGen_dll.obj
 0003:00000cb0       ?nMax_PatchTypes@@3HA      10060cb0     OGen_dll.obj
 0003:00000cb8       ?SoTypes@@3PAUsotypes@@A   10060cb8     OGen_dll.obj
 0003:00000e20       ?nMax_SolidTypes@@3HA      10060e20     OGen_dll.obj
 0003:00000e48       __pRawDllMain              10060e48     OGen_dll.obj
 0003:00000e74       ?__LINE__Var@?1??SubDivide_U@CPat_SubDiv4@@QAEHPAUWORLD@@N0HHH@Z@4FA 10060e74     Pat_SubDiv4.obj
 0003:00000e78       ?__LINE__Var@?1??SubDivide_V@CPat_SubDiv4@@QAEHPAUWORLD@@N0HHH@Z@4FA 10060e78     Pat_SubDiv4.obj
 0003:00000e7c       ?__LINE__Var@?1??Rat_SubDivide_U@CPat_SubDiv4@@QAEHPAUWORLD@@PANN01HHH@Z@4FA 10060e7c     Pat_SubDiv4.obj
 0003:00000e80       ?__LINE__Var@?1??Rat_SubDivide_V@CPat_SubDiv4@@QAEHPAUWORLD@@PANN01HHH@Z@4FA 10060e80     Pat_SubDiv4.obj
 0003:00000eb4       ?__LINE__Var@?1??DC_GetTangentsForNormalAtaNode@CPat_Tan3@@QAEHUWORLD@@AAU3@1HHHHPAVCDListMgr@@PANPAU3@N@Z@4FA 10060eb4     Pat_Tan3.obj
 0003:00000eb8       ?__LINE__Var@?1??DC_GetTangentsForNormalAtaLIndex@CPat_Tan3@@IAEHHHHHHHPANPAUWORLD@@AAU3@2@Z@4FA 10060eb8     Pat_Tan3.obj
 0003:00000ebc       ?__LINE__Var@?1??DC_GetaTangentAtaNode@CPat_Tan3@@QAEHUWORLD@@AAU3@HHHHHPAVCDListMgr@@PANPAU3@N@Z@4FA 10060ebc     Pat_Tan3.obj
 0003:00000ec0       ?__LINE__Var@?1??DC_GetaTangentAtaLIndex@CPat_Tan3@@IAEHHHHHHHPANPAUWORLD@@AAU3@AAH@Z@4FA 10060ec0     Pat_Tan3.obj
 0003:00000ec4       ?__LINE__Var@?1??DC_MakeTangentsInOneDir@CPat_Tan3@@IAEHHHHHHPAVCDListMgr@@PANPAUWORLD@@2H@Z@4FA 10060ec4     Pat_Tan3.obj
 0003:00000ec8       ?__LINE__Var@?1??DC_Make_TangentsInOneDir_A_Patch@CPat_Tan3@@IAEHHHHHHHHHPANPAUWORLD@@1H@Z@4FA 10060ec8     Pat_Tan3.obj
 0003:00000ecc       ?__LINE__Var@?1??DC_MakeTangents@CPat_Tan3@@IAEHHHHHHPAVCDListMgr@@PANPAUWORLD@@22@Z@4FA 10060ecc     Pat_Tan3.obj
 0003:00000ed0       ?__LINE__Var@?1??DC_Make_Tangents_A_Patch@CPat_Tan3@@IAEHHHHHHHHHPANPAUWORLD@@11@Z@4FA 10060ed0     Pat_Tan3.obj
 0003:00000ed4       ?__LINE__Var@?1??Tangent_UV@CPat_Tan3@@IAEHPAUWORLD@@NNHHAAU3@@Z@4FA 10060ed4     Pat_Tan3.obj
 0003:00000ed8       ?__LINE__Var@?1??SubDivide@CPat_Tan3@@IAEHPAUWORLD@@NN0HH@Z@4FA 10060ed8     Pat_Tan3.obj
 0003:00000edc       ?__LINE__Var@?1??Rat_Tangent_UV@CPat_Tan3@@IAEHPAUWORLD@@PANNNHHAAU3@@Z@4FA 10060edc     Pat_Tan3.obj
 0003:00000ee0       ?__LINE__Var@?1??Rat_SubDivide@CPat_Tan3@@IAEHPAUWORLD@@PANNN01HH@Z@4FA 10060ee0     Pat_Tan3.obj
 0003:00000f14       ?__LINE__Var@?1??MakeTangents@CPat_Tan4@@QAEHHHHHHPAHPANHHHHH011PAUWORLD@@2@Z@4FA 10060f14     Pat_Tan4.obj
 0003:00000f18       ?__LINE__Var@?1??Make_Tangents_A_Patch@CPat_Tan4@@QAEHPAY03PAUWORLD@@PAY03PANHHHHPANHHHH2PAU3@HHH@Z@4FA 10060f18     Pat_Tan4.obj
 0003:00000f40       ?__LINE__Var@?1??MakeTwists@CPat_Twist4@@QAEHHHHHHPAHPANHHHHH01PAUWORLD@@2@Z@4FA 10060f40     Pat_Twist4.obj
 0003:00000f44       ?__LINE__Var@?1??Make_Twists_A_Patch@CPat_Twist4@@QAEHPAY03PAUWORLD@@HHHHPANHHHH1PAU3@HHH@Z@4FA 10060f44     Pat_Twist4.obj
 0003:00000f48       ?__LINE__Var@?1??GetaTwistAtaControlNode@CPat_Twist4@@QAEHUWORLD@@AAU3@HHHHHHHHPAU3@N@Z@4FA 10060f48     Pat_Twist4.obj
 0003:00000f4c       ?__LINE__Var@?1??Pat_SubDivide_U@CPat_Twist4@@QAEHPAUWORLD@@N0HHH@Z@4FA 10060f4c     Pat_Twist4.obj
 0003:00000f50       ?__LINE__Var@?1??Pat_SubDivide_V@CPat_Twist4@@QAEHPAUWORLD@@N0HHH@Z@4FA 10060f50     Pat_Twist4.obj
 0003:00000fa8       ?__LINE__Var@?1??MakeTwists@CRat_Twist4@@QAEHHHHHHPAHPANHHHHH011PAUWORLD@@2@Z@4FA 10060fa8     Rat_Twist4.obj
 0003:00000fac       ?__LINE__Var@?1??Make_Twists_A_Patch@CRat_Twist4@@QAEHPAUWORLD@@PANHHHH1HHHH10HHH@Z@4FA 10060fac     Rat_Twist4.obj
 0003:00000fb0       ?__LINE__Var@?1??GetaTwistAtaControlNode@CRat_Twist4@@QAEHUWORLD@@AAU3@HHHHHHHHPANPAU3@N@Z@4FA 10060fb0     Rat_Twist4.obj
 0003:00000fb4       ?__LINE__Var@?1??Rat_SubDivide_U@CRat_Twist4@@QAEHPAUWORLD@@PANN01HHH@Z@4FA 10060fb4     Rat_Twist4.obj
 0003:00000fb8       ?__LINE__Var@?1??Rat_SubDivide_V@CRat_Twist4@@QAEHPAUWORLD@@PANN01HHH@Z@4FA 10060fb8     Rat_Twist4.obj
 0003:000013c0       ?__LINE__Var@?1??HO_MakeSolides@CSolid4@@IAEHHHHHHHPAHPANHHHHHH01HHHHHH011PAUWORLD@@21@Z@4FA 100613c0     Solid4.obj
 0003:000013c4       ?__LINE__Var@?1??HO_Make_A_Solid@CSolid4@@IAEHPAY133PAUWORLD@@PAY133PANHHHHPANHHHH2HHHH2PAU3@2HHHHH@Z@4FA 100613c4     Solid4.obj
 0003:000017c8       ?__LINE__Var@?1??HO_MakeSolides@CSolidHex@@IAEHHHHHHHPAHPANHHHHHH01HHHHHH011PAUWORLD@@21@Z@4FA 100617c8     SolidHex.obj
 0003:000017cc       ?__LINE__Var@?1??HO_Make_A_Solid@CSolidHex@@IAEHPAY133PAUWORLD@@PAY133PANHHHHPANHHHH2HHHH2PAU3@2HHHHH@Z@4FA 100617cc     SolidHex.obj
 0003:00001bd0       ?__LINE__Var@?1??EX_MakeSolides@CSolidPen@@IAEHHHHHPANHHPAVCDListMgr@@0PAUWORLD@@20@Z@4FA 10061bd0     SolidPen.obj
 0003:00001bd4       ?__LINE__Var@?1??EX_Make_A_Solid@CSolidPen@@IAEHHHHHHHHHPANHHHHHHHPAUWORLD@@010@Z@4FA 10061bd4     SolidPen.obj
 0003:00001bd8       ?__LINE__Var@?1??PentaHeds_3D@CSolidPen@@QAEHW4SOLIDOUTPUT@@HHHHPANHHPAVCDListMgr@@PAUWORLD@@131H@Z@4FA 10061bd8     SolidPen.obj
 0003:00001c0c       ?__LINE__Var@?1??HO_GetAPointOnABezSegPatch@CSurface3@@QAEHHHHPAVCTriangle@@NNPAVCDListMgr@@PANPAUWORLD@@32@Z@4FA 10061c0c     Surface3.obj
 0003:00001c10       ?__LINE__Var@?1??HO_GenerateAPointOnASingleBezPatch@CSurface3@@IAEHHHHNNPANPAUWORLD@@10@Z@4FA 10061c10     Surface3.obj
 0003:00001c14       ?__LINE__Var@?1??EX_MakePatches@CSurface3@@IAEHHHHHHPAVCDListMgr@@PANPAUWORLD@@21@Z@4FA 10061c14     Surface3.obj
 0003:00001c18       ?__LINE__Var@?1??EX_Make_A_Patch@CSurface3@@IAEHHHHHHHHHPANPAUWORLD@@10@Z@4FA 10061c18     Surface3.obj
 0003:00002020       ?__LINE__Var@?1??HO_MakePatches@CSurface4@@IAEHHHHHHHPAHPANHHHHHH011PAUWORLD@@21@Z@4FA 10062020     Surface4.obj
 0003:00002024       ?__LINE__Var@?1??HO_Make_A_Patch@CSurface4@@IAEHPAY03PAUWORLD@@PAY03PANHHHHPANHHHH2PAU3@2HHH@Z@4FA 10062024     Surface4.obj
 0003:00002028       ?__LINE__Var@?1??HO_ComputeMG@CSurface4@@QAEXPAPAUWORLD@@PAPANPAY03N22HH@Z@4FA 10062028     Surface4.obj
 0003:0000202c       ?__LINE__Var@?1??HO_GetAPointOnABezSegPatch@CSurface4@@QAEHHHHHHHNHHHHHHNPANPAUWORLD@@10@Z@4FA 1006202c     Surface4.obj
 0003:00002030       ?__LINE__Var@?1??HO_GenerateAPointOnASingleBezPatch@CSurface4@@IAEHPAY03PAUWORLD@@PAY03PANHHNHHNPAU3@PAN@Z@4FA 10062030     Surface4.obj
 0003:00002068       ?GUID_ATLVer30@ATL@@3U_GUID@@A 10062068     mfcs42d:stdafx.obj
 0003:000022d0       ?_init_CDrCurve@@3UAFX_CLASSINIT@@A 100622d0     Drcurve.obj
 0003:000022dc       ?_init_CDrNode@@3UAFX_CLASSINIT@@A 100622dc     Drnode.obj
 0003:000022e9       ?_init_CDrObj3D@@3UAFX_CLASSINIT@@A 100622e9     Drobj3d.obj
 0003:000022ec       ?_init_CDrPatch@@3UAFX_CLASSINIT@@A 100622ec     Drpatch.obj
 0003:000022fd       ?_init_CDrProf_C@@3UAFX_CLASSINIT@@A 100622fd     Drprof_c.obj
 0003:00002301       ?_init_CDrProf_P@@3UAFX_CLASSINIT@@A 10062301     Drprof_P.obj
 0003:00002308       ?_init_CDrSolid@@3UAFX_CLASSINIT@@A 10062308     Drsolid.obj
 0003:00002310       __afxForceEXTDLL           10062310     OGen_dll.obj
 0003:00002318       ?extensionOGen_DLL@@3UAFX_EXTENSION_MODULE@@A 10062318     OGen_dll.obj
 0003:000023b0       __afxForceEXCLUDE          100623b0     mfcs42d:nolib.obj
 0003:000023b4       ?ATL_CREATE_OBJECT@CComApartment@ATL@@2IA 100623b4     mfcs42d:stdafx.obj
 0003:000023b8       ?m_libid@CComModule@ATL@@2U_GUID@@A 100623b8     mfcs42d:stdafx.obj
 0003:000023c8       ?_pModule@ATL@@3PAVCComModule@1@A 100623c8     mfcs42d:stdafx.obj
 0003:000023cc       __afxForceSTDAFX           100623cc     mfcs42d:stdafx.obj
 0003:000023d4       __adjust_fdiv              100623d4     <common>
 0003:000023d8       ___onexitend               100623d8     <common>
 0003:000023dc       ___onexitbegin             100623dc     <common>

 entry point at        0001:000443f0

 Static symbols

 0001:0002a0e0       _$E265                     1002b0e0 f   Drsolid.obj
 0001:0002a100       _$E264                     1002b100 f   Drsolid.obj
 0001:0002bad0       _$E268                     1002cad0 f   Drsolid.obj
 0001:00027440       _$E261                     10028440 f   Drprof_P.obj
 0001:00027460       _$E260                     10028460 f   Drprof_P.obj
 0001:00027b90       _$E264                     10028b90 f   Drprof_P.obj
 0001:00026210       _$E258                     10027210 f   Drprof_c.obj
 0001:00026230       _$E257                     10027230 f   Drprof_c.obj
 0001:00026970       _$E261                     10027970 f   Drprof_c.obj
 0001:0001c930       _$E263                     1001d930 f   Drpatch.obj
 0001:0001c950       _$E262                     1001d950 f   Drpatch.obj
 0001:0001ed80       _$E266                     1001fd80 f   Drpatch.obj
 0001:0001a610       _$E260                     1001b610 f   Drobj3d.obj
 0001:0001a630       _$E259                     1001b630 f   Drobj3d.obj
 0001:0001ad60       _$E263                     1001bd60 f   Drobj3d.obj
 0001:000156d0       _$E257                     100166d0 f   Drnode.obj
 0001:000156f0       _$E256                     100166f0 f   Drnode.obj
 0001:00016f30       _$E260                     10017f30 f   Drnode.obj
 0001:0000c890       _$E261                     1000d890 f   Drcurve.obj
 0001:0000c8b0       _$E260                     1000d8b0 f   Drcurve.obj
 0001:0000f010       _$E264                     10010010 f   Drcurve.obj
 0001:00044190       ?ArrayUnwindFilter@@YAHPAU_EXCEPTION_POINTERS@@@Z 10045190 f   msvcrtd:ehvecdtr.obj
