 View_d32

 Timestamp is 444d8062 (Mon Apr 24 18:50:26 2006)

 Preferred load address is 10000000

 Start         Length     Name                   Class
 0001:00000000 0001fcf2H .text                   CODE
 0001:0001fd00 00000019H .text$AFX_COL1          CODE
 0001:0001fd20 000009c3H .text$x                 CODE
 0002:00000000 0000065cH .idata$5                DATA
 0002:00000660 0000231dH .rdata                  DATA
 0002:00002980 00000ab4H .rdata$r                DATA
 0002:00003438 00000bd0H .xdata$x                DATA
 0002:00004008 000000c8H .idata$2                DATA
 0002:000040d0 00000014H .idata$3                DATA
 0002:000040e4 0000065cH .idata$4                DATA
 0002:00004740 000028dcH .idata$6                DATA
 0002:00007020 00012fc9H .edata                  DATA
 0003:00000000 00000004H .CRT$XCA                DATA
 0003:00000004 0000000cH .CRT$XCU                DATA
 0003:00000010 00000004H .CRT$XCZ                DATA
 0003:00000014 00000004H .CRT$XIA                DATA
 0003:00000018 00000004H .CRT$XIZ                DATA
 0003:00000020 000005b0H .data                   DATA
 0003:000005d0 00000070H .bss                    DATA
 0004:00000000 00000324H .rsrc$01                DATA
 0004:00000330 000033d0H .rsrc$02                DATA

  Address         Publics by Value              Rva+Base     Lib:Object

 0001:00000000       ?Set3DPts@C3DMath@@QAEXPAULPOINT3@@JJJ@Z 10001000 f i Ax_wire0.obj
 0001:00000030       ?Set3DPts@C3DMath@@QAEXPAUWORLD@@NNN@Z 10001030 f i Ax_wire0.obj
 0001:00000080       ?Len3DPts@C3DMath@@QAENPAUWORLD@@@Z 10001080 f i Ax_wire0.obj
 0001:000000d0       ??1C3DMath@@UAE@XZ         100010d0 f i Ax_wire0.obj
 0001:00000100       ??_GC3DMath@@UAEPAXI@Z     10001100 f i Ax_wire0.obj
 0001:00000140       ??_EC3DMath@@UAEPAXI@Z     10001140 f i Ax_wire0.obj
 0001:000001c0       ?GetMatrix@CMatObj@@UAEPAUMATRIX@@XZ 100011c0 f i Ax_wire0.obj
 0001:000001e0       ?SetMatrix@CMatObj@@UAEXPAUMATRIX@@@Z 100011e0 f i Ax_wire0.obj
 0001:00000250       ?GetCurveLatch@CMatObj@@UAE?AW4CURVELATCH@@XZ 10001250 f i Ax_wire0.obj
 0001:00000270       ?SetCurveLatch@CMatObj@@UAEXW4CURVELATCH@@@Z 10001270 f i Ax_wire0.obj
 0001:00000290       ?IsInstanced_Prof@CMatObj@@UAEHXZ 10001290 f i Ax_wire0.obj
 0001:000002b0       ?SetInstanced_Prof@CMatObj@@UAEXH@Z 100012b0 f i Ax_wire0.obj
 0001:000002d0       ?GetFromID@CMatObj@@UAE?AVCString@@XZ 100012d0 f i Ax_wire0.obj
 0001:00000310       ?SetFromID@CMatObj@@UAEXVCString@@@Z 10001310 f i Ax_wire0.obj
 0001:00000370       ?GetFromPt@CMatObj@@UAE?AUWORLD@@XZ 10001370 f i Ax_wire0.obj
 0001:000003a0       ?SetFromPt@CMatObj@@UAEXUWORLD@@@Z 100013a0 f i Ax_wire0.obj
 0001:000003d0       ?GetToID@CMatObj@@UAE?AVCString@@XZ 100013d0 f i Ax_wire0.obj
 0001:00000410       ?SetToID@CMatObj@@UAEXVCString@@@Z 10001410 f i Ax_wire0.obj
 0001:00000470       ?GetToPt@CMatObj@@UAE?AUWORLD@@XZ 10001470 f i Ax_wire0.obj
 0001:000004a0       ?SetToPt@CMatObj@@UAEXUWORLD@@@Z 100014a0 f i Ax_wire0.obj
 0001:000004d0       ?GetRotPtID@CMatObj@@UAE?AVCString@@XZ 100014d0 f i Ax_wire0.obj
 0001:00000510       ?SetRotPtID@CMatObj@@UAEXVCString@@@Z 10001510 f i Ax_wire0.obj
 0001:00000570       ?GetRotPt@CMatObj@@UAE?AUWORLD@@XZ 10001570 f i Ax_wire0.obj
 0001:000005a0       ?SetRotPt@CMatObj@@UAEXUWORLD@@@Z 100015a0 f i Ax_wire0.obj
 0001:000005d0       ?IsCoordIn@CMatObj@@UAEHXZ 100015d0 f i Ax_wire0.obj
 0001:000005f0       ?SetCoordIn@CMatObj@@UAEXH@Z 100015f0 f i Ax_wire0.obj
 0001:00000620       ?GetTranPtID@CMatObj@@UAE?AVCString@@XZ 10001620 f i Ax_wire0.obj
 0001:00000660       ?SetTranPtID@CMatObj@@UAEXVCString@@@Z 10001660 f i Ax_wire0.obj
 0001:000006c0       ?GetTranslation@CMatObj@@UAE?AUWORLD@@XZ 100016c0 f i Ax_wire0.obj
 0001:000006f0       ?SetTranslation@CMatObj@@UAEXUWORLD@@@Z 100016f0 f i Ax_wire0.obj
 0001:00000720       ?IsAngleIn@CMatObj@@UAEHXZ 10001720 f i Ax_wire0.obj
 0001:00000740       ?SetAngleIn@CMatObj@@UAEXH@Z 10001740 f i Ax_wire0.obj
 0001:00000770       ?IsDirCos@CMatObj@@UAEHXZ  10001770 f i Ax_wire0.obj
 0001:00000790       ?SetDirCos@CMatObj@@UAEXH@Z 10001790 f i Ax_wire0.obj
 0001:000007c0       ?GetDirCosDirect@CMatObj@@UAE?AUWORLD@@XZ 100017c0 f i Ax_wire0.obj
 0001:000007f0       ?SetDirCosDirect@CMatObj@@UAEXUWORLD@@@Z 100017f0 f i Ax_wire0.obj
 0001:00000820       ?GetRotation@CMatObj@@UAE?AUWORLD@@XZ 10001820 f i Ax_wire0.obj
 0001:00000850       ?SetRotation@CMatObj@@UAEXUWORLD@@@Z 10001850 f i Ax_wire0.obj
 0001:00000880       ?GetScale@CMatObj@@UAE?AUWORLD@@XZ 10001880 f i Ax_wire0.obj
 0001:000008b0       ?SetScale@CMatObj@@UAEXUWORLD@@@Z 100018b0 f i Ax_wire0.obj
 0001:000008e0       ?GetShear@CMatObj@@UAE?AUWORLD@@XZ 100018e0 f i Ax_wire0.obj
 0001:00000910       ?SetShear@CMatObj@@UAEXUWORLD@@@Z 10001910 f i Ax_wire0.obj
 0001:00000940       ?IsNoRot@CMatObj@@UAEHXZ   10001940 f i Ax_wire0.obj
 0001:00000960       ?SetNoRot@CMatObj@@UAEXH@Z 10001960 f i Ax_wire0.obj
 0001:00000990       ?IsNoTran@CMatObj@@UAEHXZ  10001990 f i Ax_wire0.obj
 0001:000009b0       ?SetNoTran@CMatObj@@UAEXH@Z 100019b0 f i Ax_wire0.obj
 0001:000009e0       ?IsNoScale@CMatObj@@UAEHXZ 100019e0 f i Ax_wire0.obj
 0001:00000a00       ?SetNoScale@CMatObj@@UAEXH@Z 10001a00 f i Ax_wire0.obj
 0001:00000a30       ?IsNoShear@CMatObj@@UAEHXZ 10001a30 f i Ax_wire0.obj
 0001:00000a50       ?SetNoShear@CMatObj@@UAEXH@Z 10001a50 f i Ax_wire0.obj
 0001:00000a80       ?GetXformType@CMatObj@@UAE?AW4XFORMTYPE@@XZ 10001a80 f i Ax_wire0.obj
 0001:00000aa0       ?SetXformType@CMatObj@@UAEXW4XFORMTYPE@@@Z 10001aa0 f i Ax_wire0.obj
 0001:00000ad0       ?GetSpawnType@CMatObj@@UAE?AW4SPAWNTYPE@@XZ 10001ad0 f i Ax_wire0.obj
 0001:00000af0       ?SetSpawnType@CMatObj@@UAEXW4SPAWNTYPE@@@Z 10001af0 f i Ax_wire0.obj
 0001:00000b20       ?GetCreOp@CMatObj@@UAEIXZ  10001b20 f i Ax_wire0.obj
 0001:00000b40       ?SetCreOp@CMatObj@@UAEXI@Z 10001b40 f i Ax_wire0.obj
 0001:00000b70       ??1CMatObj@@UAE@XZ         10001b70 f i Ax_wire0.obj
 0001:00000c10       ??_GCMatObj@@UAEPAXI@Z     10001c10 f i Ax_wire0.obj
 0001:00000c50       ??_ECMatObj@@UAEPAXI@Z     10001c50 f i Ax_wire0.obj
 0001:00000cd0       ?ReadyToDelete@CDrObject@@UAEXXZ 10001cd0 f i Ax_wire0.obj
 0001:00000cf0       ?DoFormattedCardView@CDrObject@@UAEXPAVCString@@AAV2@@Z 10001cf0 f i Ax_wire0.obj
 0001:00000d10       ?DoUnFormattedCardView@CDrObject@@UAEXPAVCString@@@Z 10001d10 f i Ax_wire0.obj
 0001:00000d30       ?DoDataView@CDrObject@@UAEXPAVCDC@@H@Z 10001d30 f i Ax_wire0.obj
 0001:00000d50       ?InitDraw@CDrObject@@UAEXPAVCDC@@HHPAUMATRIX@@1NNN@Z 10001d50 f i Ax_wire0.obj
 0001:00000d70       ?InitDraw@CDrObject@@UAEXPAVCDC@@HHPAUMATRIX@@1NNNN@Z 10001d70 f i Ax_wire0.obj
 0001:00000d90       ?Corner_3Dto2D@CDrObject@@UAEXXZ 10001d90 f i Ax_wire0.obj
 0001:00000db0       ?DoDrawView@CDrObject@@UAEXPAVCDC@@@Z 10001db0 f i Ax_wire0.obj
 0001:00000dd0       ?DoDrawView@CDrObject@@UAEXPAVCDC@@H@Z 10001dd0 f i Ax_wire0.obj
 0001:00000df0       ?DoDrawView@CDrObject@@UAEXPAVCDC@@HH@Z 10001df0 f i Ax_wire0.obj
 0001:00000e10       ?DealObjectDialog@CDrObject@@UAEHXZ 10001e10 f i Ax_wire0.obj
 0001:00000e30       ?TransformObjectToWorld@CDrObject@@UAEXPAUMATRIX@@H@Z 10001e30 f i Ax_wire0.obj
 0001:00000e50       ?TransformObjectToView@CDrObject@@UAEXPAUMATRIX@@@Z 10001e50 f i Ax_wire0.obj
 0001:00000e70       ?TransformObjectToViewDirect@CDrObject@@UAEXPAUMATRIX@@00H@Z 10001e70 f i Ax_wire0.obj
 0001:00000e90       ?RemoveHiddenObject@CDrObject@@UAEHPAUMATRIX@@UWORLD@@H@Z 10001e90 f i Ax_wire0.obj
 0001:00000eb0       ?ProjectObject@CDrObject@@UAEXPAUMATRIX@@NN@Z 10001eb0 f i Ax_wire0.obj
 0001:00000ed0       ?Calc_2DBoundsScreen@CDrObject@@UAEHXZ 10001ed0 f i Ax_wire0.obj
 0001:00000ef0       ?Calc_3DBoundsLocal@CDrObject@@UAEHXZ 10001ef0 f i Ax_wire0.obj
 0001:00000f10       ?FinishObject@CDrObject@@UAEXPAVCClientDC@@H@Z 10001f10 f i Ax_wire0.obj
 0001:00000f30       ?FinishObject@CDrObject@@UAEXH@Z 10001f30 f i Ax_wire0.obj
 0001:00000f50       ?FinishObject@CDrObject@@UAEXXZ 10001f50 f i Ax_wire0.obj
 0001:00000f70       ?GetMaxCorners@CDrObject@@UAEHXZ 10001f70 f i Ax_wire0.obj
 0001:00000f90       ?GetRawCoords@CDrObject@@UAEXPAJPAHH@Z 10001f90 f i Ax_wire0.obj
 0001:00000fb0       ?SetProjectedCoords@CDrObject@@UAEXUtagPOINT@@H@Z 10001fb0 f i Ax_wire0.obj
 0001:00000fd0       ?RearrangeProjectedCoords@CDrObject@@UAEXXZ 10001fd0 f i Ax_wire0.obj
 0001:00000ff0       ?IsObjectHit@CDrObject@@UAEHNUWORLD@@@Z 10001ff0 f i Ax_wire0.obj
 0001:00001010       ?IsObjectHit@CDrObject@@UAEHHUtagPOINT@@H@Z 10002010 f i Ax_wire0.obj
 0001:00001030       ?IsObjectHit@CDrObject@@UAEHHUtagPOINT@@@Z 10002030 f i Ax_wire0.obj
 0001:00001050       ?IsObjectHit@CDrObject@@UAEHPAVCClientDC@@HUtagPOINT@@PAVCRect@@H@Z 10002050 f i Ax_wire0.obj
 0001:00001070       ?IsKeyMatch@CDrObject@@UAEHPAV1@VCString@@I@Z 10002070 f i Ax_wire0.obj
 0001:000010a0       ?IsKeyMatch@CDrObject@@UAEHVCString@@I@Z 100020a0 f i Ax_wire0.obj
 0001:000010d0       ?IsControlShapeNeeded@CDrObject@@UAEHXZ 100020d0 f i Ax_wire0.obj
 0001:000010f0       ?SetControlShapeNeed@CDrObject@@UAEXH@Z 100020f0 f i Ax_wire0.obj
 0001:00001110       ?IsNormalNeeded@CDrObject@@UAEHXZ 10002110 f i Ax_wire0.obj
 0001:00001130       ?SetNormalNeed@CDrObject@@UAEXH@Z 10002130 f i Ax_wire0.obj
 0001:00001150       ?IsCulled@CDrObject@@UAEHXZ 10002150 f i Ax_wire0.obj
 0001:00001170       ?SetCulled@CDrObject@@UAEXH@Z 10002170 f i Ax_wire0.obj
 0001:00001190       ?IsSkewed@CDrObject@@UAEHXZ 10002190 f i Ax_wire0.obj
 0001:000011b0       ?SetSkewed@CDrObject@@UAEXH@Z 100021b0 f i Ax_wire0.obj
 0001:000011d0       ?IsLinSpr@CDrObject@@UAEHXZ 100021d0 f i Ax_wire0.obj
 0001:000011f0       ?SetLinSpr@CDrObject@@UAEXH@Z 100021f0 f i Ax_wire0.obj
 0001:00001210       ?IsLinSnu@CDrObject@@UAEHXZ 10002210 f i Ax_wire0.obj
 0001:00001230       ?SetLinSnu@CDrObject@@UAEXH@Z 10002230 f i Ax_wire0.obj
 0001:00001250       ?CullWorld@CDrObject@@UAEHUWORLD@@@Z 10002250 f i Ax_wire0.obj
 0001:00001270       ?CullScreen@CDrObject@@UAEHPAUMATRIX@@@Z 10002270 f i Ax_wire0.obj
 0001:00001290       ?Calc_CentroidWorld@CDrObject@@UAEXXZ 10002290 f i Ax_wire0.obj
 0001:000012b0       ?Calc_CentroidEye@CDrObject@@UAEXXZ 100022b0 f i Ax_wire0.obj
 0001:000012d0       ?Calc_CentroidScreen3D@CDrObject@@UAEXNN@Z 100022d0 f i Ax_wire0.obj
 0001:000012f0       ?Calc_NormalWorld@CDrObject@@UAEXXZ 100022f0 f i Ax_wire0.obj
 0001:00001310       ?TransformNormalToEye@CDrObject@@UAEXPAUMATRIX@@@Z 10002310 f i Ax_wire0.obj
 0001:00001330       ?ProjectNormalToScreen3D@CDrObject@@UAEXPAUMATRIX@@NN@Z 10002330 f i Ax_wire0.obj
 0001:00001350       ?GetNormalWorld@CDrObject@@UAEPAUWORLD@@XZ 10002350 f i Ax_wire0.obj
 0001:00001370       ?SetNormalWorld@CDrObject@@UAEXUWORLD@@@Z 10002370 f i Ax_wire0.obj
 0001:00001390       ?GetNormalEye@CDrObject@@UAEPAUWORLD@@XZ 10002390 f i Ax_wire0.obj
 0001:000013b0       ?SetNormalEye@CDrObject@@UAEXUWORLD@@@Z 100023b0 f i Ax_wire0.obj
 0001:000013d0       ?GetNormalScreen3D@CDrObject@@UAEPAUWORLD@@XZ 100023d0 f i Ax_wire0.obj
 0001:000013f0       ?SetNormalScreen3D@CDrObject@@UAEXUWORLD@@@Z 100023f0 f i Ax_wire0.obj
 0001:00001410       ?GetNormalScreen2D@CDrObject@@UAEPAUtagPOINT@@XZ 10002410 f i Ax_wire0.obj
 0001:00001430       ?SetNormalScreen2D@CDrObject@@UAEXUtagPOINT@@@Z 10002430 f i Ax_wire0.obj
 0001:00001450       ?GetObjectList@CDrObject@@UAEPAVCDListMgr@@XZ 10002450 f i Ax_wire0.obj
 0001:00001470       ?GetBoundingRect@CDrObject@@QAE?AVCRect@@XZ 10002470 f i Ax_wire0.obj
 0001:000014b0       ?GetRInfo@CDrObject@@QAEPAURENDINFO@@XZ 100024b0 f i Ax_wire0.obj
 0001:000014d0       ?IsParallel@CDrObject@@QAEHXZ 100024d0 f i Ax_wire0.obj
 0001:000014f0       ?GetnView@CDrObject@@QAEHXZ 100024f0 f i Ax_wire0.obj
 0001:00001510       ?GetdzMin@CDrObject@@QAENXZ 10002510 f i Ax_wire0.obj
 0001:00001530       ?GetdScale_U@CDrObject@@QAENXZ 10002530 f i Ax_wire0.obj
 0001:00001550       ?GetdScale_V@CDrObject@@QAENXZ 10002550 f i Ax_wire0.obj
 0001:00001570       ?GetpViewM@CDrObject@@QAEPAUMATRIX@@XZ 10002570 f i Ax_wire0.obj
 0001:00001590       ?Getpvv3DM@CDrObject@@QAEPAUMATRIX@@XZ 10002590 f i Ax_wire0.obj
 0001:000015b0       ?GetpComposedM@CDrObject@@QAEPAUMATRIX@@XZ 100025b0 f i Ax_wire0.obj
 0001:000015d0       ?SetParallel@CDrObject@@QAEXH@Z 100025d0 f i Ax_wire0.obj
 0001:00001600       ?SetnView@CDrObject@@QAEXH@Z 10002600 f i Ax_wire0.obj
 0001:00001630       ?SetdzMin@CDrObject@@QAEXN@Z 10002630 f i Ax_wire0.obj
 0001:00001660       ?SetdScale_U@CDrObject@@QAEXN@Z 10002660 f i Ax_wire0.obj
 0001:00001690       ?SetdScale_V@CDrObject@@QAEXN@Z 10002690 f i Ax_wire0.obj
 0001:000016c0       ?SetpViewM@CDrObject@@QAEXPAUMATRIX@@@Z 100026c0 f i Ax_wire0.obj
 0001:000016f0       ?Setpvv3DM@CDrObject@@QAEXPAUMATRIX@@@Z 100026f0 f i Ax_wire0.obj
 0001:00001720       ?SetpComposedM@CDrObject@@QAEXPAUMATRIX@@@Z 10002720 f i Ax_wire0.obj
 0001:00001750       ?GetLevelType@CDrObject@@QAEHXZ 10002750 f i Ax_wire0.obj
 0001:00001770       ?SetLevelType@CDrObject@@QAEXH@Z 10002770 f i Ax_wire0.obj
 0001:000017a0       ?GetObjectID@CDrObject@@QAE?AVCString@@XZ 100027a0 f i Ax_wire0.obj
 0001:000017e0       ?SetObjectID@CDrObject@@QAEXVCString@@@Z 100027e0 f i Ax_wire0.obj
 0001:00001840       ?GetObjectNo@CDrObject@@QAEJXZ 10002840 f i Ax_wire0.obj
 0001:00001860       ?SetObjectNo@CDrObject@@QAEXJ@Z 10002860 f i Ax_wire0.obj
 0001:00001890       ?GetObjectType@CDrObject@@QAEHXZ 10002890 f i Ax_wire0.obj
 0001:000018b0       ?SetObjectType@CDrObject@@QAEXH@Z 100028b0 f i Ax_wire0.obj
 0001:000018e0       ?GetElemType@CDrObject@@QAEHXZ 100028e0 f i Ax_wire0.obj
 0001:00001900       ?SetElemType@CDrObject@@QAEXH@Z 10002900 f i Ax_wire0.obj
 0001:00001930       ?GetPenInfo@CDrObject@@QAEXAAIAAK0@Z 10002930 f i Ax_wire0.obj
 0001:00001970       ?SetPenInfo@CDrObject@@QAEXIKI@Z 10002970 f i Ax_wire0.obj
 0001:000019b0       ?GetPenInfoHi@CDrObject@@QAEXAAIAAK0@Z 100029b0 f i Ax_wire0.obj
 0001:000019f0       ?SetPenInfoHi@CDrObject@@QAEXIKI@Z 100029f0 f i Ax_wire0.obj
 0001:00001a30       ?GetLayer@CDrObject@@QAEIXZ 10002a30 f i Ax_wire0.obj
 0001:00001a50       ?SetLayer@CDrObject@@QAEXI@Z 10002a50 f i Ax_wire0.obj
 0001:00001a80       ?IsClipped@CDrObject@@QAEHXZ 10002a80 f i Ax_wire0.obj
 0001:00001aa0       ?SetClipped@CDrObject@@QAEXH@Z 10002aa0 f i Ax_wire0.obj
 0001:00001ad0       ?IsVirtual@CDrObject@@QAEHXZ 10002ad0 f i Ax_wire0.obj
 0001:00001af0       ?SetVirtual@CDrObject@@QAEXH@Z 10002af0 f i Ax_wire0.obj
 0001:00001b10       ?IsShow@CDrObject@@QAEHXZ  10002b10 f i Ax_wire0.obj
 0001:00001b30       ?SetShow@CDrObject@@QAEXH@Z 10002b30 f i Ax_wire0.obj
 0001:00001b60       ?GetParentID@CDrObject@@QAEAAVCString@@XZ 10002b60 f i Ax_wire0.obj
 0001:00001b80       ?SetParentID@CDrObject@@QAEXAAVCString@@@Z 10002b80 f i Ax_wire0.obj
 0001:00001bb0       ?GetParentType@CDrObject@@QAEIXZ 10002bb0 f i Ax_wire0.obj
 0001:00001bd0       ?SetParentType@CDrObject@@QAEXI@Z 10002bd0 f i Ax_wire0.obj
 0001:00001bf0       ?IsInstanced@CDrObject@@QAEHXZ 10002bf0 f i Ax_wire0.obj
 0001:00001c10       ?SetInstanced@CDrObject@@QAEXH@Z 10002c10 f i Ax_wire0.obj
 0001:00001c30       ?GetMatObj@CDrObject@@QAEPAVCMatObj@@XZ 10002c30 f i Ax_wire0.obj
 0001:00001c50       ?SetMatObj@CDrObject@@QAEXPAVCMatObj@@@Z 10002c50 f i Ax_wire0.obj
 0001:00001c70       ?GetSpeLList@CDrObject@@QAEPAVCDListMgr@@XZ 10002c70 f i Ax_wire0.obj
 0001:00001c90       ?GetDynLList@CDrObject@@QAEPAVCDListMgr@@XZ 10002c90 f i Ax_wire0.obj
 0001:00001cb0       ?GetStaLList@CDrObject@@QAEPAVCDListMgr@@XZ 10002cb0 f i Ax_wire0.obj
 0001:00001cd0       ?GetSuppList@CDrObject@@QAEPAVCDListMgr@@XZ 10002cd0 f i Ax_wire0.obj
 0001:00001cf0       ?GetElemList@CDrObject@@QAEPAVCDListMgr@@XZ 10002cf0 f i Ax_wire0.obj
 0001:00001d10       ?GetCurveList@CDrObject@@QAEPAVCDListMgr@@XZ 10002d10 f i Ax_wire0.obj
 0001:00001d30       ?GetCProfList@CDrObject@@QAEPAVCDListMgr@@XZ 10002d30 f i Ax_wire0.obj
 0001:00001d50       ?GetPatchList@CDrObject@@QAEPAVCDListMgr@@XZ 10002d50 f i Ax_wire0.obj
 0001:00001d70       ?GetSolidList@CDrObject@@QAEPAVCDListMgr@@XZ 10002d70 f i Ax_wire0.obj
 0001:00001d90       ?GetObj3DList@CDrObject@@QAEPAVCDListMgr@@XZ 10002d90 f i Ax_wire0.obj
 0001:00001db0       ?GetCNodeList@CDrObject@@QAEPAVCDListMgr@@XZ 10002db0 f i Ax_wire0.obj
 0001:00001dd0       ?GetINodeList@CDrObject@@QAEPAVCDListMgr@@XZ 10002dd0 f i Ax_wire0.obj
 0001:00001df0       ?GetNodeList@CDrObject@@QAEPAVCDListMgr@@XZ 10002df0 f i Ax_wire0.obj
 0001:00001e10       ?GetLabelList@CDrObject@@QAEPAVCDListMgr@@XZ 10002e10 f i Ax_wire0.obj
 0001:00001e30       ?GetFE0DList@CDrObject@@QAEPAVCDListMgr@@XZ 10002e30 f i Ax_wire0.obj
 0001:00001e50       ?GetFE1DList@CDrObject@@QAEPAVCDListMgr@@XZ 10002e50 f i Ax_wire0.obj
 0001:00001e70       ?GetFE2DList@CDrObject@@QAEPAVCDListMgr@@XZ 10002e70 f i Ax_wire0.obj
 0001:00001e90       ?GetFE3DList@CDrObject@@QAEPAVCDListMgr@@XZ 10002e90 f i Ax_wire0.obj
 0001:00001eb0       ?GetMs0List@CDrObject@@QAEPAVCDListMgr@@XZ 10002eb0 f i Ax_wire0.obj
 0001:00001ed0       ?GetMs1List@CDrObject@@QAEPAVCDListMgr@@XZ 10002ed0 f i Ax_wire0.obj
 0001:00001ef0       ?GetMs2List@CDrObject@@QAEPAVCDListMgr@@XZ 10002ef0 f i Ax_wire0.obj
 0001:00001f10       ?GetMs3List@CDrObject@@QAEPAVCDListMgr@@XZ 10002f10 f i Ax_wire0.obj
 0001:00001f30       ?GetMbj3DList@CDrObject@@QAEPAVCDListMgr@@XZ 10002f30 f i Ax_wire0.obj
 0001:00001f50       ?GetM2DProfList@CDrObject@@QAEPAVCDListMgr@@XZ 10002f50 f i Ax_wire0.obj
 0001:00001f70       ?GetM3DProfList@CDrObject@@QAEPAVCDListMgr@@XZ 10002f70 f i Ax_wire0.obj
 0001:00001f90       ?GetMbjProfList@CDrObject@@QAEPAVCDListMgr@@XZ 10002f90 f i Ax_wire0.obj
 0001:00001fb0       ?GetScreen2DCorner@CDrObject@@UAE?AUtagPOINT@@H@Z 10002fb0 f i Ax_wire0.obj
 0001:00001ff0       ?SetScreen2DCorner@CDrObject@@UAEXUtagPOINT@@H@Z 10002ff0 f i Ax_wire0.obj
 0001:00002020       ?GetSpawnType@CDrObject@@QAE?AW4SPAWNTYPE@@XZ 10003020 f i Ax_wire0.obj
 0001:00002040       ?SetSpawnType@CDrObject@@QAEXW4SPAWNTYPE@@@Z 10003040 f i Ax_wire0.obj
 0001:00002060       ?GetCategory@CDrObject@@QAE?AW4CATEGORY@@XZ 10003060 f i Ax_wire0.obj
 0001:00002080       ?SetCategory@CDrObject@@QAEXW4CATEGORY@@@Z 10003080 f i Ax_wire0.obj
 0001:000020a0       ?GetSubCat@CDrObject@@QAE?AW4SUBCAT@@XZ 100030a0 f i Ax_wire0.obj
 0001:000020c0       ?SetSubCat@CDrObject@@QAEXW4SUBCAT@@@Z 100030c0 f i Ax_wire0.obj
 0001:000020e0       ?GetElemDimLim@CDrObject@@QAE?AW4ELEMDIMLIM@@XZ 100030e0 f i Ax_wire0.obj
 0001:00002100       ?SetElemDimLim@CDrObject@@QAEXW4ELEMDIMLIM@@@Z 10003100 f i Ax_wire0.obj
 0001:00002120       ?IsDirty@CDrObject@@QAEHXZ 10003120 f i Ax_wire0.obj
 0001:00002150       ?SetDirty@CDrObject@@QAEXH@Z 10003150 f i Ax_wire0.obj
 0001:00002180       ?IsMoved@CDrObject@@QAEHXZ 10003180 f i Ax_wire0.obj
 0001:000021a0       ?SetMoved@CDrObject@@QAEXH@Z 100031a0 f i Ax_wire0.obj
 0001:000021d0       ?IsEdited@CDrObject@@QAEHXZ 100031d0 f i Ax_wire0.obj
 0001:000021f0       ?SetEdited@CDrObject@@QAEXH@Z 100031f0 f i Ax_wire0.obj
 0001:00002220       ?IsPosted@CDrObject@@QAEHXZ 10003220 f i Ax_wire0.obj
 0001:00002240       ?SetPosted@CDrObject@@QAEXH@Z 10003240 f i Ax_wire0.obj
 0001:00002270       ?IsDeleted@CDrObject@@QAEHXZ 10003270 f i Ax_wire0.obj
 0001:00002290       ?SetDeleted@CDrObject@@QAEXH@Z 10003290 f i Ax_wire0.obj
 0001:000022c0       ?IsToBeMoved@CDrObject@@QAEHXZ 100032c0 f i Ax_wire0.obj
 0001:000022e0       ?SetToBeMoved@CDrObject@@QAEXH@Z 100032e0 f i Ax_wire0.obj
 0001:00002300       ?IsToBeEdited@CDrObject@@QAEHXZ 10003300 f i Ax_wire0.obj
 0001:00002320       ?SetToBeEdited@CDrObject@@QAEXH@Z 10003320 f i Ax_wire0.obj
 0001:00002340       ?IsToBePosted@CDrObject@@QAEHXZ 10003340 f i Ax_wire0.obj
 0001:00002360       ?SetToBePosted@CDrObject@@QAEXH@Z 10003360 f i Ax_wire0.obj
 0001:00002380       ?IsToBeUnPosted@CDrObject@@QAEHXZ 10003380 f i Ax_wire0.obj
 0001:000023a0       ?SetToBeUnPosted@CDrObject@@QAEXH@Z 100033a0 f i Ax_wire0.obj
 0001:000023c0       ?IsToBeDeleted@CDrObject@@QAEHXZ 100033c0 f i Ax_wire0.obj
 0001:000023e0       ?SetToBeDeleted@CDrObject@@QAEXH@Z 100033e0 f i Ax_wire0.obj
 0001:00002400       ?IsFormatted@CDrObject@@QAEHXZ 10003400 f i Ax_wire0.obj
 0001:00002420       ?SetFormatted@CDrObject@@QAEXH@Z 10003420 f i Ax_wire0.obj
 0001:00002440       ?GetObjectType@CBooleans@@UAEHXZ 10003440 f i Ax_wire0.obj
 0001:00002460       ?SetObjectType@CBooleans@@UAEXH@Z 10003460 f i Ax_wire0.obj
 0001:00002490       ?GetElemType@CBooleans@@UAEHXZ 10003490 f i Ax_wire0.obj
 0001:000024b0       ?SetElemType@CBooleans@@UAEXH@Z 100034b0 f i Ax_wire0.obj
 0001:000024e0       ?GetObjectNo@CBooleans@@UAEJXZ 100034e0 f i Ax_wire0.obj
 0001:00002500       ?SetObjectNo@CBooleans@@UAEXJ@Z 10003500 f i Ax_wire0.obj
 0001:00002530       ?IsSoundOn@CBooleans@@UAEHXZ 10003530 f i Ax_wire0.obj
 0001:00002550       ?ToggleSoundOn@CBooleans@@UAEXXZ 10003550 f i Ax_wire0.obj
 0001:00002580       ?IsCoonSocksOff@CBooleans@@UAEHXZ 10003580 f i Ax_wire0.obj
 0001:000025a0       ?ToggleCoonSocksOff@CBooleans@@UAEXXZ 100035a0 f i Ax_wire0.obj
 0001:000025d0       ?IsSnapOn@CBooleans@@UAEHXZ 100035d0 f i Ax_wire0.obj
 0001:000025f0       ?ToggleSnapOn@CBooleans@@UAEXXZ 100035f0 f i Ax_wire0.obj
 0001:00002620       ?IsHorSnapOn@CBooleans@@UAEHXZ 10003620 f i Ax_wire0.obj
 0001:00002640       ?ToggleHorSnapOn@CBooleans@@UAEXXZ 10003640 f i Ax_wire0.obj
 0001:00002670       ?IsVerSnapOn@CBooleans@@UAEHXZ 10003670 f i Ax_wire0.obj
 0001:00002690       ?ToggleVerSnapOn@CBooleans@@UAEXXZ 10003690 f i Ax_wire0.obj
 0001:000026c0       ?IsSpawnOn@CBooleans@@UAEHXZ 100036c0 f i Ax_wire0.obj
 0001:000026e0       ?ToggleSpawnOn@CBooleans@@UAEXXZ 100036e0 f i Ax_wire0.obj
 0001:00002710       ?IsBLineOn@CBooleans@@UAEHXZ 10003710 f i Ax_wire0.obj
 0001:00002730       ?ToggleBLineOn@CBooleans@@UAEXXZ 10003730 f i Ax_wire0.obj
 0001:00002760       ?IsSingleSegOn@CBooleans@@UAEHXZ 10003760 f i Ax_wire0.obj
 0001:00002780       ?ToggleSingleSegOn@CBooleans@@UAEXXZ 10003780 f i Ax_wire0.obj
 0001:000027b0       ?IsAutoAcceptOn@CBooleans@@UAEHXZ 100037b0 f i Ax_wire0.obj
 0001:000027d0       ?ToggleAutoAcceptOn@CBooleans@@UAEXXZ 100037d0 f i Ax_wire0.obj
 0001:00002800       ?IsDialogOn@CBooleans@@UAEHXZ 10003800 f i Ax_wire0.obj
 0001:00002820       ?ToggleDialogOn@CBooleans@@UAEXXZ 10003820 f i Ax_wire0.obj
 0001:00002850       ?IsElementOn@CBooleans@@UAEHXZ 10003850 f i Ax_wire0.obj
 0001:00002870       ?ToggleElementOn@CBooleans@@UAEXXZ 10003870 f i Ax_wire0.obj
 0001:000028a0       ?IsDragOn@CBooleans@@UAEHXZ 100038a0 f i Ax_wire0.obj
 0001:000028c0       ?ToggleDragOn@CBooleans@@UAEXXZ 100038c0 f i Ax_wire0.obj
 0001:000028f0       ?IsRefreshOn@CBooleans@@UAEHXZ 100038f0 f i Ax_wire0.obj
 0001:00002910       ?ToggleRefreshOn@CBooleans@@UAEXXZ 10003910 f i Ax_wire0.obj
 0001:00002940       ?IsRubberBandOn@CBooleans@@UAEHXZ 10003940 f i Ax_wire0.obj
 0001:00002960       ?ToggleRubberBandOn@CBooleans@@UAEXXZ 10003960 f i Ax_wire0.obj
 0001:00002990       ?IsStViewActive@CBooleans@@UAEHXZ 10003990 f i Ax_wire0.obj
 0001:000029b0       ?ToggleStViewActive@CBooleans@@UAEXXZ 100039b0 f i Ax_wire0.obj
 0001:000029e0       ?IsSpViewActive@CBooleans@@UAEHXZ 100039e0 f i Ax_wire0.obj
 0001:00002a00       ?ToggleSpViewActive@CBooleans@@UAEXXZ 10003a00 f i Ax_wire0.obj
 0001:00002a30       ?IsHsViewActive@CBooleans@@UAEHXZ 10003a30 f i Ax_wire0.obj
 0001:00002a50       ?ToggleHsViewActive@CBooleans@@UAEXXZ 10003a50 f i Ax_wire0.obj
 0001:00002a80       ?Is12ViewActive@CBooleans@@UAEHXZ 10003a80 f i Ax_wire0.obj
 0001:00002aa0       ?Toggle12ViewActive@CBooleans@@UAEXXZ 10003aa0 f i Ax_wire0.obj
 0001:00002ad0       ?Is23ViewActive@CBooleans@@UAEHXZ 10003ad0 f i Ax_wire0.obj
 0001:00002af0       ?Toggle23ViewActive@CBooleans@@UAEXXZ 10003af0 f i Ax_wire0.obj
 0001:00002b20       ?Is31ViewActive@CBooleans@@UAEHXZ 10003b20 f i Ax_wire0.obj
 0001:00002b40       ?Toggle31ViewActive@CBooleans@@UAEXXZ 10003b40 f i Ax_wire0.obj
 0001:00002b70       ?IsIsoViewActive@CBooleans@@UAEHXZ 10003b70 f i Ax_wire0.obj
 0001:00002b90       ?ToggleIsoViewActive@CBooleans@@UAEXXZ 10003b90 f i Ax_wire0.obj
 0001:00002bc0       ?IsDataViewActive@CBooleans@@UAEHXZ 10003bc0 f i Ax_wire0.obj
 0001:00002be0       ?ToggleDataViewActive@CBooleans@@UAEXXZ 10003be0 f i Ax_wire0.obj
 0001:00002c10       ?IsMeshDataViewActive@CBooleans@@UAEHXZ 10003c10 f i Ax_wire0.obj
 0001:00002c30       ?ToggleMeshDataViewActive@CBooleans@@UAEXXZ 10003c30 f i Ax_wire0.obj
 0001:00002c60       ?IsDeckViewActive@CBooleans@@UAEHXZ 10003c60 f i Ax_wire0.obj
 0001:00002c80       ?ToggleDeckViewActive@CBooleans@@UAEXXZ 10003c80 f i Ax_wire0.obj
 0001:00002cb0       ?IsFormDataViewActive@CBooleans@@UAEHXZ 10003cb0 f i Ax_wire0.obj
 0001:00002cd0       ?ToggleFormDataViewActive@CBooleans@@UAEXXZ 10003cd0 f i Ax_wire0.obj
 0001:00002d00       ?IsInputMode@CBooleans@@UAEHXZ 10003d00 f i Ax_wire0.obj
 0001:00002d20       ?SetInputMode@CBooleans@@UAEXH@Z 10003d20 f i Ax_wire0.obj
 0001:00002d50       ?IsOutputMode@CBooleans@@UAEHXZ 10003d50 f i Ax_wire0.obj
 0001:00002d70       ?SetOutputMode@CBooleans@@UAEXH@Z 10003d70 f i Ax_wire0.obj
 0001:00002da0       ??1CBooleans@@UAE@XZ       10003da0 f i Ax_wire0.obj
 0001:00002dd0       ??_GCBooleans@@UAEPAXI@Z   10003dd0 f i Ax_wire0.obj
 0001:00002e10       ??_ECBooleans@@UAEPAXI@Z   10003e10 f i Ax_wire0.obj
 0001:00002e90       ?GetObjectType@CDataWindow@@UAEHXZ 10003e90 f i Ax_wire0.obj
 0001:00002eb0       ?SetObjectType@CDataWindow@@UAEXH@Z 10003eb0 f i Ax_wire0.obj
 0001:00002ee0       ?GetElemType@CDataWindow@@UAEHXZ 10003ee0 f i Ax_wire0.obj
 0001:00002f00       ?SetElemType@CDataWindow@@UAEXH@Z 10003f00 f i Ax_wire0.obj
 0001:00002f30       ?GetObjectNo@CDataWindow@@UAEJXZ 10003f30 f i Ax_wire0.obj
 0001:00002f50       ?SetObjectNo@CDataWindow@@UAEXJ@Z 10003f50 f i Ax_wire0.obj
 0001:00002f80       ?GetWinOrgWIC@CDataWindow@@UAE?AULPOINT3@@XZ 10003f80 f i Ax_wire0.obj
 0001:00002fc0       ?GetWinMinWIC@CDataWindow@@UAE?AULPOINT3@@XZ 10003fc0 f i Ax_wire0.obj
 0001:00003000       ?GetWinMaxWIC@CDataWindow@@UAE?AULPOINT3@@XZ 10004000 f i Ax_wire0.obj
 0001:00003040       ?GetWinExtWIC@CDataWindow@@UAE?AULPOINT3@@XZ 10004040 f i Ax_wire0.obj
 0001:00003080       ??1CDataWindow@@UAE@XZ     10004080 f i Ax_wire0.obj
 0001:000030b0       ??_GCDataWindow@@UAEPAXI@Z 100040b0 f i Ax_wire0.obj
 0001:000030f0       ??_ECDataWindow@@UAEPAXI@Z 100040f0 f i Ax_wire0.obj
 0001:00003170       ?GetObjectType@CDrFont@@UAEHXZ 10004170 f i Ax_wire0.obj
 0001:00003190       ?SetObjectType@CDrFont@@UAEXH@Z 10004190 f i Ax_wire0.obj
 0001:000031c0       ?GetElemType@CDrFont@@UAEHXZ 100041c0 f i Ax_wire0.obj
 0001:000031e0       ?SetElemType@CDrFont@@UAEXH@Z 100041e0 f i Ax_wire0.obj
 0001:00003210       ?GetObjectNo@CDrFont@@UAEJXZ 10004210 f i Ax_wire0.obj
 0001:00003230       ?SetObjectNo@CDrFont@@UAEXJ@Z 10004230 f i Ax_wire0.obj
 0001:00003260       ?IsFontSelected@CDrFont@@UAEHXZ 10004260 f i Ax_wire0.obj
 0001:00003280       ?GetTextColor@CDrFont@@UAEKXZ 10004280 f i Ax_wire0.obj
 0001:000032a0       ?SetTextColor@CDrFont@@UAEXK@Z 100042a0 f i Ax_wire0.obj
 0001:000032d0       ?GetCurrentLogFont@CDrFont@@UAE?AUtagLOGFONTA@@XZ 100042d0 f i Ax_wire0.obj
 0001:00003300       ?SetCurrentLogFont@CDrFont@@UAEXUtagLOGFONTA@@@Z 10004300 f i Ax_wire0.obj
 0001:00003330       ??1CDrFont@@UAE@XZ         10004330 f i Ax_wire0.obj
 0001:00003360       ??_GCDrFont@@UAEPAXI@Z     10004360 f i Ax_wire0.obj
 0001:000033a0       ??_ECDrFont@@UAEPAXI@Z     100043a0 f i Ax_wire0.obj
 0001:00003420       ?GetObjectType@CDrPen@@UAEHXZ 10004420 f i Ax_wire0.obj
 0001:00003440       ?SetObjectType@CDrPen@@UAEXH@Z 10004440 f i Ax_wire0.obj
 0001:00003470       ?GetElemType@CDrPen@@UAEHXZ 10004470 f i Ax_wire0.obj
 0001:00003490       ?SetElemType@CDrPen@@UAEXH@Z 10004490 f i Ax_wire0.obj
 0001:000034c0       ?GetObjectNo@CDrPen@@UAEJXZ 100044c0 f i Ax_wire0.obj
 0001:000034e0       ?SetObjectNo@CDrPen@@UAEXJ@Z 100044e0 f i Ax_wire0.obj
 0001:00003510       ?GetCurrentPen@CDrPen@@UAEPAVCPen@@XZ 10004510 f i Ax_wire0.obj
 0001:00003530       ?GetStyle@CDrPen@@UAEHXZ   10004530 f i Ax_wire0.obj
 0001:00003550       ?SetStyle@CDrPen@@UAEXH@Z  10004550 f i Ax_wire0.obj
 0001:00003580       ?GetStyleOld@CDrPen@@UAEHXZ 10004580 f i Ax_wire0.obj
 0001:000035a0       ?SetStyleOld@CDrPen@@UAEXH@Z 100045a0 f i Ax_wire0.obj
 0001:000035d0       ?GetStyleDefault@CDrPen@@UAEHXZ 100045d0 f i Ax_wire0.obj
 0001:000035f0       ?SetStyleDefault@CDrPen@@UAEXH@Z 100045f0 f i Ax_wire0.obj
 0001:00003620       ?GetWidth@CDrPen@@UAEHXZ   10004620 f i Ax_wire0.obj
 0001:00003640       ?SetWidth@CDrPen@@UAEXH@Z  10004640 f i Ax_wire0.obj
 0001:00003670       ?GetWidthOld@CDrPen@@UAEHXZ 10004670 f i Ax_wire0.obj
 0001:00003690       ?SetWidthOld@CDrPen@@UAEXH@Z 10004690 f i Ax_wire0.obj
 0001:000036c0       ?GetWidthDefault@CDrPen@@UAEHXZ 100046c0 f i Ax_wire0.obj
 0001:000036e0       ?SetWidthDefault@CDrPen@@UAEXH@Z 100046e0 f i Ax_wire0.obj
 0001:00003710       ?GetColor@CDrPen@@UAEKXZ   10004710 f i Ax_wire0.obj
 0001:00003730       ?SetColor@CDrPen@@UAEXK@Z  10004730 f i Ax_wire0.obj
 0001:00003760       ?GetColorOld@CDrPen@@UAEKXZ 10004760 f i Ax_wire0.obj
 0001:00003780       ?SetColorOld@CDrPen@@UAEXK@Z 10004780 f i Ax_wire0.obj
 0001:000037b0       ?GetColorDefault@CDrPen@@UAEKXZ 100047b0 f i Ax_wire0.obj
 0001:000037d0       ?SetColorDefault@CDrPen@@UAEXK@Z 100047d0 f i Ax_wire0.obj
 0001:00003800       ?GetIndex@CDrPen@@UAEIXZ   10004800 f i Ax_wire0.obj
 0001:00003820       ?SetIndex@CDrPen@@UAEXI@Z  10004820 f i Ax_wire0.obj
 0001:00003850       ?GetIndexOld@CDrPen@@UAEIXZ 10004850 f i Ax_wire0.obj
 0001:00003870       ?SetIndexOld@CDrPen@@UAEXI@Z 10004870 f i Ax_wire0.obj
 0001:000038a0       ?GetIndexDefault@CDrPen@@UAEIXZ 100048a0 f i Ax_wire0.obj
 0001:000038c0       ?SetIndexDefault@CDrPen@@UAEXI@Z 100048c0 f i Ax_wire0.obj
 0001:000038f0       ?GetStyleNameCount@CDrPen@@UAEIXZ 100048f0 f i Ax_wire0.obj
 0001:00003910       ?SetStyleNameCount@CDrPen@@UAEXI@Z 10004910 f i Ax_wire0.obj
 0001:00003940       ?GetStyleName@CDrPen@@UAE?AVCString@@I@Z 10004940 f i Ax_wire0.obj
 0001:00003980       ?GetStyleConstant@CDrPen@@UAEII@Z 10004980 f i Ax_wire0.obj
 0001:000039b0       ??1CDrPen@@UAE@XZ          100049b0 f i Ax_wire0.obj
 0001:00003a30       ??_GCDrPen@@UAEPAXI@Z      10004a30 f i Ax_wire0.obj
 0001:00003a70       ??_ECDrPen@@UAEPAXI@Z      10004a70 f i Ax_wire0.obj
 0001:00003af0       ?GetObjectType@CHitNet@@UAEHXZ 10004af0 f i Ax_wire0.obj
 0001:00003b10       ?SetObjectType@CHitNet@@UAEXH@Z 10004b10 f i Ax_wire0.obj
 0001:00003b40       ?GetElemType@CHitNet@@UAEHXZ 10004b40 f i Ax_wire0.obj
 0001:00003b60       ?SetElemType@CHitNet@@UAEXH@Z 10004b60 f i Ax_wire0.obj
 0001:00003b90       ?GetObjectNo@CHitNet@@UAEJXZ 10004b90 f i Ax_wire0.obj
 0001:00003bb0       ?SetObjectNo@CHitNet@@UAEXJ@Z 10004bb0 f i Ax_wire0.obj
 0001:00003be0       ?GetSearchNet@CHitNet@@QAEHXZ 10004be0 f i Ax_wire0.obj
 0001:00003c00       ?SetSearchNet@CHitNet@@QAEXH@Z 10004c00 f i Ax_wire0.obj
 0001:00003c30       ?GetSearchNetOld@CHitNet@@QAEHXZ 10004c30 f i Ax_wire0.obj
 0001:00003c50       ?SetSearchNetOld@CHitNet@@QAEXH@Z 10004c50 f i Ax_wire0.obj
 0001:00003c80       ?GetSearchNetDefault@CHitNet@@QAEHXZ 10004c80 f i Ax_wire0.obj
 0001:00003ca0       ?SetSearchNetDefault@CHitNet@@QAEXH@Z 10004ca0 f i Ax_wire0.obj
 0001:00003cd0       ?GetSearchDet@CHitNet@@QAENXZ 10004cd0 f i Ax_wire0.obj
 0001:00003cf0       ?SetSearchDet@CHitNet@@QAEXN@Z 10004cf0 f i Ax_wire0.obj
 0001:00003d20       ?GetSearchDetOld@CHitNet@@QAENXZ 10004d20 f i Ax_wire0.obj
 0001:00003d40       ?SetSearchDetOld@CHitNet@@QAEXN@Z 10004d40 f i Ax_wire0.obj
 0001:00003d70       ?GetSearchDetDefault@CHitNet@@QAENXZ 10004d70 f i Ax_wire0.obj
 0001:00003d90       ?SetSearchDetDefault@CHitNet@@QAEXN@Z 10004d90 f i Ax_wire0.obj
 0001:00003dc0       ?GetDblRatio@CHitNet@@QAENXZ 10004dc0 f i Ax_wire0.obj
 0001:00003de0       ?SetDblRatio@CHitNet@@QAEXN@Z 10004de0 f i Ax_wire0.obj
 0001:00003e10       ?GetDblRatioOld@CHitNet@@QAENXZ 10004e10 f i Ax_wire0.obj
 0001:00003e30       ?SetDblRatioOld@CHitNet@@QAEXN@Z 10004e30 f i Ax_wire0.obj
 0001:00003e60       ?GetDblRatioDefault@CHitNet@@QAENXZ 10004e60 f i Ax_wire0.obj
 0001:00003e80       ?SetDblRatioDefault@CHitNet@@QAEXN@Z 10004e80 f i Ax_wire0.obj
 0001:00003eb0       ?GetCoLinear@CHitNet@@QAENXZ 10004eb0 f i Ax_wire0.obj
 0001:00003ed0       ?SetCoLinear@CHitNet@@QAEXN@Z 10004ed0 f i Ax_wire0.obj
 0001:00003f00       ?GetCoLinearOld@CHitNet@@QAENXZ 10004f00 f i Ax_wire0.obj
 0001:00003f20       ?SetCoLinearOld@CHitNet@@QAEXN@Z 10004f20 f i Ax_wire0.obj
 0001:00003f50       ?GetCoLinearDefault@CHitNet@@QAENXZ 10004f50 f i Ax_wire0.obj
 0001:00003f70       ?SetCoLinearDefault@CHitNet@@QAEXN@Z 10004f70 f i Ax_wire0.obj
 0001:00003fa0       ?GetCoPlanar@CHitNet@@QAENXZ 10004fa0 f i Ax_wire0.obj
 0001:00003fc0       ?SetCoPlanar@CHitNet@@QAEXN@Z 10004fc0 f i Ax_wire0.obj
 0001:00003ff0       ?GetCoPlanarOld@CHitNet@@QAENXZ 10004ff0 f i Ax_wire0.obj
 0001:00004010       ?SetCoPlanarOld@CHitNet@@QAEXN@Z 10005010 f i Ax_wire0.obj
 0001:00004040       ?GetCoPlanarDefault@CHitNet@@QAENXZ 10005040 f i Ax_wire0.obj
 0001:00004060       ?SetCoPlanarDefault@CHitNet@@QAEXN@Z 10005060 f i Ax_wire0.obj
 0001:00004090       ?GetMergeNode_X@CHitNet@@QAENXZ 10005090 f i Ax_wire0.obj
 0001:000040b0       ?SetMergeNode_X@CHitNet@@QAEXN@Z 100050b0 f i Ax_wire0.obj
 0001:000040e0       ?GetMergeNode_XOld@CHitNet@@QAENXZ 100050e0 f i Ax_wire0.obj
 0001:00004100       ?SetMergeNode_XOld@CHitNet@@QAEXN@Z 10005100 f i Ax_wire0.obj
 0001:00004130       ?GetMergeNode_XDefault@CHitNet@@QAENXZ 10005130 f i Ax_wire0.obj
 0001:00004150       ?SetMergeNode_XDefault@CHitNet@@QAEXN@Z 10005150 f i Ax_wire0.obj
 0001:00004180       ?GetMergeNode_Y@CHitNet@@QAENXZ 10005180 f i Ax_wire0.obj
 0001:000041a0       ?SetMergeNode_Y@CHitNet@@QAEXN@Z 100051a0 f i Ax_wire0.obj
 0001:000041d0       ?GetMergeNode_YOld@CHitNet@@QAENXZ 100051d0 f i Ax_wire0.obj
 0001:000041f0       ?SetMergeNode_YOld@CHitNet@@QAEXN@Z 100051f0 f i Ax_wire0.obj
 0001:00004220       ?GetMergeNode_YDefault@CHitNet@@QAENXZ 10005220 f i Ax_wire0.obj
 0001:00004240       ?SetMergeNode_YDefault@CHitNet@@QAEXN@Z 10005240 f i Ax_wire0.obj
 0001:00004270       ?GetMergeNode_Z@CHitNet@@QAENXZ 10005270 f i Ax_wire0.obj
 0001:00004290       ?SetMergeNode_Z@CHitNet@@QAEXN@Z 10005290 f i Ax_wire0.obj
 0001:000042c0       ?GetMergeNode_ZOld@CHitNet@@QAENXZ 100052c0 f i Ax_wire0.obj
 0001:000042e0       ?SetMergeNode_ZOld@CHitNet@@QAEXN@Z 100052e0 f i Ax_wire0.obj
 0001:00004310       ?GetMergeNode_ZDefault@CHitNet@@QAENXZ 10005310 f i Ax_wire0.obj
 0001:00004330       ?SetMergeNode_ZDefault@CHitNet@@QAEXN@Z 10005330 f i Ax_wire0.obj
 0001:00004360       ??1CHitNet@@UAE@XZ         10005360 f i Ax_wire0.obj
 0001:00004390       ??_GCHitNet@@UAEPAXI@Z     10005390 f i Ax_wire0.obj
 0001:000043d0       ??_ECHitNet@@UAEPAXI@Z     100053d0 f i Ax_wire0.obj
 0001:00004450       ?GetObjectType@CLayer@@UAEHXZ 10005450 f i Ax_wire0.obj
 0001:00004470       ?SetObjectType@CLayer@@UAEXH@Z 10005470 f i Ax_wire0.obj
 0001:000044a0       ?GetElemType@CLayer@@UAEHXZ 100054a0 f i Ax_wire0.obj
 0001:000044c0       ?SetElemType@CLayer@@UAEXH@Z 100054c0 f i Ax_wire0.obj
 0001:000044f0       ?GetObjectNo@CLayer@@UAEJXZ 100054f0 f i Ax_wire0.obj
 0001:00004510       ?SetObjectNo@CLayer@@UAEXJ@Z 10005510 f i Ax_wire0.obj
 0001:00004540       ?GetCurrentLayer@CLayer@@UAEIXZ 10005540 f i Ax_wire0.obj
 0001:00004560       ?SetCurrentLayer@CLayer@@UAEXI@Z 10005560 f i Ax_wire0.obj
 0001:00004590       ?GetCurrentLayerOld@CLayer@@UAEIXZ 10005590 f i Ax_wire0.obj
 0001:000045b0       ?SetCurrentLayerOld@CLayer@@UAEXI@Z 100055b0 f i Ax_wire0.obj
 0001:000045e0       ?GetCurrentLayerDefault@CLayer@@UAEIXZ 100055e0 f i Ax_wire0.obj
 0001:00004600       ?SetCurrentLayerDefault@CLayer@@UAEXI@Z 10005600 f i Ax_wire0.obj
 0001:00004630       ??1CLayer@@UAE@XZ          10005630 f i Ax_wire0.obj
 0001:00004660       ??_GCLayer@@UAEPAXI@Z      10005660 f i Ax_wire0.obj
 0001:000046a0       ??_ECLayer@@UAEPAXI@Z      100056a0 f i Ax_wire0.obj
 0001:00004720       ?GetObjectType@CPatchMnu@@UAEHXZ 10005720 f i Ax_wire0.obj
 0001:00004740       ?SetObjectType@CPatchMnu@@UAEXH@Z 10005740 f i Ax_wire0.obj
 0001:00004770       ?GetElemType@CPatchMnu@@UAEHXZ 10005770 f i Ax_wire0.obj
 0001:00004790       ?SetElemType@CPatchMnu@@UAEXH@Z 10005790 f i Ax_wire0.obj
 0001:000047c0       ?GetObjectNo@CPatchMnu@@UAEJXZ 100057c0 f i Ax_wire0.obj
 0001:000047e0       ?SetObjectNo@CPatchMnu@@UAEXJ@Z 100057e0 f i Ax_wire0.obj
 0001:00004810       ?GetCurrentPatchMnu@CPatchMnu@@UAEIXZ 10005810 f i Ax_wire0.obj
 0001:00004830       ?SetCurrentPatchMnu@CPatchMnu@@UAEXI@Z 10005830 f i Ax_wire0.obj
 0001:00004860       ?GetCurrentPatchMnuOld@CPatchMnu@@UAEIXZ 10005860 f i Ax_wire0.obj
 0001:00004880       ?SetCurrentPatchMnuOld@CPatchMnu@@UAEXI@Z 10005880 f i Ax_wire0.obj
 0001:000048b0       ?GetCurrentPatchMnuDefault@CPatchMnu@@UAEIXZ 100058b0 f i Ax_wire0.obj
 0001:000048d0       ?SetCurrentPatchMnuDefault@CPatchMnu@@UAEXI@Z 100058d0 f i Ax_wire0.obj
 0001:00004900       ?GetPatchMnuID@CPatchMnu@@UAE?AVCString@@I@Z 10005900 f i Ax_wire0.obj
 0001:00004940       ?SetPatchMnuID@CPatchMnu@@UAEXVCString@@I@Z 10005940 f i Ax_wire0.obj
 0001:000049a0       ?GetCurrentID@CPatchMnu@@UAE?AVCString@@XZ 100059a0 f i Ax_wire0.obj
 0001:000049e0       ?SetCurrentID@CPatchMnu@@UAEXVCString@@@Z 100059e0 f i Ax_wire0.obj
 0001:00004a40       ??1CPatchMnu@@UAE@XZ       10005a40 f i Ax_wire0.obj
 0001:00004ad0       ??_GCPatchMnu@@UAEPAXI@Z   10005ad0 f i Ax_wire0.obj
 0001:00004b10       ??_ECPatchMnu@@UAEPAXI@Z   10005b10 f i Ax_wire0.obj
 0001:00004b90       ?GetObjectType@CObj3DMnu@@UAEHXZ 10005b90 f i Ax_wire0.obj
 0001:00004bb0       ?SetObjectType@CObj3DMnu@@UAEXH@Z 10005bb0 f i Ax_wire0.obj
 0001:00004be0       ?GetElemType@CObj3DMnu@@UAEHXZ 10005be0 f i Ax_wire0.obj
 0001:00004c00       ?SetElemType@CObj3DMnu@@UAEXH@Z 10005c00 f i Ax_wire0.obj
 0001:00004c30       ?GetObjectNo@CObj3DMnu@@UAEJXZ 10005c30 f i Ax_wire0.obj
 0001:00004c50       ?SetObjectNo@CObj3DMnu@@UAEXJ@Z 10005c50 f i Ax_wire0.obj
 0001:00004c80       ?GetCurrentObj3DMnu@CObj3DMnu@@UAEIXZ 10005c80 f i Ax_wire0.obj
 0001:00004ca0       ?SetCurrentObj3DMnu@CObj3DMnu@@UAEXI@Z 10005ca0 f i Ax_wire0.obj
 0001:00004cd0       ?GetCurrentObj3DMnuOld@CObj3DMnu@@UAEIXZ 10005cd0 f i Ax_wire0.obj
 0001:00004cf0       ?SetCurrentObj3DMnuOld@CObj3DMnu@@UAEXI@Z 10005cf0 f i Ax_wire0.obj
 0001:00004d20       ?GetCurrentObj3DMnuDefault@CObj3DMnu@@UAEIXZ 10005d20 f i Ax_wire0.obj
 0001:00004d40       ?SetCurrentObj3DMnuDefault@CObj3DMnu@@UAEXI@Z 10005d40 f i Ax_wire0.obj
 0001:00004d70       ?GetObj3DMnuID@CObj3DMnu@@UAE?AVCString@@I@Z 10005d70 f i Ax_wire0.obj
 0001:00004db0       ?SetObj3DMnuID@CObj3DMnu@@UAEXVCString@@I@Z 10005db0 f i Ax_wire0.obj
 0001:00004e10       ?GetCurrentID@CObj3DMnu@@UAE?AVCString@@XZ 10005e10 f i Ax_wire0.obj
 0001:00004e50       ?SetCurrentID@CObj3DMnu@@UAEXVCString@@@Z 10005e50 f i Ax_wire0.obj
 0001:00004eb0       ??1CObj3DMnu@@UAE@XZ       10005eb0 f i Ax_wire0.obj
 0001:00004f40       ??_GCObj3DMnu@@UAEPAXI@Z   10005f40 f i Ax_wire0.obj
 0001:00004f80       ??_ECObj3DMnu@@UAEPAXI@Z   10005f80 f i Ax_wire0.obj
 0001:00005000       ?GetObjectType@CMapFactor@@UAEHXZ 10006000 f i Ax_wire0.obj
 0001:00005020       ?SetObjectType@CMapFactor@@UAEXH@Z 10006020 f i Ax_wire0.obj
 0001:00005050       ?GetElemType@CMapFactor@@UAEHXZ 10006050 f i Ax_wire0.obj
 0001:00005070       ?SetElemType@CMapFactor@@UAEXH@Z 10006070 f i Ax_wire0.obj
 0001:000050a0       ?GetObjectNo@CMapFactor@@UAEJXZ 100060a0 f i Ax_wire0.obj
 0001:000050c0       ?SetObjectNo@CMapFactor@@UAEXJ@Z 100060c0 f i Ax_wire0.obj
 0001:000050f0       ?GetMapFactor@CMapFactor@@UAENXZ 100060f0 f i Ax_wire0.obj
 0001:00005110       ?SetMapFactor@CMapFactor@@UAEXN@Z 10006110 f i Ax_wire0.obj
 0001:00005140       ?GetMapModeIndex@CMapFactor@@UAEHXZ 10006140 f i Ax_wire0.obj
 0001:00005160       ?SetMapModeIndex@CMapFactor@@UAEXH@Z 10006160 f i Ax_wire0.obj
 0001:00005190       ??1CMapFactor@@UAE@XZ      10006190 f i Ax_wire0.obj
 0001:000051c0       ??_GCMapFactor@@UAEPAXI@Z  100061c0 f i Ax_wire0.obj
 0001:00005200       ??_ECMapFactor@@UAEPAXI@Z  10006200 f i Ax_wire0.obj
 0001:00005280       ?GetObjectType@CPrecision@@UAEHXZ 10006280 f i Ax_wire0.obj
 0001:000052a0       ?SetObjectType@CPrecision@@UAEXH@Z 100062a0 f i Ax_wire0.obj
 0001:000052d0       ?GetElemType@CPrecision@@UAEHXZ 100062d0 f i Ax_wire0.obj
 0001:000052f0       ?SetElemType@CPrecision@@UAEXH@Z 100062f0 f i Ax_wire0.obj
 0001:00005320       ?GetObjectNo@CPrecision@@UAEJXZ 10006320 f i Ax_wire0.obj
 0001:00005340       ?SetObjectNo@CPrecision@@UAEXJ@Z 10006340 f i Ax_wire0.obj
 0001:00005370       ?GetPrecision@CPrecision@@UAEIXZ 10006370 f i Ax_wire0.obj
 0001:00005390       ?SetPrecision@CPrecision@@UAEXI@Z 10006390 f i Ax_wire0.obj
 0001:000053c0       ?GetPrecisionOld@CPrecision@@UAEIXZ 100063c0 f i Ax_wire0.obj
 0001:000053e0       ?SetPrecisionOld@CPrecision@@UAEXI@Z 100063e0 f i Ax_wire0.obj
 0001:00005410       ?GetPrecisionDefault@CPrecision@@UAEIXZ 10006410 f i Ax_wire0.obj
 0001:00005430       ?SetPrecisionDefault@CPrecision@@UAEXI@Z 10006430 f i Ax_wire0.obj
 0001:00005460       ?GetWorldBase@CPrecision@@UAEJXZ 10006460 f i Ax_wire0.obj
 0001:00005480       ?SetWorldBase@CPrecision@@UAEXJ@Z 10006480 f i Ax_wire0.obj
 0001:000054b0       ?GetWorldBaseOld@CPrecision@@UAEJXZ 100064b0 f i Ax_wire0.obj
 0001:000054d0       ?SetWorldBaseOld@CPrecision@@UAEXJ@Z 100064d0 f i Ax_wire0.obj
 0001:00005500       ?GetWorldBaseDefault@CPrecision@@UAEJXZ 10006500 f i Ax_wire0.obj
 0001:00005520       ?SetWorldBaseDefault@CPrecision@@UAEXJ@Z 10006520 f i Ax_wire0.obj
 0001:00005550       ??1CPrecision@@UAE@XZ      10006550 f i Ax_wire0.obj
 0001:00005580       ??_GCPrecision@@UAEPAXI@Z  10006580 f i Ax_wire0.obj
 0001:000055c0       ??_ECPrecision@@UAEPAXI@Z  100065c0 f i Ax_wire0.obj
 0001:00005640       ?GetObjectType@CScaleFactor@@UAEHXZ 10006640 f i Ax_wire0.obj
 0001:00005660       ?SetObjectType@CScaleFactor@@UAEXH@Z 10006660 f i Ax_wire0.obj
 0001:00005690       ?GetElemType@CScaleFactor@@UAEHXZ 10006690 f i Ax_wire0.obj
 0001:000056b0       ?SetElemType@CScaleFactor@@UAEXH@Z 100066b0 f i Ax_wire0.obj
 0001:000056e0       ?GetObjectNo@CScaleFactor@@UAEJXZ 100066e0 f i Ax_wire0.obj
 0001:00005700       ?SetObjectNo@CScaleFactor@@UAEXJ@Z 10006700 f i Ax_wire0.obj
 0001:00005730       ?GetScaleFactor@CScaleFactor@@UAENXZ 10006730 f i Ax_wire0.obj
 0001:00005750       ?SetScaleFactor@CScaleFactor@@UAEXN@Z 10006750 f i Ax_wire0.obj
 0001:00005780       ?GetScaleFactorOld@CScaleFactor@@UAENXZ 10006780 f i Ax_wire0.obj
 0001:000057a0       ?SetScaleFactorOld@CScaleFactor@@UAEXN@Z 100067a0 f i Ax_wire0.obj
 0001:000057d0       ?GetScaleFactorDefault@CScaleFactor@@UAENXZ 100067d0 f i Ax_wire0.obj
 0001:000057f0       ?SetScaleFactorDefault@CScaleFactor@@UAEXN@Z 100067f0 f i Ax_wire0.obj
 0001:00005820       ??1CScaleFactor@@UAE@XZ    10006820 f i Ax_wire0.obj
 0001:00005850       ??_GCScaleFactor@@UAEPAXI@Z 10006850 f i Ax_wire0.obj
 0001:00005890       ??_ECScaleFactor@@UAEPAXI@Z 10006890 f i Ax_wire0.obj
 0001:00005910       ?GetObjectType@CUnit@@UAEHXZ 10006910 f i Ax_wire0.obj
 0001:00005930       ?SetObjectType@CUnit@@UAEXH@Z 10006930 f i Ax_wire0.obj
 0001:00005960       ?GetElemType@CUnit@@UAEHXZ 10006960 f i Ax_wire0.obj
 0001:00005980       ?SetElemType@CUnit@@UAEXH@Z 10006980 f i Ax_wire0.obj
 0001:000059b0       ?GetObjectNo@CUnit@@UAEJXZ 100069b0 f i Ax_wire0.obj
 0001:000059d0       ?SetObjectNo@CUnit@@UAEXJ@Z 100069d0 f i Ax_wire0.obj
 0001:00005a00       ?GetUnitName@CUnit@@UAE?AVCString@@I@Z 10006a00 f i Ax_wire0.obj
 0001:00005a40       ?GetUnitIndex@CUnit@@UAEIXZ 10006a40 f i Ax_wire0.obj
 0001:00005a60       ?SetUnitIndex@CUnit@@UAEXI@Z 10006a60 f i Ax_wire0.obj
 0001:00005a90       ?GetUnitIndexOld@CUnit@@UAEIXZ 10006a90 f i Ax_wire0.obj
 0001:00005ab0       ?SetUnitIndexOld@CUnit@@UAEXI@Z 10006ab0 f i Ax_wire0.obj
 0001:00005ae0       ?GetUnitIndexDefault@CUnit@@UAEIXZ 10006ae0 f i Ax_wire0.obj
 0001:00005b00       ?SetUnitIndexDefault@CUnit@@UAEXI@Z 10006b00 f i Ax_wire0.obj
 0001:00005b30       ?GetUnitNameCount@CUnit@@UAEIXZ 10006b30 f i Ax_wire0.obj
 0001:00005b50       ?SetUnitNameCount@CUnit@@UAEXI@Z 10006b50 f i Ax_wire0.obj
 0001:00005b80       ??1CUnit@@UAE@XZ           10006b80 f i Ax_wire0.obj
 0001:00005bf0       ??_GCUnit@@UAEPAXI@Z       10006bf0 f i Ax_wire0.obj
 0001:00005c30       ??_ECUnit@@UAEPAXI@Z       10006c30 f i Ax_wire0.obj
 0001:00005cb0       ??1CDataRowHint@@UAE@XZ    10006cb0 f i Ax_wire0.obj
 0001:00005cd0       ?GetMapFactor@CObjectMgr@@UAEPAVCMapFactor@@XZ 10006cd0 f i Ax_wire0.obj
 0001:00005cf0       ?GetPrecision@CObjectMgr@@UAEPAVCPrecision@@XZ 10006cf0 f i Ax_wire0.obj
 0001:00005d10       ?GetScaleFactor@CObjectMgr@@UAEPAVCScaleFactor@@XZ 10006d10 f i Ax_wire0.obj
 0001:00005d30       ?GetUnit@CObjectMgr@@UAEPAVCUnit@@XZ 10006d30 f i Ax_wire0.obj
 0001:00005d50       ?GetObjectListFromIndex@CObjectMgr@@UAEPAVCDListMgr@@H@Z 10006d50 f i Ax_wire0.obj
 0001:00005d90       ?IsSceneChanged@CObjectMgr@@UAEHXZ 10006d90 f i Ax_wire0.obj
 0001:00005db0       ?SetSceneChanged@CObjectMgr@@UAEXH@Z 10006db0 f i Ax_wire0.obj
 0001:00005de0       ?IsViewChanged@CObjectMgr@@UAEHXZ 10006de0 f i Ax_wire0.obj
 0001:00005e00       ?SetViewChanged@CObjectMgr@@UAEXH@Z 10006e00 f i Ax_wire0.obj
 0001:00005e30       ?GetMasterLastObjectNo@CObjectMgr@@UAEIXZ 10006e30 f i Ax_wire0.obj
 0001:00005e50       ?SetMasterLastObjectNo@CObjectMgr@@UAEXI@Z 10006e50 f i Ax_wire0.obj
 0001:00005e80       ?GetActiveObjectNo@CObjectMgr@@UAEIXZ 10006e80 f i Ax_wire0.obj
 0001:00005ea0       ?SetActiveObjectNo@CObjectMgr@@UAEXI@Z 10006ea0 f i Ax_wire0.obj
 0001:00005ed0       ?GetActiveListIndex@CObjectMgr@@UAEHXZ 10006ed0 f i Ax_wire0.obj
 0001:00005ef0       ?SetActiveListIndex@CObjectMgr@@UAEXH@Z 10006ef0 f i Ax_wire0.obj
 0001:00005f20       ?GetActiveObjectIndex@CObjectMgr@@UAEHXZ 10006f20 f i Ax_wire0.obj
 0001:00005f40       ?SetActiveObjectIndex@CObjectMgr@@UAEXH@Z 10006f40 f i Ax_wire0.obj
 0001:00005f70       ?GetActiveObjectType@CObjectMgr@@UAEHXZ 10006f70 f i Ax_wire0.obj
 0001:00005f90       ?SetActiveObjectType@CObjectMgr@@UAEXH@Z 10006f90 f i Ax_wire0.obj
 0001:00005fc0       ?GetRowList@CObjectMgr@@QAEPAV?$CList@JJ@@XZ 10006fc0 f i Ax_wire0.obj
 0001:00005fe0       ?GetRowCount@CObjectMgr@@QAEHXZ 10006fe0 f i Ax_wire0.obj
 0001:00006010       ?GetActiveRowIndex@CObjectMgr@@QAEHXZ 10007010 f i Ax_wire0.obj
 0001:00006030       ?SetActiveRowIndex@CObjectMgr@@QAEXH@Z 10007030 f i Ax_wire0.obj
 0001:00006060       ?GetFormat@CObjectMgr@@UAE?AVCString@@XZ 10007060 f i Ax_wire0.obj
 0001:000060a0       ?IsMeshGenOn@CObjectMgr@@UAEHXZ 100070a0 f i Ax_wire0.obj
 0001:000060c0       ?SetMeshGenOn@CObjectMgr@@UAEXH@Z 100070c0 f i Ax_wire0.obj
 0001:000060f0       ?GetMeshType@CObjectMgr@@UAEIXZ 100070f0 f i Ax_wire0.obj
 0001:00006110       ?SetMeshType@CObjectMgr@@UAEXI@Z 10007110 f i Ax_wire0.obj
 0001:00006140       ?GetCurrentTopLevel@CObjectMgr@@UAEHXZ 10007140 f i Ax_wire0.obj
 0001:00006160       ?SetCurrentTopLevel@CObjectMgr@@UAEXH@Z 10007160 f i Ax_wire0.obj
 0001:00006190       ?GetObjectType@CElemInfo@@UAEHXZ 10007190 f i Ax_wire0.obj
 0001:000061b0       ?SetObjectType@CElemInfo@@UAEXH@Z 100071b0 f i Ax_wire0.obj
 0001:000061e0       ?GetElemType@CElemInfo@@UAEHXZ 100071e0 f i Ax_wire0.obj
 0001:00006200       ?SetElemType@CElemInfo@@UAEXH@Z 10007200 f i Ax_wire0.obj
 0001:00006230       ?GetObjectNo@CElemInfo@@UAEJXZ 10007230 f i Ax_wire0.obj
 0001:00006250       ?SetObjectNo@CElemInfo@@UAEXJ@Z 10007250 f i Ax_wire0.obj
 0001:00006280       ?GetInfoList@CElemInfo@@UAEPAVCDListMgr@@H@Z 10007280 f i Ax_wire0.obj
 0001:000062b0       ??1CElemInfo@@UAE@XZ       100072b0 f i Ax_wire0.obj
 0001:00006320       ??_GCElemInfo@@UAEPAXI@Z   10007320 f i Ax_wire0.obj
 0001:00006360       ??_ECElemInfo@@UAEPAXI@Z   10007360 f i Ax_wire0.obj
 0001:000063e0       ??1CMeshRowHint@@UAE@XZ    100073e0 f i Ax_wire0.obj
 0001:00006400       ?GetRowList@CMsObjMgr@@QAEPAV?$CList@JJ@@XZ 10007400 f i Ax_wire0.obj
 0001:00006420       ?GetRowCount@CMsObjMgr@@QAEHXZ 10007420 f i Ax_wire0.obj
 0001:00006450       ?GetActiveRowIndex@CMsObjMgr@@QAEHXZ 10007450 f i Ax_wire0.obj
 0001:00006470       ?SetActiveRowIndex@CMsObjMgr@@QAEXH@Z 10007470 f i Ax_wire0.obj
 0001:000064a0       ??1CBaseRowHint@@UAE@XZ    100074a0 f i Ax_wire0.obj
 0001:000064c0       ?GetCurrentItem@CDbObjMgr@@QAEAAVCString@@XZ 100074c0 f i Ax_wire0.obj
 0001:000064e0       ?SetCurrentItem@CDbObjMgr@@QAEXAAVCString@@@Z 100074e0 f i Ax_wire0.obj
 0001:00006510       ?GetCurrentParent@CDbObjMgr@@QAEAAVCString@@XZ 10007510 f i Ax_wire0.obj
 0001:00006530       ?SetCurrentParent@CDbObjMgr@@QAEXAAVCString@@@Z 10007530 f i Ax_wire0.obj
 0001:00006560       ??1CAxDataRowHint@@UAE@XZ  10007560 f i Ax_wire0.obj
 0001:00006580       ?GetMapFactor@CAxObjMgr@@UAEPAVCMapFactor@@XZ 10007580 f i Ax_wire0.obj
 0001:000065a0       ?GetPrecision@CAxObjMgr@@UAEPAVCPrecision@@XZ 100075a0 f i Ax_wire0.obj
 0001:000065c0       ?GetScaleFactor@CAxObjMgr@@UAEPAVCScaleFactor@@XZ 100075c0 f i Ax_wire0.obj
 0001:000065e0       ?GetUnit@CAxObjMgr@@UAEPAVCUnit@@XZ 100075e0 f i Ax_wire0.obj
 0001:00006600       ?GetObjectListFromIndex@CAxObjMgr@@UAEPAVCDListMgr@@H@Z 10007600 f i Ax_wire0.obj
 0001:00006640       ?IsSceneChanged@CAxObjMgr@@UAEHXZ 10007640 f i Ax_wire0.obj
 0001:00006660       ?SetSceneChanged@CAxObjMgr@@UAEXH@Z 10007660 f i Ax_wire0.obj
 0001:00006690       ?IsViewChanged@CAxObjMgr@@UAEHXZ 10007690 f i Ax_wire0.obj
 0001:000066b0       ?SetViewChanged@CAxObjMgr@@UAEXH@Z 100076b0 f i Ax_wire0.obj
 0001:000066e0       ?GetMasterLastObjectNo@CAxObjMgr@@UAEIXZ 100076e0 f i Ax_wire0.obj
 0001:00006700       ?SetMasterLastObjectNo@CAxObjMgr@@UAEXI@Z 10007700 f i Ax_wire0.obj
 0001:00006730       ?GetActiveObjectNo@CAxObjMgr@@UAEIXZ 10007730 f i Ax_wire0.obj
 0001:00006750       ?SetActiveObjectNo@CAxObjMgr@@UAEXI@Z 10007750 f i Ax_wire0.obj
 0001:00006780       ?GetActiveListIndex@CAxObjMgr@@UAEHXZ 10007780 f i Ax_wire0.obj
 0001:000067a0       ?SetActiveListIndex@CAxObjMgr@@UAEXH@Z 100077a0 f i Ax_wire0.obj
 0001:000067d0       ?GetActiveObjectIndex@CAxObjMgr@@UAEHXZ 100077d0 f i Ax_wire0.obj
 0001:000067f0       ?SetActiveObjectIndex@CAxObjMgr@@UAEXH@Z 100077f0 f i Ax_wire0.obj
 0001:00006820       ?GetActiveObjectType@CAxObjMgr@@UAEHXZ 10007820 f i Ax_wire0.obj
 0001:00006840       ?SetActiveObjectType@CAxObjMgr@@UAEXH@Z 10007840 f i Ax_wire0.obj
 0001:00006870       ?GetRowList@CAxObjMgr@@QAEPAV?$CList@JJ@@XZ 10007870 f i Ax_wire0.obj
 0001:00006890       ?GetRowCount@CAxObjMgr@@QAEHXZ 10007890 f i Ax_wire0.obj
 0001:000068c0       ?GetActiveRowIndex@CAxObjMgr@@QAEHXZ 100078c0 f i Ax_wire0.obj
 0001:000068e0       ?SetActiveRowIndex@CAxObjMgr@@QAEXH@Z 100078e0 f i Ax_wire0.obj
 0001:00006910       ?GetFormat@CAxObjMgr@@UAE?AVCString@@XZ 10007910 f i Ax_wire0.obj
 0001:00006950       ?IsMeshGenOn@CAxObjMgr@@UAEHXZ 10007950 f i Ax_wire0.obj
 0001:00006970       ?SetMeshGenOn@CAxObjMgr@@UAEXH@Z 10007970 f i Ax_wire0.obj
 0001:000069a0       ?GetMeshType@CAxObjMgr@@UAEIXZ 100079a0 f i Ax_wire0.obj
 0001:000069c0       ?SetMeshType@CAxObjMgr@@UAEXI@Z 100079c0 f i Ax_wire0.obj
 0001:000069f0       ?GetCurrentTopLevel@CAxObjMgr@@UAEHXZ 100079f0 f i Ax_wire0.obj
 0001:00006a10       ?SetCurrentTopLevel@CAxObjMgr@@UAEXH@Z 10007a10 f i Ax_wire0.obj
 0001:00006a40       ?Parse_drPipe@CDrNode@@UAEPAUnodecard@@PAVCString@@@Z 10007a40 f i Ax_wire0.obj
 0001:00006a60       ?GetNodeCard@CDrNode@@UAEPAUnodecard@@XZ 10007a60 f i Ax_wire0.obj
 0001:00006a80       ?GetCardNo@CDrNode@@UAEHXZ 10007a80 f i Ax_wire0.obj
 0001:00006aa0       ?SetCardNo@CDrNode@@UAEXH@Z 10007aa0 f i Ax_wire0.obj
 0001:00006ad0       ?DoFormattedCardView@CDrNode@@UAEXPAVCString@@AAV2@@Z 10007ad0 f i Ax_wire0.obj
 0001:00006af0       ?DoUnFormattedCardView@CDrNode@@UAEXPAVCString@@@Z 10007af0 f i Ax_wire0.obj
 0001:00006b10       ?GetMaxCorners@CDrNode@@UAEHXZ 10007b10 f i Ax_wire0.obj
 0001:00006b30       ?GetCategory@CDrNode@@UAE?AW4CATEGORY@@XZ 10007b30 f i Ax_wire0.obj
 0001:00006b50       ?SetCategory@CDrNode@@UAEXW4CATEGORY@@@Z 10007b50 f i Ax_wire0.obj
 0001:00006b70       ?GetPrecision@CDrNode@@UAEHXZ 10007b70 f i Ax_wire0.obj
 0001:00006b90       ?SetPrecision@CDrNode@@UAEXH@Z 10007b90 f i Ax_wire0.obj
 0001:00006bc0       ?GetFormat@CDrNode@@QAE?AVCString@@XZ 10007bc0 f i Ax_wire0.obj
 0001:00006c00       ?SetFormat@CDrNode@@QAEXVCString@@@Z 10007c00 f i Ax_wire0.obj
 0001:00006c60       ?GetMapFactor@CDrNode@@QAENXZ 10007c60 f i Ax_wire0.obj
 0001:00006c80       ?SetMapFactor@CDrNode@@QAEXN@Z 10007c80 f i Ax_wire0.obj
 0001:00006cb0       ?GetScaleFactor@CDrNode@@QAENXZ 10007cb0 f i Ax_wire0.obj
 0001:00006cd0       ?SetScaleFactor@CDrNode@@QAEXN@Z 10007cd0 f i Ax_wire0.obj
 0001:00006d00       ?GetMasterMultFac@CDrNode@@QAEJXZ 10007d00 f i Ax_wire0.obj
 0001:00006d20       ?SetMasterMultFac@CDrNode@@QAEXJ@Z 10007d20 f i Ax_wire0.obj
 0001:00006d50       ?GetLocalPos@CDrNode@@UAEPAUWORLD@@XZ 10007d50 f i Ax_wire0.obj
 0001:00006d70       ?SetLocalPos@CDrNode@@UAEXUWORLD@@@Z 10007d70 f i Ax_wire0.obj
 0001:00006da0       ?GetWorldPos@CDrNode@@UAEPAUWORLD@@XZ 10007da0 f i Ax_wire0.obj
 0001:00006dc0       ?SetWorldPos@CDrNode@@UAEXUWORLD@@@Z 10007dc0 f i Ax_wire0.obj
 0001:00006df0       ?GetEyePos@CDrNode@@UAEPAUWORLD@@XZ 10007df0 f i Ax_wire0.obj
 0001:00006e10       ?SetEyePos@CDrNode@@UAEXUWORLD@@@Z 10007e10 f i Ax_wire0.obj
 0001:00006e40       ?GetScreenPos3D@CDrNode@@UAEPAUWORLD@@XZ 10007e40 f i Ax_wire0.obj
 0001:00006e60       ?SetScreenPos3D@CDrNode@@UAEXUWORLD@@@Z 10007e60 f i Ax_wire0.obj
 0001:00006e90       ?GetScreenPos2D@CDrNode@@UAEPAUtagPOINT@@XZ 10007e90 f i Ax_wire0.obj
 0001:00006eb0       ?SetScreenPos2D@CDrNode@@UAEXUtagPOINT@@@Z 10007eb0 f i Ax_wire0.obj
 0001:00006ee0       ?GetNormalWorld@CDrNode@@UAEPAUWORLD@@XZ 10007ee0 f i Ax_wire0.obj
 0001:00006f00       ?SetNormalWorld@CDrNode@@UAEXUWORLD@@@Z 10007f00 f i Ax_wire0.obj
 0001:00006f30       ?GetNormalEye@CDrNode@@UAEPAUWORLD@@XZ 10007f30 f i Ax_wire0.obj
 0001:00006f50       ?SetNormalEye@CDrNode@@UAEXUWORLD@@@Z 10007f50 f i Ax_wire0.obj
 0001:00006f80       ?GetNormalScreen3D@CDrNode@@UAEPAUWORLD@@XZ 10007f80 f i Ax_wire0.obj
 0001:00006fa0       ?SetNormalScreen3D@CDrNode@@UAEXUWORLD@@@Z 10007fa0 f i Ax_wire0.obj
 0001:00006fd0       ?GetNormalScreen2D@CDrNode@@UAEPAUtagPOINT@@XZ 10007fd0 f i Ax_wire0.obj
 0001:00006ff0       ?SetNormalScreen2D@CDrNode@@UAEXUtagPOINT@@@Z 10007ff0 f i Ax_wire0.obj
 0001:00007020       ?GetLabelNo@CDrNode@@QAEJXZ 10008020 f i Ax_wire0.obj
 0001:00007040       ?SetLabelNo@CDrNode@@QAEXJ@Z 10008040 f i Ax_wire0.obj
 0001:00007070       ?IsMeshNode@CDrNode@@QAEHXZ 10008070 f i Ax_wire0.obj
 0001:00007090       ?SetMeshNode@CDrNode@@QAEXH@Z 10008090 f i Ax_wire0.obj
 0001:000070c0       ?IsGenerated@CDrNode@@QAEHXZ 100080c0 f i Ax_wire0.obj
 0001:000070e0       ?SetGenerated@CDrNode@@QAEXH@Z 100080e0 f i Ax_wire0.obj
 0001:00007110       ?IsControlNode@CDrNode@@QAEHXZ 10008110 f i Ax_wire0.obj
 0001:00007140       ?SetControlNode@CDrNode@@QAEXH@Z 10008140 f i Ax_wire0.obj
 0001:00007170       ?GetInputMode@CDrNode@@QAEHXZ 10008170 f i Ax_wire0.obj
 0001:00007190       ?SetInputMode@CDrNode@@QAEXH@Z 10008190 f i Ax_wire0.obj
 0001:000071c0       ?GetLength@CDrNode@@QAENXZ 100081c0 f i Ax_wire0.obj
 0001:000071e0       ?SetLength@CDrNode@@QAEXN@Z 100081e0 f i Ax_wire0.obj
 0001:00007210       ?GetDelta@CDrNode@@QAEPAUWORLD@@XZ 10008210 f i Ax_wire0.obj
 0001:00007230       ?SetDelta@CDrNode@@QAEXUWORLD@@@Z 10008230 f i Ax_wire0.obj
 0001:00007260       ?GetFromID@CDrNode@@QAE?AVCString@@XZ 10008260 f i Ax_wire0.obj
 0001:000072a0       ?SetFromID@CDrNode@@QAEXVCString@@@Z 100082a0 f i Ax_wire0.obj
 0001:00007300       ?GetToID@CDrNode@@QAE?AVCString@@XZ 10008300 f i Ax_wire0.obj
 0001:00007340       ?SetToID@CDrNode@@QAEXVCString@@@Z 10008340 f i Ax_wire0.obj
 0001:000073a0       ?IsRefCN@CDrNode@@QAEHXZ   100083a0 f i Ax_wire0.obj
 0001:000073c0       ?SetRefCN@CDrNode@@QAEXH@Z 100083c0 f i Ax_wire0.obj
 0001:000073f0       ?IsFromCN@CDrNode@@QAEHXZ  100083f0 f i Ax_wire0.obj
 0001:00007410       ?SetFromCN@CDrNode@@QAEXH@Z 10008410 f i Ax_wire0.obj
 0001:00007440       ?IsToCN@CDrNode@@QAEHXZ    10008440 f i Ax_wire0.obj
 0001:00007460       ?SetToCN@CDrNode@@QAEXH@Z  10008460 f i Ax_wire0.obj
 0001:00007490       ?IsSkewed@CDrNode@@UAEHXZ  10008490 f i Ax_wire0.obj
 0001:000074b0       ?SetSkewed@CDrNode@@UAEXH@Z 100084b0 f i Ax_wire0.obj
 0001:000074e0       ?IsLinSpr@CDrNode@@UAEHXZ  100084e0 f i Ax_wire0.obj
 0001:00007500       ?SetLinSpr@CDrNode@@UAEXH@Z 10008500 f i Ax_wire0.obj
 0001:00007530       ?IsLinSnu@CDrNode@@UAEHXZ  10008530 f i Ax_wire0.obj
 0001:00007550       ?SetLinSnu@CDrNode@@UAEXH@Z 10008550 f i Ax_wire0.obj
 0001:00007580       ?GetSuppCardList@CDrNode@@QAEPAV?$CList@Usupportcard@@U1@@@XZ 10008580 f i Ax_wire0.obj
 0001:000075a0       ?GetStaLCardList@CDrNode@@QAEPAV?$CList@UstaLcard@@U1@@@XZ 100085a0 f i Ax_wire0.obj
 0001:000075c0       ?GetMaxCorners@CDrLabel@@UAEHXZ 100085c0 f i Ax_wire0.obj
 0001:000075e0       ?SetProjectedCoords@CDrLabel@@UAEXUtagPOINT@@H@Z 100085e0 f i Ax_wire0.obj
 0001:00007610       ?IsMoved@CDrLabel@@UAEHXZ  10008610 f i Ax_wire0.obj
 0001:00007630       ?SetMoved@CDrLabel@@UAEXH@Z 10008630 f i Ax_wire0.obj
 0001:00007660       ?GetNodePtr@CDrLabel@@UAEPAVCDrNode@@XZ 10008660 f i Ax_wire0.obj
 0001:00007680       ?SetNodePtr@CDrLabel@@UAEXPAVCDrNode@@@Z 10008680 f i Ax_wire0.obj
 0001:000076b0       ?GetContextObj@CDrLabel@@UAE?AW4CONTEXTOBJ@@XZ 100086b0 f i Ax_wire0.obj
 0001:000076d0       ?SetContextObj@CDrLabel@@UAEXW4CONTEXTOBJ@@@Z 100086d0 f i Ax_wire0.obj
 0001:00007700       ?GetMeshElemType@CDrLabel@@UAEIXZ 10008700 f i Ax_wire0.obj
 0001:00007720       ?SetMeshElemType@CDrLabel@@UAEXI@Z 10008720 f i Ax_wire0.obj
 0001:00007750       ?GetColor@CDrLabel@@UAEKXZ 10008750 f i Ax_wire0.obj
 0001:00007770       ?SetColor@CDrLabel@@UAEXK@Z 10008770 f i Ax_wire0.obj
 0001:000077a0       ?GetViewNum@CDrLabel@@UAEHXZ 100087a0 f i Ax_wire0.obj
 0001:000077c0       ?SetViewNum@CDrLabel@@UAEXH@Z 100087c0 f i Ax_wire0.obj
 0001:000077f0       ?GetType@CDrLabel@@UAEHXZ  100087f0 f i Ax_wire0.obj
 0001:00007810       ?SetType@CDrLabel@@UAEXH@Z 10008810 f i Ax_wire0.obj
 0001:00007840       ?GetText@CDrLabel@@UAE?AVCString@@XZ 10008840 f i Ax_wire0.obj
 0001:00007880       ?SetText@CDrLabel@@UAEXVCString@@@Z 10008880 f i Ax_wire0.obj
 0001:000078e0       ?SetLogFont@CDrLabel@@UAEXUtagLOGFONTA@@@Z 100088e0 f i Ax_wire0.obj
 0001:00007910       ?GetLogFont@CDrLabel@@UAE?AUtagLOGFONTA@@XZ 10008910 f i Ax_wire0.obj
 0001:00007940       ?GetOtherCorner@CDrLabel@@UAE?AUtagPOINT@@XZ 10008940 f i Ax_wire0.obj
 0001:00007970       ?SetOtherCorner@CDrLabel@@UAEXUtagPOINT@@@Z 10008970 f i Ax_wire0.obj
 0001:000079a0       ?GetAngle@CDrLabel@@UAEHXZ 100089a0 f i Ax_wire0.obj
 0001:000079c0       ?SetAngle@CDrLabel@@UAEXH@Z 100089c0 f i Ax_wire0.obj
 0001:000079f0       ??1CDrLabel@@UAE@XZ        100089f0 f i Ax_wire0.obj
 0001:00007a50       ??_GCDrLabel@@UAEPAXI@Z    10008a50 f i Ax_wire0.obj
 0001:00007a90       ??_ECDrLabel@@UAEPAXI@Z    10008a90 f i Ax_wire0.obj
 0001:00007b10       ??1CViewInfo@@UAE@XZ       10008b10 f i Ax_wire0.obj
 0001:00007b80       ??1CBitmapButton@@UAE@XZ   10008b80 f i Ax_wire0.obj
 0001:00007c00       ??1CAxWire_0@@UAE@XZ       10008c00 f i Ax_wire0.obj
 0001:00007c30       ??_GCAxWire_0@@UAEPAXI@Z   10008c30 f i Ax_wire0.obj
 0001:00007c70       ??_ECAxWire_0@@UAEPAXI@Z   10008c70 f i Ax_wire0.obj
 0001:00007cf0       ?_GetBaseClass@CAxWire_0@@KGPAUCRuntimeClass@@XZ 10008cf0 f   Ax_wire0.obj
 0001:00007d10       ?GetRuntimeClass@CAxWire_0@@UBEPAUCRuntimeClass@@XZ 10008d10 f   Ax_wire0.obj
 0001:00007d30       ??0CAxWire_0@@QAE@XZ       10008d30 f   Ax_wire0.obj
 0001:00007d60       ??0CAxWire_0@@QAE@PAVCView@@HQAH@Z 10008d60 f   Ax_wire0.obj
 0001:00007e60       ?Init@CAxWire_0@@UAEHHHUWORLD@@PAUMATRIX@@11NNNN@Z 10008e60 f   Ax_wire0.obj
 0001:00007f10       ?RenderScene_AUXILLIARY@CAxWire_0@@UAEHPAVCClientDC@@AAVCRect@@HHH@Z 10008f10 f   Ax_wire0.obj
 0001:000081f0       ?GetDocument@CDrGrafApp@@QAEPAVCDrGrafDoc@@XZ 100091f0 f i Ax_wire0.obj
 0001:00008210       ?GetAxObjMgr@CDrGrafDoc@@QAEPAVCAxObjMgr@@XZ 10009210 f i Ax_wire0.obj
 0001:00008230       ?RenderOBJECT@CAxWire_0@@MAEHPAVCClientDC@@AAVCRect@@PAVCDrObject@@H@Z 10009230 f   Ax_wire0.obj
 0001:000084c0       ?RenderSTRAY@CAxWire_0@@MAEHPAVCClientDC@@PAVCDrObject@@HH@Z 100094c0 f   Ax_wire0.obj
 0001:00008610       ?RenderLabels@CAxWire_0@@MAEHPAVCDC@@PAVCDrObject@@HH@Z 10009610 f   Ax_wire0.obj
 0001:000086e0       ?RenderReadyOBJECT@CAxWire_0@@UAEXPAVCDC@@PAVCDrObject@@H@Z 100096e0 f   Ax_wire0.obj
 0001:00008770       ?GetCount@?$CList@JJ@@QBEHXZ 10009770 f i Ax_wire0.obj
 0001:00008790       ??1CAxis@@UAE@XZ           10009790 f i Axisdraw.obj
 0001:000087c0       ??_GCAxis@@UAEPAXI@Z       100097c0 f i Axisdraw.obj
 0001:00008800       ??_ECAxis@@UAEPAXI@Z       10009800 f i Axisdraw.obj
 0001:00008880       ??0CAxisDraw@@QAE@XZ       10009880 f   Axisdraw.obj
 0001:000088b0       ??_GCAxisDraw@@UAEPAXI@Z   100098b0 f i Axisdraw.obj
 0001:000088b0       ??_ECAxisDraw@@UAEPAXI@Z   100098b0 f i Axisdraw.obj
 0001:000088f0       ??1CAxisDraw@@UAE@XZ       100098f0 f i Axisdraw.obj
 0001:00008910       ?_GetBaseMessageMap@CAxisDraw@@KGPBUAFX_MSGMAP@@XZ 10009910 f   Axisdraw.obj
 0001:00008930       ?GetMessageMap@CAxisDraw@@MBEPBUAFX_MSGMAP@@XZ 10009930 f   Axisdraw.obj
 0001:00008950       ?OnPaint@CAxisDraw@@IAEXXZ 10009950 f   Axisdraw.obj
 0001:000089d0       ?DrawSampleAxes@CAxisDraw@@IAEXPAVCDC@@@Z 100099d0 f   Axisdraw.obj
 0001:00008b70       ?GetCenter@CAxisDraw@@IAE?AUtagPOINT@@PAVCRect@@@Z 10009b70 f   Axisdraw.obj
 0001:00008bd0       ?_GetBaseClass@CColorPal@@KGPAUCRuntimeClass@@XZ 10009bd0 f   Colorpal.obj
 0001:00008bf0       ?GetRuntimeClass@CColorPal@@UBEPAUCRuntimeClass@@XZ 10009bf0 f   Colorpal.obj
 0001:00008c10       ??0CColorPal@@QAE@XZ       10009c10 f   Colorpal.obj
 0001:00008c40       ??_ECColorPal@@UAEPAXI@Z   10009c40 f i Colorpal.obj
 0001:00008c40       ??_GCColorPal@@UAEPAXI@Z   10009c40 f i Colorpal.obj
 0001:00008c80       ??1CColorPal@@UAE@XZ       10009c80 f i Colorpal.obj
 0001:00008cb0       ?RGB2HSV@CColorPal@@UAEXPAURGBCOLOR@@PAUHSVCOLOR@@@Z 10009cb0 f   Colorpal.obj
 0001:00009040       ?HSV2RGB@CColorPal@@UAEXPAUHSVCOLOR@@PAURGBCOLOR@@@Z 1000a040 f   Colorpal.obj
 0001:00009290       ?Make256ColorPal@CColorPal@@UAEHPAV1@@Z 1000a290 f   Colorpal.obj
 0001:00009a60       ?MakeNewPal@CColorPal@@UAEHPAV1@NHHH@Z 1000aa60 f   Colorpal.obj
 0001:00009fa0       ?LoadStockPal@CColorPal@@UAEHPAV1@PAD@Z 1000afa0 f   Colorpal.obj
 0001:0000a1e0       ?UnlockResource@@YGHPAX@Z  1000b1e0 f i Colorpal.obj
 0001:0000a200       ?SelectPal@CColorPal@@UAEPAV1@PAVCClientDC@@PAV1@@Z 1000b200 f   Colorpal.obj
 0001:0000a250       ?DisposePal@CColorPal@@UAEXPAV1@@Z 1000b250 f   Colorpal.obj
 0001:0000a280       ?_GetBaseClass@CAxis@@KGPAUCRuntimeClass@@XZ 1000b280 f   Draxis.obj
 0001:0000a2a0       ?GetRuntimeClass@CAxis@@UBEPAUCRuntimeClass@@XZ 1000b2a0 f   Draxis.obj
 0001:0000a2c0       ??0CAxis@@QAE@XZ           1000b2c0 f   Draxis.obj
 0001:0000a2f0       ??0CAxis@@QAE@I@Z          1000b2f0 f   Draxis.obj
 0001:0000a590       ?DrawAxes@CAxis@@UAEXPAVCDC@@UtagPOINT@@PAVCView@@@Z 1000b590 f   Draxis.obj
 0001:0000a6d0       ?GoDoIt@CAxis@@MAEXPAVCDC@@PAUtagPOINT@@@Z 1000b6d0 f   Draxis.obj
 0001:0000a960       ?SetParallel@CXForm@@UAEXH@Z 1000b960 f i Light.obj
 0001:0000a980       ?GetParallel@CXForm@@UAEHXZ 1000b980 f i Light.obj
 0001:0000a9a0       ??1CXForm@@UAE@XZ          1000b9a0 f i Light.obj
 0001:0000a9d0       ??_GCXForm@@UAEPAXI@Z      1000b9d0 f i Light.obj
 0001:0000aa10       ??_ECXForm@@UAEPAXI@Z      1000ba10 f i Light.obj
 0001:0000aa90       ?_GetBaseClass@CLight@@KGPAUCRuntimeClass@@XZ 1000ba90 f   Light.obj
 0001:0000aab0       ?GetRuntimeClass@CLight@@UBEPAUCRuntimeClass@@XZ 1000bab0 f   Light.obj
 0001:0000aad0       ??0CLight@@QAE@XZ          1000bad0 f   Light.obj
 0001:0000ab00       ??_GCLight@@UAEPAXI@Z      1000bb00 f i Light.obj
 0001:0000ab00       ??_ECLight@@UAEPAXI@Z      1000bb00 f i Light.obj
 0001:0000ab40       ??1CLight@@UAE@XZ          1000bb40 f i Light.obj
 0001:0000ab70       ?LightIntensity@CLight@@UAENNNNPAUWORLD@@0PAULTSOURCE@@PAN@Z 1000bb70 f   Light.obj
 0001:0000ad80       ?LightEffect@CLight@@UAE?AURGBCOLOR@@PAULTENVIRON@@PAURENDINFO@@PAUWORLD@@2H@Z 1000bd80 f   Light.obj
 0001:0000af40       ?NewLightEnvironMent@CLight@@UAEHPAULTENVIRON@@NNNNHPAULTSOURCE@@@Z 1000bf40 f   Light.obj
 0001:0000aff0       ?FocusLightSource@CLight@@UAEXPAULTSOURCE@@NNN@Z 1000bff0 f   Light.obj
 0001:0000b0e0       ?SetLightSource@CLight@@UAEXPAULTSOURCE@@NNNNNNN@Z 1000c0e0 f   Light.obj
 0001:0000b250       ?TransformLightEnviron@CLight@@UAEXPAULTENVIRON@@PAUMATRIX@@@Z 1000c250 f   Light.obj
 0001:0000b3d0       ?Parse_drPipe@CDrFE1D@@UAEXPAVCString@@@Z 1000c3d0 f i Render.obj
 0001:0000b3f0       ?DoFormattedCardView@CDrFE1D@@UAEXPAVCString@@AAV2@@Z 1000c3f0 f i Render.obj
 0001:0000b410       ?DoUnFormattedCardView@CDrFE1D@@UAEXPAVCString@@@Z 1000c410 f i Render.obj
 0001:0000b430       ?GetMaxCorners@CDrFE1D@@UAEHXZ 1000c430 f i Render.obj
 0001:0000b450       ?GetMemIn@CDrFE1D@@UAEPAUWORLD@@XZ 1000c450 f i Render.obj
 0001:0000b470       ?GetMemInWts@CDrFE1D@@UAEPANXZ 1000c470 f i Render.obj
 0001:0000b490       ?GetMemInDP@CDrFE1D@@UAEPAUtagPOINT@@XZ 1000c490 f i Render.obj
 0001:0000b4b0       ?GetMemOut@CDrFE1D@@UAEPAUWORLD@@XZ 1000c4b0 f i Render.obj
 0001:0000b4d0       ?GetMemOutWts@CDrFE1D@@UAEPANXZ 1000c4d0 f i Render.obj
 0001:0000b4f0       ?GetMemOutDP@CDrFE1D@@UAEPAUtagPOINT@@XZ 1000c4f0 f i Render.obj
 0001:0000b510       ?SetMemIn@CDrFE1D@@UAEXPAUWORLD@@@Z 1000c510 f i Render.obj
 0001:0000b540       ?SetMemInWts@CDrFE1D@@UAEXPAN@Z 1000c540 f i Render.obj
 0001:0000b570       ?SetMemInDP@CDrFE1D@@UAEXPAUtagPOINT@@@Z 1000c570 f i Render.obj
 0001:0000b5a0       ?SetMemOut@CDrFE1D@@UAEXPAUWORLD@@@Z 1000c5a0 f i Render.obj
 0001:0000b5d0       ?SetMemOutWts@CDrFE1D@@UAEXPAN@Z 1000c5d0 f i Render.obj
 0001:0000b600       ?SetMemOutDP@CDrFE1D@@UAEXPAUtagPOINT@@@Z 1000c600 f i Render.obj
 0001:0000b630       ?FixMemD@CDrFE1D@@UAEPANJ@Z 1000c630 f i Render.obj
 0001:0000b670       ?FreeMemD@CDrFE1D@@UAEXPAN@Z 1000c670 f i Render.obj
 0001:0000b6a0       ?FixMem@CDrFE1D@@UAEPAUWORLD@@J@Z 1000c6a0 f i Render.obj
 0001:0000b6e0       ?FreeMem@CDrFE1D@@UAEXPAUWORLD@@@Z 1000c6e0 f i Render.obj
 0001:0000b710       ?FixMemDP@CDrFE1D@@UAEPAUtagPOINT@@J@Z 1000c710 f i Render.obj
 0001:0000b750       ?FreeMemDP@CDrFE1D@@UAEXPAUtagPOINT@@@Z 1000c750 f i Render.obj
 0001:0000b780       ?GetnNodes@CDrFE1D@@QAEFXZ 1000c780 f i Render.obj
 0001:0000b7a0       ?SetnNodes@CDrFE1D@@QAEXF@Z 1000c7a0 f i Render.obj
 0001:0000b7d0       ?GetEdgeDegree@CDrFE1D@@QAEFXZ 1000c7d0 f i Render.obj
 0001:0000b7f0       ?SetEdgeDegree@CDrFE1D@@QAEXF@Z 1000c7f0 f i Render.obj
 0001:0000b820       ?GetElNumID@CDrFE1D@@QAEAAVCString@@XZ 1000c820 f i Render.obj
 0001:0000b840       ?SetElNumID@CDrFE1D@@QAEXVCString@@@Z 1000c840 f i Render.obj
 0001:0000b8a0       ?GetElTypeID@CDrFE1D@@QAEAAVCString@@XZ 1000c8a0 f i Render.obj
 0001:0000b8c0       ?SetElTypeID@CDrFE1D@@QAEXVCString@@@Z 1000c8c0 f i Render.obj
 0001:0000b920       ?Getline_id@CDrFE1D@@QAEAAVCString@@XZ 1000c920 f i Render.obj
 0001:0000b940       ?Setline_id@CDrFE1D@@QAEXVCString@@@Z 1000c940 f i Render.obj
 0001:0000b9a0       ?Getrid@CDrFE1D@@UAEAAVCString@@H@Z 1000c9a0 f i Render.obj
 0001:0000b9d0       ?Setrid@CDrFE1D@@UAEXVCString@@H@Z 1000c9d0 f i Render.obj
 0001:0000ba30       ?Getpid@CDrFE1D@@QAEAAVCString@@XZ 1000ca30 f i Render.obj
 0001:0000ba50       ?Setpid@CDrFE1D@@QAEXVCString@@@Z 1000ca50 f i Render.obj
 0001:0000bab0       ?Getmid@CDrFE1D@@QAEAAVCString@@XZ 1000cab0 f i Render.obj
 0001:0000bad0       ?Setmid@CDrFE1D@@QAEXVCString@@@Z 1000cad0 f i Render.obj
 0001:0000bb30       ?GetElNum@CDrFE1D@@QAEIXZ  1000cb30 f i Render.obj
 0001:0000bb50       ?SetElNum@CDrFE1D@@QAEXI@Z 1000cb50 f i Render.obj
 0001:0000bb80       ?GetElTypeNum@CDrFE1D@@QAEIXZ 1000cb80 f i Render.obj
 0001:0000bba0       ?SetElTypeNum@CDrFE1D@@QAEXI@Z 1000cba0 f i Render.obj
 0001:0000bbd0       ?Getline_no@CDrFE1D@@QAEIXZ 1000cbd0 f i Render.obj
 0001:0000bbf0       ?Setline_no@CDrFE1D@@QAEXI@Z 1000cbf0 f i Render.obj
 0001:0000bc20       ?Getrel@CDrFE1D@@UAEIH@Z   1000cc20 f i Render.obj
 0001:0000bc50       ?Setrel@CDrFE1D@@UAEXIH@Z  1000cc50 f i Render.obj
 0001:0000bc80       ?Getprop@CDrFE1D@@QAEIXZ   1000cc80 f i Render.obj
 0001:0000bca0       ?Setprop@CDrFE1D@@QAEXI@Z  1000cca0 f i Render.obj
 0001:0000bcd0       ?Getmat@CDrFE1D@@QAEIXZ    1000ccd0 f i Render.obj
 0001:0000bcf0       ?Setmat@CDrFE1D@@QAEXI@Z   1000ccf0 f i Render.obj
 0001:0000bd20       ?Getnumseg@CDrFE1D@@QAEIXZ 1000cd20 f i Render.obj
 0001:0000bd40       ?Setnumseg@CDrFE1D@@QAEXI@Z 1000cd40 f i Render.obj
 0001:0000bd70       ?GetRefTemp@CDrFE1D@@QAENXZ 1000cd70 f i Render.obj
 0001:0000bd90       ?SetRefTemp@CDrFE1D@@QAEXN@Z 1000cd90 f i Render.obj
 0001:0000bdc0       ?GetCardNo@CDrFE1D@@QAEIXZ 1000cdc0 f i Render.obj
 0001:0000bde0       ?SetCardNo@CDrFE1D@@QAEXI@Z 1000cde0 f i Render.obj
 0001:0000be10       ?GetCenter@CDrFE1D@@UAE?AUtagPOINT@@XZ 1000ce10 f i Render.obj
 0001:0000be40       ?SetCenter@CDrFE1D@@UAEXUtagPOINT@@@Z 1000ce40 f i Render.obj
 0001:0000be70       ?Parse_drPipe@CDrFE2D@@UAEXPAVCString@@@Z 1000ce70 f i Render.obj
 0001:0000be90       ?DoFormattedCardView@CDrFE2D@@UAEXPAVCString@@AAV2@@Z 1000ce90 f i Render.obj
 0001:0000beb0       ?DoUnFormattedCardView@CDrFE2D@@UAEXPAVCString@@@Z 1000ceb0 f i Render.obj
 0001:0000bed0       ?GetMaxCorners@CDrFE2D@@UAEHXZ 1000ced0 f i Render.obj
 0001:0000bef0       ?GetCentroidScreen2D@CDrFE2D@@UAEPAUtagPOINT@@XZ 1000cef0 f i Render.obj
 0001:0000bf10       ?SetCentroidScreen2D@CDrFE2D@@UAEXUtagPOINT@@@Z 1000cf10 f i Render.obj
 0001:0000bf40       ?GetCentroidScreen3D@CDrFE2D@@UAEPAUWORLD@@XZ 1000cf40 f i Render.obj
 0001:0000bf60       ?SetCentroidScreen3D@CDrFE2D@@UAEXUWORLD@@@Z 1000cf60 f i Render.obj
 0001:0000bf90       ?GetCentroidEye@CDrFE2D@@UAEPAUWORLD@@XZ 1000cf90 f i Render.obj
 0001:0000bfb0       ?SetCentroidEye@CDrFE2D@@UAEXUWORLD@@@Z 1000cfb0 f i Render.obj
 0001:0000bfe0       ?GetCentroidWorld@CDrFE2D@@UAEPAUWORLD@@XZ 1000cfe0 f i Render.obj
 0001:0000c000       ?SetCentroidWorld@CDrFE2D@@UAEXUWORLD@@@Z 1000d000 f i Render.obj
 0001:0000c030       ?GetCentroidZdepth@CDrFE2D@@UAENXZ 1000d030 f i Render.obj
 0001:0000c050       ?SetCentroidZdepth@CDrFE2D@@UAEXN@Z 1000d050 f i Render.obj
 0001:0000c080       ?GetNormalWorld@CDrFE2D@@UAEPAUWORLD@@XZ 1000d080 f i Render.obj
 0001:0000c0a0       ?SetNormalWorld@CDrFE2D@@UAEXUWORLD@@@Z 1000d0a0 f i Render.obj
 0001:0000c0d0       ?GetNormalEye@CDrFE2D@@UAEPAUWORLD@@XZ 1000d0d0 f i Render.obj
 0001:0000c0f0       ?SetNormalEye@CDrFE2D@@UAEXUWORLD@@@Z 1000d0f0 f i Render.obj
 0001:0000c120       ?GetNormalScreen3D@CDrFE2D@@UAEPAUWORLD@@XZ 1000d120 f i Render.obj
 0001:0000c140       ?SetNormalScreen3D@CDrFE2D@@UAEXUWORLD@@@Z 1000d140 f i Render.obj
 0001:0000c170       ?GetNormalScreen2D@CDrFE2D@@UAEPAUtagPOINT@@XZ 1000d170 f i Render.obj
 0001:0000c190       ?SetNormalScreen2D@CDrFE2D@@UAEXUtagPOINT@@@Z 1000d190 f i Render.obj
 0001:0000c1c0       ?IsCulled@CDrFE2D@@UAEHXZ  1000d1c0 f i Render.obj
 0001:0000c1e0       ?SetCulled@CDrFE2D@@UAEXH@Z 1000d1e0 f i Render.obj
 0001:0000c210       ?GetnNodes@CDrFE2D@@QAEFXZ 1000d210 f i Render.obj
 0001:0000c230       ?SetnNodes@CDrFE2D@@QAEXF@Z 1000d230 f i Render.obj
 0001:0000c260       ?GetnEdgeNodes@CDrFE2D@@QAEFXZ 1000d260 f i Render.obj
 0001:0000c280       ?SetnEdgeNodes@CDrFE2D@@QAEXF@Z 1000d280 f i Render.obj
 0001:0000c2b0       ?GetElNumID@CDrFE2D@@QAEAAVCString@@XZ 1000d2b0 f i Render.obj
 0001:0000c2d0       ?SetElNumID@CDrFE2D@@QAEXVCString@@@Z 1000d2d0 f i Render.obj
 0001:0000c330       ?GetElTypeID@CDrFE2D@@QAEAAVCString@@XZ 1000d330 f i Render.obj
 0001:0000c350       ?SetElTypeID@CDrFE2D@@QAEXVCString@@@Z 1000d350 f i Render.obj
 0001:0000c3b0       ?Getline_id@CDrFE2D@@QAEAAVCString@@XZ 1000d3b0 f i Render.obj
 0001:0000c3d0       ?Setline_id@CDrFE2D@@QAEXVCString@@@Z 1000d3d0 f i Render.obj
 0001:0000c430       ?Getpid@CDrFE2D@@QAEAAVCString@@XZ 1000d430 f i Render.obj
 0001:0000c450       ?Setpid@CDrFE2D@@QAEXVCString@@@Z 1000d450 f i Render.obj
 0001:0000c4b0       ?Getmid@CDrFE2D@@QAEAAVCString@@XZ 1000d4b0 f i Render.obj
 0001:0000c4d0       ?Setmid@CDrFE2D@@QAEXVCString@@@Z 1000d4d0 f i Render.obj
 0001:0000c530       ?GetElNum@CDrFE2D@@QAEIXZ  1000d530 f i Render.obj
 0001:0000c550       ?SetElNum@CDrFE2D@@QAEXI@Z 1000d550 f i Render.obj
 0001:0000c580       ?GetElTypeNum@CDrFE2D@@QAEIXZ 1000d580 f i Render.obj
 0001:0000c5a0       ?SetElTypeNum@CDrFE2D@@QAEXI@Z 1000d5a0 f i Render.obj
 0001:0000c5d0       ?Getline_no@CDrFE2D@@QAEIXZ 1000d5d0 f i Render.obj
 0001:0000c5f0       ?Setline_no@CDrFE2D@@QAEXI@Z 1000d5f0 f i Render.obj
 0001:0000c620       ?Getprop@CDrFE2D@@QAEIXZ   1000d620 f i Render.obj
 0001:0000c640       ?Setprop@CDrFE2D@@QAEXI@Z  1000d640 f i Render.obj
 0001:0000c670       ?Getmat@CDrFE2D@@QAEIXZ    1000d670 f i Render.obj
 0001:0000c690       ?Setmat@CDrFE2D@@QAEXI@Z   1000d690 f i Render.obj
 0001:0000c6c0       ?Getnumseg@CDrFE2D@@QAEIXZ 1000d6c0 f i Render.obj
 0001:0000c6e0       ?Setnumseg@CDrFE2D@@QAEXI@Z 1000d6e0 f i Render.obj
 0001:0000c710       ?GetRefTemp@CDrFE2D@@QAENXZ 1000d710 f i Render.obj
 0001:0000c730       ?SetRefTemp@CDrFE2D@@QAEXN@Z 1000d730 f i Render.obj
 0001:0000c760       ?GetCardNo@CDrFE2D@@QAEIXZ 1000d760 f i Render.obj
 0001:0000c780       ?SetCardNo@CDrFE2D@@QAEXI@Z 1000d780 f i Render.obj
 0001:0000c7b0       ?GetCenter@CDrFE2D@@UAE?AUtagPOINT@@XZ 1000d7b0 f i Render.obj
 0001:0000c7e0       ?SetCenter@CDrFE2D@@UAEXUtagPOINT@@@Z 1000d7e0 f i Render.obj
 0001:0000c810       ?IsPosiEdge@CDrFE2D@@QAEHH@Z 1000d810 f i Render.obj
 0001:0000c840       ?SetPosiEdge@CDrFE2D@@QAEXHH@Z 1000d840 f i Render.obj
 0001:0000c870       ?Getrid@CDrFE2D@@UAEAAVCString@@H@Z 1000d870 f i Render.obj
 0001:0000c8a0       ?Setrid@CDrFE2D@@UAEXVCString@@H@Z 1000d8a0 f i Render.obj
 0001:0000c900       ?Getrel@CDrFE2D@@UAEIH@Z   1000d900 f i Render.obj
 0001:0000c930       ?Setrel@CDrFE2D@@UAEXIH@Z  1000d930 f i Render.obj
 0001:0000c960       ?GetnCorners@CDrFE2D@@UAEFXZ 1000d960 f i Render.obj
 0001:0000c980       ?SetnCorners@CDrFE2D@@UAEXF@Z 1000d980 f i Render.obj
 0001:0000c9b0       ?GetnEdges@CDrFE2D@@UAEFXZ 1000d9b0 f i Render.obj
 0001:0000c9d0       ?SetnEdges@CDrFE2D@@UAEXF@Z 1000d9d0 f i Render.obj
 0001:0000ca00       ?GetElDegree@CDrFE2D@@UAE?AW4ELEM_DEGREE@@XZ 1000da00 f i Render.obj
 0001:0000ca20       ?SetElDegree@CDrFE2D@@UAEXW4ELEM_DEGREE@@@Z 1000da20 f i Render.obj
 0001:0000ca50       ?GetEdgeDegrees@CDrFE2D@@UAEFH@Z 1000da50 f i Render.obj
 0001:0000ca80       ?SetEdgeDegrees@CDrFE2D@@UAEXFH@Z 1000da80 f i Render.obj
 0001:0000cab0       ?GetThkness@CDrFE2D@@UAENXZ 1000dab0 f i Render.obj
 0001:0000cad0       ?SetThkness@CDrFE2D@@UAEXN@Z 1000dad0 f i Render.obj
 0001:0000cb00       ?CreateObject@CRender@@SGPAVCObject@@XZ 1000db00 f   Render.obj
 0001:0000cb70       ?_GetBaseClass@CRender@@KGPAUCRuntimeClass@@XZ 1000db70 f   Render.obj
 0001:0000cb90       ?GetRuntimeClass@CRender@@UBEPAUCRuntimeClass@@XZ 1000db90 f   Render.obj
 0001:0000cbf0       ??0AFX_CLASSINIT@@QAE@PAUCRuntimeClass@@@Z 1000dbf0 f i Render.obj
 0001:0000cc20       ??5@YGAAVCArchive@@AAV0@AAPAVCRender@@@Z 1000dc20 f   Render.obj
 0001:0000cc50       ??0CRender@@QAE@XZ         1000dc50 f   Render.obj
 0001:0000ccb0       ?GetPolyList@CRender@@UAEPAVCDListMgr@@XZ 1000dcb0 f i Render.obj
 0001:0000ccd0       ??_ECRender@@UAEPAXI@Z     1000dcd0 f i Render.obj
 0001:0000ccd0       ??_GCRender@@UAEPAXI@Z     1000dcd0 f i Render.obj
 0001:0000cd10       ??1CRender@@UAE@XZ         1000dd10 f i Render.obj
 0001:0000cd70       ??1CTextures@@UAE@XZ       1000dd70 f i Render.obj
 0001:0000cda0       ??_GCTextures@@UAEPAXI@Z   1000dda0 f i Render.obj
 0001:0000cda0       ??_ECTextures@@UAEPAXI@Z   1000dda0 f i Render.obj
 0001:0000cde0       ?Init@CRender@@UAEHPAVCRect@@PAULTENVIRON@@@Z 1000dde0 f   Render.obj
 0001:0000cea0       ?InitScan@CRender@@UAEHH@Z 1000dea0 f   Render.obj
 0001:0000cf30       ?TermRender@CRender@@UAEXXZ 1000df30 f   Render.obj
 0001:0000cf70       ?SetShadow@CRender@@UAEXH@Z 1000df70 f   Render.obj
 0001:0000cfa0       ?IsShadowOn@CRender@@UAEHXZ 1000dfa0 f   Render.obj
 0001:0000cfc0       ?SetAntiAlias@CRender@@UAEXH@Z 1000dfc0 f   Render.obj
 0001:0000cff0       ?IsAntiAliasingOn@CRender@@UAEHXZ 1000dff0 f   Render.obj
 0001:0000d010       ?AddToPolyList@CRender@@UAEXPAVCDrObject@@@Z 1000e010 f   Render.obj
 0001:0000d040       ?DisposePolyList@CRender@@UAEXXZ 1000e040 f   Render.obj
 0001:0000d060       ?RenderPolyList@CRender@@UAEXH@Z 1000e060 f   Render.obj
 0001:0000d080       ?RenderPolygon_FULL@CRender@@UAEHPAVCClientDC@@PAVCDrObject@@H@Z 1000e080 f   Render.obj
 0001:0000d160       ?RenderScanLines@CRender@@UAEHPAVCClientDC@@@Z 1000e160 f   Render.obj
 0001:0000d1f0       ?RenderSpan_FULL@CRender@@UAEXPAVCClientDC@@HPAUscanspan@@@Z 1000e1f0 f   Render.obj
 0001:0000d7a0       ?RenderPixel_FULL@CRender@@UAEXPAVCClientDC@@HHUWORLD@@11H@Z 1000e7a0 f   Render.obj
 0001:0000d960       ?DoAntiAliasing@CRender@@UAEHXZ 1000e960 f   Render.obj
 0001:0000d980       ?EvaluateColor_FULL@CRender@@UAE?AURGBCOLOR@@HHUWORLD@@00H@Z 1000e980 f   Render.obj
 0001:0000ddd0       ?EvaluateColor_LF@CRender@@UAE?AURGBCOLOR@@UWORLD@@0N@Z 1000edd0 f   Render.obj
 0001:0000e020       ?Opaqueness@CRender@@UAE?AURGBCOLOR@@PAU2@0N@Z 1000f020 f   Render.obj
 0001:0000e0a0       ?Transparency@CRender@@UAE?AURGBCOLOR@@PAU2@0N@Z 1000f0a0 f   Render.obj
 0001:0000e120       ?BuildEdgeList@CRender@@UAEXPAVCDrObject@@H@Z 1000f120 f   Render.obj
 0001:0000e250       ?AddToEdgeList@CRender@@UAEXPAVCDrObject@@00H@Z 1000f250 f   Render.obj
 0001:0000e850       ?AdjacentPoly@CRender@@UAEHPAVCDrObject@@0@Z 1000f850 f   Render.obj
 0001:0000e870       ?AddToEdgeList_LF@CRender@@UAEXPAVCDrObject@@00H@Z 1000f870 f   Render.obj
 0001:0000eb20       ?InShadow@CRender@@UAEHPAUWORLD@@NPAULTSOURCE@@PAN@Z 1000fb20 f   Render.obj
 0001:0000eb40       ?DepthSort@CRender@@UAEXPAVCDListMgr@@H@Z 1000fb40 f   Render.obj
 0001:0000ed10       ?RenderPolyline_Z@CRender@@UAEXPAVCClientDC@@FPAUtagPOINT@@PAUWORLD@@K@Z 1000fd10 f   Render.obj
 0001:0000eda0       ?RenderLine_Z@CRender@@UAEXPAVCClientDC@@UtagPOINT@@1PAUWORLD@@2K@Z 1000fda0 f   Render.obj
 0001:0000f080       ?RenderPixel_Z@CRender@@UAEXPAVCClientDC@@HHNK@Z 10010080 f   Render.obj
 0001:0000f110       ?LightUpScanSpan@CRender@@UAEXPAVCClientDC@@HHH@Z 10010110 f   Render.obj
 0001:0000f150       ?LightUpPixel@CRender@@UAEKPAVCClientDC@@HHK@Z 10010150 f   Render.obj
 0001:0000f180       ?GetCPixel@CRender@@UAEXPAVCClientDC@@HHPAURGBCOLOR@@@Z 10010180 f   Render.obj
 0001:0000f210       ?SetCPixel@CRender@@UAEXPAVCClientDC@@HHPAURGBCOLOR@@@Z 10010210 f   Render.obj
 0001:0000f290       ?ClippedByZBuffer@CRender@@UAEHPAVCDrObject@@@Z 10010290 f   Render.obj
 0001:0000f440       ?Serialize@CRender@@UAEXAAVCArchive@@@Z 10010440 f   Render.obj
 0001:0000f490       ?Parse_drPipe@CDrStatic@@UAEPAUstaLcard@@PAVCString@@@Z 10010490 f i Rn_wire0.obj
 0001:0000f4b0       ?GetCardNo@CDrStatic@@QAEHXZ 100104b0 f i Rn_wire0.obj
 0001:0000f4d0       ?SetCardNo@CDrStatic@@QAEXH@Z 100104d0 f i Rn_wire0.obj
 0001:0000f500       ?GetStaLCard@CDrStatic@@QAEPAUstaLcard@@XZ 10010500 f i Rn_wire0.obj
 0001:0000f520       ?GetNodeList@CDrStatic@@QAEPAVCDListMgr@@XZ 10010520 f i Rn_wire0.obj
 0001:0000f540       ?GetCurveList@CDrStatic@@QAEPAVCDListMgr@@XZ 10010540 f i Rn_wire0.obj
 0001:0000f560       ?GetPatchList@CDrStatic@@QAEPAVCDListMgr@@XZ 10010560 f i Rn_wire0.obj
 0001:0000f580       ?GetSolidList@CDrStatic@@QAEPAVCDListMgr@@XZ 10010580 f i Rn_wire0.obj
 0001:0000f5a0       ?GetLabelNode@CDrStatic@@QAEPAVCDrNode@@XZ 100105a0 f i Rn_wire0.obj
 0001:0000f5c0       ?SetLabelNode@CDrStatic@@QAEXPAVCDrNode@@@Z 100105c0 f i Rn_wire0.obj
 0001:0000f5f0       ?GetLabelPtr@CDrStatic@@QAEPAVCDrLabel@@XZ 100105f0 f i Rn_wire0.obj
 0001:0000f610       ?SetLabelPtr@CDrStatic@@QAEXPAVCDrLabel@@@Z 10010610 f i Rn_wire0.obj
 0001:0000f640       ?GetLabelNo@CDrStatic@@QAEJXZ 10010640 f i Rn_wire0.obj
 0001:0000f660       ?SetLabelNo@CDrStatic@@QAEXJ@Z 10010660 f i Rn_wire0.obj
 0001:0000f690       ?GetLocalM@CDrStatic@@QAEPAUMATRIX@@XZ 10010690 f i Rn_wire0.obj
 0001:0000f6b0       ?SetLocalM@CDrStatic@@QAEXPAUMATRIX@@@Z 100106b0 f i Rn_wire0.obj
 0001:0000f6e0       ?GetnPts@CDrStatic@@QAEHH@Z 100106e0 f i Rn_wire0.obj
 0001:0000f710       ?GetpLoc@CDrStatic@@QAEPAUWORLD@@H@Z 10010710 f i Rn_wire0.obj
 0001:0000f740       ?IsSkewed@CDrStatic@@UAEHXZ 10010740 f i Rn_wire0.obj
 0001:0000f760       ?SetSkewed@CDrStatic@@UAEXH@Z 10010760 f i Rn_wire0.obj
 0001:0000f790       ?GetSkewMat@CDrStatic@@QAEPAUMATRIX@@XZ 10010790 f i Rn_wire0.obj
 0001:0000f7b0       ?SetSkewMat@CDrStatic@@QAEXPAUMATRIX@@@Z 100107b0 f i Rn_wire0.obj
 0001:0000f7e0       ?GetCreateBase@CDrStatic@@QAEIXZ 100107e0 f i Rn_wire0.obj
 0001:0000f800       ?SetCreateBase@CDrStatic@@QAEXI@Z 10010800 f i Rn_wire0.obj
 0001:0000f830       ?IsTriangle@CDrStatic@@QAEHXZ 10010830 f i Rn_wire0.obj
 0001:0000f850       ?SetTriangle@CDrStatic@@QAEXH@Z 10010850 f i Rn_wire0.obj
 0001:0000f880       ?IsPentaHed@CDrStatic@@QAEHXZ 10010880 f i Rn_wire0.obj
 0001:0000f8a0       ?SetPentaHed@CDrStatic@@QAEXH@Z 100108a0 f i Rn_wire0.obj
 0001:0000f8d0       ?GetCreate_i@CDrStatic@@QAEHXZ 100108d0 f i Rn_wire0.obj
 0001:0000f8f0       ?SetCreate_i@CDrStatic@@QAEXH@Z 100108f0 f i Rn_wire0.obj
 0001:0000f920       ?GetCreate_j@CDrStatic@@QAEHXZ 10010920 f i Rn_wire0.obj
 0001:0000f940       ?SetCreate_j@CDrStatic@@QAEXH@Z 10010940 f i Rn_wire0.obj
 0001:0000f970       ?GetCreate_k@CDrStatic@@QAEHXZ 10010970 f i Rn_wire0.obj
 0001:0000f990       ?SetCreate_k@CDrStatic@@QAEXH@Z 10010990 f i Rn_wire0.obj
 0001:0000f9c0       ?GetNodPos@CDrStatic@@QAEPAUWORLD@@XZ 100109c0 f i Rn_wire0.obj
 0001:0000f9e0       ?SetNodPos@CDrStatic@@QAEXAAUWORLD@@@Z 100109e0 f i Rn_wire0.obj
 0001:0000fa10       ?Parse_drPipe@CDrLinSup@@UAEPAUsupportcard@@PAVCString@@@Z 10010a10 f i Rn_wire0.obj
 0001:0000fa30       ?GetSuppCard@CDrLinSup@@UAEPAUsupportcard@@XZ 10010a30 f i Rn_wire0.obj
 0001:0000fa50       ?GetCardNo@CDrLinSup@@UAEHXZ 10010a50 f i Rn_wire0.obj
 0001:0000fa70       ?SetCardNo@CDrLinSup@@UAEXH@Z 10010a70 f i Rn_wire0.obj
 0001:0000faa0       ?GetLabelNo@CDrLinSup@@QAEJXZ 10010aa0 f i Rn_wire0.obj
 0001:0000fac0       ?SetLabelNo@CDrLinSup@@QAEXJ@Z 10010ac0 f i Rn_wire0.obj
 0001:0000faf0       ?GetnPts@CDrLinSup@@QAEHH@Z 10010af0 f i Rn_wire0.obj
 0001:0000fb20       ?GetpLoc@CDrLinSup@@QAEPAUWORLD@@H@Z 10010b20 f i Rn_wire0.obj
 0001:0000fb50       ?IsSkewed@CDrLinSup@@UAEHXZ 10010b50 f i Rn_wire0.obj
 0001:0000fb70       ?SetSkewed@CDrLinSup@@UAEXH@Z 10010b70 f i Rn_wire0.obj
 0001:0000fba0       ?GetSkewMat@CDrLinSup@@QAEPAUMATRIX@@XZ 10010ba0 f i Rn_wire0.obj
 0001:0000fbc0       ?SetSkewMat@CDrLinSup@@QAEXPAUMATRIX@@@Z 10010bc0 f i Rn_wire0.obj
 0001:0000fbf0       ?GetCreateBase@CDrLinSup@@QAEIXZ 10010bf0 f i Rn_wire0.obj
 0001:0000fc10       ?SetCreateBase@CDrLinSup@@QAEXI@Z 10010c10 f i Rn_wire0.obj
 0001:0000fc40       ?IsTriangle@CDrLinSup@@QAEHXZ 10010c40 f i Rn_wire0.obj
 0001:0000fc60       ?SetTriangle@CDrLinSup@@QAEXH@Z 10010c60 f i Rn_wire0.obj
 0001:0000fc90       ?IsPentaHed@CDrLinSup@@QAEHXZ 10010c90 f i Rn_wire0.obj
 0001:0000fcb0       ?SetPentaHed@CDrLinSup@@QAEXH@Z 10010cb0 f i Rn_wire0.obj
 0001:0000fce0       ?GetCreate_i@CDrLinSup@@QAEHXZ 10010ce0 f i Rn_wire0.obj
 0001:0000fd00       ?SetCreate_i@CDrLinSup@@QAEXH@Z 10010d00 f i Rn_wire0.obj
 0001:0000fd30       ?GetCreate_j@CDrLinSup@@QAEHXZ 10010d30 f i Rn_wire0.obj
 0001:0000fd50       ?SetCreate_j@CDrLinSup@@QAEXH@Z 10010d50 f i Rn_wire0.obj
 0001:0000fd80       ?GetCreate_k@CDrLinSup@@QAEHXZ 10010d80 f i Rn_wire0.obj
 0001:0000fda0       ?SetCreate_k@CDrLinSup@@QAEXH@Z 10010da0 f i Rn_wire0.obj
 0001:0000fdd0       ?GetNodPos@CDrLinSup@@QAEPAUWORLD@@XZ 10010dd0 f i Rn_wire0.obj
 0001:0000fdf0       ?SetNodPos@CDrLinSup@@QAEXAAUWORLD@@@Z 10010df0 f i Rn_wire0.obj
 0001:0000fe20       ?GetElNumID@CDrFE0D@@QAEAAVCString@@XZ 10010e20 f i Rn_wire0.obj
 0001:0000fe40       ?SetElNumID@CDrFE0D@@QAEXVCString@@@Z 10010e40 f i Rn_wire0.obj
 0001:0000fea0       ?GetElTypeID@CDrFE0D@@QAEAAVCString@@XZ 10010ea0 f i Rn_wire0.obj
 0001:0000fec0       ?SetElTypeID@CDrFE0D@@QAEXVCString@@@Z 10010ec0 f i Rn_wire0.obj
 0001:0000ff20       ?Getrid@CDrFE0D@@QAEAAVCString@@XZ 10010f20 f i Rn_wire0.obj
 0001:0000ff40       ?Setrid@CDrFE0D@@QAEXVCString@@@Z 10010f40 f i Rn_wire0.obj
 0001:0000ffa0       ?Getpid@CDrFE0D@@QAEAAVCString@@XZ 10010fa0 f i Rn_wire0.obj
 0001:0000ffc0       ?Setpid@CDrFE0D@@QAEXVCString@@@Z 10010fc0 f i Rn_wire0.obj
 0001:00010020       ?Getmid@CDrFE0D@@QAEAAVCString@@XZ 10011020 f i Rn_wire0.obj
 0001:00010040       ?Setmid@CDrFE0D@@QAEXVCString@@@Z 10011040 f i Rn_wire0.obj
 0001:000100a0       ?GetElNum@CDrFE0D@@QAEIXZ  100110a0 f i Rn_wire0.obj
 0001:000100c0       ?SetElNum@CDrFE0D@@QAEXI@Z 100110c0 f i Rn_wire0.obj
 0001:000100f0       ?GetElTypeNum@CDrFE0D@@QAEIXZ 100110f0 f i Rn_wire0.obj
 0001:00010110       ?SetElTypeNum@CDrFE0D@@QAEXI@Z 10011110 f i Rn_wire0.obj
 0001:00010140       ?Getrel@CDrFE0D@@QAEIXZ    10011140 f i Rn_wire0.obj
 0001:00010160       ?Setrel@CDrFE0D@@QAEXI@Z   10011160 f i Rn_wire0.obj
 0001:00010190       ?Getprop@CDrFE0D@@QAEIXZ   10011190 f i Rn_wire0.obj
 0001:000101b0       ?Setprop@CDrFE0D@@QAEXI@Z  100111b0 f i Rn_wire0.obj
 0001:000101e0       ?Getmat@CDrFE0D@@QAEIXZ    100111e0 f i Rn_wire0.obj
 0001:00010200       ?Setmat@CDrFE0D@@QAEXI@Z   10011200 f i Rn_wire0.obj
 0001:00010230       ?GetRefTemp@CDrFE0D@@QAENXZ 10011230 f i Rn_wire0.obj
 0001:00010250       ?SetRefTemp@CDrFE0D@@QAEXN@Z 10011250 f i Rn_wire0.obj
 0001:00010280       ?GetNormalWorld@CDrFE0D@@UAEPAUWORLD@@XZ 10011280 f i Rn_wire0.obj
 0001:000102a0       ?SetNormalWorld@CDrFE0D@@UAEXUWORLD@@@Z 100112a0 f i Rn_wire0.obj
 0001:000102d0       ?GetNormalEye@CDrFE0D@@UAEPAUWORLD@@XZ 100112d0 f i Rn_wire0.obj
 0001:000102f0       ?SetNormalEye@CDrFE0D@@UAEXUWORLD@@@Z 100112f0 f i Rn_wire0.obj
 0001:00010320       ?GetNormalScreen3D@CDrFE0D@@UAEPAUWORLD@@XZ 10011320 f i Rn_wire0.obj
 0001:00010340       ?SetNormalScreen3D@CDrFE0D@@UAEXUWORLD@@@Z 10011340 f i Rn_wire0.obj
 0001:00010370       ?GetNormalScreen2D@CDrFE0D@@UAEPAUtagPOINT@@XZ 10011370 f i Rn_wire0.obj
 0001:00010390       ?SetNormalScreen2D@CDrFE0D@@UAEXUtagPOINT@@@Z 10011390 f i Rn_wire0.obj
 0001:000103c0       ?IsMeshNode@CDrFE0D@@UAEHXZ 100113c0 f i Rn_wire0.obj
 0001:000103e0       ?SetMeshNode@CDrFE0D@@UAEXH@Z 100113e0 f i Rn_wire0.obj
 0001:00010410       ?GetHist_S@CDrFE0D@@QAEHXZ 10011410 f i Rn_wire0.obj
 0001:00010430       ?SetHist_S@CDrFE0D@@QAEXH@Z 10011430 f i Rn_wire0.obj
 0001:00010460       ?GetHist_T@CDrFE0D@@QAEHXZ 10011460 f i Rn_wire0.obj
 0001:00010480       ?SetHist_T@CDrFE0D@@QAEXH@Z 10011480 f i Rn_wire0.obj
 0001:000104b0       ?GetHist_R@CDrFE0D@@QAEHXZ 100114b0 f i Rn_wire0.obj
 0001:000104d0       ?SetHist_R@CDrFE0D@@QAEXH@Z 100114d0 f i Rn_wire0.obj
 0001:00010500       ?IsDirty@CDrCurve@@UAEHXZ  10011500 f i Rn_wire0.obj
 0001:00010520       ?SetDirty@CDrCurve@@UAEXH@Z 10011520 f i Rn_wire0.obj
 0001:00010550       ?IsControlShapeNeeded@CDrCurve@@UAEHXZ 10011550 f i Rn_wire0.obj
 0001:00010570       ?SetControlShapeNeed@CDrCurve@@UAEXH@Z 10011570 f i Rn_wire0.obj
 0001:000105a0       ?IsPosted@CDrCurve@@UAEHXZ 100115a0 f i Rn_wire0.obj
 0001:000105c0       ?SetPosted@CDrCurve@@UAEXH@Z 100115c0 f i Rn_wire0.obj
 0001:000105f0       ?GetCN_BSList@CDrCurve@@QAEPAVCDListMgr@@XZ 100115f0 f i Rn_wire0.obj
 0001:00010610       ?GetVNodeList@CDrCurve@@QAEPAVCDListMgr@@XZ 10011610 f i Rn_wire0.obj
 0001:00010630       ?GetMeshElemDim@CDrCurve@@QAEHXZ 10011630 f i Rn_wire0.obj
 0001:00010650       ?SetMeshElemDim@CDrCurve@@QAEXH@Z 10011650 f i Rn_wire0.obj
 0001:00010680       ?IsIso@CDrCurve@@QAEHXZ    10011680 f i Rn_wire0.obj
 0001:000106a0       ?SetIso@CDrCurve@@QAEXH@Z  100116a0 f i Rn_wire0.obj
 0001:000106d0       ?GetIsoToID@CDrCurve@@QAEAAVCString@@XZ 100116d0 f i Rn_wire0.obj
 0001:000106f0       ?SetIsoToID@CDrCurve@@QAEXAAVCString@@@Z 100116f0 f i Rn_wire0.obj
 0001:00010720       ?GetCompoType@CDrCurve@@QAEHXZ 10011720 f i Rn_wire0.obj
 0001:00010740       ?SetCompoType@CDrCurve@@QAEXH@Z 10011740 f i Rn_wire0.obj
 0001:00010770       ?GetCompoID@CDrCurve@@QAEAAVCString@@XZ 10011770 f i Rn_wire0.obj
 0001:00010790       ?SetCompoID@CDrCurve@@QAEXAAVCString@@@Z 10011790 f i Rn_wire0.obj
 0001:000107c0       ?GetClass_S@CDrCurve@@QAEHXZ 100117c0 f i Rn_wire0.obj
 0001:000107e0       ?SetClass_S@CDrCurve@@QAEXH@Z 100117e0 f i Rn_wire0.obj
 0001:00010810       ?GetOutSegUnif_S@CDrCurve@@QAEHXZ 10011810 f i Rn_wire0.obj
 0001:00010830       ?SetOutSegUnif_S@CDrCurve@@QAEXH@Z 10011830 f i Rn_wire0.obj
 0001:00010860       ?IsClosed_S@CDrCurve@@QAEHXZ 10011860 f i Rn_wire0.obj
 0001:00010880       ?SetClosed_S@CDrCurve@@QAEXH@Z 10011880 f i Rn_wire0.obj
 0001:000108b0       ?GetCurveObjectType@CDrCurve@@QAEHXZ 100118b0 f i Rn_wire0.obj
 0001:000108d0       ?SetCurveObjectType@CDrCurve@@QAEXH@Z 100118d0 f i Rn_wire0.obj
 0001:00010900       ?GetMaxINodes_S@CDrCurve@@QAEHXZ 10011900 f i Rn_wire0.obj
 0001:00010920       ?SetMaxINodes_S@CDrCurve@@QAEXH@Z 10011920 f i Rn_wire0.obj
 0001:00010950       ?GetMaxCNodes_S@CDrCurve@@QAEHXZ 10011950 f i Rn_wire0.obj
 0001:00010970       ?SetMaxCNodes_S@CDrCurve@@QAEXH@Z 10011970 f i Rn_wire0.obj
 0001:000109a0       ?GetMaxBezSegments_S@CDrCurve@@QAEHXZ 100119a0 f i Rn_wire0.obj
 0001:000109c0       ?SetMaxBezSegments_S@CDrCurve@@QAEXH@Z 100119c0 f i Rn_wire0.obj
 0001:000109f0       ?GetMaxOutPts_S@CDrCurve@@QAEHXZ 100119f0 f i Rn_wire0.obj
 0001:00010a10       ?SetMaxOutPts_S@CDrCurve@@QAEXH@Z 10011a10 f i Rn_wire0.obj
 0001:00010a40       ?GetLongOutPts@CDrCurve@@QAEJXZ 10011a40 f i Rn_wire0.obj
 0001:00010a60       ?SetLongOutPts@CDrCurve@@QAEXJ@Z 10011a60 f i Rn_wire0.obj
 0001:00010a90       ?GetCurveType_S@CDrCurve@@QAE?AW4CURVEPROC@@XZ 10011a90 f i Rn_wire0.obj
 0001:00010ab0       ?SetCurveType_S@CDrCurve@@QAEXW4CURVEPROC@@@Z 10011ab0 f i Rn_wire0.obj
 0001:00010ae0       ?GetOutMethod@CDrCurve@@QAE?AW4CURVEOUTPUT@@XZ 10011ae0 f i Rn_wire0.obj
 0001:00010b00       ?GetAlfa@CDrCurve@@QAENXZ  10011b00 f i Rn_wire0.obj
 0001:00010b20       ?GetBias@CDrCurve@@QAENXZ  10011b20 f i Rn_wire0.obj
 0001:00010b40       ?GetTension@CDrCurve@@QAENXZ 10011b40 f i Rn_wire0.obj
 0001:00010b60       ?IsUniform_S@CDrCurve@@QAEHXZ 10011b60 f i Rn_wire0.obj
 0001:00010b80       ?SetUniform_S@CDrCurve@@QAEXH@Z 10011b80 f i Rn_wire0.obj
 0001:00010bb0       ?SetOutMethod_S@CDrCurve@@QAEXW4CURVEOUTPUT@@@Z 10011bb0 f i Rn_wire0.obj
 0001:00010be0       ?GetMaxOutSeg_S@CDrCurve@@QAEHXZ 10011be0 f i Rn_wire0.obj
 0001:00010c00       ?SetMaxOutSeg_S@CDrCurve@@QAEXH@Z 10011c00 f i Rn_wire0.obj
 0001:00010c30       ?GetDis_AngPointer_S@CDrCurve@@QAEPANXZ 10011c30 f i Rn_wire0.obj
 0001:00010c50       ?SetDis_AngPointer_S@CDrCurve@@QAEXPAN@Z 10011c50 f i Rn_wire0.obj
 0001:00010c80       ?GetNum_tPointer_S@CDrCurve@@QAEPAHXZ 10011c80 f i Rn_wire0.obj
 0001:00010ca0       ?SetNum_tPointer_S@CDrCurve@@QAEXPAH@Z 10011ca0 f i Rn_wire0.obj
 0001:00010cd0       ?GetDis_tPointer_S@CDrCurve@@QAEPANXZ 10011cd0 f i Rn_wire0.obj
 0001:00010cf0       ?SetDis_tPointer_S@CDrCurve@@QAEXPAN@Z 10011cf0 f i Rn_wire0.obj
 0001:00010d20       ?GetNum_tPointer_Ex_S@CDrCurve@@QAEPAHXZ 10011d20 f i Rn_wire0.obj
 0001:00010d40       ?SetNum_tPointer_Ex_S@CDrCurve@@QAEXPAH@Z 10011d40 f i Rn_wire0.obj
 0001:00010d70       ?GetnBSeg_Ex_S@CDrCurve@@QAEHXZ 10011d70 f i Rn_wire0.obj
 0001:00010d90       ?SetnBSeg_Ex_S@CDrCurve@@QAEXH@Z 10011d90 f i Rn_wire0.obj
 0001:00010dc0       ?GetBSegPointer_Ex_S@CDrCurve@@QAEPAHXZ 10011dc0 f i Rn_wire0.obj
 0001:00010de0       ?SetBSegPointer_Ex_S@CDrCurve@@QAEXPAH@Z 10011de0 f i Rn_wire0.obj
 0001:00010e10       ?SetAlfa@CDrCurve@@QAEXN@Z 10011e10 f i Rn_wire0.obj
 0001:00010e40       ?SetBias@CDrCurve@@QAEXN@Z 10011e40 f i Rn_wire0.obj
 0001:00010e70       ?SetTension@CDrCurve@@QAEXN@Z 10011e70 f i Rn_wire0.obj
 0001:00010ea0       ?GetMemIn@CDrCurve@@QAEPAUWORLD@@XZ 10011ea0 f i Rn_wire0.obj
 0001:00010ec0       ?GetMemInWts@CDrCurve@@QAEPANXZ 10011ec0 f i Rn_wire0.obj
 0001:00010ee0       ?GetMemInDP@CDrCurve@@QAEPAUtagPOINT@@XZ 10011ee0 f i Rn_wire0.obj
 0001:00010f00       ?GetMemOut@CDrCurve@@QAEPAUWORLD@@XZ 10011f00 f i Rn_wire0.obj
 0001:00010f20       ?GetMemOutWts@CDrCurve@@QAEPANXZ 10011f20 f i Rn_wire0.obj
 0001:00010f40       ?GetMemOutDP@CDrCurve@@QAEPAUtagPOINT@@XZ 10011f40 f i Rn_wire0.obj
 0001:00010f60       ?SetMemIn@CDrCurve@@QAEXPAUWORLD@@@Z 10011f60 f i Rn_wire0.obj
 0001:00010f90       ?SetMemInWts@CDrCurve@@QAEXPAN@Z 10011f90 f i Rn_wire0.obj
 0001:00010fc0       ?SetMemInDP@CDrCurve@@QAEXPAUtagPOINT@@@Z 10011fc0 f i Rn_wire0.obj
 0001:00010ff0       ?SetMemOut@CDrCurve@@QAEXPAUWORLD@@@Z 10011ff0 f i Rn_wire0.obj
 0001:00011020       ?SetMemOutWts@CDrCurve@@QAEXPAN@Z 10012020 f i Rn_wire0.obj
 0001:00011050       ?SetMemOutDP@CDrCurve@@QAEXPAUtagPOINT@@@Z 10012050 f i Rn_wire0.obj
 0001:00011080       ?FixMemD@CDrCurve@@QAEPANJ@Z 10012080 f i Rn_wire0.obj
 0001:000110c0       ?FreeMemD@CDrCurve@@QAEXPAN@Z 100120c0 f i Rn_wire0.obj
 0001:000110f0       ?FixMem@CDrCurve@@QAEPAUWORLD@@J@Z 100120f0 f i Rn_wire0.obj
 0001:00011130       ?FreeMem@CDrCurve@@QAEXPAUWORLD@@@Z 10012130 f i Rn_wire0.obj
 0001:00011160       ?FixMemDP@CDrCurve@@QAEPAUtagPOINT@@J@Z 10012160 f i Rn_wire0.obj
 0001:000111a0       ?FreeMemDP@CDrCurve@@QAEXPAUtagPOINT@@@Z 100121a0 f i Rn_wire0.obj
 0001:000111d0       ?GetData_S@CDrCurve@@QAEHXZ 100121d0 f i Rn_wire0.obj
 0001:000111f0       ?SetData_S@CDrCurve@@QAEXH@Z 100121f0 f i Rn_wire0.obj
 0001:00011220       ?GetOrder_S@CDrCurve@@QAEHXZ 10012220 f i Rn_wire0.obj
 0001:00011240       ?SetOrder_S@CDrCurve@@QAEXH@Z 10012240 f i Rn_wire0.obj
 0001:00011270       ?GetKnotType_S@CDrCurve@@QAE?AW4KNOT@@XZ 10012270 f i Rn_wire0.obj
 0001:00011290       ?SetKnotType_S@CDrCurve@@QAEXW4KNOT@@@Z 10012290 f i Rn_wire0.obj
 0001:000112c0       ?GetWtType_S@CDrCurve@@QAE?AW4WEIGHT@@XZ 100122c0 f i Rn_wire0.obj
 0001:000112e0       ?SetWtType_S@CDrCurve@@QAEXW4WEIGHT@@@Z 100122e0 f i Rn_wire0.obj
 0001:00011310       ?GetBCL_S@CDrCurve@@QAE?AW4BOUNDARY@@XZ 10012310 f i Rn_wire0.obj
 0001:00011330       ?SetBCL_S@CDrCurve@@QAEXW4BOUNDARY@@@Z 10012330 f i Rn_wire0.obj
 0001:00011360       ?GetBCR_S@CDrCurve@@QAE?AW4BOUNDARY@@XZ 10012360 f i Rn_wire0.obj
 0001:00011380       ?SetBCR_S@CDrCurve@@QAEXW4BOUNDARY@@@Z 10012380 f i Rn_wire0.obj
 0001:000113b0       ?GetTanL_S@CDrCurve@@QAE?AUVECTOR@@XZ 100123b0 f i Rn_wire0.obj
 0001:000113e0       ?SetTanL_S@CDrCurve@@QAEXUVECTOR@@@Z 100123e0 f i Rn_wire0.obj
 0001:00011410       ?GetTanR_S@CDrCurve@@QAE?AUVECTOR@@XZ 10012410 f i Rn_wire0.obj
 0001:00011440       ?SetTanR_S@CDrCurve@@QAEXUVECTOR@@@Z 10012440 f i Rn_wire0.obj
 0001:00011470       ?GetnCon_BS_S@CDrCurve@@QAEHXZ 10012470 f i Rn_wire0.obj
 0001:00011490       ?SetnCon_BS_S@CDrCurve@@QAEXH@Z 10012490 f i Rn_wire0.obj
 0001:000114c0       ?GetnCon_BZ_S@CDrCurve@@QAEHXZ 100124c0 f i Rn_wire0.obj
 0001:000114e0       ?SetnCon_BZ_S@CDrCurve@@QAEXH@Z 100124e0 f i Rn_wire0.obj
 0001:00011510       ?GetnMKnots_S@CDrCurve@@QAEHXZ 10012510 f i Rn_wire0.obj
 0001:00011530       ?SetnMKnots_S@CDrCurve@@QAEXH@Z 10012530 f i Rn_wire0.obj
 0001:00011560       ?GetnKnots_S@CDrCurve@@QAEHXZ 10012560 f i Rn_wire0.obj
 0001:00011580       ?SetnKnots_S@CDrCurve@@QAEXH@Z 10012580 f i Rn_wire0.obj
 0001:000115b0       ?GetnDim_S@CDrCurve@@QAEHXZ 100125b0 f i Rn_wire0.obj
 0001:000115d0       ?SetnDim_S@CDrCurve@@QAEXH@Z 100125d0 f i Rn_wire0.obj
 0001:00011600       ?GetpMKnots_S@CDrCurve@@QAEPANXZ 10012600 f i Rn_wire0.obj
 0001:00011620       ?SetpMKnots_S@CDrCurve@@QAEXPAN@Z 10012620 f i Rn_wire0.obj
 0001:00011650       ?GetpWts_BS_S@CDrCurve@@QAEPANXZ 10012650 f i Rn_wire0.obj
 0001:00011670       ?SetpWts_BS_S@CDrCurve@@QAEXPAN@Z 10012670 f i Rn_wire0.obj
 0001:000116a0       ?GetpKnots_S@CDrCurve@@QAEPANXZ 100126a0 f i Rn_wire0.obj
 0001:000116c0       ?SetpKnots_S@CDrCurve@@QAEXPAN@Z 100126c0 f i Rn_wire0.obj
 0001:000116f0       ?GetpWts_DT_S@CDrCurve@@QAEPANXZ 100126f0 f i Rn_wire0.obj
 0001:00011710       ?SetpWts_DT_S@CDrCurve@@QAEXPAN@Z 10012710 f i Rn_wire0.obj
 0001:00011740       ?GetpWts_BZ_S@CDrCurve@@QAEPANXZ 10012740 f i Rn_wire0.obj
 0001:00011760       ?SetpWts_BZ_S@CDrCurve@@QAEXPAN@Z 10012760 f i Rn_wire0.obj
 0001:00011790       ?GetFromIDNode_S@CDrCurve@@QAEPAVCDrNode@@XZ 10012790 f i Rn_wire0.obj
 0001:000117b0       ?SetFromIDNode_S@CDrCurve@@QAEXPAVCDrNode@@@Z 100127b0 f i Rn_wire0.obj
 0001:000117e0       ?GetToIDNode_S@CDrCurve@@QAEPAVCDrNode@@XZ 100127e0 f i Rn_wire0.obj
 0001:00011800       ?SetToIDNode_S@CDrCurve@@QAEXPAVCDrNode@@@Z 10012800 f i Rn_wire0.obj
 0001:00011830       ?GetData_Ex_S@CDrCurve@@QAEHXZ 10012830 f i Rn_wire0.obj
 0001:00011850       ?SetData_Ex_S@CDrCurve@@QAEXH@Z 10012850 f i Rn_wire0.obj
 0001:00011880       ?IsExpanded_S@CDrCurve@@QAEHXZ 10012880 f i Rn_wire0.obj
 0001:000118a0       ?SetExpanded_S@CDrCurve@@QAEXH@Z 100128a0 f i Rn_wire0.obj
 0001:000118d0       ?GetMaxENodes_S@CDrCurve@@QAEHXZ 100128d0 f i Rn_wire0.obj
 0001:000118f0       ?SetMaxENodes_S@CDrCurve@@QAEXH@Z 100128f0 f i Rn_wire0.obj
 0001:00011920       ?GetRadius_S@CDrCurve@@QAENXZ 10012920 f i Rn_wire0.obj
 0001:00011940       ?SetRadius_S@CDrCurve@@QAEXN@Z 10012940 f i Rn_wire0.obj
 0001:00011970       ?GetTheta_S@CDrCurve@@QAENXZ 10012970 f i Rn_wire0.obj
 0001:00011990       ?SetTheta_S@CDrCurve@@QAEXN@Z 10012990 f i Rn_wire0.obj
 0001:000119c0       ?GetCenter_S@CDrCurve@@QAE?AUWORLD@@XZ 100129c0 f i Rn_wire0.obj
 0001:000119f0       ?SetCenter_S@CDrCurve@@QAEXUWORLD@@@Z 100129f0 f i Rn_wire0.obj
 0001:00011a50       ?GetNormal_S@CDrCurve@@QAE?AUWORLD@@XZ 10012a50 f i Rn_wire0.obj
 0001:00011a80       ?SetNormal_S@CDrCurve@@QAEXUWORLD@@@Z 10012a80 f i Rn_wire0.obj
 0001:00011ae0       ?GetSegAngle_S@CDrCurve@@QAENXZ 10012ae0 f i Rn_wire0.obj
 0001:00011b00       ?SetSegAngle_S@CDrCurve@@QAEXN@Z 10012b00 f i Rn_wire0.obj
 0001:00011b30       ?GetCNode_CC@CDrCurve@@QAEPAVCDrNode@@XZ 10012b30 f i Rn_wire0.obj
 0001:00011b50       ?SetCNode_CC@CDrCurve@@QAEXPAVCDrNode@@@Z 10012b50 f i Rn_wire0.obj
 0001:00011b80       ?GetCNode_TI@CDrCurve@@QAEPAVCDrNode@@XZ 10012b80 f i Rn_wire0.obj
 0001:00011ba0       ?SetCNode_TI@CDrCurve@@QAEXPAVCDrNode@@@Z 10012ba0 f i Rn_wire0.obj
 0001:00011bd0       ?GetCNode_CA@CDrCurve@@QAEPAVCDrNode@@XZ 10012bd0 f i Rn_wire0.obj
 0001:00011bf0       ?SetCNode_CA@CDrCurve@@QAEXPAVCDrNode@@@Z 10012bf0 f i Rn_wire0.obj
 0001:00011c20       ?GetCNode_CB@CDrCurve@@QAEPAVCDrNode@@XZ 10012c20 f i Rn_wire0.obj
 0001:00011c40       ?SetCNode_CB@CDrCurve@@QAEXPAVCDrNode@@@Z 10012c40 f i Rn_wire0.obj
 0001:00011c70       ?IsHole_S@CDrCurve@@QAEHXZ 10012c70 f i Rn_wire0.obj
 0001:00011c90       ?SetHole_S@CDrCurve@@QAEXH@Z 10012c90 f i Rn_wire0.obj
 0001:00011cc0       ?GetpTangents_S@CDrCurve@@QAEPAUWORLD@@XZ 10012cc0 f i Rn_wire0.obj
 0001:00011ce0       ?SetpTangents_S@CDrCurve@@QAEXPAUWORLD@@@Z 10012ce0 f i Rn_wire0.obj
 0001:00011d10       ?GetpCurvatures_S@CDrCurve@@QAEPANXZ 10012d10 f i Rn_wire0.obj
 0001:00011d30       ?SetpCurvatures_S@CDrCurve@@QAEXPAN@Z 10012d30 f i Rn_wire0.obj
 0001:00011d60       ?GetRatio_S@CDrCurve@@QAENXZ 10012d60 f i Rn_wire0.obj
 0001:00011d80       ?SetRatio_S@CDrCurve@@QAEXN@Z 10012d80 f i Rn_wire0.obj
 0001:00011db0       ?IsAxisInput@CDrCurve@@QAEHXZ 10012db0 f i Rn_wire0.obj
 0001:00011dd0       ?SetAxisInput@CDrCurve@@QAEXH@Z 10012dd0 f i Rn_wire0.obj
 0001:00011e00       ?GetAxis@CDrCurve@@QAEHXZ  10012e00 f i Rn_wire0.obj
 0001:00011e20       ?SetAxis@CDrCurve@@QAEXH@Z 10012e20 f i Rn_wire0.obj
 0001:00011e50       ?IsNegative@CDrCurve@@QAEHXZ 10012e50 f i Rn_wire0.obj
 0001:00011e70       ?SetNegative@CDrCurve@@QAEXH@Z 10012e70 f i Rn_wire0.obj
 0001:00011ea0       ?GetCircleType@CDrCurve@@QAE?AW4CIRCLETYPE@@XZ 10012ea0 f i Rn_wire0.obj
 0001:00011ec0       ?SetCircleType@CDrCurve@@QAEXW4CIRCLETYPE@@@Z 10012ec0 f i Rn_wire0.obj
 0001:00011ef0       ?GetInputType@CDrCurve@@QAEHXZ 10012ef0 f i Rn_wire0.obj
 0001:00011f10       ?SetInputType@CDrCurve@@QAEXH@Z 10012f10 f i Rn_wire0.obj
 0001:00011f40       ?IsArcType@CDrCurve@@QAEHXZ 10012f40 f i Rn_wire0.obj
 0001:00011f60       ?SetArcType@CDrCurve@@QAEXH@Z 10012f60 f i Rn_wire0.obj
 0001:00011f90       ?GetElperSegList_S@CDrCurve@@QAEPAV?$CList@HH@@XZ 10012f90 f i Rn_wire0.obj
 0001:00011fb0       ?IsSkewed@CDrCurve@@UAEHXZ 10012fb0 f i Rn_wire0.obj
 0001:00011fd0       ?SetSkewed@CDrCurve@@UAEXH@Z 10012fd0 f i Rn_wire0.obj
 0001:00012000       ?IsLinSpr@CDrCurve@@UAEHXZ 10013000 f i Rn_wire0.obj
 0001:00012020       ?SetLinSpr@CDrCurve@@UAEXH@Z 10013020 f i Rn_wire0.obj
 0001:00012050       ?IsLinSnu@CDrCurve@@UAEHXZ 10013050 f i Rn_wire0.obj
 0001:00012070       ?SetLinSnu@CDrCurve@@UAEXH@Z 10013070 f i Rn_wire0.obj
 0001:000120a0       ?CullWorld@CDrCurve@@UAEHUWORLD@@@Z 100130a0 f i Rn_wire0.obj
 0001:000120c0       ?CullScreen@CDrCurve@@UAEHPAUMATRIX@@@Z 100130c0 f i Rn_wire0.obj
 0001:000120e0       ?Calc_CentroidWorld@CDrCurve@@UAEXXZ 100130e0 f i Rn_wire0.obj
 0001:00012100       ?Calc_CentroidEye@CDrCurve@@UAEXXZ 10013100 f i Rn_wire0.obj
 0001:00012120       ?Calc_CentroidScreen3D@CDrCurve@@UAEXNN@Z 10013120 f i Rn_wire0.obj
 0001:00012140       ?Calc_NormalWorld@CDrCurve@@UAEXXZ 10013140 f i Rn_wire0.obj
 0001:00012160       ?TransformNormalToEye@CDrCurve@@UAEXPAUMATRIX@@@Z 10013160 f i Rn_wire0.obj
 0001:00012180       ?ProjectNormalToScreen3D@CDrCurve@@UAEXPAUMATRIX@@NN@Z 10013180 f i Rn_wire0.obj
 0001:000121a0       ?GetNormalWorld@CDrCurve@@UAEPAUWORLD@@XZ 100131a0 f i Rn_wire0.obj
 0001:000121c0       ?SetNormalWorld@CDrCurve@@UAEXUWORLD@@@Z 100131c0 f i Rn_wire0.obj
 0001:000121e0       ?GetNormalEye@CDrCurve@@UAEPAUWORLD@@XZ 100131e0 f i Rn_wire0.obj
 0001:00012200       ?SetNormalEye@CDrCurve@@UAEXUWORLD@@@Z 10013200 f i Rn_wire0.obj
 0001:00012220       ?GetNormalScreen3D@CDrCurve@@UAEPAUWORLD@@XZ 10013220 f i Rn_wire0.obj
 0001:00012240       ?SetNormalScreen3D@CDrCurve@@UAEXUWORLD@@@Z 10013240 f i Rn_wire0.obj
 0001:00012260       ?GetNormalScreen2D@CDrCurve@@UAEPAUtagPOINT@@XZ 10013260 f i Rn_wire0.obj
 0001:00012280       ?SetNormalScreen2D@CDrCurve@@UAEXUtagPOINT@@@Z 10013280 f i Rn_wire0.obj
 0001:000122a0       ?GetNodTopoList@CDrCurve@@QAEPAVCDListMgr@@XZ 100132a0 f i Rn_wire0.obj
 0001:000122c0       ?GetSuppCardList@CDrCurve@@QAEPAV?$CList@Usupportcard@@U1@@@XZ 100132c0 f i Rn_wire0.obj
 0001:000122e0       ?GetStaLCardList@CDrCurve@@QAEPAV?$CList@UstaLcard@@U1@@@XZ 100132e0 f i Rn_wire0.obj
 0001:00012300       ?GetBndryPtList@CDrCurve@@QAEPAV?$CList@UWORLD@@U1@@@XZ 10013300 f i Rn_wire0.obj
 0001:00012320       ?GetBezierType@CDrCurve@@QAE?AW4BEZIERTYPE@@XZ 10013320 f i Rn_wire0.obj
 0001:00012340       ?SetBezierType@CDrCurve@@QAEXW4BEZIERTYPE@@@Z 10013340 f i Rn_wire0.obj
 0001:00012370       ?GetCurveList@CDrProf_C@@QAEPAVCDListMgr@@XZ 10013370 f i Rn_wire0.obj
 0001:00012390       ?GetLMList@CDrProf_C@@QAEPAVCDListMgr@@XZ 10013390 f i Rn_wire0.obj
 0001:000123b0       ?GetCurve@CDrProf_C@@QAEPAVCDrCurve@@XZ 100133b0 f i Rn_wire0.obj
 0001:000123d0       ?SetCurve@CDrProf_C@@QAEXPAVCDrCurve@@@Z 100133d0 f i Rn_wire0.obj
 0001:00012400       ?GetProfileType@CDrProf_C@@QAE?AW4PROFILETYPE@@XZ 10013400 f i Rn_wire0.obj
 0001:00012420       ?SetProfileType@CDrProf_C@@QAEXW4PROFILETYPE@@@Z 10013420 f i Rn_wire0.obj
 0001:00012450       ??1CWire_0@@UAE@XZ         10013450 f i Rn_wire0.obj
 0001:00012480       ??_GCWire_0@@UAEPAXI@Z     10013480 f i Rn_wire0.obj
 0001:000124c0       ??_ECWire_0@@UAEPAXI@Z     100134c0 f i Rn_wire0.obj
 0001:00012540       ?_GetBaseClass@CWire_0@@KGPAUCRuntimeClass@@XZ 10013540 f   Rn_wire0.obj
 0001:00012560       ?GetRuntimeClass@CWire_0@@UBEPAUCRuntimeClass@@XZ 10013560 f   Rn_wire0.obj
 0001:00012580       ??0CWire_0@@QAE@XZ         10013580 f   Rn_wire0.obj
 0001:000125c0       ??0CWire_0@@QAE@PAVCDrawView@@W4RENDITION@@HQAH22@Z 100135c0 f   Rn_wire0.obj
 0001:00012980       ?Init@CWire_0@@QAEHHHUWORLD@@PAUMATRIX@@11NNNN@Z 10013980 f   Rn_wire0.obj
 0001:00012ac0       ?RenderScene_GENERATOR@CWire_0@@QAEHPAVCClientDC@@AAVCRect@@HHH@Z 10013ac0 f   Rn_wire0.obj
 0001:00012f30       ?GetObjectMgr@CDrGrafDoc@@QAEPAVCObjectMgr@@XZ 10013f30 f i Rn_wire0.obj
 0001:00012f50       ?RenderOBJ3D@CWire_0@@IAEHPAVCClientDC@@AAVCRect@@PAVCDrObject@@H@Z 10013f50 f   Rn_wire0.obj
 0001:00013150       ?RenderSOLID@CWire_0@@IAEHPAVCClientDC@@AAVCRect@@PAVCDrObject@@H@Z 10014150 f   Rn_wire0.obj
 0001:000132b0       ?RenderPATCH@CWire_0@@IAEHPAVCClientDC@@AAVCRect@@PAVCDrObject@@H@Z 100142b0 f   Rn_wire0.obj
 0001:00013410       ?RenderCURVE@CWire_0@@IAEHPAVCClientDC@@AAVCRect@@PAVCDrObject@@H@Z 10014410 f   Rn_wire0.obj
 0001:00013570       ?RenderNODE@CWire_0@@IAEHPAVCClientDC@@AAVCRect@@PAVCDrObject@@H@Z 10014570 f   Rn_wire0.obj
 0001:000136c0       ?RenderSTATIC@CWire_0@@IAEHPAVCClientDC@@AAVCRect@@PAVCDrObject@@H@Z 100146c0 f   Rn_wire0.obj
 0001:00013810       ?RenderSUPPORT@CWire_0@@IAEHPAVCClientDC@@AAVCRect@@PAVCDrObject@@H@Z 10014810 f   Rn_wire0.obj
 0001:00013950       ?RenderSTRAY@CWire_0@@IAEHPAVCClientDC@@AAVCRect@@PAVCDrObject@@HH@Z 10014950 f   Rn_wire0.obj
 0001:00013b40       ?RenderLabelMeshElem@CWire_0@@IAEHPAVCDC@@PAVCDrObject@@HH@Z 10014b40 f   Rn_wire0.obj
 0001:00013e90       ?RenderLabels@CWire_0@@IAEHPAVCDC@@PAVCDrObject@@HH@Z 10014e90 f   Rn_wire0.obj
 0001:00014000       ?RenderReadyOBJECT@CWire_0@@QAEXPAVCDC@@PAVCDrObject@@H@Z 10015000 f   Rn_wire0.obj
 0001:000141f0       ?RenderReadyMESH@CWire_0@@QAEXPAVCDC@@PAVCDrObject@@H@Z 100151f0 f   Rn_wire0.obj
 0001:00014340       ?RenderScene_MESH@CWire_0@@QAEHPAVCClientDC@@AAVCRect@@HHH@Z 10015340 f   Rn_wire0.obj
 0001:00014720       ?RenderMesh3D@CWire_0@@IAEHPAVCClientDC@@AAVCRect@@PAVCDrObject@@H@Z 10015720 f   Rn_wire0.obj
 0001:00014970       ?RenderMesh2D@CWire_0@@IAEHPAVCClientDC@@AAVCRect@@PAVCDrObject@@H@Z 10015970 f   Rn_wire0.obj
 0001:00014af0       ?RenderMesh1D@CWire_0@@IAEHPAVCClientDC@@AAVCRect@@PAVCDrObject@@H@Z 10015af0 f   Rn_wire0.obj
 0001:00014bb0       ?IsSubDivided@CTriangle@@UAEHXZ 10015bb0 f i Rn_wire1.obj
 0001:00014bd0       ?SetSubDivided@CTriangle@@UAEXH@Z 10015bd0 f i Rn_wire1.obj
 0001:00014bf0       ?GetSubTriangleIndex@CTriangle@@UAEHH@Z 10015bf0 f i Rn_wire1.obj
 0001:00014c10       ?SetSubTriangleIndex@CTriangle@@UAEXHH@Z 10015c10 f i Rn_wire1.obj
 0001:00014c40       ?GetType@CTriangle@@UAEHXZ 10015c40 f i Rn_wire1.obj
 0001:00014c60       ?SetType@CTriangle@@UAEXH@Z 10015c60 f i Rn_wire1.obj
 0001:00014c80       ?GetCNIndexList@CTriangle@@UAEPAV?$CList@HH@@XZ 10015c80 f i Rn_wire1.obj
 0001:00014ca0       ?GetPatIndex@CTriangle@@UAEHXZ 10015ca0 f i Rn_wire1.obj
 0001:00014cc0       ?SetPatIndex@CTriangle@@UAEXH@Z 10015cc0 f i Rn_wire1.obj
 0001:00014ce0       ?GetDegree@CTriangle@@UAEHXZ 10015ce0 f i Rn_wire1.obj
 0001:00014d00       ?SetDegree@CTriangle@@UAEXH@Z 10015d00 f i Rn_wire1.obj
 0001:00014d20       ?GetVertexIndex@CTriangle@@UAEHH@Z 10015d20 f i Rn_wire1.obj
 0001:00014d40       ?SetVertexIndex@CTriangle@@UAEXHH@Z 10015d40 f i Rn_wire1.obj
 0001:00014d70       ?GetVertexIndex@CTriangle@@UAEPAHXZ 10015d70 f i Rn_wire1.obj
 0001:00014d90       ?GetNebrVertexIndex@CTriangle@@UAEHH@Z 10015d90 f i Rn_wire1.obj
 0001:00014db0       ?SetNebrVertexIndex@CTriangle@@UAEXHH@Z 10015db0 f i Rn_wire1.obj
 0001:00014de0       ?GetNebrVertexIndex@CTriangle@@UAEPAHXZ 10015de0 f i Rn_wire1.obj
 0001:00014e00       ?GetNebrTriangleIndex@CTriangle@@UAEHH@Z 10015e00 f i Rn_wire1.obj
 0001:00014e20       ?SetNebrTriangleIndex@CTriangle@@UAEXHH@Z 10015e20 f i Rn_wire1.obj
 0001:00014e50       ?GetNebrTriangleIndex@CTriangle@@UAEPAHXZ 10015e50 f i Rn_wire1.obj
 0001:00014e70       ?GetOutSeg@CTriangle@@UAEHXZ 10015e70 f i Rn_wire1.obj
 0001:00014e90       ?SetOutSeg@CTriangle@@UAEXH@Z 10015e90 f i Rn_wire1.obj
 0001:00014eb0       ?GetiOutGlo@CTriangle@@UAEHXZ 10015eb0 f i Rn_wire1.obj
 0001:00014ed0       ?SetiOutGlo@CTriangle@@UAEXH@Z 10015ed0 f i Rn_wire1.obj
 0001:00014f00       ?GetjOutGlo@CTriangle@@UAEHXZ 10015f00 f i Rn_wire1.obj
 0001:00014f20       ?SetjOutGlo@CTriangle@@UAEXH@Z 10015f20 f i Rn_wire1.obj
 0001:00014f50       ??1CTriangle@@UAE@XZ       10015f50 f i Rn_wire1.obj
 0001:00014fb0       ??_GCTriangle@@UAEPAXI@Z   10015fb0 f i Rn_wire1.obj
 0001:00014ff0       ??_ECTriangle@@UAEPAXI@Z   10015ff0 f i Rn_wire1.obj
 0001:00015070       ?GetCategory@CDrPatch@@UAE?AW4CATEGORY@@XZ 10016070 f i Rn_wire1.obj
 0001:00015090       ?SetCategory@CDrPatch@@UAEXW4CATEGORY@@@Z 10016090 f i Rn_wire1.obj
 0001:000150b0       ?IsNormalNeeded@CDrPatch@@UAEHXZ 100160b0 f i Rn_wire1.obj
 0001:000150d0       ?SetNormalNeed@CDrPatch@@UAEXH@Z 100160d0 f i Rn_wire1.obj
 0001:00015100       ?GetCurveType_T@CDrPatch@@QAE?AW4CURVEPROC@@XZ 10016100 f i Rn_wire1.obj
 0001:00015120       ?SetCurveType_T@CDrPatch@@QAEXW4CURVEPROC@@@Z 10016120 f i Rn_wire1.obj
 0001:00015150       ?GetOutSegUnif_T@CDrPatch@@QAEHXZ 10016150 f i Rn_wire1.obj
 0001:00015170       ?SetOutSegUnif_T@CDrPatch@@QAEXH@Z 10016170 f i Rn_wire1.obj
 0001:000151a0       ?IsClosed_T@CDrPatch@@QAEHXZ 100161a0 f i Rn_wire1.obj
 0001:000151c0       ?SetClosed_T@CDrPatch@@QAEXH@Z 100161c0 f i Rn_wire1.obj
 0001:000151f0       ?GetMaxBezSegments_T@CDrPatch@@QAEHXZ 100161f0 f i Rn_wire1.obj
 0001:00015210       ?SetMaxBezSegments_T@CDrPatch@@QAEXH@Z 10016210 f i Rn_wire1.obj
 0001:00015240       ?GetMaxCNodes_T@CDrPatch@@QAEHXZ 10016240 f i Rn_wire1.obj
 0001:00015260       ?SetMaxCNodes_T@CDrPatch@@QAEXH@Z 10016260 f i Rn_wire1.obj
 0001:00015290       ?GetMaxOutPts_T@CDrPatch@@QAEHXZ 10016290 f i Rn_wire1.obj
 0001:000152b0       ?SetMaxOutPts_T@CDrPatch@@QAEXH@Z 100162b0 f i Rn_wire1.obj
 0001:000152e0       ?GetNodes_S@CDrPatch@@QAEHXZ 100162e0 f i Rn_wire1.obj
 0001:00015300       ?SetNodes_S@CDrPatch@@QAEXH@Z 10016300 f i Rn_wire1.obj
 0001:00015330       ?GetNodes_T@CDrPatch@@QAEHXZ 10016330 f i Rn_wire1.obj
 0001:00015350       ?SetNodes_T@CDrPatch@@QAEXH@Z 10016350 f i Rn_wire1.obj
 0001:00015380       ?GetPrimaryDir@CDrPatch@@QAEHXZ 10016380 f i Rn_wire1.obj
 0001:000153a0       ?SetPrimaryDir@CDrPatch@@QAEXH@Z 100163a0 f i Rn_wire1.obj
 0001:000153d0       ?GetBlendCurve@CDrPatch@@QAEPAVCDrCurve@@XZ 100163d0 f i Rn_wire1.obj
 0001:000153f0       ?SetBlendCurve@CDrPatch@@QAEXPAVCDrCurve@@@Z 100163f0 f i Rn_wire1.obj
 0001:00015420       ?GetBlendCurve_U@CDrPatch@@QAEPAVCDrCurve@@XZ 10016420 f i Rn_wire1.obj
 0001:00015440       ?SetBlendCurve_U@CDrPatch@@QAEXPAVCDrCurve@@@Z 10016440 f i Rn_wire1.obj
 0001:00015470       ?GetBlendCurve_V@CDrPatch@@QAEPAVCDrCurve@@XZ 10016470 f i Rn_wire1.obj
 0001:00015490       ?SetBlendCurve_V@CDrPatch@@QAEXPAVCDrCurve@@@Z 10016490 f i Rn_wire1.obj
 0001:000154c0       ?GetBlendCurve_W@CDrPatch@@QAEPAVCDrCurve@@XZ 100164c0 f i Rn_wire1.obj
 0001:000154e0       ?SetBlendCurve_W@CDrPatch@@QAEXPAVCDrCurve@@@Z 100164e0 f i Rn_wire1.obj
 0001:00015510       ?GetVCurveList@CDrPatch@@QAEPAVCDListMgr@@XZ 10016510 f i Rn_wire1.obj
 0001:00015530       ?GetCurveList_U@CDrPatch@@QAEPAVCDListMgr@@XZ 10016530 f i Rn_wire1.obj
 0001:00015550       ?GetCurveList_V@CDrPatch@@QAEPAVCDListMgr@@XZ 10016550 f i Rn_wire1.obj
 0001:00015570       ?GetCurveList_W@CDrPatch@@QAEPAVCDListMgr@@XZ 10016570 f i Rn_wire1.obj
 0001:00015590       ?GetCurveLatchList_U@CDrPatch@@QAEPAV?$CList@W4CURVELATCH@@W41@@@XZ 10016590 f i Rn_wire1.obj
 0001:000155b0       ?GetCurveLatchList_V@CDrPatch@@QAEPAV?$CList@W4CURVELATCH@@W41@@@XZ 100165b0 f i Rn_wire1.obj
 0001:000155d0       ?GetCurveLatchList_W@CDrPatch@@QAEPAV?$CList@W4CURVELATCH@@W41@@@XZ 100165d0 f i Rn_wire1.obj
 0001:000155f0       ?IsAdvancedEnd_U@CDrPatch@@QAEHXZ 100165f0 f i Rn_wire1.obj
 0001:00015610       ?SetAdvancedEnd_U@CDrPatch@@QAEXH@Z 10016610 f i Rn_wire1.obj
 0001:00015640       ?GetCornerTwist_U@CDrPatch@@QAEPAY01UWORLD@@XZ 10016640 f i Rn_wire1.obj
 0001:00015660       ?SetCornerTwist_U@CDrPatch@@QAEXPAY01UWORLD@@@Z 10016660 f i Rn_wire1.obj
 0001:00015690       ?GetTwistMethod_U@CDrPatch@@QAE?AW4TWIST@@XZ 10016690 f i Rn_wire1.obj
 0001:000156b0       ?SetTwistMethod_U@CDrPatch@@QAEXW4TWIST@@@Z 100166b0 f i Rn_wire1.obj
 0001:000156e0       ?IsAdvancedEnd_V@CDrPatch@@QAEHXZ 100166e0 f i Rn_wire1.obj
 0001:00015700       ?SetAdvancedEnd_V@CDrPatch@@QAEXH@Z 10016700 f i Rn_wire1.obj
 0001:00015730       ?GetCornerTwist_V@CDrPatch@@QAEPAY01UWORLD@@XZ 10016730 f i Rn_wire1.obj
 0001:00015750       ?SetCornerTwist_V@CDrPatch@@QAEXPAY01UWORLD@@@Z 10016750 f i Rn_wire1.obj
 0001:00015780       ?GetTwistMethod_V@CDrPatch@@QAE?AW4TWIST@@XZ 10016780 f i Rn_wire1.obj
 0001:000157a0       ?SetTwistMethod_V@CDrPatch@@QAEXW4TWIST@@@Z 100167a0 f i Rn_wire1.obj
 0001:000157d0       ?GetEndList_U@CDrPatch@@QAEPAV?$CList@Ublendend@@U1@@@XZ 100167d0 f i Rn_wire1.obj
 0001:000157f0       ?GetEndList_V@CDrPatch@@QAEPAV?$CList@Ublendend@@U1@@@XZ 100167f0 f i Rn_wire1.obj
 0001:00015810       ?GetElperSegList_T@CDrPatch@@QAEPAV?$CList@HH@@XZ 10016810 f i Rn_wire1.obj
 0001:00015830       ?GetCurveID@CDrPatch@@QAE?AVCString@@H@Z 10016830 f i Rn_wire1.obj
 0001:00015870       ?SetCurveID@CDrPatch@@QAEXVCString@@H@Z 10016870 f i Rn_wire1.obj
 0001:000158d0       ?GetBndryCurve@CDrPatch@@QAEPAVCDrCurve@@H@Z 100168d0 f i Rn_wire1.obj
 0001:00015900       ?SetCurve@CDrPatch@@QAEXPAVCDrCurve@@H@Z 10016900 f i Rn_wire1.obj
 0001:00015930       ?GetCurveLatch@CDrPatch@@QAE?AW4CURVELATCH@@H@Z 10016930 f i Rn_wire1.obj
 0001:00015960       ?SetCurveLatch@CDrPatch@@QAEXW4CURVELATCH@@H@Z 10016960 f i Rn_wire1.obj
 0001:00015990       ?GetFromIDNode_T@CDrPatch@@QAEPAVCDrNode@@XZ 10016990 f i Rn_wire1.obj
 0001:000159b0       ?SetFromIDNode_T@CDrPatch@@QAEXPAVCDrNode@@@Z 100169b0 f i Rn_wire1.obj
 0001:000159e0       ?GetToIDNode_T@CDrPatch@@QAEPAVCDrNode@@XZ 100169e0 f i Rn_wire1.obj
 0001:00015a00       ?SetToIDNode_T@CDrPatch@@QAEXPAVCDrNode@@@Z 10016a00 f i Rn_wire1.obj
 0001:00015a30       ?GetFromPtLocal_T@CDrPatch@@QAEPAUWORLD@@XZ 10016a30 f i Rn_wire1.obj
 0001:00015a50       ?SetFromPtLocal_T@CDrPatch@@QAEXUWORLD@@@Z 10016a50 f i Rn_wire1.obj
 0001:00015a80       ?GetToPtLocal_T@CDrPatch@@QAEPAUWORLD@@XZ 10016a80 f i Rn_wire1.obj
 0001:00015aa0       ?SetToPtLocal_T@CDrPatch@@QAEXUWORLD@@@Z 10016aa0 f i Rn_wire1.obj
 0001:00015ad0       ?GetFromPtWorld_T@CDrPatch@@QAEPAUWORLD@@XZ 10016ad0 f i Rn_wire1.obj
 0001:00015af0       ?SetFromPtWorld_T@CDrPatch@@QAEXUWORLD@@@Z 10016af0 f i Rn_wire1.obj
 0001:00015b20       ?GetToPtWorld_T@CDrPatch@@QAEPAUWORLD@@XZ 10016b20 f i Rn_wire1.obj
 0001:00015b40       ?SetToPtWorld_T@CDrPatch@@QAEXUWORLD@@@Z 10016b40 f i Rn_wire1.obj
 0001:00015b70       ?GetFromPtEye_T@CDrPatch@@QAEPAUWORLD@@XZ 10016b70 f i Rn_wire1.obj
 0001:00015b90       ?SetFromPtEye_T@CDrPatch@@QAEXUWORLD@@@Z 10016b90 f i Rn_wire1.obj
 0001:00015bc0       ?GetToPtEye_T@CDrPatch@@QAEPAUWORLD@@XZ 10016bc0 f i Rn_wire1.obj
 0001:00015be0       ?SetToPtEye_T@CDrPatch@@QAEXUWORLD@@@Z 10016be0 f i Rn_wire1.obj
 0001:00015c10       ?GetAxis_T@CDrPatch@@QAEPAUWORLD@@XZ 10016c10 f i Rn_wire1.obj
 0001:00015c30       ?SetAxis_T@CDrPatch@@QAEXUWORLD@@@Z 10016c30 f i Rn_wire1.obj
 0001:00015c60       ?GetExtruType_T@CDrPatch@@QAEHXZ 10016c60 f i Rn_wire1.obj
 0001:00015c80       ?SetExtruType_T@CDrPatch@@QAEXH@Z 10016c80 f i Rn_wire1.obj
 0001:00015cb0       ?GetLength_T@CDrPatch@@QAENXZ 10016cb0 f i Rn_wire1.obj
 0001:00015cd0       ?SetLength_T@CDrPatch@@QAEXN@Z 10016cd0 f i Rn_wire1.obj
 0001:00015d00       ?GetWorldLength_T@CDrPatch@@QAE?AUWORLD@@XZ 10016d00 f i Rn_wire1.obj
 0001:00015d30       ?SetWorldLength_T@CDrPatch@@QAEXUWORLD@@@Z 10016d30 f i Rn_wire1.obj
 0001:00015d60       ?GetSegs_T@CDrPatch@@QAEHXZ 10016d60 f i Rn_wire1.obj
 0001:00015d80       ?SetSegs_T@CDrPatch@@QAEXH@Z 10016d80 f i Rn_wire1.obj
 0001:00015db0       ?IsAxisInput_T@CDrPatch@@QAEHXZ 10016db0 f i Rn_wire1.obj
 0001:00015dd0       ?SetAxisInput_T@CDrPatch@@QAEXH@Z 10016dd0 f i Rn_wire1.obj
 0001:00015e00       ?GetAxisType_T@CDrPatch@@QAEHXZ 10016e00 f i Rn_wire1.obj
 0001:00015e20       ?SetAxisType_T@CDrPatch@@QAEXH@Z 10016e20 f i Rn_wire1.obj
 0001:00015e50       ?IsNegative_T@CDrPatch@@QAEHXZ 10016e50 f i Rn_wire1.obj
 0001:00015e70       ?SetNegative_T@CDrPatch@@QAEXH@Z 10016e70 f i Rn_wire1.obj
 0001:00015ea0       ?GetCircleType_T@CDrPatch@@QAE?AW4CIRCLETYPE@@XZ 10016ea0 f i Rn_wire1.obj
 0001:00015ec0       ?SetCircleType_T@CDrPatch@@QAEXW4CIRCLETYPE@@@Z 10016ec0 f i Rn_wire1.obj
 0001:00015ef0       ?GetAng_1_T@CDrPatch@@QAENXZ 10016ef0 f i Rn_wire1.obj
 0001:00015f10       ?SetAng_1_T@CDrPatch@@QAEXN@Z 10016f10 f i Rn_wire1.obj
 0001:00015f40       ?GetAng_2_T@CDrPatch@@QAENXZ 10016f40 f i Rn_wire1.obj
 0001:00015f60       ?SetAng_2_T@CDrPatch@@QAEXN@Z 10016f60 f i Rn_wire1.obj
 0001:00015f90       ?GetPatchProc@CDrPatch@@QAE?AW4PATCHPROC@@XZ 10016f90 f i Rn_wire1.obj
 0001:00015fb0       ?SetPatchProc@CDrPatch@@QAEXW4PATCHPROC@@@Z 10016fb0 f i Rn_wire1.obj
 0001:00015fe0       ?GetPatchType@CDrPatch@@QAE?AW4PATCHTYPE@@XZ 10016fe0 f i Rn_wire1.obj
 0001:00016000       ?SetPatchType@CDrPatch@@QAEXW4PATCHTYPE@@@Z 10017000 f i Rn_wire1.obj
 0001:00016030       ?GetPatSubType@CDrPatch@@QAE?AW4PATSUBTYPE@@XZ 10017030 f i Rn_wire1.obj
 0001:00016050       ?SetPatSubType@CDrPatch@@QAEXW4PATSUBTYPE@@@Z 10017050 f i Rn_wire1.obj
 0001:00016080       ?GetOut_S@CDrPatch@@QAEHXZ 10017080 f i Rn_wire1.obj
 0001:000160a0       ?SetOut_S@CDrPatch@@QAEXH@Z 100170a0 f i Rn_wire1.obj
 0001:000160d0       ?GetOut_T@CDrPatch@@QAEHXZ 100170d0 f i Rn_wire1.obj
 0001:000160f0       ?SetOut_T@CDrPatch@@QAEXH@Z 100170f0 f i Rn_wire1.obj
 0001:00016120       ?GetTotalElems@CDrPatch@@QAEJXZ 10017120 f i Rn_wire1.obj
 0001:00016140       ?SetTotalElems@CDrPatch@@QAEXJ@Z 10017140 f i Rn_wire1.obj
 0001:00016170       ?GetPtrTangents_S@CDrPatch@@QAEPAUWORLD@@XZ 10017170 f i Rn_wire1.obj
 0001:00016190       ?GetPtrTangents_T@CDrPatch@@QAEPAUWORLD@@XZ 10017190 f i Rn_wire1.obj
 0001:000161b0       ?GetPtrNormals@CDrPatch@@QAEPAUWORLD@@XZ 100171b0 f i Rn_wire1.obj
 0001:000161d0       ?GetPtrTwists@CDrPatch@@QAEPAUWORLD@@XZ 100171d0 f i Rn_wire1.obj
 0001:000161f0       ?GetMemIn@CDrPatch@@UAEPAUWORLD@@H@Z 100171f0 f i Rn_wire1.obj
 0001:00016220       ?SetMemIn@CDrPatch@@UAEXPAUWORLD@@H@Z 10017220 f i Rn_wire1.obj
 0001:00016250       ?SetMemIn@CDrPatch@@UAEXPAUWORLD@@@Z 10017250 f i Rn_wire1.obj
 0001:00016280       ?SetMemInDP@CDrPatch@@UAEXPAUtagPOINT@@@Z 10017280 f i Rn_wire1.obj
 0001:000162b0       ?SetMemOut@CDrPatch@@UAEXPAUWORLD@@@Z 100172b0 f i Rn_wire1.obj
 0001:000162e0       ?SetMemOutDP@CDrPatch@@UAEXPAUtagPOINT@@@Z 100172e0 f i Rn_wire1.obj
 0001:00016310       ?IsUniform_T@CDrPatch@@QAEHXZ 10017310 f i Rn_wire1.obj
 0001:00016330       ?SetUniform_T@CDrPatch@@QAEXH@Z 10017330 f i Rn_wire1.obj
 0001:00016360       ?GetClass_T@CDrPatch@@QAEHXZ 10017360 f i Rn_wire1.obj
 0001:00016380       ?SetClass_T@CDrPatch@@QAEXH@Z 10017380 f i Rn_wire1.obj
 0001:000163b0       ?GetOrder_T@CDrPatch@@QAEHXZ 100173b0 f i Rn_wire1.obj
 0001:000163d0       ?SetOrder_T@CDrPatch@@QAEXH@Z 100173d0 f i Rn_wire1.obj
 0001:00016400       ?GetnDim_T@CDrPatch@@QAEHXZ 10017400 f i Rn_wire1.obj
 0001:00016420       ?SetnDim_T@CDrPatch@@QAEXH@Z 10017420 f i Rn_wire1.obj
 0001:00016450       ?GetOutMethod_T@CDrPatch@@QAE?AW4PATCHOUTPUT@@XZ 10017450 f i Rn_wire1.obj
 0001:00016470       ?SetOutMethod_T@CDrPatch@@QAEXW4PATCHOUTPUT@@@Z 10017470 f i Rn_wire1.obj
 0001:000164a0       ?GetMaxOutSeg_T@CDrPatch@@QAEHXZ 100174a0 f i Rn_wire1.obj
 0001:000164c0       ?SetMaxOutSeg_T@CDrPatch@@QAEXH@Z 100174c0 f i Rn_wire1.obj
 0001:000164f0       ?GetNum_tPointer_T@CDrPatch@@QAEPAHXZ 100174f0 f i Rn_wire1.obj
 0001:00016510       ?SetNum_tPointer_T@CDrPatch@@QAEXPAH@Z 10017510 f i Rn_wire1.obj
 0001:00016540       ?GetDis_tPointer_T@CDrPatch@@QAEPANXZ 10017540 f i Rn_wire1.obj
 0001:00016560       ?SetDis_tPointer_T@CDrPatch@@QAEXPAN@Z 10017560 f i Rn_wire1.obj
 0001:00016590       ?GetNum_tPointer_Ex_T@CDrPatch@@QAEPAHXZ 10017590 f i Rn_wire1.obj
 0001:000165b0       ?SetNum_tPointer_Ex_T@CDrPatch@@QAEXPAH@Z 100175b0 f i Rn_wire1.obj
 0001:000165e0       ?GetDis_AngPointer_T@CDrPatch@@QAEPANXZ 100175e0 f i Rn_wire1.obj
 0001:00016600       ?SetDis_AngPointer_T@CDrPatch@@QAEXPAN@Z 10017600 f i Rn_wire1.obj
 0001:00016630       ?GetData_Ex_T@CDrPatch@@QAEHXZ 10017630 f i Rn_wire1.obj
 0001:00016650       ?SetData_Ex_T@CDrPatch@@QAEXH@Z 10017650 f i Rn_wire1.obj
 0001:00016680       ?IsExpanded_T@CDrPatch@@QAEHXZ 10017680 f i Rn_wire1.obj
 0001:000166a0       ?SetExpanded_T@CDrPatch@@QAEXH@Z 100176a0 f i Rn_wire1.obj
 0001:000166d0       ?GetMaxENodes_T@CDrPatch@@QAEHXZ 100176d0 f i Rn_wire1.obj
 0001:000166f0       ?SetMaxENodes_T@CDrPatch@@QAEXH@Z 100176f0 f i Rn_wire1.obj
 0001:00016720       ?GetRadius_T@CDrPatch@@QAENXZ 10017720 f i Rn_wire1.obj
 0001:00016740       ?SetRadius_T@CDrPatch@@QAEXN@Z 10017740 f i Rn_wire1.obj
 0001:00016770       ?GetTheta_T@CDrPatch@@QAENXZ 10017770 f i Rn_wire1.obj
 0001:00016790       ?SetTheta_T@CDrPatch@@QAEXN@Z 10017790 f i Rn_wire1.obj
 0001:000167c0       ?GetCenter_T@CDrPatch@@QAE?AUWORLD@@XZ 100177c0 f i Rn_wire1.obj
 0001:000167f0       ?SetCenter_T@CDrPatch@@QAEXUWORLD@@@Z 100177f0 f i Rn_wire1.obj
 0001:00016850       ?GetNormal_T@CDrPatch@@QAE?AUWORLD@@XZ 10017850 f i Rn_wire1.obj
 0001:00016880       ?SetNormal_T@CDrPatch@@QAEXUWORLD@@@Z 10017880 f i Rn_wire1.obj
 0001:000168e0       ?GetSegAngle_T@CDrPatch@@QAENXZ 100178e0 f i Rn_wire1.obj
 0001:00016900       ?SetSegAngle_T@CDrPatch@@QAEXN@Z 10017900 f i Rn_wire1.obj
 0001:00016930       ?IsHole_T@CDrPatch@@QAEHXZ 10017930 f i Rn_wire1.obj
 0001:00016950       ?SetHole_T@CDrPatch@@QAEXH@Z 10017950 f i Rn_wire1.obj
 0001:00016980       ?GetpTangents_T@CDrPatch@@QAEPAUWORLD@@XZ 10017980 f i Rn_wire1.obj
 0001:000169a0       ?SetpTangents_T@CDrPatch@@QAEXPAUWORLD@@@Z 100179a0 f i Rn_wire1.obj
 0001:000169d0       ?GetpCurvatures_T@CDrPatch@@QAEPANXZ 100179d0 f i Rn_wire1.obj
 0001:000169f0       ?SetpCurvatures_T@CDrPatch@@QAEXPAN@Z 100179f0 f i Rn_wire1.obj
 0001:00016a20       ?GetRatio_T@CDrPatch@@QAENXZ 10017a20 f i Rn_wire1.obj
 0001:00016a40       ?SetRatio_T@CDrPatch@@QAEXN@Z 10017a40 f i Rn_wire1.obj
 0001:00016a70       ?GetTwistType_T@CDrPatch@@QAEHXZ 10017a70 f i Rn_wire1.obj
 0001:00016a90       ?SetTwistType_T@CDrPatch@@QAEXH@Z 10017a90 f i Rn_wire1.obj
 0001:00016ac0       ?GetTwistList_T@CDrPatch@@QAEPAV?$CList@NN@@XZ 10017ac0 f i Rn_wire1.obj
 0001:00016ae0       ?GetScaleType_T@CDrPatch@@QAEHXZ 10017ae0 f i Rn_wire1.obj
 0001:00016b00       ?SetScaleType_T@CDrPatch@@QAEXH@Z 10017b00 f i Rn_wire1.obj
 0001:00016b30       ?GetScaleList_T@CDrPatch@@QAEPAV?$CList@NN@@XZ 10017b30 f i Rn_wire1.obj
 0001:00016b50       ?IsIncTwist_T@CDrPatch@@QAEHXZ 10017b50 f i Rn_wire1.obj
 0001:00016b70       ?SetIncTwist_T@CDrPatch@@QAEXH@Z 10017b70 f i Rn_wire1.obj
 0001:00016ba0       ?GetTwistMult_T@CDrPatch@@QAENXZ 10017ba0 f i Rn_wire1.obj
 0001:00016bc0       ?SetTwistMult_T@CDrPatch@@QAEXN@Z 10017bc0 f i Rn_wire1.obj
 0001:00016bf0       ?GetTwistStart_T@CDrPatch@@QAENXZ 10017bf0 f i Rn_wire1.obj
 0001:00016c10       ?SetTwistStart_T@CDrPatch@@QAEXN@Z 10017c10 f i Rn_wire1.obj
 0001:00016c40       ?IsIncScale_T@CDrPatch@@QAEHXZ 10017c40 f i Rn_wire1.obj
 0001:00016c60       ?SetIncScale_T@CDrPatch@@QAEXH@Z 10017c60 f i Rn_wire1.obj
 0001:00016c90       ?GetScaleMult_T@CDrPatch@@QAENXZ 10017c90 f i Rn_wire1.obj
 0001:00016cb0       ?SetScaleMult_T@CDrPatch@@QAEXN@Z 10017cb0 f i Rn_wire1.obj
 0001:00016ce0       ?GetScaleStart_T@CDrPatch@@QAENXZ 10017ce0 f i Rn_wire1.obj
 0001:00016d00       ?SetScaleStart_T@CDrPatch@@QAEXN@Z 10017d00 f i Rn_wire1.obj
 0001:00016d30       ?GetWorldTwistMult_T@CDrPatch@@QAE?AUWORLD@@XZ 10017d30 f i Rn_wire1.obj
 0001:00016d60       ?SetWorldTwistMult_T@CDrPatch@@QAEXUWORLD@@@Z 10017d60 f i Rn_wire1.obj
 0001:00016d90       ?GetWorldTwistStart_T@CDrPatch@@QAE?AUWORLD@@XZ 10017d90 f i Rn_wire1.obj
 0001:00016dc0       ?SetWorldTwistStart_T@CDrPatch@@QAEXUWORLD@@@Z 10017dc0 f i Rn_wire1.obj
 0001:00016df0       ?GetWorldScaleMult_T@CDrPatch@@QAE?AUWORLD@@XZ 10017df0 f i Rn_wire1.obj
 0001:00016e20       ?SetWorldScaleMult_T@CDrPatch@@QAEXUWORLD@@@Z 10017e20 f i Rn_wire1.obj
 0001:00016e50       ?GetWorldScaleStart_T@CDrPatch@@QAE?AUWORLD@@XZ 10017e50 f i Rn_wire1.obj
 0001:00016e80       ?SetWorldScaleStart_T@CDrPatch@@QAEXUWORLD@@@Z 10017e80 f i Rn_wire1.obj
 0001:00016eb0       ?GetTriangleList@CDrPatch@@UAEPAVCDListMgr@@XZ 10017eb0 f i Rn_wire1.obj
 0001:00016ed0       ?GetnOutGlo_S@CDrPatch@@QAEHXZ 10017ed0 f i Rn_wire1.obj
 0001:00016ef0       ?SetnOutGlo_S@CDrPatch@@QAEXH@Z 10017ef0 f i Rn_wire1.obj
 0001:00016f20       ?IsGenBCurve@CDrPatch@@QAEHXZ 10017f20 f i Rn_wire1.obj
 0001:00016f40       ?SetGenBCurve@CDrPatch@@QAEXH@Z 10017f40 f i Rn_wire1.obj
 0001:00016f70       ?IsNormalNeeded@CDrSolid@@UAEHXZ 10017f70 f i Rn_wire1.obj
 0001:00016f90       ?SetNormalNeed@CDrSolid@@UAEXH@Z 10017f90 f i Rn_wire1.obj
 0001:00016fc0       ?GetCurveType_R@CDrSolid@@QAE?AW4CURVEPROC@@XZ 10017fc0 f i Rn_wire1.obj
 0001:00016fe0       ?SetCurveType_R@CDrSolid@@QAEXW4CURVEPROC@@@Z 10017fe0 f i Rn_wire1.obj
 0001:00017010       ?GetOutSegUnif_R@CDrSolid@@QAEHXZ 10018010 f i Rn_wire1.obj
 0001:00017030       ?SetOutSegUnif_R@CDrSolid@@QAEXH@Z 10018030 f i Rn_wire1.obj
 0001:00017060       ?IsClosed_R@CDrSolid@@QAEHXZ 10018060 f i Rn_wire1.obj
 0001:00017080       ?SetClosed_R@CDrSolid@@QAEXH@Z 10018080 f i Rn_wire1.obj
 0001:000170b0       ?GetSolidObjectType@CDrSolid@@QAEHXZ 100180b0 f i Rn_wire1.obj
 0001:000170d0       ?SetSolidObjectType@CDrSolid@@QAEXH@Z 100180d0 f i Rn_wire1.obj
 0001:00017100       ?GetMaxBezSegments_R@CDrSolid@@QAEHXZ 10018100 f i Rn_wire1.obj
 0001:00017120       ?SetMaxBezSegments_R@CDrSolid@@QAEXH@Z 10018120 f i Rn_wire1.obj
 0001:00017150       ?GetMaxCNodes_R@CDrSolid@@QAEHXZ 10018150 f i Rn_wire1.obj
 0001:00017170       ?SetMaxCNodes_R@CDrSolid@@QAEXH@Z 10018170 f i Rn_wire1.obj
 0001:000171a0       ?GetMaxOutPts_R@CDrSolid@@QAEHXZ 100181a0 f i Rn_wire1.obj
 0001:000171c0       ?SetMaxOutPts_R@CDrSolid@@QAEXH@Z 100181c0 f i Rn_wire1.obj
 0001:000171f0       ?GetPatchID@CDrSolid@@QAE?AVCString@@H@Z 100181f0 f i Rn_wire1.obj
 0001:00017230       ?SetPatchID@CDrSolid@@QAEXVCString@@H@Z 10018230 f i Rn_wire1.obj
 0001:00017290       ?GetFromIDNode_R@CDrSolid@@QAEPAVCDrNode@@XZ 10018290 f i Rn_wire1.obj
 0001:000172b0       ?SetFromIDNode_R@CDrSolid@@QAEXPAVCDrNode@@@Z 100182b0 f i Rn_wire1.obj
 0001:000172e0       ?GetToIDNode_R@CDrSolid@@QAEPAVCDrNode@@XZ 100182e0 f i Rn_wire1.obj
 0001:00017300       ?SetToIDNode_R@CDrSolid@@QAEXPAVCDrNode@@@Z 10018300 f i Rn_wire1.obj
 0001:00017330       ?GetFromPtLocal_R@CDrSolid@@QAEPAUWORLD@@XZ 10018330 f i Rn_wire1.obj
 0001:00017350       ?SetFromPtLocal_R@CDrSolid@@QAEXUWORLD@@@Z 10018350 f i Rn_wire1.obj
 0001:00017380       ?GetToPtLocal_R@CDrSolid@@QAEPAUWORLD@@XZ 10018380 f i Rn_wire1.obj
 0001:000173a0       ?SetToPtLocal_R@CDrSolid@@QAEXUWORLD@@@Z 100183a0 f i Rn_wire1.obj
 0001:000173d0       ?GetFromPtWorld_R@CDrSolid@@QAEPAUWORLD@@XZ 100183d0 f i Rn_wire1.obj
 0001:000173f0       ?SetFromPtWorld_R@CDrSolid@@QAEXUWORLD@@@Z 100183f0 f i Rn_wire1.obj
 0001:00017420       ?GetToPtWorld_R@CDrSolid@@QAEPAUWORLD@@XZ 10018420 f i Rn_wire1.obj
 0001:00017440       ?SetToPtWorld_R@CDrSolid@@QAEXUWORLD@@@Z 10018440 f i Rn_wire1.obj
 0001:00017470       ?GetFromPtEye_R@CDrSolid@@QAEPAUWORLD@@XZ 10018470 f i Rn_wire1.obj
 0001:00017490       ?SetFromPtEye_R@CDrSolid@@QAEXUWORLD@@@Z 10018490 f i Rn_wire1.obj
 0001:000174c0       ?GetToPtEye_R@CDrSolid@@QAEPAUWORLD@@XZ 100184c0 f i Rn_wire1.obj
 0001:000174e0       ?SetToPtEye_R@CDrSolid@@QAEXUWORLD@@@Z 100184e0 f i Rn_wire1.obj
 0001:00017510       ?GetAxis_R@CDrSolid@@QAEPAUWORLD@@XZ 10018510 f i Rn_wire1.obj
 0001:00017530       ?SetAxis_R@CDrSolid@@QAEXUWORLD@@@Z 10018530 f i Rn_wire1.obj
 0001:00017560       ?GetExtruType_R@CDrSolid@@QAEHXZ 10018560 f i Rn_wire1.obj
 0001:00017580       ?SetExtruType_R@CDrSolid@@QAEXH@Z 10018580 f i Rn_wire1.obj
 0001:000175b0       ?GetLength_R@CDrSolid@@QAENXZ 100185b0 f i Rn_wire1.obj
 0001:000175d0       ?SetLength_R@CDrSolid@@QAEXN@Z 100185d0 f i Rn_wire1.obj
 0001:00017600       ?GetWorldLength_R@CDrSolid@@QAE?AUWORLD@@XZ 10018600 f i Rn_wire1.obj
 0001:00017630       ?SetWorldLength_R@CDrSolid@@QAEXUWORLD@@@Z 10018630 f i Rn_wire1.obj
 0001:00017660       ?GetSegs_R@CDrSolid@@QAEHXZ 10018660 f i Rn_wire1.obj
 0001:00017680       ?SetSegs_R@CDrSolid@@QAEXH@Z 10018680 f i Rn_wire1.obj
 0001:000176b0       ?GetSolidProc@CDrSolid@@QAE?AW4SOLIDPROC@@XZ 100186b0 f i Rn_wire1.obj
 0001:000176d0       ?SetSolidProc@CDrSolid@@QAEXW4SOLIDPROC@@@Z 100186d0 f i Rn_wire1.obj
 0001:00017700       ?GetSolidType@CDrSolid@@QAE?AW4SOLIDTYPE@@XZ 10018700 f i Rn_wire1.obj
 0001:00017720       ?SetSolidType@CDrSolid@@QAEXW4SOLIDTYPE@@@Z 10018720 f i Rn_wire1.obj
 0001:00017750       ?GetSolSubType@CDrSolid@@QAE?AW4SOLSUBTYPE@@XZ 10018750 f i Rn_wire1.obj
 0001:00017770       ?SetSolSubType@CDrSolid@@QAEXW4SOLSUBTYPE@@@Z 10018770 f i Rn_wire1.obj
 0001:000177a0       ?GetOut_R@CDrSolid@@QAEHXZ 100187a0 f i Rn_wire1.obj
 0001:000177c0       ?SetOut_R@CDrSolid@@QAEXH@Z 100187c0 f i Rn_wire1.obj
 0001:000177f0       ?IsUniform_R@CDrSolid@@QAEHXZ 100187f0 f i Rn_wire1.obj
 0001:00017810       ?SetUniform_R@CDrSolid@@QAEXH@Z 10018810 f i Rn_wire1.obj
 0001:00017840       ?GetOrder_R@CDrSolid@@QAEHXZ 10018840 f i Rn_wire1.obj
 0001:00017860       ?SetOrder_R@CDrSolid@@QAEXH@Z 10018860 f i Rn_wire1.obj
 0001:00017890       ?GetnDim_R@CDrSolid@@QAEHXZ 10018890 f i Rn_wire1.obj
 0001:000178b0       ?SetnDim_R@CDrSolid@@QAEXH@Z 100188b0 f i Rn_wire1.obj
 0001:000178e0       ?GetOutMethod_R@CDrSolid@@QAE?AW4SOLIDOUTPUT@@XZ 100188e0 f i Rn_wire1.obj
 0001:00017900       ?SetOutMethod_R@CDrSolid@@QAEXW4SOLIDOUTPUT@@@Z 10018900 f i Rn_wire1.obj
 0001:00017930       ?GetMaxOutSeg_R@CDrSolid@@QAEHXZ 10018930 f i Rn_wire1.obj
 0001:00017950       ?SetMaxOutSeg_R@CDrSolid@@QAEXH@Z 10018950 f i Rn_wire1.obj
 0001:00017980       ?GetNum_tPointer_R@CDrSolid@@QAEPAHXZ 10018980 f i Rn_wire1.obj
 0001:000179a0       ?SetNum_tPointer_R@CDrSolid@@QAEXPAH@Z 100189a0 f i Rn_wire1.obj
 0001:000179d0       ?GetDis_tPointer_R@CDrSolid@@QAEPANXZ 100189d0 f i Rn_wire1.obj
 0001:000179f0       ?SetDis_tPointer_R@CDrSolid@@QAEXPAN@Z 100189f0 f i Rn_wire1.obj
 0001:00017a20       ?GetNum_tPointer_Ex_R@CDrSolid@@QAEPAHXZ 10018a20 f i Rn_wire1.obj
 0001:00017a40       ?SetNum_tPointer_Ex_R@CDrSolid@@QAEXPAH@Z 10018a40 f i Rn_wire1.obj
 0001:00017a70       ?GetDis_AngPointer_R@CDrSolid@@QAEPANXZ 10018a70 f i Rn_wire1.obj
 0001:00017a90       ?SetDis_AngPointer_R@CDrSolid@@QAEXPAN@Z 10018a90 f i Rn_wire1.obj
 0001:00017ac0       ?GetNum_tPointer_ST@CDrSolid@@QAEPAHXZ 10018ac0 f i Rn_wire1.obj
 0001:00017ae0       ?SetNum_tPointer_ST@CDrSolid@@QAEXPAH@Z 10018ae0 f i Rn_wire1.obj
 0001:00017b10       ?GetDis_tPointer_ST@CDrSolid@@QAEPANXZ 10018b10 f i Rn_wire1.obj
 0001:00017b30       ?SetDis_tPointer_ST@CDrSolid@@QAEXPAN@Z 10018b30 f i Rn_wire1.obj
 0001:00017b60       ?GetNum_tPointer_Ex_ST@CDrSolid@@QAEPAHXZ 10018b60 f i Rn_wire1.obj
 0001:00017b80       ?SetNum_tPointer_Ex_ST@CDrSolid@@QAEXPAH@Z 10018b80 f i Rn_wire1.obj
 0001:00017bb0       ?GetDis_AngPointer_ST@CDrSolid@@QAEPANXZ 10018bb0 f i Rn_wire1.obj
 0001:00017bd0       ?SetDis_AngPointer_ST@CDrSolid@@QAEXPAN@Z 10018bd0 f i Rn_wire1.obj
 0001:00017c00       ?GetData_Ex_R@CDrSolid@@QAEHXZ 10018c00 f i Rn_wire1.obj
 0001:00017c20       ?SetData_Ex_R@CDrSolid@@QAEXH@Z 10018c20 f i Rn_wire1.obj
 0001:00017c50       ?IsExpanded_R@CDrSolid@@QAEHXZ 10018c50 f i Rn_wire1.obj
 0001:00017c70       ?SetExpanded_R@CDrSolid@@QAEXH@Z 10018c70 f i Rn_wire1.obj
 0001:00017ca0       ?GetMaxENodes_R@CDrSolid@@QAEHXZ 10018ca0 f i Rn_wire1.obj
 0001:00017cc0       ?SetMaxENodes_R@CDrSolid@@QAEXH@Z 10018cc0 f i Rn_wire1.obj
 0001:00017cf0       ?GetRadius_R@CDrSolid@@QAENXZ 10018cf0 f i Rn_wire1.obj
 0001:00017d10       ?SetRadius_R@CDrSolid@@QAEXN@Z 10018d10 f i Rn_wire1.obj
 0001:00017d40       ?GetTheta_R@CDrSolid@@QAENXZ 10018d40 f i Rn_wire1.obj
 0001:00017d60       ?SetTheta_R@CDrSolid@@QAEXN@Z 10018d60 f i Rn_wire1.obj
 0001:00017d90       ?GetCenter_R@CDrSolid@@QAE?AUWORLD@@XZ 10018d90 f i Rn_wire1.obj
 0001:00017dc0       ?SetCenter_R@CDrSolid@@QAEXUWORLD@@@Z 10018dc0 f i Rn_wire1.obj
 0001:00017e20       ?GetNormal_R@CDrSolid@@QAE?AUWORLD@@XZ 10018e20 f i Rn_wire1.obj
 0001:00017e50       ?SetNormal_R@CDrSolid@@QAEXUWORLD@@@Z 10018e50 f i Rn_wire1.obj
 0001:00017eb0       ?GetSegAngle_R@CDrSolid@@QAENXZ 10018eb0 f i Rn_wire1.obj
 0001:00017ed0       ?SetSegAngle_R@CDrSolid@@QAEXN@Z 10018ed0 f i Rn_wire1.obj
 0001:00017f00       ?IsHole_R@CDrSolid@@QAEHXZ 10018f00 f i Rn_wire1.obj
 0001:00017f20       ?SetHole_R@CDrSolid@@QAEXH@Z 10018f20 f i Rn_wire1.obj
 0001:00017f50       ?GetpTangents_R@CDrSolid@@QAEPAUWORLD@@XZ 10018f50 f i Rn_wire1.obj
 0001:00017f70       ?SetpTangents_R@CDrSolid@@QAEXPAUWORLD@@@Z 10018f70 f i Rn_wire1.obj
 0001:00017fa0       ?GetpCurvatures_R@CDrSolid@@QAEPANXZ 10018fa0 f i Rn_wire1.obj
 0001:00017fc0       ?SetpCurvatures_R@CDrSolid@@QAEXPAN@Z 10018fc0 f i Rn_wire1.obj
 0001:00017ff0       ?GetRatio_R@CDrSolid@@QAENXZ 10018ff0 f i Rn_wire1.obj
 0001:00018010       ?SetRatio_R@CDrSolid@@QAEXN@Z 10019010 f i Rn_wire1.obj
 0001:00018040       ?GetTwistType_R@CDrSolid@@QAEHXZ 10019040 f i Rn_wire1.obj
 0001:00018060       ?SetTwistType_R@CDrSolid@@QAEXH@Z 10019060 f i Rn_wire1.obj
 0001:00018090       ?GetTwistList_R@CDrSolid@@QAEPAV?$CList@NN@@XZ 10019090 f i Rn_wire1.obj
 0001:000180b0       ?GetScaleType_R@CDrSolid@@QAEHXZ 100190b0 f i Rn_wire1.obj
 0001:000180d0       ?SetScaleType_R@CDrSolid@@QAEXH@Z 100190d0 f i Rn_wire1.obj
 0001:00018100       ?GetScaleList_R@CDrSolid@@QAEPAV?$CList@NN@@XZ 10019100 f i Rn_wire1.obj
 0001:00018120       ?IsIncTwist_R@CDrSolid@@QAEHXZ 10019120 f i Rn_wire1.obj
 0001:00018140       ?SetIncTwist_R@CDrSolid@@QAEXH@Z 10019140 f i Rn_wire1.obj
 0001:00018170       ?GetTwistMult_R@CDrSolid@@QAENXZ 10019170 f i Rn_wire1.obj
 0001:00018190       ?SetTwistMult_R@CDrSolid@@QAEXN@Z 10019190 f i Rn_wire1.obj
 0001:000181c0       ?GetTwistStart_R@CDrSolid@@QAENXZ 100191c0 f i Rn_wire1.obj
 0001:000181e0       ?SetTwistStart_R@CDrSolid@@QAEXN@Z 100191e0 f i Rn_wire1.obj
 0001:00018210       ?IsIncScale_R@CDrSolid@@QAEHXZ 10019210 f i Rn_wire1.obj
 0001:00018230       ?SetIncScale_R@CDrSolid@@QAEXH@Z 10019230 f i Rn_wire1.obj
 0001:00018260       ?GetScaleMult_R@CDrSolid@@QAENXZ 10019260 f i Rn_wire1.obj
 0001:00018280       ?SetScaleMult_R@CDrSolid@@QAEXN@Z 10019280 f i Rn_wire1.obj
 0001:000182b0       ?GetScaleStart_R@CDrSolid@@QAENXZ 100192b0 f i Rn_wire1.obj
 0001:000182d0       ?SetScaleStart_R@CDrSolid@@QAEXN@Z 100192d0 f i Rn_wire1.obj
 0001:00018300       ?GetPentaList@CDrSolid@@QAEPAVCDListMgr@@XZ 10019300 f i Rn_wire1.obj
 0001:00018320       ?GetnTriangles_ST@CDrSolid@@QAEHXZ 10019320 f i Rn_wire1.obj
 0001:00018340       ?SetnTriangles_ST@CDrSolid@@QAEXH@Z 10019340 f i Rn_wire1.obj
 0001:00018370       ?GetElperSegList_R@CDrSolid@@QAEPAV?$CList@HH@@XZ 10019370 f i Rn_wire1.obj
 0001:00018390       ?IsGenBPatch@CDrSolid@@QAEHXZ 10019390 f i Rn_wire1.obj
 0001:000183b0       ?SetGenBPatch@CDrSolid@@QAEXH@Z 100193b0 f i Rn_wire1.obj
 0001:000183e0       ?GetVPatchList@CDrSolid@@QAEPAVCDListMgr@@XZ 100193e0 f i Rn_wire1.obj
 0001:00018400       ?GetPatchList_U@CDrSolid@@QAEPAVCDListMgr@@XZ 10019400 f i Rn_wire1.obj
 0001:00018420       ?GetPatchList_V@CDrSolid@@QAEPAVCDListMgr@@XZ 10019420 f i Rn_wire1.obj
 0001:00018440       ?GetPatchList_W@CDrSolid@@QAEPAVCDListMgr@@XZ 10019440 f i Rn_wire1.obj
 0001:00018460       ?GetPatchLatchList_U@CDrSolid@@QAEPAV?$CList@W4PATCHLATCH@@W41@@@XZ 10019460 f i Rn_wire1.obj
 0001:00018480       ?GetPatchLatchList_V@CDrSolid@@QAEPAV?$CList@W4PATCHLATCH@@W41@@@XZ 10019480 f i Rn_wire1.obj
 0001:000184a0       ?GetPatchLatchList_W@CDrSolid@@QAEPAV?$CList@W4PATCHLATCH@@W41@@@XZ 100194a0 f i Rn_wire1.obj
 0001:000184c0       ?IsAxisInput_R@CDrSolid@@QAEHXZ 100194c0 f i Rn_wire1.obj
 0001:000184e0       ?SetAxisInput_R@CDrSolid@@QAEXH@Z 100194e0 f i Rn_wire1.obj
 0001:00018510       ?GetAxisType_R@CDrSolid@@QAEHXZ 10019510 f i Rn_wire1.obj
 0001:00018530       ?SetAxisType_R@CDrSolid@@QAEXH@Z 10019530 f i Rn_wire1.obj
 0001:00018560       ?IsNegative_R@CDrSolid@@QAEHXZ 10019560 f i Rn_wire1.obj
 0001:00018580       ?SetNegative_R@CDrSolid@@QAEXH@Z 10019580 f i Rn_wire1.obj
 0001:000185b0       ?GetCircleType_R@CDrSolid@@QAE?AW4CIRCLETYPE@@XZ 100195b0 f i Rn_wire1.obj
 0001:000185d0       ?SetCircleType_R@CDrSolid@@QAEXW4CIRCLETYPE@@@Z 100195d0 f i Rn_wire1.obj
 0001:00018600       ?GetAng_1_R@CDrSolid@@QAENXZ 10019600 f i Rn_wire1.obj
 0001:00018620       ?SetAng_1_R@CDrSolid@@QAEXN@Z 10019620 f i Rn_wire1.obj
 0001:00018650       ?GetAng_2_R@CDrSolid@@QAENXZ 10019650 f i Rn_wire1.obj
 0001:00018670       ?SetAng_2_R@CDrSolid@@QAEXN@Z 10019670 f i Rn_wire1.obj
 0001:000186a0       ??1CWire_1@@UAE@XZ         100196a0 f i Rn_wire1.obj
 0001:000186d0       ??_GCWire_1@@UAEPAXI@Z     100196d0 f i Rn_wire1.obj
 0001:00018710       ??_ECWire_1@@UAEPAXI@Z     10019710 f i Rn_wire1.obj
 0001:00018790       ?_GetBaseClass@CWire_1@@KGPAUCRuntimeClass@@XZ 10019790 f   Rn_wire1.obj
 0001:000187b0       ?GetRuntimeClass@CWire_1@@UBEPAUCRuntimeClass@@XZ 100197b0 f   Rn_wire1.obj
 0001:000187d0       ??0CWire_1@@QAE@XZ         100197d0 f   Rn_wire1.obj
 0001:00018810       ??0CWire_1@@QAE@PAVCDrawView@@W4RENDITION@@HQAH22@Z 10019810 f   Rn_wire1.obj
 0001:00018bd0       ?Init@CWire_1@@UAEHHHUWORLD@@PAUMATRIX@@11NNNN@Z 10019bd0 f   Rn_wire1.obj
 0001:00018d10       ?RenderSCENE@CWire_1@@UAEHPAVCClientDC@@AAVCRect@@HHH@Z 10019d10 f   Rn_wire1.obj
 0001:00019150       ?RenderOBJECT@CWire_1@@MAEHPAVCClientDC@@AAVCRect@@PAVCDrObject@@H@Z 1001a150 f   Rn_wire1.obj
 0001:000193b0       ?RenderSOLID@CWire_1@@MAEHPAVCClientDC@@AAVCRect@@PAVCDrObject@@H@Z 1001a3b0 f   Rn_wire1.obj
 0001:00019570       ?RenderPATCH@CWire_1@@MAEHPAVCClientDC@@AAVCRect@@PAVCDrObject@@H@Z 1001a570 f   Rn_wire1.obj
 0001:00019700       ?RenderPROFILE_C@CWire_1@@MAEHPAVCClientDC@@AAVCRect@@PAVCDrObject@@H@Z 1001a700 f   Rn_wire1.obj
 0001:00019760       ?RenderCURVE@CWire_1@@MAEHPAVCClientDC@@AAVCRect@@PAVCDrObject@@H@Z 1001a760 f   Rn_wire1.obj
 0001:000198a0       ?RenderPOLY@CWire_1@@MAEHPAVCClientDC@@PAVCDrObject@@H@Z 1001a8a0 f   Rn_wire1.obj
 0001:000198f0       ?RenderLINE@CWire_1@@MAEHPAVCClientDC@@PAVCDrObject@@H@Z 1001a8f0 f   Rn_wire1.obj
 0001:00019940       ?RenderSTRAY@CWire_1@@MAEHPAVCClientDC@@PAVCDrObject@@HH@Z 1001a940 f   Rn_wire1.obj
 0001:00019c10       ?RenderLabelMeshElem@CWire_1@@MAEHPAVCDC@@PAVCDrObject@@HH@Z 1001ac10 f   Rn_wire1.obj
 0001:00019f60       ?RenderLabels@CWire_1@@MAEHPAVCDC@@PAVCDrObject@@HH@Z 1001af60 f   Rn_wire1.obj
 0001:0001a0d0       ?RenderReadyOBJECT@CWire_1@@UAEXPAVCDC@@PAVCDrObject@@H@Z 1001b0d0 f   Rn_wire1.obj
 0001:0001a280       ??1?$CList@HH@@UAE@XZ      1001b280 f i Rn_wire1.obj
 0001:0001a300       ?Serialize@?$CList@HH@@UAEXAAVCArchive@@@Z 1001b300 f i Rn_wire1.obj
 0001:0001a3f0       ?Dump@?$CList@HH@@UBEXAAVCDumpContext@@@Z 1001b3f0 f i Rn_wire1.obj
 0001:0001a490       ?AssertValid@?$CList@HH@@UBEXXZ 1001b490 f i Rn_wire1.obj
 0001:0001a560       ??_E?$CList@HH@@UAEPAXI@Z  1001b560 f i Rn_wire1.obj
 0001:0001a560       ??_G?$CList@HH@@UAEPAXI@Z  1001b560 f i Rn_wire1.obj
 0001:0001a5a0       ?AddTail@?$CList@HH@@QAEPAU__POSITION@@H@Z 1001b5a0 f i Rn_wire1.obj
 0001:0001a610       ?RemoveAll@?$CList@HH@@QAEXXZ 1001b610 f i Rn_wire1.obj
 0001:0001a6a0       ?GetHeadPosition@?$CList@HH@@QBEPAU__POSITION@@XZ 1001b6a0 f i Rn_wire1.obj
 0001:0001a6c0       ?GetNext@?$CList@HH@@QAEAAHAAPAU__POSITION@@@Z 1001b6c0 f i Rn_wire1.obj
 0001:0001a720       ?SerializeElements@@YGXAAVCArchive@@PAHH@Z 1001b720 f i Rn_wire1.obj
 0001:0001a7a0       ?DumpElements@@YGXAAVCDumpContext@@PBHH@Z 1001b7a0 f i Rn_wire1.obj
 0001:0001a7f0       ?NewNode@?$CList@HH@@IAEPAUCNode@1@PAU21@0@Z 1001b7f0 f i Rn_wire1.obj
 0001:0001a910       ?DestructElements@@YGXPAHH@Z 1001b910 f i Rn_wire1.obj
 0001:0001a980       ?ConstructElements@@YGXPAHH@Z 1001b980 f i Rn_wire1.obj
 0001:0001aa10       ??2@YAPAXIPAX@Z            1001ba10 f i Rn_wire1.obj
 0001:0001aa30       ?SetzMin@CDrClip@@UAEXN@Z  1001ba30 f i Rn_wire2.obj
 0001:0001aa60       ?GetzMin@CDrClip@@UAENXZ   1001ba60 f i Rn_wire2.obj
 0001:0001aa80       ?SetPerspective@CDrClip@@UAEXH@Z 1001ba80 f i Rn_wire2.obj
 0001:0001aaa0       ?GetPerspective@CDrClip@@UAEHXZ 1001baa0 f i Rn_wire2.obj
 0001:0001aac0       ?SetCanonical@CDrClip@@UAEXH@Z 1001bac0 f i Rn_wire2.obj
 0001:0001aae0       ?GetCanonical@CDrClip@@UAEHXZ 1001bae0 f i Rn_wire2.obj
 0001:0001ab00       ??1CWire_2@@UAE@XZ         1001bb00 f i Rn_wire2.obj
 0001:0001ab30       ??_GCWire_2@@UAEPAXI@Z     1001bb30 f i Rn_wire2.obj
 0001:0001ab70       ??_ECWire_2@@UAEPAXI@Z     1001bb70 f i Rn_wire2.obj
 0001:0001abf0       ?_GetBaseClass@CWire_2@@KGPAUCRuntimeClass@@XZ 1001bbf0 f   Rn_wire2.obj
 0001:0001ac10       ?GetRuntimeClass@CWire_2@@UBEPAUCRuntimeClass@@XZ 1001bc10 f   Rn_wire2.obj
 0001:0001ac30       ??0CWire_2@@QAE@XZ         1001bc30 f   Rn_wire2.obj
 0001:0001ac60       ??0CWire_2@@QAE@PAVCDrawView@@W4RENDITION@@HQAH22@Z 1001bc60 f   Rn_wire2.obj
 0001:0001afc0       ?Init@CWire_2@@UAEHHHUWORLD@@PAUMATRIX@@11NNNNPAVCDListMgr@@@Z 1001bfc0 f   Rn_wire2.obj
 0001:0001b100       ?RenderSCENE@CWire_2@@UAEHPAVCClientDC@@AAVCRect@@HHH@Z 1001c100 f   Rn_wire2.obj
 0001:0001b380       ?RenderSORTLIST@CWire_2@@MAEHPAVCClientDC@@AAVCRect@@HH@Z 1001c380 f   Rn_wire2.obj
 0001:0001b5e0       ?RenderCLIPPOLY@CWire_2@@MAEHPAVCClientDC@@PAUtagPOINT@@HH@Z 1001c5e0 f   Rn_wire2.obj
 0001:0001b690       ?ClipPoly@CWire_2@@MAEHPAVCDrObject@@PAUWORLD@@@Z 1001c690 f   Rn_wire2.obj
 0001:0001ba00       ?RenderSTRAY@CWire_2@@MAEHPAVCClientDC@@PAVCDrObject@@HH@Z 1001ca00 f   Rn_wire2.obj
 0001:0001bc70       ?RenderReadySCENE@CWire_2@@UAEXPAVCDC@@@Z 1001cc70 f   Rn_wire2.obj
 0001:0001bdf0       ?RenderReadyOBJECT@CWire_2@@MAEXPAVCDC@@PAVCDrObject@@H@Z 1001cdf0 f   Rn_wire2.obj
 0001:0001bf90       ?CreateObject@CTextures@@SGPAVCObject@@XZ 1001cf90 f   Textures.obj
 0001:0001c000       ?_GetBaseClass@CTextures@@KGPAUCRuntimeClass@@XZ 1001d000 f   Textures.obj
 0001:0001c020       ?GetRuntimeClass@CTextures@@UBEPAUCRuntimeClass@@XZ 1001d020 f   Textures.obj
 0001:0001c080       ??5@YGAAVCArchive@@AAV0@AAPAVCTextures@@@Z 1001d080 f   Textures.obj
 0001:0001c0b0       ??0CTextures@@QAE@XZ       1001d0b0 f   Textures.obj
 0001:0001c0e0       ?Init@CTextures@@UAEXPAURENDINFO@@PAULTENVIRON@@@Z 1001d0e0 f   Textures.obj
 0001:0001c2e0       ?Terminate@CTextures@@UAEXPAURENDINFO@@PAULTENVIRON@@@Z 1001d2e0 f   Textures.obj
 0001:0001c310       ?EffectiveNormal@CTextures@@UAE?AUWORLD@@PAURENDINFO@@PAULTENVIRON@@U2@2@Z 1001d310 f   Textures.obj
 0001:0001c3e0       ?TextureEffect@CTextures@@UAE?AURGBCOLOR@@PAURENDINFO@@PAULTENVIRON@@UWORLD@@@Z 1001d3e0 f   Textures.obj
 0001:0001c610       ?Init_Noise@CTextures@@UAEHXZ 1001d610 f   Textures.obj
 0001:0001c750       ?Noise@CTextures@@MAENNNN@Z 1001d750 f   Textures.obj
 0001:0001c9b0       ?FormLocalMatrix@CTextures@@MAEXPAUMATRIX@@UWORLD@@11@Z 1001d9b0 f   Textures.obj
 0001:0001ca90       ?InverseLocalMatrix@CTextures@@MAEXPAUMATRIX@@UWORLD@@11@Z 1001da90 f   Textures.obj
 0001:0001cb30       ?TransformWorldToTexture@CTextures@@MAEXPAUMATRIX@@NNNPAN11@Z 1001db30 f   Textures.obj
 0001:0001cbd0       ?WoodLocalMatrix@CTextures@@MAEXUWORLD@@00@Z 1001dbd0 f   Textures.obj
 0001:0001cc80       ?RockLocalMatrix@CTextures@@MAEXUWORLD@@00@Z 1001dc80 f   Textures.obj
 0001:0001cd30       ?PICTLocalMatrix@CTextures@@MAEXUWORLD@@00@Z 1001dd30 f   Textures.obj
 0001:0001cde0       ?RGBLocalMatrix@CTextures@@MAEXUWORLD@@00@Z 1001dde0 f   Textures.obj
 0001:0001ce90       ?DepthLocalMatrix@CTextures@@MAEXUWORLD@@00@Z 1001de90 f   Textures.obj
 0001:0001cf40       ?BumpsLocalMatrix@CTextures@@MAEXUWORLD@@00@Z 1001df40 f   Textures.obj
 0001:0001cff0       ?Wood@CTextures@@UAE?AURGBCOLOR@@NNNU2@NNN@Z 1001dff0 f   Textures.obj
 0001:0001d1e0       ?Rock@CTextures@@UAE?AURGBCOLOR@@NNNU2@NNNN@Z 1001e1e0 f   Textures.obj
 0001:0001d390       ?PICTinit@CTextures@@UAEXKPAUBox@@@Z 1001e390 f   Textures.obj
 0001:0001d3b0       ?PICTterm@CTextures@@UAEXXZ 1001e3b0 f   Textures.obj
 0001:0001d3d0       ?PICTcleanup@CTextures@@UAEXXZ 1001e3d0 f   Textures.obj
 0001:0001d3f0       ?PICT@CTextures@@UAE?AURGBCOLOR@@NNNU2@NNN@Z 1001e3f0 f   Textures.obj
 0001:0001d420       ?PICTbump@CTextures@@UAE?AUWORLD@@NNNU2@NNN@Z 1001e420 f   Textures.obj
 0001:0001d450       ?R_G_B@CTextures@@UAE?AURGBCOLOR@@NNNU2@N@Z 1001e450 f   Textures.obj
 0001:0001d580       ?Depth@CTextures@@UAE?AURGBCOLOR@@NNNU2@NN@Z 1001e580 f   Textures.obj
 0001:0001d6d0       ?PerturbNormal@CTextures@@MAE?AUWORLD@@NNNU2@NNNN@Z 1001e6d0 f   Textures.obj
 0001:0001df10       ?Serialize@CTextures@@UAEXAAVCArchive@@@Z 1001ef10 f   Textures.obj
 0001:0001df60       _ExtRawDllMain@12          1001ef60 f   Viewdll.obj
 0001:0001dfc0       _InitViewDLL@0             1001efc0 f   Viewdll.obj
 0001:0001e010       _DllMain@12                1001f010 f   Viewdll.obj
 0001:0001e080       ??B?$CTypedSimpleList@PAUCRuntimeClass@@@@QAEPAUCRuntimeClass@@XZ 1001f080 f i Viewdll.obj
 0001:0001e0a0       ??B?$CTypedSimpleList@PAVCOleObjectFactory@@@@QAEPAVCOleObjectFactory@@XZ 1001f0a0 f i Viewdll.obj
 0001:0001e0c0       ?GetHead@CSimpleList@@QBEPAXXZ 1001f0c0 f i Viewdll.obj
 0001:0001e0e0       ??0CViewInfo@@QAE@PAVCView@@@Z 1001f0e0 f   Viewinfo.obj
 0001:0001e330       ??_GCViewInfo@@UAEPAXI@Z   1001f330 f i Viewinfo.obj
 0001:0001e370       ??_ECViewInfo@@UAEPAXI@Z   1001f370 f i Viewinfo.obj
 0001:0001e3f0       ?DoDataExchange@CViewInfo@@MAEXPAVCDataExchange@@@Z 1001f3f0 f   Viewinfo.obj
 0001:0001e5b0       ?_GetBaseMessageMap@CViewInfo@@KGPBUAFX_MSGMAP@@XZ 1001f5b0 f   Viewinfo.obj
 0001:0001e5d0       ?GetMessageMap@CViewInfo@@MBEPBUAFX_MSGMAP@@XZ 1001f5d0 f   Viewinfo.obj
 0001:0001e5f0       ?OnInitDialog@CViewInfo@@MAEHXZ 1001f5f0 f   Viewinfo.obj
 0001:0001e660       ?Create@CViewInfo@@QAEHXZ  1001f660 f   Viewinfo.obj
 0001:0001e720       ?OnCancel@CViewInfo@@MAEXXZ 1001f720 f   Viewinfo.obj
 0001:0001e760       ?OnOK@CViewInfo@@MAEXXZ    1001f760 f   Viewinfo.obj
 0001:0001e7a0       ?OnUpdate@CViewInfo@@IAEXXZ 1001f7a0 f   Viewinfo.obj
 0001:0001e7e0       ??_9@$BMM@AE               1001f7e0 f i Viewinfo.obj
 0001:0001e7f0       ??_9@$BNA@AE               1001f7f0 f i Viewinfo.obj
 0001:0001e800       ?CreateObject@CZBuffer@@SGPAVCObject@@XZ 1001f800 f   Zbuffer.obj
 0001:0001e870       ?_GetBaseClass@CZBuffer@@KGPAUCRuntimeClass@@XZ 1001f870 f   Zbuffer.obj
 0001:0001e890       ?GetRuntimeClass@CZBuffer@@UBEPAUCRuntimeClass@@XZ 1001f890 f   Zbuffer.obj
 0001:0001e8f0       ??5@YGAAVCArchive@@AAV0@AAPAVCZBuffer@@@Z 1001f8f0 f   Zbuffer.obj
 0001:0001e920       ??0CZBuffer@@QAE@XZ        1001f920 f   Zbuffer.obj
 0001:0001e980       ?GetZdepthBasePointer@CZBuffer@@UAEPANXZ 1001f980 f i Zbuffer.obj
 0001:0001e9a0       ?GetxMn@CZBuffer@@UAEJXZ   1001f9a0 f i Zbuffer.obj
 0001:0001e9c0       ?GetxMx@CZBuffer@@UAEJXZ   1001f9c0 f i Zbuffer.obj
 0001:0001e9e0       ?GetyMn@CZBuffer@@UAEJXZ   1001f9e0 f i Zbuffer.obj
 0001:0001ea00       ?GetyMx@CZBuffer@@UAEJXZ   1001fa00 f i Zbuffer.obj
 0001:0001ea20       ?GetxRng@CZBuffer@@UAEJXZ  1001fa20 f i Zbuffer.obj
 0001:0001ea40       ?GetyRng@CZBuffer@@UAEJXZ  1001fa40 f i Zbuffer.obj
 0001:0001ea60       ??_GCZBuffer@@UAEPAXI@Z    1001fa60 f i Zbuffer.obj
 0001:0001ea60       ??_ECZBuffer@@UAEPAXI@Z    1001fa60 f i Zbuffer.obj
 0001:0001eaa0       ??1CZBuffer@@UAE@XZ        1001faa0 f i Zbuffer.obj
 0001:0001ead0       ?InitZB@CZBuffer@@UAEHFFFF@Z 1001fad0 f   Zbuffer.obj
 0001:0001ebf0       ?FixMem@CZBuffer@@IAEPANJ@Z 1001fbf0 f i Zbuffer.obj
 0001:0001ec30       ?TermZB@CZBuffer@@UAEXXZ   1001fc30 f   Zbuffer.obj
 0001:0001ec70       ?FreeMem@CZBuffer@@IAEXPAN@Z 1001fc70 f i Zbuffer.obj
 0001:0001eca0       ?GetZdepthPointer@CZBuffer@@UAEPANJJ@Z 1001fca0 f   Zbuffer.obj
 0001:0001ed10       ?GetZdepth@CZBuffer@@UAENFF@Z 1001fd10 f   Zbuffer.obj
 0001:0001ed90       ?PutZdepth@CZBuffer@@UAEHFFNNN@Z 1001fd90 f   Zbuffer.obj
 0001:0001ee60       ?UnSetZdepth@CZBuffer@@UAEXFF@Z 1001fe60 f   Zbuffer.obj
 0001:0001ef00       ?Serialize@CZBuffer@@UAEXAAVCArchive@@@Z 1001ff00 f   Zbuffer.obj
 0001:0001ef4a       ?Serialize@C3DMath@@UAEXAAVCArchive@@@Z 1001ff4a f   Dr3D_D32:Dr3D_D32.dll
 0001:0001ef50       ?GetRuntimeClass@C3DMath@@UBEPAUCRuntimeClass@@XZ 1001ff50 f   Dr3D_D32:Dr3D_D32.dll
 0001:0001ef56       ?BlockCopy@C3DMath@@QAEXPAD0K@Z 1001ff56 f   Dr3D_D32:Dr3D_D32.dll
 0001:0001ef5c       ??0C3DMath@@QAE@XZ         1001ff5c f   Dr3D_D32:Dr3D_D32.dll
 0001:0001ef62       ?Project@CXForm@@UAEXPAUMATRIX@@PAUWORLD@@1@Z 1001ff62 f   Dr3D_D32:Dr3D_D32.dll
 0001:0001ef68       ?ComposeWin3DtoScreen3DMATRIX@CXForm@@UAEXPAUMATRIX@@UWORLD@@1@Z 1001ff68 f   Dr3D_D32:Dr3D_D32.dll
 0001:0001ef6e       ?TransformPerToParCVV@CXForm@@UAEXNPAUWORLD@@0@Z 1001ff6e f   Dr3D_D32:Dr3D_D32.dll
 0001:0001ef74       ?Transform@CXForm@@UAEXPAUWORLD@@0PAUMATRIX@@@Z 1001ff74 f   Dr3D_D32:Dr3D_D32.dll
 0001:0001ef7a       ?ComposeCombineMATRIX@CXForm@@UAEXPAUMATRIX@@00@Z 1001ff7a f   Dr3D_D32:Dr3D_D32.dll
 0001:0001ef80       ?Per_SetVMMATRIX@CXForm@@UAENPAUMATRIX@@UWORLD@@1NNNN@Z 1001ff80 f   Dr3D_D32:Dr3D_D32.dll
 0001:0001ef86       ?Par_SetVMMATRIX@CXForm@@UAEXPAUMATRIX@@UWORLD@@1NNNN@Z 1001ff86 f   Dr3D_D32:Dr3D_D32.dll
 0001:0001ef8c       ?SetVOMATRIX@CXForm@@UAEXPAUMATRIX@@UWORLD@@11@Z 1001ff8c f   Dr3D_D32:Dr3D_D32.dll
 0001:0001ef92       ?ALT_ComposeViewMATRIX@CXForm@@UAEHPAUMATRIX@@UWORLD@@1111NNNN@Z 1001ff92 f   Dr3D_D32:Dr3D_D32.dll
 0001:0001ef98       ?PerToParCVVMATRIX@CXForm@@UAEXPAUMATRIX@@N@Z 1001ff98 f   Dr3D_D32:Dr3D_D32.dll
 0001:0001ef9e       ?ComposeViewMATRIX@CXForm@@UAENPAUMATRIX@@UWORLD@@1111NNNN@Z 1001ff9e f   Dr3D_D32:Dr3D_D32.dll
 0001:0001efa4       ?ComposeLocalMATRIX@CXForm@@UAEXPAUMATRIX@@NNNNNNNNNNNN@Z 1001ffa4 f   Dr3D_D32:Dr3D_D32.dll
 0001:0001efaa       ?VRCtoWORLDRotationMATRIX@CXForm@@UAEXPAUMATRIX@@PAUWORLD@@1@Z 1001ffaa f   Dr3D_D32:Dr3D_D32.dll
 0001:0001efb0       ?RotateToNewXMATRIX@CXForm@@UAEXPAUWORLD@@PAUMATRIX@@W4XFMODE@@@Z 1001ffb0 f   Dr3D_D32:Dr3D_D32.dll
 0001:0001efb6       ?HeadToNewXLocMATRIX@CXForm@@UAEXPAUWORLD@@0PAUMATRIX@@W4XFMODE@@@Z 1001ffb6 f   Dr3D_D32:Dr3D_D32.dll
 0001:0001efbc       ?RotateToNewYMATRIX@CXForm@@UAEXPAUWORLD@@PAUMATRIX@@W4XFMODE@@@Z 1001ffbc f   Dr3D_D32:Dr3D_D32.dll
 0001:0001efc2       ?HeadToNewYLocMATRIX@CXForm@@UAEXPAUWORLD@@0PAUMATRIX@@W4XFMODE@@@Z 1001ffc2 f   Dr3D_D32:Dr3D_D32.dll
 0001:0001efc8       ?RotateToNewZMATRIX@CXForm@@UAEXPAUWORLD@@PAUMATRIX@@W4XFMODE@@@Z 1001ffc8 f   Dr3D_D32:Dr3D_D32.dll
 0001:0001efce       ?HeadToNewZLocMATRIX@CXForm@@UAEXPAUWORLD@@0PAUMATRIX@@W4XFMODE@@@Z 1001ffce f   Dr3D_D32:Dr3D_D32.dll
 0001:0001efd4       ?RotateAboutLineMATRIX@CXForm@@UAEXPAUMATRIX@@PAUWORLD@@1NW4XFMODE@@@Z 1001ffd4 f   Dr3D_D32:Dr3D_D32.dll
 0001:0001efda       ?Translate@CXForm@@UAEXPAUMATRIX@@NNNW4XFMODE@@@Z 1001ffda f   Dr3D_D32:Dr3D_D32.dll
 0001:0001efe0       ?Rotate_Z@CXForm@@UAEXPAUMATRIX@@NW4XFMODE@@@Z 1001ffe0 f   Dr3D_D32:Dr3D_D32.dll
 0001:0001efe6       ?Rotate_Y@CXForm@@UAEXPAUMATRIX@@NW4XFMODE@@@Z 1001ffe6 f   Dr3D_D32:Dr3D_D32.dll
 0001:0001efec       ?Rotate_X@CXForm@@UAEXPAUMATRIX@@NW4XFMODE@@@Z 1001ffec f   Dr3D_D32:Dr3D_D32.dll
 0001:0001eff2       ?Shear_Z@CXForm@@UAEXPAUMATRIX@@NNW4XFMODE@@@Z 1001fff2 f   Dr3D_D32:Dr3D_D32.dll
 0001:0001eff8       ?Shear_Y@CXForm@@UAEXPAUMATRIX@@NNW4XFMODE@@@Z 1001fff8 f   Dr3D_D32:Dr3D_D32.dll
 0001:0001effe       ?Shear_X@CXForm@@UAEXPAUMATRIX@@NNW4XFMODE@@@Z 1001fffe f   Dr3D_D32:Dr3D_D32.dll
 0001:0001f004       ?Scale@CXForm@@UAEXPAUMATRIX@@NNNW4XFMODE@@@Z 10020004 f   Dr3D_D32:Dr3D_D32.dll
 0001:0001f00a       ?Reflect@CXForm@@UAEXPAUMATRIX@@UWORLD@@N@Z 1002000a f   Dr3D_D32:Dr3D_D32.dll
 0001:0001f010       ?Serialize@CXForm@@UAEXAAVCArchive@@@Z 10020010 f   Dr3D_D32:Dr3D_D32.dll
 0001:0001f016       ?GetRuntimeClass@CXForm@@UBEPAUCRuntimeClass@@XZ 10020016 f   Dr3D_D32:Dr3D_D32.dll
 0001:0001f01c       ??0CXForm@@QAE@XZ          1002001c f   Dr3D_D32:Dr3D_D32.dll
 0001:0001f022       ??1CDrClip@@UAE@XZ         10020022 f   Dr3D_D32:Dr3D_D32.dll
 0001:0001f028       ?ClipLine_LB@CDrClip@@UAE?AW4VISIBILITY@@PAUWORLD@@0@Z 10020028 f   Dr3D_D32:Dr3D_D32.dll
 0001:0001f02e       ??0CDrClip@@QAE@XZ         1002002e f   Dr3D_D32:Dr3D_D32.dll
 0001:0001f034       ?ClipPt@CDrClip@@UAE?AW4VISIBILITY@@PAUWORLD@@@Z 10020034 f   Dr3D_D32:Dr3D_D32.dll
 0001:0001f03a       ?TransposeMATRIX@C3DMath@@QAEXPAUMATRIX@@@Z 1002003a f   Dr3D_D32:Dr3D_D32.dll
 0001:0001f040       ?GetIdentityMATRIX@C3DMath@@QAEXPAUMATRIX@@@Z 10020040 f   Dr3D_D32:Dr3D_D32.dll
 0001:0001f046       ?GetRuntimeClass@CMatObj@@UBEPAUCRuntimeClass@@XZ 10020046 f   Spec_D32:Spec_D32.dll
 0001:0001f04c       ?InitBooleans@CBooleans@@UAEXXZ 1002004c f   Spec_D32:Spec_D32.dll
 0001:0001f052       ?ReadDefaultBooleans@CBooleans@@UAEXXZ 10020052 f   Spec_D32:Spec_D32.dll
 0001:0001f058       ?ToggleZoom@CBooleans@@UAEHHH@Z 10020058 f   Spec_D32:Spec_D32.dll
 0001:0001f05e       ?IsZoomOn@CBooleans@@UAEHHH@Z 1002005e f   Spec_D32:Spec_D32.dll
 0001:0001f064       ?SetZoomEnabled@CBooleans@@UAEXHH@Z 10020064 f   Spec_D32:Spec_D32.dll
 0001:0001f06a       ?IsZoomEnabled@CBooleans@@UAEHH@Z 1002006a f   Spec_D32:Spec_D32.dll
 0001:0001f070       ?SetObjectInfo@CBooleans@@UAEXPAVCDrObject@@@Z 10020070 f   Spec_D32:Spec_D32.dll
 0001:0001f076       ?GetObjectInfo@CBooleans@@UAEXPAVCDrObject@@@Z 10020076 f   Spec_D32:Spec_D32.dll
 0001:0001f07c       ?Pack_drPipe@CBooleans@@UAEXPAVCString@@@Z 1002007c f   Spec_D32:Spec_D32.dll
 0001:0001f082       ?SetScreen3DCorner@CDrObject@@UAEXPAUWORLD@@H@Z 10020082 f   Spec_D32:Spec_D32.dll
 0001:0001f088       ?GetScreen3DCorner@CDrObject@@UAEXPAUWORLD@@H@Z 10020088 f   Spec_D32:Spec_D32.dll
 0001:0001f08e       ?SetEyeCorner@CDrObject@@UAEXPAUWORLD@@H@Z 1002008e f   Spec_D32:Spec_D32.dll
 0001:0001f094       ?GetEyeCorner@CDrObject@@UAEXPAUWORLD@@H@Z 10020094 f   Spec_D32:Spec_D32.dll
 0001:0001f09a       ?SetWorldCorner@CDrObject@@UAEXPAUWORLD@@H@Z 1002009a f   Spec_D32:Spec_D32.dll
 0001:0001f0a0       ?GetWorldCorner@CDrObject@@UAEXPAUWORLD@@H@Z 100200a0 f   Spec_D32:Spec_D32.dll
 0001:0001f0a6       ?SetLocalCorner@CDrObject@@UAEXPAUWORLD@@H@Z 100200a6 f   Spec_D32:Spec_D32.dll
 0001:0001f0ac       ?GetLocalCorner@CDrObject@@UAEXPAUWORLD@@H@Z 100200ac f   Spec_D32:Spec_D32.dll
 0001:0001f0b2       ?DoDataView@CBooleans@@UAEXPAVCDC@@H@Z 100200b2 f   Spec_D32:Spec_D32.dll
 0001:0001f0b8       ?Serialize@CBooleans@@UAEXAAVCArchive@@@Z 100200b8 f   Spec_D32:Spec_D32.dll
 0001:0001f0be       ?GetRuntimeClass@CBooleans@@UBEPAUCRuntimeClass@@XZ 100200be f   Spec_D32:Spec_D32.dll
 0001:0001f0c4       ??1CDrObject@@UAE@XZ       100200c4 f   Spec_D32:Spec_D32.dll
 0001:0001f0ca       ?InitDataWindow@CDataWindow@@UAEXXZ 100200ca f   Spec_D32:Spec_D32.dll
 0001:0001f0d0       ?ReadDefaultDataWindow@CDataWindow@@UAEXXZ 100200d0 f   Spec_D32:Spec_D32.dll
 0001:0001f0d6       ?SetWinExtWIC@CDataWindow@@UAEXXZ 100200d6 f   Spec_D32:Spec_D32.dll
 0001:0001f0dc       ?SetWinMinMaxWIC@CDataWindow@@UAEXULPOINT3@@@Z 100200dc f   Spec_D32:Spec_D32.dll
 0001:0001f0e2       ?SetObjectInfo@CDataWindow@@UAEXPAVCDrObject@@@Z 100200e2 f   Spec_D32:Spec_D32.dll
 0001:0001f0e8       ?GetObjectInfo@CDataWindow@@UAEXPAVCDrObject@@@Z 100200e8 f   Spec_D32:Spec_D32.dll
 0001:0001f0ee       ?Pack_drPipe@CDataWindow@@UAEXPAVCString@@@Z 100200ee f   Spec_D32:Spec_D32.dll
 0001:0001f0f4       ?DoDataView@CDataWindow@@UAEXPAVCDC@@H@Z 100200f4 f   Spec_D32:Spec_D32.dll
 0001:0001f0fa       ?Serialize@CDataWindow@@UAEXAAVCArchive@@@Z 100200fa f   Spec_D32:Spec_D32.dll
 0001:0001f100       ?GetRuntimeClass@CDataWindow@@UBEPAUCRuntimeClass@@XZ 10020100 f   Spec_D32:Spec_D32.dll
 0001:0001f106       ?InitDrFont@CDrFont@@UAEXXZ 10020106 f   Spec_D32:Spec_D32.dll
 0001:0001f10c       ?ReadDefaultDrFont@CDrFont@@UAEXXZ 1002010c f   Spec_D32:Spec_D32.dll
 0001:0001f112       ?DoTextFont@CDrFont@@UAEXXZ 10020112 f   Spec_D32:Spec_D32.dll
 0001:0001f118       ?SetObjectInfo@CDrFont@@UAEXPAVCDrObject@@@Z 10020118 f   Spec_D32:Spec_D32.dll
 0001:0001f11e       ?GetObjectInfo@CDrFont@@UAEXPAVCDrObject@@@Z 1002011e f   Spec_D32:Spec_D32.dll
 0001:0001f124       ?Pack_drPipe@CDrFont@@UAEXPAVCString@@@Z 10020124 f   Spec_D32:Spec_D32.dll
 0001:0001f12a       ?DoDataView@CDrFont@@UAEXPAVCDC@@H@Z 1002012a f   Spec_D32:Spec_D32.dll
 0001:0001f130       ?Serialize@CDrFont@@UAEXAAVCArchive@@@Z 10020130 f   Spec_D32:Spec_D32.dll
 0001:0001f136       ?GetRuntimeClass@CDrFont@@UBEPAUCRuntimeClass@@XZ 10020136 f   Spec_D32:Spec_D32.dll
 0001:0001f13c       ?InitDrPen@CDrPen@@UAEXXZ  1002013c f   Spec_D32:Spec_D32.dll
 0001:0001f142       ?ReadDefaultDrPen@CDrPen@@UAEXXZ 10020142 f   Spec_D32:Spec_D32.dll
 0001:0001f148       ?ReplacePen@CDrPen@@UAEXXZ 10020148 f   Spec_D32:Spec_D32.dll
 0001:0001f14e       ?SetObjectInfo@CDrPen@@UAEXPAVCDrObject@@@Z 1002014e f   Spec_D32:Spec_D32.dll
 0001:0001f154       ?GetObjectInfo@CDrPen@@UAEXPAVCDrObject@@@Z 10020154 f   Spec_D32:Spec_D32.dll
 0001:0001f15a       ?Pack_drPipe@CDrPen@@UAEXPAVCString@@@Z 1002015a f   Spec_D32:Spec_D32.dll
 0001:0001f160       ?DoDataView@CDrPen@@UAEXPAVCDC@@H@Z 10020160 f   Spec_D32:Spec_D32.dll
 0001:0001f166       ?Serialize@CDrPen@@UAEXAAVCArchive@@@Z 10020166 f   Spec_D32:Spec_D32.dll
 0001:0001f16c       ?GetRuntimeClass@CDrPen@@UBEPAUCRuntimeClass@@XZ 1002016c f   Spec_D32:Spec_D32.dll
 0001:0001f172       ?SetObjectInfo@CHitNet@@UAEXPAVCDrObject@@@Z 10020172 f   Spec_D32:Spec_D32.dll
 0001:0001f178       ?GetObjectInfo@CHitNet@@UAEXPAVCDrObject@@@Z 10020178 f   Spec_D32:Spec_D32.dll
 0001:0001f17e       ?Pack_drPipe@CHitNet@@UAEXPAVCString@@@Z 1002017e f   Spec_D32:Spec_D32.dll
 0001:0001f184       ?DoDataView@CHitNet@@UAEXPAVCDC@@H@Z 10020184 f   Spec_D32:Spec_D32.dll
 0001:0001f18a       ?Serialize@CHitNet@@UAEXAAVCArchive@@@Z 1002018a f   Spec_D32:Spec_D32.dll
 0001:0001f190       ?GetRuntimeClass@CHitNet@@UBEPAUCRuntimeClass@@XZ 10020190 f   Spec_D32:Spec_D32.dll
 0001:0001f196       ?InitLayer@CLayer@@UAEXXZ  10020196 f   Spec_D32:Spec_D32.dll
 0001:0001f19c       ?ReadDefaultLayer@CLayer@@UAEXXZ 1002019c f   Spec_D32:Spec_D32.dll
 0001:0001f1a2       ?SetLayerDefaultArray@CLayer@@UAEXQAY01I@Z 100201a2 f   Spec_D32:Spec_D32.dll
 0001:0001f1a8       ?GetLayerDefaultArray@CLayer@@UAEXQAY01I@Z 100201a8 f   Spec_D32:Spec_D32.dll
 0001:0001f1ae       ?SetLayerOldArray@CLayer@@UAEXQAY01I@Z 100201ae f   Spec_D32:Spec_D32.dll
 0001:0001f1b4       ?GetLayerOldArray@CLayer@@UAEXQAY01I@Z 100201b4 f   Spec_D32:Spec_D32.dll
 0001:0001f1ba       ?SetLayerArray@CLayer@@UAEXQAY01I@Z 100201ba f   Spec_D32:Spec_D32.dll
 0001:0001f1c0       ?GetLayerArray@CLayer@@UAEXQAY01I@Z 100201c0 f   Spec_D32:Spec_D32.dll
 0001:0001f1c6       ?SetLayerInfo@CLayer@@UAEXII@Z 100201c6 f   Spec_D32:Spec_D32.dll
 0001:0001f1cc       ?GetLayerInfo@CLayer@@UAE?AVCString@@I@Z 100201cc f   Spec_D32:Spec_D32.dll
 0001:0001f1d2       ?SetObjectInfo@CLayer@@UAEXPAVCDrObject@@@Z 100201d2 f   Spec_D32:Spec_D32.dll
 0001:0001f1d8       ?GetObjectInfo@CLayer@@UAEXPAVCDrObject@@@Z 100201d8 f   Spec_D32:Spec_D32.dll
 0001:0001f1de       ?Pack_drPipe@CLayer@@UAEXPAVCString@@@Z 100201de f   Spec_D32:Spec_D32.dll
 0001:0001f1e4       ?DoDataView@CLayer@@UAEXPAVCDC@@H@Z 100201e4 f   Spec_D32:Spec_D32.dll
 0001:0001f1ea       ?Serialize@CLayer@@UAEXAAVCArchive@@@Z 100201ea f   Spec_D32:Spec_D32.dll
 0001:0001f1f0       ?GetRuntimeClass@CLayer@@UBEPAUCRuntimeClass@@XZ 100201f0 f   Spec_D32:Spec_D32.dll
 0001:0001f1f6       ?InitPatchMnu@CPatchMnu@@UAEXXZ 100201f6 f   Spec_D32:Spec_D32.dll
 0001:0001f1fc       ?ReadDefaultPatchMnu@CPatchMnu@@UAEXXZ 100201fc f   Spec_D32:Spec_D32.dll
 0001:0001f202       ?SetPatchMnuDefaultArray@CPatchMnu@@UAEXQAY01I@Z 10020202 f   Spec_D32:Spec_D32.dll
 0001:0001f208       ?GetPatchMnuDefaultArray@CPatchMnu@@UAEXQAY01I@Z 10020208 f   Spec_D32:Spec_D32.dll
 0001:0001f20e       ?SetPatchMnuOldArray@CPatchMnu@@UAEXQAY01I@Z 1002020e f   Spec_D32:Spec_D32.dll
 0001:0001f214       ?GetPatchMnuOldArray@CPatchMnu@@UAEXQAY01I@Z 10020214 f   Spec_D32:Spec_D32.dll
 0001:0001f21a       ?SetPatchMnuArray@CPatchMnu@@UAEXQAY01I@Z 1002021a f   Spec_D32:Spec_D32.dll
 0001:0001f220       ?GetPatchMnuArray@CPatchMnu@@UAEXQAY01I@Z 10020220 f   Spec_D32:Spec_D32.dll
 0001:0001f226       ?SetPatchMnuIDArray@CPatchMnu@@UAEXQAVCString@@@Z 10020226 f   Spec_D32:Spec_D32.dll
 0001:0001f22c       ?GetPatchMnuIDArray@CPatchMnu@@UAEXQAVCString@@@Z 1002022c f   Spec_D32:Spec_D32.dll
 0001:0001f232       ?SetPatchMnuInfo@CPatchMnu@@UAEXII@Z 10020232 f   Spec_D32:Spec_D32.dll
 0001:0001f238       ?GetPatchMnuInfo@CPatchMnu@@UAE?AVCString@@I@Z 10020238 f   Spec_D32:Spec_D32.dll
 0001:0001f23e       ?SetObjectInfo@CPatchMnu@@UAEXPAVCDrObject@@@Z 1002023e f   Spec_D32:Spec_D32.dll
 0001:0001f244       ?GetObjectInfo@CPatchMnu@@UAEXPAVCDrObject@@@Z 10020244 f   Spec_D32:Spec_D32.dll
 0001:0001f24a       ?Pack_drPipe@CPatchMnu@@UAEXPAVCString@@@Z 1002024a f   Spec_D32:Spec_D32.dll
 0001:0001f250       ?DoDataView@CPatchMnu@@UAEXPAVCDC@@H@Z 10020250 f   Spec_D32:Spec_D32.dll
 0001:0001f256       ?Serialize@CPatchMnu@@UAEXAAVCArchive@@@Z 10020256 f   Spec_D32:Spec_D32.dll
 0001:0001f25c       ?GetRuntimeClass@CPatchMnu@@UBEPAUCRuntimeClass@@XZ 1002025c f   Spec_D32:Spec_D32.dll
 0001:0001f262       ?InitObj3DMnu@CObj3DMnu@@UAEXXZ 10020262 f   Spec_D32:Spec_D32.dll
 0001:0001f268       ?ReadDefaultObj3DMnu@CObj3DMnu@@UAEXXZ 10020268 f   Spec_D32:Spec_D32.dll
 0001:0001f26e       ?SetObj3DMnuDefaultArray@CObj3DMnu@@UAEXQAY01I@Z 1002026e f   Spec_D32:Spec_D32.dll
 0001:0001f274       ?GetObj3DMnuDefaultArray@CObj3DMnu@@UAEXQAY01I@Z 10020274 f   Spec_D32:Spec_D32.dll
 0001:0001f27a       ?SetObj3DMnuOldArray@CObj3DMnu@@UAEXQAY01I@Z 1002027a f   Spec_D32:Spec_D32.dll
 0001:0001f280       ?GetObj3DMnuOldArray@CObj3DMnu@@UAEXQAY01I@Z 10020280 f   Spec_D32:Spec_D32.dll
 0001:0001f286       ?SetObj3DMnuArray@CObj3DMnu@@UAEXQAY01I@Z 10020286 f   Spec_D32:Spec_D32.dll
 0001:0001f28c       ?GetObj3DMnuArray@CObj3DMnu@@UAEXQAY01I@Z 1002028c f   Spec_D32:Spec_D32.dll
 0001:0001f292       ?SetObj3DMnuIDArray@CObj3DMnu@@UAEXQAVCString@@@Z 10020292 f   Spec_D32:Spec_D32.dll
 0001:0001f298       ?GetObj3DMnuIDArray@CObj3DMnu@@UAEXQAVCString@@@Z 10020298 f   Spec_D32:Spec_D32.dll
 0001:0001f29e       ?SetObj3DMnuInfo@CObj3DMnu@@UAEXII@Z 1002029e f   Spec_D32:Spec_D32.dll
 0001:0001f2a4       ?GetObj3DMnuInfo@CObj3DMnu@@UAE?AVCString@@I@Z 100202a4 f   Spec_D32:Spec_D32.dll
 0001:0001f2aa       ?SetObjectInfo@CObj3DMnu@@UAEXPAVCDrObject@@@Z 100202aa f   Spec_D32:Spec_D32.dll
 0001:0001f2b0       ?GetObjectInfo@CObj3DMnu@@UAEXPAVCDrObject@@@Z 100202b0 f   Spec_D32:Spec_D32.dll
 0001:0001f2b6       ?Pack_drPipe@CObj3DMnu@@UAEXPAVCString@@@Z 100202b6 f   Spec_D32:Spec_D32.dll
 0001:0001f2bc       ?DoDataView@CObj3DMnu@@UAEXPAVCDC@@H@Z 100202bc f   Spec_D32:Spec_D32.dll
 0001:0001f2c2       ?Serialize@CObj3DMnu@@UAEXAAVCArchive@@@Z 100202c2 f   Spec_D32:Spec_D32.dll
 0001:0001f2c8       ?GetRuntimeClass@CObj3DMnu@@UBEPAUCRuntimeClass@@XZ 100202c8 f   Spec_D32:Spec_D32.dll
 0001:0001f2ce       ?InitMapFactor@CMapFactor@@UAEXXZ 100202ce f   Spec_D32:Spec_D32.dll
 0001:0001f2d4       ?ReadDefaultMapFactor@CMapFactor@@UAEXXZ 100202d4 f   Spec_D32:Spec_D32.dll
 0001:0001f2da       ?SetObjectInfo@CMapFactor@@UAEXPAVCDrObject@@@Z 100202da f   Spec_D32:Spec_D32.dll
 0001:0001f2e0       ?GetObjectInfo@CMapFactor@@UAEXPAVCDrObject@@@Z 100202e0 f   Spec_D32:Spec_D32.dll
 0001:0001f2e6       ?Pack_drPipe@CMapFactor@@UAEXPAVCString@@@Z 100202e6 f   Spec_D32:Spec_D32.dll
 0001:0001f2ec       ?DoDataView@CMapFactor@@UAEXPAVCDC@@H@Z 100202ec f   Spec_D32:Spec_D32.dll
 0001:0001f2f2       ?Serialize@CMapFactor@@UAEXAAVCArchive@@@Z 100202f2 f   Spec_D32:Spec_D32.dll
 0001:0001f2f8       ?GetRuntimeClass@CMapFactor@@UBEPAUCRuntimeClass@@XZ 100202f8 f   Spec_D32:Spec_D32.dll
 0001:0001f2fe       ?InitPrecision@CPrecision@@UAEXXZ 100202fe f   Spec_D32:Spec_D32.dll
 0001:0001f304       ?ReadDefaultPrecision@CPrecision@@UAEXXZ 10020304 f   Spec_D32:Spec_D32.dll
 0001:0001f30a       ?SetObjectInfo@CPrecision@@UAEXPAVCDrObject@@@Z 1002030a f   Spec_D32:Spec_D32.dll
 0001:0001f310       ?GetObjectInfo@CPrecision@@UAEXPAVCDrObject@@@Z 10020310 f   Spec_D32:Spec_D32.dll
 0001:0001f316       ?Pack_drPipe@CPrecision@@UAEXPAVCString@@@Z 10020316 f   Spec_D32:Spec_D32.dll
 0001:0001f31c       ?DoDataView@CPrecision@@UAEXPAVCDC@@H@Z 1002031c f   Spec_D32:Spec_D32.dll
 0001:0001f322       ?Serialize@CPrecision@@UAEXAAVCArchive@@@Z 10020322 f   Spec_D32:Spec_D32.dll
 0001:0001f328       ?GetRuntimeClass@CPrecision@@UBEPAUCRuntimeClass@@XZ 10020328 f   Spec_D32:Spec_D32.dll
 0001:0001f32e       ?InitScaleFactor@CScaleFactor@@UAEXXZ 1002032e f   Spec_D32:Spec_D32.dll
 0001:0001f334       ?ReadDefaultScaleFactor@CScaleFactor@@UAEXXZ 10020334 f   Spec_D32:Spec_D32.dll
 0001:0001f33a       ?SetObjectInfo@CScaleFactor@@UAEXPAVCDrObject@@@Z 1002033a f   Spec_D32:Spec_D32.dll
 0001:0001f340       ?GetObjectInfo@CScaleFactor@@UAEXPAVCDrObject@@@Z 10020340 f   Spec_D32:Spec_D32.dll
 0001:0001f346       ?Pack_drPipe@CScaleFactor@@UAEXPAVCString@@@Z 10020346 f   Spec_D32:Spec_D32.dll
 0001:0001f34c       ?DoDataView@CScaleFactor@@UAEXPAVCDC@@H@Z 1002034c f   Spec_D32:Spec_D32.dll
 0001:0001f352       ?Serialize@CScaleFactor@@UAEXAAVCArchive@@@Z 10020352 f   Spec_D32:Spec_D32.dll
 0001:0001f358       ?GetRuntimeClass@CScaleFactor@@UBEPAUCRuntimeClass@@XZ 10020358 f   Spec_D32:Spec_D32.dll
 0001:0001f35e       ?InitUnit@CUnit@@UAEXXZ    1002035e f   Spec_D32:Spec_D32.dll
 0001:0001f364       ?ReadDefaultUnit@CUnit@@UAEXXZ 10020364 f   Spec_D32:Spec_D32.dll
 0001:0001f36a       ?SetObjectInfo@CUnit@@UAEXPAVCDrObject@@@Z 1002036a f   Spec_D32:Spec_D32.dll
 0001:0001f370       ?GetObjectInfo@CUnit@@UAEXPAVCDrObject@@@Z 10020370 f   Spec_D32:Spec_D32.dll
 0001:0001f376       ?Pack_drPipe@CUnit@@UAEXPAVCString@@@Z 10020376 f   Spec_D32:Spec_D32.dll
 0001:0001f37c       ?DoDataView@CUnit@@UAEXPAVCDC@@H@Z 1002037c f   Spec_D32:Spec_D32.dll
 0001:0001f382       ?Serialize@CUnit@@UAEXAAVCArchive@@@Z 10020382 f   Spec_D32:Spec_D32.dll
 0001:0001f388       ?GetRuntimeClass@CUnit@@UBEPAUCRuntimeClass@@XZ 10020388 f   Spec_D32:Spec_D32.dll
 0001:0001f38e       ??1CDListMgr@@UAE@XZ       1002038e f   Spec_D32:Spec_D32.dll
 0001:0001f394       ?GetObjectIndex@CDListMgr@@QAEHJ@Z 10020394 f   Spec_D32:Spec_D32.dll
 0001:0001f39a       ?GetNextObject@CDListMgr@@QAEPAVCObject@@AAPAU__POSITION@@@Z 1002039a f   Spec_D32:Spec_D32.dll
 0001:0001f3a0       ?GetFirstObjectPos@CDListMgr@@QAEPAU__POSITION@@XZ 100203a0 f   Spec_D32:Spec_D32.dll
 0001:0001f3a6       ?GetObjectA@CDListMgr@@QAEPAVCObject@@H@Z 100203a6 f   Spec_D32:Spec_D32.dll
 0001:0001f3ac       ?ReplaceObject@CDListMgr@@QAEHHPAVCObject@@@Z 100203ac f   Spec_D32:Spec_D32.dll
 0001:0001f3b2       ?InsertObject@CDListMgr@@QAEHPAVCObject@@@Z 100203b2 f   Spec_D32:Spec_D32.dll
 0001:0001f3b8       ?Init@CElemInfo@@UAEXXZ    100203b8 f   Elem_D32:Elem_D32.dll
 0001:0001f3be       ?ReadDefault@CElemInfo@@UAEXXZ 100203be f   Elem_D32:Elem_D32.dll
 0001:0001f3c4       ?SetObjectInfo@CElemInfo@@UAEXPAVCDrObject@@@Z 100203c4 f   Elem_D32:Elem_D32.dll
 0001:0001f3ca       ?GetObjectInfo@CElemInfo@@UAEXPAVCDrObject@@@Z 100203ca f   Elem_D32:Elem_D32.dll
 0001:0001f3d0       ?Pack_drPipe@CElemInfo@@UAEXPAVCString@@@Z 100203d0 f   Elem_D32:Elem_D32.dll
 0001:0001f3d6       ?DoDataView@CElemInfo@@UAEXPAVCDC@@H@Z 100203d6 f   Elem_D32:Elem_D32.dll
 0001:0001f3dc       ?Serialize@CElemInfo@@UAEXAAVCArchive@@@Z 100203dc f   Elem_D32:Elem_D32.dll
 0001:0001f3e2       ?GetRuntimeClass@CElemInfo@@UBEPAUCRuntimeClass@@XZ 100203e2 f   Elem_D32:Elem_D32.dll
 0001:0001f3e8       ?SetCorner@CDrLabel@@UAEXUtagPOINT@@H@Z 100203e8 f   Draw_D32:Draw_D32.dll
 0001:0001f3ee       ?GetCorner@CDrLabel@@UAE?AUtagPOINT@@H@Z 100203ee f   Draw_D32:Draw_D32.dll
 0001:0001f3f4       ?GetObjectInfo@CDrLabel@@UAEXPAVCDrObject@@@Z 100203f4 f   Draw_D32:Draw_D32.dll
 0001:0001f3fa       ?SetObjectInfo@CDrLabel@@UAEXPAVCDrObject@@@Z 100203fa f   Draw_D32:Draw_D32.dll
 0001:0001f400       ?Pack_drPipe@CDrLabel@@UAEXPAVCString@@@Z 10020400 f   Draw_D32:Draw_D32.dll
 0001:0001f406       ?IsKeyMatch@CDrLabel@@UAEHPAVCDrObject@@VCString@@I@Z 10020406 f   Draw_D32:Draw_D32.dll
 0001:0001f40c       ?IsObjectHit@CDrLabel@@UAEHPAVCClientDC@@HUtagPOINT@@PAVCRect@@H@Z 1002040c f   Draw_D32:Draw_D32.dll
 0001:0001f412       ?GetRawCoords@CDrLabel@@UAEXPAJPAHH@Z 10020412 f   Draw_D32:Draw_D32.dll
 0001:0001f418       ?FinishObject@CDrLabel@@UAEXPAVCClientDC@@H@Z 10020418 f   Draw_D32:Draw_D32.dll
 0001:0001f41e       ?DealObjectDialog@CDrLabel@@UAEHXZ 1002041e f   Draw_D32:Draw_D32.dll
 0001:0001f424       ?DoDrawView@CDrLabel@@UAEXPAVCDC@@HH@Z 10020424 f   Draw_D32:Draw_D32.dll
 0001:0001f42a       ?Corner_3Dto2D@CDrLabel@@UAEXXZ 1002042a f   Draw_D32:Draw_D32.dll
 0001:0001f430       ?InitDraw@CDrLabel@@UAEXPAVCDC@@HHPAUMATRIX@@1NNN@Z 10020430 f   Draw_D32:Draw_D32.dll
 0001:0001f436       ?DoDataView@CDrLabel@@UAEXPAVCDC@@H@Z 10020436 f   Draw_D32:Draw_D32.dll
 0001:0001f43c       ?Serialize@CDrLabel@@UAEXAAVCArchive@@@Z 1002043c f   Draw_D32:Draw_D32.dll
 0001:0001f442       ?GetRuntimeClass@CDrLabel@@UBEPAUCRuntimeClass@@XZ 10020442 f   Draw_D32:Draw_D32.dll
 0001:0001f448       ?GetRuntimeClass@CTriangle@@UBEPAUCRuntimeClass@@XZ 10020448 f   OGen_D32:OGEN_D32.dll
 0001:0001f44e       ?GetSpecObject@CAxObjMgr@@QAEPAVCDrObject@@H@Z 1002044e f   OMgr_d32:OMgr_D32.dll
 0001:0001f454       ?GetSpecObject@CObjectMgr@@QAEPAVCDrObject@@H@Z 10020454 f   OMgr_d32:OMgr_D32.dll
 0001:0001f45a       ?Dump@CObject@@UBEXAAVCDumpContext@@@Z 1002045a f   mfc42d:MFC42D.DLL
 0001:0001f460       ?AssertValid@CObject@@UBEXXZ 10020460 f   mfc42d:MFC42D.DLL
 0001:0001f466       ??1CObject@@UAE@XZ         10020466 f   mfc42d:MFC42D.DLL
 0001:0001f46c       ??3CObject@@SGXPAX@Z       1002046c f   mfc42d:MFC42D.DLL
 0001:0001f472       ??3@YAXPAX@Z               10020472 f   mfc42d:MFC42D.DLL
 0001:0001f478       ??0CString@@QAE@ABV0@@Z    10020478 f   mfc42d:MFC42D.DLL
 0001:0001f47e       ??1CString@@QAE@XZ         1002047e f   mfc42d:MFC42D.DLL
 0001:0001f484       ??4CString@@QAEABV0@ABV0@@Z 10020484 f   mfc42d:MFC42D.DLL
 0001:0001f48a       ?Serialize@CObject@@UAEXAAVCArchive@@@Z 1002048a f   mfc42d:MFC42D.DLL
 0001:0001f490       ??1CPen@@UAE@XZ            10020490 f   mfc42d:MFC42D.DLL
 0001:0001f496       ??1CDialog@@UAE@XZ         10020496 f   mfc42d:MFC42D.DLL
 0001:0001f49c       ??1CButton@@UAE@XZ         1002049c f   mfc42d:MFC42D.DLL
 0001:0001f4a2       ??1CBitmap@@UAE@XZ         100204a2 f   mfc42d:MFC42D.DLL
 0001:0001f4a8       ??0CObject@@IAE@XZ         100204a8 f   mfc42d:MFC42D.DLL
 0001:0001f4ae       ?IntersectRect@CRect@@QAEHPBUtagRECT@@0@Z 100204ae f   mfc42d:MFC42D.DLL
 0001:0001f4b4       ?NormalizeRect@CRect@@QAEXXZ 100204b4 f   mfc42d:MFC42D.DLL
 0001:0001f4ba       ?LPtoDP@CDC@@QBEXPAUtagRECT@@@Z 100204ba f   mfc42d:MFC42D.DLL
 0001:0001f4c0       ?GetCount@CObList@@QBEHXZ  100204c0 f   mfc42d:MFC42D.DLL
 0001:0001f4c6       ??0CRect@@QAE@XZ           100204c6 f   mfc42d:MFC42D.DLL
 0001:0001f4cc       ?AfxGetApp@@YGPAVCWinApp@@XZ 100204cc f   mfc42d:MFC42D.DLL
 0001:0001f4d2       ??BCRect@@QAEPAUtagRECT@@XZ 100204d2 f   mfc42d:MFC42D.DLL
 0001:0001f4d8       ?IsEmpty@CObList@@QBEHXZ   100204d8 f   mfc42d:MFC42D.DLL
 0001:0001f4de       ?SetOccDialogInfo@CWnd@@MAEHPAU_AFX_OCC_DIALOG_INFO@@@Z 100204de f   mfc42d:MFC42D.DLL
 0001:0001f4e4       ?IsFrameWnd@CWnd@@UBEHXZ   100204e4 f   mfc42d:MFC42D.DLL
 0001:0001f4ea       ?CheckAutoCenter@CWnd@@UAEHXZ 100204ea f   mfc42d:MFC42D.DLL
 0001:0001f4f0       ?OnChildNotify@CWnd@@MAEHIIJPAJ@Z 100204f0 f   mfc42d:MFC42D.DLL
 0001:0001f4f6       ?PostNcDestroy@CWnd@@MAEXXZ 100204f6 f   mfc42d:MFC42D.DLL
 0001:0001f4fc       ?DefWindowProcA@CWnd@@MAEJIIJ@Z 100204fc f   mfc42d:MFC42D.DLL
 0001:0001f502       ?OnWndMsg@CWnd@@MAEHIIJPAJ@Z 10020502 f   mfc42d:MFC42D.DLL
 0001:0001f508       ?WindowProc@CWnd@@MAEJIIJ@Z 10020508 f   mfc42d:MFC42D.DLL
 0001:0001f50e       ?OnAmbientProperty@CWnd@@UAEHPAVCOleControlSite@@JPAUtagVARIANT@@@Z 1002050e f   mfc42d:MFC42D.DLL
 0001:0001f514       ?PreTranslateMessage@CWnd@@UAEHPAUtagMSG@@@Z 10020514 f   mfc42d:MFC42D.DLL
 0001:0001f51a       ?EndModalState@CWnd@@UAEXXZ 1002051a f   mfc42d:MFC42D.DLL
 0001:0001f520       ?BeginModalState@CWnd@@UAEXXZ 10020520 f   mfc42d:MFC42D.DLL
 0001:0001f526       ?DoDataExchange@CWnd@@MAEXPAVCDataExchange@@@Z 10020526 f   mfc42d:MFC42D.DLL
 0001:0001f52c       ?GetSuperWndProcAddr@CWnd@@MAEPAP6GJPAUHWND__@@IIJ@ZXZ 1002052c f   mfc42d:MFC42D.DLL
 0001:0001f532       ?OnNotify@CWnd@@MAEHIJPAJ@Z 10020532 f   mfc42d:MFC42D.DLL
 0001:0001f538       ?OnCommand@CWnd@@MAEHIJ@Z  10020538 f   mfc42d:MFC42D.DLL
 0001:0001f53e       ?EndModalLoop@CWnd@@UAEXH@Z 1002053e f   mfc42d:MFC42D.DLL
 0001:0001f544       ?ContinueModal@CWnd@@UAEHXZ 10020544 f   mfc42d:MFC42D.DLL
 0001:0001f54a       ?WinHelpA@CWnd@@UAEXKI@Z   1002054a f   mfc42d:MFC42D.DLL
 0001:0001f550       ?GetScrollBarCtrl@CWnd@@UBEPAVCScrollBar@@H@Z 10020550 f   mfc42d:MFC42D.DLL
 0001:0001f556       ?OnToolHitTest@CWnd@@UBEHVCPoint@@PAUtagTOOLINFOA@@@Z 10020556 f   mfc42d:MFC42D.DLL
 0001:0001f55c       ?CalcWindowRect@CWnd@@UAEXPAUtagRECT@@I@Z 1002055c f   mfc42d:MFC42D.DLL
 0001:0001f562       ?PreCreateWindow@CWnd@@UAEHAAUtagCREATESTRUCTA@@@Z 10020562 f   mfc42d:MFC42D.DLL
 0001:0001f568       ?DestroyWindow@CWnd@@UAEHXZ 10020568 f   mfc42d:MFC42D.DLL
 0001:0001f56e       ?Create@CWnd@@UAEHPBD0KABUtagRECT@@PAV1@IPAUCCreateContext@@@Z 1002056e f   mfc42d:MFC42D.DLL
 0001:0001f574       ?PreSubclassWindow@CWnd@@UAEXXZ 10020574 f   mfc42d:MFC42D.DLL
 0001:0001f57a       ?GetConnectionHook@CCmdTarget@@MAEPAUIConnectionPoint@@ABU_GUID@@@Z 1002057a f   mfc42d:MFC42D.DLL
 0001:0001f580       ?GetExtraConnectionPoints@CCmdTarget@@MAEHPAVCPtrArray@@@Z 10020580 f   mfc42d:MFC42D.DLL
 0001:0001f586       ?GetInterfaceHook@CCmdTarget@@UAEPAUIUnknown@@PBX@Z 10020586 f   mfc42d:MFC42D.DLL
 0001:0001f58c       ?OnCreateAggregates@CCmdTarget@@UAEHXZ 1002058c f   mfc42d:MFC42D.DLL
 0001:0001f592       ?GetEventSinkMap@CCmdTarget@@MBEPBUAFX_EVENTSINKMAP@@XZ 10020592 f   mfc42d:MFC42D.DLL
 0001:0001f598       ?GetInterfaceMap@CCmdTarget@@MBEPBUAFX_INTERFACEMAP@@XZ 10020598 f   mfc42d:MFC42D.DLL
 0001:0001f59e       ?GetConnectionMap@CCmdTarget@@MBEPBUAFX_CONNECTIONMAP@@XZ 1002059e f   mfc42d:MFC42D.DLL
 0001:0001f5a4       ?GetDispatchMap@CCmdTarget@@MBEPBUAFX_DISPMAP@@XZ 100205a4 f   mfc42d:MFC42D.DLL
 0001:0001f5aa       ?GetCommandMap@CCmdTarget@@MBEPBUAFX_OLECMDMAP@@XZ 100205aa f   mfc42d:MFC42D.DLL
 0001:0001f5b0       ?GetTypeLib@CCmdTarget@@UAEJKPAPAUITypeLib@@@Z 100205b0 f   mfc42d:MFC42D.DLL
 0001:0001f5b6       ?GetTypeLibCache@CCmdTarget@@UAEPAVCTypeLibCache@@XZ 100205b6 f   mfc42d:MFC42D.DLL
 0001:0001f5bc       ?GetTypeInfoCount@CCmdTarget@@UAEIXZ 100205bc f   mfc42d:MFC42D.DLL
 0001:0001f5c2       ?GetDispatchIID@CCmdTarget@@UAEHPAU_GUID@@@Z 100205c2 f   mfc42d:MFC42D.DLL
 0001:0001f5c8       ?IsInvokeAllowed@CCmdTarget@@UAEHJ@Z 100205c8 f   mfc42d:MFC42D.DLL
 0001:0001f5ce       ?OnFinalRelease@CWnd@@UAEXXZ 100205ce f   mfc42d:MFC42D.DLL
 0001:0001f5d4       ?OnCmdMsg@CCmdTarget@@UAEHIHPAXPAUAFX_CMDHANDLERINFO@@@Z 100205d4 f   mfc42d:MFC42D.DLL
 0001:0001f5da       ?Dump@CWnd@@UBEXAAVCDumpContext@@@Z 100205da f   mfc42d:MFC42D.DLL
 0001:0001f5e0       ?AssertValid@CWnd@@UBEXXZ  100205e0 f   mfc42d:MFC42D.DLL
 0001:0001f5e6       ?GetRuntimeClass@CWnd@@UBEPAUCRuntimeClass@@XZ 100205e6 f   mfc42d:MFC42D.DLL
 0001:0001f5ec       ??0CWnd@@QAE@XZ            100205ec f   mfc42d:MFC42D.DLL
 0001:0001f5f2       ??1CWnd@@UAE@XZ            100205f2 f   mfc42d:MFC42D.DLL
 0001:0001f5f8       ??1CPaintDC@@UAE@XZ        100205f8 f   mfc42d:MFC42D.DLL
 0001:0001f5fe       ?SetMapMode@CDC@@UAEHH@Z   100205fe f   mfc42d:MFC42D.DLL
 0001:0001f604       ??0CPaintDC@@QAE@PAVCWnd@@@Z 10020604 f   mfc42d:MFC42D.DLL
 0001:0001f60a       ??1CBrush@@UAE@XZ          1002060a f   mfc42d:MFC42D.DLL
 0001:0001f610       ?DeleteObject@CGdiObject@@QAEHXZ 10020610 f   mfc42d:MFC42D.DLL
 0001:0001f616       ?GetParent@CWnd@@QBEPAV1@XZ 10020616 f   mfc42d:MFC42D.DLL
 0001:0001f61c       ?SelectObject@CDC@@QAEPAVCPen@@PAV2@@Z 1002061c f   mfc42d:MFC42D.DLL
 0001:0001f622       ?CreatePen@CPen@@QAEHHHK@Z 10020622 f   mfc42d:MFC42D.DLL
 0001:0001f628       ?Rectangle@CDC@@QAEHPBUtagRECT@@@Z 10020628 f   mfc42d:MFC42D.DLL
 0001:0001f62e       ?DPtoLP@CDC@@QBEXPAUtagRECT@@@Z 1002062e f   mfc42d:MFC42D.DLL
 0001:0001f634       ?SelectObject@CDC@@QAEPAVCBrush@@PAV2@@Z 10020634 f   mfc42d:MFC42D.DLL
 0001:0001f63a       ?CreateSolidBrush@CBrush@@QAEHK@Z 1002063a f   mfc42d:MFC42D.DLL
 0001:0001f640       ?SetBkMode@CDC@@QAEHH@Z    10020640 f   mfc42d:MFC42D.DLL
 0001:0001f646       ?GetClientRect@CWnd@@QBEXPAUtagRECT@@@Z 10020646 f   mfc42d:MFC42D.DLL
 0001:0001f64c       ??0CBrush@@QAE@XZ          1002064c f   mfc42d:MFC42D.DLL
 0001:0001f652       ??0CPen@@QAE@XZ            10020652 f   mfc42d:MFC42D.DLL
 0001:0001f658       ?Dump@CGdiObject@@UBEXAAVCDumpContext@@@Z 10020658 f   mfc42d:MFC42D.DLL
 0001:0001f65e       ?AssertValid@CGdiObject@@UBEXXZ 1002065e f   mfc42d:MFC42D.DLL
 0001:0001f664       ??0CPalette@@QAE@XZ        10020664 f   mfc42d:MFC42D.DLL
 0001:0001f66a       ??1CPalette@@UAE@XZ        1002066a f   mfc42d:MFC42D.DLL
 0001:0001f670       ?CreatePalette@CPalette@@QAEHPAUtagLOGPALETTE@@@Z 10020670 f   mfc42d:MFC42D.DLL
 0001:0001f676       ?AfxSetResourceHandle@@YGXPAUHINSTANCE__@@@Z 10020676 f   mfc42d:MFC42D.DLL
 0001:0001f67c       ?AfxGetResourceHandle@@YGPAUHINSTANCE__@@XZ 1002067c f   mfc42d:MFC42D.DLL
 0001:0001f682       ?AfxTrace@@YAXPBDZZ        10020682 f   mfc42d:MFC42D.DLL
 0001:0001f688       ??BCString@@QBEPBDXZ       10020688 f   mfc42d:MFC42D.DLL
 0001:0001f68e       ?LoadStringA@CString@@QAEHI@Z 1002068e f   mfc42d:MFC42D.DLL
 0001:0001f694       ??0CString@@QAE@XZ         10020694 f   mfc42d:MFC42D.DLL
 0001:0001f69a       ?RealizePalette@CDC@@QAEIXZ 1002069a f   mfc42d:MFC42D.DLL
 0001:0001f6a0       ?SelectPalette@CDC@@QAEPAVCPalette@@PAV2@H@Z 100206a0 f   mfc42d:MFC42D.DLL
 0001:0001f6a6       ?LineTo@CDC@@QAEHHH@Z      100206a6 f   mfc42d:MFC42D.DLL
 0001:0001f6ac       ?MoveTo@CDC@@QAE?AVCPoint@@HH@Z 100206ac f   mfc42d:MFC42D.DLL
 0001:0001f6b2       ??2@YAPAXI@Z               100206b2 f   mfc42d:MFC42D.DLL
 0001:0001f6b8       ??2CObject@@SGPAXI@Z       100206b8 f   mfc42d:MFC42D.DLL
 0001:0001f6be       ?AfxClassInit@@YGXPAUCRuntimeClass@@@Z 100206be f   mfc42d:MFC42D.DLL
 0001:0001f6c4       ?ReadObject@CArchive@@QAEPAVCObject@@PBUCRuntimeClass@@@Z 100206c4 f   mfc42d:MFC42D.DLL
 0001:0001f6ca       ?Height@CRect@@QBEHXZ      100206ca f   mfc42d:MFC42D.DLL
 0001:0001f6d0       ?AddTail@CObList@@QAEPAU__POSITION@@PAVCObject@@@Z 100206d0 f   mfc42d:MFC42D.DLL
 0001:0001f6d6       ?SetPixel@CDC@@QAEKHHK@Z   100206d6 f   mfc42d:MFC42D.DLL
 0001:0001f6dc       ?GetPixel@CDC@@QBEKHH@Z    100206dc f   mfc42d:MFC42D.DLL
 0001:0001f6e2       ?IsStoring@CArchive@@QBEHXZ 100206e2 f   mfc42d:MFC42D.DLL
 0001:0001f6e8       ?InvalidateRect@CWnd@@QAEXPBUtagRECT@@H@Z 100206e8 f   mfc42d:MFC42D.DLL
 0001:0001f6ee       ?GetRuntimeClass@CObject@@UBEPAUCRuntimeClass@@XZ 100206ee f   mfc42d:MFC42D.DLL
 0001:0001f6f4       ?AfxAssertFailedLine@@YGHPBDH@Z 100206f4 f   mfc42d:MFC42D.DLL
 0001:0001f6fa       ?ReadCount@CArchive@@QAEKXZ 100206fa f   mfc42d:MFC42D.DLL
 0001:0001f700       ?AfxIsValidAddress@@YGHPBXIH@Z 10020700 f   mfc42d:MFC42D.DLL
 0001:0001f706       ?WriteCount@CArchive@@QAEXK@Z 10020706 f   mfc42d:MFC42D.DLL
 0001:0001f70c       ?AfxAssertValidObject@@YGXPBVCObject@@PBDH@Z 1002070c f   mfc42d:MFC42D.DLL
 0001:0001f712       ?GetDepth@CDumpContext@@QBEHXZ 10020712 f   mfc42d:MFC42D.DLL
 0001:0001f718       ??6CDumpContext@@QAEAAV0@H@Z 10020718 f   mfc42d:MFC42D.DLL
 0001:0001f71e       ??6CDumpContext@@QAEAAV0@PBD@Z 1002071e f   mfc42d:MFC42D.DLL
 0001:0001f724       ?FreeDataChain@CPlex@@QAEXXZ 10020724 f   mfc42d:MFC42D.DLL
 0001:0001f72a       ?Read@CArchive@@QAEIPAXI@Z 1002072a f   mfc42d:MFC42D.DLL
 0001:0001f730       ?Write@CArchive@@QAEXPBXI@Z 10020730 f   mfc42d:MFC42D.DLL
 0001:0001f736       ?Create@CPlex@@SGPAU1@AAPAU1@II@Z 10020736 f   mfc42d:MFC42D.DLL
 0001:0001f73c       ?Polygon@CDC@@QAEHPAUtagPOINT@@H@Z 1002073c f   mfc42d:MFC42D.DLL
 0001:0001f742       ?SetPolyFillMode@CDC@@QAEHH@Z 10020742 f   mfc42d:MFC42D.DLL
 0001:0001f748       ?GetBkColor@CDC@@QBEKXZ    10020748 f   mfc42d:MFC42D.DLL
 0001:0001f74e       ?AfxGetModuleState@@YGPAVAFX_MODULE_STATE@@XZ 1002074e f   mfc42d:MFC42D.DLL
 0001:0001f754       ??0CDynLinkLibrary@@QAE@AAUAFX_EXTENSION_MODULE@@H@Z 10020754 f   mfc42d:MFC42D.DLL
 0001:0001f75a       ?AfxInitExtensionModule@@YGHAAUAFX_EXTENSION_MODULE@@PAUHINSTANCE__@@@Z 1002075a f   mfc42d:MFC42D.DLL
 0001:0001f760       ?PreInitDialog@CDialog@@MAEXXZ 10020760 f   mfc42d:MFC42D.DLL
 0001:0001f766       ?OnSetFont@CDialog@@UAEXPAVCFont@@@Z 10020766 f   mfc42d:MFC42D.DLL
 0001:0001f76c       ?DoModal@CDialog@@UAEHXZ   1002076c f   mfc42d:MFC42D.DLL
 0001:0001f772       ?SetOccDialogInfo@CDialog@@MAEHPAU_AFX_OCC_DIALOG_INFO@@@Z 10020772 f   mfc42d:MFC42D.DLL
 0001:0001f778       ?CheckAutoCenter@CDialog@@UAEHXZ 10020778 f   mfc42d:MFC42D.DLL
 0001:0001f77e       ?PreTranslateMessage@CDialog@@UAEHPAUtagMSG@@@Z 1002077e f   mfc42d:MFC42D.DLL
 0001:0001f784       ?OnCmdMsg@CDialog@@UAEHIHPAXPAUAFX_CMDHANDLERINFO@@@Z 10020784 f   mfc42d:MFC42D.DLL
 0001:0001f78a       ?Dump@CDialog@@UBEXAAVCDumpContext@@@Z 1002078a f   mfc42d:MFC42D.DLL
 0001:0001f790       ?AssertValid@CDialog@@UBEXXZ 10020790 f   mfc42d:MFC42D.DLL
 0001:0001f796       ?GetRuntimeClass@CDialog@@UBEPAUCRuntimeClass@@XZ 10020796 f   mfc42d:MFC42D.DLL
 0001:0001f79c       ?LoadBitmaps@CBitmapButton@@QAEHPBD000@Z 1002079c f   mfc42d:MFC42D.DLL
 0001:0001f7a2       ??0CBitmapButton@@QAE@XZ   100207a2 f   mfc42d:MFC42D.DLL
 0001:0001f7a8       ??0CDialog@@QAE@XZ         100207a8 f   mfc42d:MFC42D.DLL
 0001:0001f7ae       ?DDX_Text@@YGXPAVCDataExchange@@HAAN@Z 100207ae f   mfc42d:MFC42D.DLL
 0001:0001f7b4       ?SizeToContent@CBitmapButton@@QAEXXZ 100207b4 f   mfc42d:MFC42D.DLL
 0001:0001f7ba       ?SubclassDlgItem@CWnd@@QAEHIPAV1@@Z 100207ba f   mfc42d:MFC42D.DLL
 0001:0001f7c0       ?OnInitDialog@CDialog@@UAEHXZ 100207c0 f   mfc42d:MFC42D.DLL
 0001:0001f7c6       ?Create@CDialog@@QAEHIPAVCWnd@@@Z 100207c6 f   mfc42d:MFC42D.DLL
 0001:0001f7cc       ?SendMessageA@CWnd@@QAEJIIJ@Z 100207cc f   mfc42d:MFC42D.DLL
 0001:0001f7d2       ?OnCancel@CDialog@@MAEXXZ  100207d2 f   mfc42d:MFC42D.DLL
 0001:0001f7d8       ?OnOK@CDialog@@MAEXXZ      100207d8 f   mfc42d:MFC42D.DLL
 0001:0001f7de       ?SetRect@CRect@@QAEXHHHH@Z 100207de f   mfc42d:MFC42D.DLL
 0001:0001f7f0       _sqrt                      100207f0 f   msvcrtd:MSVCRTD.dll
 0001:0001f800       ??0type_info@@AAE@ABV0@@Z  10020800 f   msvcrtd:ti_inst.obj
 0001:0001f820       ??_Etype_info@@UAEPAXI@Z   10020820 f i msvcrtd:ti_inst.obj
 0001:0001f820       ??_Gtype_info@@UAEPAXI@Z   10020820 f i msvcrtd:ti_inst.obj
 0001:0001f850       ??4type_info@@AAEAAV0@ABV0@@Z 10020850 f   msvcrtd:ti_inst.obj
 0001:0001f860       ??_M@YGXPAXIHP6EX0@Z@Z     10020860 f   msvcrtd:ehvecdtr.obj
 0001:0001f910       ?__ArrayUnwind@@YGXPAXIHP6EX0@Z@Z 10020910 f   msvcrtd:ehvecdtr.obj
 0001:0001f9bc       ___CxxFrameHandler         100209bc f   msvcrtd:MSVCRTD.dll
 0001:0001f9c2       __ftol                     100209c2 f   msvcrtd:MSVCRTD.dll
 0001:0001f9c8       _pow                       100209c8 f   msvcrtd:MSVCRTD.dll
 0001:0001f9ce       _abs                       100209ce f   msvcrtd:MSVCRTD.dll
 0001:0001f9d4       _memset                    100209d4 f   msvcrtd:MSVCRTD.dll
 0001:0001f9e0       __alloca_probe             100209e0 f   msvcrtd:chkstk.obj
 0001:0001f9e0       __chkstk                   100209e0 f   msvcrtd:chkstk.obj
 0001:0001fa10       _rand                      10020a10 f   msvcrtd:MSVCRTD.dll
 0001:0001fa16       _srand                     10020a16 f   msvcrtd:MSVCRTD.dll
 0001:0001fa1c       _time                      10020a1c f   msvcrtd:MSVCRTD.dll
 0001:0001fa22       _sin                       10020a22 f   msvcrtd:MSVCRTD.dll
 0001:0001fa28       _atan2                     10020a28 f   msvcrtd:MSVCRTD.dll
 0001:0001fa2e       _fabs                      10020a2e f   msvcrtd:MSVCRTD.dll
 0001:0001fa34       _cos                       10020a34 f   msvcrtd:MSVCRTD.dll
 0001:0001fa40       __CRT_INIT@12              10020a40 f   msvcrtd:crtdll.obj
 0001:0001fb50       __DllMainCRTStartup@12     10020b50 f   msvcrtd:crtdll.obj
 0001:0001fc44       ??1type_info@@UAE@XZ       10020c44 f   msvcrtd:MSVCRTD.dll
 0001:0001fc4a       __except_handler3          10020c4a f   msvcrtd:MSVCRTD.dll
 0001:0001fc50       ?terminate@@YAXXZ          10020c50 f   msvcrtd:MSVCRTD.dll
 0001:0001fc56       __free_dbg                 10020c56 f   msvcrtd:MSVCRTD.dll
 0001:0001fc5c       __initterm                 10020c5c f   msvcrtd:MSVCRTD.dll
 0001:0001fc70       __onexit                   10020c70 f   msvcrtd:atonexit.obj
 0001:0001fcb0       _atexit                    10020cb0 f   msvcrtd:atonexit.obj
 0001:0001fcc8       __malloc_dbg               10020cc8 f   msvcrtd:MSVCRTD.dll
 0001:0001fcce       ___dllonexit               10020cce f   msvcrtd:MSVCRTD.dll
 0001:0001fcd4       _FreeResource@4            10020cd4 f   kernel32:KERNEL32.dll
 0001:0001fcda       _LockResource@4            10020cda f   kernel32:KERNEL32.dll
 0001:0001fce0       _LoadResource@8            10020ce0 f   kernel32:KERNEL32.dll
 0001:0001fce6       _FindResourceA@12          10020ce6 f   kernel32:KERNEL32.dll
 0001:0001fcec       _GetSystemMetrics@4        10020cec f   user32:USER32.dll
 0001:0001fd00       ?data@CPlex@@QAEPAXXZ      10020d00 f i Rn_wire1.obj
 0002:00000000       __imp_?Serialize@C3DMath@@UAEXAAVCArchive@@@Z 10022000     Dr3D_D32:Dr3D_D32.dll
 0002:00000004       __imp_?GetRuntimeClass@C3DMath@@UBEPAUCRuntimeClass@@XZ 10022004     Dr3D_D32:Dr3D_D32.dll
 0002:00000008       __imp_?BlockCopy@C3DMath@@QAEXPAD0K@Z 10022008     Dr3D_D32:Dr3D_D32.dll
 0002:0000000c       __imp_??0C3DMath@@QAE@XZ   1002200c     Dr3D_D32:Dr3D_D32.dll
 0002:00000010       __imp_?Project@CXForm@@UAEXPAUMATRIX@@PAUWORLD@@1@Z 10022010     Dr3D_D32:Dr3D_D32.dll
 0002:00000014       __imp_?ComposeWin3DtoScreen3DMATRIX@CXForm@@UAEXPAUMATRIX@@UWORLD@@1@Z 10022014     Dr3D_D32:Dr3D_D32.dll
 0002:00000018       __imp_?TransformPerToParCVV@CXForm@@UAEXNPAUWORLD@@0@Z 10022018     Dr3D_D32:Dr3D_D32.dll
 0002:0000001c       __imp_?Transform@CXForm@@UAEXPAUWORLD@@0PAUMATRIX@@@Z 1002201c     Dr3D_D32:Dr3D_D32.dll
 0002:00000020       __imp_?ComposeCombineMATRIX@CXForm@@UAEXPAUMATRIX@@00@Z 10022020     Dr3D_D32:Dr3D_D32.dll
 0002:00000024       __imp_?Per_SetVMMATRIX@CXForm@@UAENPAUMATRIX@@UWORLD@@1NNNN@Z 10022024     Dr3D_D32:Dr3D_D32.dll
 0002:00000028       __imp_?Par_SetVMMATRIX@CXForm@@UAEXPAUMATRIX@@UWORLD@@1NNNN@Z 10022028     Dr3D_D32:Dr3D_D32.dll
 0002:0000002c       __imp_?SetVOMATRIX@CXForm@@UAEXPAUMATRIX@@UWORLD@@11@Z 1002202c     Dr3D_D32:Dr3D_D32.dll
 0002:00000030       __imp_?ALT_ComposeViewMATRIX@CXForm@@UAEHPAUMATRIX@@UWORLD@@1111NNNN@Z 10022030     Dr3D_D32:Dr3D_D32.dll
 0002:00000034       __imp_?PerToParCVVMATRIX@CXForm@@UAEXPAUMATRIX@@N@Z 10022034     Dr3D_D32:Dr3D_D32.dll
 0002:00000038       __imp_?ComposeViewMATRIX@CXForm@@UAENPAUMATRIX@@UWORLD@@1111NNNN@Z 10022038     Dr3D_D32:Dr3D_D32.dll
 0002:0000003c       __imp_?ComposeLocalMATRIX@CXForm@@UAEXPAUMATRIX@@NNNNNNNNNNNN@Z 1002203c     Dr3D_D32:Dr3D_D32.dll
 0002:00000040       __imp_?VRCtoWORLDRotationMATRIX@CXForm@@UAEXPAUMATRIX@@PAUWORLD@@1@Z 10022040     Dr3D_D32:Dr3D_D32.dll
 0002:00000044       __imp_?RotateToNewXMATRIX@CXForm@@UAEXPAUWORLD@@PAUMATRIX@@W4XFMODE@@@Z 10022044     Dr3D_D32:Dr3D_D32.dll
 0002:00000048       __imp_?HeadToNewXLocMATRIX@CXForm@@UAEXPAUWORLD@@0PAUMATRIX@@W4XFMODE@@@Z 10022048     Dr3D_D32:Dr3D_D32.dll
 0002:0000004c       __imp_?RotateToNewYMATRIX@CXForm@@UAEXPAUWORLD@@PAUMATRIX@@W4XFMODE@@@Z 1002204c     Dr3D_D32:Dr3D_D32.dll
 0002:00000050       __imp_?HeadToNewYLocMATRIX@CXForm@@UAEXPAUWORLD@@0PAUMATRIX@@W4XFMODE@@@Z 10022050     Dr3D_D32:Dr3D_D32.dll
 0002:00000054       __imp_?RotateToNewZMATRIX@CXForm@@UAEXPAUWORLD@@PAUMATRIX@@W4XFMODE@@@Z 10022054     Dr3D_D32:Dr3D_D32.dll
 0002:00000058       __imp_?HeadToNewZLocMATRIX@CXForm@@UAEXPAUWORLD@@0PAUMATRIX@@W4XFMODE@@@Z 10022058     Dr3D_D32:Dr3D_D32.dll
 0002:0000005c       __imp_?RotateAboutLineMATRIX@CXForm@@UAEXPAUMATRIX@@PAUWORLD@@1NW4XFMODE@@@Z 1002205c     Dr3D_D32:Dr3D_D32.dll
 0002:00000060       __imp_?Translate@CXForm@@UAEXPAUMATRIX@@NNNW4XFMODE@@@Z 10022060     Dr3D_D32:Dr3D_D32.dll
 0002:00000064       __imp_?Rotate_Z@CXForm@@UAEXPAUMATRIX@@NW4XFMODE@@@Z 10022064     Dr3D_D32:Dr3D_D32.dll
 0002:00000068       __imp_?Rotate_Y@CXForm@@UAEXPAUMATRIX@@NW4XFMODE@@@Z 10022068     Dr3D_D32:Dr3D_D32.dll
 0002:0000006c       __imp_?Rotate_X@CXForm@@UAEXPAUMATRIX@@NW4XFMODE@@@Z 1002206c     Dr3D_D32:Dr3D_D32.dll
 0002:00000070       __imp_?Shear_Z@CXForm@@UAEXPAUMATRIX@@NNW4XFMODE@@@Z 10022070     Dr3D_D32:Dr3D_D32.dll
 0002:00000074       __imp_?Shear_Y@CXForm@@UAEXPAUMATRIX@@NNW4XFMODE@@@Z 10022074     Dr3D_D32:Dr3D_D32.dll
 0002:00000078       __imp_?Shear_X@CXForm@@UAEXPAUMATRIX@@NNW4XFMODE@@@Z 10022078     Dr3D_D32:Dr3D_D32.dll
 0002:0000007c       __imp_?Scale@CXForm@@UAEXPAUMATRIX@@NNNW4XFMODE@@@Z 1002207c     Dr3D_D32:Dr3D_D32.dll
 0002:00000080       __imp_?Reflect@CXForm@@UAEXPAUMATRIX@@UWORLD@@N@Z 10022080     Dr3D_D32:Dr3D_D32.dll
 0002:00000084       __imp_?Serialize@CXForm@@UAEXAAVCArchive@@@Z 10022084     Dr3D_D32:Dr3D_D32.dll
 0002:00000088       __imp_?GetRuntimeClass@CXForm@@UBEPAUCRuntimeClass@@XZ 10022088     Dr3D_D32:Dr3D_D32.dll
 0002:0000008c       __imp_??0CXForm@@QAE@XZ    1002208c     Dr3D_D32:Dr3D_D32.dll
 0002:00000090       __imp_??1CDrClip@@UAE@XZ   10022090     Dr3D_D32:Dr3D_D32.dll
 0002:00000094       __imp_?ClipLine_LB@CDrClip@@UAE?AW4VISIBILITY@@PAUWORLD@@0@Z 10022094     Dr3D_D32:Dr3D_D32.dll
 0002:00000098       __imp_??0CDrClip@@QAE@XZ   10022098     Dr3D_D32:Dr3D_D32.dll
 0002:0000009c       __imp_?ClipPt@CDrClip@@UAE?AW4VISIBILITY@@PAUWORLD@@@Z 1002209c     Dr3D_D32:Dr3D_D32.dll
 0002:000000a0       __imp_?TransposeMATRIX@C3DMath@@QAEXPAUMATRIX@@@Z 100220a0     Dr3D_D32:Dr3D_D32.dll
 0002:000000a4       __imp_?GetIdentityMATRIX@C3DMath@@QAEXPAUMATRIX@@@Z 100220a4     Dr3D_D32:Dr3D_D32.dll
 0002:000000a8       \177Dr3D_D32_NULL_THUNK_DATA 100220a8     Dr3D_D32:Dr3D_D32.dll
 0002:000000ac       __imp_?GetRuntimeClass@CDrLabel@@UBEPAUCRuntimeClass@@XZ 100220ac     Draw_D32:Draw_D32.dll
 0002:000000b0       __imp_?Serialize@CDrLabel@@UAEXAAVCArchive@@@Z 100220b0     Draw_D32:Draw_D32.dll
 0002:000000b4       __imp_?DoDataView@CDrLabel@@UAEXPAVCDC@@H@Z 100220b4     Draw_D32:Draw_D32.dll
 0002:000000b8       __imp_?InitDraw@CDrLabel@@UAEXPAVCDC@@HHPAUMATRIX@@1NNN@Z 100220b8     Draw_D32:Draw_D32.dll
 0002:000000bc       __imp_?Corner_3Dto2D@CDrLabel@@UAEXXZ 100220bc     Draw_D32:Draw_D32.dll
 0002:000000c0       __imp_?DoDrawView@CDrLabel@@UAEXPAVCDC@@HH@Z 100220c0     Draw_D32:Draw_D32.dll
 0002:000000c4       __imp_?DealObjectDialog@CDrLabel@@UAEHXZ 100220c4     Draw_D32:Draw_D32.dll
 0002:000000c8       __imp_?FinishObject@CDrLabel@@UAEXPAVCClientDC@@H@Z 100220c8     Draw_D32:Draw_D32.dll
 0002:000000cc       __imp_?GetRawCoords@CDrLabel@@UAEXPAJPAHH@Z 100220cc     Draw_D32:Draw_D32.dll
 0002:000000d0       __imp_?IsObjectHit@CDrLabel@@UAEHPAVCClientDC@@HUtagPOINT@@PAVCRect@@H@Z 100220d0     Draw_D32:Draw_D32.dll
 0002:000000d4       __imp_?IsKeyMatch@CDrLabel@@UAEHPAVCDrObject@@VCString@@I@Z 100220d4     Draw_D32:Draw_D32.dll
 0002:000000d8       __imp_?Pack_drPipe@CDrLabel@@UAEXPAVCString@@@Z 100220d8     Draw_D32:Draw_D32.dll
 0002:000000dc       __imp_?SetObjectInfo@CDrLabel@@UAEXPAVCDrObject@@@Z 100220dc     Draw_D32:Draw_D32.dll
 0002:000000e0       __imp_?GetObjectInfo@CDrLabel@@UAEXPAVCDrObject@@@Z 100220e0     Draw_D32:Draw_D32.dll
 0002:000000e4       __imp_?GetCorner@CDrLabel@@UAE?AUtagPOINT@@H@Z 100220e4     Draw_D32:Draw_D32.dll
 0002:000000e8       __imp_?SetCorner@CDrLabel@@UAEXUtagPOINT@@H@Z 100220e8     Draw_D32:Draw_D32.dll
 0002:000000ec       \177Draw_D32_NULL_THUNK_DATA 100220ec     Draw_D32:Draw_D32.dll
 0002:000000f0       __imp_?ReadDefault@CElemInfo@@UAEXXZ 100220f0     Elem_D32:Elem_D32.dll
 0002:000000f4       __imp_?SetObjectInfo@CElemInfo@@UAEXPAVCDrObject@@@Z 100220f4     Elem_D32:Elem_D32.dll
 0002:000000f8       __imp_?GetObjectInfo@CElemInfo@@UAEXPAVCDrObject@@@Z 100220f8     Elem_D32:Elem_D32.dll
 0002:000000fc       __imp_?Pack_drPipe@CElemInfo@@UAEXPAVCString@@@Z 100220fc     Elem_D32:Elem_D32.dll
 0002:00000100       __imp_?GetRuntimeClass@CElemInfo@@UBEPAUCRuntimeClass@@XZ 10022100     Elem_D32:Elem_D32.dll
 0002:00000104       __imp_?Serialize@CElemInfo@@UAEXAAVCArchive@@@Z 10022104     Elem_D32:Elem_D32.dll
 0002:00000108       __imp_?DoDataView@CElemInfo@@UAEXPAVCDC@@H@Z 10022108     Elem_D32:Elem_D32.dll
 0002:0000010c       __imp_?Init@CElemInfo@@UAEXXZ 1002210c     Elem_D32:Elem_D32.dll
 0002:00000110       \177Elem_D32_NULL_THUNK_DATA 10022110     Elem_D32:Elem_D32.dll
 0002:00000114       __imp__LoadResource@8      10022114     kernel32:KERNEL32.dll
 0002:00000118       __imp__FindResourceA@12    10022118     kernel32:KERNEL32.dll
 0002:0000011c       __imp__LockResource@4      1002211c     kernel32:KERNEL32.dll
 0002:00000120       __imp__FreeResource@4      10022120     kernel32:KERNEL32.dll
 0002:00000124       \177KERNEL32_NULL_THUNK_DATA 10022124     kernel32:KERNEL32.dll
 0002:00000128       __imp_?messageMap@CDialog@@1UAFX_MSGMAP@@B 10022128     mfc42d:MFC42D.DLL
 0002:0000012c       __imp_?DDX_Text@@YGXPAVCDataExchange@@HAAN@Z 1002212c     mfc42d:MFC42D.DLL
 0002:00000130       __imp_??0CDialog@@QAE@XZ   10022130     mfc42d:MFC42D.DLL
 0002:00000134       __imp_??0CBitmapButton@@QAE@XZ 10022134     mfc42d:MFC42D.DLL
 0002:00000138       __imp_?LoadBitmaps@CBitmapButton@@QAEHPBD000@Z 10022138     mfc42d:MFC42D.DLL
 0002:0000013c       __imp_?GetRuntimeClass@CDialog@@UBEPAUCRuntimeClass@@XZ 1002213c     mfc42d:MFC42D.DLL
 0002:00000140       __imp_?AssertValid@CDialog@@UBEXXZ 10022140     mfc42d:MFC42D.DLL
 0002:00000144       __imp_?Dump@CDialog@@UBEXAAVCDumpContext@@@Z 10022144     mfc42d:MFC42D.DLL
 0002:00000148       __imp_?OnCmdMsg@CDialog@@UAEHIHPAXPAUAFX_CMDHANDLERINFO@@@Z 10022148     mfc42d:MFC42D.DLL
 0002:0000014c       __imp_?PreTranslateMessage@CDialog@@UAEHPAUtagMSG@@@Z 1002214c     mfc42d:MFC42D.DLL
 0002:00000150       __imp_?CheckAutoCenter@CDialog@@UAEHXZ 10022150     mfc42d:MFC42D.DLL
 0002:00000154       __imp_?SetOccDialogInfo@CDialog@@MAEHPAU_AFX_OCC_DIALOG_INFO@@@Z 10022154     mfc42d:MFC42D.DLL
 0002:00000158       __imp_?DoModal@CDialog@@UAEHXZ 10022158     mfc42d:MFC42D.DLL
 0002:0000015c       __imp_?OnSetFont@CDialog@@UAEXPAVCFont@@@Z 1002215c     mfc42d:MFC42D.DLL
 0002:00000160       __imp_?PreInitDialog@CDialog@@MAEXXZ 10022160     mfc42d:MFC42D.DLL
 0002:00000164       __imp_?AfxInitExtensionModule@@YGHAAUAFX_EXTENSION_MODULE@@PAUHINSTANCE__@@@Z 10022164     mfc42d:MFC42D.DLL
 0002:00000168       __imp_??0CDynLinkLibrary@@QAE@AAUAFX_EXTENSION_MODULE@@H@Z 10022168     mfc42d:MFC42D.DLL
 0002:0000016c       __imp_?AfxGetModuleState@@YGPAVAFX_MODULE_STATE@@XZ 1002216c     mfc42d:MFC42D.DLL
 0002:00000170       __imp_?GetBkColor@CDC@@QBEKXZ 10022170     mfc42d:MFC42D.DLL
 0002:00000174       __imp_?SetPolyFillMode@CDC@@QAEHH@Z 10022174     mfc42d:MFC42D.DLL
 0002:00000178       __imp_?Polygon@CDC@@QAEHPAUtagPOINT@@H@Z 10022178     mfc42d:MFC42D.DLL
 0002:0000017c       __imp_?Create@CPlex@@SGPAU1@AAPAU1@II@Z 1002217c     mfc42d:MFC42D.DLL
 0002:00000180       __imp_?Write@CArchive@@QAEXPBXI@Z 10022180     mfc42d:MFC42D.DLL
 0002:00000184       __imp_?Read@CArchive@@QAEIPAXI@Z 10022184     mfc42d:MFC42D.DLL
 0002:00000188       __imp_?FreeDataChain@CPlex@@QAEXXZ 10022188     mfc42d:MFC42D.DLL
 0002:0000018c       __imp_??6CDumpContext@@QAEAAV0@PBD@Z 1002218c     mfc42d:MFC42D.DLL
 0002:00000190       __imp_??6CDumpContext@@QAEAAV0@H@Z 10022190     mfc42d:MFC42D.DLL
 0002:00000194       __imp_?GetDepth@CDumpContext@@QBEHXZ 10022194     mfc42d:MFC42D.DLL
 0002:00000198       __imp_?AfxAssertValidObject@@YGXPBVCObject@@PBDH@Z 10022198     mfc42d:MFC42D.DLL
 0002:0000019c       __imp_?WriteCount@CArchive@@QAEXK@Z 1002219c     mfc42d:MFC42D.DLL
 0002:000001a0       __imp_?AfxIsValidAddress@@YGHPBXIH@Z 100221a0     mfc42d:MFC42D.DLL
 0002:000001a4       __imp_?ReadCount@CArchive@@QAEKXZ 100221a4     mfc42d:MFC42D.DLL
 0002:000001a8       __imp_?AfxAssertFailedLine@@YGHPBDH@Z 100221a8     mfc42d:MFC42D.DLL
 0002:000001ac       __imp_?GetRuntimeClass@CObject@@UBEPAUCRuntimeClass@@XZ 100221ac     mfc42d:MFC42D.DLL
 0002:000001b0       __imp_?InvalidateRect@CWnd@@QAEXPBUtagRECT@@H@Z 100221b0     mfc42d:MFC42D.DLL
 0002:000001b4       __imp_?IsStoring@CArchive@@QBEHXZ 100221b4     mfc42d:MFC42D.DLL
 0002:000001b8       __imp_?GetPixel@CDC@@QBEKHH@Z 100221b8     mfc42d:MFC42D.DLL
 0002:000001bc       __imp_?SetPixel@CDC@@QAEKHHK@Z 100221bc     mfc42d:MFC42D.DLL
 0002:000001c0       __imp_?AddTail@CObList@@QAEPAU__POSITION@@PAVCObject@@@Z 100221c0     mfc42d:MFC42D.DLL
 0002:000001c4       __imp_?Height@CRect@@QBEHXZ 100221c4     mfc42d:MFC42D.DLL
 0002:000001c8       __imp_?ReadObject@CArchive@@QAEPAVCObject@@PBUCRuntimeClass@@@Z 100221c8     mfc42d:MFC42D.DLL
 0002:000001cc       __imp_?AfxClassInit@@YGXPAUCRuntimeClass@@@Z 100221cc     mfc42d:MFC42D.DLL
 0002:000001d0       __imp_??2CObject@@SGPAXI@Z 100221d0     mfc42d:MFC42D.DLL
 0002:000001d4       __imp_??2@YAPAXI@Z         100221d4     mfc42d:MFC42D.DLL
 0002:000001d8       __imp_?MoveTo@CDC@@QAE?AVCPoint@@HH@Z 100221d8     mfc42d:MFC42D.DLL
 0002:000001dc       __imp_?LineTo@CDC@@QAEHHH@Z 100221dc     mfc42d:MFC42D.DLL
 0002:000001e0       __imp_?SelectPalette@CDC@@QAEPAVCPalette@@PAV2@H@Z 100221e0     mfc42d:MFC42D.DLL
 0002:000001e4       __imp_?RealizePalette@CDC@@QAEIXZ 100221e4     mfc42d:MFC42D.DLL
 0002:000001e8       __imp_??0CString@@QAE@XZ   100221e8     mfc42d:MFC42D.DLL
 0002:000001ec       __imp_?LoadStringA@CString@@QAEHI@Z 100221ec     mfc42d:MFC42D.DLL
 0002:000001f0       __imp_??BCString@@QBEPBDXZ 100221f0     mfc42d:MFC42D.DLL
 0002:000001f4       __imp_?AfxTrace@@YAXPBDZZ  100221f4     mfc42d:MFC42D.DLL
 0002:000001f8       __imp_?AfxGetResourceHandle@@YGPAUHINSTANCE__@@XZ 100221f8     mfc42d:MFC42D.DLL
 0002:000001fc       __imp_?AfxSetResourceHandle@@YGXPAUHINSTANCE__@@@Z 100221fc     mfc42d:MFC42D.DLL
 0002:00000200       __imp_?CreatePalette@CPalette@@QAEHPAUtagLOGPALETTE@@@Z 10022200     mfc42d:MFC42D.DLL
 0002:00000204       __imp_??1CPalette@@UAE@XZ  10022204     mfc42d:MFC42D.DLL
 0002:00000208       __imp_?SizeToContent@CBitmapButton@@QAEXXZ 10022208     mfc42d:MFC42D.DLL
 0002:0000020c       __imp_?AssertValid@CGdiObject@@UBEXXZ 1002220c     mfc42d:MFC42D.DLL
 0002:00000210       __imp_?Dump@CGdiObject@@UBEXAAVCDumpContext@@@Z 10022210     mfc42d:MFC42D.DLL
 0002:00000214       __imp_?classCObject@CObject@@2UCRuntimeClass@@B 10022214     mfc42d:MFC42D.DLL
 0002:00000218       __imp_??0CPen@@QAE@XZ      10022218     mfc42d:MFC42D.DLL
 0002:0000021c       __imp_??0CBrush@@QAE@XZ    1002221c     mfc42d:MFC42D.DLL
 0002:00000220       __imp_?GetClientRect@CWnd@@QBEXPAUtagRECT@@@Z 10022220     mfc42d:MFC42D.DLL
 0002:00000224       __imp_?SetBkMode@CDC@@QAEHH@Z 10022224     mfc42d:MFC42D.DLL
 0002:00000228       __imp_?CreateSolidBrush@CBrush@@QAEHK@Z 10022228     mfc42d:MFC42D.DLL
 0002:0000022c       __imp_?SelectObject@CDC@@QAEPAVCBrush@@PAV2@@Z 1002222c     mfc42d:MFC42D.DLL
 0002:00000230       __imp_?DPtoLP@CDC@@QBEXPAUtagRECT@@@Z 10022230     mfc42d:MFC42D.DLL
 0002:00000234       __imp_?Rectangle@CDC@@QAEHPBUtagRECT@@@Z 10022234     mfc42d:MFC42D.DLL
 0002:00000238       __imp_?CreatePen@CPen@@QAEHHHK@Z 10022238     mfc42d:MFC42D.DLL
 0002:0000023c       __imp_?SelectObject@CDC@@QAEPAVCPen@@PAV2@@Z 1002223c     mfc42d:MFC42D.DLL
 0002:00000240       __imp_?GetParent@CWnd@@QBEPAV1@XZ 10022240     mfc42d:MFC42D.DLL
 0002:00000244       __imp_?DeleteObject@CGdiObject@@QAEHXZ 10022244     mfc42d:MFC42D.DLL
 0002:00000248       __imp_??1CBrush@@UAE@XZ    10022248     mfc42d:MFC42D.DLL
 0002:0000024c       __imp_??0CPaintDC@@QAE@PAVCWnd@@@Z 1002224c     mfc42d:MFC42D.DLL
 0002:00000250       __imp_?SetMapMode@CDC@@UAEHH@Z 10022250     mfc42d:MFC42D.DLL
 0002:00000254       __imp_??1CPaintDC@@UAE@XZ  10022254     mfc42d:MFC42D.DLL
 0002:00000258       __imp_?messageMap@CWnd@@1UAFX_MSGMAP@@B 10022258     mfc42d:MFC42D.DLL
 0002:0000025c       __imp_??1CWnd@@UAE@XZ      1002225c     mfc42d:MFC42D.DLL
 0002:00000260       __imp_??0CWnd@@QAE@XZ      10022260     mfc42d:MFC42D.DLL
 0002:00000264       __imp_?GetRuntimeClass@CWnd@@UBEPAUCRuntimeClass@@XZ 10022264     mfc42d:MFC42D.DLL
 0002:00000268       __imp_?AssertValid@CWnd@@UBEXXZ 10022268     mfc42d:MFC42D.DLL
 0002:0000026c       __imp_?Dump@CWnd@@UBEXAAVCDumpContext@@@Z 1002226c     mfc42d:MFC42D.DLL
 0002:00000270       __imp_?OnCmdMsg@CCmdTarget@@UAEHIHPAXPAUAFX_CMDHANDLERINFO@@@Z 10022270     mfc42d:MFC42D.DLL
 0002:00000274       __imp_?OnFinalRelease@CWnd@@UAEXXZ 10022274     mfc42d:MFC42D.DLL
 0002:00000278       __imp_?IsInvokeAllowed@CCmdTarget@@UAEHJ@Z 10022278     mfc42d:MFC42D.DLL
 0002:0000027c       __imp_?GetDispatchIID@CCmdTarget@@UAEHPAU_GUID@@@Z 1002227c     mfc42d:MFC42D.DLL
 0002:00000280       __imp_?GetTypeInfoCount@CCmdTarget@@UAEIXZ 10022280     mfc42d:MFC42D.DLL
 0002:00000284       __imp_?GetTypeLibCache@CCmdTarget@@UAEPAVCTypeLibCache@@XZ 10022284     mfc42d:MFC42D.DLL
 0002:00000288       __imp_?GetTypeLib@CCmdTarget@@UAEJKPAPAUITypeLib@@@Z 10022288     mfc42d:MFC42D.DLL
 0002:0000028c       __imp_?GetCommandMap@CCmdTarget@@MBEPBUAFX_OLECMDMAP@@XZ 1002228c     mfc42d:MFC42D.DLL
 0002:00000290       __imp_?GetDispatchMap@CCmdTarget@@MBEPBUAFX_DISPMAP@@XZ 10022290     mfc42d:MFC42D.DLL
 0002:00000294       __imp_?GetConnectionMap@CCmdTarget@@MBEPBUAFX_CONNECTIONMAP@@XZ 10022294     mfc42d:MFC42D.DLL
 0002:00000298       __imp_?GetInterfaceMap@CCmdTarget@@MBEPBUAFX_INTERFACEMAP@@XZ 10022298     mfc42d:MFC42D.DLL
 0002:0000029c       __imp_?GetEventSinkMap@CCmdTarget@@MBEPBUAFX_EVENTSINKMAP@@XZ 1002229c     mfc42d:MFC42D.DLL
 0002:000002a0       __imp_?OnCreateAggregates@CCmdTarget@@UAEHXZ 100222a0     mfc42d:MFC42D.DLL
 0002:000002a4       __imp_?GetInterfaceHook@CCmdTarget@@UAEPAUIUnknown@@PBX@Z 100222a4     mfc42d:MFC42D.DLL
 0002:000002a8       __imp_?GetExtraConnectionPoints@CCmdTarget@@MAEHPAVCPtrArray@@@Z 100222a8     mfc42d:MFC42D.DLL
 0002:000002ac       __imp_?GetConnectionHook@CCmdTarget@@MAEPAUIConnectionPoint@@ABU_GUID@@@Z 100222ac     mfc42d:MFC42D.DLL
 0002:000002b0       __imp_?PreSubclassWindow@CWnd@@UAEXXZ 100222b0     mfc42d:MFC42D.DLL
 0002:000002b4       __imp_?Create@CWnd@@UAEHPBD0KABUtagRECT@@PAV1@IPAUCCreateContext@@@Z 100222b4     mfc42d:MFC42D.DLL
 0002:000002b8       __imp_?DestroyWindow@CWnd@@UAEHXZ 100222b8     mfc42d:MFC42D.DLL
 0002:000002bc       __imp_?PreCreateWindow@CWnd@@UAEHAAUtagCREATESTRUCTA@@@Z 100222bc     mfc42d:MFC42D.DLL
 0002:000002c0       __imp_?CalcWindowRect@CWnd@@UAEXPAUtagRECT@@I@Z 100222c0     mfc42d:MFC42D.DLL
 0002:000002c4       __imp_?OnToolHitTest@CWnd@@UBEHVCPoint@@PAUtagTOOLINFOA@@@Z 100222c4     mfc42d:MFC42D.DLL
 0002:000002c8       __imp_?GetScrollBarCtrl@CWnd@@UBEPAVCScrollBar@@H@Z 100222c8     mfc42d:MFC42D.DLL
 0002:000002cc       __imp_?WinHelpA@CWnd@@UAEXKI@Z 100222cc     mfc42d:MFC42D.DLL
 0002:000002d0       __imp_?ContinueModal@CWnd@@UAEHXZ 100222d0     mfc42d:MFC42D.DLL
 0002:000002d4       __imp_?EndModalLoop@CWnd@@UAEXH@Z 100222d4     mfc42d:MFC42D.DLL
 0002:000002d8       __imp_?OnCommand@CWnd@@MAEHIJ@Z 100222d8     mfc42d:MFC42D.DLL
 0002:000002dc       __imp_?OnNotify@CWnd@@MAEHIJPAJ@Z 100222dc     mfc42d:MFC42D.DLL
 0002:000002e0       __imp_?GetSuperWndProcAddr@CWnd@@MAEPAP6GJPAUHWND__@@IIJ@ZXZ 100222e0     mfc42d:MFC42D.DLL
 0002:000002e4       __imp_?DoDataExchange@CWnd@@MAEXPAVCDataExchange@@@Z 100222e4     mfc42d:MFC42D.DLL
 0002:000002e8       __imp_?BeginModalState@CWnd@@UAEXXZ 100222e8     mfc42d:MFC42D.DLL
 0002:000002ec       __imp_?EndModalState@CWnd@@UAEXXZ 100222ec     mfc42d:MFC42D.DLL
 0002:000002f0       __imp_?PreTranslateMessage@CWnd@@UAEHPAUtagMSG@@@Z 100222f0     mfc42d:MFC42D.DLL
 0002:000002f4       __imp_?OnAmbientProperty@CWnd@@UAEHPAVCOleControlSite@@JPAUtagVARIANT@@@Z 100222f4     mfc42d:MFC42D.DLL
 0002:000002f8       __imp_?WindowProc@CWnd@@MAEJIIJ@Z 100222f8     mfc42d:MFC42D.DLL
 0002:000002fc       __imp_?SubclassDlgItem@CWnd@@QAEHIPAV1@@Z 100222fc     mfc42d:MFC42D.DLL
 0002:00000300       __imp_?OnInitDialog@CDialog@@UAEHXZ 10022300     mfc42d:MFC42D.DLL
 0002:00000304       __imp_?Create@CDialog@@QAEHIPAVCWnd@@@Z 10022304     mfc42d:MFC42D.DLL
 0002:00000308       __imp_?SendMessageA@CWnd@@QAEJIIJ@Z 10022308     mfc42d:MFC42D.DLL
 0002:0000030c       __imp_?OnCancel@CDialog@@MAEXXZ 1002230c     mfc42d:MFC42D.DLL
 0002:00000310       __imp_?OnOK@CDialog@@MAEXXZ 10022310     mfc42d:MFC42D.DLL
 0002:00000314       __imp_?SetRect@CRect@@QAEXHHHH@Z 10022314     mfc42d:MFC42D.DLL
 0002:00000318       __imp_??0CPalette@@QAE@XZ  10022318     mfc42d:MFC42D.DLL
 0002:0000031c       __imp_?OnWndMsg@CWnd@@MAEHIIJPAJ@Z 1002231c     mfc42d:MFC42D.DLL
 0002:00000320       __imp_?DefWindowProcA@CWnd@@MAEJIIJ@Z 10022320     mfc42d:MFC42D.DLL
 0002:00000324       __imp_?PostNcDestroy@CWnd@@MAEXXZ 10022324     mfc42d:MFC42D.DLL
 0002:00000328       __imp_?OnChildNotify@CWnd@@MAEHIIJPAJ@Z 10022328     mfc42d:MFC42D.DLL
 0002:0000032c       __imp_?CheckAutoCenter@CWnd@@UAEHXZ 1002232c     mfc42d:MFC42D.DLL
 0002:00000330       __imp_?IsFrameWnd@CWnd@@UBEHXZ 10022330     mfc42d:MFC42D.DLL
 0002:00000334       __imp_?SetOccDialogInfo@CWnd@@MAEHPAU_AFX_OCC_DIALOG_INFO@@@Z 10022334     mfc42d:MFC42D.DLL
 0002:00000338       __imp_?IsEmpty@CObList@@QBEHXZ 10022338     mfc42d:MFC42D.DLL
 0002:0000033c       __imp_??BCRect@@QAEPAUtagRECT@@XZ 1002233c     mfc42d:MFC42D.DLL
 0002:00000340       __imp_?AfxGetApp@@YGPAVCWinApp@@XZ 10022340     mfc42d:MFC42D.DLL
 0002:00000344       __imp_??0CRect@@QAE@XZ     10022344     mfc42d:MFC42D.DLL
 0002:00000348       __imp_?GetCount@CObList@@QBEHXZ 10022348     mfc42d:MFC42D.DLL
 0002:0000034c       __imp_?LPtoDP@CDC@@QBEXPAUtagRECT@@@Z 1002234c     mfc42d:MFC42D.DLL
 0002:00000350       __imp_?NormalizeRect@CRect@@QAEXXZ 10022350     mfc42d:MFC42D.DLL
 0002:00000354       __imp_?IntersectRect@CRect@@QAEHPBUtagRECT@@0@Z 10022354     mfc42d:MFC42D.DLL
 0002:00000358       __imp_??0CObject@@IAE@XZ   10022358     mfc42d:MFC42D.DLL
 0002:0000035c       __imp_??1CBitmap@@UAE@XZ   1002235c     mfc42d:MFC42D.DLL
 0002:00000360       __imp_??1CDialog@@UAE@XZ   10022360     mfc42d:MFC42D.DLL
 0002:00000364       __imp_??1CPen@@UAE@XZ      10022364     mfc42d:MFC42D.DLL
 0002:00000368       __imp_?Serialize@CObject@@UAEXAAVCArchive@@@Z 10022368     mfc42d:MFC42D.DLL
 0002:0000036c       __imp_??4CString@@QAEABV0@ABV0@@Z 1002236c     mfc42d:MFC42D.DLL
 0002:00000370       __imp_??1CString@@QAE@XZ   10022370     mfc42d:MFC42D.DLL
 0002:00000374       __imp_?Dump@CObject@@UBEXAAVCDumpContext@@@Z 10022374     mfc42d:MFC42D.DLL
 0002:00000378       __imp_?AssertValid@CObject@@UBEXXZ 10022378     mfc42d:MFC42D.DLL
 0002:0000037c       __imp_??1CObject@@UAE@XZ   1002237c     mfc42d:MFC42D.DLL
 0002:00000380       __imp_??3CObject@@SGXPAX@Z 10022380     mfc42d:MFC42D.DLL
 0002:00000384       __imp_??3@YAXPAX@Z         10022384     mfc42d:MFC42D.DLL
 0002:00000388       __imp_??0CString@@QAE@ABV0@@Z 10022388     mfc42d:MFC42D.DLL
 0002:0000038c       __imp_??1CButton@@UAE@XZ   1002238c     mfc42d:MFC42D.DLL
 0002:00000390       \177MFC42D_NULL_THUNK_DATA 10022390     mfc42d:MFC42D.DLL
 0002:00000394       __imp____CxxFrameHandler   10022394     msvcrtd:MSVCRTD.dll
 0002:00000398       __imp___ftol               10022398     msvcrtd:MSVCRTD.dll
 0002:0000039c       __imp__pow                 1002239c     msvcrtd:MSVCRTD.dll
 0002:000003a0       __imp__abs                 100223a0     msvcrtd:MSVCRTD.dll
 0002:000003a4       __imp___onexit             100223a4     msvcrtd:MSVCRTD.dll
 0002:000003a8       __imp____dllonexit         100223a8     msvcrtd:MSVCRTD.dll
 0002:000003ac       __imp___adjust_fdiv        100223ac     msvcrtd:MSVCRTD.dll
 0002:000003b0       __imp___malloc_dbg         100223b0     msvcrtd:MSVCRTD.dll
 0002:000003b4       __imp___initterm           100223b4     msvcrtd:MSVCRTD.dll
 0002:000003b8       __imp___free_dbg           100223b8     msvcrtd:MSVCRTD.dll
 0002:000003bc       __imp_?terminate@@YAXXZ    100223bc     msvcrtd:MSVCRTD.dll
 0002:000003c0       __imp___except_handler3    100223c0     msvcrtd:MSVCRTD.dll
 0002:000003c4       __imp_??1type_info@@UAE@XZ 100223c4     msvcrtd:MSVCRTD.dll
 0002:000003c8       __imp__cos                 100223c8     msvcrtd:MSVCRTD.dll
 0002:000003cc       __imp__fabs                100223cc     msvcrtd:MSVCRTD.dll
 0002:000003d0       __imp__atan2               100223d0     msvcrtd:MSVCRTD.dll
 0002:000003d4       __imp__sin                 100223d4     msvcrtd:MSVCRTD.dll
 0002:000003d8       __imp__time                100223d8     msvcrtd:MSVCRTD.dll
 0002:000003dc       __imp__srand               100223dc     msvcrtd:MSVCRTD.dll
 0002:000003e0       __imp__rand                100223e0     msvcrtd:MSVCRTD.dll
 0002:000003e4       __imp__memset              100223e4     msvcrtd:MSVCRTD.dll
 0002:000003e8       __imp__sqrt                100223e8     msvcrtd:MSVCRTD.dll
 0002:000003ec       \177MSVCRTD_NULL_THUNK_DATA 100223ec     msvcrtd:MSVCRTD.dll
 0002:000003f0       __imp_?GetRuntimeClass@CTriangle@@UBEPAUCRuntimeClass@@XZ 100223f0     OGen_D32:OGEN_D32.dll
 0002:000003f4       \177OGEN_D32_NULL_THUNK_DATA 100223f4     OGen_D32:OGEN_D32.dll
 0002:000003f8       __imp_?GetSpecObject@CObjectMgr@@QAEPAVCDrObject@@H@Z 100223f8     OMgr_d32:OMgr_D32.dll
 0002:000003fc       __imp_?GetSpecObject@CAxObjMgr@@QAEPAVCDrObject@@H@Z 100223fc     OMgr_d32:OMgr_D32.dll
 0002:00000400       \177OMgr_D32_NULL_THUNK_DATA 10022400     OMgr_d32:OMgr_D32.dll
 0002:00000404       __imp_?GetObjectIndex@CDListMgr@@QAEHJ@Z 10022404     Spec_D32:Spec_D32.dll
 0002:00000408       __imp_??1CDListMgr@@UAE@XZ 10022408     Spec_D32:Spec_D32.dll
 0002:0000040c       __imp_?GetRuntimeClass@CUnit@@UBEPAUCRuntimeClass@@XZ 1002240c     Spec_D32:Spec_D32.dll
 0002:00000410       __imp_?Serialize@CUnit@@UAEXAAVCArchive@@@Z 10022410     Spec_D32:Spec_D32.dll
 0002:00000414       __imp_?DoDataView@CUnit@@UAEXPAVCDC@@H@Z 10022414     Spec_D32:Spec_D32.dll
 0002:00000418       __imp_?Pack_drPipe@CUnit@@UAEXPAVCString@@@Z 10022418     Spec_D32:Spec_D32.dll
 0002:0000041c       __imp_?GetObjectInfo@CUnit@@UAEXPAVCDrObject@@@Z 1002241c     Spec_D32:Spec_D32.dll
 0002:00000420       __imp_?SetObjectInfo@CUnit@@UAEXPAVCDrObject@@@Z 10022420     Spec_D32:Spec_D32.dll
 0002:00000424       __imp_?ReadDefaultUnit@CUnit@@UAEXXZ 10022424     Spec_D32:Spec_D32.dll
 0002:00000428       __imp_?InitUnit@CUnit@@UAEXXZ 10022428     Spec_D32:Spec_D32.dll
 0002:0000042c       __imp_?GetRuntimeClass@CScaleFactor@@UBEPAUCRuntimeClass@@XZ 1002242c     Spec_D32:Spec_D32.dll
 0002:00000430       __imp_?Serialize@CScaleFactor@@UAEXAAVCArchive@@@Z 10022430     Spec_D32:Spec_D32.dll
 0002:00000434       __imp_?DoDataView@CScaleFactor@@UAEXPAVCDC@@H@Z 10022434     Spec_D32:Spec_D32.dll
 0002:00000438       __imp_?Pack_drPipe@CScaleFactor@@UAEXPAVCString@@@Z 10022438     Spec_D32:Spec_D32.dll
 0002:0000043c       __imp_?GetObjectInfo@CScaleFactor@@UAEXPAVCDrObject@@@Z 1002243c     Spec_D32:Spec_D32.dll
 0002:00000440       __imp_?SetObjectInfo@CScaleFactor@@UAEXPAVCDrObject@@@Z 10022440     Spec_D32:Spec_D32.dll
 0002:00000444       __imp_?ReadDefaultScaleFactor@CScaleFactor@@UAEXXZ 10022444     Spec_D32:Spec_D32.dll
 0002:00000448       __imp_?InitScaleFactor@CScaleFactor@@UAEXXZ 10022448     Spec_D32:Spec_D32.dll
 0002:0000044c       __imp_?GetRuntimeClass@CPrecision@@UBEPAUCRuntimeClass@@XZ 1002244c     Spec_D32:Spec_D32.dll
 0002:00000450       __imp_?Serialize@CPrecision@@UAEXAAVCArchive@@@Z 10022450     Spec_D32:Spec_D32.dll
 0002:00000454       __imp_?DoDataView@CPrecision@@UAEXPAVCDC@@H@Z 10022454     Spec_D32:Spec_D32.dll
 0002:00000458       __imp_?Pack_drPipe@CPrecision@@UAEXPAVCString@@@Z 10022458     Spec_D32:Spec_D32.dll
 0002:0000045c       __imp_?GetObjectInfo@CPrecision@@UAEXPAVCDrObject@@@Z 1002245c     Spec_D32:Spec_D32.dll
 0002:00000460       __imp_?SetObjectInfo@CPrecision@@UAEXPAVCDrObject@@@Z 10022460     Spec_D32:Spec_D32.dll
 0002:00000464       __imp_?ReadDefaultPrecision@CPrecision@@UAEXXZ 10022464     Spec_D32:Spec_D32.dll
 0002:00000468       __imp_?InitPrecision@CPrecision@@UAEXXZ 10022468     Spec_D32:Spec_D32.dll
 0002:0000046c       __imp_?GetRuntimeClass@CMapFactor@@UBEPAUCRuntimeClass@@XZ 1002246c     Spec_D32:Spec_D32.dll
 0002:00000470       __imp_?Serialize@CMapFactor@@UAEXAAVCArchive@@@Z 10022470     Spec_D32:Spec_D32.dll
 0002:00000474       __imp_?DoDataView@CMapFactor@@UAEXPAVCDC@@H@Z 10022474     Spec_D32:Spec_D32.dll
 0002:00000478       __imp_?Pack_drPipe@CMapFactor@@UAEXPAVCString@@@Z 10022478     Spec_D32:Spec_D32.dll
 0002:0000047c       __imp_?GetObjectInfo@CMapFactor@@UAEXPAVCDrObject@@@Z 1002247c     Spec_D32:Spec_D32.dll
 0002:00000480       __imp_?SetObjectInfo@CMapFactor@@UAEXPAVCDrObject@@@Z 10022480     Spec_D32:Spec_D32.dll
 0002:00000484       __imp_?ReadDefaultMapFactor@CMapFactor@@UAEXXZ 10022484     Spec_D32:Spec_D32.dll
 0002:00000488       __imp_?InitMapFactor@CMapFactor@@UAEXXZ 10022488     Spec_D32:Spec_D32.dll
 0002:0000048c       __imp_?GetRuntimeClass@CObj3DMnu@@UBEPAUCRuntimeClass@@XZ 1002248c     Spec_D32:Spec_D32.dll
 0002:00000490       __imp_?Serialize@CObj3DMnu@@UAEXAAVCArchive@@@Z 10022490     Spec_D32:Spec_D32.dll
 0002:00000494       __imp_?DoDataView@CObj3DMnu@@UAEXPAVCDC@@H@Z 10022494     Spec_D32:Spec_D32.dll
 0002:00000498       __imp_?Pack_drPipe@CObj3DMnu@@UAEXPAVCString@@@Z 10022498     Spec_D32:Spec_D32.dll
 0002:0000049c       __imp_?GetObjectInfo@CObj3DMnu@@UAEXPAVCDrObject@@@Z 1002249c     Spec_D32:Spec_D32.dll
 0002:000004a0       __imp_?SetObjectInfo@CObj3DMnu@@UAEXPAVCDrObject@@@Z 100224a0     Spec_D32:Spec_D32.dll
 0002:000004a4       __imp_?GetObj3DMnuInfo@CObj3DMnu@@UAE?AVCString@@I@Z 100224a4     Spec_D32:Spec_D32.dll
 0002:000004a8       __imp_?SetObj3DMnuInfo@CObj3DMnu@@UAEXII@Z 100224a8     Spec_D32:Spec_D32.dll
 0002:000004ac       __imp_?GetObj3DMnuIDArray@CObj3DMnu@@UAEXQAVCString@@@Z 100224ac     Spec_D32:Spec_D32.dll
 0002:000004b0       __imp_?SetObj3DMnuIDArray@CObj3DMnu@@UAEXQAVCString@@@Z 100224b0     Spec_D32:Spec_D32.dll
 0002:000004b4       __imp_?GetObj3DMnuArray@CObj3DMnu@@UAEXQAY01I@Z 100224b4     Spec_D32:Spec_D32.dll
 0002:000004b8       __imp_?SetObj3DMnuArray@CObj3DMnu@@UAEXQAY01I@Z 100224b8     Spec_D32:Spec_D32.dll
 0002:000004bc       __imp_?GetObj3DMnuOldArray@CObj3DMnu@@UAEXQAY01I@Z 100224bc     Spec_D32:Spec_D32.dll
 0002:000004c0       __imp_?SetObj3DMnuOldArray@CObj3DMnu@@UAEXQAY01I@Z 100224c0     Spec_D32:Spec_D32.dll
 0002:000004c4       __imp_?GetObj3DMnuDefaultArray@CObj3DMnu@@UAEXQAY01I@Z 100224c4     Spec_D32:Spec_D32.dll
 0002:000004c8       __imp_?SetObj3DMnuDefaultArray@CObj3DMnu@@UAEXQAY01I@Z 100224c8     Spec_D32:Spec_D32.dll
 0002:000004cc       __imp_?ReadDefaultObj3DMnu@CObj3DMnu@@UAEXXZ 100224cc     Spec_D32:Spec_D32.dll
 0002:000004d0       __imp_?InitObj3DMnu@CObj3DMnu@@UAEXXZ 100224d0     Spec_D32:Spec_D32.dll
 0002:000004d4       __imp_?GetRuntimeClass@CPatchMnu@@UBEPAUCRuntimeClass@@XZ 100224d4     Spec_D32:Spec_D32.dll
 0002:000004d8       __imp_?Serialize@CPatchMnu@@UAEXAAVCArchive@@@Z 100224d8     Spec_D32:Spec_D32.dll
 0002:000004dc       __imp_?DoDataView@CPatchMnu@@UAEXPAVCDC@@H@Z 100224dc     Spec_D32:Spec_D32.dll
 0002:000004e0       __imp_?Pack_drPipe@CPatchMnu@@UAEXPAVCString@@@Z 100224e0     Spec_D32:Spec_D32.dll
 0002:000004e4       __imp_?GetObjectInfo@CPatchMnu@@UAEXPAVCDrObject@@@Z 100224e4     Spec_D32:Spec_D32.dll
 0002:000004e8       __imp_?SetObjectInfo@CPatchMnu@@UAEXPAVCDrObject@@@Z 100224e8     Spec_D32:Spec_D32.dll
 0002:000004ec       __imp_?GetPatchMnuInfo@CPatchMnu@@UAE?AVCString@@I@Z 100224ec     Spec_D32:Spec_D32.dll
 0002:000004f0       __imp_?GetNextObject@CDListMgr@@QAEPAVCObject@@AAPAU__POSITION@@@Z 100224f0     Spec_D32:Spec_D32.dll
 0002:000004f4       __imp_?GetPatchMnuIDArray@CPatchMnu@@UAEXQAVCString@@@Z 100224f4     Spec_D32:Spec_D32.dll
 0002:000004f8       __imp_?SetPatchMnuIDArray@CPatchMnu@@UAEXQAVCString@@@Z 100224f8     Spec_D32:Spec_D32.dll
 0002:000004fc       __imp_?GetPatchMnuArray@CPatchMnu@@UAEXQAY01I@Z 100224fc     Spec_D32:Spec_D32.dll
 0002:00000500       __imp_?SetPatchMnuArray@CPatchMnu@@UAEXQAY01I@Z 10022500     Spec_D32:Spec_D32.dll
 0002:00000504       __imp_?GetPatchMnuOldArray@CPatchMnu@@UAEXQAY01I@Z 10022504     Spec_D32:Spec_D32.dll
 0002:00000508       __imp_?SetPatchMnuOldArray@CPatchMnu@@UAEXQAY01I@Z 10022508     Spec_D32:Spec_D32.dll
 0002:0000050c       __imp_?GetPatchMnuDefaultArray@CPatchMnu@@UAEXQAY01I@Z 1002250c     Spec_D32:Spec_D32.dll
 0002:00000510       __imp_?SetPatchMnuDefaultArray@CPatchMnu@@UAEXQAY01I@Z 10022510     Spec_D32:Spec_D32.dll
 0002:00000514       __imp_?ReadDefaultPatchMnu@CPatchMnu@@UAEXXZ 10022514     Spec_D32:Spec_D32.dll
 0002:00000518       __imp_?InitPatchMnu@CPatchMnu@@UAEXXZ 10022518     Spec_D32:Spec_D32.dll
 0002:0000051c       __imp_?GetRuntimeClass@CLayer@@UBEPAUCRuntimeClass@@XZ 1002251c     Spec_D32:Spec_D32.dll
 0002:00000520       __imp_?Serialize@CLayer@@UAEXAAVCArchive@@@Z 10022520     Spec_D32:Spec_D32.dll
 0002:00000524       __imp_?DoDataView@CLayer@@UAEXPAVCDC@@H@Z 10022524     Spec_D32:Spec_D32.dll
 0002:00000528       __imp_?Pack_drPipe@CLayer@@UAEXPAVCString@@@Z 10022528     Spec_D32:Spec_D32.dll
 0002:0000052c       __imp_?GetObjectInfo@CLayer@@UAEXPAVCDrObject@@@Z 1002252c     Spec_D32:Spec_D32.dll
 0002:00000530       __imp_?SetObjectInfo@CLayer@@UAEXPAVCDrObject@@@Z 10022530     Spec_D32:Spec_D32.dll
 0002:00000534       __imp_?GetLayerInfo@CLayer@@UAE?AVCString@@I@Z 10022534     Spec_D32:Spec_D32.dll
 0002:00000538       __imp_?SetLayerInfo@CLayer@@UAEXII@Z 10022538     Spec_D32:Spec_D32.dll
 0002:0000053c       __imp_?GetLayerArray@CLayer@@UAEXQAY01I@Z 1002253c     Spec_D32:Spec_D32.dll
 0002:00000540       __imp_?SetLayerArray@CLayer@@UAEXQAY01I@Z 10022540     Spec_D32:Spec_D32.dll
 0002:00000544       __imp_?GetLayerOldArray@CLayer@@UAEXQAY01I@Z 10022544     Spec_D32:Spec_D32.dll
 0002:00000548       __imp_?SetLayerOldArray@CLayer@@UAEXQAY01I@Z 10022548     Spec_D32:Spec_D32.dll
 0002:0000054c       __imp_?GetLayerDefaultArray@CLayer@@UAEXQAY01I@Z 1002254c     Spec_D32:Spec_D32.dll
 0002:00000550       __imp_?SetLayerDefaultArray@CLayer@@UAEXQAY01I@Z 10022550     Spec_D32:Spec_D32.dll
 0002:00000554       __imp_?ReadDefaultLayer@CLayer@@UAEXXZ 10022554     Spec_D32:Spec_D32.dll
 0002:00000558       __imp_?InitLayer@CLayer@@UAEXXZ 10022558     Spec_D32:Spec_D32.dll
 0002:0000055c       __imp_?GetRuntimeClass@CHitNet@@UBEPAUCRuntimeClass@@XZ 1002255c     Spec_D32:Spec_D32.dll
 0002:00000560       __imp_?Serialize@CHitNet@@UAEXAAVCArchive@@@Z 10022560     Spec_D32:Spec_D32.dll
 0002:00000564       __imp_?DoDataView@CHitNet@@UAEXPAVCDC@@H@Z 10022564     Spec_D32:Spec_D32.dll
 0002:00000568       __imp_?Pack_drPipe@CHitNet@@UAEXPAVCString@@@Z 10022568     Spec_D32:Spec_D32.dll
 0002:0000056c       __imp_?GetObjectInfo@CHitNet@@UAEXPAVCDrObject@@@Z 1002256c     Spec_D32:Spec_D32.dll
 0002:00000570       __imp_?SetObjectInfo@CHitNet@@UAEXPAVCDrObject@@@Z 10022570     Spec_D32:Spec_D32.dll
 0002:00000574       __imp_?GetRuntimeClass@CDrPen@@UBEPAUCRuntimeClass@@XZ 10022574     Spec_D32:Spec_D32.dll
 0002:00000578       __imp_?Serialize@CDrPen@@UAEXAAVCArchive@@@Z 10022578     Spec_D32:Spec_D32.dll
 0002:0000057c       __imp_?DoDataView@CDrPen@@UAEXPAVCDC@@H@Z 1002257c     Spec_D32:Spec_D32.dll
 0002:00000580       __imp_?Pack_drPipe@CDrPen@@UAEXPAVCString@@@Z 10022580     Spec_D32:Spec_D32.dll
 0002:00000584       __imp_?GetObjectInfo@CDrPen@@UAEXPAVCDrObject@@@Z 10022584     Spec_D32:Spec_D32.dll
 0002:00000588       __imp_?SetObjectInfo@CDrPen@@UAEXPAVCDrObject@@@Z 10022588     Spec_D32:Spec_D32.dll
 0002:0000058c       __imp_?ReplacePen@CDrPen@@UAEXXZ 1002258c     Spec_D32:Spec_D32.dll
 0002:00000590       __imp_?ReadDefaultDrPen@CDrPen@@UAEXXZ 10022590     Spec_D32:Spec_D32.dll
 0002:00000594       __imp_?InitDrPen@CDrPen@@UAEXXZ 10022594     Spec_D32:Spec_D32.dll
 0002:00000598       __imp_?GetRuntimeClass@CDrFont@@UBEPAUCRuntimeClass@@XZ 10022598     Spec_D32:Spec_D32.dll
 0002:0000059c       __imp_?Serialize@CDrFont@@UAEXAAVCArchive@@@Z 1002259c     Spec_D32:Spec_D32.dll
 0002:000005a0       __imp_?DoDataView@CDrFont@@UAEXPAVCDC@@H@Z 100225a0     Spec_D32:Spec_D32.dll
 0002:000005a4       __imp_?Pack_drPipe@CDrFont@@UAEXPAVCString@@@Z 100225a4     Spec_D32:Spec_D32.dll
 0002:000005a8       __imp_?GetObjectInfo@CDrFont@@UAEXPAVCDrObject@@@Z 100225a8     Spec_D32:Spec_D32.dll
 0002:000005ac       __imp_?SetObjectInfo@CDrFont@@UAEXPAVCDrObject@@@Z 100225ac     Spec_D32:Spec_D32.dll
 0002:000005b0       __imp_?DoTextFont@CDrFont@@UAEXXZ 100225b0     Spec_D32:Spec_D32.dll
 0002:000005b4       __imp_?ReadDefaultDrFont@CDrFont@@UAEXXZ 100225b4     Spec_D32:Spec_D32.dll
 0002:000005b8       __imp_?InitDrFont@CDrFont@@UAEXXZ 100225b8     Spec_D32:Spec_D32.dll
 0002:000005bc       __imp_?GetRuntimeClass@CDataWindow@@UBEPAUCRuntimeClass@@XZ 100225bc     Spec_D32:Spec_D32.dll
 0002:000005c0       __imp_?Serialize@CDataWindow@@UAEXAAVCArchive@@@Z 100225c0     Spec_D32:Spec_D32.dll
 0002:000005c4       __imp_?DoDataView@CDataWindow@@UAEXPAVCDC@@H@Z 100225c4     Spec_D32:Spec_D32.dll
 0002:000005c8       __imp_?Pack_drPipe@CDataWindow@@UAEXPAVCString@@@Z 100225c8     Spec_D32:Spec_D32.dll
 0002:000005cc       __imp_?GetObjectInfo@CDataWindow@@UAEXPAVCDrObject@@@Z 100225cc     Spec_D32:Spec_D32.dll
 0002:000005d0       __imp_?SetObjectInfo@CDataWindow@@UAEXPAVCDrObject@@@Z 100225d0     Spec_D32:Spec_D32.dll
 0002:000005d4       __imp_?SetWinMinMaxWIC@CDataWindow@@UAEXULPOINT3@@@Z 100225d4     Spec_D32:Spec_D32.dll
 0002:000005d8       __imp_?SetWinExtWIC@CDataWindow@@UAEXXZ 100225d8     Spec_D32:Spec_D32.dll
 0002:000005dc       __imp_?ReadDefaultDataWindow@CDataWindow@@UAEXXZ 100225dc     Spec_D32:Spec_D32.dll
 0002:000005e0       __imp_?InitDataWindow@CDataWindow@@UAEXXZ 100225e0     Spec_D32:Spec_D32.dll
 0002:000005e4       __imp_?GetFirstObjectPos@CDListMgr@@QAEPAU__POSITION@@XZ 100225e4     Spec_D32:Spec_D32.dll
 0002:000005e8       __imp_?GetObjectA@CDListMgr@@QAEPAVCObject@@H@Z 100225e8     Spec_D32:Spec_D32.dll
 0002:000005ec       __imp_?ReplaceObject@CDListMgr@@QAEHHPAVCObject@@@Z 100225ec     Spec_D32:Spec_D32.dll
 0002:000005f0       __imp_?InsertObject@CDListMgr@@QAEHPAVCObject@@@Z 100225f0     Spec_D32:Spec_D32.dll
 0002:000005f4       __imp_?SetLocalCorner@CDrObject@@UAEXPAUWORLD@@H@Z 100225f4     Spec_D32:Spec_D32.dll
 0002:000005f8       __imp_?GetWorldCorner@CDrObject@@UAEXPAUWORLD@@H@Z 100225f8     Spec_D32:Spec_D32.dll
 0002:000005fc       __imp_?SetWorldCorner@CDrObject@@UAEXPAUWORLD@@H@Z 100225fc     Spec_D32:Spec_D32.dll
 0002:00000600       __imp_?GetEyeCorner@CDrObject@@UAEXPAUWORLD@@H@Z 10022600     Spec_D32:Spec_D32.dll
 0002:00000604       __imp_?SetEyeCorner@CDrObject@@UAEXPAUWORLD@@H@Z 10022604     Spec_D32:Spec_D32.dll
 0002:00000608       __imp_?GetScreen3DCorner@CDrObject@@UAEXPAUWORLD@@H@Z 10022608     Spec_D32:Spec_D32.dll
 0002:0000060c       __imp_?SetScreen3DCorner@CDrObject@@UAEXPAUWORLD@@H@Z 1002260c     Spec_D32:Spec_D32.dll
 0002:00000610       __imp_?Pack_drPipe@CBooleans@@UAEXPAVCString@@@Z 10022610     Spec_D32:Spec_D32.dll
 0002:00000614       __imp_?GetObjectInfo@CBooleans@@UAEXPAVCDrObject@@@Z 10022614     Spec_D32:Spec_D32.dll
 0002:00000618       __imp_?SetObjectInfo@CBooleans@@UAEXPAVCDrObject@@@Z 10022618     Spec_D32:Spec_D32.dll
 0002:0000061c       __imp_?IsZoomEnabled@CBooleans@@UAEHH@Z 1002261c     Spec_D32:Spec_D32.dll
 0002:00000620       __imp_?SetZoomEnabled@CBooleans@@UAEXHH@Z 10022620     Spec_D32:Spec_D32.dll
 0002:00000624       __imp_?IsZoomOn@CBooleans@@UAEHHH@Z 10022624     Spec_D32:Spec_D32.dll
 0002:00000628       __imp_?ToggleZoom@CBooleans@@UAEHHH@Z 10022628     Spec_D32:Spec_D32.dll
 0002:0000062c       __imp_?ReadDefaultBooleans@CBooleans@@UAEXXZ 1002262c     Spec_D32:Spec_D32.dll
 0002:00000630       __imp_?InitBooleans@CBooleans@@UAEXXZ 10022630     Spec_D32:Spec_D32.dll
 0002:00000634       __imp_?GetRuntimeClass@CMatObj@@UBEPAUCRuntimeClass@@XZ 10022634     Spec_D32:Spec_D32.dll
 0002:00000638       __imp_?GetLocalCorner@CDrObject@@UAEXPAUWORLD@@H@Z 10022638     Spec_D32:Spec_D32.dll
 0002:0000063c       __imp_??1CDrObject@@UAE@XZ 1002263c     Spec_D32:Spec_D32.dll
 0002:00000640       __imp_?GetRuntimeClass@CBooleans@@UBEPAUCRuntimeClass@@XZ 10022640     Spec_D32:Spec_D32.dll
 0002:00000644       __imp_?Serialize@CBooleans@@UAEXAAVCArchive@@@Z 10022644     Spec_D32:Spec_D32.dll
 0002:00000648       __imp_?DoDataView@CBooleans@@UAEXPAVCDC@@H@Z 10022648     Spec_D32:Spec_D32.dll
 0002:0000064c       __imp_?SetPatchMnuInfo@CPatchMnu@@UAEXII@Z 1002264c     Spec_D32:Spec_D32.dll
 0002:00000650       \177Spec_D32_NULL_THUNK_DATA 10022650     Spec_D32:Spec_D32.dll
 0002:00000654       __imp__GetSystemMetrics@4  10022654     user32:USER32.dll
 0002:00000658       \177USER32_NULL_THUNK_DATA 10022658     user32:USER32.dll
 0002:00000680       ?classCAxWire_0@CAxWire_0@@2UCRuntimeClass@@B 10022680     Ax_wire0.obj
 0002:00000698       ??_C@_09NIAF@CAxWire_0?$AA@ 10022698     Ax_wire0.obj
 0002:000006a8       ??_7C3DMath@@6B@           100226a8     Ax_wire0.obj
 0002:000006c0       ??_7CMatObj@@6B@           100226c0     Ax_wire0.obj
 0002:000007a0       ??_7CBooleans@@6B@         100227a0     Ax_wire0.obj
 0002:000009e4       ??_7CDataWindow@@6B@       100229e4     Ax_wire0.obj
 0002:00000b58       ??_7CDrFont@@6B@           10022b58     Ax_wire0.obj
 0002:00000ccc       ??_7CDrPen@@6B@            10022ccc     Ax_wire0.obj
 0002:00000ea0       ??_7CHitNet@@6B@           10022ea0     Ax_wire0.obj
 0002:00000ff4       ??_7CLayer@@6B@            10022ff4     Ax_wire0.obj
 0002:00001188       ??_7CPatchMnu@@6B@         10023188     Ax_wire0.obj
 0002:00001334       ??_7CObj3DMnu@@6B@         10023334     Ax_wire0.obj
 0002:000014e0       ??_7CMapFactor@@6B@        100234e0     Ax_wire0.obj
 0002:0000164c       ??_7CPrecision@@6B@        1002364c     Ax_wire0.obj
 0002:000017d8       ??_7CScaleFactor@@6B@      100237d8     Ax_wire0.obj
 0002:0000194c       ??_7CUnit@@6B@             1002394c     Ax_wire0.obj
 0002:00001acc       ??_7CElemInfo@@6B@         10023acc     Ax_wire0.obj
 0002:00001c2c       ??_7CDrLabel@@6B@          10023c2c     Ax_wire0.obj
 0002:00001dc8       ??_7CAxWire_0@@6B@         10023dc8     Ax_wire0.obj
 0002:00001df8       ?messageMap@CAxisDraw@@1UAFX_MSGMAP@@B 10023df8     Axisdraw.obj
 0002:00001e00       ?_messageEntries@CAxisDraw@@0QBUAFX_MSGMAP_ENTRY@@B 10023e00     Axisdraw.obj
 0002:00001e34       ??_7CAxis@@6B@             10023e34     Axisdraw.obj
 0002:00001e54       ??_7CAxisDraw@@6B@         10023e54     Axisdraw.obj
 0002:00001f18       ?classCColorPal@CColorPal@@2UCRuntimeClass@@B 10023f18     Colorpal.obj
 0002:00001f30       ??_C@_09KDCF@CColorPal?$AA@ 10023f30     Colorpal.obj
 0002:00001f40       ??_7CColorPal@@6B@         10023f40     Colorpal.obj
 0002:00001f70       __real@8@4007b400000000000000 10023f70     Colorpal.obj
 0002:00001f78       __real@8@4004f000000000000000 10023f78     Colorpal.obj
 0002:00001f80       __real@8@40018000000000000000 10023f80     Colorpal.obj
 0002:00001f88       __real@8@40008000000000000000 10023f88     Colorpal.obj
 0002:00001f90       __real@8@00000000000000000000 10023f90     Colorpal.obj
 0002:00001f98       __real@8@3fff8000000000000000 10023f98     Colorpal.obj
 0002:00001fa0       __real@8@bfff8000000000000000 10023fa0     Colorpal.obj
 0002:00001fa8       __real@8@3ff9f83e0f83e0f84000 10023fa8     Colorpal.obj
 0002:00001fb0       __real@8@40048400000000000000 10023fb0     Colorpal.obj
 0002:00001fb8       __real@8@4006ff00000000000000 10023fb8     Colorpal.obj
 0002:00001fc0       __real@8@3ffe8000000000000000 10023fc0     Colorpal.obj
 0002:00001fc8       __real@4@3fff8000000000000000 10023fc8     Colorpal.obj
 0002:00001fcc       ??_C@_08DBAA@STOCKPAL?$AA@ 10023fcc     Colorpal.obj
 0002:00001fd8       ??_C@_0BG@LFDF@resource?5string?5?$DN?5?$CFs?6?$AA@ 10023fd8     Colorpal.obj
 0002:00001ff0       ?classCAxis@CAxis@@2UCRuntimeClass@@B 10023ff0     Draxis.obj
 0002:00002008       ??_C@_05JDKM@CAxis?$AA@    10024008     Draxis.obj
 0002:00002010       __real@8@4000c000000000000000 10024010     Draxis.obj
 0002:00002018       ??_C@_01NCG@Z?$AA@         10024018     Draxis.obj
 0002:0000201c       ??_C@_01PCJP@Y?$AA@        1002401c     Draxis.obj
 0002:00002020       ??_C@_01FIAI@X?$AA@        10024020     Draxis.obj
 0002:00002028       ?classCLight@CLight@@2UCRuntimeClass@@B 10024028     Light.obj
 0002:00002040       ??_C@_06OILG@CLight?$AA@   10024040     Light.obj
 0002:0000204c       ??_7CXForm@@6B@            1002404c     Light.obj
 0002:000020e0       ??_7CLight@@6B@            100240e0     Light.obj
 0002:0000210c       ??_C@_07FOME@CRender?$AA@  1002410c     Render.obj
 0002:00002118       ??_7CRender@@6B@           10024118     Render.obj
 0002:000021b8       ??_7CTextures@@6B@         100241b8     Render.obj
 0002:00002230       __real@8@4002a000000000000000 10024230     Render.obj
 0002:00002238       __real@8@40088000000000000000 10024238     Render.obj
 0002:00002240       __real@8@3ff78080c3dfbe411800 10024240     Render.obj
 0002:00002248       ??_C@_0BF@KNGA@?5Render?3?5?5?5?5Loading?6?$AA@ 10024248     Render.obj
 0002:00002260       ??_C@_0BF@GKDG@?5Render?3?5?5?5?5Storing?6?$AA@ 10024260     Render.obj
 0002:00002278       ?classCWire_0@CWire_0@@2UCRuntimeClass@@B 10024278     Rn_wire0.obj
 0002:00002290       ??_C@_07HDKA@CWire_0?$AA@  10024290     Rn_wire0.obj
 0002:0000229c       ??_7CWire_0@@6B@           1002429c     Rn_wire0.obj
 0002:00002338       ?classCWire_1@CWire_1@@2UCRuntimeClass@@B 10024338     Rn_wire1.obj
 0002:00002350       ??_C@_07NJDH@CWire_1?$AA@  10024350     Rn_wire1.obj
 0002:0000235c       ??_7CTriangle@@6B@         1002435c     Rn_wire1.obj
 0002:000023dc       ??_7CWire_1@@6B@           100243dc     Rn_wire1.obj
 0002:000024b0       ??_7?$CList@HH@@6B@        100244b0     Rn_wire1.obj
 0002:000024c4       ??_C@_01BJG@?6?$AA@        100244c4     Rn_wire1.obj
 0002:000024c8       ??_C@_05KIFI@with?5?$AA@   100244c8     Rn_wire1.obj
 0002:000024d0       ??_C@_09LOPF@?5elements?$AA@ 100244d0     Rn_wire1.obj
 0002:000024e0       ?classCWire_2@CWire_2@@2UCRuntimeClass@@B 100244e0     Rn_wire2.obj
 0002:000024f8       ??_C@_07CGIO@CWire_2?$AA@  100244f8     Rn_wire2.obj
 0002:00002504       ??_7CWire_2@@6B@           10024504     Rn_wire2.obj
 0002:000025c0       ??_C@_09PBNA@CTextures?$AA@ 100245c0     Textures.obj
 0002:000025d0       __real@8@400c9c40000000000000 100245d0     Textures.obj
 0002:000025d8       __real@8@400dfffe000000000000 100245d8     Textures.obj
 0002:000025e0       __real@8@3ff1d1b71758e2196800 100245e0     Textures.obj
 0002:000025e8       __real@8@40069600000000000000 100245e8     Textures.obj
 0002:000025f0       __real@8@4003a000000000000000 100245f0     Textures.obj
 0002:000025f8       __real@8@3ffd99999a0000000000 100245f8     Textures.obj
 0002:00002600       __real@8@3ffc9d89dbb6749bb000 10024600     Textures.obj
 0002:00002608       __real@4@4002a800000000000000 10024608     Textures.obj
 0002:00002610       __real@8@3ffaf0f0f10000000000 10024610     Textures.obj
 0002:00002618       __real@8@3ffcccccccccccccd000 10024618     Textures.obj
 0002:00002620       __real@8@4001e000000000000000 10024620     Textures.obj
 0002:00002628       __real@8@3ff9a3d70a3d70a3d800 10024628     Textures.obj
 0002:00002630       __real@8@3ff583126e978d4fe000 10024630     Textures.obj
 0002:00002638       __real@8@3fe189705f4136b4a800 10024638     Textures.obj
 0002:00002640       ??_C@_0BH@BKCM@?5Textures?3?5?5?5?5Loading?6?$AA@ 10024640     Textures.obj
 0002:00002658       ??_C@_0BH@NNHK@?5Textures?3?5?5?5?5Storing?6?$AA@ 10024658     Textures.obj
 0002:00002670       ??_C@_0BH@IEKN@View?4DLL?5Terminating?$CB?6?$AA@ 10024670     Viewdll.obj
 0002:00002688       ??_C@_02DILL@?$CFs?$AA@    10024688     Viewdll.obj
 0002:0000268c       ??_C@_0BI@CJBP@View?4DLL?5Initializing?$CB?6?$AA@ 1002468c     Viewdll.obj
 0002:000026a8       ?messageMap@CViewInfo@@1UAFX_MSGMAP@@B 100246a8     Viewinfo.obj
 0002:000026b0       ?_messageEntries@CViewInfo@@0QBUAFX_MSGMAP_ENTRY@@B 100246b0     Viewinfo.obj
 0002:00002728       ??_C@_08OKPH@Image2Up?$AA@ 10024728     Viewinfo.obj
 0002:00002734       ??_C@_0L@KCBH@Image2Down?$AA@ 10024734     Viewinfo.obj
 0002:00002740       ??_C@_0M@DMDD@Image2Focus?$AA@ 10024740     Viewinfo.obj
 0002:0000274c       ??_C@_08BMMM@Image1Up?$AA@ 1002474c     Viewinfo.obj
 0002:00002758       ??_C@_0L@ECHI@Image1Down?$AA@ 10024758     Viewinfo.obj
 0002:00002764       ??_C@_0M@ICND@Image1Focus?$AA@ 10024764     Viewinfo.obj
 0002:00002774       ??_7CViewInfo@@6B@         10024774     Viewinfo.obj
 0002:0000284c       ??_C@_08OIJK@CZBuffer?$AA@ 1002484c     Zbuffer.obj
 0002:0000285c       ??_7CZBuffer@@6B@          1002485c     Zbuffer.obj
 0002:000028a8       __real@8@c0008000000000000000 100248a8     Zbuffer.obj
 0002:000028b0       ??_C@_0BG@NOCD@?5ZBuffer?3?5?5?5?5Loading?6?$AA@ 100248b0     Zbuffer.obj
 0002:000028c8       ??_C@_0BG@BJHF@?5ZBuffer?3?5?5?5?5Storing?6?$AA@ 100248c8     Zbuffer.obj
 0002:000028e0       _IID_IDocHostUIHandlerDispatch 100248e0     mfcs42d:stdafx.obj
 0002:000028f0       _IID_IInternalConnection   100248f0     mfcs42d:stdafx.obj
 0002:00002900       _IID_IAxWinAmbientDispatch 10024900     mfcs42d:stdafx.obj
 0002:00002910       _IID_IAxWinHostWindow      10024910     mfcs42d:stdafx.obj
 0002:00002920       _IID_IRegistrar            10024920     mfcs42d:stdafx.obj
 0002:00002930       _CLSID_Registrar           10024930     mfcs42d:stdafx.obj
 0002:00002940       _LIBID_ATLLib              10024940     mfcs42d:stdafx.obj
 0002:00002954       ??_7type_info@@6B@         10024954     msvcrtd:ti_inst.obj
 0002:00002974       ??_C@_08JKC@crtdll?4c?$AA@ 10024974     msvcrtd:crtdll.obj
 0002:00002980       ??_R1A@?0A@A@CObject@@8    10024980     Ax_wire0.obj
 0002:00002998       ??_R1A@?0A@A@C3DMath@@8    10024998     Ax_wire0.obj
 0002:000029b0       ??_R2C3DMath@@8            100249b0     Ax_wire0.obj
 0002:000029c0       ??_R3C3DMath@@8            100249c0     Ax_wire0.obj
 0002:000029d0       ??_R4C3DMath@@6B@          100249d0     Ax_wire0.obj
 0002:000029e8       ??_R1A@?0A@A@CMatObj@@8    100249e8     Ax_wire0.obj
 0002:00002a00       ??_R2CMatObj@@8            10024a00     Ax_wire0.obj
 0002:00002a10       ??_R3CMatObj@@8            10024a10     Ax_wire0.obj
 0002:00002a20       ??_R4CMatObj@@6B@          10024a20     Ax_wire0.obj
 0002:00002a38       ??_R1A@?0A@A@CDrObject@@8  10024a38     Ax_wire0.obj
 0002:00002a50       ??_R1A@?0A@A@CBooleans@@8  10024a50     Ax_wire0.obj
 0002:00002a68       ??_R2CBooleans@@8          10024a68     Ax_wire0.obj
 0002:00002a78       ??_R3CBooleans@@8          10024a78     Ax_wire0.obj
 0002:00002a88       ??_R4CBooleans@@6B@        10024a88     Ax_wire0.obj
 0002:00002aa0       ??_R1A@?0A@A@CDataWindow@@8 10024aa0     Ax_wire0.obj
 0002:00002ab8       ??_R2CDataWindow@@8        10024ab8     Ax_wire0.obj
 0002:00002ac8       ??_R3CDataWindow@@8        10024ac8     Ax_wire0.obj
 0002:00002ad8       ??_R4CDataWindow@@6B@      10024ad8     Ax_wire0.obj
 0002:00002af0       ??_R1A@?0A@A@CDrFont@@8    10024af0     Ax_wire0.obj
 0002:00002b08       ??_R2CDrFont@@8            10024b08     Ax_wire0.obj
 0002:00002b18       ??_R3CDrFont@@8            10024b18     Ax_wire0.obj
 0002:00002b28       ??_R4CDrFont@@6B@          10024b28     Ax_wire0.obj
 0002:00002b40       ??_R1A@?0A@A@CDrPen@@8     10024b40     Ax_wire0.obj
 0002:00002b58       ??_R2CDrPen@@8             10024b58     Ax_wire0.obj
 0002:00002b68       ??_R3CDrPen@@8             10024b68     Ax_wire0.obj
 0002:00002b78       ??_R4CDrPen@@6B@           10024b78     Ax_wire0.obj
 0002:00002b90       ??_R1A@?0A@A@CHitNet@@8    10024b90     Ax_wire0.obj
 0002:00002ba8       ??_R2CHitNet@@8            10024ba8     Ax_wire0.obj
 0002:00002bb8       ??_R3CHitNet@@8            10024bb8     Ax_wire0.obj
 0002:00002bc8       ??_R4CHitNet@@6B@          10024bc8     Ax_wire0.obj
 0002:00002be0       ??_R1A@?0A@A@CLayer@@8     10024be0     Ax_wire0.obj
 0002:00002bf8       ??_R2CLayer@@8             10024bf8     Ax_wire0.obj
 0002:00002c08       ??_R3CLayer@@8             10024c08     Ax_wire0.obj
 0002:00002c18       ??_R4CLayer@@6B@           10024c18     Ax_wire0.obj
 0002:00002c30       ??_R1A@?0A@A@CPatchMnu@@8  10024c30     Ax_wire0.obj
 0002:00002c48       ??_R2CPatchMnu@@8          10024c48     Ax_wire0.obj
 0002:00002c58       ??_R3CPatchMnu@@8          10024c58     Ax_wire0.obj
 0002:00002c68       ??_R4CPatchMnu@@6B@        10024c68     Ax_wire0.obj
 0002:00002c80       ??_R1A@?0A@A@CObj3DMnu@@8  10024c80     Ax_wire0.obj
 0002:00002c98       ??_R2CObj3DMnu@@8          10024c98     Ax_wire0.obj
 0002:00002ca8       ??_R3CObj3DMnu@@8          10024ca8     Ax_wire0.obj
 0002:00002cb8       ??_R4CObj3DMnu@@6B@        10024cb8     Ax_wire0.obj
 0002:00002cd0       ??_R1A@?0A@A@CMapFactor@@8 10024cd0     Ax_wire0.obj
 0002:00002ce8       ??_R2CMapFactor@@8         10024ce8     Ax_wire0.obj
 0002:00002cf8       ??_R3CMapFactor@@8         10024cf8     Ax_wire0.obj
 0002:00002d08       ??_R4CMapFactor@@6B@       10024d08     Ax_wire0.obj
 0002:00002d20       ??_R1A@?0A@A@CPrecision@@8 10024d20     Ax_wire0.obj
 0002:00002d38       ??_R2CPrecision@@8         10024d38     Ax_wire0.obj
 0002:00002d48       ??_R3CPrecision@@8         10024d48     Ax_wire0.obj
 0002:00002d58       ??_R4CPrecision@@6B@       10024d58     Ax_wire0.obj
 0002:00002d70       ??_R1A@?0A@A@CScaleFactor@@8 10024d70     Ax_wire0.obj
 0002:00002d88       ??_R2CScaleFactor@@8       10024d88     Ax_wire0.obj
 0002:00002d98       ??_R3CScaleFactor@@8       10024d98     Ax_wire0.obj
 0002:00002da8       ??_R4CScaleFactor@@6B@     10024da8     Ax_wire0.obj
 0002:00002dc0       ??_R1A@?0A@A@CUnit@@8      10024dc0     Ax_wire0.obj
 0002:00002dd8       ??_R2CUnit@@8              10024dd8     Ax_wire0.obj
 0002:00002de8       ??_R3CUnit@@8              10024de8     Ax_wire0.obj
 0002:00002df8       ??_R4CUnit@@6B@            10024df8     Ax_wire0.obj
 0002:00002e10       ??_R1A@?0A@A@CElemInfo@@8  10024e10     Ax_wire0.obj
 0002:00002e28       ??_R2CElemInfo@@8          10024e28     Ax_wire0.obj
 0002:00002e38       ??_R3CElemInfo@@8          10024e38     Ax_wire0.obj
 0002:00002e48       ??_R4CElemInfo@@6B@        10024e48     Ax_wire0.obj
 0002:00002e60       ??_R1A@?0A@A@CDrLabel@@8   10024e60     Ax_wire0.obj
 0002:00002e78       ??_R2CDrLabel@@8           10024e78     Ax_wire0.obj
 0002:00002e88       ??_R3CDrLabel@@8           10024e88     Ax_wire0.obj
 0002:00002e98       ??_R4CDrLabel@@6B@         10024e98     Ax_wire0.obj
 0002:00002eb0       ??_R1A@?0A@A@CAxWire_0@@8  10024eb0     Ax_wire0.obj
 0002:00002ec8       ??_R2CAxWire_0@@8          10024ec8     Ax_wire0.obj
 0002:00002ed8       ??_R3CAxWire_0@@8          10024ed8     Ax_wire0.obj
 0002:00002ee8       ??_R4CAxWire_0@@6B@        10024ee8     Ax_wire0.obj
 0002:00002f00       ??_R1A@?0A@A@CAxis@@8      10024f00     Axisdraw.obj
 0002:00002f18       ??_R2CAxis@@8              10024f18     Axisdraw.obj
 0002:00002f28       ??_R3CAxis@@8              10024f28     Axisdraw.obj
 0002:00002f38       ??_R4CAxis@@6B@            10024f38     Axisdraw.obj
 0002:00002f50       ??_R1A@?0A@A@CCmdTarget@@8 10024f50     Axisdraw.obj
 0002:00002f68       ??_R1A@?0A@A@CWnd@@8       10024f68     Axisdraw.obj
 0002:00002f80       ??_R1A@?0A@A@CAxisDraw@@8  10024f80     Axisdraw.obj
 0002:00002f98       ??_R2CAxisDraw@@8          10024f98     Axisdraw.obj
 0002:00002fb0       ??_R3CAxisDraw@@8          10024fb0     Axisdraw.obj
 0002:00002fc0       ??_R4CAxisDraw@@6B@        10024fc0     Axisdraw.obj
 0002:00002fd8       ??_R1A@?0A@A@CGdiObject@@8 10024fd8     Colorpal.obj
 0002:00002ff0       ??_R1A@?0A@A@CPalette@@8   10024ff0     Colorpal.obj
 0002:00003008       ??_R1A@?0A@A@CColorPal@@8  10025008     Colorpal.obj
 0002:00003020       ??_R2CColorPal@@8          10025020     Colorpal.obj
 0002:00003038       ??_R3CColorPal@@8          10025038     Colorpal.obj
 0002:00003048       ??_R4CColorPal@@6B@        10025048     Colorpal.obj
 0002:00003060       ??_R1A@?0A@A@CXForm@@8     10025060     Light.obj
 0002:00003078       ??_R2CXForm@@8             10025078     Light.obj
 0002:00003088       ??_R3CXForm@@8             10025088     Light.obj
 0002:00003098       ??_R4CXForm@@6B@           10025098     Light.obj
 0002:000030b0       ??_R1A@?0A@A@CLight@@8     100250b0     Light.obj
 0002:000030c8       ??_R2CLight@@8             100250c8     Light.obj
 0002:000030d8       ??_R3CLight@@8             100250d8     Light.obj
 0002:000030e8       ??_R4CLight@@6B@           100250e8     Light.obj
 0002:00003100       ??_R1A@?0A@A@CRender@@8    10025100     Render.obj
 0002:00003118       ??_R2CRender@@8            10025118     Render.obj
 0002:00003128       ??_R3CRender@@8            10025128     Render.obj
 0002:00003138       ??_R4CRender@@6B@          10025138     Render.obj
 0002:00003150       ??_R1A@?0A@A@CTextures@@8  10025150     Render.obj
 0002:00003168       ??_R2CTextures@@8          10025168     Render.obj
 0002:00003178       ??_R3CTextures@@8          10025178     Render.obj
 0002:00003188       ??_R4CTextures@@6B@        10025188     Render.obj
 0002:000031a0       ??_R1A@?0A@A@CWire_0@@8    100251a0     Rn_wire0.obj
 0002:000031b8       ??_R2CWire_0@@8            100251b8     Rn_wire0.obj
 0002:000031c8       ??_R3CWire_0@@8            100251c8     Rn_wire0.obj
 0002:000031d8       ??_R4CWire_0@@6B@          100251d8     Rn_wire0.obj
 0002:000031f0       ??_R1A@?0A@A@CTriangle@@8  100251f0     Rn_wire1.obj
 0002:00003208       ??_R2CTriangle@@8          10025208     Rn_wire1.obj
 0002:00003218       ??_R3CTriangle@@8          10025218     Rn_wire1.obj
 0002:00003228       ??_R4CTriangle@@6B@        10025228     Rn_wire1.obj
 0002:00003240       ??_R1A@?0A@A@CWire_1@@8    10025240     Rn_wire1.obj
 0002:00003258       ??_R2CWire_1@@8            10025258     Rn_wire1.obj
 0002:00003268       ??_R3CWire_1@@8            10025268     Rn_wire1.obj
 0002:00003278       ??_R4CWire_1@@6B@          10025278     Rn_wire1.obj
 0002:00003290       ??_R1A@?0A@A@?$CList@HH@@8 10025290     Rn_wire1.obj
 0002:000032a8       ??_R2?$CList@HH@@8         100252a8     Rn_wire1.obj
 0002:000032b8       ??_R3?$CList@HH@@8         100252b8     Rn_wire1.obj
 0002:000032c8       ??_R4?$CList@HH@@6B@       100252c8     Rn_wire1.obj
 0002:000032e0       ??_R1A@?0A@A@CWire_2@@8    100252e0     Rn_wire2.obj
 0002:000032f8       ??_R2CWire_2@@8            100252f8     Rn_wire2.obj
 0002:00003308       ??_R3CWire_2@@8            10025308     Rn_wire2.obj
 0002:00003318       ??_R4CWire_2@@6B@          10025318     Rn_wire2.obj
 0002:00003330       ??_R1A@?0A@A@CDialog@@8    10025330     Viewinfo.obj
 0002:00003348       ??_R1A@?0A@A@CViewInfo@@8  10025348     Viewinfo.obj
 0002:00003360       ??_R2CViewInfo@@8          10025360     Viewinfo.obj
 0002:00003378       ??_R3CViewInfo@@8          10025378     Viewinfo.obj
 0002:00003388       ??_R4CViewInfo@@6B@        10025388     Viewinfo.obj
 0002:000033a0       ??_R1A@?0A@A@CZBuffer@@8   100253a0     Zbuffer.obj
 0002:000033b8       ??_R2CZBuffer@@8           100253b8     Zbuffer.obj
 0002:000033c8       ??_R3CZBuffer@@8           100253c8     Zbuffer.obj
 0002:000033d8       ??_R4CZBuffer@@6B@         100253d8     Zbuffer.obj
 0002:000033f0       ??_R1A@?0A@A@type_info@@8  100253f0     msvcrtd:ti_inst.obj
 0002:00003408       ??_R2type_info@@8          10025408     msvcrtd:ti_inst.obj
 0002:00003410       ??_R3type_info@@8          10025410     msvcrtd:ti_inst.obj
 0002:00003420       ??_R4type_info@@6B@        10025420     msvcrtd:ti_inst.obj
 0002:00004008       __IMPORT_DESCRIPTOR_Dr3D_D32 10026008     Dr3D_D32:Dr3D_D32.dll
 0002:0000401c       __IMPORT_DESCRIPTOR_Spec_D32 1002601c     Spec_D32:Spec_D32.dll
 0002:00004030       __IMPORT_DESCRIPTOR_Elem_D32 10026030     Elem_D32:Elem_D32.dll
 0002:00004044       __IMPORT_DESCRIPTOR_Draw_D32 10026044     Draw_D32:Draw_D32.dll
 0002:00004058       __IMPORT_DESCRIPTOR_OGEN_D32 10026058     OGen_D32:OGEN_D32.dll
 0002:0000406c       __IMPORT_DESCRIPTOR_OMgr_D32 1002606c     OMgr_d32:OMgr_D32.dll
 0002:00004080       __IMPORT_DESCRIPTOR_MFC42D 10026080     mfc42d:MFC42D.DLL
 0002:00004094       __IMPORT_DESCRIPTOR_MSVCRTD 10026094     msvcrtd:MSVCRTD.dll
 0002:000040a8       __IMPORT_DESCRIPTOR_KERNEL32 100260a8     kernel32:KERNEL32.dll
 0002:000040bc       __IMPORT_DESCRIPTOR_USER32 100260bc     user32:USER32.dll
 0002:000040d0       __NULL_IMPORT_DESCRIPTOR   100260d0     Dr3D_D32:Dr3D_D32.dll
 0003:00000000       ___xc_a                    1003c000     msvcrtd:cinitexe.obj
 0003:00000010       ___xc_z                    1003c010     msvcrtd:cinitexe.obj
 0003:00000014       ___xi_a                    1003c014     msvcrtd:cinitexe.obj
 0003:00000018       ___xi_z                    1003c018     msvcrtd:cinitexe.obj
 0003:00000050       ??_R0?AVCObject@@@8        1003c050     Ax_wire0.obj
 0003:00000068       ??_R0?AVC3DMath@@@8        1003c068     Ax_wire0.obj
 0003:00000080       ??_R0?AVCMatObj@@@8        1003c080     Ax_wire0.obj
 0003:00000098       ??_R0?AVCDrObject@@@8      1003c098     Ax_wire0.obj
 0003:000000b0       ??_R0?AVCBooleans@@@8      1003c0b0     Ax_wire0.obj
 0003:000000c8       ??_R0?AVCDataWindow@@@8    1003c0c8     Ax_wire0.obj
 0003:000000e8       ??_R0?AVCDrFont@@@8        1003c0e8     Ax_wire0.obj
 0003:00000100       ??_R0?AVCDrPen@@@8         1003c100     Ax_wire0.obj
 0003:00000118       ??_R0?AVCHitNet@@@8        1003c118     Ax_wire0.obj
 0003:00000130       ??_R0?AVCLayer@@@8         1003c130     Ax_wire0.obj
 0003:00000148       ??_R0?AVCPatchMnu@@@8      1003c148     Ax_wire0.obj
 0003:00000160       ??_R0?AVCObj3DMnu@@@8      1003c160     Ax_wire0.obj
 0003:00000178       ??_R0?AVCMapFactor@@@8     1003c178     Ax_wire0.obj
 0003:00000198       ??_R0?AVCPrecision@@@8     1003c198     Ax_wire0.obj
 0003:000001b8       ??_R0?AVCScaleFactor@@@8   1003c1b8     Ax_wire0.obj
 0003:000001d8       ??_R0?AVCUnit@@@8          1003c1d8     Ax_wire0.obj
 0003:000001f0       ??_R0?AVCElemInfo@@@8      1003c1f0     Ax_wire0.obj
 0003:00000208       ??_R0?AVCDrLabel@@@8       1003c208     Ax_wire0.obj
 0003:00000220       ??_R0?AVCAxWire_0@@@8      1003c220     Ax_wire0.obj
 0003:00000258       ??_R0?AVCAxis@@@8          1003c258     Axisdraw.obj
 0003:00000270       ??_R0?AVCCmdTarget@@@8     1003c270     Axisdraw.obj
 0003:00000290       ??_R0?AVCWnd@@@8           1003c290     Axisdraw.obj
 0003:000002a8       ??_R0?AVCAxisDraw@@@8      1003c2a8     Axisdraw.obj
 0003:000002c0       ??_R0?AVCGdiObject@@@8     1003c2c0     Colorpal.obj
 0003:000002e0       ??_R0?AVCPalette@@@8       1003c2e0     Colorpal.obj
 0003:000002f8       ??_R0?AVCColorPal@@@8      1003c2f8     Colorpal.obj
 0003:00000330       ??_R0?AVCXForm@@@8         1003c330     Light.obj
 0003:00000348       ??_R0?AVCLight@@@8         1003c348     Light.obj
 0003:00000390       ?classCRender@CRender@@2UCRuntimeClass@@A 1003c390     Render.obj
 0003:000003a8       ??_R0?AVCRender@@@8        1003c3a8     Render.obj
 0003:000003c0       ??_R0?AVCTextures@@@8      1003c3c0     Render.obj
 0003:00000408       ??_R0?AVCWire_0@@@8        1003c408     Rn_wire0.obj
 0003:00000450       ??_R0?AVCTriangle@@@8      1003c450     Rn_wire1.obj
 0003:00000468       ??_R0?AVCWire_1@@@8        1003c468     Rn_wire1.obj
 0003:00000480       ??_R0?AV?$CList@HH@@@8     1003c480     Rn_wire1.obj
 0003:000004c8       ??_R0?AVCWire_2@@@8        1003c4c8     Rn_wire2.obj
 0003:000004e0       ?classCTextures@CTextures@@2UCRuntimeClass@@A 1003c4e0     Textures.obj
 0003:00000518       __pRawDllMain              1003c518     Viewdll.obj
 0003:00000540       ??_R0?AVCDialog@@@8        1003c540     Viewinfo.obj
 0003:00000558       ??_R0?AVCViewInfo@@@8      1003c558     Viewinfo.obj
 0003:00000570       ?classCZBuffer@CZBuffer@@2UCRuntimeClass@@A 1003c570     Zbuffer.obj
 0003:00000588       ??_R0?AVCZBuffer@@@8       1003c588     Zbuffer.obj
 0003:000005a0       ?GUID_ATLVer30@ATL@@3U_GUID@@A 1003c5a0     mfcs42d:stdafx.obj
 0003:000005b0       ??_R0?AVtype_info@@@8      1003c5b0     msvcrtd:ti_inst.obj
 0003:000005d0       ?accretingPalettes@@3HA    1003c5d0     Colorpal.obj
 0003:000005d4       ?nAPE@@3JA                 1003c5d4     Colorpal.obj
 0003:000005d8       ?pAPE@@3PAUtACRPALENTRY@@A 1003c5d8     Colorpal.obj
 0003:000005dc       ?MAXH@@3FA                 1003c5dc     Render.obj
 0003:000005de       ?MAXV@@3FA                 1003c5de     Render.obj
 0003:000005e0       ?MINH@@3FA                 1003c5e0     Render.obj
 0003:000005e2       ?MINV@@3FA                 1003c5e2     Render.obj
 0003:000005e4       ?_init_CRender@@3UAFX_CLASSINIT@@A 1003c5e4     Render.obj
 0003:000005e8       ?_init_CTextures@@3UAFX_CLASSINIT@@A 1003c5e8     Textures.obj
 0003:000005f0       __afxForceEXTDLL           1003c5f0     Viewdll.obj
 0003:000005f8       ?extensionView_DLL@@3UAFX_EXTENSION_MODULE@@A 1003c5f8     Viewdll.obj
 0003:0000060c       ?_init_CZBuffer@@3UAFX_CLASSINIT@@A 1003c60c     Zbuffer.obj
 0003:00000610       __afxForceEXCLUDE          1003c610     mfcs42d:nolib.obj
 0003:00000614       ?ATL_CREATE_OBJECT@CComApartment@ATL@@2IA 1003c614     mfcs42d:stdafx.obj
 0003:00000618       ?m_libid@CComModule@ATL@@2U_GUID@@A 1003c618     mfcs42d:stdafx.obj
 0003:00000628       ?_pModule@ATL@@3PAVCComModule@1@A 1003c628     mfcs42d:stdafx.obj
 0003:0000062c       __afxForceSTDAFX           1003c62c     mfcs42d:stdafx.obj
 0003:00000634       __adjust_fdiv              1003c634     <common>
 0003:00000638       ___onexitend               1003c638     <common>
 0003:0000063c       ___onexitbegin             1003c63c     <common>

 entry point at        0001:0001fb50

 Static symbols

 0001:0001e8b0       _$E195                     1001f8b0 f   Zbuffer.obj
 0001:0001e8d0       _$E194                     1001f8d0 f   Zbuffer.obj
 0001:0001c040       _$E197                     1001d040 f   Textures.obj
 0001:0001c060       _$E196                     1001d060 f   Textures.obj
 0001:0000cbb0       _$E306                     1000dbb0 f   Render.obj
 0001:0000cbd0       _$E305                     1000dbd0 f   Render.obj
 0001:0001f9e0       _$$$00001                  100209e0 f   msvcrtd:chkstk.obj
 0001:0001f9ec       probepages                 100209ec f   msvcrtd:chkstk.obj
 0001:0001fa00       lastpage                   10020a00 f   msvcrtd:chkstk.obj
 0001:0001f990       ?ArrayUnwindFilter@@YAHPAU_EXCEPTION_POINTERS@@@Z 10020990 f   msvcrtd:ehvecdtr.obj
