 Dbox_d32

 Timestamp is 444d7e73 (Mon Apr 24 18:42:11 2006)

 Preferred load address is 10000000

 Start         Length     Name                   Class
 0001:00000000 00017800H .text                   CODE
 0001:00017800 00000019H .text$AFX_COL1          CODE
 0001:00017820 000023b3H .text$AFX_CORE3         CODE
 0001:00019be0 000008f8H .text$AFX_INIT          CODE
 0001:0001a4e0 00000df5H .text$x                 CODE
 0002:00000000 00000690H .idata$5                DATA
 0002:00000690 00002fedH .rdata                  DATA
 0002:00003680 000010c8H .xdata$x                DATA
 0002:00004748 000000dcH .idata$2                DATA
 0002:00004824 00000014H .idata$3                DATA
 0002:00004838 00000690H .idata$4                DATA
 0002:00004ec8 000020bcH .idata$6                DATA
 0002:00006f90 00011dc7H .edata                  DATA
 0003:00000000 00000004H .CRT$XCA                DATA
 0003:00000004 00000008H .CRT$XCU                DATA
 0003:0000000c 00000004H .CRT$XCZ                DATA
 0003:00000010 00000004H .CRT$XIA                DATA
 0003:00000014 00000004H .CRT$XIZ                DATA
 0003:00000020 00000860H .data                   DATA
 0003:00000880 000000d0H .bss                    DATA
 0004:00000000 00000160H .rsrc$01                DATA
 0004:00000160 00006870H .rsrc$02                DATA

  Address         Publics by Value              Rva+Base     Lib:Object

 0001:00000000       ?GetProbLim@CMouse@@QAE?AW4PROBDIMLIM@@XZ 10001000 f i BoxWnd.obj
 0001:00000020       ?SetProbLim@CMouse@@QAEXW4PROBDIMLIM@@@Z 10001020 f i BoxWnd.obj
 0001:00000040       ?GetElemLim@CMouse@@QAE?AW4ELEMDIMLIM@@XZ 10001040 f i BoxWnd.obj
 0001:00000060       ?SetElemLim@CMouse@@QAEXW4ELEMDIMLIM@@@Z 10001060 f i BoxWnd.obj
 0001:00000080       ?GetCurrentThirdCoord@CMouse@@QAENXZ 10001080 f i BoxWnd.obj
 0001:000000a0       ?SetCurrentThirdCoord@CMouse@@QAEXN@Z 100010a0 f i BoxWnd.obj
 0001:000000d0       ?GetMouseWIC@CMouse@@QAE?AULPOINT3@@XZ 100010d0 f i BoxWnd.obj
 0001:00000110       ?GetMouseOldWIC@CMouse@@QAE?AULPOINT3@@XZ 10001110 f i BoxWnd.obj
 0001:00000150       ?GetScrolledMouseWIC2D@CMouse@@IAE?AULPOINT@@XZ 10001150 f i BoxWnd.obj
 0001:00000180       ?SetScrolledMouseWIC2D@CMouse@@IAEXULPOINT@@@Z 10001180 f i BoxWnd.obj
 0001:000001b0       ??1CDlg_NodI@@UAE@XZ       100011b0 f i BoxWnd.obj
 0001:00000220       ?Set3DPts@C3DMath@@QAEXPAULPOINT3@@JJJ@Z 10001220 f i BoxWnd.obj
 0001:00000250       ?Set3DPts@C3DMath@@QAEXPAUWORLD@@NNN@Z 10001250 f i BoxWnd.obj
 0001:000002a0       ?Len3DPts@C3DMath@@QAENPAUWORLD@@@Z 100012a0 f i BoxWnd.obj
 0001:000002f0       ??1C3DMath@@UAE@XZ         100012f0 f i BoxWnd.obj
 0001:00000320       ??_GC3DMath@@UAEPAXI@Z     10001320 f i BoxWnd.obj
 0001:00000360       ??_EC3DMath@@UAEPAXI@Z     10001360 f i BoxWnd.obj
 0001:000003e0       ?GetMatrix@CMatObj@@UAEPAUMATRIX@@XZ 100013e0 f i BoxWnd.obj
 0001:00000400       ?SetMatrix@CMatObj@@UAEXPAUMATRIX@@@Z 10001400 f i BoxWnd.obj
 0001:00000470       ?GetCurveLatch@CMatObj@@UAE?AW4CURVELATCH@@XZ 10001470 f i BoxWnd.obj
 0001:00000490       ?SetCurveLatch@CMatObj@@UAEXW4CURVELATCH@@@Z 10001490 f i BoxWnd.obj
 0001:000004b0       ?IsInstanced_Prof@CMatObj@@UAEHXZ 100014b0 f i BoxWnd.obj
 0001:000004d0       ?SetInstanced_Prof@CMatObj@@UAEXH@Z 100014d0 f i BoxWnd.obj
 0001:000004f0       ?GetFromID@CMatObj@@UAE?AVCString@@XZ 100014f0 f i BoxWnd.obj
 0001:00000530       ?SetFromID@CMatObj@@UAEXVCString@@@Z 10001530 f i BoxWnd.obj
 0001:00000590       ?GetFromPt@CMatObj@@UAE?AUWORLD@@XZ 10001590 f i BoxWnd.obj
 0001:000005c0       ?SetFromPt@CMatObj@@UAEXUWORLD@@@Z 100015c0 f i BoxWnd.obj
 0001:000005f0       ?GetToID@CMatObj@@UAE?AVCString@@XZ 100015f0 f i BoxWnd.obj
 0001:00000630       ?SetToID@CMatObj@@UAEXVCString@@@Z 10001630 f i BoxWnd.obj
 0001:00000690       ?GetToPt@CMatObj@@UAE?AUWORLD@@XZ 10001690 f i BoxWnd.obj
 0001:000006c0       ?SetToPt@CMatObj@@UAEXUWORLD@@@Z 100016c0 f i BoxWnd.obj
 0001:000006f0       ?GetRotPtID@CMatObj@@UAE?AVCString@@XZ 100016f0 f i BoxWnd.obj
 0001:00000730       ?SetRotPtID@CMatObj@@UAEXVCString@@@Z 10001730 f i BoxWnd.obj
 0001:00000790       ?GetRotPt@CMatObj@@UAE?AUWORLD@@XZ 10001790 f i BoxWnd.obj
 0001:000007c0       ?SetRotPt@CMatObj@@UAEXUWORLD@@@Z 100017c0 f i BoxWnd.obj
 0001:000007f0       ?IsCoordIn@CMatObj@@UAEHXZ 100017f0 f i BoxWnd.obj
 0001:00000810       ?SetCoordIn@CMatObj@@UAEXH@Z 10001810 f i BoxWnd.obj
 0001:00000840       ?GetTranPtID@CMatObj@@UAE?AVCString@@XZ 10001840 f i BoxWnd.obj
 0001:00000880       ?SetTranPtID@CMatObj@@UAEXVCString@@@Z 10001880 f i BoxWnd.obj
 0001:000008e0       ?GetTranslation@CMatObj@@UAE?AUWORLD@@XZ 100018e0 f i BoxWnd.obj
 0001:00000910       ?SetTranslation@CMatObj@@UAEXUWORLD@@@Z 10001910 f i BoxWnd.obj
 0001:00000940       ?IsAngleIn@CMatObj@@UAEHXZ 10001940 f i BoxWnd.obj
 0001:00000960       ?SetAngleIn@CMatObj@@UAEXH@Z 10001960 f i BoxWnd.obj
 0001:00000990       ?IsDirCos@CMatObj@@UAEHXZ  10001990 f i BoxWnd.obj
 0001:000009b0       ?SetDirCos@CMatObj@@UAEXH@Z 100019b0 f i BoxWnd.obj
 0001:000009e0       ?GetDirCosDirect@CMatObj@@UAE?AUWORLD@@XZ 100019e0 f i BoxWnd.obj
 0001:00000a10       ?SetDirCosDirect@CMatObj@@UAEXUWORLD@@@Z 10001a10 f i BoxWnd.obj
 0001:00000a40       ?GetRotation@CMatObj@@UAE?AUWORLD@@XZ 10001a40 f i BoxWnd.obj
 0001:00000a70       ?SetRotation@CMatObj@@UAEXUWORLD@@@Z 10001a70 f i BoxWnd.obj
 0001:00000aa0       ?GetScale@CMatObj@@UAE?AUWORLD@@XZ 10001aa0 f i BoxWnd.obj
 0001:00000ad0       ?SetScale@CMatObj@@UAEXUWORLD@@@Z 10001ad0 f i BoxWnd.obj
 0001:00000b00       ?GetShear@CMatObj@@UAE?AUWORLD@@XZ 10001b00 f i BoxWnd.obj
 0001:00000b30       ?SetShear@CMatObj@@UAEXUWORLD@@@Z 10001b30 f i BoxWnd.obj
 0001:00000b60       ?IsNoRot@CMatObj@@UAEHXZ   10001b60 f i BoxWnd.obj
 0001:00000b80       ?SetNoRot@CMatObj@@UAEXH@Z 10001b80 f i BoxWnd.obj
 0001:00000bb0       ?IsNoTran@CMatObj@@UAEHXZ  10001bb0 f i BoxWnd.obj
 0001:00000bd0       ?SetNoTran@CMatObj@@UAEXH@Z 10001bd0 f i BoxWnd.obj
 0001:00000c00       ?IsNoScale@CMatObj@@UAEHXZ 10001c00 f i BoxWnd.obj
 0001:00000c20       ?SetNoScale@CMatObj@@UAEXH@Z 10001c20 f i BoxWnd.obj
 0001:00000c50       ?IsNoShear@CMatObj@@UAEHXZ 10001c50 f i BoxWnd.obj
 0001:00000c70       ?SetNoShear@CMatObj@@UAEXH@Z 10001c70 f i BoxWnd.obj
 0001:00000ca0       ?GetXformType@CMatObj@@UAE?AW4XFORMTYPE@@XZ 10001ca0 f i BoxWnd.obj
 0001:00000cc0       ?SetXformType@CMatObj@@UAEXW4XFORMTYPE@@@Z 10001cc0 f i BoxWnd.obj
 0001:00000cf0       ?GetSpawnType@CMatObj@@UAE?AW4SPAWNTYPE@@XZ 10001cf0 f i BoxWnd.obj
 0001:00000d10       ?SetSpawnType@CMatObj@@UAEXW4SPAWNTYPE@@@Z 10001d10 f i BoxWnd.obj
 0001:00000d40       ?GetCreOp@CMatObj@@UAEIXZ  10001d40 f i BoxWnd.obj
 0001:00000d60       ?SetCreOp@CMatObj@@UAEXI@Z 10001d60 f i BoxWnd.obj
 0001:00000d90       ??1CMatObj@@UAE@XZ         10001d90 f i BoxWnd.obj
 0001:00000e30       ??_GCMatObj@@UAEPAXI@Z     10001e30 f i BoxWnd.obj
 0001:00000e70       ??_ECMatObj@@UAEPAXI@Z     10001e70 f i BoxWnd.obj
 0001:00000ef0       ?ReadyToDelete@CDrObject@@UAEXXZ 10001ef0 f i BoxWnd.obj
 0001:00000f10       ?DoFormattedCardView@CDrObject@@UAEXPAVCString@@AAV2@@Z 10001f10 f i BoxWnd.obj
 0001:00000f30       ?DoUnFormattedCardView@CDrObject@@UAEXPAVCString@@@Z 10001f30 f i BoxWnd.obj
 0001:00000f50       ?DoDataView@CDrObject@@UAEXPAVCDC@@H@Z 10001f50 f i BoxWnd.obj
 0001:00000f70       ?InitDraw@CDrObject@@UAEXPAVCDC@@HHPAUMATRIX@@1NNN@Z 10001f70 f i BoxWnd.obj
 0001:00000f90       ?InitDraw@CDrObject@@UAEXPAVCDC@@HHPAUMATRIX@@1NNNN@Z 10001f90 f i BoxWnd.obj
 0001:00000fb0       ?Corner_3Dto2D@CDrObject@@UAEXXZ 10001fb0 f i BoxWnd.obj
 0001:00000fd0       ?DoDrawView@CDrObject@@UAEXPAVCDC@@@Z 10001fd0 f i BoxWnd.obj
 0001:00000ff0       ?DoDrawView@CDrObject@@UAEXPAVCDC@@H@Z 10001ff0 f i BoxWnd.obj
 0001:00001010       ?DoDrawView@CDrObject@@UAEXPAVCDC@@HH@Z 10002010 f i BoxWnd.obj
 0001:00001030       ?DealObjectDialog@CDrObject@@UAEHXZ 10002030 f i BoxWnd.obj
 0001:00001050       ?TransformObjectToWorld@CDrObject@@UAEXPAUMATRIX@@H@Z 10002050 f i BoxWnd.obj
 0001:00001070       ?TransformObjectToView@CDrObject@@UAEXPAUMATRIX@@@Z 10002070 f i BoxWnd.obj
 0001:00001090       ?TransformObjectToViewDirect@CDrObject@@UAEXPAUMATRIX@@00H@Z 10002090 f i BoxWnd.obj
 0001:000010b0       ?RemoveHiddenObject@CDrObject@@UAEHPAUMATRIX@@UWORLD@@H@Z 100020b0 f i BoxWnd.obj
 0001:000010d0       ?ProjectObject@CDrObject@@UAEXPAUMATRIX@@NN@Z 100020d0 f i BoxWnd.obj
 0001:000010f0       ?Calc_2DBoundsScreen@CDrObject@@UAEHXZ 100020f0 f i BoxWnd.obj
 0001:00001110       ?Calc_3DBoundsLocal@CDrObject@@UAEHXZ 10002110 f i BoxWnd.obj
 0001:00001130       ?FinishObject@CDrObject@@UAEXPAVCClientDC@@H@Z 10002130 f i BoxWnd.obj
 0001:00001150       ?FinishObject@CDrObject@@UAEXH@Z 10002150 f i BoxWnd.obj
 0001:00001170       ?FinishObject@CDrObject@@UAEXXZ 10002170 f i BoxWnd.obj
 0001:00001190       ?GetMaxCorners@CDrObject@@UAEHXZ 10002190 f i BoxWnd.obj
 0001:000011b0       ?GetRawCoords@CDrObject@@UAEXPAJPAHH@Z 100021b0 f i BoxWnd.obj
 0001:000011d0       ?SetProjectedCoords@CDrObject@@UAEXUtagPOINT@@H@Z 100021d0 f i BoxWnd.obj
 0001:000011f0       ?RearrangeProjectedCoords@CDrObject@@UAEXXZ 100021f0 f i BoxWnd.obj
 0001:00001210       ?IsObjectHit@CDrObject@@UAEHNUWORLD@@@Z 10002210 f i BoxWnd.obj
 0001:00001230       ?IsObjectHit@CDrObject@@UAEHHUtagPOINT@@H@Z 10002230 f i BoxWnd.obj
 0001:00001250       ?IsObjectHit@CDrObject@@UAEHHUtagPOINT@@@Z 10002250 f i BoxWnd.obj
 0001:00001270       ?IsObjectHit@CDrObject@@UAEHPAVCClientDC@@HUtagPOINT@@PAVCRect@@H@Z 10002270 f i BoxWnd.obj
 0001:00001290       ?IsKeyMatch@CDrObject@@UAEHPAV1@VCString@@I@Z 10002290 f i BoxWnd.obj
 0001:000012c0       ?IsKeyMatch@CDrObject@@UAEHVCString@@I@Z 100022c0 f i BoxWnd.obj
 0001:000012f0       ?IsControlShapeNeeded@CDrObject@@UAEHXZ 100022f0 f i BoxWnd.obj
 0001:00001310       ?SetControlShapeNeed@CDrObject@@UAEXH@Z 10002310 f i BoxWnd.obj
 0001:00001330       ?IsNormalNeeded@CDrObject@@UAEHXZ 10002330 f i BoxWnd.obj
 0001:00001350       ?SetNormalNeed@CDrObject@@UAEXH@Z 10002350 f i BoxWnd.obj
 0001:00001370       ?IsCulled@CDrObject@@UAEHXZ 10002370 f i BoxWnd.obj
 0001:00001390       ?SetCulled@CDrObject@@UAEXH@Z 10002390 f i BoxWnd.obj
 0001:000013b0       ?IsSkewed@CDrObject@@UAEHXZ 100023b0 f i BoxWnd.obj
 0001:000013d0       ?SetSkewed@CDrObject@@UAEXH@Z 100023d0 f i BoxWnd.obj
 0001:000013f0       ?IsLinSpr@CDrObject@@UAEHXZ 100023f0 f i BoxWnd.obj
 0001:00001410       ?SetLinSpr@CDrObject@@UAEXH@Z 10002410 f i BoxWnd.obj
 0001:00001430       ?IsLinSnu@CDrObject@@UAEHXZ 10002430 f i BoxWnd.obj
 0001:00001450       ?SetLinSnu@CDrObject@@UAEXH@Z 10002450 f i BoxWnd.obj
 0001:00001470       ?CullWorld@CDrObject@@UAEHUWORLD@@@Z 10002470 f i BoxWnd.obj
 0001:00001490       ?CullScreen@CDrObject@@UAEHPAUMATRIX@@@Z 10002490 f i BoxWnd.obj
 0001:000014b0       ?Calc_CentroidWorld@CDrObject@@UAEXXZ 100024b0 f i BoxWnd.obj
 0001:000014d0       ?Calc_CentroidEye@CDrObject@@UAEXXZ 100024d0 f i BoxWnd.obj
 0001:000014f0       ?Calc_CentroidScreen3D@CDrObject@@UAEXNN@Z 100024f0 f i BoxWnd.obj
 0001:00001510       ?Calc_NormalWorld@CDrObject@@UAEXXZ 10002510 f i BoxWnd.obj
 0001:00001530       ?TransformNormalToEye@CDrObject@@UAEXPAUMATRIX@@@Z 10002530 f i BoxWnd.obj
 0001:00001550       ?ProjectNormalToScreen3D@CDrObject@@UAEXPAUMATRIX@@NN@Z 10002550 f i BoxWnd.obj
 0001:00001570       ?GetNormalWorld@CDrObject@@UAEPAUWORLD@@XZ 10002570 f i BoxWnd.obj
 0001:00001590       ?SetNormalWorld@CDrObject@@UAEXUWORLD@@@Z 10002590 f i BoxWnd.obj
 0001:000015b0       ?GetNormalEye@CDrObject@@UAEPAUWORLD@@XZ 100025b0 f i BoxWnd.obj
 0001:000015d0       ?SetNormalEye@CDrObject@@UAEXUWORLD@@@Z 100025d0 f i BoxWnd.obj
 0001:000015f0       ?GetNormalScreen3D@CDrObject@@UAEPAUWORLD@@XZ 100025f0 f i BoxWnd.obj
 0001:00001610       ?SetNormalScreen3D@CDrObject@@UAEXUWORLD@@@Z 10002610 f i BoxWnd.obj
 0001:00001630       ?GetNormalScreen2D@CDrObject@@UAEPAUtagPOINT@@XZ 10002630 f i BoxWnd.obj
 0001:00001650       ?SetNormalScreen2D@CDrObject@@UAEXUtagPOINT@@@Z 10002650 f i BoxWnd.obj
 0001:00001670       ?GetObjectList@CDrObject@@UAEPAVCDListMgr@@XZ 10002670 f i BoxWnd.obj
 0001:00001690       ?GetBoundingRect@CDrObject@@QAE?AVCRect@@XZ 10002690 f i BoxWnd.obj
 0001:000016d0       ?GetRInfo@CDrObject@@QAEPAURENDINFO@@XZ 100026d0 f i BoxWnd.obj
 0001:000016f0       ?IsParallel@CDrObject@@QAEHXZ 100026f0 f i BoxWnd.obj
 0001:00001710       ?GetnView@CDrObject@@QAEHXZ 10002710 f i BoxWnd.obj
 0001:00001730       ?GetdzMin@CDrObject@@QAENXZ 10002730 f i BoxWnd.obj
 0001:00001750       ?GetdScale_U@CDrObject@@QAENXZ 10002750 f i BoxWnd.obj
 0001:00001770       ?GetdScale_V@CDrObject@@QAENXZ 10002770 f i BoxWnd.obj
 0001:00001790       ?GetpViewM@CDrObject@@QAEPAUMATRIX@@XZ 10002790 f i BoxWnd.obj
 0001:000017b0       ?Getpvv3DM@CDrObject@@QAEPAUMATRIX@@XZ 100027b0 f i BoxWnd.obj
 0001:000017d0       ?GetpComposedM@CDrObject@@QAEPAUMATRIX@@XZ 100027d0 f i BoxWnd.obj
 0001:000017f0       ?SetParallel@CDrObject@@QAEXH@Z 100027f0 f i BoxWnd.obj
 0001:00001820       ?SetnView@CDrObject@@QAEXH@Z 10002820 f i BoxWnd.obj
 0001:00001850       ?SetdzMin@CDrObject@@QAEXN@Z 10002850 f i BoxWnd.obj
 0001:00001880       ?SetdScale_U@CDrObject@@QAEXN@Z 10002880 f i BoxWnd.obj
 0001:000018b0       ?SetdScale_V@CDrObject@@QAEXN@Z 100028b0 f i BoxWnd.obj
 0001:000018e0       ?SetpViewM@CDrObject@@QAEXPAUMATRIX@@@Z 100028e0 f i BoxWnd.obj
 0001:00001910       ?Setpvv3DM@CDrObject@@QAEXPAUMATRIX@@@Z 10002910 f i BoxWnd.obj
 0001:00001940       ?SetpComposedM@CDrObject@@QAEXPAUMATRIX@@@Z 10002940 f i BoxWnd.obj
 0001:00001970       ?GetLevelType@CDrObject@@QAEHXZ 10002970 f i BoxWnd.obj
 0001:00001990       ?SetLevelType@CDrObject@@QAEXH@Z 10002990 f i BoxWnd.obj
 0001:000019c0       ?GetObjectID@CDrObject@@QAE?AVCString@@XZ 100029c0 f i BoxWnd.obj
 0001:00001a00       ?SetObjectID@CDrObject@@QAEXVCString@@@Z 10002a00 f i BoxWnd.obj
 0001:00001a60       ?GetObjectNo@CDrObject@@QAEJXZ 10002a60 f i BoxWnd.obj
 0001:00001a80       ?SetObjectNo@CDrObject@@QAEXJ@Z 10002a80 f i BoxWnd.obj
 0001:00001ab0       ?GetObjectType@CDrObject@@QAEHXZ 10002ab0 f i BoxWnd.obj
 0001:00001ad0       ?SetObjectType@CDrObject@@QAEXH@Z 10002ad0 f i BoxWnd.obj
 0001:00001b00       ?GetElemType@CDrObject@@QAEHXZ 10002b00 f i BoxWnd.obj
 0001:00001b20       ?SetElemType@CDrObject@@QAEXH@Z 10002b20 f i BoxWnd.obj
 0001:00001b50       ?GetPenInfo@CDrObject@@QAEXAAIAAK0@Z 10002b50 f i BoxWnd.obj
 0001:00001b90       ?SetPenInfo@CDrObject@@QAEXIKI@Z 10002b90 f i BoxWnd.obj
 0001:00001bd0       ?GetPenInfoHi@CDrObject@@QAEXAAIAAK0@Z 10002bd0 f i BoxWnd.obj
 0001:00001c10       ?SetPenInfoHi@CDrObject@@QAEXIKI@Z 10002c10 f i BoxWnd.obj
 0001:00001c50       ?GetLayer@CDrObject@@QAEIXZ 10002c50 f i BoxWnd.obj
 0001:00001c70       ?SetLayer@CDrObject@@QAEXI@Z 10002c70 f i BoxWnd.obj
 0001:00001ca0       ?IsClipped@CDrObject@@QAEHXZ 10002ca0 f i BoxWnd.obj
 0001:00001cc0       ?SetClipped@CDrObject@@QAEXH@Z 10002cc0 f i BoxWnd.obj
 0001:00001cf0       ?IsVirtual@CDrObject@@QAEHXZ 10002cf0 f i BoxWnd.obj
 0001:00001d10       ?SetVirtual@CDrObject@@QAEXH@Z 10002d10 f i BoxWnd.obj
 0001:00001d30       ?IsShow@CDrObject@@QAEHXZ  10002d30 f i BoxWnd.obj
 0001:00001d50       ?SetShow@CDrObject@@QAEXH@Z 10002d50 f i BoxWnd.obj
 0001:00001d80       ?GetParentID@CDrObject@@QAEAAVCString@@XZ 10002d80 f i BoxWnd.obj
 0001:00001da0       ?SetParentID@CDrObject@@QAEXAAVCString@@@Z 10002da0 f i BoxWnd.obj
 0001:00001dd0       ?GetParentType@CDrObject@@QAEIXZ 10002dd0 f i BoxWnd.obj
 0001:00001df0       ?SetParentType@CDrObject@@QAEXI@Z 10002df0 f i BoxWnd.obj
 0001:00001e10       ?IsInstanced@CDrObject@@QAEHXZ 10002e10 f i BoxWnd.obj
 0001:00001e30       ?SetInstanced@CDrObject@@QAEXH@Z 10002e30 f i BoxWnd.obj
 0001:00001e50       ?GetMatObj@CDrObject@@QAEPAVCMatObj@@XZ 10002e50 f i BoxWnd.obj
 0001:00001e70       ?SetMatObj@CDrObject@@QAEXPAVCMatObj@@@Z 10002e70 f i BoxWnd.obj
 0001:00001e90       ?GetSpeLList@CDrObject@@QAEPAVCDListMgr@@XZ 10002e90 f i BoxWnd.obj
 0001:00001eb0       ?GetDynLList@CDrObject@@QAEPAVCDListMgr@@XZ 10002eb0 f i BoxWnd.obj
 0001:00001ed0       ?GetStaLList@CDrObject@@QAEPAVCDListMgr@@XZ 10002ed0 f i BoxWnd.obj
 0001:00001ef0       ?GetSuppList@CDrObject@@QAEPAVCDListMgr@@XZ 10002ef0 f i BoxWnd.obj
 0001:00001f10       ?GetElemList@CDrObject@@QAEPAVCDListMgr@@XZ 10002f10 f i BoxWnd.obj
 0001:00001f30       ?GetCurveList@CDrObject@@QAEPAVCDListMgr@@XZ 10002f30 f i BoxWnd.obj
 0001:00001f50       ?GetCProfList@CDrObject@@QAEPAVCDListMgr@@XZ 10002f50 f i BoxWnd.obj
 0001:00001f70       ?GetPatchList@CDrObject@@QAEPAVCDListMgr@@XZ 10002f70 f i BoxWnd.obj
 0001:00001f90       ?GetSolidList@CDrObject@@QAEPAVCDListMgr@@XZ 10002f90 f i BoxWnd.obj
 0001:00001fb0       ?GetObj3DList@CDrObject@@QAEPAVCDListMgr@@XZ 10002fb0 f i BoxWnd.obj
 0001:00001fd0       ?GetCNodeList@CDrObject@@QAEPAVCDListMgr@@XZ 10002fd0 f i BoxWnd.obj
 0001:00001ff0       ?GetINodeList@CDrObject@@QAEPAVCDListMgr@@XZ 10002ff0 f i BoxWnd.obj
 0001:00002010       ?GetNodeList@CDrObject@@QAEPAVCDListMgr@@XZ 10003010 f i BoxWnd.obj
 0001:00002030       ?GetLabelList@CDrObject@@QAEPAVCDListMgr@@XZ 10003030 f i BoxWnd.obj
 0001:00002050       ?GetFE0DList@CDrObject@@QAEPAVCDListMgr@@XZ 10003050 f i BoxWnd.obj
 0001:00002070       ?GetFE1DList@CDrObject@@QAEPAVCDListMgr@@XZ 10003070 f i BoxWnd.obj
 0001:00002090       ?GetFE2DList@CDrObject@@QAEPAVCDListMgr@@XZ 10003090 f i BoxWnd.obj
 0001:000020b0       ?GetFE3DList@CDrObject@@QAEPAVCDListMgr@@XZ 100030b0 f i BoxWnd.obj
 0001:000020d0       ?GetMs0List@CDrObject@@QAEPAVCDListMgr@@XZ 100030d0 f i BoxWnd.obj
 0001:000020f0       ?GetMs1List@CDrObject@@QAEPAVCDListMgr@@XZ 100030f0 f i BoxWnd.obj
 0001:00002110       ?GetMs2List@CDrObject@@QAEPAVCDListMgr@@XZ 10003110 f i BoxWnd.obj
 0001:00002130       ?GetMs3List@CDrObject@@QAEPAVCDListMgr@@XZ 10003130 f i BoxWnd.obj
 0001:00002150       ?GetMbj3DList@CDrObject@@QAEPAVCDListMgr@@XZ 10003150 f i BoxWnd.obj
 0001:00002170       ?GetM2DProfList@CDrObject@@QAEPAVCDListMgr@@XZ 10003170 f i BoxWnd.obj
 0001:00002190       ?GetM3DProfList@CDrObject@@QAEPAVCDListMgr@@XZ 10003190 f i BoxWnd.obj
 0001:000021b0       ?GetMbjProfList@CDrObject@@QAEPAVCDListMgr@@XZ 100031b0 f i BoxWnd.obj
 0001:000021d0       ?GetScreen2DCorner@CDrObject@@UAE?AUtagPOINT@@H@Z 100031d0 f i BoxWnd.obj
 0001:00002210       ?SetScreen2DCorner@CDrObject@@UAEXUtagPOINT@@H@Z 10003210 f i BoxWnd.obj
 0001:00002240       ?GetSpawnType@CDrObject@@QAE?AW4SPAWNTYPE@@XZ 10003240 f i BoxWnd.obj
 0001:00002260       ?SetSpawnType@CDrObject@@QAEXW4SPAWNTYPE@@@Z 10003260 f i BoxWnd.obj
 0001:00002280       ?GetCategory@CDrObject@@QAE?AW4CATEGORY@@XZ 10003280 f i BoxWnd.obj
 0001:000022a0       ?SetCategory@CDrObject@@QAEXW4CATEGORY@@@Z 100032a0 f i BoxWnd.obj
 0001:000022c0       ?GetSubCat@CDrObject@@QAE?AW4SUBCAT@@XZ 100032c0 f i BoxWnd.obj
 0001:000022e0       ?SetSubCat@CDrObject@@QAEXW4SUBCAT@@@Z 100032e0 f i BoxWnd.obj
 0001:00002300       ?GetElemDimLim@CDrObject@@QAE?AW4ELEMDIMLIM@@XZ 10003300 f i BoxWnd.obj
 0001:00002320       ?SetElemDimLim@CDrObject@@QAEXW4ELEMDIMLIM@@@Z 10003320 f i BoxWnd.obj
 0001:00002340       ?IsDirty@CDrObject@@QAEHXZ 10003340 f i BoxWnd.obj
 0001:00002370       ?SetDirty@CDrObject@@QAEXH@Z 10003370 f i BoxWnd.obj
 0001:000023a0       ?IsMoved@CDrObject@@QAEHXZ 100033a0 f i BoxWnd.obj
 0001:000023c0       ?SetMoved@CDrObject@@QAEXH@Z 100033c0 f i BoxWnd.obj
 0001:000023f0       ?IsEdited@CDrObject@@QAEHXZ 100033f0 f i BoxWnd.obj
 0001:00002410       ?SetEdited@CDrObject@@QAEXH@Z 10003410 f i BoxWnd.obj
 0001:00002440       ?IsPosted@CDrObject@@QAEHXZ 10003440 f i BoxWnd.obj
 0001:00002460       ?SetPosted@CDrObject@@QAEXH@Z 10003460 f i BoxWnd.obj
 0001:00002490       ?IsDeleted@CDrObject@@QAEHXZ 10003490 f i BoxWnd.obj
 0001:000024b0       ?SetDeleted@CDrObject@@QAEXH@Z 100034b0 f i BoxWnd.obj
 0001:000024e0       ?IsToBeMoved@CDrObject@@QAEHXZ 100034e0 f i BoxWnd.obj
 0001:00002500       ?SetToBeMoved@CDrObject@@QAEXH@Z 10003500 f i BoxWnd.obj
 0001:00002520       ?IsToBeEdited@CDrObject@@QAEHXZ 10003520 f i BoxWnd.obj
 0001:00002540       ?SetToBeEdited@CDrObject@@QAEXH@Z 10003540 f i BoxWnd.obj
 0001:00002560       ?IsToBePosted@CDrObject@@QAEHXZ 10003560 f i BoxWnd.obj
 0001:00002580       ?SetToBePosted@CDrObject@@QAEXH@Z 10003580 f i BoxWnd.obj
 0001:000025a0       ?IsToBeUnPosted@CDrObject@@QAEHXZ 100035a0 f i BoxWnd.obj
 0001:000025c0       ?SetToBeUnPosted@CDrObject@@QAEXH@Z 100035c0 f i BoxWnd.obj
 0001:000025e0       ?IsToBeDeleted@CDrObject@@QAEHXZ 100035e0 f i BoxWnd.obj
 0001:00002600       ?SetToBeDeleted@CDrObject@@QAEXH@Z 10003600 f i BoxWnd.obj
 0001:00002620       ?IsFormatted@CDrObject@@QAEHXZ 10003620 f i BoxWnd.obj
 0001:00002640       ?SetFormatted@CDrObject@@QAEXH@Z 10003640 f i BoxWnd.obj
 0001:00002660       ?Parse_drPipe@CDrNode@@UAEPAUnodecard@@PAVCString@@@Z 10003660 f i BoxWnd.obj
 0001:00002680       ?GetNodeCard@CDrNode@@UAEPAUnodecard@@XZ 10003680 f i BoxWnd.obj
 0001:000026a0       ?GetCardNo@CDrNode@@UAEHXZ 100036a0 f i BoxWnd.obj
 0001:000026c0       ?SetCardNo@CDrNode@@UAEXH@Z 100036c0 f i BoxWnd.obj
 0001:000026f0       ?DoFormattedCardView@CDrNode@@UAEXPAVCString@@AAV2@@Z 100036f0 f i BoxWnd.obj
 0001:00002710       ?DoUnFormattedCardView@CDrNode@@UAEXPAVCString@@@Z 10003710 f i BoxWnd.obj
 0001:00002730       ?GetMaxCorners@CDrNode@@UAEHXZ 10003730 f i BoxWnd.obj
 0001:00002750       ?GetCategory@CDrNode@@UAE?AW4CATEGORY@@XZ 10003750 f i BoxWnd.obj
 0001:00002770       ?SetCategory@CDrNode@@UAEXW4CATEGORY@@@Z 10003770 f i BoxWnd.obj
 0001:00002790       ?GetPrecision@CDrNode@@UAEHXZ 10003790 f i BoxWnd.obj
 0001:000027b0       ?SetPrecision@CDrNode@@UAEXH@Z 100037b0 f i BoxWnd.obj
 0001:000027e0       ?GetFormat@CDrNode@@QAE?AVCString@@XZ 100037e0 f i BoxWnd.obj
 0001:00002820       ?SetFormat@CDrNode@@QAEXVCString@@@Z 10003820 f i BoxWnd.obj
 0001:00002880       ?GetMapFactor@CDrNode@@QAENXZ 10003880 f i BoxWnd.obj
 0001:000028a0       ?SetMapFactor@CDrNode@@QAEXN@Z 100038a0 f i BoxWnd.obj
 0001:000028d0       ?GetScaleFactor@CDrNode@@QAENXZ 100038d0 f i BoxWnd.obj
 0001:000028f0       ?SetScaleFactor@CDrNode@@QAEXN@Z 100038f0 f i BoxWnd.obj
 0001:00002920       ?GetMasterMultFac@CDrNode@@QAEJXZ 10003920 f i BoxWnd.obj
 0001:00002940       ?SetMasterMultFac@CDrNode@@QAEXJ@Z 10003940 f i BoxWnd.obj
 0001:00002970       ?GetLocalPos@CDrNode@@UAEPAUWORLD@@XZ 10003970 f i BoxWnd.obj
 0001:00002990       ?SetLocalPos@CDrNode@@UAEXUWORLD@@@Z 10003990 f i BoxWnd.obj
 0001:000029c0       ?GetWorldPos@CDrNode@@UAEPAUWORLD@@XZ 100039c0 f i BoxWnd.obj
 0001:000029e0       ?SetWorldPos@CDrNode@@UAEXUWORLD@@@Z 100039e0 f i BoxWnd.obj
 0001:00002a10       ?GetEyePos@CDrNode@@UAEPAUWORLD@@XZ 10003a10 f i BoxWnd.obj
 0001:00002a30       ?SetEyePos@CDrNode@@UAEXUWORLD@@@Z 10003a30 f i BoxWnd.obj
 0001:00002a60       ?GetScreenPos3D@CDrNode@@UAEPAUWORLD@@XZ 10003a60 f i BoxWnd.obj
 0001:00002a80       ?SetScreenPos3D@CDrNode@@UAEXUWORLD@@@Z 10003a80 f i BoxWnd.obj
 0001:00002ab0       ?GetScreenPos2D@CDrNode@@UAEPAUtagPOINT@@XZ 10003ab0 f i BoxWnd.obj
 0001:00002ad0       ?SetScreenPos2D@CDrNode@@UAEXUtagPOINT@@@Z 10003ad0 f i BoxWnd.obj
 0001:00002b00       ?GetNormalWorld@CDrNode@@UAEPAUWORLD@@XZ 10003b00 f i BoxWnd.obj
 0001:00002b20       ?SetNormalWorld@CDrNode@@UAEXUWORLD@@@Z 10003b20 f i BoxWnd.obj
 0001:00002b50       ?GetNormalEye@CDrNode@@UAEPAUWORLD@@XZ 10003b50 f i BoxWnd.obj
 0001:00002b70       ?SetNormalEye@CDrNode@@UAEXUWORLD@@@Z 10003b70 f i BoxWnd.obj
 0001:00002ba0       ?GetNormalScreen3D@CDrNode@@UAEPAUWORLD@@XZ 10003ba0 f i BoxWnd.obj
 0001:00002bc0       ?SetNormalScreen3D@CDrNode@@UAEXUWORLD@@@Z 10003bc0 f i BoxWnd.obj
 0001:00002bf0       ?GetNormalScreen2D@CDrNode@@UAEPAUtagPOINT@@XZ 10003bf0 f i BoxWnd.obj
 0001:00002c10       ?SetNormalScreen2D@CDrNode@@UAEXUtagPOINT@@@Z 10003c10 f i BoxWnd.obj
 0001:00002c40       ?GetLabelNo@CDrNode@@QAEJXZ 10003c40 f i BoxWnd.obj
 0001:00002c60       ?SetLabelNo@CDrNode@@QAEXJ@Z 10003c60 f i BoxWnd.obj
 0001:00002c90       ?IsMeshNode@CDrNode@@QAEHXZ 10003c90 f i BoxWnd.obj
 0001:00002cb0       ?SetMeshNode@CDrNode@@QAEXH@Z 10003cb0 f i BoxWnd.obj
 0001:00002ce0       ?IsGenerated@CDrNode@@QAEHXZ 10003ce0 f i BoxWnd.obj
 0001:00002d00       ?SetGenerated@CDrNode@@QAEXH@Z 10003d00 f i BoxWnd.obj
 0001:00002d30       ?IsControlNode@CDrNode@@QAEHXZ 10003d30 f i BoxWnd.obj
 0001:00002d60       ?SetControlNode@CDrNode@@QAEXH@Z 10003d60 f i BoxWnd.obj
 0001:00002d90       ?GetInputMode@CDrNode@@QAEHXZ 10003d90 f i BoxWnd.obj
 0001:00002db0       ?SetInputMode@CDrNode@@QAEXH@Z 10003db0 f i BoxWnd.obj
 0001:00002de0       ?GetLength@CDrNode@@QAENXZ 10003de0 f i BoxWnd.obj
 0001:00002e00       ?SetLength@CDrNode@@QAEXN@Z 10003e00 f i BoxWnd.obj
 0001:00002e30       ?GetDelta@CDrNode@@QAEPAUWORLD@@XZ 10003e30 f i BoxWnd.obj
 0001:00002e50       ?SetDelta@CDrNode@@QAEXUWORLD@@@Z 10003e50 f i BoxWnd.obj
 0001:00002e80       ?GetFromID@CDrNode@@QAE?AVCString@@XZ 10003e80 f i BoxWnd.obj
 0001:00002ec0       ?SetFromID@CDrNode@@QAEXVCString@@@Z 10003ec0 f i BoxWnd.obj
 0001:00002f20       ?GetToID@CDrNode@@QAE?AVCString@@XZ 10003f20 f i BoxWnd.obj
 0001:00002f60       ?SetToID@CDrNode@@QAEXVCString@@@Z 10003f60 f i BoxWnd.obj
 0001:00002fc0       ?IsRefCN@CDrNode@@QAEHXZ   10003fc0 f i BoxWnd.obj
 0001:00002fe0       ?SetRefCN@CDrNode@@QAEXH@Z 10003fe0 f i BoxWnd.obj
 0001:00003010       ?IsFromCN@CDrNode@@QAEHXZ  10004010 f i BoxWnd.obj
 0001:00003030       ?SetFromCN@CDrNode@@QAEXH@Z 10004030 f i BoxWnd.obj
 0001:00003060       ?IsToCN@CDrNode@@QAEHXZ    10004060 f i BoxWnd.obj
 0001:00003080       ?SetToCN@CDrNode@@QAEXH@Z  10004080 f i BoxWnd.obj
 0001:000030b0       ?IsSkewed@CDrNode@@UAEHXZ  100040b0 f i BoxWnd.obj
 0001:000030d0       ?SetSkewed@CDrNode@@UAEXH@Z 100040d0 f i BoxWnd.obj
 0001:00003100       ?IsLinSpr@CDrNode@@UAEHXZ  10004100 f i BoxWnd.obj
 0001:00003120       ?SetLinSpr@CDrNode@@UAEXH@Z 10004120 f i BoxWnd.obj
 0001:00003150       ?IsLinSnu@CDrNode@@UAEHXZ  10004150 f i BoxWnd.obj
 0001:00003170       ?SetLinSnu@CDrNode@@UAEXH@Z 10004170 f i BoxWnd.obj
 0001:000031a0       ?GetSuppCardList@CDrNode@@QAEPAV?$CList@Usupportcard@@U1@@@XZ 100041a0 f i BoxWnd.obj
 0001:000031c0       ?GetStaLCardList@CDrNode@@QAEPAV?$CList@UstaLcard@@U1@@@XZ 100041c0 f i BoxWnd.obj
 0001:000031e0       ?GetMaxCorners@CDrLabel@@UAEHXZ 100041e0 f i BoxWnd.obj
 0001:00003200       ?SetProjectedCoords@CDrLabel@@UAEXUtagPOINT@@H@Z 10004200 f i BoxWnd.obj
 0001:00003230       ?IsMoved@CDrLabel@@UAEHXZ  10004230 f i BoxWnd.obj
 0001:00003250       ?SetMoved@CDrLabel@@UAEXH@Z 10004250 f i BoxWnd.obj
 0001:00003280       ?GetNodePtr@CDrLabel@@UAEPAVCDrNode@@XZ 10004280 f i BoxWnd.obj
 0001:000032a0       ?SetNodePtr@CDrLabel@@UAEXPAVCDrNode@@@Z 100042a0 f i BoxWnd.obj
 0001:000032d0       ?GetContextObj@CDrLabel@@UAE?AW4CONTEXTOBJ@@XZ 100042d0 f i BoxWnd.obj
 0001:000032f0       ?SetContextObj@CDrLabel@@UAEXW4CONTEXTOBJ@@@Z 100042f0 f i BoxWnd.obj
 0001:00003320       ?GetMeshElemType@CDrLabel@@UAEIXZ 10004320 f i BoxWnd.obj
 0001:00003340       ?SetMeshElemType@CDrLabel@@UAEXI@Z 10004340 f i BoxWnd.obj
 0001:00003370       ?GetColor@CDrLabel@@UAEKXZ 10004370 f i BoxWnd.obj
 0001:00003390       ?SetColor@CDrLabel@@UAEXK@Z 10004390 f i BoxWnd.obj
 0001:000033c0       ?GetViewNum@CDrLabel@@UAEHXZ 100043c0 f i BoxWnd.obj
 0001:000033e0       ?SetViewNum@CDrLabel@@UAEXH@Z 100043e0 f i BoxWnd.obj
 0001:00003410       ?GetType@CDrLabel@@UAEHXZ  10004410 f i BoxWnd.obj
 0001:00003430       ?SetType@CDrLabel@@UAEXH@Z 10004430 f i BoxWnd.obj
 0001:00003460       ?GetText@CDrLabel@@UAE?AVCString@@XZ 10004460 f i BoxWnd.obj
 0001:000034a0       ?SetText@CDrLabel@@UAEXVCString@@@Z 100044a0 f i BoxWnd.obj
 0001:00003500       ?SetLogFont@CDrLabel@@UAEXUtagLOGFONTA@@@Z 10004500 f i BoxWnd.obj
 0001:00003530       ?GetLogFont@CDrLabel@@UAE?AUtagLOGFONTA@@XZ 10004530 f i BoxWnd.obj
 0001:00003560       ?GetOtherCorner@CDrLabel@@UAE?AUtagPOINT@@XZ 10004560 f i BoxWnd.obj
 0001:00003590       ?SetOtherCorner@CDrLabel@@UAEXUtagPOINT@@@Z 10004590 f i BoxWnd.obj
 0001:000035c0       ?GetAngle@CDrLabel@@UAEHXZ 100045c0 f i BoxWnd.obj
 0001:000035e0       ?SetAngle@CDrLabel@@UAEXH@Z 100045e0 f i BoxWnd.obj
 0001:00003610       ??1CDrLabel@@UAE@XZ        10004610 f i BoxWnd.obj
 0001:00003670       ??_GCDrLabel@@UAEPAXI@Z    10004670 f i BoxWnd.obj
 0001:000036b0       ??_ECDrLabel@@UAEPAXI@Z    100046b0 f i BoxWnd.obj
 0001:00003730       ??1CDlg_LQCI@@UAE@XZ       10004730 f i BoxWnd.obj
 0001:000037a0       ??1CDlg_CrcI@@UAE@XZ       100047a0 f i BoxWnd.obj
 0001:00003810       ?IsDirty@CDrCurve@@UAEHXZ  10004810 f i BoxWnd.obj
 0001:00003830       ?SetDirty@CDrCurve@@UAEXH@Z 10004830 f i BoxWnd.obj
 0001:00003860       ?IsControlShapeNeeded@CDrCurve@@UAEHXZ 10004860 f i BoxWnd.obj
 0001:00003880       ?SetControlShapeNeed@CDrCurve@@UAEXH@Z 10004880 f i BoxWnd.obj
 0001:000038b0       ?IsPosted@CDrCurve@@UAEHXZ 100048b0 f i BoxWnd.obj
 0001:000038d0       ?SetPosted@CDrCurve@@UAEXH@Z 100048d0 f i BoxWnd.obj
 0001:00003900       ?GetCN_BSList@CDrCurve@@QAEPAVCDListMgr@@XZ 10004900 f i BoxWnd.obj
 0001:00003920       ?GetVNodeList@CDrCurve@@QAEPAVCDListMgr@@XZ 10004920 f i BoxWnd.obj
 0001:00003940       ?GetMeshElemDim@CDrCurve@@QAEHXZ 10004940 f i BoxWnd.obj
 0001:00003960       ?SetMeshElemDim@CDrCurve@@QAEXH@Z 10004960 f i BoxWnd.obj
 0001:00003990       ?IsIso@CDrCurve@@QAEHXZ    10004990 f i BoxWnd.obj
 0001:000039b0       ?SetIso@CDrCurve@@QAEXH@Z  100049b0 f i BoxWnd.obj
 0001:000039e0       ?GetIsoToID@CDrCurve@@QAEAAVCString@@XZ 100049e0 f i BoxWnd.obj
 0001:00003a00       ?SetIsoToID@CDrCurve@@QAEXAAVCString@@@Z 10004a00 f i BoxWnd.obj
 0001:00003a30       ?GetCompoType@CDrCurve@@QAEHXZ 10004a30 f i BoxWnd.obj
 0001:00003a50       ?SetCompoType@CDrCurve@@QAEXH@Z 10004a50 f i BoxWnd.obj
 0001:00003a80       ?GetCompoID@CDrCurve@@QAEAAVCString@@XZ 10004a80 f i BoxWnd.obj
 0001:00003aa0       ?SetCompoID@CDrCurve@@QAEXAAVCString@@@Z 10004aa0 f i BoxWnd.obj
 0001:00003ad0       ?GetClass_S@CDrCurve@@QAEHXZ 10004ad0 f i BoxWnd.obj
 0001:00003af0       ?SetClass_S@CDrCurve@@QAEXH@Z 10004af0 f i BoxWnd.obj
 0001:00003b20       ?GetOutSegUnif_S@CDrCurve@@QAEHXZ 10004b20 f i BoxWnd.obj
 0001:00003b40       ?SetOutSegUnif_S@CDrCurve@@QAEXH@Z 10004b40 f i BoxWnd.obj
 0001:00003b70       ?IsClosed_S@CDrCurve@@QAEHXZ 10004b70 f i BoxWnd.obj
 0001:00003b90       ?SetClosed_S@CDrCurve@@QAEXH@Z 10004b90 f i BoxWnd.obj
 0001:00003bc0       ?GetCurveObjectType@CDrCurve@@QAEHXZ 10004bc0 f i BoxWnd.obj
 0001:00003be0       ?SetCurveObjectType@CDrCurve@@QAEXH@Z 10004be0 f i BoxWnd.obj
 0001:00003c10       ?GetMaxINodes_S@CDrCurve@@QAEHXZ 10004c10 f i BoxWnd.obj
 0001:00003c30       ?SetMaxINodes_S@CDrCurve@@QAEXH@Z 10004c30 f i BoxWnd.obj
 0001:00003c60       ?GetMaxCNodes_S@CDrCurve@@QAEHXZ 10004c60 f i BoxWnd.obj
 0001:00003c80       ?SetMaxCNodes_S@CDrCurve@@QAEXH@Z 10004c80 f i BoxWnd.obj
 0001:00003cb0       ?GetMaxBezSegments_S@CDrCurve@@QAEHXZ 10004cb0 f i BoxWnd.obj
 0001:00003cd0       ?SetMaxBezSegments_S@CDrCurve@@QAEXH@Z 10004cd0 f i BoxWnd.obj
 0001:00003d00       ?GetMaxOutPts_S@CDrCurve@@QAEHXZ 10004d00 f i BoxWnd.obj
 0001:00003d20       ?SetMaxOutPts_S@CDrCurve@@QAEXH@Z 10004d20 f i BoxWnd.obj
 0001:00003d50       ?GetLongOutPts@CDrCurve@@QAEJXZ 10004d50 f i BoxWnd.obj
 0001:00003d70       ?SetLongOutPts@CDrCurve@@QAEXJ@Z 10004d70 f i BoxWnd.obj
 0001:00003da0       ?GetCurveType_S@CDrCurve@@QAE?AW4CURVEPROC@@XZ 10004da0 f i BoxWnd.obj
 0001:00003dc0       ?SetCurveType_S@CDrCurve@@QAEXW4CURVEPROC@@@Z 10004dc0 f i BoxWnd.obj
 0001:00003df0       ?GetOutMethod@CDrCurve@@QAE?AW4CURVEOUTPUT@@XZ 10004df0 f i BoxWnd.obj
 0001:00003e10       ?GetAlfa@CDrCurve@@QAENXZ  10004e10 f i BoxWnd.obj
 0001:00003e30       ?GetBias@CDrCurve@@QAENXZ  10004e30 f i BoxWnd.obj
 0001:00003e50       ?GetTension@CDrCurve@@QAENXZ 10004e50 f i BoxWnd.obj
 0001:00003e70       ?IsUniform_S@CDrCurve@@QAEHXZ 10004e70 f i BoxWnd.obj
 0001:00003e90       ?SetUniform_S@CDrCurve@@QAEXH@Z 10004e90 f i BoxWnd.obj
 0001:00003ec0       ?SetOutMethod_S@CDrCurve@@QAEXW4CURVEOUTPUT@@@Z 10004ec0 f i BoxWnd.obj
 0001:00003ef0       ?GetMaxOutSeg_S@CDrCurve@@QAEHXZ 10004ef0 f i BoxWnd.obj
 0001:00003f10       ?SetMaxOutSeg_S@CDrCurve@@QAEXH@Z 10004f10 f i BoxWnd.obj
 0001:00003f40       ?GetDis_AngPointer_S@CDrCurve@@QAEPANXZ 10004f40 f i BoxWnd.obj
 0001:00003f60       ?SetDis_AngPointer_S@CDrCurve@@QAEXPAN@Z 10004f60 f i BoxWnd.obj
 0001:00003f90       ?GetNum_tPointer_S@CDrCurve@@QAEPAHXZ 10004f90 f i BoxWnd.obj
 0001:00003fb0       ?SetNum_tPointer_S@CDrCurve@@QAEXPAH@Z 10004fb0 f i BoxWnd.obj
 0001:00003fe0       ?GetDis_tPointer_S@CDrCurve@@QAEPANXZ 10004fe0 f i BoxWnd.obj
 0001:00004000       ?SetDis_tPointer_S@CDrCurve@@QAEXPAN@Z 10005000 f i BoxWnd.obj
 0001:00004030       ?GetNum_tPointer_Ex_S@CDrCurve@@QAEPAHXZ 10005030 f i BoxWnd.obj
 0001:00004050       ?SetNum_tPointer_Ex_S@CDrCurve@@QAEXPAH@Z 10005050 f i BoxWnd.obj
 0001:00004080       ?GetnBSeg_Ex_S@CDrCurve@@QAEHXZ 10005080 f i BoxWnd.obj
 0001:000040a0       ?SetnBSeg_Ex_S@CDrCurve@@QAEXH@Z 100050a0 f i BoxWnd.obj
 0001:000040d0       ?GetBSegPointer_Ex_S@CDrCurve@@QAEPAHXZ 100050d0 f i BoxWnd.obj
 0001:000040f0       ?SetBSegPointer_Ex_S@CDrCurve@@QAEXPAH@Z 100050f0 f i BoxWnd.obj
 0001:00004120       ?SetAlfa@CDrCurve@@QAEXN@Z 10005120 f i BoxWnd.obj
 0001:00004150       ?SetBias@CDrCurve@@QAEXN@Z 10005150 f i BoxWnd.obj
 0001:00004180       ?SetTension@CDrCurve@@QAEXN@Z 10005180 f i BoxWnd.obj
 0001:000041b0       ?GetMemIn@CDrCurve@@QAEPAUWORLD@@XZ 100051b0 f i BoxWnd.obj
 0001:000041d0       ?GetMemInWts@CDrCurve@@QAEPANXZ 100051d0 f i BoxWnd.obj
 0001:000041f0       ?GetMemInDP@CDrCurve@@QAEPAUtagPOINT@@XZ 100051f0 f i BoxWnd.obj
 0001:00004210       ?GetMemOut@CDrCurve@@QAEPAUWORLD@@XZ 10005210 f i BoxWnd.obj
 0001:00004230       ?GetMemOutWts@CDrCurve@@QAEPANXZ 10005230 f i BoxWnd.obj
 0001:00004250       ?GetMemOutDP@CDrCurve@@QAEPAUtagPOINT@@XZ 10005250 f i BoxWnd.obj
 0001:00004270       ?SetMemIn@CDrCurve@@QAEXPAUWORLD@@@Z 10005270 f i BoxWnd.obj
 0001:000042a0       ?SetMemInWts@CDrCurve@@QAEXPAN@Z 100052a0 f i BoxWnd.obj
 0001:000042d0       ?SetMemInDP@CDrCurve@@QAEXPAUtagPOINT@@@Z 100052d0 f i BoxWnd.obj
 0001:00004300       ?SetMemOut@CDrCurve@@QAEXPAUWORLD@@@Z 10005300 f i BoxWnd.obj
 0001:00004330       ?SetMemOutWts@CDrCurve@@QAEXPAN@Z 10005330 f i BoxWnd.obj
 0001:00004360       ?SetMemOutDP@CDrCurve@@QAEXPAUtagPOINT@@@Z 10005360 f i BoxWnd.obj
 0001:00004390       ?FixMemD@CDrCurve@@QAEPANJ@Z 10005390 f i BoxWnd.obj
 0001:000043d0       ?FreeMemD@CDrCurve@@QAEXPAN@Z 100053d0 f i BoxWnd.obj
 0001:00004400       ?FixMem@CDrCurve@@QAEPAUWORLD@@J@Z 10005400 f i BoxWnd.obj
 0001:00004440       ?FreeMem@CDrCurve@@QAEXPAUWORLD@@@Z 10005440 f i BoxWnd.obj
 0001:00004470       ?FixMemDP@CDrCurve@@QAEPAUtagPOINT@@J@Z 10005470 f i BoxWnd.obj
 0001:000044b0       ?FreeMemDP@CDrCurve@@QAEXPAUtagPOINT@@@Z 100054b0 f i BoxWnd.obj
 0001:000044e0       ?GetData_S@CDrCurve@@QAEHXZ 100054e0 f i BoxWnd.obj
 0001:00004500       ?SetData_S@CDrCurve@@QAEXH@Z 10005500 f i BoxWnd.obj
 0001:00004530       ?GetOrder_S@CDrCurve@@QAEHXZ 10005530 f i BoxWnd.obj
 0001:00004550       ?SetOrder_S@CDrCurve@@QAEXH@Z 10005550 f i BoxWnd.obj
 0001:00004580       ?GetKnotType_S@CDrCurve@@QAE?AW4KNOT@@XZ 10005580 f i BoxWnd.obj
 0001:000045a0       ?SetKnotType_S@CDrCurve@@QAEXW4KNOT@@@Z 100055a0 f i BoxWnd.obj
 0001:000045d0       ?GetWtType_S@CDrCurve@@QAE?AW4WEIGHT@@XZ 100055d0 f i BoxWnd.obj
 0001:000045f0       ?SetWtType_S@CDrCurve@@QAEXW4WEIGHT@@@Z 100055f0 f i BoxWnd.obj
 0001:00004620       ?GetBCL_S@CDrCurve@@QAE?AW4BOUNDARY@@XZ 10005620 f i BoxWnd.obj
 0001:00004640       ?SetBCL_S@CDrCurve@@QAEXW4BOUNDARY@@@Z 10005640 f i BoxWnd.obj
 0001:00004670       ?GetBCR_S@CDrCurve@@QAE?AW4BOUNDARY@@XZ 10005670 f i BoxWnd.obj
 0001:00004690       ?SetBCR_S@CDrCurve@@QAEXW4BOUNDARY@@@Z 10005690 f i BoxWnd.obj
 0001:000046c0       ?GetTanL_S@CDrCurve@@QAE?AUVECTOR@@XZ 100056c0 f i BoxWnd.obj
 0001:000046f0       ?SetTanL_S@CDrCurve@@QAEXUVECTOR@@@Z 100056f0 f i BoxWnd.obj
 0001:00004720       ?GetTanR_S@CDrCurve@@QAE?AUVECTOR@@XZ 10005720 f i BoxWnd.obj
 0001:00004750       ?SetTanR_S@CDrCurve@@QAEXUVECTOR@@@Z 10005750 f i BoxWnd.obj
 0001:00004780       ?GetnCon_BS_S@CDrCurve@@QAEHXZ 10005780 f i BoxWnd.obj
 0001:000047a0       ?SetnCon_BS_S@CDrCurve@@QAEXH@Z 100057a0 f i BoxWnd.obj
 0001:000047d0       ?GetnCon_BZ_S@CDrCurve@@QAEHXZ 100057d0 f i BoxWnd.obj
 0001:000047f0       ?SetnCon_BZ_S@CDrCurve@@QAEXH@Z 100057f0 f i BoxWnd.obj
 0001:00004820       ?GetnMKnots_S@CDrCurve@@QAEHXZ 10005820 f i BoxWnd.obj
 0001:00004840       ?SetnMKnots_S@CDrCurve@@QAEXH@Z 10005840 f i BoxWnd.obj
 0001:00004870       ?GetnKnots_S@CDrCurve@@QAEHXZ 10005870 f i BoxWnd.obj
 0001:00004890       ?SetnKnots_S@CDrCurve@@QAEXH@Z 10005890 f i BoxWnd.obj
 0001:000048c0       ?GetnDim_S@CDrCurve@@QAEHXZ 100058c0 f i BoxWnd.obj
 0001:000048e0       ?SetnDim_S@CDrCurve@@QAEXH@Z 100058e0 f i BoxWnd.obj
 0001:00004910       ?GetpMKnots_S@CDrCurve@@QAEPANXZ 10005910 f i BoxWnd.obj
 0001:00004930       ?SetpMKnots_S@CDrCurve@@QAEXPAN@Z 10005930 f i BoxWnd.obj
 0001:00004960       ?GetpWts_BS_S@CDrCurve@@QAEPANXZ 10005960 f i BoxWnd.obj
 0001:00004980       ?SetpWts_BS_S@CDrCurve@@QAEXPAN@Z 10005980 f i BoxWnd.obj
 0001:000049b0       ?GetpKnots_S@CDrCurve@@QAEPANXZ 100059b0 f i BoxWnd.obj
 0001:000049d0       ?SetpKnots_S@CDrCurve@@QAEXPAN@Z 100059d0 f i BoxWnd.obj
 0001:00004a00       ?GetpWts_DT_S@CDrCurve@@QAEPANXZ 10005a00 f i BoxWnd.obj
 0001:00004a20       ?SetpWts_DT_S@CDrCurve@@QAEXPAN@Z 10005a20 f i BoxWnd.obj
 0001:00004a50       ?GetpWts_BZ_S@CDrCurve@@QAEPANXZ 10005a50 f i BoxWnd.obj
 0001:00004a70       ?SetpWts_BZ_S@CDrCurve@@QAEXPAN@Z 10005a70 f i BoxWnd.obj
 0001:00004aa0       ?GetFromIDNode_S@CDrCurve@@QAEPAVCDrNode@@XZ 10005aa0 f i BoxWnd.obj
 0001:00004ac0       ?SetFromIDNode_S@CDrCurve@@QAEXPAVCDrNode@@@Z 10005ac0 f i BoxWnd.obj
 0001:00004af0       ?GetToIDNode_S@CDrCurve@@QAEPAVCDrNode@@XZ 10005af0 f i BoxWnd.obj
 0001:00004b10       ?SetToIDNode_S@CDrCurve@@QAEXPAVCDrNode@@@Z 10005b10 f i BoxWnd.obj
 0001:00004b40       ?GetData_Ex_S@CDrCurve@@QAEHXZ 10005b40 f i BoxWnd.obj
 0001:00004b60       ?SetData_Ex_S@CDrCurve@@QAEXH@Z 10005b60 f i BoxWnd.obj
 0001:00004b90       ?IsExpanded_S@CDrCurve@@QAEHXZ 10005b90 f i BoxWnd.obj
 0001:00004bb0       ?SetExpanded_S@CDrCurve@@QAEXH@Z 10005bb0 f i BoxWnd.obj
 0001:00004be0       ?GetMaxENodes_S@CDrCurve@@QAEHXZ 10005be0 f i BoxWnd.obj
 0001:00004c00       ?SetMaxENodes_S@CDrCurve@@QAEXH@Z 10005c00 f i BoxWnd.obj
 0001:00004c30       ?GetRadius_S@CDrCurve@@QAENXZ 10005c30 f i BoxWnd.obj
 0001:00004c50       ?SetRadius_S@CDrCurve@@QAEXN@Z 10005c50 f i BoxWnd.obj
 0001:00004c80       ?GetTheta_S@CDrCurve@@QAENXZ 10005c80 f i BoxWnd.obj
 0001:00004ca0       ?SetTheta_S@CDrCurve@@QAEXN@Z 10005ca0 f i BoxWnd.obj
 0001:00004cd0       ?GetCenter_S@CDrCurve@@QAE?AUWORLD@@XZ 10005cd0 f i BoxWnd.obj
 0001:00004d00       ?SetCenter_S@CDrCurve@@QAEXUWORLD@@@Z 10005d00 f i BoxWnd.obj
 0001:00004d60       ?GetNormal_S@CDrCurve@@QAE?AUWORLD@@XZ 10005d60 f i BoxWnd.obj
 0001:00004d90       ?SetNormal_S@CDrCurve@@QAEXUWORLD@@@Z 10005d90 f i BoxWnd.obj
 0001:00004df0       ?GetSegAngle_S@CDrCurve@@QAENXZ 10005df0 f i BoxWnd.obj
 0001:00004e10       ?SetSegAngle_S@CDrCurve@@QAEXN@Z 10005e10 f i BoxWnd.obj
 0001:00004e40       ?GetCNode_CC@CDrCurve@@QAEPAVCDrNode@@XZ 10005e40 f i BoxWnd.obj
 0001:00004e60       ?SetCNode_CC@CDrCurve@@QAEXPAVCDrNode@@@Z 10005e60 f i BoxWnd.obj
 0001:00004e90       ?GetCNode_TI@CDrCurve@@QAEPAVCDrNode@@XZ 10005e90 f i BoxWnd.obj
 0001:00004eb0       ?SetCNode_TI@CDrCurve@@QAEXPAVCDrNode@@@Z 10005eb0 f i BoxWnd.obj
 0001:00004ee0       ?GetCNode_CA@CDrCurve@@QAEPAVCDrNode@@XZ 10005ee0 f i BoxWnd.obj
 0001:00004f00       ?SetCNode_CA@CDrCurve@@QAEXPAVCDrNode@@@Z 10005f00 f i BoxWnd.obj
 0001:00004f30       ?GetCNode_CB@CDrCurve@@QAEPAVCDrNode@@XZ 10005f30 f i BoxWnd.obj
 0001:00004f50       ?SetCNode_CB@CDrCurve@@QAEXPAVCDrNode@@@Z 10005f50 f i BoxWnd.obj
 0001:00004f80       ?IsHole_S@CDrCurve@@QAEHXZ 10005f80 f i BoxWnd.obj
 0001:00004fa0       ?SetHole_S@CDrCurve@@QAEXH@Z 10005fa0 f i BoxWnd.obj
 0001:00004fd0       ?GetpTangents_S@CDrCurve@@QAEPAUWORLD@@XZ 10005fd0 f i BoxWnd.obj
 0001:00004ff0       ?SetpTangents_S@CDrCurve@@QAEXPAUWORLD@@@Z 10005ff0 f i BoxWnd.obj
 0001:00005020       ?GetpCurvatures_S@CDrCurve@@QAEPANXZ 10006020 f i BoxWnd.obj
 0001:00005040       ?SetpCurvatures_S@CDrCurve@@QAEXPAN@Z 10006040 f i BoxWnd.obj
 0001:00005070       ?GetRatio_S@CDrCurve@@QAENXZ 10006070 f i BoxWnd.obj
 0001:00005090       ?SetRatio_S@CDrCurve@@QAEXN@Z 10006090 f i BoxWnd.obj
 0001:000050c0       ?IsAxisInput@CDrCurve@@QAEHXZ 100060c0 f i BoxWnd.obj
 0001:000050e0       ?SetAxisInput@CDrCurve@@QAEXH@Z 100060e0 f i BoxWnd.obj
 0001:00005110       ?GetAxis@CDrCurve@@QAEHXZ  10006110 f i BoxWnd.obj
 0001:00005130       ?SetAxis@CDrCurve@@QAEXH@Z 10006130 f i BoxWnd.obj
 0001:00005160       ?IsNegative@CDrCurve@@QAEHXZ 10006160 f i BoxWnd.obj
 0001:00005180       ?SetNegative@CDrCurve@@QAEXH@Z 10006180 f i BoxWnd.obj
 0001:000051b0       ?GetCircleType@CDrCurve@@QAE?AW4CIRCLETYPE@@XZ 100061b0 f i BoxWnd.obj
 0001:000051d0       ?SetCircleType@CDrCurve@@QAEXW4CIRCLETYPE@@@Z 100061d0 f i BoxWnd.obj
 0001:00005200       ?GetInputType@CDrCurve@@QAEHXZ 10006200 f i BoxWnd.obj
 0001:00005220       ?SetInputType@CDrCurve@@QAEXH@Z 10006220 f i BoxWnd.obj
 0001:00005250       ?IsArcType@CDrCurve@@QAEHXZ 10006250 f i BoxWnd.obj
 0001:00005270       ?SetArcType@CDrCurve@@QAEXH@Z 10006270 f i BoxWnd.obj
 0001:000052a0       ?GetElperSegList_S@CDrCurve@@QAEPAV?$CList@HH@@XZ 100062a0 f i BoxWnd.obj
 0001:000052c0       ?IsSkewed@CDrCurve@@UAEHXZ 100062c0 f i BoxWnd.obj
 0001:000052e0       ?SetSkewed@CDrCurve@@UAEXH@Z 100062e0 f i BoxWnd.obj
 0001:00005310       ?IsLinSpr@CDrCurve@@UAEHXZ 10006310 f i BoxWnd.obj
 0001:00005330       ?SetLinSpr@CDrCurve@@UAEXH@Z 10006330 f i BoxWnd.obj
 0001:00005360       ?IsLinSnu@CDrCurve@@UAEHXZ 10006360 f i BoxWnd.obj
 0001:00005380       ?SetLinSnu@CDrCurve@@UAEXH@Z 10006380 f i BoxWnd.obj
 0001:000053b0       ?CullWorld@CDrCurve@@UAEHUWORLD@@@Z 100063b0 f i BoxWnd.obj
 0001:000053d0       ?CullScreen@CDrCurve@@UAEHPAUMATRIX@@@Z 100063d0 f i BoxWnd.obj
 0001:000053f0       ?Calc_CentroidWorld@CDrCurve@@UAEXXZ 100063f0 f i BoxWnd.obj
 0001:00005410       ?Calc_CentroidEye@CDrCurve@@UAEXXZ 10006410 f i BoxWnd.obj
 0001:00005430       ?Calc_CentroidScreen3D@CDrCurve@@UAEXNN@Z 10006430 f i BoxWnd.obj
 0001:00005450       ?Calc_NormalWorld@CDrCurve@@UAEXXZ 10006450 f i BoxWnd.obj
 0001:00005470       ?TransformNormalToEye@CDrCurve@@UAEXPAUMATRIX@@@Z 10006470 f i BoxWnd.obj
 0001:00005490       ?ProjectNormalToScreen3D@CDrCurve@@UAEXPAUMATRIX@@NN@Z 10006490 f i BoxWnd.obj
 0001:000054b0       ?GetNormalWorld@CDrCurve@@UAEPAUWORLD@@XZ 100064b0 f i BoxWnd.obj
 0001:000054d0       ?SetNormalWorld@CDrCurve@@UAEXUWORLD@@@Z 100064d0 f i BoxWnd.obj
 0001:000054f0       ?GetNormalEye@CDrCurve@@UAEPAUWORLD@@XZ 100064f0 f i BoxWnd.obj
 0001:00005510       ?SetNormalEye@CDrCurve@@UAEXUWORLD@@@Z 10006510 f i BoxWnd.obj
 0001:00005530       ?GetNormalScreen3D@CDrCurve@@UAEPAUWORLD@@XZ 10006530 f i BoxWnd.obj
 0001:00005550       ?SetNormalScreen3D@CDrCurve@@UAEXUWORLD@@@Z 10006550 f i BoxWnd.obj
 0001:00005570       ?GetNormalScreen2D@CDrCurve@@UAEPAUtagPOINT@@XZ 10006570 f i BoxWnd.obj
 0001:00005590       ?SetNormalScreen2D@CDrCurve@@UAEXUtagPOINT@@@Z 10006590 f i BoxWnd.obj
 0001:000055b0       ?GetNodTopoList@CDrCurve@@QAEPAVCDListMgr@@XZ 100065b0 f i BoxWnd.obj
 0001:000055d0       ?GetSuppCardList@CDrCurve@@QAEPAV?$CList@Usupportcard@@U1@@@XZ 100065d0 f i BoxWnd.obj
 0001:000055f0       ?GetStaLCardList@CDrCurve@@QAEPAV?$CList@UstaLcard@@U1@@@XZ 100065f0 f i BoxWnd.obj
 0001:00005610       ?GetBndryPtList@CDrCurve@@QAEPAV?$CList@UWORLD@@U1@@@XZ 10006610 f i BoxWnd.obj
 0001:00005630       ?GetBezierType@CDrCurve@@QAE?AW4BEZIERTYPE@@XZ 10006630 f i BoxWnd.obj
 0001:00005650       ?SetBezierType@CDrCurve@@QAEXW4BEZIERTYPE@@@Z 10006650 f i BoxWnd.obj
 0001:00005680       ?IsSubDivided@CTriangle@@UAEHXZ 10006680 f i BoxWnd.obj
 0001:000056a0       ?SetSubDivided@CTriangle@@UAEXH@Z 100066a0 f i BoxWnd.obj
 0001:000056c0       ?GetSubTriangleIndex@CTriangle@@UAEHH@Z 100066c0 f i BoxWnd.obj
 0001:000056e0       ?SetSubTriangleIndex@CTriangle@@UAEXHH@Z 100066e0 f i BoxWnd.obj
 0001:00005710       ?GetType@CTriangle@@UAEHXZ 10006710 f i BoxWnd.obj
 0001:00005730       ?SetType@CTriangle@@UAEXH@Z 10006730 f i BoxWnd.obj
 0001:00005750       ?GetCNIndexList@CTriangle@@UAEPAV?$CList@HH@@XZ 10006750 f i BoxWnd.obj
 0001:00005770       ?GetPatIndex@CTriangle@@UAEHXZ 10006770 f i BoxWnd.obj
 0001:00005790       ?SetPatIndex@CTriangle@@UAEXH@Z 10006790 f i BoxWnd.obj
 0001:000057b0       ?GetDegree@CTriangle@@UAEHXZ 100067b0 f i BoxWnd.obj
 0001:000057d0       ?SetDegree@CTriangle@@UAEXH@Z 100067d0 f i BoxWnd.obj
 0001:000057f0       ?GetVertexIndex@CTriangle@@UAEHH@Z 100067f0 f i BoxWnd.obj
 0001:00005810       ?SetVertexIndex@CTriangle@@UAEXHH@Z 10006810 f i BoxWnd.obj
 0001:00005840       ?GetVertexIndex@CTriangle@@UAEPAHXZ 10006840 f i BoxWnd.obj
 0001:00005860       ?GetNebrVertexIndex@CTriangle@@UAEHH@Z 10006860 f i BoxWnd.obj
 0001:00005880       ?SetNebrVertexIndex@CTriangle@@UAEXHH@Z 10006880 f i BoxWnd.obj
 0001:000058b0       ?GetNebrVertexIndex@CTriangle@@UAEPAHXZ 100068b0 f i BoxWnd.obj
 0001:000058d0       ?GetNebrTriangleIndex@CTriangle@@UAEHH@Z 100068d0 f i BoxWnd.obj
 0001:000058f0       ?SetNebrTriangleIndex@CTriangle@@UAEXHH@Z 100068f0 f i BoxWnd.obj
 0001:00005920       ?GetNebrTriangleIndex@CTriangle@@UAEPAHXZ 10006920 f i BoxWnd.obj
 0001:00005940       ?GetOutSeg@CTriangle@@UAEHXZ 10006940 f i BoxWnd.obj
 0001:00005960       ?SetOutSeg@CTriangle@@UAEXH@Z 10006960 f i BoxWnd.obj
 0001:00005980       ?GetiOutGlo@CTriangle@@UAEHXZ 10006980 f i BoxWnd.obj
 0001:000059a0       ?SetiOutGlo@CTriangle@@UAEXH@Z 100069a0 f i BoxWnd.obj
 0001:000059d0       ?GetjOutGlo@CTriangle@@UAEHXZ 100069d0 f i BoxWnd.obj
 0001:000059f0       ?SetjOutGlo@CTriangle@@UAEXH@Z 100069f0 f i BoxWnd.obj
 0001:00005a20       ??1CTriangle@@UAE@XZ       10006a20 f i BoxWnd.obj
 0001:00005a80       ??_GCTriangle@@UAEPAXI@Z   10006a80 f i BoxWnd.obj
 0001:00005ac0       ??_ECTriangle@@UAEPAXI@Z   10006ac0 f i BoxWnd.obj
 0001:00005b40       ?GetCategory@CDrPatch@@UAE?AW4CATEGORY@@XZ 10006b40 f i BoxWnd.obj
 0001:00005b60       ?SetCategory@CDrPatch@@UAEXW4CATEGORY@@@Z 10006b60 f i BoxWnd.obj
 0001:00005b80       ?IsNormalNeeded@CDrPatch@@UAEHXZ 10006b80 f i BoxWnd.obj
 0001:00005ba0       ?SetNormalNeed@CDrPatch@@UAEXH@Z 10006ba0 f i BoxWnd.obj
 0001:00005bd0       ?GetCurveType_T@CDrPatch@@QAE?AW4CURVEPROC@@XZ 10006bd0 f i BoxWnd.obj
 0001:00005bf0       ?SetCurveType_T@CDrPatch@@QAEXW4CURVEPROC@@@Z 10006bf0 f i BoxWnd.obj
 0001:00005c20       ?GetOutSegUnif_T@CDrPatch@@QAEHXZ 10006c20 f i BoxWnd.obj
 0001:00005c40       ?SetOutSegUnif_T@CDrPatch@@QAEXH@Z 10006c40 f i BoxWnd.obj
 0001:00005c70       ?IsClosed_T@CDrPatch@@QAEHXZ 10006c70 f i BoxWnd.obj
 0001:00005c90       ?SetClosed_T@CDrPatch@@QAEXH@Z 10006c90 f i BoxWnd.obj
 0001:00005cc0       ?GetMaxBezSegments_T@CDrPatch@@QAEHXZ 10006cc0 f i BoxWnd.obj
 0001:00005ce0       ?SetMaxBezSegments_T@CDrPatch@@QAEXH@Z 10006ce0 f i BoxWnd.obj
 0001:00005d10       ?GetMaxCNodes_T@CDrPatch@@QAEHXZ 10006d10 f i BoxWnd.obj
 0001:00005d30       ?SetMaxCNodes_T@CDrPatch@@QAEXH@Z 10006d30 f i BoxWnd.obj
 0001:00005d60       ?GetMaxOutPts_T@CDrPatch@@QAEHXZ 10006d60 f i BoxWnd.obj
 0001:00005d80       ?SetMaxOutPts_T@CDrPatch@@QAEXH@Z 10006d80 f i BoxWnd.obj
 0001:00005db0       ?GetNodes_S@CDrPatch@@QAEHXZ 10006db0 f i BoxWnd.obj
 0001:00005dd0       ?SetNodes_S@CDrPatch@@QAEXH@Z 10006dd0 f i BoxWnd.obj
 0001:00005e00       ?GetNodes_T@CDrPatch@@QAEHXZ 10006e00 f i BoxWnd.obj
 0001:00005e20       ?SetNodes_T@CDrPatch@@QAEXH@Z 10006e20 f i BoxWnd.obj
 0001:00005e50       ?GetPrimaryDir@CDrPatch@@QAEHXZ 10006e50 f i BoxWnd.obj
 0001:00005e70       ?SetPrimaryDir@CDrPatch@@QAEXH@Z 10006e70 f i BoxWnd.obj
 0001:00005ea0       ?GetBlendCurve@CDrPatch@@QAEPAVCDrCurve@@XZ 10006ea0 f i BoxWnd.obj
 0001:00005ec0       ?SetBlendCurve@CDrPatch@@QAEXPAVCDrCurve@@@Z 10006ec0 f i BoxWnd.obj
 0001:00005ef0       ?GetBlendCurve_U@CDrPatch@@QAEPAVCDrCurve@@XZ 10006ef0 f i BoxWnd.obj
 0001:00005f10       ?SetBlendCurve_U@CDrPatch@@QAEXPAVCDrCurve@@@Z 10006f10 f i BoxWnd.obj
 0001:00005f40       ?GetBlendCurve_V@CDrPatch@@QAEPAVCDrCurve@@XZ 10006f40 f i BoxWnd.obj
 0001:00005f60       ?SetBlendCurve_V@CDrPatch@@QAEXPAVCDrCurve@@@Z 10006f60 f i BoxWnd.obj
 0001:00005f90       ?GetBlendCurve_W@CDrPatch@@QAEPAVCDrCurve@@XZ 10006f90 f i BoxWnd.obj
 0001:00005fb0       ?SetBlendCurve_W@CDrPatch@@QAEXPAVCDrCurve@@@Z 10006fb0 f i BoxWnd.obj
 0001:00005fe0       ?GetVCurveList@CDrPatch@@QAEPAVCDListMgr@@XZ 10006fe0 f i BoxWnd.obj
 0001:00006000       ?GetCurveList_U@CDrPatch@@QAEPAVCDListMgr@@XZ 10007000 f i BoxWnd.obj
 0001:00006020       ?GetCurveList_V@CDrPatch@@QAEPAVCDListMgr@@XZ 10007020 f i BoxWnd.obj
 0001:00006040       ?GetCurveList_W@CDrPatch@@QAEPAVCDListMgr@@XZ 10007040 f i BoxWnd.obj
 0001:00006060       ?GetCurveLatchList_U@CDrPatch@@QAEPAV?$CList@W4CURVELATCH@@W41@@@XZ 10007060 f i BoxWnd.obj
 0001:00006080       ?GetCurveLatchList_V@CDrPatch@@QAEPAV?$CList@W4CURVELATCH@@W41@@@XZ 10007080 f i BoxWnd.obj
 0001:000060a0       ?GetCurveLatchList_W@CDrPatch@@QAEPAV?$CList@W4CURVELATCH@@W41@@@XZ 100070a0 f i BoxWnd.obj
 0001:000060c0       ?IsAdvancedEnd_U@CDrPatch@@QAEHXZ 100070c0 f i BoxWnd.obj
 0001:000060e0       ?SetAdvancedEnd_U@CDrPatch@@QAEXH@Z 100070e0 f i BoxWnd.obj
 0001:00006110       ?GetCornerTwist_U@CDrPatch@@QAEPAY01UWORLD@@XZ 10007110 f i BoxWnd.obj
 0001:00006130       ?SetCornerTwist_U@CDrPatch@@QAEXPAY01UWORLD@@@Z 10007130 f i BoxWnd.obj
 0001:00006160       ?GetTwistMethod_U@CDrPatch@@QAE?AW4TWIST@@XZ 10007160 f i BoxWnd.obj
 0001:00006180       ?SetTwistMethod_U@CDrPatch@@QAEXW4TWIST@@@Z 10007180 f i BoxWnd.obj
 0001:000061b0       ?IsAdvancedEnd_V@CDrPatch@@QAEHXZ 100071b0 f i BoxWnd.obj
 0001:000061d0       ?SetAdvancedEnd_V@CDrPatch@@QAEXH@Z 100071d0 f i BoxWnd.obj
 0001:00006200       ?GetCornerTwist_V@CDrPatch@@QAEPAY01UWORLD@@XZ 10007200 f i BoxWnd.obj
 0001:00006220       ?SetCornerTwist_V@CDrPatch@@QAEXPAY01UWORLD@@@Z 10007220 f i BoxWnd.obj
 0001:00006250       ?GetTwistMethod_V@CDrPatch@@QAE?AW4TWIST@@XZ 10007250 f i BoxWnd.obj
 0001:00006270       ?SetTwistMethod_V@CDrPatch@@QAEXW4TWIST@@@Z 10007270 f i BoxWnd.obj
 0001:000062a0       ?GetEndList_U@CDrPatch@@QAEPAV?$CList@Ublendend@@U1@@@XZ 100072a0 f i BoxWnd.obj
 0001:000062c0       ?GetEndList_V@CDrPatch@@QAEPAV?$CList@Ublendend@@U1@@@XZ 100072c0 f i BoxWnd.obj
 0001:000062e0       ?GetElperSegList_T@CDrPatch@@QAEPAV?$CList@HH@@XZ 100072e0 f i BoxWnd.obj
 0001:00006300       ?GetCurveID@CDrPatch@@QAE?AVCString@@H@Z 10007300 f i BoxWnd.obj
 0001:00006340       ?SetCurveID@CDrPatch@@QAEXVCString@@H@Z 10007340 f i BoxWnd.obj
 0001:000063a0       ?GetBndryCurve@CDrPatch@@QAEPAVCDrCurve@@H@Z 100073a0 f i BoxWnd.obj
 0001:000063d0       ?SetCurve@CDrPatch@@QAEXPAVCDrCurve@@H@Z 100073d0 f i BoxWnd.obj
 0001:00006400       ?GetCurveLatch@CDrPatch@@QAE?AW4CURVELATCH@@H@Z 10007400 f i BoxWnd.obj
 0001:00006430       ?SetCurveLatch@CDrPatch@@QAEXW4CURVELATCH@@H@Z 10007430 f i BoxWnd.obj
 0001:00006460       ?GetFromIDNode_T@CDrPatch@@QAEPAVCDrNode@@XZ 10007460 f i BoxWnd.obj
 0001:00006480       ?SetFromIDNode_T@CDrPatch@@QAEXPAVCDrNode@@@Z 10007480 f i BoxWnd.obj
 0001:000064b0       ?GetToIDNode_T@CDrPatch@@QAEPAVCDrNode@@XZ 100074b0 f i BoxWnd.obj
 0001:000064d0       ?SetToIDNode_T@CDrPatch@@QAEXPAVCDrNode@@@Z 100074d0 f i BoxWnd.obj
 0001:00006500       ?GetFromPtLocal_T@CDrPatch@@QAEPAUWORLD@@XZ 10007500 f i BoxWnd.obj
 0001:00006520       ?SetFromPtLocal_T@CDrPatch@@QAEXUWORLD@@@Z 10007520 f i BoxWnd.obj
 0001:00006550       ?GetToPtLocal_T@CDrPatch@@QAEPAUWORLD@@XZ 10007550 f i BoxWnd.obj
 0001:00006570       ?SetToPtLocal_T@CDrPatch@@QAEXUWORLD@@@Z 10007570 f i BoxWnd.obj
 0001:000065a0       ?GetFromPtWorld_T@CDrPatch@@QAEPAUWORLD@@XZ 100075a0 f i BoxWnd.obj
 0001:000065c0       ?SetFromPtWorld_T@CDrPatch@@QAEXUWORLD@@@Z 100075c0 f i BoxWnd.obj
 0001:000065f0       ?GetToPtWorld_T@CDrPatch@@QAEPAUWORLD@@XZ 100075f0 f i BoxWnd.obj
 0001:00006610       ?SetToPtWorld_T@CDrPatch@@QAEXUWORLD@@@Z 10007610 f i BoxWnd.obj
 0001:00006640       ?GetFromPtEye_T@CDrPatch@@QAEPAUWORLD@@XZ 10007640 f i BoxWnd.obj
 0001:00006660       ?SetFromPtEye_T@CDrPatch@@QAEXUWORLD@@@Z 10007660 f i BoxWnd.obj
 0001:00006690       ?GetToPtEye_T@CDrPatch@@QAEPAUWORLD@@XZ 10007690 f i BoxWnd.obj
 0001:000066b0       ?SetToPtEye_T@CDrPatch@@QAEXUWORLD@@@Z 100076b0 f i BoxWnd.obj
 0001:000066e0       ?GetAxis_T@CDrPatch@@QAEPAUWORLD@@XZ 100076e0 f i BoxWnd.obj
 0001:00006700       ?SetAxis_T@CDrPatch@@QAEXUWORLD@@@Z 10007700 f i BoxWnd.obj
 0001:00006730       ?GetExtruType_T@CDrPatch@@QAEHXZ 10007730 f i BoxWnd.obj
 0001:00006750       ?SetExtruType_T@CDrPatch@@QAEXH@Z 10007750 f i BoxWnd.obj
 0001:00006780       ?GetLength_T@CDrPatch@@QAENXZ 10007780 f i BoxWnd.obj
 0001:000067a0       ?SetLength_T@CDrPatch@@QAEXN@Z 100077a0 f i BoxWnd.obj
 0001:000067d0       ?GetWorldLength_T@CDrPatch@@QAE?AUWORLD@@XZ 100077d0 f i BoxWnd.obj
 0001:00006800       ?SetWorldLength_T@CDrPatch@@QAEXUWORLD@@@Z 10007800 f i BoxWnd.obj
 0001:00006830       ?GetSegs_T@CDrPatch@@QAEHXZ 10007830 f i BoxWnd.obj
 0001:00006850       ?SetSegs_T@CDrPatch@@QAEXH@Z 10007850 f i BoxWnd.obj
 0001:00006880       ?IsAxisInput_T@CDrPatch@@QAEHXZ 10007880 f i BoxWnd.obj
 0001:000068a0       ?SetAxisInput_T@CDrPatch@@QAEXH@Z 100078a0 f i BoxWnd.obj
 0001:000068d0       ?GetAxisType_T@CDrPatch@@QAEHXZ 100078d0 f i BoxWnd.obj
 0001:000068f0       ?SetAxisType_T@CDrPatch@@QAEXH@Z 100078f0 f i BoxWnd.obj
 0001:00006920       ?IsNegative_T@CDrPatch@@QAEHXZ 10007920 f i BoxWnd.obj
 0001:00006940       ?SetNegative_T@CDrPatch@@QAEXH@Z 10007940 f i BoxWnd.obj
 0001:00006970       ?GetCircleType_T@CDrPatch@@QAE?AW4CIRCLETYPE@@XZ 10007970 f i BoxWnd.obj
 0001:00006990       ?SetCircleType_T@CDrPatch@@QAEXW4CIRCLETYPE@@@Z 10007990 f i BoxWnd.obj
 0001:000069c0       ?GetAng_1_T@CDrPatch@@QAENXZ 100079c0 f i BoxWnd.obj
 0001:000069e0       ?SetAng_1_T@CDrPatch@@QAEXN@Z 100079e0 f i BoxWnd.obj
 0001:00006a10       ?GetAng_2_T@CDrPatch@@QAENXZ 10007a10 f i BoxWnd.obj
 0001:00006a30       ?SetAng_2_T@CDrPatch@@QAEXN@Z 10007a30 f i BoxWnd.obj
 0001:00006a60       ?GetPatchProc@CDrPatch@@QAE?AW4PATCHPROC@@XZ 10007a60 f i BoxWnd.obj
 0001:00006a80       ?SetPatchProc@CDrPatch@@QAEXW4PATCHPROC@@@Z 10007a80 f i BoxWnd.obj
 0001:00006ab0       ?GetPatchType@CDrPatch@@QAE?AW4PATCHTYPE@@XZ 10007ab0 f i BoxWnd.obj
 0001:00006ad0       ?SetPatchType@CDrPatch@@QAEXW4PATCHTYPE@@@Z 10007ad0 f i BoxWnd.obj
 0001:00006b00       ?GetPatSubType@CDrPatch@@QAE?AW4PATSUBTYPE@@XZ 10007b00 f i BoxWnd.obj
 0001:00006b20       ?SetPatSubType@CDrPatch@@QAEXW4PATSUBTYPE@@@Z 10007b20 f i BoxWnd.obj
 0001:00006b50       ?GetOut_S@CDrPatch@@QAEHXZ 10007b50 f i BoxWnd.obj
 0001:00006b70       ?SetOut_S@CDrPatch@@QAEXH@Z 10007b70 f i BoxWnd.obj
 0001:00006ba0       ?GetOut_T@CDrPatch@@QAEHXZ 10007ba0 f i BoxWnd.obj
 0001:00006bc0       ?SetOut_T@CDrPatch@@QAEXH@Z 10007bc0 f i BoxWnd.obj
 0001:00006bf0       ?GetTotalElems@CDrPatch@@QAEJXZ 10007bf0 f i BoxWnd.obj
 0001:00006c10       ?SetTotalElems@CDrPatch@@QAEXJ@Z 10007c10 f i BoxWnd.obj
 0001:00006c40       ?GetPtrTangents_S@CDrPatch@@QAEPAUWORLD@@XZ 10007c40 f i BoxWnd.obj
 0001:00006c60       ?GetPtrTangents_T@CDrPatch@@QAEPAUWORLD@@XZ 10007c60 f i BoxWnd.obj
 0001:00006c80       ?GetPtrNormals@CDrPatch@@QAEPAUWORLD@@XZ 10007c80 f i BoxWnd.obj
 0001:00006ca0       ?GetPtrTwists@CDrPatch@@QAEPAUWORLD@@XZ 10007ca0 f i BoxWnd.obj
 0001:00006cc0       ?GetMemIn@CDrPatch@@UAEPAUWORLD@@H@Z 10007cc0 f i BoxWnd.obj
 0001:00006cf0       ?SetMemIn@CDrPatch@@UAEXPAUWORLD@@H@Z 10007cf0 f i BoxWnd.obj
 0001:00006d20       ?SetMemIn@CDrPatch@@UAEXPAUWORLD@@@Z 10007d20 f i BoxWnd.obj
 0001:00006d50       ?SetMemInDP@CDrPatch@@UAEXPAUtagPOINT@@@Z 10007d50 f i BoxWnd.obj
 0001:00006d80       ?SetMemOut@CDrPatch@@UAEXPAUWORLD@@@Z 10007d80 f i BoxWnd.obj
 0001:00006db0       ?SetMemOutDP@CDrPatch@@UAEXPAUtagPOINT@@@Z 10007db0 f i BoxWnd.obj
 0001:00006de0       ?IsUniform_T@CDrPatch@@QAEHXZ 10007de0 f i BoxWnd.obj
 0001:00006e00       ?SetUniform_T@CDrPatch@@QAEXH@Z 10007e00 f i BoxWnd.obj
 0001:00006e30       ?GetClass_T@CDrPatch@@QAEHXZ 10007e30 f i BoxWnd.obj
 0001:00006e50       ?SetClass_T@CDrPatch@@QAEXH@Z 10007e50 f i BoxWnd.obj
 0001:00006e80       ?GetOrder_T@CDrPatch@@QAEHXZ 10007e80 f i BoxWnd.obj
 0001:00006ea0       ?SetOrder_T@CDrPatch@@QAEXH@Z 10007ea0 f i BoxWnd.obj
 0001:00006ed0       ?GetnDim_T@CDrPatch@@QAEHXZ 10007ed0 f i BoxWnd.obj
 0001:00006ef0       ?SetnDim_T@CDrPatch@@QAEXH@Z 10007ef0 f i BoxWnd.obj
 0001:00006f20       ?GetOutMethod_T@CDrPatch@@QAE?AW4PATCHOUTPUT@@XZ 10007f20 f i BoxWnd.obj
 0001:00006f40       ?SetOutMethod_T@CDrPatch@@QAEXW4PATCHOUTPUT@@@Z 10007f40 f i BoxWnd.obj
 0001:00006f70       ?GetMaxOutSeg_T@CDrPatch@@QAEHXZ 10007f70 f i BoxWnd.obj
 0001:00006f90       ?SetMaxOutSeg_T@CDrPatch@@QAEXH@Z 10007f90 f i BoxWnd.obj
 0001:00006fc0       ?GetNum_tPointer_T@CDrPatch@@QAEPAHXZ 10007fc0 f i BoxWnd.obj
 0001:00006fe0       ?SetNum_tPointer_T@CDrPatch@@QAEXPAH@Z 10007fe0 f i BoxWnd.obj
 0001:00007010       ?GetDis_tPointer_T@CDrPatch@@QAEPANXZ 10008010 f i BoxWnd.obj
 0001:00007030       ?SetDis_tPointer_T@CDrPatch@@QAEXPAN@Z 10008030 f i BoxWnd.obj
 0001:00007060       ?GetNum_tPointer_Ex_T@CDrPatch@@QAEPAHXZ 10008060 f i BoxWnd.obj
 0001:00007080       ?SetNum_tPointer_Ex_T@CDrPatch@@QAEXPAH@Z 10008080 f i BoxWnd.obj
 0001:000070b0       ?GetDis_AngPointer_T@CDrPatch@@QAEPANXZ 100080b0 f i BoxWnd.obj
 0001:000070d0       ?SetDis_AngPointer_T@CDrPatch@@QAEXPAN@Z 100080d0 f i BoxWnd.obj
 0001:00007100       ?GetData_Ex_T@CDrPatch@@QAEHXZ 10008100 f i BoxWnd.obj
 0001:00007120       ?SetData_Ex_T@CDrPatch@@QAEXH@Z 10008120 f i BoxWnd.obj
 0001:00007150       ?IsExpanded_T@CDrPatch@@QAEHXZ 10008150 f i BoxWnd.obj
 0001:00007170       ?SetExpanded_T@CDrPatch@@QAEXH@Z 10008170 f i BoxWnd.obj
 0001:000071a0       ?GetMaxENodes_T@CDrPatch@@QAEHXZ 100081a0 f i BoxWnd.obj
 0001:000071c0       ?SetMaxENodes_T@CDrPatch@@QAEXH@Z 100081c0 f i BoxWnd.obj
 0001:000071f0       ?GetRadius_T@CDrPatch@@QAENXZ 100081f0 f i BoxWnd.obj
 0001:00007210       ?SetRadius_T@CDrPatch@@QAEXN@Z 10008210 f i BoxWnd.obj
 0001:00007240       ?GetTheta_T@CDrPatch@@QAENXZ 10008240 f i BoxWnd.obj
 0001:00007260       ?SetTheta_T@CDrPatch@@QAEXN@Z 10008260 f i BoxWnd.obj
 0001:00007290       ?GetCenter_T@CDrPatch@@QAE?AUWORLD@@XZ 10008290 f i BoxWnd.obj
 0001:000072c0       ?SetCenter_T@CDrPatch@@QAEXUWORLD@@@Z 100082c0 f i BoxWnd.obj
 0001:00007320       ?GetNormal_T@CDrPatch@@QAE?AUWORLD@@XZ 10008320 f i BoxWnd.obj
 0001:00007350       ?SetNormal_T@CDrPatch@@QAEXUWORLD@@@Z 10008350 f i BoxWnd.obj
 0001:000073b0       ?GetSegAngle_T@CDrPatch@@QAENXZ 100083b0 f i BoxWnd.obj
 0001:000073d0       ?SetSegAngle_T@CDrPatch@@QAEXN@Z 100083d0 f i BoxWnd.obj
 0001:00007400       ?IsHole_T@CDrPatch@@QAEHXZ 10008400 f i BoxWnd.obj
 0001:00007420       ?SetHole_T@CDrPatch@@QAEXH@Z 10008420 f i BoxWnd.obj
 0001:00007450       ?GetpTangents_T@CDrPatch@@QAEPAUWORLD@@XZ 10008450 f i BoxWnd.obj
 0001:00007470       ?SetpTangents_T@CDrPatch@@QAEXPAUWORLD@@@Z 10008470 f i BoxWnd.obj
 0001:000074a0       ?GetpCurvatures_T@CDrPatch@@QAEPANXZ 100084a0 f i BoxWnd.obj
 0001:000074c0       ?SetpCurvatures_T@CDrPatch@@QAEXPAN@Z 100084c0 f i BoxWnd.obj
 0001:000074f0       ?GetRatio_T@CDrPatch@@QAENXZ 100084f0 f i BoxWnd.obj
 0001:00007510       ?SetRatio_T@CDrPatch@@QAEXN@Z 10008510 f i BoxWnd.obj
 0001:00007540       ?GetTwistType_T@CDrPatch@@QAEHXZ 10008540 f i BoxWnd.obj
 0001:00007560       ?SetTwistType_T@CDrPatch@@QAEXH@Z 10008560 f i BoxWnd.obj
 0001:00007590       ?GetTwistList_T@CDrPatch@@QAEPAV?$CList@NN@@XZ 10008590 f i BoxWnd.obj
 0001:000075b0       ?GetScaleType_T@CDrPatch@@QAEHXZ 100085b0 f i BoxWnd.obj
 0001:000075d0       ?SetScaleType_T@CDrPatch@@QAEXH@Z 100085d0 f i BoxWnd.obj
 0001:00007600       ?GetScaleList_T@CDrPatch@@QAEPAV?$CList@NN@@XZ 10008600 f i BoxWnd.obj
 0001:00007620       ?IsIncTwist_T@CDrPatch@@QAEHXZ 10008620 f i BoxWnd.obj
 0001:00007640       ?SetIncTwist_T@CDrPatch@@QAEXH@Z 10008640 f i BoxWnd.obj
 0001:00007670       ?GetTwistMult_T@CDrPatch@@QAENXZ 10008670 f i BoxWnd.obj
 0001:00007690       ?SetTwistMult_T@CDrPatch@@QAEXN@Z 10008690 f i BoxWnd.obj
 0001:000076c0       ?GetTwistStart_T@CDrPatch@@QAENXZ 100086c0 f i BoxWnd.obj
 0001:000076e0       ?SetTwistStart_T@CDrPatch@@QAEXN@Z 100086e0 f i BoxWnd.obj
 0001:00007710       ?IsIncScale_T@CDrPatch@@QAEHXZ 10008710 f i BoxWnd.obj
 0001:00007730       ?SetIncScale_T@CDrPatch@@QAEXH@Z 10008730 f i BoxWnd.obj
 0001:00007760       ?GetScaleMult_T@CDrPatch@@QAENXZ 10008760 f i BoxWnd.obj
 0001:00007780       ?SetScaleMult_T@CDrPatch@@QAEXN@Z 10008780 f i BoxWnd.obj
 0001:000077b0       ?GetScaleStart_T@CDrPatch@@QAENXZ 100087b0 f i BoxWnd.obj
 0001:000077d0       ?SetScaleStart_T@CDrPatch@@QAEXN@Z 100087d0 f i BoxWnd.obj
 0001:00007800       ?GetWorldTwistMult_T@CDrPatch@@QAE?AUWORLD@@XZ 10008800 f i BoxWnd.obj
 0001:00007830       ?SetWorldTwistMult_T@CDrPatch@@QAEXUWORLD@@@Z 10008830 f i BoxWnd.obj
 0001:00007860       ?GetWorldTwistStart_T@CDrPatch@@QAE?AUWORLD@@XZ 10008860 f i BoxWnd.obj
 0001:00007890       ?SetWorldTwistStart_T@CDrPatch@@QAEXUWORLD@@@Z 10008890 f i BoxWnd.obj
 0001:000078c0       ?GetWorldScaleMult_T@CDrPatch@@QAE?AUWORLD@@XZ 100088c0 f i BoxWnd.obj
 0001:000078f0       ?SetWorldScaleMult_T@CDrPatch@@QAEXUWORLD@@@Z 100088f0 f i BoxWnd.obj
 0001:00007920       ?GetWorldScaleStart_T@CDrPatch@@QAE?AUWORLD@@XZ 10008920 f i BoxWnd.obj
 0001:00007950       ?SetWorldScaleStart_T@CDrPatch@@QAEXUWORLD@@@Z 10008950 f i BoxWnd.obj
 0001:00007980       ?GetTriangleList@CDrPatch@@UAEPAVCDListMgr@@XZ 10008980 f i BoxWnd.obj
 0001:000079a0       ?GetnOutGlo_S@CDrPatch@@QAEHXZ 100089a0 f i BoxWnd.obj
 0001:000079c0       ?SetnOutGlo_S@CDrPatch@@QAEXH@Z 100089c0 f i BoxWnd.obj
 0001:000079f0       ?IsGenBCurve@CDrPatch@@QAEHXZ 100089f0 f i BoxWnd.obj
 0001:00007a10       ?SetGenBCurve@CDrPatch@@QAEXH@Z 10008a10 f i BoxWnd.obj
 0001:00007a40       ?IsEndCondMode@CSheet_PATI@@QAEHXZ 10008a40 f i BoxWnd.obj
 0001:00007a60       ?SetEndCondMode@CSheet_PATI@@QAEXH@Z 10008a60 f i BoxWnd.obj
 0001:00007a90       ?Parse_drPipe@CDrFE1D@@UAEXPAVCString@@@Z 10008a90 f i BoxWnd.obj
 0001:00007ab0       ?DoFormattedCardView@CDrFE1D@@UAEXPAVCString@@AAV2@@Z 10008ab0 f i BoxWnd.obj
 0001:00007ad0       ?DoUnFormattedCardView@CDrFE1D@@UAEXPAVCString@@@Z 10008ad0 f i BoxWnd.obj
 0001:00007af0       ?GetMaxCorners@CDrFE1D@@UAEHXZ 10008af0 f i BoxWnd.obj
 0001:00007b10       ?GetMemIn@CDrFE1D@@UAEPAUWORLD@@XZ 10008b10 f i BoxWnd.obj
 0001:00007b30       ?GetMemInWts@CDrFE1D@@UAEPANXZ 10008b30 f i BoxWnd.obj
 0001:00007b50       ?GetMemInDP@CDrFE1D@@UAEPAUtagPOINT@@XZ 10008b50 f i BoxWnd.obj
 0001:00007b70       ?GetMemOut@CDrFE1D@@UAEPAUWORLD@@XZ 10008b70 f i BoxWnd.obj
 0001:00007b90       ?GetMemOutWts@CDrFE1D@@UAEPANXZ 10008b90 f i BoxWnd.obj
 0001:00007bb0       ?GetMemOutDP@CDrFE1D@@UAEPAUtagPOINT@@XZ 10008bb0 f i BoxWnd.obj
 0001:00007bd0       ?SetMemIn@CDrFE1D@@UAEXPAUWORLD@@@Z 10008bd0 f i BoxWnd.obj
 0001:00007c00       ?SetMemInWts@CDrFE1D@@UAEXPAN@Z 10008c00 f i BoxWnd.obj
 0001:00007c30       ?SetMemInDP@CDrFE1D@@UAEXPAUtagPOINT@@@Z 10008c30 f i BoxWnd.obj
 0001:00007c60       ?SetMemOut@CDrFE1D@@UAEXPAUWORLD@@@Z 10008c60 f i BoxWnd.obj
 0001:00007c90       ?SetMemOutWts@CDrFE1D@@UAEXPAN@Z 10008c90 f i BoxWnd.obj
 0001:00007cc0       ?SetMemOutDP@CDrFE1D@@UAEXPAUtagPOINT@@@Z 10008cc0 f i BoxWnd.obj
 0001:00007cf0       ?FixMemD@CDrFE1D@@UAEPANJ@Z 10008cf0 f i BoxWnd.obj
 0001:00007d30       ?FreeMemD@CDrFE1D@@UAEXPAN@Z 10008d30 f i BoxWnd.obj
 0001:00007d60       ?FixMem@CDrFE1D@@UAEPAUWORLD@@J@Z 10008d60 f i BoxWnd.obj
 0001:00007da0       ?FreeMem@CDrFE1D@@UAEXPAUWORLD@@@Z 10008da0 f i BoxWnd.obj
 0001:00007dd0       ?FixMemDP@CDrFE1D@@UAEPAUtagPOINT@@J@Z 10008dd0 f i BoxWnd.obj
 0001:00007e10       ?FreeMemDP@CDrFE1D@@UAEXPAUtagPOINT@@@Z 10008e10 f i BoxWnd.obj
 0001:00007e40       ?GetnNodes@CDrFE1D@@QAEFXZ 10008e40 f i BoxWnd.obj
 0001:00007e60       ?SetnNodes@CDrFE1D@@QAEXF@Z 10008e60 f i BoxWnd.obj
 0001:00007e90       ?GetEdgeDegree@CDrFE1D@@QAEFXZ 10008e90 f i BoxWnd.obj
 0001:00007eb0       ?SetEdgeDegree@CDrFE1D@@QAEXF@Z 10008eb0 f i BoxWnd.obj
 0001:00007ee0       ?GetElNumID@CDrFE1D@@QAEAAVCString@@XZ 10008ee0 f i BoxWnd.obj
 0001:00007f00       ?SetElNumID@CDrFE1D@@QAEXVCString@@@Z 10008f00 f i BoxWnd.obj
 0001:00007f60       ?GetElTypeID@CDrFE1D@@QAEAAVCString@@XZ 10008f60 f i BoxWnd.obj
 0001:00007f80       ?SetElTypeID@CDrFE1D@@QAEXVCString@@@Z 10008f80 f i BoxWnd.obj
 0001:00007fe0       ?Getline_id@CDrFE1D@@QAEAAVCString@@XZ 10008fe0 f i BoxWnd.obj
 0001:00008000       ?Setline_id@CDrFE1D@@QAEXVCString@@@Z 10009000 f i BoxWnd.obj
 0001:00008060       ?Getrid@CDrFE1D@@UAEAAVCString@@H@Z 10009060 f i BoxWnd.obj
 0001:00008090       ?Setrid@CDrFE1D@@UAEXVCString@@H@Z 10009090 f i BoxWnd.obj
 0001:000080f0       ?Getpid@CDrFE1D@@QAEAAVCString@@XZ 100090f0 f i BoxWnd.obj
 0001:00008110       ?Setpid@CDrFE1D@@QAEXVCString@@@Z 10009110 f i BoxWnd.obj
 0001:00008170       ?Getmid@CDrFE1D@@QAEAAVCString@@XZ 10009170 f i BoxWnd.obj
 0001:00008190       ?Setmid@CDrFE1D@@QAEXVCString@@@Z 10009190 f i BoxWnd.obj
 0001:000081f0       ?GetElNum@CDrFE1D@@QAEIXZ  100091f0 f i BoxWnd.obj
 0001:00008210       ?SetElNum@CDrFE1D@@QAEXI@Z 10009210 f i BoxWnd.obj
 0001:00008240       ?GetElTypeNum@CDrFE1D@@QAEIXZ 10009240 f i BoxWnd.obj
 0001:00008260       ?SetElTypeNum@CDrFE1D@@QAEXI@Z 10009260 f i BoxWnd.obj
 0001:00008290       ?Getline_no@CDrFE1D@@QAEIXZ 10009290 f i BoxWnd.obj
 0001:000082b0       ?Setline_no@CDrFE1D@@QAEXI@Z 100092b0 f i BoxWnd.obj
 0001:000082e0       ?Getrel@CDrFE1D@@UAEIH@Z   100092e0 f i BoxWnd.obj
 0001:00008310       ?Setrel@CDrFE1D@@UAEXIH@Z  10009310 f i BoxWnd.obj
 0001:00008340       ?Getprop@CDrFE1D@@QAEIXZ   10009340 f i BoxWnd.obj
 0001:00008360       ?Setprop@CDrFE1D@@QAEXI@Z  10009360 f i BoxWnd.obj
 0001:00008390       ?Getmat@CDrFE1D@@QAEIXZ    10009390 f i BoxWnd.obj
 0001:000083b0       ?Setmat@CDrFE1D@@QAEXI@Z   100093b0 f i BoxWnd.obj
 0001:000083e0       ?Getnumseg@CDrFE1D@@QAEIXZ 100093e0 f i BoxWnd.obj
 0001:00008400       ?Setnumseg@CDrFE1D@@QAEXI@Z 10009400 f i BoxWnd.obj
 0001:00008430       ?GetRefTemp@CDrFE1D@@QAENXZ 10009430 f i BoxWnd.obj
 0001:00008450       ?SetRefTemp@CDrFE1D@@QAEXN@Z 10009450 f i BoxWnd.obj
 0001:00008480       ?GetCardNo@CDrFE1D@@QAEIXZ 10009480 f i BoxWnd.obj
 0001:000084a0       ?SetCardNo@CDrFE1D@@QAEXI@Z 100094a0 f i BoxWnd.obj
 0001:000084d0       ?GetCenter@CDrFE1D@@UAE?AUtagPOINT@@XZ 100094d0 f i BoxWnd.obj
 0001:00008500       ?SetCenter@CDrFE1D@@UAEXUtagPOINT@@@Z 10009500 f i BoxWnd.obj
 0001:00008530       ?Parse_drPipe@CDrFE2D@@UAEXPAVCString@@@Z 10009530 f i BoxWnd.obj
 0001:00008550       ?DoFormattedCardView@CDrFE2D@@UAEXPAVCString@@AAV2@@Z 10009550 f i BoxWnd.obj
 0001:00008570       ?DoUnFormattedCardView@CDrFE2D@@UAEXPAVCString@@@Z 10009570 f i BoxWnd.obj
 0001:00008590       ?GetMaxCorners@CDrFE2D@@UAEHXZ 10009590 f i BoxWnd.obj
 0001:000085b0       ?GetCentroidScreen2D@CDrFE2D@@UAEPAUtagPOINT@@XZ 100095b0 f i BoxWnd.obj
 0001:000085d0       ?SetCentroidScreen2D@CDrFE2D@@UAEXUtagPOINT@@@Z 100095d0 f i BoxWnd.obj
 0001:00008600       ?GetCentroidScreen3D@CDrFE2D@@UAEPAUWORLD@@XZ 10009600 f i BoxWnd.obj
 0001:00008620       ?SetCentroidScreen3D@CDrFE2D@@UAEXUWORLD@@@Z 10009620 f i BoxWnd.obj
 0001:00008650       ?GetCentroidEye@CDrFE2D@@UAEPAUWORLD@@XZ 10009650 f i BoxWnd.obj
 0001:00008670       ?SetCentroidEye@CDrFE2D@@UAEXUWORLD@@@Z 10009670 f i BoxWnd.obj
 0001:000086a0       ?GetCentroidWorld@CDrFE2D@@UAEPAUWORLD@@XZ 100096a0 f i BoxWnd.obj
 0001:000086c0       ?SetCentroidWorld@CDrFE2D@@UAEXUWORLD@@@Z 100096c0 f i BoxWnd.obj
 0001:000086f0       ?GetCentroidZdepth@CDrFE2D@@UAENXZ 100096f0 f i BoxWnd.obj
 0001:00008710       ?SetCentroidZdepth@CDrFE2D@@UAEXN@Z 10009710 f i BoxWnd.obj
 0001:00008740       ?GetNormalWorld@CDrFE2D@@UAEPAUWORLD@@XZ 10009740 f i BoxWnd.obj
 0001:00008760       ?SetNormalWorld@CDrFE2D@@UAEXUWORLD@@@Z 10009760 f i BoxWnd.obj
 0001:00008790       ?GetNormalEye@CDrFE2D@@UAEPAUWORLD@@XZ 10009790 f i BoxWnd.obj
 0001:000087b0       ?SetNormalEye@CDrFE2D@@UAEXUWORLD@@@Z 100097b0 f i BoxWnd.obj
 0001:000087e0       ?GetNormalScreen3D@CDrFE2D@@UAEPAUWORLD@@XZ 100097e0 f i BoxWnd.obj
 0001:00008800       ?SetNormalScreen3D@CDrFE2D@@UAEXUWORLD@@@Z 10009800 f i BoxWnd.obj
 0001:00008830       ?GetNormalScreen2D@CDrFE2D@@UAEPAUtagPOINT@@XZ 10009830 f i BoxWnd.obj
 0001:00008850       ?SetNormalScreen2D@CDrFE2D@@UAEXUtagPOINT@@@Z 10009850 f i BoxWnd.obj
 0001:00008880       ?IsCulled@CDrFE2D@@UAEHXZ  10009880 f i BoxWnd.obj
 0001:000088a0       ?SetCulled@CDrFE2D@@UAEXH@Z 100098a0 f i BoxWnd.obj
 0001:000088d0       ?GetnNodes@CDrFE2D@@QAEFXZ 100098d0 f i BoxWnd.obj
 0001:000088f0       ?SetnNodes@CDrFE2D@@QAEXF@Z 100098f0 f i BoxWnd.obj
 0001:00008920       ?GetnEdgeNodes@CDrFE2D@@QAEFXZ 10009920 f i BoxWnd.obj
 0001:00008940       ?SetnEdgeNodes@CDrFE2D@@QAEXF@Z 10009940 f i BoxWnd.obj
 0001:00008970       ?GetElNumID@CDrFE2D@@QAEAAVCString@@XZ 10009970 f i BoxWnd.obj
 0001:00008990       ?SetElNumID@CDrFE2D@@QAEXVCString@@@Z 10009990 f i BoxWnd.obj
 0001:000089f0       ?GetElTypeID@CDrFE2D@@QAEAAVCString@@XZ 100099f0 f i BoxWnd.obj
 0001:00008a10       ?SetElTypeID@CDrFE2D@@QAEXVCString@@@Z 10009a10 f i BoxWnd.obj
 0001:00008a70       ?Getline_id@CDrFE2D@@QAEAAVCString@@XZ 10009a70 f i BoxWnd.obj
 0001:00008a90       ?Setline_id@CDrFE2D@@QAEXVCString@@@Z 10009a90 f i BoxWnd.obj
 0001:00008af0       ?Getpid@CDrFE2D@@QAEAAVCString@@XZ 10009af0 f i BoxWnd.obj
 0001:00008b10       ?Setpid@CDrFE2D@@QAEXVCString@@@Z 10009b10 f i BoxWnd.obj
 0001:00008b70       ?Getmid@CDrFE2D@@QAEAAVCString@@XZ 10009b70 f i BoxWnd.obj
 0001:00008b90       ?Setmid@CDrFE2D@@QAEXVCString@@@Z 10009b90 f i BoxWnd.obj
 0001:00008bf0       ?GetElNum@CDrFE2D@@QAEIXZ  10009bf0 f i BoxWnd.obj
 0001:00008c10       ?SetElNum@CDrFE2D@@QAEXI@Z 10009c10 f i BoxWnd.obj
 0001:00008c40       ?GetElTypeNum@CDrFE2D@@QAEIXZ 10009c40 f i BoxWnd.obj
 0001:00008c60       ?SetElTypeNum@CDrFE2D@@QAEXI@Z 10009c60 f i BoxWnd.obj
 0001:00008c90       ?Getline_no@CDrFE2D@@QAEIXZ 10009c90 f i BoxWnd.obj
 0001:00008cb0       ?Setline_no@CDrFE2D@@QAEXI@Z 10009cb0 f i BoxWnd.obj
 0001:00008ce0       ?Getprop@CDrFE2D@@QAEIXZ   10009ce0 f i BoxWnd.obj
 0001:00008d00       ?Setprop@CDrFE2D@@QAEXI@Z  10009d00 f i BoxWnd.obj
 0001:00008d30       ?Getmat@CDrFE2D@@QAEIXZ    10009d30 f i BoxWnd.obj
 0001:00008d50       ?Setmat@CDrFE2D@@QAEXI@Z   10009d50 f i BoxWnd.obj
 0001:00008d80       ?Getnumseg@CDrFE2D@@QAEIXZ 10009d80 f i BoxWnd.obj
 0001:00008da0       ?Setnumseg@CDrFE2D@@QAEXI@Z 10009da0 f i BoxWnd.obj
 0001:00008dd0       ?GetRefTemp@CDrFE2D@@QAENXZ 10009dd0 f i BoxWnd.obj
 0001:00008df0       ?SetRefTemp@CDrFE2D@@QAEXN@Z 10009df0 f i BoxWnd.obj
 0001:00008e20       ?GetCardNo@CDrFE2D@@QAEIXZ 10009e20 f i BoxWnd.obj
 0001:00008e40       ?SetCardNo@CDrFE2D@@QAEXI@Z 10009e40 f i BoxWnd.obj
 0001:00008e70       ?GetCenter@CDrFE2D@@UAE?AUtagPOINT@@XZ 10009e70 f i BoxWnd.obj
 0001:00008ea0       ?SetCenter@CDrFE2D@@UAEXUtagPOINT@@@Z 10009ea0 f i BoxWnd.obj
 0001:00008ed0       ?IsPosiEdge@CDrFE2D@@QAEHH@Z 10009ed0 f i BoxWnd.obj
 0001:00008f00       ?SetPosiEdge@CDrFE2D@@QAEXHH@Z 10009f00 f i BoxWnd.obj
 0001:00008f30       ?Getrid@CDrFE2D@@UAEAAVCString@@H@Z 10009f30 f i BoxWnd.obj
 0001:00008f60       ?Setrid@CDrFE2D@@UAEXVCString@@H@Z 10009f60 f i BoxWnd.obj
 0001:00008fc0       ?Getrel@CDrFE2D@@UAEIH@Z   10009fc0 f i BoxWnd.obj
 0001:00008ff0       ?Setrel@CDrFE2D@@UAEXIH@Z  10009ff0 f i BoxWnd.obj
 0001:00009020       ?GetnCorners@CDrFE2D@@UAEFXZ 1000a020 f i BoxWnd.obj
 0001:00009040       ?SetnCorners@CDrFE2D@@UAEXF@Z 1000a040 f i BoxWnd.obj
 0001:00009070       ?GetnEdges@CDrFE2D@@UAEFXZ 1000a070 f i BoxWnd.obj
 0001:00009090       ?SetnEdges@CDrFE2D@@UAEXF@Z 1000a090 f i BoxWnd.obj
 0001:000090c0       ?GetElDegree@CDrFE2D@@UAE?AW4ELEM_DEGREE@@XZ 1000a0c0 f i BoxWnd.obj
 0001:000090e0       ?SetElDegree@CDrFE2D@@UAEXW4ELEM_DEGREE@@@Z 1000a0e0 f i BoxWnd.obj
 0001:00009110       ?GetEdgeDegrees@CDrFE2D@@UAEFH@Z 1000a110 f i BoxWnd.obj
 0001:00009140       ?SetEdgeDegrees@CDrFE2D@@UAEXFH@Z 1000a140 f i BoxWnd.obj
 0001:00009170       ?GetThkness@CDrFE2D@@UAENXZ 1000a170 f i BoxWnd.obj
 0001:00009190       ?SetThkness@CDrFE2D@@UAEXN@Z 1000a190 f i BoxWnd.obj
 0001:000091c0       ?IsNormalNeeded@CDrSolid@@UAEHXZ 1000a1c0 f i BoxWnd.obj
 0001:000091e0       ?SetNormalNeed@CDrSolid@@UAEXH@Z 1000a1e0 f i BoxWnd.obj
 0001:00009210       ?GetCurveType_R@CDrSolid@@QAE?AW4CURVEPROC@@XZ 1000a210 f i BoxWnd.obj
 0001:00009230       ?SetCurveType_R@CDrSolid@@QAEXW4CURVEPROC@@@Z 1000a230 f i BoxWnd.obj
 0001:00009260       ?GetOutSegUnif_R@CDrSolid@@QAEHXZ 1000a260 f i BoxWnd.obj
 0001:00009280       ?SetOutSegUnif_R@CDrSolid@@QAEXH@Z 1000a280 f i BoxWnd.obj
 0001:000092b0       ?IsClosed_R@CDrSolid@@QAEHXZ 1000a2b0 f i BoxWnd.obj
 0001:000092d0       ?SetClosed_R@CDrSolid@@QAEXH@Z 1000a2d0 f i BoxWnd.obj
 0001:00009300       ?GetSolidObjectType@CDrSolid@@QAEHXZ 1000a300 f i BoxWnd.obj
 0001:00009320       ?SetSolidObjectType@CDrSolid@@QAEXH@Z 1000a320 f i BoxWnd.obj
 0001:00009350       ?GetMaxBezSegments_R@CDrSolid@@QAEHXZ 1000a350 f i BoxWnd.obj
 0001:00009370       ?SetMaxBezSegments_R@CDrSolid@@QAEXH@Z 1000a370 f i BoxWnd.obj
 0001:000093a0       ?GetMaxCNodes_R@CDrSolid@@QAEHXZ 1000a3a0 f i BoxWnd.obj
 0001:000093c0       ?SetMaxCNodes_R@CDrSolid@@QAEXH@Z 1000a3c0 f i BoxWnd.obj
 0001:000093f0       ?GetMaxOutPts_R@CDrSolid@@QAEHXZ 1000a3f0 f i BoxWnd.obj
 0001:00009410       ?SetMaxOutPts_R@CDrSolid@@QAEXH@Z 1000a410 f i BoxWnd.obj
 0001:00009440       ?GetPatchID@CDrSolid@@QAE?AVCString@@H@Z 1000a440 f i BoxWnd.obj
 0001:00009480       ?SetPatchID@CDrSolid@@QAEXVCString@@H@Z 1000a480 f i BoxWnd.obj
 0001:000094e0       ?GetFromIDNode_R@CDrSolid@@QAEPAVCDrNode@@XZ 1000a4e0 f i BoxWnd.obj
 0001:00009500       ?SetFromIDNode_R@CDrSolid@@QAEXPAVCDrNode@@@Z 1000a500 f i BoxWnd.obj
 0001:00009530       ?GetToIDNode_R@CDrSolid@@QAEPAVCDrNode@@XZ 1000a530 f i BoxWnd.obj
 0001:00009550       ?SetToIDNode_R@CDrSolid@@QAEXPAVCDrNode@@@Z 1000a550 f i BoxWnd.obj
 0001:00009580       ?GetFromPtLocal_R@CDrSolid@@QAEPAUWORLD@@XZ 1000a580 f i BoxWnd.obj
 0001:000095a0       ?SetFromPtLocal_R@CDrSolid@@QAEXUWORLD@@@Z 1000a5a0 f i BoxWnd.obj
 0001:000095d0       ?GetToPtLocal_R@CDrSolid@@QAEPAUWORLD@@XZ 1000a5d0 f i BoxWnd.obj
 0001:000095f0       ?SetToPtLocal_R@CDrSolid@@QAEXUWORLD@@@Z 1000a5f0 f i BoxWnd.obj
 0001:00009620       ?GetFromPtWorld_R@CDrSolid@@QAEPAUWORLD@@XZ 1000a620 f i BoxWnd.obj
 0001:00009640       ?SetFromPtWorld_R@CDrSolid@@QAEXUWORLD@@@Z 1000a640 f i BoxWnd.obj
 0001:00009670       ?GetToPtWorld_R@CDrSolid@@QAEPAUWORLD@@XZ 1000a670 f i BoxWnd.obj
 0001:00009690       ?SetToPtWorld_R@CDrSolid@@QAEXUWORLD@@@Z 1000a690 f i BoxWnd.obj
 0001:000096c0       ?GetFromPtEye_R@CDrSolid@@QAEPAUWORLD@@XZ 1000a6c0 f i BoxWnd.obj
 0001:000096e0       ?SetFromPtEye_R@CDrSolid@@QAEXUWORLD@@@Z 1000a6e0 f i BoxWnd.obj
 0001:00009710       ?GetToPtEye_R@CDrSolid@@QAEPAUWORLD@@XZ 1000a710 f i BoxWnd.obj
 0001:00009730       ?SetToPtEye_R@CDrSolid@@QAEXUWORLD@@@Z 1000a730 f i BoxWnd.obj
 0001:00009760       ?GetAxis_R@CDrSolid@@QAEPAUWORLD@@XZ 1000a760 f i BoxWnd.obj
 0001:00009780       ?SetAxis_R@CDrSolid@@QAEXUWORLD@@@Z 1000a780 f i BoxWnd.obj
 0001:000097b0       ?GetExtruType_R@CDrSolid@@QAEHXZ 1000a7b0 f i BoxWnd.obj
 0001:000097d0       ?SetExtruType_R@CDrSolid@@QAEXH@Z 1000a7d0 f i BoxWnd.obj
 0001:00009800       ?GetLength_R@CDrSolid@@QAENXZ 1000a800 f i BoxWnd.obj
 0001:00009820       ?SetLength_R@CDrSolid@@QAEXN@Z 1000a820 f i BoxWnd.obj
 0001:00009850       ?GetWorldLength_R@CDrSolid@@QAE?AUWORLD@@XZ 1000a850 f i BoxWnd.obj
 0001:00009880       ?SetWorldLength_R@CDrSolid@@QAEXUWORLD@@@Z 1000a880 f i BoxWnd.obj
 0001:000098b0       ?GetSegs_R@CDrSolid@@QAEHXZ 1000a8b0 f i BoxWnd.obj
 0001:000098d0       ?SetSegs_R@CDrSolid@@QAEXH@Z 1000a8d0 f i BoxWnd.obj
 0001:00009900       ?GetSolidProc@CDrSolid@@QAE?AW4SOLIDPROC@@XZ 1000a900 f i BoxWnd.obj
 0001:00009920       ?SetSolidProc@CDrSolid@@QAEXW4SOLIDPROC@@@Z 1000a920 f i BoxWnd.obj
 0001:00009950       ?GetSolidType@CDrSolid@@QAE?AW4SOLIDTYPE@@XZ 1000a950 f i BoxWnd.obj
 0001:00009970       ?SetSolidType@CDrSolid@@QAEXW4SOLIDTYPE@@@Z 1000a970 f i BoxWnd.obj
 0001:000099a0       ?GetSolSubType@CDrSolid@@QAE?AW4SOLSUBTYPE@@XZ 1000a9a0 f i BoxWnd.obj
 0001:000099c0       ?SetSolSubType@CDrSolid@@QAEXW4SOLSUBTYPE@@@Z 1000a9c0 f i BoxWnd.obj
 0001:000099f0       ?GetOut_R@CDrSolid@@QAEHXZ 1000a9f0 f i BoxWnd.obj
 0001:00009a10       ?SetOut_R@CDrSolid@@QAEXH@Z 1000aa10 f i BoxWnd.obj
 0001:00009a40       ?IsUniform_R@CDrSolid@@QAEHXZ 1000aa40 f i BoxWnd.obj
 0001:00009a60       ?SetUniform_R@CDrSolid@@QAEXH@Z 1000aa60 f i BoxWnd.obj
 0001:00009a90       ?GetOrder_R@CDrSolid@@QAEHXZ 1000aa90 f i BoxWnd.obj
 0001:00009ab0       ?SetOrder_R@CDrSolid@@QAEXH@Z 1000aab0 f i BoxWnd.obj
 0001:00009ae0       ?GetnDim_R@CDrSolid@@QAEHXZ 1000aae0 f i BoxWnd.obj
 0001:00009b00       ?SetnDim_R@CDrSolid@@QAEXH@Z 1000ab00 f i BoxWnd.obj
 0001:00009b30       ?GetOutMethod_R@CDrSolid@@QAE?AW4SOLIDOUTPUT@@XZ 1000ab30 f i BoxWnd.obj
 0001:00009b50       ?SetOutMethod_R@CDrSolid@@QAEXW4SOLIDOUTPUT@@@Z 1000ab50 f i BoxWnd.obj
 0001:00009b80       ?GetMaxOutSeg_R@CDrSolid@@QAEHXZ 1000ab80 f i BoxWnd.obj
 0001:00009ba0       ?SetMaxOutSeg_R@CDrSolid@@QAEXH@Z 1000aba0 f i BoxWnd.obj
 0001:00009bd0       ?GetNum_tPointer_R@CDrSolid@@QAEPAHXZ 1000abd0 f i BoxWnd.obj
 0001:00009bf0       ?SetNum_tPointer_R@CDrSolid@@QAEXPAH@Z 1000abf0 f i BoxWnd.obj
 0001:00009c20       ?GetDis_tPointer_R@CDrSolid@@QAEPANXZ 1000ac20 f i BoxWnd.obj
 0001:00009c40       ?SetDis_tPointer_R@CDrSolid@@QAEXPAN@Z 1000ac40 f i BoxWnd.obj
 0001:00009c70       ?GetNum_tPointer_Ex_R@CDrSolid@@QAEPAHXZ 1000ac70 f i BoxWnd.obj
 0001:00009c90       ?SetNum_tPointer_Ex_R@CDrSolid@@QAEXPAH@Z 1000ac90 f i BoxWnd.obj
 0001:00009cc0       ?GetDis_AngPointer_R@CDrSolid@@QAEPANXZ 1000acc0 f i BoxWnd.obj
 0001:00009ce0       ?SetDis_AngPointer_R@CDrSolid@@QAEXPAN@Z 1000ace0 f i BoxWnd.obj
 0001:00009d10       ?GetNum_tPointer_ST@CDrSolid@@QAEPAHXZ 1000ad10 f i BoxWnd.obj
 0001:00009d30       ?SetNum_tPointer_ST@CDrSolid@@QAEXPAH@Z 1000ad30 f i BoxWnd.obj
 0001:00009d60       ?GetDis_tPointer_ST@CDrSolid@@QAEPANXZ 1000ad60 f i BoxWnd.obj
 0001:00009d80       ?SetDis_tPointer_ST@CDrSolid@@QAEXPAN@Z 1000ad80 f i BoxWnd.obj
 0001:00009db0       ?GetNum_tPointer_Ex_ST@CDrSolid@@QAEPAHXZ 1000adb0 f i BoxWnd.obj
 0001:00009dd0       ?SetNum_tPointer_Ex_ST@CDrSolid@@QAEXPAH@Z 1000add0 f i BoxWnd.obj
 0001:00009e00       ?GetDis_AngPointer_ST@CDrSolid@@QAEPANXZ 1000ae00 f i BoxWnd.obj
 0001:00009e20       ?SetDis_AngPointer_ST@CDrSolid@@QAEXPAN@Z 1000ae20 f i BoxWnd.obj
 0001:00009e50       ?GetData_Ex_R@CDrSolid@@QAEHXZ 1000ae50 f i BoxWnd.obj
 0001:00009e70       ?SetData_Ex_R@CDrSolid@@QAEXH@Z 1000ae70 f i BoxWnd.obj
 0001:00009ea0       ?IsExpanded_R@CDrSolid@@QAEHXZ 1000aea0 f i BoxWnd.obj
 0001:00009ec0       ?SetExpanded_R@CDrSolid@@QAEXH@Z 1000aec0 f i BoxWnd.obj
 0001:00009ef0       ?GetMaxENodes_R@CDrSolid@@QAEHXZ 1000aef0 f i BoxWnd.obj
 0001:00009f10       ?SetMaxENodes_R@CDrSolid@@QAEXH@Z 1000af10 f i BoxWnd.obj
 0001:00009f40       ?GetRadius_R@CDrSolid@@QAENXZ 1000af40 f i BoxWnd.obj
 0001:00009f60       ?SetRadius_R@CDrSolid@@QAEXN@Z 1000af60 f i BoxWnd.obj
 0001:00009f90       ?GetTheta_R@CDrSolid@@QAENXZ 1000af90 f i BoxWnd.obj
 0001:00009fb0       ?SetTheta_R@CDrSolid@@QAEXN@Z 1000afb0 f i BoxWnd.obj
 0001:00009fe0       ?GetCenter_R@CDrSolid@@QAE?AUWORLD@@XZ 1000afe0 f i BoxWnd.obj
 0001:0000a010       ?SetCenter_R@CDrSolid@@QAEXUWORLD@@@Z 1000b010 f i BoxWnd.obj
 0001:0000a070       ?GetNormal_R@CDrSolid@@QAE?AUWORLD@@XZ 1000b070 f i BoxWnd.obj
 0001:0000a0a0       ?SetNormal_R@CDrSolid@@QAEXUWORLD@@@Z 1000b0a0 f i BoxWnd.obj
 0001:0000a100       ?GetSegAngle_R@CDrSolid@@QAENXZ 1000b100 f i BoxWnd.obj
 0001:0000a120       ?SetSegAngle_R@CDrSolid@@QAEXN@Z 1000b120 f i BoxWnd.obj
 0001:0000a150       ?IsHole_R@CDrSolid@@QAEHXZ 1000b150 f i BoxWnd.obj
 0001:0000a170       ?SetHole_R@CDrSolid@@QAEXH@Z 1000b170 f i BoxWnd.obj
 0001:0000a1a0       ?GetpTangents_R@CDrSolid@@QAEPAUWORLD@@XZ 1000b1a0 f i BoxWnd.obj
 0001:0000a1c0       ?SetpTangents_R@CDrSolid@@QAEXPAUWORLD@@@Z 1000b1c0 f i BoxWnd.obj
 0001:0000a1f0       ?GetpCurvatures_R@CDrSolid@@QAEPANXZ 1000b1f0 f i BoxWnd.obj
 0001:0000a210       ?SetpCurvatures_R@CDrSolid@@QAEXPAN@Z 1000b210 f i BoxWnd.obj
 0001:0000a240       ?GetRatio_R@CDrSolid@@QAENXZ 1000b240 f i BoxWnd.obj
 0001:0000a260       ?SetRatio_R@CDrSolid@@QAEXN@Z 1000b260 f i BoxWnd.obj
 0001:0000a290       ?GetTwistType_R@CDrSolid@@QAEHXZ 1000b290 f i BoxWnd.obj
 0001:0000a2b0       ?SetTwistType_R@CDrSolid@@QAEXH@Z 1000b2b0 f i BoxWnd.obj
 0001:0000a2e0       ?GetTwistList_R@CDrSolid@@QAEPAV?$CList@NN@@XZ 1000b2e0 f i BoxWnd.obj
 0001:0000a300       ?GetScaleType_R@CDrSolid@@QAEHXZ 1000b300 f i BoxWnd.obj
 0001:0000a320       ?SetScaleType_R@CDrSolid@@QAEXH@Z 1000b320 f i BoxWnd.obj
 0001:0000a350       ?GetScaleList_R@CDrSolid@@QAEPAV?$CList@NN@@XZ 1000b350 f i BoxWnd.obj
 0001:0000a370       ?IsIncTwist_R@CDrSolid@@QAEHXZ 1000b370 f i BoxWnd.obj
 0001:0000a390       ?SetIncTwist_R@CDrSolid@@QAEXH@Z 1000b390 f i BoxWnd.obj
 0001:0000a3c0       ?GetTwistMult_R@CDrSolid@@QAENXZ 1000b3c0 f i BoxWnd.obj
 0001:0000a3e0       ?SetTwistMult_R@CDrSolid@@QAEXN@Z 1000b3e0 f i BoxWnd.obj
 0001:0000a410       ?GetTwistStart_R@CDrSolid@@QAENXZ 1000b410 f i BoxWnd.obj
 0001:0000a430       ?SetTwistStart_R@CDrSolid@@QAEXN@Z 1000b430 f i BoxWnd.obj
 0001:0000a460       ?IsIncScale_R@CDrSolid@@QAEHXZ 1000b460 f i BoxWnd.obj
 0001:0000a480       ?SetIncScale_R@CDrSolid@@QAEXH@Z 1000b480 f i BoxWnd.obj
 0001:0000a4b0       ?GetScaleMult_R@CDrSolid@@QAENXZ 1000b4b0 f i BoxWnd.obj
 0001:0000a4d0       ?SetScaleMult_R@CDrSolid@@QAEXN@Z 1000b4d0 f i BoxWnd.obj
 0001:0000a500       ?GetScaleStart_R@CDrSolid@@QAENXZ 1000b500 f i BoxWnd.obj
 0001:0000a520       ?SetScaleStart_R@CDrSolid@@QAEXN@Z 1000b520 f i BoxWnd.obj
 0001:0000a550       ?GetPentaList@CDrSolid@@QAEPAVCDListMgr@@XZ 1000b550 f i BoxWnd.obj
 0001:0000a570       ?GetnTriangles_ST@CDrSolid@@QAEHXZ 1000b570 f i BoxWnd.obj
 0001:0000a590       ?SetnTriangles_ST@CDrSolid@@QAEXH@Z 1000b590 f i BoxWnd.obj
 0001:0000a5c0       ?GetElperSegList_R@CDrSolid@@QAEPAV?$CList@HH@@XZ 1000b5c0 f i BoxWnd.obj
 0001:0000a5e0       ?IsGenBPatch@CDrSolid@@QAEHXZ 1000b5e0 f i BoxWnd.obj
 0001:0000a600       ?SetGenBPatch@CDrSolid@@QAEXH@Z 1000b600 f i BoxWnd.obj
 0001:0000a630       ?GetVPatchList@CDrSolid@@QAEPAVCDListMgr@@XZ 1000b630 f i BoxWnd.obj
 0001:0000a650       ?GetPatchList_U@CDrSolid@@QAEPAVCDListMgr@@XZ 1000b650 f i BoxWnd.obj
 0001:0000a670       ?GetPatchList_V@CDrSolid@@QAEPAVCDListMgr@@XZ 1000b670 f i BoxWnd.obj
 0001:0000a690       ?GetPatchList_W@CDrSolid@@QAEPAVCDListMgr@@XZ 1000b690 f i BoxWnd.obj
 0001:0000a6b0       ?GetPatchLatchList_U@CDrSolid@@QAEPAV?$CList@W4PATCHLATCH@@W41@@@XZ 1000b6b0 f i BoxWnd.obj
 0001:0000a6d0       ?GetPatchLatchList_V@CDrSolid@@QAEPAV?$CList@W4PATCHLATCH@@W41@@@XZ 1000b6d0 f i BoxWnd.obj
 0001:0000a6f0       ?GetPatchLatchList_W@CDrSolid@@QAEPAV?$CList@W4PATCHLATCH@@W41@@@XZ 1000b6f0 f i BoxWnd.obj
 0001:0000a710       ?IsAxisInput_R@CDrSolid@@QAEHXZ 1000b710 f i BoxWnd.obj
 0001:0000a730       ?SetAxisInput_R@CDrSolid@@QAEXH@Z 1000b730 f i BoxWnd.obj
 0001:0000a760       ?GetAxisType_R@CDrSolid@@QAEHXZ 1000b760 f i BoxWnd.obj
 0001:0000a780       ?SetAxisType_R@CDrSolid@@QAEXH@Z 1000b780 f i BoxWnd.obj
 0001:0000a7b0       ?IsNegative_R@CDrSolid@@QAEHXZ 1000b7b0 f i BoxWnd.obj
 0001:0000a7d0       ?SetNegative_R@CDrSolid@@QAEXH@Z 1000b7d0 f i BoxWnd.obj
 0001:0000a800       ?GetCircleType_R@CDrSolid@@QAE?AW4CIRCLETYPE@@XZ 1000b800 f i BoxWnd.obj
 0001:0000a820       ?SetCircleType_R@CDrSolid@@QAEXW4CIRCLETYPE@@@Z 1000b820 f i BoxWnd.obj
 0001:0000a850       ?GetAng_1_R@CDrSolid@@QAENXZ 1000b850 f i BoxWnd.obj
 0001:0000a870       ?SetAng_1_R@CDrSolid@@QAEXN@Z 1000b870 f i BoxWnd.obj
 0001:0000a8a0       ?GetAng_2_R@CDrSolid@@QAENXZ 1000b8a0 f i BoxWnd.obj
 0001:0000a8c0       ?SetAng_2_R@CDrSolid@@QAEXN@Z 1000b8c0 f i BoxWnd.obj
 0001:0000a8f0       ?IsEndCondMode@CSheet_SOLI@@QAEHXZ 1000b8f0 f i BoxWnd.obj
 0001:0000a910       ?SetEndCondMode@CSheet_SOLI@@QAEXH@Z 1000b910 f i BoxWnd.obj
 0001:0000a940       ?IsTackled@CDrObj3D@@QAEHXZ 1000b940 f i BoxWnd.obj
 0001:0000a960       ?SetTackled@CDrObj3D@@QAEXH@Z 1000b960 f i BoxWnd.obj
 0001:0000a990       ??1CDlg_O3DI@@UAE@XZ       1000b990 f i BoxWnd.obj
 0001:0000a9f0       ??1CDlg_SupI@@UAE@XZ       1000b9f0 f i BoxWnd.obj
 0001:0000aa50       ?Parse_drPipe@CDrLinSup@@UAEPAUsupportcard@@PAVCString@@@Z 1000ba50 f i BoxWnd.obj
 0001:0000aa70       ?GetSuppCard@CDrLinSup@@UAEPAUsupportcard@@XZ 1000ba70 f i BoxWnd.obj
 0001:0000aa90       ?GetCardNo@CDrLinSup@@UAEHXZ 1000ba90 f i BoxWnd.obj
 0001:0000aab0       ?SetCardNo@CDrLinSup@@UAEXH@Z 1000bab0 f i BoxWnd.obj
 0001:0000aae0       ?GetLabelNo@CDrLinSup@@QAEJXZ 1000bae0 f i BoxWnd.obj
 0001:0000ab00       ?SetLabelNo@CDrLinSup@@QAEXJ@Z 1000bb00 f i BoxWnd.obj
 0001:0000ab30       ?GetnPts@CDrLinSup@@QAEHH@Z 1000bb30 f i BoxWnd.obj
 0001:0000ab60       ?GetpLoc@CDrLinSup@@QAEPAUWORLD@@H@Z 1000bb60 f i BoxWnd.obj
 0001:0000ab90       ?IsSkewed@CDrLinSup@@UAEHXZ 1000bb90 f i BoxWnd.obj
 0001:0000abb0       ?SetSkewed@CDrLinSup@@UAEXH@Z 1000bbb0 f i BoxWnd.obj
 0001:0000abe0       ?GetSkewMat@CDrLinSup@@QAEPAUMATRIX@@XZ 1000bbe0 f i BoxWnd.obj
 0001:0000ac00       ?SetSkewMat@CDrLinSup@@QAEXPAUMATRIX@@@Z 1000bc00 f i BoxWnd.obj
 0001:0000ac30       ?GetCreateBase@CDrLinSup@@QAEIXZ 1000bc30 f i BoxWnd.obj
 0001:0000ac50       ?SetCreateBase@CDrLinSup@@QAEXI@Z 1000bc50 f i BoxWnd.obj
 0001:0000ac80       ?IsTriangle@CDrLinSup@@QAEHXZ 1000bc80 f i BoxWnd.obj
 0001:0000aca0       ?SetTriangle@CDrLinSup@@QAEXH@Z 1000bca0 f i BoxWnd.obj
 0001:0000acd0       ?IsPentaHed@CDrLinSup@@QAEHXZ 1000bcd0 f i BoxWnd.obj
 0001:0000acf0       ?SetPentaHed@CDrLinSup@@QAEXH@Z 1000bcf0 f i BoxWnd.obj
 0001:0000ad20       ?GetCreate_i@CDrLinSup@@QAEHXZ 1000bd20 f i BoxWnd.obj
 0001:0000ad40       ?SetCreate_i@CDrLinSup@@QAEXH@Z 1000bd40 f i BoxWnd.obj
 0001:0000ad70       ?GetCreate_j@CDrLinSup@@QAEHXZ 1000bd70 f i BoxWnd.obj
 0001:0000ad90       ?SetCreate_j@CDrLinSup@@QAEXH@Z 1000bd90 f i BoxWnd.obj
 0001:0000adc0       ?GetCreate_k@CDrLinSup@@QAEHXZ 1000bdc0 f i BoxWnd.obj
 0001:0000ade0       ?SetCreate_k@CDrLinSup@@QAEXH@Z 1000bde0 f i BoxWnd.obj
 0001:0000ae10       ?GetNodPos@CDrLinSup@@QAEPAUWORLD@@XZ 1000be10 f i BoxWnd.obj
 0001:0000ae30       ?SetNodPos@CDrLinSup@@QAEXAAUWORLD@@@Z 1000be30 f i BoxWnd.obj
 0001:0000ae60       ?Parse_drPipe@CDrStatic@@UAEPAUstaLcard@@PAVCString@@@Z 1000be60 f i BoxWnd.obj
 0001:0000ae80       ?GetCardNo@CDrStatic@@QAEHXZ 1000be80 f i BoxWnd.obj
 0001:0000aea0       ?SetCardNo@CDrStatic@@QAEXH@Z 1000bea0 f i BoxWnd.obj
 0001:0000aed0       ?GetStaLCard@CDrStatic@@QAEPAUstaLcard@@XZ 1000bed0 f i BoxWnd.obj
 0001:0000aef0       ?GetNodeList@CDrStatic@@QAEPAVCDListMgr@@XZ 1000bef0 f i BoxWnd.obj
 0001:0000af10       ?GetCurveList@CDrStatic@@QAEPAVCDListMgr@@XZ 1000bf10 f i BoxWnd.obj
 0001:0000af30       ?GetPatchList@CDrStatic@@QAEPAVCDListMgr@@XZ 1000bf30 f i BoxWnd.obj
 0001:0000af50       ?GetSolidList@CDrStatic@@QAEPAVCDListMgr@@XZ 1000bf50 f i BoxWnd.obj
 0001:0000af70       ?GetLabelNode@CDrStatic@@QAEPAVCDrNode@@XZ 1000bf70 f i BoxWnd.obj
 0001:0000af90       ?SetLabelNode@CDrStatic@@QAEXPAVCDrNode@@@Z 1000bf90 f i BoxWnd.obj
 0001:0000afc0       ?GetLabelPtr@CDrStatic@@QAEPAVCDrLabel@@XZ 1000bfc0 f i BoxWnd.obj
 0001:0000afe0       ?SetLabelPtr@CDrStatic@@QAEXPAVCDrLabel@@@Z 1000bfe0 f i BoxWnd.obj
 0001:0000b010       ?GetLabelNo@CDrStatic@@QAEJXZ 1000c010 f i BoxWnd.obj
 0001:0000b030       ?SetLabelNo@CDrStatic@@QAEXJ@Z 1000c030 f i BoxWnd.obj
 0001:0000b060       ?GetLocalM@CDrStatic@@QAEPAUMATRIX@@XZ 1000c060 f i BoxWnd.obj
 0001:0000b080       ?SetLocalM@CDrStatic@@QAEXPAUMATRIX@@@Z 1000c080 f i BoxWnd.obj
 0001:0000b0b0       ?GetnPts@CDrStatic@@QAEHH@Z 1000c0b0 f i BoxWnd.obj
 0001:0000b0e0       ?GetpLoc@CDrStatic@@QAEPAUWORLD@@H@Z 1000c0e0 f i BoxWnd.obj
 0001:0000b110       ?IsSkewed@CDrStatic@@UAEHXZ 1000c110 f i BoxWnd.obj
 0001:0000b130       ?SetSkewed@CDrStatic@@UAEXH@Z 1000c130 f i BoxWnd.obj
 0001:0000b160       ?GetSkewMat@CDrStatic@@QAEPAUMATRIX@@XZ 1000c160 f i BoxWnd.obj
 0001:0000b180       ?SetSkewMat@CDrStatic@@QAEXPAUMATRIX@@@Z 1000c180 f i BoxWnd.obj
 0001:0000b1b0       ?GetCreateBase@CDrStatic@@QAEIXZ 1000c1b0 f i BoxWnd.obj
 0001:0000b1d0       ?SetCreateBase@CDrStatic@@QAEXI@Z 1000c1d0 f i BoxWnd.obj
 0001:0000b200       ?IsTriangle@CDrStatic@@QAEHXZ 1000c200 f i BoxWnd.obj
 0001:0000b220       ?SetTriangle@CDrStatic@@QAEXH@Z 1000c220 f i BoxWnd.obj
 0001:0000b250       ?IsPentaHed@CDrStatic@@QAEHXZ 1000c250 f i BoxWnd.obj
 0001:0000b270       ?SetPentaHed@CDrStatic@@QAEXH@Z 1000c270 f i BoxWnd.obj
 0001:0000b2a0       ?GetCreate_i@CDrStatic@@QAEHXZ 1000c2a0 f i BoxWnd.obj
 0001:0000b2c0       ?SetCreate_i@CDrStatic@@QAEXH@Z 1000c2c0 f i BoxWnd.obj
 0001:0000b2f0       ?GetCreate_j@CDrStatic@@QAEHXZ 1000c2f0 f i BoxWnd.obj
 0001:0000b310       ?SetCreate_j@CDrStatic@@QAEXH@Z 1000c310 f i BoxWnd.obj
 0001:0000b340       ?GetCreate_k@CDrStatic@@QAEHXZ 1000c340 f i BoxWnd.obj
 0001:0000b360       ?SetCreate_k@CDrStatic@@QAEXH@Z 1000c360 f i BoxWnd.obj
 0001:0000b390       ?GetNodPos@CDrStatic@@QAEPAUWORLD@@XZ 1000c390 f i BoxWnd.obj
 0001:0000b3b0       ?SetNodPos@CDrStatic@@QAEXAAUWORLD@@@Z 1000c3b0 f i BoxWnd.obj
 0001:0000b3e0       ?SetCurrentNode@CSLDNod@@QAEXPAVCDrNode@@@Z 1000c3e0 f i BoxWnd.obj
 0001:0000b410       ?SetCurrentLabel@CSLDNod@@QAEXPAVCDrLabel@@@Z 1000c410 f i BoxWnd.obj
 0001:0000b440       ??1CDlg_StLI@@UAE@XZ       1000c440 f i BoxWnd.obj
 0001:0000b4c0       ??1CDlg_CrOI@@UAE@XZ       1000c4c0 f i BoxWnd.obj
 0001:0000b530       ?GetCurveList@CDrProf_C@@QAEPAVCDListMgr@@XZ 1000c530 f i BoxWnd.obj
 0001:0000b550       ?GetLMList@CDrProf_C@@QAEPAVCDListMgr@@XZ 1000c550 f i BoxWnd.obj
 0001:0000b570       ?GetCurve@CDrProf_C@@QAEPAVCDrCurve@@XZ 1000c570 f i BoxWnd.obj
 0001:0000b590       ?SetCurve@CDrProf_C@@QAEXPAVCDrCurve@@@Z 1000c590 f i BoxWnd.obj
 0001:0000b5c0       ?GetProfileType@CDrProf_C@@QAE?AW4PROFILETYPE@@XZ 1000c5c0 f i BoxWnd.obj
 0001:0000b5e0       ?SetProfileType@CDrProf_C@@QAEXW4PROFILETYPE@@@Z 1000c5e0 f i BoxWnd.obj
 0001:0000b610       ?GetElNumID@CDrFE0D@@QAEAAVCString@@XZ 1000c610 f i BoxWnd.obj
 0001:0000b630       ?SetElNumID@CDrFE0D@@QAEXVCString@@@Z 1000c630 f i BoxWnd.obj
 0001:0000b690       ?GetElTypeID@CDrFE0D@@QAEAAVCString@@XZ 1000c690 f i BoxWnd.obj
 0001:0000b6b0       ?SetElTypeID@CDrFE0D@@QAEXVCString@@@Z 1000c6b0 f i BoxWnd.obj
 0001:0000b710       ?Getrid@CDrFE0D@@QAEAAVCString@@XZ 1000c710 f i BoxWnd.obj
 0001:0000b730       ?Setrid@CDrFE0D@@QAEXVCString@@@Z 1000c730 f i BoxWnd.obj
 0001:0000b790       ?Getpid@CDrFE0D@@QAEAAVCString@@XZ 1000c790 f i BoxWnd.obj
 0001:0000b7b0       ?Setpid@CDrFE0D@@QAEXVCString@@@Z 1000c7b0 f i BoxWnd.obj
 0001:0000b810       ?Getmid@CDrFE0D@@QAEAAVCString@@XZ 1000c810 f i BoxWnd.obj
 0001:0000b830       ?Setmid@CDrFE0D@@QAEXVCString@@@Z 1000c830 f i BoxWnd.obj
 0001:0000b890       ?GetElNum@CDrFE0D@@QAEIXZ  1000c890 f i BoxWnd.obj
 0001:0000b8b0       ?SetElNum@CDrFE0D@@QAEXI@Z 1000c8b0 f i BoxWnd.obj
 0001:0000b8e0       ?GetElTypeNum@CDrFE0D@@QAEIXZ 1000c8e0 f i BoxWnd.obj
 0001:0000b900       ?SetElTypeNum@CDrFE0D@@QAEXI@Z 1000c900 f i BoxWnd.obj
 0001:0000b930       ?Getrel@CDrFE0D@@QAEIXZ    1000c930 f i BoxWnd.obj
 0001:0000b950       ?Setrel@CDrFE0D@@QAEXI@Z   1000c950 f i BoxWnd.obj
 0001:0000b980       ?Getprop@CDrFE0D@@QAEIXZ   1000c980 f i BoxWnd.obj
 0001:0000b9a0       ?Setprop@CDrFE0D@@QAEXI@Z  1000c9a0 f i BoxWnd.obj
 0001:0000b9d0       ?Getmat@CDrFE0D@@QAEIXZ    1000c9d0 f i BoxWnd.obj
 0001:0000b9f0       ?Setmat@CDrFE0D@@QAEXI@Z   1000c9f0 f i BoxWnd.obj
 0001:0000ba20       ?GetRefTemp@CDrFE0D@@QAENXZ 1000ca20 f i BoxWnd.obj
 0001:0000ba40       ?SetRefTemp@CDrFE0D@@QAEXN@Z 1000ca40 f i BoxWnd.obj
 0001:0000ba70       ?GetNormalWorld@CDrFE0D@@UAEPAUWORLD@@XZ 1000ca70 f i BoxWnd.obj
 0001:0000ba90       ?SetNormalWorld@CDrFE0D@@UAEXUWORLD@@@Z 1000ca90 f i BoxWnd.obj
 0001:0000bac0       ?GetNormalEye@CDrFE0D@@UAEPAUWORLD@@XZ 1000cac0 f i BoxWnd.obj
 0001:0000bae0       ?SetNormalEye@CDrFE0D@@UAEXUWORLD@@@Z 1000cae0 f i BoxWnd.obj
 0001:0000bb10       ?GetNormalScreen3D@CDrFE0D@@UAEPAUWORLD@@XZ 1000cb10 f i BoxWnd.obj
 0001:0000bb30       ?SetNormalScreen3D@CDrFE0D@@UAEXUWORLD@@@Z 1000cb30 f i BoxWnd.obj
 0001:0000bb60       ?GetNormalScreen2D@CDrFE0D@@UAEPAUtagPOINT@@XZ 1000cb60 f i BoxWnd.obj
 0001:0000bb80       ?SetNormalScreen2D@CDrFE0D@@UAEXUtagPOINT@@@Z 1000cb80 f i BoxWnd.obj
 0001:0000bbb0       ?IsMeshNode@CDrFE0D@@UAEHXZ 1000cbb0 f i BoxWnd.obj
 0001:0000bbd0       ?SetMeshNode@CDrFE0D@@UAEXH@Z 1000cbd0 f i BoxWnd.obj
 0001:0000bc00       ?GetHist_S@CDrFE0D@@QAEHXZ 1000cc00 f i BoxWnd.obj
 0001:0000bc20       ?SetHist_S@CDrFE0D@@QAEXH@Z 1000cc20 f i BoxWnd.obj
 0001:0000bc50       ?GetHist_T@CDrFE0D@@QAEHXZ 1000cc50 f i BoxWnd.obj
 0001:0000bc70       ?SetHist_T@CDrFE0D@@QAEXH@Z 1000cc70 f i BoxWnd.obj
 0001:0000bca0       ?GetHist_R@CDrFE0D@@QAEHXZ 1000cca0 f i BoxWnd.obj
 0001:0000bcc0       ?SetHist_R@CDrFE0D@@QAEXH@Z 1000ccc0 f i BoxWnd.obj
 0001:0000bcf0       ??1CMlg_CrOI@@UAE@XZ       1000ccf0 f i BoxWnd.obj
 0001:0000bd60       ?GetGenObj@CDrMesh1D@@QAEPAVCDrCurve@@XZ 1000cd60 f i BoxWnd.obj
 0001:0000bd80       ?SetGenObj@CDrMesh1D@@QAEXPAVCDrCurve@@@Z 1000cd80 f i BoxWnd.obj
 0001:0000bdb0       ?GetRefQuad@CDrMesh2D@@UAE?AW4REF_QUAD@@XZ 1000cdb0 f i BoxWnd.obj
 0001:0000bdd0       ?SetRefQuad@CDrMesh2D@@UAEXW4REF_QUAD@@@Z 1000cdd0 f i BoxWnd.obj
 0001:0000be00       ?GetRefTri@CDrMesh2D@@UAE?AW4REF_TRI@@XZ 1000ce00 f i BoxWnd.obj
 0001:0000be20       ?SetRefTri@CDrMesh2D@@UAEXW4REF_TRI@@@Z 1000ce20 f i BoxWnd.obj
 0001:0000be50       ?GetOrient@CDrMesh2D@@UAE?AW4ORIENT@@XZ 1000ce50 f i BoxWnd.obj
 0001:0000be70       ?SetOrient@CDrMesh2D@@UAEXW4ORIENT@@@Z 1000ce70 f i BoxWnd.obj
 0001:0000bea0       ?GetGenObj@CDrMesh2D@@QAEPAVCDrPatch@@XZ 1000cea0 f i BoxWnd.obj
 0001:0000bec0       ?SetGenObj@CDrMesh2D@@QAEXPAVCDrPatch@@@Z 1000cec0 f i BoxWnd.obj
 0001:0000bef0       ?IsReversed_ST@CDrMesh2D@@QAEHXZ 1000cef0 f i BoxWnd.obj
 0001:0000bf10       ?SetReversed_ST@CDrMesh2D@@QAEXH@Z 1000cf10 f i BoxWnd.obj
 0001:0000bf40       ?GetEdgeList@CDrMesh2D@@QAEPAVCDListMgr@@XZ 1000cf40 f i BoxWnd.obj
 0001:0000bf60       ?GetEdgeList@CDrMesh3D@@QAEPAVCDListMgr@@XZ 1000cf60 f i BoxWnd.obj
 0001:0000bf80       ?GetFaceList@CDrMesh3D@@QAEPAVCDListMgr@@XZ 1000cf80 f i BoxWnd.obj
 0001:0000bfa0       ?GetGenObj@CDrMesh3D@@QAEPAVCDrSolid@@XZ 1000cfa0 f i BoxWnd.obj
 0001:0000bfc0       ?SetGenObj@CDrMesh3D@@QAEXPAVCDrSolid@@@Z 1000cfc0 f i BoxWnd.obj
 0001:0000bff0       ??1CDlg_FE0I@@UAE@XZ       1000cff0 f i BoxWnd.obj
 0001:0000c060       ?Parse_drPipe@CDrPipe@@UAEXPAVCString@@@Z 1000d060 f i BoxWnd.obj
 0001:0000c080       ?GetMaxCorners@CDrPipe@@UAEHXZ 1000d080 f i BoxWnd.obj
 0001:0000c0a0       ?GetSIid@CDrPipe@@QAEAAVCString@@H@Z 1000d0a0 f i BoxWnd.obj
 0001:0000c0d0       ?SetSIid@CDrPipe@@QAEXVCString@@H@Z 1000d0d0 f i BoxWnd.obj
 0001:0000c130       ?IsValve@CDrPipe@@QAEHXZ   1000d130 f i BoxWnd.obj
 0001:0000c150       ?SetValve@CDrPipe@@QAEXH@Z 1000d150 f i BoxWnd.obj
 0001:0000c180       ?Parse_drPipe@CDrBeam@@UAEXPAVCString@@@Z 1000d180 f i BoxWnd.obj
 0001:0000c1a0       ?GetMaxCorners@CDrBeam@@UAEHXZ 1000d1a0 f i BoxWnd.obj
 0001:0000c1c0       ?GetKNodeID@CDrBeam@@UAEAAVCString@@XZ 1000d1c0 f i BoxWnd.obj
 0001:0000c1e0       ?SetKNodeID@CDrBeam@@UAEXAAVCString@@@Z 1000d1e0 f i BoxWnd.obj
 0001:0000c210       ?Parse_drPipe@CDrTruss@@UAEXPAVCString@@@Z 1000d210 f i BoxWnd.obj
 0001:0000c230       ?GetMaxCorners@CDrTruss@@UAEHXZ 1000d230 f i BoxWnd.obj
 0001:0000c250       ?Parse_drPipe@CDrElbow@@UAEXPAVCString@@@Z 1000d250 f i BoxWnd.obj
 0001:0000c270       ?GetMaxCorners@CDrElbow@@UAEHXZ 1000d270 f i BoxWnd.obj
 0001:0000c290       ?GetSIid@CDrElbow@@QAEAAVCString@@H@Z 1000d290 f i BoxWnd.obj
 0001:0000c2c0       ?SetSIid@CDrElbow@@QAEXVCString@@H@Z 1000d2c0 f i BoxWnd.obj
 0001:0000c320       ?GetCCID@CDrElbow@@QAEAAVCString@@H@Z 1000d320 f i BoxWnd.obj
 0001:0000c340       ?SetCCID@CDrElbow@@QAEXVCString@@@Z 1000d340 f i BoxWnd.obj
 0001:0000c3a0       ?GetTIID@CDrElbow@@QAEAAVCString@@H@Z 1000d3a0 f i BoxWnd.obj
 0001:0000c3c0       ?SetTIID@CDrElbow@@QAEXVCString@@@Z 1000d3c0 f i BoxWnd.obj
 0001:0000c420       ?GetCAID@CDrElbow@@QAEAAVCString@@H@Z 1000d420 f i BoxWnd.obj
 0001:0000c440       ?SetCAID@CDrElbow@@QAEXVCString@@@Z 1000d440 f i BoxWnd.obj
 0001:0000c4a0       ?GetCBID@CDrElbow@@QAEAAVCString@@H@Z 1000d4a0 f i BoxWnd.obj
 0001:0000c4c0       ?SetCBID@CDrElbow@@QAEXVCString@@@Z 1000d4c0 f i BoxWnd.obj
 0001:0000c520       ??1CDlg_FE1I@@UAE@XZ       1000d520 f i BoxWnd.obj
 0001:0000c5d0       ?GetDrFace@CFaceInfo@@QAEPAVCObject@@XZ 1000d5d0 f i BoxWnd.obj
 0001:0000c5f0       ?SetDrFace@CFaceInfo@@QAEXPAVCObject@@@Z 1000d5f0 f i BoxWnd.obj
 0001:0000c610       ?GetFaceType@CFaceInfo@@QAEIXZ 1000d610 f i BoxWnd.obj
 0001:0000c630       ?SetFaceType@CFaceInfo@@QAEXI@Z 1000d630 f i BoxWnd.obj
 0001:0000c650       ?GetGenObj@CFaceInfo@@QAEPAVCObject@@XZ 1000d650 f i BoxWnd.obj
 0001:0000c670       ?SetGenObj@CFaceInfo@@QAEXPAVCObject@@@Z 1000d670 f i BoxWnd.obj
 0001:0000c690       ?GetGenType@CFaceInfo@@QAEIXZ 1000d690 f i BoxWnd.obj
 0001:0000c6b0       ?SetGenType@CFaceInfo@@QAEXI@Z 1000d6b0 f i BoxWnd.obj
 0001:0000c6d0       ?GetFaceDim@CFaceInfo@@QAEIXZ 1000d6d0 f i BoxWnd.obj
 0001:0000c6f0       ?SetFaceDim@CFaceInfo@@QAEXI@Z 1000d6f0 f i BoxWnd.obj
 0001:0000c710       ?GetObjectID@CDrEdge@@QAEAAVCString@@XZ 1000d710 f i BoxWnd.obj
 0001:0000c730       ?SetObjectID@CDrEdge@@QAEXAAVCString@@@Z 1000d730 f i BoxWnd.obj
 0001:0000c760       ?GetVrtxIndex@CDrEdge@@QAEHH@Z 1000d760 f i BoxWnd.obj
 0001:0000c780       ?SetVrtxIndex@CDrEdge@@QAEXHH@Z 1000d780 f i BoxWnd.obj
 0001:0000c7b0       ?GetFaceInfoList@CDrEdge@@QAEPAVCDListMgr@@XZ 1000d7b0 f i BoxWnd.obj
 0001:0000c7d0       ?GetHist_RCH@CDrEdge@@QAEHXZ 1000d7d0 f i BoxWnd.obj
 0001:0000c7f0       ?SetHist_RCH@CDrEdge@@QAEXH@Z 1000d7f0 f i BoxWnd.obj
 0001:0000c810       ?GetHistType@CDrEdge@@QAEHXZ 1000d810 f i BoxWnd.obj
 0001:0000c830       ?SetHistType@CDrEdge@@QAEXH@Z 1000d830 f i BoxWnd.obj
 0001:0000c850       ?GetMesh@CDrEdge@@QAEPAVCDrObject@@XZ 1000d850 f i BoxWnd.obj
 0001:0000c870       ?SetMesh@CDrEdge@@QAEXPAVCDrObject@@@Z 1000d870 f i BoxWnd.obj
 0001:0000c890       ?GetMeshType@CDrEdge@@QAEIXZ 1000d890 f i BoxWnd.obj
 0001:0000c8b0       ?SetMeshType@CDrEdge@@QAEXI@Z 1000d8b0 f i BoxWnd.obj
 0001:0000c8d0       ?IsOnBndry@CDrEdge@@QAEHXZ 1000d8d0 f i BoxWnd.obj
 0001:0000c8f0       ?SetOnBndry@CDrEdge@@QAEXH@Z 1000d8f0 f i BoxWnd.obj
 0001:0000c910       ??1CDlg_FE2I@@UAE@XZ       1000d910 f i BoxWnd.obj
 0001:0000c9d0       ?GetMesh1DList@CDrProf_1@@UAEPAVCDListMgr@@XZ 1000d9d0 f i BoxWnd.obj
 0001:0000c9f0       ?GetLMList@CDrProf_1@@UAEPAVCDListMgr@@XZ 1000d9f0 f i BoxWnd.obj
 0001:0000ca10       ?GetMesh1D@CDrProf_1@@UAEPAVCDrMesh1D@@XZ 1000da10 f i BoxWnd.obj
 0001:0000ca30       ?SetMesh1D@CDrProf_1@@UAEXPAVCDrMesh1D@@@Z 1000da30 f i BoxWnd.obj
 0001:0000ca60       ?_GetBaseMessageMap@CBoxWnd@@KGPBUAFX_MSGMAP@@XZ 1000da60 f   BoxWnd.obj
 0001:0000ca80       ?GetMessageMap@CBoxWnd@@MBEPBUAFX_MSGMAP@@XZ 1000da80 f   BoxWnd.obj
 0001:0000caa0       ?_GetBaseClass@CBoxWnd@@KGPAUCRuntimeClass@@XZ 1000daa0 f   BoxWnd.obj
 0001:0000cac0       ?GetRuntimeClass@CBoxWnd@@UBEPAUCRuntimeClass@@XZ 1000dac0 f   BoxWnd.obj
 0001:0000cae0       ??0CBoxWnd@@QAE@XZ         1000dae0 f   BoxWnd.obj
 0001:0000cb60       ??_GCBoxWnd@@UAEPAXI@Z     1000db60 f i BoxWnd.obj
 0001:0000cb60       ??_ECBoxWnd@@UAEPAXI@Z     1000db60 f i BoxWnd.obj
 0001:0000cba0       ??1CBoxWnd@@UAE@XZ         1000dba0 f   BoxWnd.obj
 0001:0000cbd0       ?Create@CBoxWnd@@QAEHPAVCWnd@@VCRect@@@Z 1000dbd0 f   BoxWnd.obj
 0001:0000cca0       ?Create@CBoxWnd@@QAEHPAVCWnd@@VCRect@@I@Z 1000dca0 f   BoxWnd.obj
 0001:0000cd70       ?GetHeight@CBoxWnd@@QAEIXZ 1000dd70 f   BoxWnd.obj
 0001:0000cd90       ?GetWidth@CBoxWnd@@QAEIXZ  1000dd90 f   BoxWnd.obj
 0001:0000cdb0       ?GetActiveTool@CBoxWnd@@QAEHXZ 1000ddb0 f   BoxWnd.obj
 0001:0000cdd0       ?GetActiveElemObject@CBoxWnd@@QAEHXZ 1000ddd0 f   BoxWnd.obj
 0001:0000cdf0       ?FillToolNumArray@CBoxWnd@@QAEXXZ 1000ddf0 f   BoxWnd.obj
 0001:0000ce40       ?GetToolNum@CBoxWnd@@QAEHH@Z 1000de40 f   BoxWnd.obj
 0001:0000ce80       ?IsEditMoveTool@CBoxWnd@@QAEHI@Z 1000de80 f   BoxWnd.obj
 0001:0000cee0       ?OnPaint@CBoxWnd@@IAEXXZ   1000dee0 f   BoxWnd.obj
 0001:0000cfa0       ?CalcBoxRect@CBoxWnd@@QAEXAAVCRect@@0HHHHH@Z 1000dfa0 f   BoxWnd.obj
 0001:0000d0b0       ?ReSetDataDialogs@CBoxWnd@@QAEXXZ 1000e0b0 f   BoxWnd.obj
 0001:0000d0f0       ??1?$CList@HH@@UAE@XZ      1000e0f0 f i BoxWnd.obj
 0001:0000d170       ?Serialize@?$CList@HH@@UAEXAAVCArchive@@@Z 1000e170 f i BoxWnd.obj
 0001:0000d260       ?Dump@?$CList@HH@@UBEXAAVCDumpContext@@@Z 1000e260 f i BoxWnd.obj
 0001:0000d300       ?AssertValid@?$CList@HH@@UBEXXZ 1000e300 f i BoxWnd.obj
 0001:0000d3d0       ??_G?$CList@HH@@UAEPAXI@Z  1000e3d0 f i BoxWnd.obj
 0001:0000d3d0       ??_E?$CList@HH@@UAEPAXI@Z  1000e3d0 f i BoxWnd.obj
 0001:0000d410       ?AddTail@?$CList@HH@@QAEPAU__POSITION@@H@Z 1000e410 f i BoxWnd.obj
 0001:0000d480       ?RemoveAll@?$CList@HH@@QAEXXZ 1000e480 f i BoxWnd.obj
 0001:0000d510       ?GetHeadPosition@?$CList@HH@@QBEPAU__POSITION@@XZ 1000e510 f i BoxWnd.obj
 0001:0000d530       ?GetNext@?$CList@HH@@QAEAAHAAPAU__POSITION@@@Z 1000e530 f i BoxWnd.obj
 0001:0000d590       ?SerializeElements@@YGXAAVCArchive@@PAHH@Z 1000e590 f i BoxWnd.obj
 0001:0000d610       ?DumpElements@@YGXAAVCDumpContext@@PBHH@Z 1000e610 f i BoxWnd.obj
 0001:0000d660       ?NewNode@?$CList@HH@@IAEPAUCNode@1@PAU21@0@Z 1000e660 f i BoxWnd.obj
 0001:0000d780       ?DestructElements@@YGXPAHH@Z 1000e780 f i BoxWnd.obj
 0001:0000d7f0       ?ConstructElements@@YGXPAHH@Z 1000e7f0 f i BoxWnd.obj
 0001:0000d880       ??2@YAPAXIPAX@Z            1000e880 f i BoxWnd.obj
 0001:0000d8a0       ?CreateObject@CSuperButton@@SGPAVCObject@@XZ 1000e8a0 f   Colorsqu.obj
 0001:0000d910       ??0CSuperButton@@QAE@XZ    1000e910 f i Colorsqu.obj
 0001:0000d940       ??_ECSuperButton@@UAEPAXI@Z 1000e940 f i Colorsqu.obj
 0001:0000d940       ??_GCSuperButton@@UAEPAXI@Z 1000e940 f i Colorsqu.obj
 0001:0000d980       ??1CSuperButton@@UAE@XZ    1000e980 f i Colorsqu.obj
 0001:0000d9f0       ?_GetBaseClass@CSuperButton@@KGPAUCRuntimeClass@@XZ 1000e9f0 f   Colorsqu.obj
 0001:0000da10       ?GetRuntimeClass@CSuperButton@@UBEPAUCRuntimeClass@@XZ 1000ea10 f   Colorsqu.obj
 0001:0000da30       ?Create@CSuperButton@@QAEHPAVCWnd@@VCString@@VCRect@@I@Z 1000ea30 f   Colorsqu.obj
 0001:0000daf0       ?_GetBaseMessageMap@CCustomColor@@KGPBUAFX_MSGMAP@@XZ 1000eaf0 f   Colorsqu.obj
 0001:0000db10       ?GetMessageMap@CCustomColor@@MBEPBUAFX_MSGMAP@@XZ 1000eb10 f   Colorsqu.obj
 0001:0000db30       ?CreateObject@CCustomColor@@SGPAVCObject@@XZ 1000eb30 f   Colorsqu.obj
 0001:0000dba0       ?_GetBaseClass@CCustomColor@@KGPAUCRuntimeClass@@XZ 1000eba0 f   Colorsqu.obj
 0001:0000dbc0       ?GetRuntimeClass@CCustomColor@@UBEPAUCRuntimeClass@@XZ 1000ebc0 f   Colorsqu.obj
 0001:0000dbe0       ??0CCustomColor@@QAE@XZ    1000ebe0 f   Colorsqu.obj
 0001:0000dc70       ??_GCCustomColor@@UAEPAXI@Z 1000ec70 f i Colorsqu.obj
 0001:0000dc70       ??_ECCustomColor@@UAEPAXI@Z 1000ec70 f i Colorsqu.obj
 0001:0000dcb0       ??1CCustomColor@@UAE@XZ    1000ecb0 f   Colorsqu.obj
 0001:0000dd50       ?OnCreate@CCustomColor@@IAEHPAUtagCREATESTRUCTA@@@Z 1000ed50 f   Colorsqu.obj
 0001:0000df70       ?OnButtonClickForeColor@CCustomColor@@IAEXXZ 1000ef70 f   Colorsqu.obj
 0001:0000e040       ?SetForeColor@CDrawBox@@QAEXK@Z 1000f040 f i Colorsqu.obj
 0001:0000e070       ??1CColorDialog@@UAE@XZ    1000f070 f i Colorsqu.obj
 0001:0000e090       ??1CCommonDialog@@UAE@XZ   1000f090 f i Colorsqu.obj
 0001:0000e0b0       ?OnButtonClickBackColor@CCustomColor@@IAEXXZ 1000f0b0 f   Colorsqu.obj
 0001:0000e180       ?SetBackColor@CDrawBox@@QAEXK@Z 1000f180 f i Colorsqu.obj
 0001:0000e1b0       ?OnPaint@CCustomColor@@IAEXXZ 1000f1b0 f   Colorsqu.obj
 0001:0000e240       ?_GetBaseMessageMap@CColorSquare@@KGPBUAFX_MSGMAP@@XZ 1000f240 f   Colorsqu.obj
 0001:0000e260       ?GetMessageMap@CColorSquare@@MBEPBUAFX_MSGMAP@@XZ 1000f260 f   Colorsqu.obj
 0001:0000e280       ?CreateObject@CColorSquare@@SGPAVCObject@@XZ 1000f280 f   Colorsqu.obj
 0001:0000e2f0       ?_GetBaseClass@CColorSquare@@KGPAUCRuntimeClass@@XZ 1000f2f0 f   Colorsqu.obj
 0001:0000e310       ?GetRuntimeClass@CColorSquare@@UBEPAUCRuntimeClass@@XZ 1000f310 f   Colorsqu.obj
 0001:0000e330       ??0CColorSquare@@QAE@XZ    1000f330 f   Colorsqu.obj
 0001:0000e360       ??_GCColorSquare@@UAEPAXI@Z 1000f360 f i Colorsqu.obj
 0001:0000e360       ??_ECColorSquare@@UAEPAXI@Z 1000f360 f i Colorsqu.obj
 0001:0000e3a0       ??1CColorSquare@@UAE@XZ    1000f3a0 f   Colorsqu.obj
 0001:0000e410       ?SetColor@CColorSquare@@QAEXH@Z 1000f410 f   Colorsqu.obj
 0001:0000e440       ?OnPaint@CColorSquare@@IAEXXZ 1000f440 f   Colorsqu.obj
 0001:0000e500       ?OnLButtonDown@CColorSquare@@IAEXIVCPoint@@@Z 1000f500 f   Colorsqu.obj
 0001:0000e520       ?OnLButtonUp@CColorSquare@@IAEXIVCPoint@@@Z 1000f520 f   Colorsqu.obj
 0001:0000e570       ?OnRButtonDown@CColorSquare@@IAEXIVCPoint@@@Z 1000f570 f   Colorsqu.obj
 0001:0000e590       ?OnRButtonUp@CColorSquare@@IAEXIVCPoint@@@Z 1000f590 f   Colorsqu.obj
 0001:0000e5e0       _ExtRawDllMain@12          1000f5e0 f   Dboxdll.obj
 0001:0000e640       _InitDBoxDLL@0             1000f640 f   Dboxdll.obj
 0001:0000e690       _DllMain@12                1000f690 f   Dboxdll.obj
 0001:0000e700       ??B?$CTypedSimpleList@PAUCRuntimeClass@@@@QAEPAUCRuntimeClass@@XZ 1000f700 f i Dboxdll.obj
 0001:0000e720       ??B?$CTypedSimpleList@PAVCOleObjectFactory@@@@QAEPAVCOleObjectFactory@@XZ 1000f720 f i Dboxdll.obj
 0001:0000e740       ?GetHead@CSimpleList@@QBEPAXXZ 1000f740 f i Dboxdll.obj
 0001:0000e760       ?_GetBaseMessageMap@CDrawBar@@KGPBUAFX_MSGMAP@@XZ 1000f760 f   Drawbar.obj
 0001:0000e780       ?GetMessageMap@CDrawBar@@MBEPBUAFX_MSGMAP@@XZ 1000f780 f   Drawbar.obj
 0001:0000e7a0       ?CreateObject@CDrawBar@@SGPAVCObject@@XZ 1000f7a0 f   Drawbar.obj
 0001:0000e810       ?_GetBaseClass@CDrawBar@@KGPAUCRuntimeClass@@XZ 1000f810 f   Drawbar.obj
 0001:0000e830       ?GetRuntimeClass@CDrawBar@@UBEPAUCRuntimeClass@@XZ 1000f830 f   Drawbar.obj
 0001:0000e850       ??0CDrawBar@@QAE@XZ        1000f850 f   Drawbar.obj
 0001:0000e910       ??_GCDrawBar@@UAEPAXI@Z    1000f910 f i Drawbar.obj
 0001:0000e910       ??_ECDrawBar@@UAEPAXI@Z    1000f910 f i Drawbar.obj
 0001:0000e950       ??1CDrawBar@@UAE@XZ        1000f950 f   Drawbar.obj
 0001:0000e9c0       ?AssertValid@CDrawBar@@UBEXXZ 1000f9c0 f   Drawbar.obj
 0001:0000e9e0       ?Dump@CDrawBar@@UBEXAAVCDumpContext@@@Z 1000f9e0 f   Drawbar.obj
 0001:0000ea10       ?OnLButtonDown@CDrawBar@@IAEXIVCPoint@@@Z 1000fa10 f   Drawbar.obj
 0001:0000eee0       ?OnLButtonUp@CDrawBar@@IAEXIVCPoint@@@Z 1000fee0 f   Drawbar.obj
 0001:0000f000       ?SetActiveTool@CDrawBox@@QAEXH@Z 10010000 f i Drawbar.obj
 0001:0000f030       ?SetActiveDrawObject@CDrawBox@@QAEXH@Z 10010030 f i Drawbar.obj
 0001:0000f060       ?GetObjectType@CBooleans@@UAEHXZ 10010060 f i Drawbox.obj
 0001:0000f080       ?SetObjectType@CBooleans@@UAEXH@Z 10010080 f i Drawbox.obj
 0001:0000f0b0       ?GetElemType@CBooleans@@UAEHXZ 100100b0 f i Drawbox.obj
 0001:0000f0d0       ?SetElemType@CBooleans@@UAEXH@Z 100100d0 f i Drawbox.obj
 0001:0000f100       ?GetObjectNo@CBooleans@@UAEJXZ 10010100 f i Drawbox.obj
 0001:0000f120       ?SetObjectNo@CBooleans@@UAEXJ@Z 10010120 f i Drawbox.obj
 0001:0000f150       ?IsSoundOn@CBooleans@@UAEHXZ 10010150 f i Drawbox.obj
 0001:0000f170       ?ToggleSoundOn@CBooleans@@UAEXXZ 10010170 f i Drawbox.obj
 0001:0000f1a0       ?IsCoonSocksOff@CBooleans@@UAEHXZ 100101a0 f i Drawbox.obj
 0001:0000f1c0       ?ToggleCoonSocksOff@CBooleans@@UAEXXZ 100101c0 f i Drawbox.obj
 0001:0000f1f0       ?IsSnapOn@CBooleans@@UAEHXZ 100101f0 f i Drawbox.obj
 0001:0000f210       ?ToggleSnapOn@CBooleans@@UAEXXZ 10010210 f i Drawbox.obj
 0001:0000f240       ?IsHorSnapOn@CBooleans@@UAEHXZ 10010240 f i Drawbox.obj
 0001:0000f260       ?ToggleHorSnapOn@CBooleans@@UAEXXZ 10010260 f i Drawbox.obj
 0001:0000f290       ?IsVerSnapOn@CBooleans@@UAEHXZ 10010290 f i Drawbox.obj
 0001:0000f2b0       ?ToggleVerSnapOn@CBooleans@@UAEXXZ 100102b0 f i Drawbox.obj
 0001:0000f2e0       ?IsSpawnOn@CBooleans@@UAEHXZ 100102e0 f i Drawbox.obj
 0001:0000f300       ?ToggleSpawnOn@CBooleans@@UAEXXZ 10010300 f i Drawbox.obj
 0001:0000f330       ?IsBLineOn@CBooleans@@UAEHXZ 10010330 f i Drawbox.obj
 0001:0000f350       ?ToggleBLineOn@CBooleans@@UAEXXZ 10010350 f i Drawbox.obj
 0001:0000f380       ?IsSingleSegOn@CBooleans@@UAEHXZ 10010380 f i Drawbox.obj
 0001:0000f3a0       ?ToggleSingleSegOn@CBooleans@@UAEXXZ 100103a0 f i Drawbox.obj
 0001:0000f3d0       ?IsAutoAcceptOn@CBooleans@@UAEHXZ 100103d0 f i Drawbox.obj
 0001:0000f3f0       ?ToggleAutoAcceptOn@CBooleans@@UAEXXZ 100103f0 f i Drawbox.obj
 0001:0000f420       ?IsDialogOn@CBooleans@@UAEHXZ 10010420 f i Drawbox.obj
 0001:0000f440       ?ToggleDialogOn@CBooleans@@UAEXXZ 10010440 f i Drawbox.obj
 0001:0000f470       ?IsElementOn@CBooleans@@UAEHXZ 10010470 f i Drawbox.obj
 0001:0000f490       ?ToggleElementOn@CBooleans@@UAEXXZ 10010490 f i Drawbox.obj
 0001:0000f4c0       ?IsDragOn@CBooleans@@UAEHXZ 100104c0 f i Drawbox.obj
 0001:0000f4e0       ?ToggleDragOn@CBooleans@@UAEXXZ 100104e0 f i Drawbox.obj
 0001:0000f510       ?IsRefreshOn@CBooleans@@UAEHXZ 10010510 f i Drawbox.obj
 0001:0000f530       ?ToggleRefreshOn@CBooleans@@UAEXXZ 10010530 f i Drawbox.obj
 0001:0000f560       ?IsRubberBandOn@CBooleans@@UAEHXZ 10010560 f i Drawbox.obj
 0001:0000f580       ?ToggleRubberBandOn@CBooleans@@UAEXXZ 10010580 f i Drawbox.obj
 0001:0000f5b0       ?IsStViewActive@CBooleans@@UAEHXZ 100105b0 f i Drawbox.obj
 0001:0000f5d0       ?ToggleStViewActive@CBooleans@@UAEXXZ 100105d0 f i Drawbox.obj
 0001:0000f600       ?IsSpViewActive@CBooleans@@UAEHXZ 10010600 f i Drawbox.obj
 0001:0000f620       ?ToggleSpViewActive@CBooleans@@UAEXXZ 10010620 f i Drawbox.obj
 0001:0000f650       ?IsHsViewActive@CBooleans@@UAEHXZ 10010650 f i Drawbox.obj
 0001:0000f670       ?ToggleHsViewActive@CBooleans@@UAEXXZ 10010670 f i Drawbox.obj
 0001:0000f6a0       ?Is12ViewActive@CBooleans@@UAEHXZ 100106a0 f i Drawbox.obj
 0001:0000f6c0       ?Toggle12ViewActive@CBooleans@@UAEXXZ 100106c0 f i Drawbox.obj
 0001:0000f6f0       ?Is23ViewActive@CBooleans@@UAEHXZ 100106f0 f i Drawbox.obj
 0001:0000f710       ?Toggle23ViewActive@CBooleans@@UAEXXZ 10010710 f i Drawbox.obj
 0001:0000f740       ?Is31ViewActive@CBooleans@@UAEHXZ 10010740 f i Drawbox.obj
 0001:0000f760       ?Toggle31ViewActive@CBooleans@@UAEXXZ 10010760 f i Drawbox.obj
 0001:0000f790       ?IsIsoViewActive@CBooleans@@UAEHXZ 10010790 f i Drawbox.obj
 0001:0000f7b0       ?ToggleIsoViewActive@CBooleans@@UAEXXZ 100107b0 f i Drawbox.obj
 0001:0000f7e0       ?IsDataViewActive@CBooleans@@UAEHXZ 100107e0 f i Drawbox.obj
 0001:0000f800       ?ToggleDataViewActive@CBooleans@@UAEXXZ 10010800 f i Drawbox.obj
 0001:0000f830       ?IsMeshDataViewActive@CBooleans@@UAEHXZ 10010830 f i Drawbox.obj
 0001:0000f850       ?ToggleMeshDataViewActive@CBooleans@@UAEXXZ 10010850 f i Drawbox.obj
 0001:0000f880       ?IsDeckViewActive@CBooleans@@UAEHXZ 10010880 f i Drawbox.obj
 0001:0000f8a0       ?ToggleDeckViewActive@CBooleans@@UAEXXZ 100108a0 f i Drawbox.obj
 0001:0000f8d0       ?IsFormDataViewActive@CBooleans@@UAEHXZ 100108d0 f i Drawbox.obj
 0001:0000f8f0       ?ToggleFormDataViewActive@CBooleans@@UAEXXZ 100108f0 f i Drawbox.obj
 0001:0000f920       ?IsInputMode@CBooleans@@UAEHXZ 10010920 f i Drawbox.obj
 0001:0000f940       ?SetInputMode@CBooleans@@UAEXH@Z 10010940 f i Drawbox.obj
 0001:0000f970       ?IsOutputMode@CBooleans@@UAEHXZ 10010970 f i Drawbox.obj
 0001:0000f990       ?SetOutputMode@CBooleans@@UAEXH@Z 10010990 f i Drawbox.obj
 0001:0000f9c0       ??1CBooleans@@UAE@XZ       100109c0 f i Drawbox.obj
 0001:0000f9f0       ??_GCBooleans@@UAEPAXI@Z   100109f0 f i Drawbox.obj
 0001:0000fa30       ??_ECBooleans@@UAEPAXI@Z   10010a30 f i Drawbox.obj
 0001:0000fab0       ?GetObjectType@CDataWindow@@UAEHXZ 10010ab0 f i Drawbox.obj
 0001:0000fad0       ?SetObjectType@CDataWindow@@UAEXH@Z 10010ad0 f i Drawbox.obj
 0001:0000fb00       ?GetElemType@CDataWindow@@UAEHXZ 10010b00 f i Drawbox.obj
 0001:0000fb20       ?SetElemType@CDataWindow@@UAEXH@Z 10010b20 f i Drawbox.obj
 0001:0000fb50       ?GetObjectNo@CDataWindow@@UAEJXZ 10010b50 f i Drawbox.obj
 0001:0000fb70       ?SetObjectNo@CDataWindow@@UAEXJ@Z 10010b70 f i Drawbox.obj
 0001:0000fba0       ?GetWinOrgWIC@CDataWindow@@UAE?AULPOINT3@@XZ 10010ba0 f i Drawbox.obj
 0001:0000fbe0       ?GetWinMinWIC@CDataWindow@@UAE?AULPOINT3@@XZ 10010be0 f i Drawbox.obj
 0001:0000fc20       ?GetWinMaxWIC@CDataWindow@@UAE?AULPOINT3@@XZ 10010c20 f i Drawbox.obj
 0001:0000fc60       ?GetWinExtWIC@CDataWindow@@UAE?AULPOINT3@@XZ 10010c60 f i Drawbox.obj
 0001:0000fca0       ??1CDataWindow@@UAE@XZ     10010ca0 f i Drawbox.obj
 0001:0000fcd0       ??_GCDataWindow@@UAEPAXI@Z 10010cd0 f i Drawbox.obj
 0001:0000fd10       ??_ECDataWindow@@UAEPAXI@Z 10010d10 f i Drawbox.obj
 0001:0000fd90       ?GetObjectType@CDrFont@@UAEHXZ 10010d90 f i Drawbox.obj
 0001:0000fdb0       ?SetObjectType@CDrFont@@UAEXH@Z 10010db0 f i Drawbox.obj
 0001:0000fde0       ?GetElemType@CDrFont@@UAEHXZ 10010de0 f i Drawbox.obj
 0001:0000fe00       ?SetElemType@CDrFont@@UAEXH@Z 10010e00 f i Drawbox.obj
 0001:0000fe30       ?GetObjectNo@CDrFont@@UAEJXZ 10010e30 f i Drawbox.obj
 0001:0000fe50       ?SetObjectNo@CDrFont@@UAEXJ@Z 10010e50 f i Drawbox.obj
 0001:0000fe80       ?IsFontSelected@CDrFont@@UAEHXZ 10010e80 f i Drawbox.obj
 0001:0000fea0       ?GetTextColor@CDrFont@@UAEKXZ 10010ea0 f i Drawbox.obj
 0001:0000fec0       ?SetTextColor@CDrFont@@UAEXK@Z 10010ec0 f i Drawbox.obj
 0001:0000fef0       ?GetCurrentLogFont@CDrFont@@UAE?AUtagLOGFONTA@@XZ 10010ef0 f i Drawbox.obj
 0001:0000ff20       ?SetCurrentLogFont@CDrFont@@UAEXUtagLOGFONTA@@@Z 10010f20 f i Drawbox.obj
 0001:0000ff50       ??1CDrFont@@UAE@XZ         10010f50 f i Drawbox.obj
 0001:0000ff80       ??_GCDrFont@@UAEPAXI@Z     10010f80 f i Drawbox.obj
 0001:0000ffc0       ??_ECDrFont@@UAEPAXI@Z     10010fc0 f i Drawbox.obj
 0001:00010040       ?GetObjectType@CDrPen@@UAEHXZ 10011040 f i Drawbox.obj
 0001:00010060       ?SetObjectType@CDrPen@@UAEXH@Z 10011060 f i Drawbox.obj
 0001:00010090       ?GetElemType@CDrPen@@UAEHXZ 10011090 f i Drawbox.obj
 0001:000100b0       ?SetElemType@CDrPen@@UAEXH@Z 100110b0 f i Drawbox.obj
 0001:000100e0       ?GetObjectNo@CDrPen@@UAEJXZ 100110e0 f i Drawbox.obj
 0001:00010100       ?SetObjectNo@CDrPen@@UAEXJ@Z 10011100 f i Drawbox.obj
 0001:00010130       ?GetCurrentPen@CDrPen@@UAEPAVCPen@@XZ 10011130 f i Drawbox.obj
 0001:00010150       ?GetStyle@CDrPen@@UAEHXZ   10011150 f i Drawbox.obj
 0001:00010170       ?SetStyle@CDrPen@@UAEXH@Z  10011170 f i Drawbox.obj
 0001:000101a0       ?GetStyleOld@CDrPen@@UAEHXZ 100111a0 f i Drawbox.obj
 0001:000101c0       ?SetStyleOld@CDrPen@@UAEXH@Z 100111c0 f i Drawbox.obj
 0001:000101f0       ?GetStyleDefault@CDrPen@@UAEHXZ 100111f0 f i Drawbox.obj
 0001:00010210       ?SetStyleDefault@CDrPen@@UAEXH@Z 10011210 f i Drawbox.obj
 0001:00010240       ?GetWidth@CDrPen@@UAEHXZ   10011240 f i Drawbox.obj
 0001:00010260       ?SetWidth@CDrPen@@UAEXH@Z  10011260 f i Drawbox.obj
 0001:00010290       ?GetWidthOld@CDrPen@@UAEHXZ 10011290 f i Drawbox.obj
 0001:000102b0       ?SetWidthOld@CDrPen@@UAEXH@Z 100112b0 f i Drawbox.obj
 0001:000102e0       ?GetWidthDefault@CDrPen@@UAEHXZ 100112e0 f i Drawbox.obj
 0001:00010300       ?SetWidthDefault@CDrPen@@UAEXH@Z 10011300 f i Drawbox.obj
 0001:00010330       ?GetColor@CDrPen@@UAEKXZ   10011330 f i Drawbox.obj
 0001:00010350       ?SetColor@CDrPen@@UAEXK@Z  10011350 f i Drawbox.obj
 0001:00010380       ?GetColorOld@CDrPen@@UAEKXZ 10011380 f i Drawbox.obj
 0001:000103a0       ?SetColorOld@CDrPen@@UAEXK@Z 100113a0 f i Drawbox.obj
 0001:000103d0       ?GetColorDefault@CDrPen@@UAEKXZ 100113d0 f i Drawbox.obj
 0001:000103f0       ?SetColorDefault@CDrPen@@UAEXK@Z 100113f0 f i Drawbox.obj
 0001:00010420       ?GetIndex@CDrPen@@UAEIXZ   10011420 f i Drawbox.obj
 0001:00010440       ?SetIndex@CDrPen@@UAEXI@Z  10011440 f i Drawbox.obj
 0001:00010470       ?GetIndexOld@CDrPen@@UAEIXZ 10011470 f i Drawbox.obj
 0001:00010490       ?SetIndexOld@CDrPen@@UAEXI@Z 10011490 f i Drawbox.obj
 0001:000104c0       ?GetIndexDefault@CDrPen@@UAEIXZ 100114c0 f i Drawbox.obj
 0001:000104e0       ?SetIndexDefault@CDrPen@@UAEXI@Z 100114e0 f i Drawbox.obj
 0001:00010510       ?GetStyleNameCount@CDrPen@@UAEIXZ 10011510 f i Drawbox.obj
 0001:00010530       ?SetStyleNameCount@CDrPen@@UAEXI@Z 10011530 f i Drawbox.obj
 0001:00010560       ?GetStyleName@CDrPen@@UAE?AVCString@@I@Z 10011560 f i Drawbox.obj
 0001:000105a0       ?GetStyleConstant@CDrPen@@UAEII@Z 100115a0 f i Drawbox.obj
 0001:000105d0       ??1CDrPen@@UAE@XZ          100115d0 f i Drawbox.obj
 0001:00010650       ??_GCDrPen@@UAEPAXI@Z      10011650 f i Drawbox.obj
 0001:00010690       ??_ECDrPen@@UAEPAXI@Z      10011690 f i Drawbox.obj
 0001:00010710       ?GetObjectType@CHitNet@@UAEHXZ 10011710 f i Drawbox.obj
 0001:00010730       ?SetObjectType@CHitNet@@UAEXH@Z 10011730 f i Drawbox.obj
 0001:00010760       ?GetElemType@CHitNet@@UAEHXZ 10011760 f i Drawbox.obj
 0001:00010780       ?SetElemType@CHitNet@@UAEXH@Z 10011780 f i Drawbox.obj
 0001:000107b0       ?GetObjectNo@CHitNet@@UAEJXZ 100117b0 f i Drawbox.obj
 0001:000107d0       ?SetObjectNo@CHitNet@@UAEXJ@Z 100117d0 f i Drawbox.obj
 0001:00010800       ?GetSearchNet@CHitNet@@QAEHXZ 10011800 f i Drawbox.obj
 0001:00010820       ?SetSearchNet@CHitNet@@QAEXH@Z 10011820 f i Drawbox.obj
 0001:00010850       ?GetSearchNetOld@CHitNet@@QAEHXZ 10011850 f i Drawbox.obj
 0001:00010870       ?SetSearchNetOld@CHitNet@@QAEXH@Z 10011870 f i Drawbox.obj
 0001:000108a0       ?GetSearchNetDefault@CHitNet@@QAEHXZ 100118a0 f i Drawbox.obj
 0001:000108c0       ?SetSearchNetDefault@CHitNet@@QAEXH@Z 100118c0 f i Drawbox.obj
 0001:000108f0       ?GetSearchDet@CHitNet@@QAENXZ 100118f0 f i Drawbox.obj
 0001:00010910       ?SetSearchDet@CHitNet@@QAEXN@Z 10011910 f i Drawbox.obj
 0001:00010940       ?GetSearchDetOld@CHitNet@@QAENXZ 10011940 f i Drawbox.obj
 0001:00010960       ?SetSearchDetOld@CHitNet@@QAEXN@Z 10011960 f i Drawbox.obj
 0001:00010990       ?GetSearchDetDefault@CHitNet@@QAENXZ 10011990 f i Drawbox.obj
 0001:000109b0       ?SetSearchDetDefault@CHitNet@@QAEXN@Z 100119b0 f i Drawbox.obj
 0001:000109e0       ?GetDblRatio@CHitNet@@QAENXZ 100119e0 f i Drawbox.obj
 0001:00010a00       ?SetDblRatio@CHitNet@@QAEXN@Z 10011a00 f i Drawbox.obj
 0001:00010a30       ?GetDblRatioOld@CHitNet@@QAENXZ 10011a30 f i Drawbox.obj
 0001:00010a50       ?SetDblRatioOld@CHitNet@@QAEXN@Z 10011a50 f i Drawbox.obj
 0001:00010a80       ?GetDblRatioDefault@CHitNet@@QAENXZ 10011a80 f i Drawbox.obj
 0001:00010aa0       ?SetDblRatioDefault@CHitNet@@QAEXN@Z 10011aa0 f i Drawbox.obj
 0001:00010ad0       ?GetCoLinear@CHitNet@@QAENXZ 10011ad0 f i Drawbox.obj
 0001:00010af0       ?SetCoLinear@CHitNet@@QAEXN@Z 10011af0 f i Drawbox.obj
 0001:00010b20       ?GetCoLinearOld@CHitNet@@QAENXZ 10011b20 f i Drawbox.obj
 0001:00010b40       ?SetCoLinearOld@CHitNet@@QAEXN@Z 10011b40 f i Drawbox.obj
 0001:00010b70       ?GetCoLinearDefault@CHitNet@@QAENXZ 10011b70 f i Drawbox.obj
 0001:00010b90       ?SetCoLinearDefault@CHitNet@@QAEXN@Z 10011b90 f i Drawbox.obj
 0001:00010bc0       ?GetCoPlanar@CHitNet@@QAENXZ 10011bc0 f i Drawbox.obj
 0001:00010be0       ?SetCoPlanar@CHitNet@@QAEXN@Z 10011be0 f i Drawbox.obj
 0001:00010c10       ?GetCoPlanarOld@CHitNet@@QAENXZ 10011c10 f i Drawbox.obj
 0001:00010c30       ?SetCoPlanarOld@CHitNet@@QAEXN@Z 10011c30 f i Drawbox.obj
 0001:00010c60       ?GetCoPlanarDefault@CHitNet@@QAENXZ 10011c60 f i Drawbox.obj
 0001:00010c80       ?SetCoPlanarDefault@CHitNet@@QAEXN@Z 10011c80 f i Drawbox.obj
 0001:00010cb0       ?GetMergeNode_X@CHitNet@@QAENXZ 10011cb0 f i Drawbox.obj
 0001:00010cd0       ?SetMergeNode_X@CHitNet@@QAEXN@Z 10011cd0 f i Drawbox.obj
 0001:00010d00       ?GetMergeNode_XOld@CHitNet@@QAENXZ 10011d00 f i Drawbox.obj
 0001:00010d20       ?SetMergeNode_XOld@CHitNet@@QAEXN@Z 10011d20 f i Drawbox.obj
 0001:00010d50       ?GetMergeNode_XDefault@CHitNet@@QAENXZ 10011d50 f i Drawbox.obj
 0001:00010d70       ?SetMergeNode_XDefault@CHitNet@@QAEXN@Z 10011d70 f i Drawbox.obj
 0001:00010da0       ?GetMergeNode_Y@CHitNet@@QAENXZ 10011da0 f i Drawbox.obj
 0001:00010dc0       ?SetMergeNode_Y@CHitNet@@QAEXN@Z 10011dc0 f i Drawbox.obj
 0001:00010df0       ?GetMergeNode_YOld@CHitNet@@QAENXZ 10011df0 f i Drawbox.obj
 0001:00010e10       ?SetMergeNode_YOld@CHitNet@@QAEXN@Z 10011e10 f i Drawbox.obj
 0001:00010e40       ?GetMergeNode_YDefault@CHitNet@@QAENXZ 10011e40 f i Drawbox.obj
 0001:00010e60       ?SetMergeNode_YDefault@CHitNet@@QAEXN@Z 10011e60 f i Drawbox.obj
 0001:00010e90       ?GetMergeNode_Z@CHitNet@@QAENXZ 10011e90 f i Drawbox.obj
 0001:00010eb0       ?SetMergeNode_Z@CHitNet@@QAEXN@Z 10011eb0 f i Drawbox.obj
 0001:00010ee0       ?GetMergeNode_ZOld@CHitNet@@QAENXZ 10011ee0 f i Drawbox.obj
 0001:00010f00       ?SetMergeNode_ZOld@CHitNet@@QAEXN@Z 10011f00 f i Drawbox.obj
 0001:00010f30       ?GetMergeNode_ZDefault@CHitNet@@QAENXZ 10011f30 f i Drawbox.obj
 0001:00010f50       ?SetMergeNode_ZDefault@CHitNet@@QAEXN@Z 10011f50 f i Drawbox.obj
 0001:00010f80       ??1CHitNet@@UAE@XZ         10011f80 f i Drawbox.obj
 0001:00010fb0       ??_GCHitNet@@UAEPAXI@Z     10011fb0 f i Drawbox.obj
 0001:00010ff0       ??_ECHitNet@@UAEPAXI@Z     10011ff0 f i Drawbox.obj
 0001:00011070       ?GetObjectType@CLayer@@UAEHXZ 10012070 f i Drawbox.obj
 0001:00011090       ?SetObjectType@CLayer@@UAEXH@Z 10012090 f i Drawbox.obj
 0001:000110c0       ?GetElemType@CLayer@@UAEHXZ 100120c0 f i Drawbox.obj
 0001:000110e0       ?SetElemType@CLayer@@UAEXH@Z 100120e0 f i Drawbox.obj
 0001:00011110       ?GetObjectNo@CLayer@@UAEJXZ 10012110 f i Drawbox.obj
 0001:00011130       ?SetObjectNo@CLayer@@UAEXJ@Z 10012130 f i Drawbox.obj
 0001:00011160       ?GetCurrentLayer@CLayer@@UAEIXZ 10012160 f i Drawbox.obj
 0001:00011180       ?SetCurrentLayer@CLayer@@UAEXI@Z 10012180 f i Drawbox.obj
 0001:000111b0       ?GetCurrentLayerOld@CLayer@@UAEIXZ 100121b0 f i Drawbox.obj
 0001:000111d0       ?SetCurrentLayerOld@CLayer@@UAEXI@Z 100121d0 f i Drawbox.obj
 0001:00011200       ?GetCurrentLayerDefault@CLayer@@UAEIXZ 10012200 f i Drawbox.obj
 0001:00011220       ?SetCurrentLayerDefault@CLayer@@UAEXI@Z 10012220 f i Drawbox.obj
 0001:00011250       ??1CLayer@@UAE@XZ          10012250 f i Drawbox.obj
 0001:00011280       ??_GCLayer@@UAEPAXI@Z      10012280 f i Drawbox.obj
 0001:000112c0       ??_ECLayer@@UAEPAXI@Z      100122c0 f i Drawbox.obj
 0001:00011340       ?GetObjectType@CPatchMnu@@UAEHXZ 10012340 f i Drawbox.obj
 0001:00011360       ?SetObjectType@CPatchMnu@@UAEXH@Z 10012360 f i Drawbox.obj
 0001:00011390       ?GetElemType@CPatchMnu@@UAEHXZ 10012390 f i Drawbox.obj
 0001:000113b0       ?SetElemType@CPatchMnu@@UAEXH@Z 100123b0 f i Drawbox.obj
 0001:000113e0       ?GetObjectNo@CPatchMnu@@UAEJXZ 100123e0 f i Drawbox.obj
 0001:00011400       ?SetObjectNo@CPatchMnu@@UAEXJ@Z 10012400 f i Drawbox.obj
 0001:00011430       ?GetCurrentPatchMnu@CPatchMnu@@UAEIXZ 10012430 f i Drawbox.obj
 0001:00011450       ?SetCurrentPatchMnu@CPatchMnu@@UAEXI@Z 10012450 f i Drawbox.obj
 0001:00011480       ?GetCurrentPatchMnuOld@CPatchMnu@@UAEIXZ 10012480 f i Drawbox.obj
 0001:000114a0       ?SetCurrentPatchMnuOld@CPatchMnu@@UAEXI@Z 100124a0 f i Drawbox.obj
 0001:000114d0       ?GetCurrentPatchMnuDefault@CPatchMnu@@UAEIXZ 100124d0 f i Drawbox.obj
 0001:000114f0       ?SetCurrentPatchMnuDefault@CPatchMnu@@UAEXI@Z 100124f0 f i Drawbox.obj
 0001:00011520       ?GetPatchMnuID@CPatchMnu@@UAE?AVCString@@I@Z 10012520 f i Drawbox.obj
 0001:00011560       ?SetPatchMnuID@CPatchMnu@@UAEXVCString@@I@Z 10012560 f i Drawbox.obj
 0001:000115c0       ?GetCurrentID@CPatchMnu@@UAE?AVCString@@XZ 100125c0 f i Drawbox.obj
 0001:00011600       ?SetCurrentID@CPatchMnu@@UAEXVCString@@@Z 10012600 f i Drawbox.obj
 0001:00011660       ??1CPatchMnu@@UAE@XZ       10012660 f i Drawbox.obj
 0001:000116f0       ??_GCPatchMnu@@UAEPAXI@Z   100126f0 f i Drawbox.obj
 0001:00011730       ??_ECPatchMnu@@UAEPAXI@Z   10012730 f i Drawbox.obj
 0001:000117b0       ?GetObjectType@CObj3DMnu@@UAEHXZ 100127b0 f i Drawbox.obj
 0001:000117d0       ?SetObjectType@CObj3DMnu@@UAEXH@Z 100127d0 f i Drawbox.obj
 0001:00011800       ?GetElemType@CObj3DMnu@@UAEHXZ 10012800 f i Drawbox.obj
 0001:00011820       ?SetElemType@CObj3DMnu@@UAEXH@Z 10012820 f i Drawbox.obj
 0001:00011850       ?GetObjectNo@CObj3DMnu@@UAEJXZ 10012850 f i Drawbox.obj
 0001:00011870       ?SetObjectNo@CObj3DMnu@@UAEXJ@Z 10012870 f i Drawbox.obj
 0001:000118a0       ?GetCurrentObj3DMnu@CObj3DMnu@@UAEIXZ 100128a0 f i Drawbox.obj
 0001:000118c0       ?SetCurrentObj3DMnu@CObj3DMnu@@UAEXI@Z 100128c0 f i Drawbox.obj
 0001:000118f0       ?GetCurrentObj3DMnuOld@CObj3DMnu@@UAEIXZ 100128f0 f i Drawbox.obj
 0001:00011910       ?SetCurrentObj3DMnuOld@CObj3DMnu@@UAEXI@Z 10012910 f i Drawbox.obj
 0001:00011940       ?GetCurrentObj3DMnuDefault@CObj3DMnu@@UAEIXZ 10012940 f i Drawbox.obj
 0001:00011960       ?SetCurrentObj3DMnuDefault@CObj3DMnu@@UAEXI@Z 10012960 f i Drawbox.obj
 0001:00011990       ?GetObj3DMnuID@CObj3DMnu@@UAE?AVCString@@I@Z 10012990 f i Drawbox.obj
 0001:000119d0       ?SetObj3DMnuID@CObj3DMnu@@UAEXVCString@@I@Z 100129d0 f i Drawbox.obj
 0001:00011a30       ?GetCurrentID@CObj3DMnu@@UAE?AVCString@@XZ 10012a30 f i Drawbox.obj
 0001:00011a70       ?SetCurrentID@CObj3DMnu@@UAEXVCString@@@Z 10012a70 f i Drawbox.obj
 0001:00011ad0       ??1CObj3DMnu@@UAE@XZ       10012ad0 f i Drawbox.obj
 0001:00011b60       ??_GCObj3DMnu@@UAEPAXI@Z   10012b60 f i Drawbox.obj
 0001:00011ba0       ??_ECObj3DMnu@@UAEPAXI@Z   10012ba0 f i Drawbox.obj
 0001:00011c20       ?GetObjectType@CMapFactor@@UAEHXZ 10012c20 f i Drawbox.obj
 0001:00011c40       ?SetObjectType@CMapFactor@@UAEXH@Z 10012c40 f i Drawbox.obj
 0001:00011c70       ?GetElemType@CMapFactor@@UAEHXZ 10012c70 f i Drawbox.obj
 0001:00011c90       ?SetElemType@CMapFactor@@UAEXH@Z 10012c90 f i Drawbox.obj
 0001:00011cc0       ?GetObjectNo@CMapFactor@@UAEJXZ 10012cc0 f i Drawbox.obj
 0001:00011ce0       ?SetObjectNo@CMapFactor@@UAEXJ@Z 10012ce0 f i Drawbox.obj
 0001:00011d10       ?GetMapFactor@CMapFactor@@UAENXZ 10012d10 f i Drawbox.obj
 0001:00011d30       ?SetMapFactor@CMapFactor@@UAEXN@Z 10012d30 f i Drawbox.obj
 0001:00011d60       ?GetMapModeIndex@CMapFactor@@UAEHXZ 10012d60 f i Drawbox.obj
 0001:00011d80       ?SetMapModeIndex@CMapFactor@@UAEXH@Z 10012d80 f i Drawbox.obj
 0001:00011db0       ??1CMapFactor@@UAE@XZ      10012db0 f i Drawbox.obj
 0001:00011de0       ??_GCMapFactor@@UAEPAXI@Z  10012de0 f i Drawbox.obj
 0001:00011e20       ??_ECMapFactor@@UAEPAXI@Z  10012e20 f i Drawbox.obj
 0001:00011ea0       ?GetObjectType@CPrecision@@UAEHXZ 10012ea0 f i Drawbox.obj
 0001:00011ec0       ?SetObjectType@CPrecision@@UAEXH@Z 10012ec0 f i Drawbox.obj
 0001:00011ef0       ?GetElemType@CPrecision@@UAEHXZ 10012ef0 f i Drawbox.obj
 0001:00011f10       ?SetElemType@CPrecision@@UAEXH@Z 10012f10 f i Drawbox.obj
 0001:00011f40       ?GetObjectNo@CPrecision@@UAEJXZ 10012f40 f i Drawbox.obj
 0001:00011f60       ?SetObjectNo@CPrecision@@UAEXJ@Z 10012f60 f i Drawbox.obj
 0001:00011f90       ?GetPrecision@CPrecision@@UAEIXZ 10012f90 f i Drawbox.obj
 0001:00011fb0       ?SetPrecision@CPrecision@@UAEXI@Z 10012fb0 f i Drawbox.obj
 0001:00011fe0       ?GetPrecisionOld@CPrecision@@UAEIXZ 10012fe0 f i Drawbox.obj
 0001:00012000       ?SetPrecisionOld@CPrecision@@UAEXI@Z 10013000 f i Drawbox.obj
 0001:00012030       ?GetPrecisionDefault@CPrecision@@UAEIXZ 10013030 f i Drawbox.obj
 0001:00012050       ?SetPrecisionDefault@CPrecision@@UAEXI@Z 10013050 f i Drawbox.obj
 0001:00012080       ?GetWorldBase@CPrecision@@UAEJXZ 10013080 f i Drawbox.obj
 0001:000120a0       ?SetWorldBase@CPrecision@@UAEXJ@Z 100130a0 f i Drawbox.obj
 0001:000120d0       ?GetWorldBaseOld@CPrecision@@UAEJXZ 100130d0 f i Drawbox.obj
 0001:000120f0       ?SetWorldBaseOld@CPrecision@@UAEXJ@Z 100130f0 f i Drawbox.obj
 0001:00012120       ?GetWorldBaseDefault@CPrecision@@UAEJXZ 10013120 f i Drawbox.obj
 0001:00012140       ?SetWorldBaseDefault@CPrecision@@UAEXJ@Z 10013140 f i Drawbox.obj
 0001:00012170       ??1CPrecision@@UAE@XZ      10013170 f i Drawbox.obj
 0001:000121a0       ??_GCPrecision@@UAEPAXI@Z  100131a0 f i Drawbox.obj
 0001:000121e0       ??_ECPrecision@@UAEPAXI@Z  100131e0 f i Drawbox.obj
 0001:00012260       ?GetObjectType@CScaleFactor@@UAEHXZ 10013260 f i Drawbox.obj
 0001:00012280       ?SetObjectType@CScaleFactor@@UAEXH@Z 10013280 f i Drawbox.obj
 0001:000122b0       ?GetElemType@CScaleFactor@@UAEHXZ 100132b0 f i Drawbox.obj
 0001:000122d0       ?SetElemType@CScaleFactor@@UAEXH@Z 100132d0 f i Drawbox.obj
 0001:00012300       ?GetObjectNo@CScaleFactor@@UAEJXZ 10013300 f i Drawbox.obj
 0001:00012320       ?SetObjectNo@CScaleFactor@@UAEXJ@Z 10013320 f i Drawbox.obj
 0001:00012350       ?GetScaleFactor@CScaleFactor@@UAENXZ 10013350 f i Drawbox.obj
 0001:00012370       ?SetScaleFactor@CScaleFactor@@UAEXN@Z 10013370 f i Drawbox.obj
 0001:000123a0       ?GetScaleFactorOld@CScaleFactor@@UAENXZ 100133a0 f i Drawbox.obj
 0001:000123c0       ?SetScaleFactorOld@CScaleFactor@@UAEXN@Z 100133c0 f i Drawbox.obj
 0001:000123f0       ?GetScaleFactorDefault@CScaleFactor@@UAENXZ 100133f0 f i Drawbox.obj
 0001:00012410       ?SetScaleFactorDefault@CScaleFactor@@UAEXN@Z 10013410 f i Drawbox.obj
 0001:00012440       ??1CScaleFactor@@UAE@XZ    10013440 f i Drawbox.obj
 0001:00012470       ??_GCScaleFactor@@UAEPAXI@Z 10013470 f i Drawbox.obj
 0001:000124b0       ??_ECScaleFactor@@UAEPAXI@Z 100134b0 f i Drawbox.obj
 0001:00012530       ?GetObjectType@CUnit@@UAEHXZ 10013530 f i Drawbox.obj
 0001:00012550       ?SetObjectType@CUnit@@UAEXH@Z 10013550 f i Drawbox.obj
 0001:00012580       ?GetElemType@CUnit@@UAEHXZ 10013580 f i Drawbox.obj
 0001:000125a0       ?SetElemType@CUnit@@UAEXH@Z 100135a0 f i Drawbox.obj
 0001:000125d0       ?GetObjectNo@CUnit@@UAEJXZ 100135d0 f i Drawbox.obj
 0001:000125f0       ?SetObjectNo@CUnit@@UAEXJ@Z 100135f0 f i Drawbox.obj
 0001:00012620       ?GetUnitName@CUnit@@UAE?AVCString@@I@Z 10013620 f i Drawbox.obj
 0001:00012660       ?GetUnitIndex@CUnit@@UAEIXZ 10013660 f i Drawbox.obj
 0001:00012680       ?SetUnitIndex@CUnit@@UAEXI@Z 10013680 f i Drawbox.obj
 0001:000126b0       ?GetUnitIndexOld@CUnit@@UAEIXZ 100136b0 f i Drawbox.obj
 0001:000126d0       ?SetUnitIndexOld@CUnit@@UAEXI@Z 100136d0 f i Drawbox.obj
 0001:00012700       ?GetUnitIndexDefault@CUnit@@UAEIXZ 10013700 f i Drawbox.obj
 0001:00012720       ?SetUnitIndexDefault@CUnit@@UAEXI@Z 10013720 f i Drawbox.obj
 0001:00012750       ?GetUnitNameCount@CUnit@@UAEIXZ 10013750 f i Drawbox.obj
 0001:00012770       ?SetUnitNameCount@CUnit@@UAEXI@Z 10013770 f i Drawbox.obj
 0001:000127a0       ??1CUnit@@UAE@XZ           100137a0 f i Drawbox.obj
 0001:00012810       ??_GCUnit@@UAEPAXI@Z       10013810 f i Drawbox.obj
 0001:00012850       ??_ECUnit@@UAEPAXI@Z       10013850 f i Drawbox.obj
 0001:000128d0       ??1CDataRowHint@@UAE@XZ    100138d0 f i Drawbox.obj
 0001:000128f0       ?GetMapFactor@CObjectMgr@@UAEPAVCMapFactor@@XZ 100138f0 f i Drawbox.obj
 0001:00012910       ?GetPrecision@CObjectMgr@@UAEPAVCPrecision@@XZ 10013910 f i Drawbox.obj
 0001:00012930       ?GetScaleFactor@CObjectMgr@@UAEPAVCScaleFactor@@XZ 10013930 f i Drawbox.obj
 0001:00012950       ?GetUnit@CObjectMgr@@UAEPAVCUnit@@XZ 10013950 f i Drawbox.obj
 0001:00012970       ?GetObjectListFromIndex@CObjectMgr@@UAEPAVCDListMgr@@H@Z 10013970 f i Drawbox.obj
 0001:000129b0       ?IsSceneChanged@CObjectMgr@@UAEHXZ 100139b0 f i Drawbox.obj
 0001:000129d0       ?SetSceneChanged@CObjectMgr@@UAEXH@Z 100139d0 f i Drawbox.obj
 0001:00012a00       ?IsViewChanged@CObjectMgr@@UAEHXZ 10013a00 f i Drawbox.obj
 0001:00012a20       ?SetViewChanged@CObjectMgr@@UAEXH@Z 10013a20 f i Drawbox.obj
 0001:00012a50       ?GetMasterLastObjectNo@CObjectMgr@@UAEIXZ 10013a50 f i Drawbox.obj
 0001:00012a70       ?SetMasterLastObjectNo@CObjectMgr@@UAEXI@Z 10013a70 f i Drawbox.obj
 0001:00012aa0       ?GetActiveObjectNo@CObjectMgr@@UAEIXZ 10013aa0 f i Drawbox.obj
 0001:00012ac0       ?SetActiveObjectNo@CObjectMgr@@UAEXI@Z 10013ac0 f i Drawbox.obj
 0001:00012af0       ?GetActiveListIndex@CObjectMgr@@UAEHXZ 10013af0 f i Drawbox.obj
 0001:00012b10       ?SetActiveListIndex@CObjectMgr@@UAEXH@Z 10013b10 f i Drawbox.obj
 0001:00012b40       ?GetActiveObjectIndex@CObjectMgr@@UAEHXZ 10013b40 f i Drawbox.obj
 0001:00012b60       ?SetActiveObjectIndex@CObjectMgr@@UAEXH@Z 10013b60 f i Drawbox.obj
 0001:00012b90       ?GetActiveObjectType@CObjectMgr@@UAEHXZ 10013b90 f i Drawbox.obj
 0001:00012bb0       ?SetActiveObjectType@CObjectMgr@@UAEXH@Z 10013bb0 f i Drawbox.obj
 0001:00012be0       ?GetRowList@CObjectMgr@@QAEPAV?$CList@JJ@@XZ 10013be0 f i Drawbox.obj
 0001:00012c00       ?GetRowCount@CObjectMgr@@QAEHXZ 10013c00 f i Drawbox.obj
 0001:00012c30       ?GetActiveRowIndex@CObjectMgr@@QAEHXZ 10013c30 f i Drawbox.obj
 0001:00012c50       ?SetActiveRowIndex@CObjectMgr@@QAEXH@Z 10013c50 f i Drawbox.obj
 0001:00012c80       ?GetFormat@CObjectMgr@@UAE?AVCString@@XZ 10013c80 f i Drawbox.obj
 0001:00012cc0       ?IsMeshGenOn@CObjectMgr@@UAEHXZ 10013cc0 f i Drawbox.obj
 0001:00012ce0       ?SetMeshGenOn@CObjectMgr@@UAEXH@Z 10013ce0 f i Drawbox.obj
 0001:00012d10       ?GetMeshType@CObjectMgr@@UAEIXZ 10013d10 f i Drawbox.obj
 0001:00012d30       ?SetMeshType@CObjectMgr@@UAEXI@Z 10013d30 f i Drawbox.obj
 0001:00012d60       ?GetCurrentTopLevel@CObjectMgr@@UAEHXZ 10013d60 f i Drawbox.obj
 0001:00012d80       ?SetCurrentTopLevel@CObjectMgr@@UAEXH@Z 10013d80 f i Drawbox.obj
 0001:00012db0       ?GetObjectType@CElemInfo@@UAEHXZ 10013db0 f i Drawbox.obj
 0001:00012dd0       ?SetObjectType@CElemInfo@@UAEXH@Z 10013dd0 f i Drawbox.obj
 0001:00012e00       ?GetElemType@CElemInfo@@UAEHXZ 10013e00 f i Drawbox.obj
 0001:00012e20       ?SetElemType@CElemInfo@@UAEXH@Z 10013e20 f i Drawbox.obj
 0001:00012e50       ?GetObjectNo@CElemInfo@@UAEJXZ 10013e50 f i Drawbox.obj
 0001:00012e70       ?SetObjectNo@CElemInfo@@UAEXJ@Z 10013e70 f i Drawbox.obj
 0001:00012ea0       ?GetInfoList@CElemInfo@@UAEPAVCDListMgr@@H@Z 10013ea0 f i Drawbox.obj
 0001:00012ed0       ??1CElemInfo@@UAE@XZ       10013ed0 f i Drawbox.obj
 0001:00012f40       ??_GCElemInfo@@UAEPAXI@Z   10013f40 f i Drawbox.obj
 0001:00012f80       ??_ECElemInfo@@UAEPAXI@Z   10013f80 f i Drawbox.obj
 0001:00013000       ??1CMeshRowHint@@UAE@XZ    10014000 f i Drawbox.obj
 0001:00013020       ?GetRowList@CMsObjMgr@@QAEPAV?$CList@JJ@@XZ 10014020 f i Drawbox.obj
 0001:00013040       ?GetRowCount@CMsObjMgr@@QAEHXZ 10014040 f i Drawbox.obj
 0001:00013070       ?GetActiveRowIndex@CMsObjMgr@@QAEHXZ 10014070 f i Drawbox.obj
 0001:00013090       ?SetActiveRowIndex@CMsObjMgr@@QAEXH@Z 10014090 f i Drawbox.obj
 0001:000130c0       ??1CBaseRowHint@@UAE@XZ    100140c0 f i Drawbox.obj
 0001:000130e0       ?GetCurrentItem@CDbObjMgr@@QAEAAVCString@@XZ 100140e0 f i Drawbox.obj
 0001:00013100       ?SetCurrentItem@CDbObjMgr@@QAEXAAVCString@@@Z 10014100 f i Drawbox.obj
 0001:00013130       ?GetCurrentParent@CDbObjMgr@@QAEAAVCString@@XZ 10014130 f i Drawbox.obj
 0001:00013150       ?SetCurrentParent@CDbObjMgr@@QAEXAAVCString@@@Z 10014150 f i Drawbox.obj
 0001:00013180       ??1CAxDataRowHint@@UAE@XZ  10014180 f i Drawbox.obj
 0001:000131a0       ?GetMapFactor@CAxObjMgr@@UAEPAVCMapFactor@@XZ 100141a0 f i Drawbox.obj
 0001:000131c0       ?GetPrecision@CAxObjMgr@@UAEPAVCPrecision@@XZ 100141c0 f i Drawbox.obj
 0001:000131e0       ?GetScaleFactor@CAxObjMgr@@UAEPAVCScaleFactor@@XZ 100141e0 f i Drawbox.obj
 0001:00013200       ?GetUnit@CAxObjMgr@@UAEPAVCUnit@@XZ 10014200 f i Drawbox.obj
 0001:00013220       ?GetObjectListFromIndex@CAxObjMgr@@UAEPAVCDListMgr@@H@Z 10014220 f i Drawbox.obj
 0001:00013260       ?IsSceneChanged@CAxObjMgr@@UAEHXZ 10014260 f i Drawbox.obj
 0001:00013280       ?SetSceneChanged@CAxObjMgr@@UAEXH@Z 10014280 f i Drawbox.obj
 0001:000132b0       ?IsViewChanged@CAxObjMgr@@UAEHXZ 100142b0 f i Drawbox.obj
 0001:000132d0       ?SetViewChanged@CAxObjMgr@@UAEXH@Z 100142d0 f i Drawbox.obj
 0001:00013300       ?GetMasterLastObjectNo@CAxObjMgr@@UAEIXZ 10014300 f i Drawbox.obj
 0001:00013320       ?SetMasterLastObjectNo@CAxObjMgr@@UAEXI@Z 10014320 f i Drawbox.obj
 0001:00013350       ?GetActiveObjectNo@CAxObjMgr@@UAEIXZ 10014350 f i Drawbox.obj
 0001:00013370       ?SetActiveObjectNo@CAxObjMgr@@UAEXI@Z 10014370 f i Drawbox.obj
 0001:000133a0       ?GetActiveListIndex@CAxObjMgr@@UAEHXZ 100143a0 f i Drawbox.obj
 0001:000133c0       ?SetActiveListIndex@CAxObjMgr@@UAEXH@Z 100143c0 f i Drawbox.obj
 0001:000133f0       ?GetActiveObjectIndex@CAxObjMgr@@UAEHXZ 100143f0 f i Drawbox.obj
 0001:00013410       ?SetActiveObjectIndex@CAxObjMgr@@UAEXH@Z 10014410 f i Drawbox.obj
 0001:00013440       ?GetActiveObjectType@CAxObjMgr@@UAEHXZ 10014440 f i Drawbox.obj
 0001:00013460       ?SetActiveObjectType@CAxObjMgr@@UAEXH@Z 10014460 f i Drawbox.obj
 0001:00013490       ?GetRowList@CAxObjMgr@@QAEPAV?$CList@JJ@@XZ 10014490 f i Drawbox.obj
 0001:000134b0       ?GetRowCount@CAxObjMgr@@QAEHXZ 100144b0 f i Drawbox.obj
 0001:000134e0       ?GetActiveRowIndex@CAxObjMgr@@QAEHXZ 100144e0 f i Drawbox.obj
 0001:00013500       ?SetActiveRowIndex@CAxObjMgr@@QAEXH@Z 10014500 f i Drawbox.obj
 0001:00013530       ?GetFormat@CAxObjMgr@@UAE?AVCString@@XZ 10014530 f i Drawbox.obj
 0001:00013570       ?IsMeshGenOn@CAxObjMgr@@UAEHXZ 10014570 f i Drawbox.obj
 0001:00013590       ?SetMeshGenOn@CAxObjMgr@@UAEXH@Z 10014590 f i Drawbox.obj
 0001:000135c0       ?GetMeshType@CAxObjMgr@@UAEIXZ 100145c0 f i Drawbox.obj
 0001:000135e0       ?SetMeshType@CAxObjMgr@@UAEXI@Z 100145e0 f i Drawbox.obj
 0001:00013610       ?GetCurrentTopLevel@CAxObjMgr@@UAEHXZ 10014610 f i Drawbox.obj
 0001:00013630       ?SetCurrentTopLevel@CAxObjMgr@@UAEXH@Z 10014630 f i Drawbox.obj
 0001:00013660       ?_GetBaseMessageMap@CDrawBox@@KGPBUAFX_MSGMAP@@XZ 10014660 f   Drawbox.obj
 0001:00013680       ?GetMessageMap@CDrawBox@@MBEPBUAFX_MSGMAP@@XZ 10014680 f   Drawbox.obj
 0001:000136a0       ?_GetBaseClass@CDrawBox@@KGPAUCRuntimeClass@@XZ 100146a0 f   Drawbox.obj
 0001:000136c0       ?GetRuntimeClass@CDrawBox@@UBEPAUCRuntimeClass@@XZ 100146c0 f   Drawbox.obj
 0001:000136e0       ??0CDrawBox@@QAE@XZ        100146e0 f   Drawbox.obj
 0001:00013800       ??_GCDrawBox@@UAEPAXI@Z    10014800 f i Drawbox.obj
 0001:00013800       ??_ECDrawBox@@UAEPAXI@Z    10014800 f i Drawbox.obj
 0001:00013840       ??1CDrawBox@@UAE@XZ        10014840 f   Drawbox.obj
 0001:000138e0       ?Create@CDrawBox@@QAEHPAVCWnd@@VCRect@@@Z 100148e0 f   Drawbox.obj
 0001:000139a0       ?GetHeight@CDrawBox@@QAEIXZ 100149a0 f   Drawbox.obj
 0001:000139c0       ?GetWidth@CDrawBox@@QAEIXZ 100149c0 f   Drawbox.obj
 0001:000139e0       ?GetActiveTool@CDrawBox@@QAEHXZ 100149e0 f   Drawbox.obj
 0001:00013a00       ?GetActiveDrawObject@CDrawBox@@QAEHXZ 10014a00 f   Drawbox.obj
 0001:00013a20       ?GetForeColor@CDrawBox@@QAEKXZ 10014a20 f   Drawbox.obj
 0001:00013a40       ?GetBackColor@CDrawBox@@QAEKXZ 10014a40 f   Drawbox.obj
 0001:00013a60       ?FillToolNumArray@CDrawBox@@QAEXXZ 10014a60 f   Drawbox.obj
 0001:00013ab0       ?GetToolNum@CDrawBox@@QAEHH@Z 10014ab0 f   Drawbox.obj
 0001:00013b00       ?IsDrawTool@CDrawBox@@QAEHI@Z 10014b00 f   Drawbox.obj
 0001:00013b60       ?IsEditMoveTool@CDrawBox@@QAEHI@Z 10014b60 f   Drawbox.obj
 0001:00013bc0       ?IsDrawObject@CDrawBox@@QAEHI@Z 10014bc0 f   Drawbox.obj
 0001:00013c30       ?OnCreate@CDrawBox@@IAEHPAUtagCREATESTRUCTA@@@Z 10014c30 f   Drawbox.obj
 0001:00013d20       ?SetWidth@CDrawBox@@QAEXI@Z 10014d20 f i Drawbox.obj
 0001:00013d50       ?SetHeight@CDrawBox@@QAEXI@Z 10014d50 f i Drawbox.obj
 0001:00013d80       ?CreateDrawBar@CDrawBox@@IAEHXZ 10014d80 f   Drawbox.obj
 0001:00013fb0       ?CreateColorSquares@CDrawBox@@IAEHXZ 10014fb0 f   Drawbox.obj
 0001:00014210       ?GetColorSquareRowMax@CDrawBox@@QAEIXZ 10015210 f i Drawbox.obj
 0001:00014230       ?SetSqTop@CDrawBox@@QAEXI@Z 10015230 f i Drawbox.obj
 0001:00014260       ?GetSqTop@CDrawBox@@QAEIXZ 10015260 f i Drawbox.obj
 0001:00014280       ?CreateZoomScreen@CDrawBox@@IAEHXZ 10015280 f   Drawbox.obj
 0001:000142e0       ?OnPaint@CDrawBox@@IAEXXZ  100152e0 f   Drawbox.obj
 0001:00014430       ?Draw_Bottom_Box@CDrawBox@@IAEXXZ 10015430 f   Drawbox.obj
 0001:000145d0       ?Draw_Fore_Back_Rect@CDrawBox@@IAEXXZ 100155d0 f   Drawbox.obj
 0001:00014730       ?OnMouseActivate@CDrawBox@@IAEHPAVCWnd@@II@Z 10015730 f   Drawbox.obj
 0001:00014750       ?GoRespondtoMouse@CDrawBox@@QAEXXZ 10015750 f   Drawbox.obj
 0001:00014840       ?GetDocument@CDrGrafApp@@QAEPAVCDrGrafDoc@@XZ 10015840 f i Drawbox.obj
 0001:00014860       ?SetIGenBoxStatus@CDrGrafFrame@@QAEXH@Z 10015860 f i Drawbox.obj
 0001:00014890       ?SetActiveObjectType@CDrGrafFrame@@QAEXH@Z 10015890 f i Drawbox.obj
 0001:000148c0       ?SetActiveToolType@CDrGrafFrame@@QAEXH@Z 100158c0 f i Drawbox.obj
 0001:000148f0       ?SetCntlBoxStatus@CDrGrafFrame@@QAEXH@Z 100158f0 f i Drawbox.obj
 0001:00014920       ?SetDrawBoxStatus@CDrGrafFrame@@QAEXH@Z 10015920 f i Drawbox.obj
 0001:00014950       ?SetActiveForeColor@CDrGrafFrame@@QAEXK@Z 10015950 f i Drawbox.obj
 0001:00014980       ?SetActiveBackColor@CDrGrafFrame@@QAEXK@Z 10015980 f i Drawbox.obj
 0001:000149b0       ?GetObjectMgr@CDrGrafDoc@@QAEPAVCObjectMgr@@XZ 100159b0 f i Drawbox.obj
 0001:000149d0       ?GetCount@?$CList@JJ@@QBEHXZ 100159d0 f i Drawbox.obj
 0001:00014a70       ??0GLOBAL_DATA@@QAE@XZ     10015a70 f   OldGlob.obj
 0001:00014c30       ??1GLOBAL_DATA@@QAE@XZ     10015c30 f   OldGlob.obj
 0001:00014cd0       ?UpdateSysColors@GLOBAL_DATA@@QAEXXZ 10015cd0 f   OldGlob.obj
 0001:00014f30       ?UpdateSysMetrics@GLOBAL_DATA@@QAEXXZ 10015f30 f   OldGlob.obj
 0001:00014fb0       ?_GetBaseClass@CPaletteBar@@KGPAUCRuntimeClass@@XZ 10015fb0 f   Palette.obj
 0001:00014fd0       ?GetRuntimeClass@CPaletteBar@@UBEPAUCRuntimeClass@@XZ 10015fd0 f   Palette.obj
 0001:00014ff0       ?_GetBaseMessageMap@CPaletteBar@@KGPBUAFX_MSGMAP@@XZ 10015ff0 f   Palette.obj
 0001:00015010       ?GetMessageMap@CPaletteBar@@MBEPBUAFX_MSGMAP@@XZ 10016010 f   Palette.obj
 0001:00015030       ??0CPaletteBar@@QAE@XZ     10016030 f   Palette.obj
 0001:00015100       ??_GCPaletteBar@@UAEPAXI@Z 10016100 f i Palette.obj
 0001:00015100       ??_ECPaletteBar@@UAEPAXI@Z 10016100 f i Palette.obj
 0001:00015140       ??1CPaletteBar@@UAE@XZ     10016140 f   Palette.obj
 0001:00015170       ?OnDestroy@CPaletteBar@@IAEXXZ 10016170 f   Palette.obj
 0001:00015190       ?SetSizes@CPaletteBar@@UAEXUtagSIZE@@0H@Z 10016190 f   Palette.obj
 0001:00015210       ?SetButtons@CPaletteBar@@UAEHPBIHI@Z 10016210 f   Palette.obj
 0001:00015260       ?Create@CPaletteBar@@UAEHPAVCWnd@@HHII@Z 10016260 f   Palette.obj
 0001:000152e0       ?RecalcLayout@CPaletteBar@@UAEXI@Z 100162e0 f   Palette.obj
 0001:00015380       ?AssertValid@CPaletteBar@@UBEXXZ 10016380 f   Palette.obj
 0001:000153a0       ?Dump@CPaletteBar@@UBEXAAVCDumpContext@@@Z 100163a0 f   Palette.obj
 0001:000153d0       ?DoPaint@CPaletteBar@@MAEXPAVCDC@@@Z 100163d0 f   Palette.obj
 0001:00015600       ?OnLButtonDown@CPaletteBar@@IAEXIVCPoint@@@Z 10016600 f   Palette.obj
 0001:000156a0       ?OnLButtonUp@CPaletteBar@@IAEXIVCPoint@@@Z 100166a0 f   Palette.obj
 0001:00015750       ?OnMouseMove@CPaletteBar@@IAEXIVCPoint@@@Z 10016750 f   Palette.obj
 0001:000157e0       ?InvertTracker@CPaletteBar@@IAEXVCPoint@@@Z 100167e0 f   Palette.obj
 0001:00015950       ?GetItemRect@CPaletteBar@@UBEXHPAUtagRECT@@@Z 10016950 f   Palette.obj
 0001:00015a50       ?HitTest@CPaletteBar@@MAEHVCPoint@@@Z 10016a50 f   Palette.obj
 0001:00015b40       ?OnMouseActivate@CPaletteBar@@IAEHPAVCWnd@@II@Z 10016b40 f   Palette.obj
 0001:00015b60       ?_GetBaseClass@CVOprBar@@KGPAUCRuntimeClass@@XZ 10016b60 f   VOprBar.obj
 0001:00015b80       ?GetRuntimeClass@CVOprBar@@UBEPAUCRuntimeClass@@XZ 10016b80 f   VOprBar.obj
 0001:00015ba0       ?_GetBaseMessageMap@CVOprBar@@KGPBUAFX_MSGMAP@@XZ 10016ba0 f   VOprBar.obj
 0001:00015bc0       ?GetMessageMap@CVOprBar@@MBEPBUAFX_MSGMAP@@XZ 10016bc0 f   VOprBar.obj
 0001:00015be0       ??0CVOprBar@@QAE@XZ        10016be0 f   VOprBar.obj
 0001:00015ca0       ??_ECVOprBar@@UAEPAXI@Z    10016ca0 f i VOprBar.obj
 0001:00015ca0       ??_GCVOprBar@@UAEPAXI@Z    10016ca0 f i VOprBar.obj
 0001:00015ce0       ??1CVOprBar@@UAE@XZ        10016ce0 f   VOprBar.obj
 0001:00015d50       ?AssertValid@CVOprBar@@UBEXXZ 10016d50 f   VOprBar.obj
 0001:00015d70       ?Dump@CVOprBar@@UBEXAAVCDumpContext@@@Z 10016d70 f   VOprBar.obj
 0001:00015da0       ?OnLButtonDown@CVOprBar@@IAEXIVCPoint@@@Z 10016da0 f   VOprBar.obj
 0001:00015fb0       ?OnLButtonUp@CVOprBar@@IAEXIVCPoint@@@Z 10016fb0 f   VOprBar.obj
 0001:00016060       ?SetActiveElemObject@CBoxWnd@@QAEXH@Z 10017060 f i VOprBar.obj
 0001:00016080       ?OnDestroy@CVOprBar@@IAEXXZ 10017080 f   VOprBar.obj
 0001:000160a0       ?_GetBaseMessageMap@CVOprBox@@KGPBUAFX_MSGMAP@@XZ 100170a0 f   VOprbox.obj
 0001:000160c0       ?GetMessageMap@CVOprBox@@MBEPBUAFX_MSGMAP@@XZ 100170c0 f   VOprbox.obj
 0001:000160e0       ?_GetBaseClass@CVOprBox@@KGPAUCRuntimeClass@@XZ 100170e0 f   VOprbox.obj
 0001:00016100       ?GetRuntimeClass@CVOprBox@@UBEPAUCRuntimeClass@@XZ 10017100 f   VOprbox.obj
 0001:00016120       ??0CVOprBox@@QAE@XZ        10017120 f   VOprbox.obj
 0001:000161c0       ??_ECVOprBox@@UAEPAXI@Z    100171c0 f i VOprbox.obj
 0001:000161c0       ??_GCVOprBox@@UAEPAXI@Z    100171c0 f i VOprbox.obj
 0001:00016200       ??1CVOprBox@@UAE@XZ        10017200 f   VOprbox.obj
 0001:00016260       ?OnCreate@CVOprBox@@IAEHPAUtagCREATESTRUCTA@@@Z 10017260 f   VOprbox.obj
 0001:00016310       ?SetWidth@CBoxWnd@@QAEXI@Z 10017310 f i VOprbox.obj
 0001:00016340       ?SetHeight@CBoxWnd@@QAEXI@Z 10017340 f i VOprbox.obj
 0001:00016370       ?OnDestroy@CVOprBox@@IAEXXZ 10017370 f   VOprbox.obj
 0001:00016390       ?CreateElemBar@CVOprBox@@QAEHXZ 10017390 f   VOprbox.obj
 0001:000165b0       ?OnPaint@CVOprBox@@IAEXXZ  100175b0 f   VOprbox.obj
 0001:00016670       ?OnMouseActivate@CVOprBox@@IAEHPAVCWnd@@II@Z 10017670 f   VOprbox.obj
 0001:00016690       ?GoRespondtoMouse@CVOprBox@@QAEXXZ 10017690 f   VOprbox.obj
 0001:00016870       ?GetElemBar@CVOprBox@@QAEPAVCVOprBar@@XZ 10017870 f i VOprbox.obj
 0001:00016890       ?SetCurrentVOprID@CDrGrafFrame@@QAEXI@Z 10017890 f i VOprbox.obj
 0001:000168d0       ?SetCurrentCntlID@CDrGrafFrame@@QAEXI@Z 100178d0 f i VOprbox.obj
 0001:00016930       ?SetCurrentIGenID@CDrGrafFrame@@QAEXI@Z 10017930 f i VOprbox.obj
 0001:00016990       ?SetMouseBoxType@CDrGrafFrame@@QAEXI@Z 10017990 f i VOprbox.obj
 0001:000169c0       ?SetstrCntlID@CDrGrafFrame@@QAEXAAVCString@@@Z 100179c0 f i VOprbox.obj
 0001:000169f0       ?SetstrIGenID@CDrGrafFrame@@QAEXAAVCString@@@Z 100179f0 f i VOprbox.obj
 0001:00016a18       ?GetRuntimeClass@CMatObj@@UBEPAUCRuntimeClass@@XZ 10017a18 f   Spec_D32:Spec_D32.dll
 0001:00016a1e       ?SetScreen3DCorner@CDrObject@@UAEXPAUWORLD@@H@Z 10017a1e f   Spec_D32:Spec_D32.dll
 0001:00016a24       ?GetScreen3DCorner@CDrObject@@UAEXPAUWORLD@@H@Z 10017a24 f   Spec_D32:Spec_D32.dll
 0001:00016a2a       ?SetEyeCorner@CDrObject@@UAEXPAUWORLD@@H@Z 10017a2a f   Spec_D32:Spec_D32.dll
 0001:00016a30       ?GetEyeCorner@CDrObject@@UAEXPAUWORLD@@H@Z 10017a30 f   Spec_D32:Spec_D32.dll
 0001:00016a36       ?SetWorldCorner@CDrObject@@UAEXPAUWORLD@@H@Z 10017a36 f   Spec_D32:Spec_D32.dll
 0001:00016a3c       ?GetWorldCorner@CDrObject@@UAEXPAUWORLD@@H@Z 10017a3c f   Spec_D32:Spec_D32.dll
 0001:00016a42       ?SetLocalCorner@CDrObject@@UAEXPAUWORLD@@H@Z 10017a42 f   Spec_D32:Spec_D32.dll
 0001:00016a48       ?GetLocalCorner@CDrObject@@UAEXPAUWORLD@@H@Z 10017a48 f   Spec_D32:Spec_D32.dll
 0001:00016a4e       ??1CDrObject@@UAE@XZ       10017a4e f   Spec_D32:Spec_D32.dll
 0001:00016a54       ?InitBooleans@CBooleans@@UAEXXZ 10017a54 f   Spec_D32:Spec_D32.dll
 0001:00016a5a       ?ReadDefaultBooleans@CBooleans@@UAEXXZ 10017a5a f   Spec_D32:Spec_D32.dll
 0001:00016a60       ?ToggleZoom@CBooleans@@UAEHHH@Z 10017a60 f   Spec_D32:Spec_D32.dll
 0001:00016a66       ?IsZoomOn@CBooleans@@UAEHHH@Z 10017a66 f   Spec_D32:Spec_D32.dll
 0001:00016a6c       ?SetZoomEnabled@CBooleans@@UAEXHH@Z 10017a6c f   Spec_D32:Spec_D32.dll
 0001:00016a72       ?IsZoomEnabled@CBooleans@@UAEHH@Z 10017a72 f   Spec_D32:Spec_D32.dll
 0001:00016a78       ?SetObjectInfo@CBooleans@@UAEXPAVCDrObject@@@Z 10017a78 f   Spec_D32:Spec_D32.dll
 0001:00016a7e       ?GetObjectInfo@CBooleans@@UAEXPAVCDrObject@@@Z 10017a7e f   Spec_D32:Spec_D32.dll
 0001:00016a84       ?Pack_drPipe@CBooleans@@UAEXPAVCString@@@Z 10017a84 f   Spec_D32:Spec_D32.dll
 0001:00016a8a       ?DoDataView@CBooleans@@UAEXPAVCDC@@H@Z 10017a8a f   Spec_D32:Spec_D32.dll
 0001:00016a90       ?Serialize@CBooleans@@UAEXAAVCArchive@@@Z 10017a90 f   Spec_D32:Spec_D32.dll
 0001:00016a96       ?GetRuntimeClass@CBooleans@@UBEPAUCRuntimeClass@@XZ 10017a96 f   Spec_D32:Spec_D32.dll
 0001:00016a9c       ?InitDataWindow@CDataWindow@@UAEXXZ 10017a9c f   Spec_D32:Spec_D32.dll
 0001:00016aa2       ?ReadDefaultDataWindow@CDataWindow@@UAEXXZ 10017aa2 f   Spec_D32:Spec_D32.dll
 0001:00016aa8       ?SetWinExtWIC@CDataWindow@@UAEXXZ 10017aa8 f   Spec_D32:Spec_D32.dll
 0001:00016aae       ?SetWinMinMaxWIC@CDataWindow@@UAEXULPOINT3@@@Z 10017aae f   Spec_D32:Spec_D32.dll
 0001:00016ab4       ?SetObjectInfo@CDataWindow@@UAEXPAVCDrObject@@@Z 10017ab4 f   Spec_D32:Spec_D32.dll
 0001:00016aba       ?GetObjectInfo@CDataWindow@@UAEXPAVCDrObject@@@Z 10017aba f   Spec_D32:Spec_D32.dll
 0001:00016ac0       ?Pack_drPipe@CDataWindow@@UAEXPAVCString@@@Z 10017ac0 f   Spec_D32:Spec_D32.dll
 0001:00016ac6       ?DoDataView@CDataWindow@@UAEXPAVCDC@@H@Z 10017ac6 f   Spec_D32:Spec_D32.dll
 0001:00016acc       ?Serialize@CDataWindow@@UAEXAAVCArchive@@@Z 10017acc f   Spec_D32:Spec_D32.dll
 0001:00016ad2       ?GetRuntimeClass@CDataWindow@@UBEPAUCRuntimeClass@@XZ 10017ad2 f   Spec_D32:Spec_D32.dll
 0001:00016ad8       ?InitDrFont@CDrFont@@UAEXXZ 10017ad8 f   Spec_D32:Spec_D32.dll
 0001:00016ade       ?ReadDefaultDrFont@CDrFont@@UAEXXZ 10017ade f   Spec_D32:Spec_D32.dll
 0001:00016ae4       ?DoTextFont@CDrFont@@UAEXXZ 10017ae4 f   Spec_D32:Spec_D32.dll
 0001:00016aea       ?SetObjectInfo@CDrFont@@UAEXPAVCDrObject@@@Z 10017aea f   Spec_D32:Spec_D32.dll
 0001:00016af0       ?GetObjectInfo@CDrFont@@UAEXPAVCDrObject@@@Z 10017af0 f   Spec_D32:Spec_D32.dll
 0001:00016af6       ?Pack_drPipe@CDrFont@@UAEXPAVCString@@@Z 10017af6 f   Spec_D32:Spec_D32.dll
 0001:00016afc       ?DoDataView@CDrFont@@UAEXPAVCDC@@H@Z 10017afc f   Spec_D32:Spec_D32.dll
 0001:00016b02       ?Serialize@CDrFont@@UAEXAAVCArchive@@@Z 10017b02 f   Spec_D32:Spec_D32.dll
 0001:00016b08       ?GetRuntimeClass@CDrFont@@UBEPAUCRuntimeClass@@XZ 10017b08 f   Spec_D32:Spec_D32.dll
 0001:00016b0e       ?InitDrPen@CDrPen@@UAEXXZ  10017b0e f   Spec_D32:Spec_D32.dll
 0001:00016b14       ?ReadDefaultDrPen@CDrPen@@UAEXXZ 10017b14 f   Spec_D32:Spec_D32.dll
 0001:00016b1a       ?ReplacePen@CDrPen@@UAEXXZ 10017b1a f   Spec_D32:Spec_D32.dll
 0001:00016b20       ?SetObjectInfo@CDrPen@@UAEXPAVCDrObject@@@Z 10017b20 f   Spec_D32:Spec_D32.dll
 0001:00016b26       ?GetObjectInfo@CDrPen@@UAEXPAVCDrObject@@@Z 10017b26 f   Spec_D32:Spec_D32.dll
 0001:00016b2c       ?Pack_drPipe@CDrPen@@UAEXPAVCString@@@Z 10017b2c f   Spec_D32:Spec_D32.dll
 0001:00016b32       ?DoDataView@CDrPen@@UAEXPAVCDC@@H@Z 10017b32 f   Spec_D32:Spec_D32.dll
 0001:00016b38       ?Serialize@CDrPen@@UAEXAAVCArchive@@@Z 10017b38 f   Spec_D32:Spec_D32.dll
 0001:00016b3e       ?GetRuntimeClass@CDrPen@@UBEPAUCRuntimeClass@@XZ 10017b3e f   Spec_D32:Spec_D32.dll
 0001:00016b44       ?SetObjectInfo@CHitNet@@UAEXPAVCDrObject@@@Z 10017b44 f   Spec_D32:Spec_D32.dll
 0001:00016b4a       ?GetObjectInfo@CHitNet@@UAEXPAVCDrObject@@@Z 10017b4a f   Spec_D32:Spec_D32.dll
 0001:00016b50       ?Pack_drPipe@CHitNet@@UAEXPAVCString@@@Z 10017b50 f   Spec_D32:Spec_D32.dll
 0001:00016b56       ?DoDataView@CHitNet@@UAEXPAVCDC@@H@Z 10017b56 f   Spec_D32:Spec_D32.dll
 0001:00016b5c       ?Serialize@CHitNet@@UAEXAAVCArchive@@@Z 10017b5c f   Spec_D32:Spec_D32.dll
 0001:00016b62       ?GetRuntimeClass@CHitNet@@UBEPAUCRuntimeClass@@XZ 10017b62 f   Spec_D32:Spec_D32.dll
 0001:00016b68       ?InitLayer@CLayer@@UAEXXZ  10017b68 f   Spec_D32:Spec_D32.dll
 0001:00016b6e       ?ReadDefaultLayer@CLayer@@UAEXXZ 10017b6e f   Spec_D32:Spec_D32.dll
 0001:00016b74       ?SetLayerDefaultArray@CLayer@@UAEXQAY01I@Z 10017b74 f   Spec_D32:Spec_D32.dll
 0001:00016b7a       ?GetLayerDefaultArray@CLayer@@UAEXQAY01I@Z 10017b7a f   Spec_D32:Spec_D32.dll
 0001:00016b80       ?SetLayerOldArray@CLayer@@UAEXQAY01I@Z 10017b80 f   Spec_D32:Spec_D32.dll
 0001:00016b86       ?GetLayerOldArray@CLayer@@UAEXQAY01I@Z 10017b86 f   Spec_D32:Spec_D32.dll
 0001:00016b8c       ?SetLayerArray@CLayer@@UAEXQAY01I@Z 10017b8c f   Spec_D32:Spec_D32.dll
 0001:00016b92       ?GetLayerArray@CLayer@@UAEXQAY01I@Z 10017b92 f   Spec_D32:Spec_D32.dll
 0001:00016b98       ?SetLayerInfo@CLayer@@UAEXII@Z 10017b98 f   Spec_D32:Spec_D32.dll
 0001:00016b9e       ?GetLayerInfo@CLayer@@UAE?AVCString@@I@Z 10017b9e f   Spec_D32:Spec_D32.dll
 0001:00016ba4       ?SetObjectInfo@CLayer@@UAEXPAVCDrObject@@@Z 10017ba4 f   Spec_D32:Spec_D32.dll
 0001:00016baa       ?GetObjectInfo@CLayer@@UAEXPAVCDrObject@@@Z 10017baa f   Spec_D32:Spec_D32.dll
 0001:00016bb0       ?Pack_drPipe@CLayer@@UAEXPAVCString@@@Z 10017bb0 f   Spec_D32:Spec_D32.dll
 0001:00016bb6       ?DoDataView@CLayer@@UAEXPAVCDC@@H@Z 10017bb6 f   Spec_D32:Spec_D32.dll
 0001:00016bbc       ?Serialize@CLayer@@UAEXAAVCArchive@@@Z 10017bbc f   Spec_D32:Spec_D32.dll
 0001:00016bc2       ?GetRuntimeClass@CLayer@@UBEPAUCRuntimeClass@@XZ 10017bc2 f   Spec_D32:Spec_D32.dll
 0001:00016bc8       ?InitPatchMnu@CPatchMnu@@UAEXXZ 10017bc8 f   Spec_D32:Spec_D32.dll
 0001:00016bce       ?ReadDefaultPatchMnu@CPatchMnu@@UAEXXZ 10017bce f   Spec_D32:Spec_D32.dll
 0001:00016bd4       ?SetPatchMnuDefaultArray@CPatchMnu@@UAEXQAY01I@Z 10017bd4 f   Spec_D32:Spec_D32.dll
 0001:00016bda       ?GetPatchMnuDefaultArray@CPatchMnu@@UAEXQAY01I@Z 10017bda f   Spec_D32:Spec_D32.dll
 0001:00016be0       ?SetPatchMnuOldArray@CPatchMnu@@UAEXQAY01I@Z 10017be0 f   Spec_D32:Spec_D32.dll
 0001:00016be6       ?GetPatchMnuOldArray@CPatchMnu@@UAEXQAY01I@Z 10017be6 f   Spec_D32:Spec_D32.dll
 0001:00016bec       ?SetPatchMnuArray@CPatchMnu@@UAEXQAY01I@Z 10017bec f   Spec_D32:Spec_D32.dll
 0001:00016bf2       ?GetPatchMnuArray@CPatchMnu@@UAEXQAY01I@Z 10017bf2 f   Spec_D32:Spec_D32.dll
 0001:00016bf8       ?SetPatchMnuIDArray@CPatchMnu@@UAEXQAVCString@@@Z 10017bf8 f   Spec_D32:Spec_D32.dll
 0001:00016bfe       ?GetPatchMnuIDArray@CPatchMnu@@UAEXQAVCString@@@Z 10017bfe f   Spec_D32:Spec_D32.dll
 0001:00016c04       ?SetPatchMnuInfo@CPatchMnu@@UAEXII@Z 10017c04 f   Spec_D32:Spec_D32.dll
 0001:00016c0a       ?GetPatchMnuInfo@CPatchMnu@@UAE?AVCString@@I@Z 10017c0a f   Spec_D32:Spec_D32.dll
 0001:00016c10       ?SetObjectInfo@CPatchMnu@@UAEXPAVCDrObject@@@Z 10017c10 f   Spec_D32:Spec_D32.dll
 0001:00016c16       ?GetObjectInfo@CPatchMnu@@UAEXPAVCDrObject@@@Z 10017c16 f   Spec_D32:Spec_D32.dll
 0001:00016c1c       ?Pack_drPipe@CPatchMnu@@UAEXPAVCString@@@Z 10017c1c f   Spec_D32:Spec_D32.dll
 0001:00016c22       ?DoDataView@CPatchMnu@@UAEXPAVCDC@@H@Z 10017c22 f   Spec_D32:Spec_D32.dll
 0001:00016c28       ?Serialize@CPatchMnu@@UAEXAAVCArchive@@@Z 10017c28 f   Spec_D32:Spec_D32.dll
 0001:00016c2e       ?GetRuntimeClass@CPatchMnu@@UBEPAUCRuntimeClass@@XZ 10017c2e f   Spec_D32:Spec_D32.dll
 0001:00016c34       ?InitObj3DMnu@CObj3DMnu@@UAEXXZ 10017c34 f   Spec_D32:Spec_D32.dll
 0001:00016c3a       ?ReadDefaultObj3DMnu@CObj3DMnu@@UAEXXZ 10017c3a f   Spec_D32:Spec_D32.dll
 0001:00016c40       ?SetObj3DMnuDefaultArray@CObj3DMnu@@UAEXQAY01I@Z 10017c40 f   Spec_D32:Spec_D32.dll
 0001:00016c46       ?GetObj3DMnuDefaultArray@CObj3DMnu@@UAEXQAY01I@Z 10017c46 f   Spec_D32:Spec_D32.dll
 0001:00016c4c       ?SetObj3DMnuOldArray@CObj3DMnu@@UAEXQAY01I@Z 10017c4c f   Spec_D32:Spec_D32.dll
 0001:00016c52       ?GetObj3DMnuOldArray@CObj3DMnu@@UAEXQAY01I@Z 10017c52 f   Spec_D32:Spec_D32.dll
 0001:00016c58       ?SetObj3DMnuArray@CObj3DMnu@@UAEXQAY01I@Z 10017c58 f   Spec_D32:Spec_D32.dll
 0001:00016c5e       ?GetObj3DMnuArray@CObj3DMnu@@UAEXQAY01I@Z 10017c5e f   Spec_D32:Spec_D32.dll
 0001:00016c64       ?SetObj3DMnuIDArray@CObj3DMnu@@UAEXQAVCString@@@Z 10017c64 f   Spec_D32:Spec_D32.dll
 0001:00016c6a       ?GetObj3DMnuIDArray@CObj3DMnu@@UAEXQAVCString@@@Z 10017c6a f   Spec_D32:Spec_D32.dll
 0001:00016c70       ?SetObj3DMnuInfo@CObj3DMnu@@UAEXII@Z 10017c70 f   Spec_D32:Spec_D32.dll
 0001:00016c76       ?GetObj3DMnuInfo@CObj3DMnu@@UAE?AVCString@@I@Z 10017c76 f   Spec_D32:Spec_D32.dll
 0001:00016c7c       ?SetObjectInfo@CObj3DMnu@@UAEXPAVCDrObject@@@Z 10017c7c f   Spec_D32:Spec_D32.dll
 0001:00016c82       ?GetObjectInfo@CObj3DMnu@@UAEXPAVCDrObject@@@Z 10017c82 f   Spec_D32:Spec_D32.dll
 0001:00016c88       ?Pack_drPipe@CObj3DMnu@@UAEXPAVCString@@@Z 10017c88 f   Spec_D32:Spec_D32.dll
 0001:00016c8e       ?DoDataView@CObj3DMnu@@UAEXPAVCDC@@H@Z 10017c8e f   Spec_D32:Spec_D32.dll
 0001:00016c94       ?Serialize@CObj3DMnu@@UAEXAAVCArchive@@@Z 10017c94 f   Spec_D32:Spec_D32.dll
 0001:00016c9a       ?GetRuntimeClass@CObj3DMnu@@UBEPAUCRuntimeClass@@XZ 10017c9a f   Spec_D32:Spec_D32.dll
 0001:00016ca0       ?InitMapFactor@CMapFactor@@UAEXXZ 10017ca0 f   Spec_D32:Spec_D32.dll
 0001:00016ca6       ?ReadDefaultMapFactor@CMapFactor@@UAEXXZ 10017ca6 f   Spec_D32:Spec_D32.dll
 0001:00016cac       ?SetObjectInfo@CMapFactor@@UAEXPAVCDrObject@@@Z 10017cac f   Spec_D32:Spec_D32.dll
 0001:00016cb2       ?GetObjectInfo@CMapFactor@@UAEXPAVCDrObject@@@Z 10017cb2 f   Spec_D32:Spec_D32.dll
 0001:00016cb8       ?Pack_drPipe@CMapFactor@@UAEXPAVCString@@@Z 10017cb8 f   Spec_D32:Spec_D32.dll
 0001:00016cbe       ?DoDataView@CMapFactor@@UAEXPAVCDC@@H@Z 10017cbe f   Spec_D32:Spec_D32.dll
 0001:00016cc4       ?Serialize@CMapFactor@@UAEXAAVCArchive@@@Z 10017cc4 f   Spec_D32:Spec_D32.dll
 0001:00016cca       ?GetRuntimeClass@CMapFactor@@UBEPAUCRuntimeClass@@XZ 10017cca f   Spec_D32:Spec_D32.dll
 0001:00016cd0       ?InitPrecision@CPrecision@@UAEXXZ 10017cd0 f   Spec_D32:Spec_D32.dll
 0001:00016cd6       ?ReadDefaultPrecision@CPrecision@@UAEXXZ 10017cd6 f   Spec_D32:Spec_D32.dll
 0001:00016cdc       ?SetObjectInfo@CPrecision@@UAEXPAVCDrObject@@@Z 10017cdc f   Spec_D32:Spec_D32.dll
 0001:00016ce2       ?GetObjectInfo@CPrecision@@UAEXPAVCDrObject@@@Z 10017ce2 f   Spec_D32:Spec_D32.dll
 0001:00016ce8       ?Pack_drPipe@CPrecision@@UAEXPAVCString@@@Z 10017ce8 f   Spec_D32:Spec_D32.dll
 0001:00016cee       ?DoDataView@CPrecision@@UAEXPAVCDC@@H@Z 10017cee f   Spec_D32:Spec_D32.dll
 0001:00016cf4       ?Serialize@CPrecision@@UAEXAAVCArchive@@@Z 10017cf4 f   Spec_D32:Spec_D32.dll
 0001:00016cfa       ?GetRuntimeClass@CPrecision@@UBEPAUCRuntimeClass@@XZ 10017cfa f   Spec_D32:Spec_D32.dll
 0001:00016d00       ?InitScaleFactor@CScaleFactor@@UAEXXZ 10017d00 f   Spec_D32:Spec_D32.dll
 0001:00016d06       ?ReadDefaultScaleFactor@CScaleFactor@@UAEXXZ 10017d06 f   Spec_D32:Spec_D32.dll
 0001:00016d0c       ?SetObjectInfo@CScaleFactor@@UAEXPAVCDrObject@@@Z 10017d0c f   Spec_D32:Spec_D32.dll
 0001:00016d12       ?GetObjectInfo@CScaleFactor@@UAEXPAVCDrObject@@@Z 10017d12 f   Spec_D32:Spec_D32.dll
 0001:00016d18       ?Pack_drPipe@CScaleFactor@@UAEXPAVCString@@@Z 10017d18 f   Spec_D32:Spec_D32.dll
 0001:00016d1e       ?DoDataView@CScaleFactor@@UAEXPAVCDC@@H@Z 10017d1e f   Spec_D32:Spec_D32.dll
 0001:00016d24       ?Serialize@CScaleFactor@@UAEXAAVCArchive@@@Z 10017d24 f   Spec_D32:Spec_D32.dll
 0001:00016d2a       ?GetRuntimeClass@CScaleFactor@@UBEPAUCRuntimeClass@@XZ 10017d2a f   Spec_D32:Spec_D32.dll
 0001:00016d30       ?InitUnit@CUnit@@UAEXXZ    10017d30 f   Spec_D32:Spec_D32.dll
 0001:00016d36       ?ReadDefaultUnit@CUnit@@UAEXXZ 10017d36 f   Spec_D32:Spec_D32.dll
 0001:00016d3c       ?SetObjectInfo@CUnit@@UAEXPAVCDrObject@@@Z 10017d3c f   Spec_D32:Spec_D32.dll
 0001:00016d42       ?GetObjectInfo@CUnit@@UAEXPAVCDrObject@@@Z 10017d42 f   Spec_D32:Spec_D32.dll
 0001:00016d48       ?Pack_drPipe@CUnit@@UAEXPAVCString@@@Z 10017d48 f   Spec_D32:Spec_D32.dll
 0001:00016d4e       ?DoDataView@CUnit@@UAEXPAVCDC@@H@Z 10017d4e f   Spec_D32:Spec_D32.dll
 0001:00016d54       ?Serialize@CUnit@@UAEXAAVCArchive@@@Z 10017d54 f   Spec_D32:Spec_D32.dll
 0001:00016d5a       ?GetRuntimeClass@CUnit@@UBEPAUCRuntimeClass@@XZ 10017d5a f   Spec_D32:Spec_D32.dll
 0001:00016d60       ??1CDListMgr@@UAE@XZ       10017d60 f   Spec_D32:Spec_D32.dll
 0001:00016d66       ?Init@CElemInfo@@UAEXXZ    10017d66 f   Elem_D32:Elem_D32.dll
 0001:00016d6c       ?ReadDefault@CElemInfo@@UAEXXZ 10017d6c f   Elem_D32:Elem_D32.dll
 0001:00016d72       ?SetObjectInfo@CElemInfo@@UAEXPAVCDrObject@@@Z 10017d72 f   Elem_D32:Elem_D32.dll
 0001:00016d78       ?GetObjectInfo@CElemInfo@@UAEXPAVCDrObject@@@Z 10017d78 f   Elem_D32:Elem_D32.dll
 0001:00016d7e       ?Pack_drPipe@CElemInfo@@UAEXPAVCString@@@Z 10017d7e f   Elem_D32:Elem_D32.dll
 0001:00016d84       ?DoDataView@CElemInfo@@UAEXPAVCDC@@H@Z 10017d84 f   Elem_D32:Elem_D32.dll
 0001:00016d8a       ?Serialize@CElemInfo@@UAEXAAVCArchive@@@Z 10017d8a f   Elem_D32:Elem_D32.dll
 0001:00016d90       ?GetRuntimeClass@CElemInfo@@UBEPAUCRuntimeClass@@XZ 10017d90 f   Elem_D32:Elem_D32.dll
 0001:00016d96       ?SetCorner@CDrLabel@@UAEXUtagPOINT@@H@Z 10017d96 f   Draw_D32:Draw_D32.dll
 0001:00016d9c       ?GetCorner@CDrLabel@@UAE?AUtagPOINT@@H@Z 10017d9c f   Draw_D32:Draw_D32.dll
 0001:00016da2       ?GetObjectInfo@CDrLabel@@UAEXPAVCDrObject@@@Z 10017da2 f   Draw_D32:Draw_D32.dll
 0001:00016da8       ?SetObjectInfo@CDrLabel@@UAEXPAVCDrObject@@@Z 10017da8 f   Draw_D32:Draw_D32.dll
 0001:00016dae       ?Pack_drPipe@CDrLabel@@UAEXPAVCString@@@Z 10017dae f   Draw_D32:Draw_D32.dll
 0001:00016db4       ?IsKeyMatch@CDrLabel@@UAEHPAVCDrObject@@VCString@@I@Z 10017db4 f   Draw_D32:Draw_D32.dll
 0001:00016dba       ?IsObjectHit@CDrLabel@@UAEHPAVCClientDC@@HUtagPOINT@@PAVCRect@@H@Z 10017dba f   Draw_D32:Draw_D32.dll
 0001:00016dc0       ?GetRawCoords@CDrLabel@@UAEXPAJPAHH@Z 10017dc0 f   Draw_D32:Draw_D32.dll
 0001:00016dc6       ?FinishObject@CDrLabel@@UAEXPAVCClientDC@@H@Z 10017dc6 f   Draw_D32:Draw_D32.dll
 0001:00016dcc       ?DealObjectDialog@CDrLabel@@UAEHXZ 10017dcc f   Draw_D32:Draw_D32.dll
 0001:00016dd2       ?DoDrawView@CDrLabel@@UAEXPAVCDC@@HH@Z 10017dd2 f   Draw_D32:Draw_D32.dll
 0001:00016dd8       ?Corner_3Dto2D@CDrLabel@@UAEXXZ 10017dd8 f   Draw_D32:Draw_D32.dll
 0001:00016dde       ?InitDraw@CDrLabel@@UAEXPAVCDC@@HHPAUMATRIX@@1NNN@Z 10017dde f   Draw_D32:Draw_D32.dll
 0001:00016de4       ?DoDataView@CDrLabel@@UAEXPAVCDC@@H@Z 10017de4 f   Draw_D32:Draw_D32.dll
 0001:00016dea       ?Serialize@CDrLabel@@UAEXAAVCArchive@@@Z 10017dea f   Draw_D32:Draw_D32.dll
 0001:00016df0       ?GetRuntimeClass@CDrLabel@@UBEPAUCRuntimeClass@@XZ 10017df0 f   Draw_D32:Draw_D32.dll
 0001:00016df6       ?GetSpecObject@CObjectMgr@@QAEPAVCDrObject@@H@Z 10017df6 f   OMgr_D32:OMgr_D32.dll
 0001:00016dfc       ?Serialize@C3DMath@@UAEXAAVCArchive@@@Z 10017dfc f   Dr3D_D32:Dr3D_D32.dll
 0001:00016e02       ?GetRuntimeClass@C3DMath@@UBEPAUCRuntimeClass@@XZ 10017e02 f   Dr3D_D32:Dr3D_D32.dll
 0001:00016e08       ?BlockCopy@C3DMath@@QAEXPAD0K@Z 10017e08 f   Dr3D_D32:Dr3D_D32.dll
 0001:00016e0e       ??0C3DMath@@QAE@XZ         10017e0e f   Dr3D_D32:Dr3D_D32.dll
 0001:00016e14       ?GetRuntimeClass@CTriangle@@UBEPAUCRuntimeClass@@XZ 10017e14 f   OGen_D32:OGEN_D32.dll
 0001:00016e1a       ??1CDialog@@UAE@XZ         10017e1a f   mfc42d:MFC42D.DLL
 0001:00016e20       ??1CString@@QAE@XZ         10017e20 f   mfc42d:MFC42D.DLL
 0001:00016e26       ?Dump@CObject@@UBEXAAVCDumpContext@@@Z 10017e26 f   mfc42d:MFC42D.DLL
 0001:00016e2c       ?AssertValid@CObject@@UBEXXZ 10017e2c f   mfc42d:MFC42D.DLL
 0001:00016e32       ??1CObject@@UAE@XZ         10017e32 f   mfc42d:MFC42D.DLL
 0001:00016e38       ??3CObject@@SGXPAX@Z       10017e38 f   mfc42d:MFC42D.DLL
 0001:00016e3e       ??3@YAXPAX@Z               10017e3e f   mfc42d:MFC42D.DLL
 0001:00016e44       ??0CString@@QAE@ABV0@@Z    10017e44 f   mfc42d:MFC42D.DLL
 0001:00016e4a       ??4CString@@QAEABV0@ABV0@@Z 10017e4a f   mfc42d:MFC42D.DLL
 0001:00016e50       ?Serialize@CObject@@UAEXAAVCArchive@@@Z 10017e50 f   mfc42d:MFC42D.DLL
 0001:00016e56       ??2@YAPAXI@Z               10017e56 f   mfc42d:MFC42D.DLL
 0001:00016e5c       ?SetOccDialogInfo@CWnd@@MAEHPAU_AFX_OCC_DIALOG_INFO@@@Z 10017e5c f   mfc42d:MFC42D.DLL
 0001:00016e62       ?IsFrameWnd@CWnd@@UBEHXZ   10017e62 f   mfc42d:MFC42D.DLL
 0001:00016e68       ?CheckAutoCenter@CWnd@@UAEHXZ 10017e68 f   mfc42d:MFC42D.DLL
 0001:00016e6e       ?OnChildNotify@CWnd@@MAEHIIJPAJ@Z 10017e6e f   mfc42d:MFC42D.DLL
 0001:00016e74       ?PostNcDestroy@CWnd@@MAEXXZ 10017e74 f   mfc42d:MFC42D.DLL
 0001:00016e7a       ?DefWindowProcA@CWnd@@MAEJIIJ@Z 10017e7a f   mfc42d:MFC42D.DLL
 0001:00016e80       ?OnWndMsg@CWnd@@MAEHIIJPAJ@Z 10017e80 f   mfc42d:MFC42D.DLL
 0001:00016e86       ?WindowProc@CWnd@@MAEJIIJ@Z 10017e86 f   mfc42d:MFC42D.DLL
 0001:00016e8c       ?OnAmbientProperty@CWnd@@UAEHPAVCOleControlSite@@JPAUtagVARIANT@@@Z 10017e8c f   mfc42d:MFC42D.DLL
 0001:00016e92       ?PreTranslateMessage@CWnd@@UAEHPAUtagMSG@@@Z 10017e92 f   mfc42d:MFC42D.DLL
 0001:00016e98       ?EndModalState@CWnd@@UAEXXZ 10017e98 f   mfc42d:MFC42D.DLL
 0001:00016e9e       ?BeginModalState@CWnd@@UAEXXZ 10017e9e f   mfc42d:MFC42D.DLL
 0001:00016ea4       ?DoDataExchange@CWnd@@MAEXPAVCDataExchange@@@Z 10017ea4 f   mfc42d:MFC42D.DLL
 0001:00016eaa       ?GetSuperWndProcAddr@CWnd@@MAEPAP6GJPAUHWND__@@IIJ@ZXZ 10017eaa f   mfc42d:MFC42D.DLL
 0001:00016eb0       ?OnNotify@CWnd@@MAEHIJPAJ@Z 10017eb0 f   mfc42d:MFC42D.DLL
 0001:00016eb6       ?OnCommand@CWnd@@MAEHIJ@Z  10017eb6 f   mfc42d:MFC42D.DLL
 0001:00016ebc       ?EndModalLoop@CWnd@@UAEXH@Z 10017ebc f   mfc42d:MFC42D.DLL
 0001:00016ec2       ?ContinueModal@CWnd@@UAEHXZ 10017ec2 f   mfc42d:MFC42D.DLL
 0001:00016ec8       ?WinHelpA@CWnd@@UAEXKI@Z   10017ec8 f   mfc42d:MFC42D.DLL
 0001:00016ece       ?GetScrollBarCtrl@CWnd@@UBEPAVCScrollBar@@H@Z 10017ece f   mfc42d:MFC42D.DLL
 0001:00016ed4       ?OnToolHitTest@CWnd@@UBEHVCPoint@@PAUtagTOOLINFOA@@@Z 10017ed4 f   mfc42d:MFC42D.DLL
 0001:00016eda       ?CalcWindowRect@CWnd@@UAEXPAUtagRECT@@I@Z 10017eda f   mfc42d:MFC42D.DLL
 0001:00016ee0       ?PreCreateWindow@CWnd@@UAEHAAUtagCREATESTRUCTA@@@Z 10017ee0 f   mfc42d:MFC42D.DLL
 0001:00016ee6       ?DestroyWindow@CWnd@@UAEHXZ 10017ee6 f   mfc42d:MFC42D.DLL
 0001:00016eec       ?Create@CWnd@@UAEHPBD0KABUtagRECT@@PAV1@IPAUCCreateContext@@@Z 10017eec f   mfc42d:MFC42D.DLL
 0001:00016ef2       ?PreSubclassWindow@CWnd@@UAEXXZ 10017ef2 f   mfc42d:MFC42D.DLL
 0001:00016ef8       ?GetConnectionHook@CCmdTarget@@MAEPAUIConnectionPoint@@ABU_GUID@@@Z 10017ef8 f   mfc42d:MFC42D.DLL
 0001:00016efe       ?GetExtraConnectionPoints@CCmdTarget@@MAEHPAVCPtrArray@@@Z 10017efe f   mfc42d:MFC42D.DLL
 0001:00016f04       ?GetInterfaceHook@CCmdTarget@@UAEPAUIUnknown@@PBX@Z 10017f04 f   mfc42d:MFC42D.DLL
 0001:00016f0a       ?OnCreateAggregates@CCmdTarget@@UAEHXZ 10017f0a f   mfc42d:MFC42D.DLL
 0001:00016f10       ?GetEventSinkMap@CCmdTarget@@MBEPBUAFX_EVENTSINKMAP@@XZ 10017f10 f   mfc42d:MFC42D.DLL
 0001:00016f16       ?GetInterfaceMap@CCmdTarget@@MBEPBUAFX_INTERFACEMAP@@XZ 10017f16 f   mfc42d:MFC42D.DLL
 0001:00016f1c       ?GetConnectionMap@CCmdTarget@@MBEPBUAFX_CONNECTIONMAP@@XZ 10017f1c f   mfc42d:MFC42D.DLL
 0001:00016f22       ?GetDispatchMap@CCmdTarget@@MBEPBUAFX_DISPMAP@@XZ 10017f22 f   mfc42d:MFC42D.DLL
 0001:00016f28       ?GetCommandMap@CCmdTarget@@MBEPBUAFX_OLECMDMAP@@XZ 10017f28 f   mfc42d:MFC42D.DLL
 0001:00016f2e       ?GetTypeLib@CCmdTarget@@UAEJKPAPAUITypeLib@@@Z 10017f2e f   mfc42d:MFC42D.DLL
 0001:00016f34       ?GetTypeLibCache@CCmdTarget@@UAEPAVCTypeLibCache@@XZ 10017f34 f   mfc42d:MFC42D.DLL
 0001:00016f3a       ?GetTypeInfoCount@CCmdTarget@@UAEIXZ 10017f3a f   mfc42d:MFC42D.DLL
 0001:00016f40       ?GetDispatchIID@CCmdTarget@@UAEHPAU_GUID@@@Z 10017f40 f   mfc42d:MFC42D.DLL
 0001:00016f46       ?IsInvokeAllowed@CCmdTarget@@UAEHJ@Z 10017f46 f   mfc42d:MFC42D.DLL
 0001:00016f4c       ?OnFinalRelease@CWnd@@UAEXXZ 10017f4c f   mfc42d:MFC42D.DLL
 0001:00016f52       ?OnCmdMsg@CCmdTarget@@UAEHIHPAXPAUAFX_CMDHANDLERINFO@@@Z 10017f52 f   mfc42d:MFC42D.DLL
 0001:00016f58       ?Dump@CWnd@@UBEXAAVCDumpContext@@@Z 10017f58 f   mfc42d:MFC42D.DLL
 0001:00016f5e       ?AssertValid@CWnd@@UBEXXZ  10017f5e f   mfc42d:MFC42D.DLL
 0001:00016f64       ??1CWnd@@UAE@XZ            10017f64 f   mfc42d:MFC42D.DLL
 0001:00016f6a       ??0CWnd@@QAE@XZ            10017f6a f   mfc42d:MFC42D.DLL
 0001:00016f70       ?CreateEx@CWnd@@QAEHKPBD0KHHHHPAUHWND__@@PAUHMENU__@@PAX@Z 10017f70 f   mfc42d:MFC42D.DLL
 0001:00016f76       ??BCString@@QBEPBDXZ       10017f76 f   mfc42d:MFC42D.DLL
 0001:00016f7c       ?GetSafeHwnd@CWnd@@QBEPAUHWND__@@XZ 10017f7c f   mfc42d:MFC42D.DLL
 0001:00016f82       ??0CString@@QAE@PBD@Z      10017f82 f   mfc42d:MFC42D.DLL
 0001:00016f88       ?AfxRegisterWndClass@@YGPBDIPAUHICON__@@PAUHBRUSH__@@0@Z 10017f88 f   mfc42d:MFC42D.DLL
 0001:00016f8e       ?LoadStandardCursor@CWinApp@@QBEPAUHICON__@@PBD@Z 10017f8e f   mfc42d:MFC42D.DLL
 0001:00016f94       ?AfxGetApp@@YGPAVCWinApp@@XZ 10017f94 f   mfc42d:MFC42D.DLL
 0001:00016f9a       ?AfxMessageBox@@YGHPBDII@Z 10017f9a f   mfc42d:MFC42D.DLL
 0001:00016fa0       ??1CPaintDC@@UAE@XZ        10017fa0 f   mfc42d:MFC42D.DLL
 0001:00016fa6       ??1CPen@@UAE@XZ            10017fa6 f   mfc42d:MFC42D.DLL
 0001:00016fac       ??1CBrush@@UAE@XZ          10017fac f   mfc42d:MFC42D.DLL
 0001:00016fb2       ?DeleteObject@CGdiObject@@QAEHXZ 10017fb2 f   mfc42d:MFC42D.DLL
 0001:00016fb8       ?FillRect@CDC@@QAEXPBUtagRECT@@PAVCBrush@@@Z 10017fb8 f   mfc42d:MFC42D.DLL
 0001:00016fbe       ?FromHandle@CBrush@@SGPAV1@PAUHBRUSH__@@@Z 10017fbe f   mfc42d:MFC42D.DLL
 0001:00016fc4       ?GetClientRect@CWnd@@QBEXPAUtagRECT@@@Z 10017fc4 f   mfc42d:MFC42D.DLL
 0001:00016fca       ??0CBrush@@QAE@XZ          10017fca f   mfc42d:MFC42D.DLL
 0001:00016fd0       ??0CPen@@QAE@XZ            10017fd0 f   mfc42d:MFC42D.DLL
 0001:00016fd6       ??0CPaintDC@@QAE@PAVCWnd@@@Z 10017fd6 f   mfc42d:MFC42D.DLL
 0001:00016fdc       ?SendMessageA@CWnd@@QAEJIIJ@Z 10017fdc f   mfc42d:MFC42D.DLL
 0001:00016fe2       ?GetRuntimeClass@CObject@@UBEPAUCRuntimeClass@@XZ 10017fe2 f   mfc42d:MFC42D.DLL
 0001:00016fe8       ?AfxAssertFailedLine@@YGHPBDH@Z 10017fe8 f   mfc42d:MFC42D.DLL
 0001:00016fee       ?ReadCount@CArchive@@QAEKXZ 10017fee f   mfc42d:MFC42D.DLL
 0001:00016ff4       ?AfxIsValidAddress@@YGHPBXIH@Z 10017ff4 f   mfc42d:MFC42D.DLL
 0001:00016ffa       ?WriteCount@CArchive@@QAEXK@Z 10017ffa f   mfc42d:MFC42D.DLL
 0001:00017000       ?IsStoring@CArchive@@QBEHXZ 10018000 f   mfc42d:MFC42D.DLL
 0001:00017006       ?AfxAssertValidObject@@YGXPBVCObject@@PBDH@Z 10018006 f   mfc42d:MFC42D.DLL
 0001:0001700c       ?GetDepth@CDumpContext@@QBEHXZ 1001800c f   mfc42d:MFC42D.DLL
 0001:00017012       ??6CDumpContext@@QAEAAV0@H@Z 10018012 f   mfc42d:MFC42D.DLL
 0001:00017018       ??6CDumpContext@@QAEAAV0@PBD@Z 10018018 f   mfc42d:MFC42D.DLL
 0001:0001701e       ?FreeDataChain@CPlex@@QAEXXZ 1001801e f   mfc42d:MFC42D.DLL
 0001:00017024       ?Read@CArchive@@QAEIPAXI@Z 10018024 f   mfc42d:MFC42D.DLL
 0001:0001702a       ?Write@CArchive@@QAEXPBXI@Z 1001802a f   mfc42d:MFC42D.DLL
 0001:00017030       ?Create@CPlex@@SGPAU1@AAPAU1@II@Z 10018030 f   mfc42d:MFC42D.DLL
 0001:00017036       ??2CObject@@SGPAXI@Z       10018036 f   mfc42d:MFC42D.DLL
 0001:0001703c       ?DrawItem@CButton@@UAEXPAUtagDRAWITEMSTRUCT@@@Z 1001803c f   mfc42d:MFC42D.DLL
 0001:00017042       ?OnChildNotify@CButton@@MAEHIIJPAJ@Z 10018042 f   mfc42d:MFC42D.DLL
 0001:00017048       ?GetMessageMap@CWnd@@MBEPBUAFX_MSGMAP@@XZ 10018048 f   mfc42d:MFC42D.DLL
 0001:0001704e       ??0CButton@@QAE@XZ         1001804e f   mfc42d:MFC42D.DLL
 0001:00017054       ??1CButton@@UAE@XZ         10018054 f   mfc42d:MFC42D.DLL
 0001:0001705a       ?Width@CRect@@QBEHXZ       1001805a f   mfc42d:MFC42D.DLL
 0001:00017060       ?Height@CRect@@QBEHXZ      10018060 f   mfc42d:MFC42D.DLL
 0001:00017066       ??0CString@@QAE@XZ         10018066 f   mfc42d:MFC42D.DLL
 0001:0001706c       ??4CString@@QAEABV0@PBD@Z  1001806c f   mfc42d:MFC42D.DLL
 0001:00017072       ??0CRect@@QAE@XZ           10018072 f   mfc42d:MFC42D.DLL
 0001:00017078       ?OnCreate@CWnd@@IAEHPAUtagCREATESTRUCTA@@@Z 10018078 f   mfc42d:MFC42D.DLL
 0001:0001707e       ?UpdateWindow@CWnd@@QAEXXZ 1001807e f   mfc42d:MFC42D.DLL
 0001:00017084       ?Invalidate@CWnd@@QAEXH@Z  10018084 f   mfc42d:MFC42D.DLL
 0001:0001708a       ?GetColor@CColorDialog@@QBEKXZ 1001808a f   mfc42d:MFC42D.DLL
 0001:00017090       ?DoModal@CColorDialog@@UAEHXZ 10018090 f   mfc42d:MFC42D.DLL
 0001:00017096       ?GetParent@CWnd@@QBEPAV1@XZ 10018096 f   mfc42d:MFC42D.DLL
 0001:0001709c       ??0CColorDialog@@QAE@KKPAVCWnd@@@Z 1001809c f   mfc42d:MFC42D.DLL
 0001:000170a2       ?Rectangle@CDC@@QAEHPBUtagRECT@@@Z 100180a2 f   mfc42d:MFC42D.DLL
 0001:000170a8       ?SelectStockObject@CDC@@UAEPAVCGdiObject@@H@Z 100180a8 f   mfc42d:MFC42D.DLL
 0001:000170ae       ?SelectObject@CDC@@QAEPAVCBrush@@PAV2@@Z 100180ae f   mfc42d:MFC42D.DLL
 0001:000170b4       ?CreateSolidBrush@CBrush@@QAEHK@Z 100180b4 f   mfc42d:MFC42D.DLL
 0001:000170ba       ?SetCapture@CWnd@@QAEPAV1@XZ 100180ba f   mfc42d:MFC42D.DLL
 0001:000170c0       ?AfxGetModuleState@@YGPAVAFX_MODULE_STATE@@XZ 100180c0 f   mfc42d:MFC42D.DLL
 0001:000170c6       ??0CDynLinkLibrary@@QAE@AAUAFX_EXTENSION_MODULE@@H@Z 100180c6 f   mfc42d:MFC42D.DLL
 0001:000170cc       ?AfxInitExtensionModule@@YGHAAUAFX_EXTENSION_MODULE@@PAUHINSTANCE__@@@Z 100180cc f   mfc42d:MFC42D.DLL
 0001:000170d2       ?AfxTrace@@YAXPBDZZ        100180d2 f   mfc42d:MFC42D.DLL
 0001:000170d8       ?SetStatusText@CControlBar@@UAEHH@Z 100180d8 f   mfc42d:MFC42D.DLL
 0001:000170de       ?OnBarStyleChange@CControlBar@@UAEXKK@Z 100180de f   mfc42d:MFC42D.DLL
 0001:000170e4       ?IsDockBar@CControlBar@@UBEHXZ 100180e4 f   mfc42d:MFC42D.DLL
 0001:000170ea       ?RecalcDelayShow@CControlBar@@UAEKPAUAFX_SIZEPARENTPARAMS@@@Z 100180ea f   mfc42d:MFC42D.DLL
 0001:000170f0       ?IsVisible@CControlBar@@UBEHXZ 100180f0 f   mfc42d:MFC42D.DLL
 0001:000170f6       ?DelayShow@CControlBar@@UAEXH@Z 100180f6 f   mfc42d:MFC42D.DLL
 0001:000170fc       ?CalcDynamicLayout@CControlBar@@UAE?AVCSize@@HK@Z 100180fc f   mfc42d:MFC42D.DLL
 0001:00017102       ?PostNcDestroy@CControlBar@@UAEXXZ 10018102 f   mfc42d:MFC42D.DLL
 0001:00017108       ?WindowProc@CControlBar@@UAEJIIJ@Z 10018108 f   mfc42d:MFC42D.DLL
 0001:0001710e       ?PreTranslateMessage@CControlBar@@UAEHPAUtagMSG@@@Z 1001810e f   mfc42d:MFC42D.DLL
 0001:00017114       ?PreCreateWindow@CControlBar@@UAEHAAUtagCREATESTRUCTA@@@Z 10018114 f   mfc42d:MFC42D.DLL
 0001:0001711a       ?DestroyWindow@CControlBar@@UAEHXZ 1001811a f   mfc42d:MFC42D.DLL
 0001:00017120       ?GetDescendantWindow@CWnd@@QBEPAV1@HH@Z 10018120 f   mfc42d:MFC42D.DLL
 0001:00017126       ?ShowWindow@CWnd@@QAEHH@Z  10018126 f   mfc42d:MFC42D.DLL
 0001:0001712c       ?GetStyle@CWnd@@QBEKXZ     1001812c f   mfc42d:MFC42D.DLL
 0001:00017132       ??0CSize@@QAE@XZ           10018132 f   mfc42d:MFC42D.DLL
 0001:00017138       ?LoadStringA@CString@@QAEHI@Z 10018138 f   mfc42d:MFC42D.DLL
 0001:0001713e       ?AfxSetResourceHandle@@YGXPAUHINSTANCE__@@@Z 1001813e f   mfc42d:MFC42D.DLL
 0001:00017144       ?AfxGetResourceHandle@@YGPAUHINSTANCE__@@XZ 10018144 f   mfc42d:MFC42D.DLL
 0001:0001714a       ??0CRect@@QAE@PBUtagRECT@@@Z 1001814a f   mfc42d:MFC42D.DLL
 0001:00017150       ??1CClientDC@@UAE@XZ       10018150 f   mfc42d:MFC42D.DLL
 0001:00017156       ?LineTo@CDC@@QAEHHH@Z      10018156 f   mfc42d:MFC42D.DLL
 0001:0001715c       ?SelectObject@CDC@@QAEPAVCPen@@PAV2@@Z 1001815c f   mfc42d:MFC42D.DLL
 0001:00017162       ?CreatePen@CPen@@QAEHHHK@Z 10018162 f   mfc42d:MFC42D.DLL
 0001:00017168       ?MoveTo@CDC@@QAE?AVCPoint@@HH@Z 10018168 f   mfc42d:MFC42D.DLL
 0001:0001716e       ??0CClientDC@@QAE@PAVCWnd@@@Z 1001816e f   mfc42d:MFC42D.DLL
 0001:00017174       ?UpdateAllViews@CDocument@@QAEXPAVCView@@JPAVCObject@@@Z 10018174 f   mfc42d:MFC42D.DLL
 0001:0001717a       ?AfxDeleteObject@@YGXPAPAX@Z 1001817a f   mfc42d:MFC42D.DLL
 0001:00017180       ?SelectObject@CDC@@QAEPAXPAX@Z 10018180 f   mfc42d:MFC42D.DLL
 0001:00017186       ?Draw3dRect@CDC@@QAEXHHHHKK@Z 10018186 f   mfc42d:MFC42D.DLL
 0001:0001718c       ??0CPoint@@QAE@XZ          1001818c f   mfc42d:MFC42D.DLL
 0001:00017192       ?FillSolidRect@CDC@@QAEXHHHHK@Z 10018192 f   mfc42d:MFC42D.DLL
 0001:00017198       ??1CControlBar@@UAE@XZ     10018198 f   mfc42d:MFC42D.DLL
 0001:0001719e       ?AfxThrowResourceException@@YGXXZ 1001819e f   mfc42d:MFC42D.DLL
 0001:000171a4       ??0CControlBar@@IAE@XZ     100181a4 f   mfc42d:MFC42D.DLL
 0001:000171aa       ?SetRectEmpty@CRect@@QAEXXZ 100181aa f   mfc42d:MFC42D.DLL
 0001:000171b0       ??0CSize@@QAE@UtagSIZE@@@Z 100181b0 f   mfc42d:MFC42D.DLL
 0001:000171b6       ?AfxFindResourceHandle@@YGPAUHINSTANCE__@@PBD0@Z 100181b6 f   mfc42d:MFC42D.DLL
 0001:000171bc       ?AllocElements@CControlBar@@QAEHHH@Z 100181bc f   mfc42d:MFC42D.DLL
 0001:000171c2       ?CalcInsideRect@CControlBar@@QBEXAAVCRect@@H@Z 100181c2 f   mfc42d:MFC42D.DLL
 0001:000171c8       ?CalcFixedLayout@CControlBar@@UAE?AVCSize@@HH@Z 100181c8 f   mfc42d:MFC42D.DLL
 0001:000171ce       ??BCRect@@QAEPAUtagRECT@@XZ 100181ce f   mfc42d:MFC42D.DLL
 0001:000171d4       ?DoPaint@CControlBar@@UAEXPAVCDC@@@Z 100181d4 f   mfc42d:MFC42D.DLL
 0001:000171da       ?InvalidateRect@CWnd@@QAEXPBUtagRECT@@H@Z 100181da f   mfc42d:MFC42D.DLL
 0001:000171e0       ?GetOwner@CWnd@@QBEPAV1@XZ 100181e0 f   mfc42d:MFC42D.DLL
 0001:000171e6       ?OnLButtonDown@CControlBar@@QAEXIVCPoint@@@Z 100181e6 f   mfc42d:MFC42D.DLL
 0001:000171ec       ?GetCapture@CWnd@@SGPAV1@XZ 100181ec f   mfc42d:MFC42D.DLL
 0001:000171f2       ?OnLButtonUp@CWnd@@IAEXIVCPoint@@@Z 100181f2 f   mfc42d:MFC42D.DLL
 0001:000171f8       ?OnCancelMode@CWnd@@IAEXXZ 100181f8 f   mfc42d:MFC42D.DLL
 0001:000171fe       ?IsKindOf@CObject@@QBEHPBUCRuntimeClass@@@Z 100181fe f   mfc42d:MFC42D.DLL
 0001:00017204       ?UpdateDialogControls@CWnd@@QAEXPAVCCmdTarget@@H@Z 10018204 f   mfc42d:MFC42D.DLL
 0001:0001720a       ?DoUpdate@CCmdUI@@QAEHPAVCCmdTarget@@H@Z 1001820a f   mfc42d:MFC42D.DLL
 0001:00017210       ?SetRadio@CCmdUI@@UAEXH@Z  10018210 f   mfc42d:MFC42D.DLL
 0001:00017216       ??0CCmdUI@@QAE@XZ          10018216 f   mfc42d:MFC42D.DLL
 0001:0001721c       ?GetParentFrame@CWnd@@QBEPAVCFrameWnd@@XZ 1001821c f   mfc42d:MFC42D.DLL
 0001:00017222       ?AssertValid@CControlBar@@UBEXXZ 10018222 f   mfc42d:MFC42D.DLL
 0001:00017228       ??6@YGAAVCDumpContext@@AAV0@UtagSIZE@@@Z 10018228 f   mfc42d:MFC42D.DLL
 0001:0001722e       ??6CDumpContext@@QAEAAV0@I@Z 1001822e f   mfc42d:MFC42D.DLL
 0001:00017234       ?Dump@CControlBar@@UBEXAAVCDumpContext@@@Z 10018234 f   mfc42d:MFC42D.DLL
 0001:0001723a       ?OnDestroy@CControlBar@@QAEXXZ 1001823a f   mfc42d:MFC42D.DLL
 0001:00017240       ?SetWindowPos@CWnd@@QAEHPBV1@HHHHI@Z 10018240 f   mfc42d:MFC42D.DLL
 0001:00017246       ?InflateRect@CRect@@QAEXHH@Z 10018246 f   mfc42d:MFC42D.DLL
 0001:0001724c       ?FrameRect@CDC@@QAEXPBUtagRECT@@PAVCBrush@@@Z 1001824c f   mfc42d:MFC42D.DLL
 0001:00017252       ?ClientToScreen@CWnd@@QBEXPAUtagPOINT@@@Z 10018252 f   mfc42d:MFC42D.DLL
 0001:00017258       ??1CDC@@UAE@XZ             10018258 f   mfc42d:MFC42D.DLL
 0001:0001725e       ?Detach@CDC@@QAEPAUHDC__@@XZ 1001825e f   mfc42d:MFC42D.DLL
 0001:00017264       ?PatBlt@CDC@@QAEHHHHHK@Z   10018264 f   mfc42d:MFC42D.DLL
 0001:0001726a       ?Attach@CDC@@QAEHPAUHDC__@@@Z 1001826a f   mfc42d:MFC42D.DLL
 0001:00017270       ??0CDC@@QAE@XZ             10018270 f   mfc42d:MFC42D.DLL
 0001:00017276       ?GetWindowRect@CWnd@@QBEXPAUtagRECT@@@Z 10018276 f   mfc42d:MFC42D.DLL
 0001:0001727c       ?OnDestroy@CWnd@@IAEXXZ    1001827c f   mfc42d:MFC42D.DLL
 0001:00017282       ?ClientToScreen@CWnd@@QBEXPAUtagRECT@@@Z 10018282 f   mfc42d:MFC42D.DLL
 0001:00017288       ?GetDeviceCaps@CDC@@QBEHH@Z 10018288 f   mfc42d:MFC42D.DLL
 0001:0001728e       ?AfxGetMainWnd@@YGPAVCWnd@@XZ 1001828e f   mfc42d:MFC42D.DLL
 0001:000172a0       ___CxxFrameHandler         100182a0 f   msvcrtd:MSVCRTD.dll
 0001:000172a6       _sqrt                      100182a6 f   msvcrtd:MSVCRTD.dll
 0001:000172b0       ??_M@YGXPAXIHP6EX0@Z@Z     100182b0 f   msvcrtd:ehvecdtr.obj
 0001:00017360       ?__ArrayUnwind@@YGXPAXIHP6EX0@Z@Z 10018360 f   msvcrtd:ehvecdtr.obj
 0001:0001740c       _memset                    1001840c f   msvcrtd:MSVCRTD.dll
 0001:00017420       ??_L@YGXPAXIHP6EX0@Z1@Z    10018420 f   msvcrtd:ehvecctr.obj
 0001:000174c0       __onexit                   100184c0 f   msvcrtd:atonexit.obj
 0001:00017500       _atexit                    10018500 f   msvcrtd:atonexit.obj
 0001:00017518       _free                      10018518 f   msvcrtd:MSVCRTD.dll
 0001:0001751e       _memcpy                    1001851e f   msvcrtd:MSVCRTD.dll
 0001:00017524       _malloc                    10018524 f   msvcrtd:MSVCRTD.dll
 0001:00017530       __CRT_INIT@12              10018530 f   msvcrtd:crtdll.obj
 0001:00017640       __DllMainCRTStartup@12     10018640 f   msvcrtd:crtdll.obj
 0001:00017734       __except_handler3          10018734 f   msvcrtd:MSVCRTD.dll
 0001:0001773a       ?terminate@@YAXXZ          1001873a f   msvcrtd:MSVCRTD.dll
 0001:00017740       ___dllonexit               10018740 f   msvcrtd:MSVCRTD.dll
 0001:00017746       __free_dbg                 10018746 f   msvcrtd:MSVCRTD.dll
 0001:0001774c       __initterm                 1001874c f   msvcrtd:MSVCRTD.dll
 0001:00017752       __malloc_dbg               10018752 f   msvcrtd:MSVCRTD.dll
 0001:00017758       _GetVersion@0              10018758 f   kernel32:KERNEL32.dll
 0001:0001775e       _FreeResource@4            1001875e f   kernel32:KERNEL32.dll
 0001:00017764       _LockResource@4            10018764 f   kernel32:KERNEL32.dll
 0001:0001776a       _LoadResource@8            1001876a f   kernel32:KERNEL32.dll
 0001:00017770       _FindResourceA@12          10018770 f   kernel32:KERNEL32.dll
 0001:00017776       _RegisterClassA@4          10018776 f   user32:USER32.dll
 0001:0001777c       _GetClassInfoA@12          1001877c f   user32:USER32.dll
 0001:00017782       _ReleaseCapture@0          10018782 f   user32:USER32.dll
 0001:00017788       _LoadCursorA@8             10018788 f   user32:USER32.dll
 0001:0001778e       _GetSysColor@4             1001878e f   user32:USER32.dll
 0001:00017794       _ReleaseDC@8               10018794 f   user32:USER32.dll
 0001:0001779a       _GetDC@4                   1001879a f   user32:USER32.dll
 0001:000177a0       _GetStockObject@4          100187a0 f   gdi32:GDI32.dll
 0001:000177a6       _CreateSolidBrush@4        100187a6 f   gdi32:GDI32.dll
 0001:000177ac       _CreatePen@12              100187ac f   gdi32:GDI32.dll
 0001:000177b2       _GetDeviceCaps@8           100187b2 f   gdi32:GDI32.dll
 0001:000177b8       _BitBlt@36                 100187b8 f   gdi32:GDI32.dll
 0001:000177be       _SetBkColor@8              100187be f   gdi32:GDI32.dll
 0001:000177c4       _PatBlt@24                 100187c4 f   gdi32:GDI32.dll
 0001:000177ca       _CreateBitmap@20           100187ca f   gdi32:GDI32.dll
 0001:000177d0       _SelectObject@8            100187d0 f   gdi32:GDI32.dll
 0001:000177d6       _StretchDIBits@52          100187d6 f   gdi32:GDI32.dll
 0001:000177dc       _CreateCompatibleBitmap@12 100187dc f   gdi32:GDI32.dll
 0001:000177e2       _CreatePatternBrush@4      100187e2 f   gdi32:GDI32.dll
 0001:000177e8       _CreateCompatibleDC@4      100187e8 f   gdi32:GDI32.dll
 0001:000177ee       _CreateDIBitmap@24         100187ee f   gdi32:GDI32.dll
 0001:000177f4       _DeleteObject@4            100187f4 f   gdi32:GDI32.dll
 0001:000177fa       _GetObjectType@4           100187fa f   gdi32:GDI32.dll
 0001:00017800       ?data@CPlex@@QAEPAXXZ      10018800 f i BoxWnd.obj
 0001:00017820       ?CreateMask@COldToolBar@@IAEXHVCPoint@@HH@Z 10018820 f   Oldtool.obj
 0001:00017960       ?DrawButton@COldToolBar@@IAEHPAVCDC@@HHHI@Z 10018960 f   Oldtool.obj
 0001:00017eb0       ?PrepareDrawButton@COldToolBar@@IAEHAAUDrawState@1@@Z 10018eb0 f   Oldtool.obj
 0001:00017fd0       ?EndDrawButton@COldToolBar@@IAEXAAUDrawState@1@@Z 10018fd0 f   Oldtool.obj
 0001:00018020       ?LoadSysColorBitmap@@YGPAUHBITMAP__@@PAUHINSTANCE__@@PAUHRSRC__@@@Z 10019020 f   Oldtool.obj
 0001:00018390       ?CommandToIndex@COldToolBar@@QBEHI@Z 10019390 f   Oldtool.obj
 0001:00018410       ?_GetButtonPtr@COldToolBar@@IBEPAUAFX_TBBUTTON@@H@Z 10019410 f i Oldtool.obj
 0001:00018490       ?GetItemID@COldToolBar@@QBEIH@Z 10019490 f   Oldtool.obj
 0001:000184d0       ?GetItemRect@COldToolBar@@UBEXHPAUtagRECT@@@Z 100194d0 f   Oldtool.obj
 0001:00018780       ?GetButtonStyle@COldToolBar@@QBEIH@Z 10019780 f   Oldtool.obj
 0001:000187b0       ?SetButtonStyle@COldToolBar@@QAEXHI@Z 100197b0 f   Oldtool.obj
 0001:00018810       ?CalcFixedLayout@COldToolBar@@UAE?AVCSize@@HH@Z 10019810 f   Oldtool.obj
 0001:000189e0       ?GetButtonInfo@COldToolBar@@QBEXHAAI0AAH@Z 100199e0 f   Oldtool.obj
 0001:00018a40       ?SetButtonInfo@COldToolBar@@QAEXHIIH@Z 10019a40 f   Oldtool.obj
 0001:00018ab0       ?DoPaint@COldToolBar@@MAEXPAVCDC@@@Z 10019ab0 f   Oldtool.obj
 0001:00018cb0       ?InvalidateButton@COldToolBar@@IAEXH@Z 10019cb0 f   Oldtool.obj
 0001:00018d10       ?OnToolHitTest@COldToolBar@@MBEHVCPoint@@PAUtagTOOLINFOA@@@Z 10019d10 f   Oldtool.obj
 0001:00018de0       ?HitTest@COldToolBar@@MAEHVCPoint@@@Z 10019de0 f   Oldtool.obj
 0001:00018fd0       ?_GetBaseMessageMap@COldToolBar@@KGPBUAFX_MSGMAP@@XZ 10019fd0 f   Oldtool.obj
 0001:00018ff0       ?GetMessageMap@COldToolBar@@MBEPBUAFX_MSGMAP@@XZ 10019ff0 f   Oldtool.obj
 0001:00019010       ?OnLButtonDown@COldToolBar@@IAEXIVCPoint@@@Z 1001a010 f   Oldtool.obj
 0001:00019130       ?OnMouseMove@COldToolBar@@IAEXIVCPoint@@@Z 1001a130 f   Oldtool.obj
 0001:00019230       ?OnLButtonUp@COldToolBar@@IAEXIVCPoint@@@Z 1001a230 f   Oldtool.obj
 0001:000193d0       ?OnCancelMode@COldToolBar@@IAEXXZ 1001a3d0 f   Oldtool.obj
 0001:00019490       ?OnSysColorChange@COldToolBar@@IAEXXZ 1001a490 f   Oldtool.obj
 0001:00019530       ?Enable@COldToolCmdUI@@UAEXH@Z 1001a530 f   Oldtool.obj
 0001:00019650       ?SetCheck@COldToolCmdUI@@UAEXH@Z 1001a650 f   Oldtool.obj
 0001:000197a0       ?SetText@COldToolCmdUI@@UAEXPBD@Z 1001a7a0 f   Oldtool.obj
 0001:000197c0       ?OnUpdateCmdUI@COldToolBar@@MAEXPAVCFrameWnd@@H@Z 1001a7c0 f   Oldtool.obj
 0001:00019850       ??0COldToolCmdUI@@QAE@XZ   1001a850 f i Oldtool.obj
 0001:00019880       ?UpdateButton@COldToolBar@@IAEXH@Z 1001a880 f   Oldtool.obj
 0001:00019910       ?AssertValid@COldToolBar@@UBEXXZ 1001a910 f   Oldtool.obj
 0001:000199e0       ?Dump@COldToolBar@@UBEXAAVCDumpContext@@@Z 1001a9e0 f   Oldtool.obj
 0001:00019c50       ??1_AFX_TOOLBAR_TERM@@QAE@XZ 1001ac50 f i Oldtool.obj
 0001:00019c90       ??0COldToolBar@@QAE@XZ     1001ac90 f   Oldtool.obj
 0001:00019e80       ??_ECOldToolBar@@UAEPAXI@Z 1001ae80 f i Oldtool.obj
 0001:00019e80       ??_GCOldToolBar@@UAEPAXI@Z 1001ae80 f i Oldtool.obj
 0001:00019ec0       ??1COldToolBar@@UAE@XZ     1001aec0 f   Oldtool.obj
 0001:00019f20       ?Create@COldToolBar@@QAEHPAVCWnd@@KI@Z 1001af20 f   Oldtool.obj
 0001:00019fd0       ?SetSizes@COldToolBar@@QAEXUtagSIZE@@0@Z 1001afd0 f   Oldtool.obj
 0001:0001a100       ?SetHeight@COldToolBar@@QAEXH@Z 1001b100 f   Oldtool.obj
 0001:0001a1e0       ?LoadBitmapA@COldToolBar@@QAEHI@Z 1001b1e0 f   Oldtool.obj
 0001:0001a210       ?LoadBitmapA@COldToolBar@@QAEHPBD@Z 1001b210 f   Oldtool.obj
 0001:0001a2f0       ?SetButtons@COldToolBar@@QAEHPBIH@Z 1001b2f0 f   Oldtool.obj
 0001:0001a4a0       ?_GetBaseClass@COldToolBar@@KGPAUCRuntimeClass@@XZ 1001b4a0 f   Oldtool.obj
 0001:0001a4c0       ?GetRuntimeClass@COldToolBar@@UBEPAUCRuntimeClass@@XZ 1001b4c0 f   Oldtool.obj
 0002:00000000       __imp_?GetRuntimeClass@C3DMath@@UBEPAUCRuntimeClass@@XZ 1001d000     Dr3D_D32:Dr3D_D32.dll
 0002:00000004       __imp_?BlockCopy@C3DMath@@QAEXPAD0K@Z 1001d004     Dr3D_D32:Dr3D_D32.dll
 0002:00000008       __imp_??0C3DMath@@QAE@XZ   1001d008     Dr3D_D32:Dr3D_D32.dll
 0002:0000000c       __imp_?Serialize@C3DMath@@UAEXAAVCArchive@@@Z 1001d00c     Dr3D_D32:Dr3D_D32.dll
 0002:00000010       \177Dr3D_D32_NULL_THUNK_DATA 1001d010     Dr3D_D32:Dr3D_D32.dll
 0002:00000014       __imp_?Pack_drPipe@CDrLabel@@UAEXPAVCString@@@Z 1001d014     Draw_D32:Draw_D32.dll
 0002:00000018       __imp_?IsKeyMatch@CDrLabel@@UAEHPAVCDrObject@@VCString@@I@Z 1001d018     Draw_D32:Draw_D32.dll
 0002:0000001c       __imp_?IsObjectHit@CDrLabel@@UAEHPAVCClientDC@@HUtagPOINT@@PAVCRect@@H@Z 1001d01c     Draw_D32:Draw_D32.dll
 0002:00000020       __imp_?GetRawCoords@CDrLabel@@UAEXPAJPAHH@Z 1001d020     Draw_D32:Draw_D32.dll
 0002:00000024       __imp_?FinishObject@CDrLabel@@UAEXPAVCClientDC@@H@Z 1001d024     Draw_D32:Draw_D32.dll
 0002:00000028       __imp_?SetObjectInfo@CDrLabel@@UAEXPAVCDrObject@@@Z 1001d028     Draw_D32:Draw_D32.dll
 0002:0000002c       __imp_?DoDrawView@CDrLabel@@UAEXPAVCDC@@HH@Z 1001d02c     Draw_D32:Draw_D32.dll
 0002:00000030       __imp_?Corner_3Dto2D@CDrLabel@@UAEXXZ 1001d030     Draw_D32:Draw_D32.dll
 0002:00000034       __imp_?InitDraw@CDrLabel@@UAEXPAVCDC@@HHPAUMATRIX@@1NNN@Z 1001d034     Draw_D32:Draw_D32.dll
 0002:00000038       __imp_?DoDataView@CDrLabel@@UAEXPAVCDC@@H@Z 1001d038     Draw_D32:Draw_D32.dll
 0002:0000003c       __imp_?Serialize@CDrLabel@@UAEXAAVCArchive@@@Z 1001d03c     Draw_D32:Draw_D32.dll
 0002:00000040       __imp_?GetRuntimeClass@CDrLabel@@UBEPAUCRuntimeClass@@XZ 1001d040     Draw_D32:Draw_D32.dll
 0002:00000044       __imp_?GetObjectInfo@CDrLabel@@UAEXPAVCDrObject@@@Z 1001d044     Draw_D32:Draw_D32.dll
 0002:00000048       __imp_?GetCorner@CDrLabel@@UAE?AUtagPOINT@@H@Z 1001d048     Draw_D32:Draw_D32.dll
 0002:0000004c       __imp_?SetCorner@CDrLabel@@UAEXUtagPOINT@@H@Z 1001d04c     Draw_D32:Draw_D32.dll
 0002:00000050       __imp_?DealObjectDialog@CDrLabel@@UAEHXZ 1001d050     Draw_D32:Draw_D32.dll
 0002:00000054       \177Draw_D32_NULL_THUNK_DATA 1001d054     Draw_D32:Draw_D32.dll
 0002:00000058       __imp_?Init@CElemInfo@@UAEXXZ 1001d058     Elem_D32:Elem_D32.dll
 0002:0000005c       __imp_?SetObjectInfo@CElemInfo@@UAEXPAVCDrObject@@@Z 1001d05c     Elem_D32:Elem_D32.dll
 0002:00000060       __imp_?GetObjectInfo@CElemInfo@@UAEXPAVCDrObject@@@Z 1001d060     Elem_D32:Elem_D32.dll
 0002:00000064       __imp_?Pack_drPipe@CElemInfo@@UAEXPAVCString@@@Z 1001d064     Elem_D32:Elem_D32.dll
 0002:00000068       __imp_?DoDataView@CElemInfo@@UAEXPAVCDC@@H@Z 1001d068     Elem_D32:Elem_D32.dll
 0002:0000006c       __imp_?Serialize@CElemInfo@@UAEXAAVCArchive@@@Z 1001d06c     Elem_D32:Elem_D32.dll
 0002:00000070       __imp_?GetRuntimeClass@CElemInfo@@UBEPAUCRuntimeClass@@XZ 1001d070     Elem_D32:Elem_D32.dll
 0002:00000074       __imp_?ReadDefault@CElemInfo@@UAEXXZ 1001d074     Elem_D32:Elem_D32.dll
 0002:00000078       \177Elem_D32_NULL_THUNK_DATA 1001d078     Elem_D32:Elem_D32.dll
 0002:0000007c       __imp__StretchDIBits@52    1001d07c     gdi32:GDI32.dll
 0002:00000080       __imp__CreateCompatibleBitmap@12 1001d080     gdi32:GDI32.dll
 0002:00000084       __imp__CreatePatternBrush@4 1001d084     gdi32:GDI32.dll
 0002:00000088       __imp__SelectObject@8      1001d088     gdi32:GDI32.dll
 0002:0000008c       __imp__CreateDIBitmap@24   1001d08c     gdi32:GDI32.dll
 0002:00000090       __imp__DeleteObject@4      1001d090     gdi32:GDI32.dll
 0002:00000094       __imp__GetObjectType@4     1001d094     gdi32:GDI32.dll
 0002:00000098       __imp__CreateBitmap@20     1001d098     gdi32:GDI32.dll
 0002:0000009c       __imp__PatBlt@24           1001d09c     gdi32:GDI32.dll
 0002:000000a0       __imp__SetBkColor@8        1001d0a0     gdi32:GDI32.dll
 0002:000000a4       __imp__BitBlt@36           1001d0a4     gdi32:GDI32.dll
 0002:000000a8       __imp__GetDeviceCaps@8     1001d0a8     gdi32:GDI32.dll
 0002:000000ac       __imp__CreatePen@12        1001d0ac     gdi32:GDI32.dll
 0002:000000b0       __imp__CreateSolidBrush@4  1001d0b0     gdi32:GDI32.dll
 0002:000000b4       __imp__CreateCompatibleDC@4 1001d0b4     gdi32:GDI32.dll
 0002:000000b8       __imp__GetStockObject@4    1001d0b8     gdi32:GDI32.dll
 0002:000000bc       \177GDI32_NULL_THUNK_DATA  1001d0bc     gdi32:GDI32.dll
 0002:000000c0       __imp__LoadResource@8      1001d0c0     kernel32:KERNEL32.dll
 0002:000000c4       __imp__LockResource@4      1001d0c4     kernel32:KERNEL32.dll
 0002:000000c8       __imp__FreeResource@4      1001d0c8     kernel32:KERNEL32.dll
 0002:000000cc       __imp__GetVersion@0        1001d0cc     kernel32:KERNEL32.dll
 0002:000000d0       __imp__FindResourceA@12    1001d0d0     kernel32:KERNEL32.dll
 0002:000000d4       \177KERNEL32_NULL_THUNK_DATA 1001d0d4     kernel32:KERNEL32.dll
 0002:000000d8       __imp_?GetOwner@CWnd@@QBEPAV1@XZ 1001d0d8     mfc42d:MFC42D.DLL
 0002:000000dc       __imp_?messageMap@CControlBar@@1UAFX_MSGMAP@@B 1001d0dc     mfc42d:MFC42D.DLL
 0002:000000e0       __imp_?InvalidateRect@CWnd@@QAEXPBUtagRECT@@H@Z 1001d0e0     mfc42d:MFC42D.DLL
 0002:000000e4       __imp_?DoPaint@CControlBar@@UAEXPAVCDC@@@Z 1001d0e4     mfc42d:MFC42D.DLL
 0002:000000e8       __imp_??BCRect@@QAEPAUtagRECT@@XZ 1001d0e8     mfc42d:MFC42D.DLL
 0002:000000ec       __imp_?CalcFixedLayout@CControlBar@@UAE?AVCSize@@HH@Z 1001d0ec     mfc42d:MFC42D.DLL
 0002:000000f0       __imp_?CalcInsideRect@CControlBar@@QBEXAAVCRect@@H@Z 1001d0f0     mfc42d:MFC42D.DLL
 0002:000000f4       __imp_?AllocElements@CControlBar@@QAEHHH@Z 1001d0f4     mfc42d:MFC42D.DLL
 0002:000000f8       __imp_?AfxFindResourceHandle@@YGPAUHINSTANCE__@@PBD0@Z 1001d0f8     mfc42d:MFC42D.DLL
 0002:000000fc       __imp_??0CSize@@QAE@UtagSIZE@@@Z 1001d0fc     mfc42d:MFC42D.DLL
 0002:00000100       __imp_?SetRectEmpty@CRect@@QAEXXZ 1001d100     mfc42d:MFC42D.DLL
 0002:00000104       __imp_??0CControlBar@@IAE@XZ 1001d104     mfc42d:MFC42D.DLL
 0002:00000108       __imp_?AfxThrowResourceException@@YGXXZ 1001d108     mfc42d:MFC42D.DLL
 0002:0000010c       __imp_??1CControlBar@@UAE@XZ 1001d10c     mfc42d:MFC42D.DLL
 0002:00000110       __imp_?FillSolidRect@CDC@@QAEXHHHHK@Z 1001d110     mfc42d:MFC42D.DLL
 0002:00000114       __imp_??0CPoint@@QAE@XZ    1001d114     mfc42d:MFC42D.DLL
 0002:00000118       __imp_?Draw3dRect@CDC@@QAEXHHHHKK@Z 1001d118     mfc42d:MFC42D.DLL
 0002:0000011c       __imp_?SelectObject@CDC@@QAEPAXPAX@Z 1001d11c     mfc42d:MFC42D.DLL
 0002:00000120       __imp_?AfxDeleteObject@@YGXPAPAX@Z 1001d120     mfc42d:MFC42D.DLL
 0002:00000124       __imp_?UpdateAllViews@CDocument@@QAEXPAVCView@@JPAVCObject@@@Z 1001d124     mfc42d:MFC42D.DLL
 0002:00000128       __imp_??0CClientDC@@QAE@PAVCWnd@@@Z 1001d128     mfc42d:MFC42D.DLL
 0002:0000012c       __imp_?MoveTo@CDC@@QAE?AVCPoint@@HH@Z 1001d12c     mfc42d:MFC42D.DLL
 0002:00000130       __imp_?CreatePen@CPen@@QAEHHHK@Z 1001d130     mfc42d:MFC42D.DLL
 0002:00000134       __imp_?SelectObject@CDC@@QAEPAVCPen@@PAV2@@Z 1001d134     mfc42d:MFC42D.DLL
 0002:00000138       __imp_?LineTo@CDC@@QAEHHH@Z 1001d138     mfc42d:MFC42D.DLL
 0002:0000013c       __imp_??1CClientDC@@UAE@XZ 1001d13c     mfc42d:MFC42D.DLL
 0002:00000140       __imp_??0CRect@@QAE@PBUtagRECT@@@Z 1001d140     mfc42d:MFC42D.DLL
 0002:00000144       __imp_?AfxGetResourceHandle@@YGPAUHINSTANCE__@@XZ 1001d144     mfc42d:MFC42D.DLL
 0002:00000148       __imp_?AfxSetResourceHandle@@YGXPAUHINSTANCE__@@@Z 1001d148     mfc42d:MFC42D.DLL
 0002:0000014c       __imp_?LoadStringA@CString@@QAEHI@Z 1001d14c     mfc42d:MFC42D.DLL
 0002:00000150       __imp_??0CSize@@QAE@XZ     1001d150     mfc42d:MFC42D.DLL
 0002:00000154       __imp_?GetStyle@CWnd@@QBEKXZ 1001d154     mfc42d:MFC42D.DLL
 0002:00000158       __imp_?ShowWindow@CWnd@@QAEHH@Z 1001d158     mfc42d:MFC42D.DLL
 0002:0000015c       __imp_?DoUpdate@CCmdUI@@QAEHPAVCCmdTarget@@H@Z 1001d15c     mfc42d:MFC42D.DLL
 0002:00000160       __imp_?DestroyWindow@CControlBar@@UAEHXZ 1001d160     mfc42d:MFC42D.DLL
 0002:00000164       __imp_?PreCreateWindow@CControlBar@@UAEHAAUtagCREATESTRUCTA@@@Z 1001d164     mfc42d:MFC42D.DLL
 0002:00000168       __imp_?PreTranslateMessage@CControlBar@@UAEHPAUtagMSG@@@Z 1001d168     mfc42d:MFC42D.DLL
 0002:0000016c       __imp_?WindowProc@CControlBar@@UAEJIIJ@Z 1001d16c     mfc42d:MFC42D.DLL
 0002:00000170       __imp_?PostNcDestroy@CControlBar@@UAEXXZ 1001d170     mfc42d:MFC42D.DLL
 0002:00000174       __imp_?CalcDynamicLayout@CControlBar@@UAE?AVCSize@@HK@Z 1001d174     mfc42d:MFC42D.DLL
 0002:00000178       __imp_?DelayShow@CControlBar@@UAEXH@Z 1001d178     mfc42d:MFC42D.DLL
 0002:0000017c       __imp_?IsVisible@CControlBar@@UBEHXZ 1001d17c     mfc42d:MFC42D.DLL
 0002:00000180       __imp_?RecalcDelayShow@CControlBar@@UAEKPAUAFX_SIZEPARENTPARAMS@@@Z 1001d180     mfc42d:MFC42D.DLL
 0002:00000184       __imp_?IsDockBar@CControlBar@@UBEHXZ 1001d184     mfc42d:MFC42D.DLL
 0002:00000188       __imp_?OnBarStyleChange@CControlBar@@UAEXKK@Z 1001d188     mfc42d:MFC42D.DLL
 0002:0000018c       __imp_?SetStatusText@CControlBar@@UAEHH@Z 1001d18c     mfc42d:MFC42D.DLL
 0002:00000190       __imp_?AfxTrace@@YAXPBDZZ  1001d190     mfc42d:MFC42D.DLL
 0002:00000194       __imp_?AfxInitExtensionModule@@YGHAAUAFX_EXTENSION_MODULE@@PAUHINSTANCE__@@@Z 1001d194     mfc42d:MFC42D.DLL
 0002:00000198       __imp_??0CDynLinkLibrary@@QAE@AAUAFX_EXTENSION_MODULE@@H@Z 1001d198     mfc42d:MFC42D.DLL
 0002:0000019c       __imp_?AfxGetModuleState@@YGPAVAFX_MODULE_STATE@@XZ 1001d19c     mfc42d:MFC42D.DLL
 0002:000001a0       __imp_?SetCapture@CWnd@@QAEPAV1@XZ 1001d1a0     mfc42d:MFC42D.DLL
 0002:000001a4       __imp_?CreateSolidBrush@CBrush@@QAEHK@Z 1001d1a4     mfc42d:MFC42D.DLL
 0002:000001a8       __imp_?SelectObject@CDC@@QAEPAVCBrush@@PAV2@@Z 1001d1a8     mfc42d:MFC42D.DLL
 0002:000001ac       __imp_?SelectStockObject@CDC@@UAEPAVCGdiObject@@H@Z 1001d1ac     mfc42d:MFC42D.DLL
 0002:000001b0       __imp_?Rectangle@CDC@@QAEHPBUtagRECT@@@Z 1001d1b0     mfc42d:MFC42D.DLL
 0002:000001b4       __imp_??0CColorDialog@@QAE@KKPAVCWnd@@@Z 1001d1b4     mfc42d:MFC42D.DLL
 0002:000001b8       __imp_?OnLButtonDown@CControlBar@@QAEXIVCPoint@@@Z 1001d1b8     mfc42d:MFC42D.DLL
 0002:000001bc       __imp_?DoModal@CColorDialog@@UAEHXZ 1001d1bc     mfc42d:MFC42D.DLL
 0002:000001c0       __imp_?GetColor@CColorDialog@@QBEKXZ 1001d1c0     mfc42d:MFC42D.DLL
 0002:000001c4       __imp_?Invalidate@CWnd@@QAEXH@Z 1001d1c4     mfc42d:MFC42D.DLL
 0002:000001c8       __imp_?UpdateWindow@CWnd@@QAEXXZ 1001d1c8     mfc42d:MFC42D.DLL
 0002:000001cc       __imp_?OnCreate@CWnd@@IAEHPAUtagCREATESTRUCTA@@@Z 1001d1cc     mfc42d:MFC42D.DLL
 0002:000001d0       __imp_??0CRect@@QAE@XZ     1001d1d0     mfc42d:MFC42D.DLL
 0002:000001d4       __imp_??4CString@@QAEABV0@PBD@Z 1001d1d4     mfc42d:MFC42D.DLL
 0002:000001d8       __imp_??0CString@@QAE@XZ   1001d1d8     mfc42d:MFC42D.DLL
 0002:000001dc       __imp_?Height@CRect@@QBEHXZ 1001d1dc     mfc42d:MFC42D.DLL
 0002:000001e0       __imp_?Width@CRect@@QBEHXZ 1001d1e0     mfc42d:MFC42D.DLL
 0002:000001e4       __imp_?classCButton@CButton@@2UCRuntimeClass@@B 1001d1e4     mfc42d:MFC42D.DLL
 0002:000001e8       __imp_??1CButton@@UAE@XZ   1001d1e8     mfc42d:MFC42D.DLL
 0002:000001ec       __imp_??0CButton@@QAE@XZ   1001d1ec     mfc42d:MFC42D.DLL
 0002:000001f0       __imp_?GetMessageMap@CWnd@@MBEPBUAFX_MSGMAP@@XZ 1001d1f0     mfc42d:MFC42D.DLL
 0002:000001f4       __imp_?OnChildNotify@CButton@@MAEHIIJPAJ@Z 1001d1f4     mfc42d:MFC42D.DLL
 0002:000001f8       __imp_?DrawItem@CButton@@UAEXPAUtagDRAWITEMSTRUCT@@@Z 1001d1f8     mfc42d:MFC42D.DLL
 0002:000001fc       __imp_??2CObject@@SGPAXI@Z 1001d1fc     mfc42d:MFC42D.DLL
 0002:00000200       __imp_?Create@CPlex@@SGPAU1@AAPAU1@II@Z 1001d200     mfc42d:MFC42D.DLL
 0002:00000204       __imp_?Write@CArchive@@QAEXPBXI@Z 1001d204     mfc42d:MFC42D.DLL
 0002:00000208       __imp_?Read@CArchive@@QAEIPAXI@Z 1001d208     mfc42d:MFC42D.DLL
 0002:0000020c       __imp_?FreeDataChain@CPlex@@QAEXXZ 1001d20c     mfc42d:MFC42D.DLL
 0002:00000210       __imp_??6CDumpContext@@QAEAAV0@PBD@Z 1001d210     mfc42d:MFC42D.DLL
 0002:00000214       __imp_??6CDumpContext@@QAEAAV0@H@Z 1001d214     mfc42d:MFC42D.DLL
 0002:00000218       __imp_?GetDepth@CDumpContext@@QBEHXZ 1001d218     mfc42d:MFC42D.DLL
 0002:0000021c       __imp_?AfxAssertValidObject@@YGXPBVCObject@@PBDH@Z 1001d21c     mfc42d:MFC42D.DLL
 0002:00000220       __imp_?IsStoring@CArchive@@QBEHXZ 1001d220     mfc42d:MFC42D.DLL
 0002:00000224       __imp_?WriteCount@CArchive@@QAEXK@Z 1001d224     mfc42d:MFC42D.DLL
 0002:00000228       __imp_?AfxIsValidAddress@@YGHPBXIH@Z 1001d228     mfc42d:MFC42D.DLL
 0002:0000022c       __imp_?ReadCount@CArchive@@QAEKXZ 1001d22c     mfc42d:MFC42D.DLL
 0002:00000230       __imp_?AfxAssertFailedLine@@YGHPBDH@Z 1001d230     mfc42d:MFC42D.DLL
 0002:00000234       __imp_?GetRuntimeClass@CObject@@UBEPAUCRuntimeClass@@XZ 1001d234     mfc42d:MFC42D.DLL
 0002:00000238       __imp_?SetRadio@CCmdUI@@UAEXH@Z 1001d238     mfc42d:MFC42D.DLL
 0002:0000023c       __imp_??0CCmdUI@@QAE@XZ    1001d23c     mfc42d:MFC42D.DLL
 0002:00000240       __imp_?GetParentFrame@CWnd@@QBEPAVCFrameWnd@@XZ 1001d240     mfc42d:MFC42D.DLL
 0002:00000244       __imp_?AssertValid@CControlBar@@UBEXXZ 1001d244     mfc42d:MFC42D.DLL
 0002:00000248       __imp_??6@YGAAVCDumpContext@@AAV0@UtagSIZE@@@Z 1001d248     mfc42d:MFC42D.DLL
 0002:0000024c       __imp_??6CDumpContext@@QAEAAV0@I@Z 1001d24c     mfc42d:MFC42D.DLL
 0002:00000250       __imp_?Dump@CControlBar@@UBEXAAVCDumpContext@@@Z 1001d250     mfc42d:MFC42D.DLL
 0002:00000254       __imp_?classCControlBar@CControlBar@@2UCRuntimeClass@@B 1001d254     mfc42d:MFC42D.DLL
 0002:00000258       __imp_?OnDestroy@CControlBar@@QAEXXZ 1001d258     mfc42d:MFC42D.DLL
 0002:0000025c       __imp_?SetWindowPos@CWnd@@QAEHPBV1@HHHHI@Z 1001d25c     mfc42d:MFC42D.DLL
 0002:00000260       __imp_?InflateRect@CRect@@QAEXHH@Z 1001d260     mfc42d:MFC42D.DLL
 0002:00000264       __imp_?FrameRect@CDC@@QAEXPBUtagRECT@@PAVCBrush@@@Z 1001d264     mfc42d:MFC42D.DLL
 0002:00000268       __imp_?ClientToScreen@CWnd@@QBEXPAUtagPOINT@@@Z 1001d268     mfc42d:MFC42D.DLL
 0002:0000026c       __imp_??1CDC@@UAE@XZ       1001d26c     mfc42d:MFC42D.DLL
 0002:00000270       __imp_?Detach@CDC@@QAEPAUHDC__@@XZ 1001d270     mfc42d:MFC42D.DLL
 0002:00000274       __imp_?PatBlt@CDC@@QAEHHHHHK@Z 1001d274     mfc42d:MFC42D.DLL
 0002:00000278       __imp_?Attach@CDC@@QAEHPAUHDC__@@@Z 1001d278     mfc42d:MFC42D.DLL
 0002:0000027c       __imp_??0CDC@@QAE@XZ       1001d27c     mfc42d:MFC42D.DLL
 0002:00000280       __imp_?GetWindowRect@CWnd@@QBEXPAUtagRECT@@@Z 1001d280     mfc42d:MFC42D.DLL
 0002:00000284       __imp_?OnDestroy@CWnd@@IAEXXZ 1001d284     mfc42d:MFC42D.DLL
 0002:00000288       __imp_?ClientToScreen@CWnd@@QBEXPAUtagRECT@@@Z 1001d288     mfc42d:MFC42D.DLL
 0002:0000028c       __imp_?GetDeviceCaps@CDC@@QBEHH@Z 1001d28c     mfc42d:MFC42D.DLL
 0002:00000290       __imp_?AfxGetMainWnd@@YGPAVCWnd@@XZ 1001d290     mfc42d:MFC42D.DLL
 0002:00000294       __imp_?GetCapture@CWnd@@SGPAV1@XZ 1001d294     mfc42d:MFC42D.DLL
 0002:00000298       __imp_?OnLButtonUp@CWnd@@IAEXIVCPoint@@@Z 1001d298     mfc42d:MFC42D.DLL
 0002:0000029c       __imp_?SendMessageA@CWnd@@QAEJIIJ@Z 1001d29c     mfc42d:MFC42D.DLL
 0002:000002a0       __imp_??0CPaintDC@@QAE@PAVCWnd@@@Z 1001d2a0     mfc42d:MFC42D.DLL
 0002:000002a4       __imp_?OnCancelMode@CWnd@@IAEXXZ 1001d2a4     mfc42d:MFC42D.DLL
 0002:000002a8       __imp_?IsKindOf@CObject@@QBEHPBUCRuntimeClass@@@Z 1001d2a8     mfc42d:MFC42D.DLL
 0002:000002ac       __imp_?GetParent@CWnd@@QBEPAV1@XZ 1001d2ac     mfc42d:MFC42D.DLL
 0002:000002b0       __imp_?UpdateDialogControls@CWnd@@QAEXPAVCCmdTarget@@H@Z 1001d2b0     mfc42d:MFC42D.DLL
 0002:000002b4       __imp_?GetDescendantWindow@CWnd@@QBEPAV1@HH@Z 1001d2b4     mfc42d:MFC42D.DLL
 0002:000002b8       __imp_??0CPen@@QAE@XZ      1001d2b8     mfc42d:MFC42D.DLL
 0002:000002bc       __imp_??0CBrush@@QAE@XZ    1001d2bc     mfc42d:MFC42D.DLL
 0002:000002c0       __imp_??1CDialog@@UAE@XZ   1001d2c0     mfc42d:MFC42D.DLL
 0002:000002c4       __imp_??1CString@@QAE@XZ   1001d2c4     mfc42d:MFC42D.DLL
 0002:000002c8       __imp_?Dump@CObject@@UBEXAAVCDumpContext@@@Z 1001d2c8     mfc42d:MFC42D.DLL
 0002:000002cc       __imp_?AssertValid@CObject@@UBEXXZ 1001d2cc     mfc42d:MFC42D.DLL
 0002:000002d0       __imp_??1CObject@@UAE@XZ   1001d2d0     mfc42d:MFC42D.DLL
 0002:000002d4       __imp_??3CObject@@SGXPAX@Z 1001d2d4     mfc42d:MFC42D.DLL
 0002:000002d8       __imp_??3@YAXPAX@Z         1001d2d8     mfc42d:MFC42D.DLL
 0002:000002dc       __imp_??0CString@@QAE@ABV0@@Z 1001d2dc     mfc42d:MFC42D.DLL
 0002:000002e0       __imp_??4CString@@QAEABV0@ABV0@@Z 1001d2e0     mfc42d:MFC42D.DLL
 0002:000002e4       __imp_?Serialize@CObject@@UAEXAAVCArchive@@@Z 1001d2e4     mfc42d:MFC42D.DLL
 0002:000002e8       __imp_??2@YAPAXI@Z         1001d2e8     mfc42d:MFC42D.DLL
 0002:000002ec       __imp_?messageMap@CWnd@@1UAFX_MSGMAP@@B 1001d2ec     mfc42d:MFC42D.DLL
 0002:000002f0       __imp_?classCWnd@CWnd@@2UCRuntimeClass@@B 1001d2f0     mfc42d:MFC42D.DLL
 0002:000002f4       __imp_?SetOccDialogInfo@CWnd@@MAEHPAU_AFX_OCC_DIALOG_INFO@@@Z 1001d2f4     mfc42d:MFC42D.DLL
 0002:000002f8       __imp_?IsFrameWnd@CWnd@@UBEHXZ 1001d2f8     mfc42d:MFC42D.DLL
 0002:000002fc       __imp_?CheckAutoCenter@CWnd@@UAEHXZ 1001d2fc     mfc42d:MFC42D.DLL
 0002:00000300       __imp_?OnChildNotify@CWnd@@MAEHIIJPAJ@Z 1001d300     mfc42d:MFC42D.DLL
 0002:00000304       __imp_?PostNcDestroy@CWnd@@MAEXXZ 1001d304     mfc42d:MFC42D.DLL
 0002:00000308       __imp_?DefWindowProcA@CWnd@@MAEJIIJ@Z 1001d308     mfc42d:MFC42D.DLL
 0002:0000030c       __imp_?OnWndMsg@CWnd@@MAEHIIJPAJ@Z 1001d30c     mfc42d:MFC42D.DLL
 0002:00000310       __imp_?WindowProc@CWnd@@MAEJIIJ@Z 1001d310     mfc42d:MFC42D.DLL
 0002:00000314       __imp_?OnAmbientProperty@CWnd@@UAEHPAVCOleControlSite@@JPAUtagVARIANT@@@Z 1001d314     mfc42d:MFC42D.DLL
 0002:00000318       __imp_?PreTranslateMessage@CWnd@@UAEHPAUtagMSG@@@Z 1001d318     mfc42d:MFC42D.DLL
 0002:0000031c       __imp_?EndModalState@CWnd@@UAEXXZ 1001d31c     mfc42d:MFC42D.DLL
 0002:00000320       __imp_?BeginModalState@CWnd@@UAEXXZ 1001d320     mfc42d:MFC42D.DLL
 0002:00000324       __imp_?DoDataExchange@CWnd@@MAEXPAVCDataExchange@@@Z 1001d324     mfc42d:MFC42D.DLL
 0002:00000328       __imp_?GetSuperWndProcAddr@CWnd@@MAEPAP6GJPAUHWND__@@IIJ@ZXZ 1001d328     mfc42d:MFC42D.DLL
 0002:0000032c       __imp_?OnNotify@CWnd@@MAEHIJPAJ@Z 1001d32c     mfc42d:MFC42D.DLL
 0002:00000330       __imp_?OnCommand@CWnd@@MAEHIJ@Z 1001d330     mfc42d:MFC42D.DLL
 0002:00000334       __imp_?EndModalLoop@CWnd@@UAEXH@Z 1001d334     mfc42d:MFC42D.DLL
 0002:00000338       __imp_?ContinueModal@CWnd@@UAEHXZ 1001d338     mfc42d:MFC42D.DLL
 0002:0000033c       __imp_?WinHelpA@CWnd@@UAEXKI@Z 1001d33c     mfc42d:MFC42D.DLL
 0002:00000340       __imp_?GetScrollBarCtrl@CWnd@@UBEPAVCScrollBar@@H@Z 1001d340     mfc42d:MFC42D.DLL
 0002:00000344       __imp_?OnToolHitTest@CWnd@@UBEHVCPoint@@PAUtagTOOLINFOA@@@Z 1001d344     mfc42d:MFC42D.DLL
 0002:00000348       __imp_?CalcWindowRect@CWnd@@UAEXPAUtagRECT@@I@Z 1001d348     mfc42d:MFC42D.DLL
 0002:0000034c       __imp_?PreCreateWindow@CWnd@@UAEHAAUtagCREATESTRUCTA@@@Z 1001d34c     mfc42d:MFC42D.DLL
 0002:00000350       __imp_?DestroyWindow@CWnd@@UAEHXZ 1001d350     mfc42d:MFC42D.DLL
 0002:00000354       __imp_?Create@CWnd@@UAEHPBD0KABUtagRECT@@PAV1@IPAUCCreateContext@@@Z 1001d354     mfc42d:MFC42D.DLL
 0002:00000358       __imp_?PreSubclassWindow@CWnd@@UAEXXZ 1001d358     mfc42d:MFC42D.DLL
 0002:0000035c       __imp_?GetConnectionHook@CCmdTarget@@MAEPAUIConnectionPoint@@ABU_GUID@@@Z 1001d35c     mfc42d:MFC42D.DLL
 0002:00000360       __imp_?GetExtraConnectionPoints@CCmdTarget@@MAEHPAVCPtrArray@@@Z 1001d360     mfc42d:MFC42D.DLL
 0002:00000364       __imp_?GetInterfaceHook@CCmdTarget@@UAEPAUIUnknown@@PBX@Z 1001d364     mfc42d:MFC42D.DLL
 0002:00000368       __imp_?OnCreateAggregates@CCmdTarget@@UAEHXZ 1001d368     mfc42d:MFC42D.DLL
 0002:0000036c       __imp_?GetEventSinkMap@CCmdTarget@@MBEPBUAFX_EVENTSINKMAP@@XZ 1001d36c     mfc42d:MFC42D.DLL
 0002:00000370       __imp_?GetInterfaceMap@CCmdTarget@@MBEPBUAFX_INTERFACEMAP@@XZ 1001d370     mfc42d:MFC42D.DLL
 0002:00000374       __imp_?GetConnectionMap@CCmdTarget@@MBEPBUAFX_CONNECTIONMAP@@XZ 1001d374     mfc42d:MFC42D.DLL
 0002:00000378       __imp_?GetDispatchMap@CCmdTarget@@MBEPBUAFX_DISPMAP@@XZ 1001d378     mfc42d:MFC42D.DLL
 0002:0000037c       __imp_?GetCommandMap@CCmdTarget@@MBEPBUAFX_OLECMDMAP@@XZ 1001d37c     mfc42d:MFC42D.DLL
 0002:00000380       __imp_?GetTypeLib@CCmdTarget@@UAEJKPAPAUITypeLib@@@Z 1001d380     mfc42d:MFC42D.DLL
 0002:00000384       __imp_?GetTypeLibCache@CCmdTarget@@UAEPAVCTypeLibCache@@XZ 1001d384     mfc42d:MFC42D.DLL
 0002:00000388       __imp_?GetTypeInfoCount@CCmdTarget@@UAEIXZ 1001d388     mfc42d:MFC42D.DLL
 0002:0000038c       __imp_?GetDispatchIID@CCmdTarget@@UAEHPAU_GUID@@@Z 1001d38c     mfc42d:MFC42D.DLL
 0002:00000390       __imp_?IsInvokeAllowed@CCmdTarget@@UAEHJ@Z 1001d390     mfc42d:MFC42D.DLL
 0002:00000394       __imp_?OnFinalRelease@CWnd@@UAEXXZ 1001d394     mfc42d:MFC42D.DLL
 0002:00000398       __imp_?OnCmdMsg@CCmdTarget@@UAEHIHPAXPAUAFX_CMDHANDLERINFO@@@Z 1001d398     mfc42d:MFC42D.DLL
 0002:0000039c       __imp_?Dump@CWnd@@UBEXAAVCDumpContext@@@Z 1001d39c     mfc42d:MFC42D.DLL
 0002:000003a0       __imp_?AssertValid@CWnd@@UBEXXZ 1001d3a0     mfc42d:MFC42D.DLL
 0002:000003a4       __imp_??1CWnd@@UAE@XZ      1001d3a4     mfc42d:MFC42D.DLL
 0002:000003a8       __imp_??0CWnd@@QAE@XZ      1001d3a8     mfc42d:MFC42D.DLL
 0002:000003ac       __imp_?CreateEx@CWnd@@QAEHKPBD0KHHHHPAUHWND__@@PAUHMENU__@@PAX@Z 1001d3ac     mfc42d:MFC42D.DLL
 0002:000003b0       __imp_??BCString@@QBEPBDXZ 1001d3b0     mfc42d:MFC42D.DLL
 0002:000003b4       __imp_?GetSafeHwnd@CWnd@@QBEPAUHWND__@@XZ 1001d3b4     mfc42d:MFC42D.DLL
 0002:000003b8       __imp_??0CString@@QAE@PBD@Z 1001d3b8     mfc42d:MFC42D.DLL
 0002:000003bc       __imp_?AfxRegisterWndClass@@YGPBDIPAUHICON__@@PAUHBRUSH__@@0@Z 1001d3bc     mfc42d:MFC42D.DLL
 0002:000003c0       __imp_?LoadStandardCursor@CWinApp@@QBEPAUHICON__@@PBD@Z 1001d3c0     mfc42d:MFC42D.DLL
 0002:000003c4       __imp_?AfxGetApp@@YGPAVCWinApp@@XZ 1001d3c4     mfc42d:MFC42D.DLL
 0002:000003c8       __imp_?AfxMessageBox@@YGHPBDII@Z 1001d3c8     mfc42d:MFC42D.DLL
 0002:000003cc       __imp_??1CPaintDC@@UAE@XZ  1001d3cc     mfc42d:MFC42D.DLL
 0002:000003d0       __imp_??1CPen@@UAE@XZ      1001d3d0     mfc42d:MFC42D.DLL
 0002:000003d4       __imp_??1CBrush@@UAE@XZ    1001d3d4     mfc42d:MFC42D.DLL
 0002:000003d8       __imp_?DeleteObject@CGdiObject@@QAEHXZ 1001d3d8     mfc42d:MFC42D.DLL
 0002:000003dc       __imp_?FillRect@CDC@@QAEXPBUtagRECT@@PAVCBrush@@@Z 1001d3dc     mfc42d:MFC42D.DLL
 0002:000003e0       __imp_?FromHandle@CBrush@@SGPAV1@PAUHBRUSH__@@@Z 1001d3e0     mfc42d:MFC42D.DLL
 0002:000003e4       __imp_?GetClientRect@CWnd@@QBEXPAUtagRECT@@@Z 1001d3e4     mfc42d:MFC42D.DLL
 0002:000003e8       \177MFC42D_NULL_THUNK_DATA 1001d3e8     mfc42d:MFC42D.DLL
 0002:000003ec       __imp__sqrt                1001d3ec     msvcrtd:MSVCRTD.dll
 0002:000003f0       __imp___adjust_fdiv        1001d3f0     msvcrtd:MSVCRTD.dll
 0002:000003f4       __imp___malloc_dbg         1001d3f4     msvcrtd:MSVCRTD.dll
 0002:000003f8       __imp___initterm           1001d3f8     msvcrtd:MSVCRTD.dll
 0002:000003fc       __imp___free_dbg           1001d3fc     msvcrtd:MSVCRTD.dll
 0002:00000400       __imp___onexit             1001d400     msvcrtd:MSVCRTD.dll
 0002:00000404       __imp____dllonexit         1001d404     msvcrtd:MSVCRTD.dll
 0002:00000408       __imp_?terminate@@YAXXZ    1001d408     msvcrtd:MSVCRTD.dll
 0002:0000040c       __imp___except_handler3    1001d40c     msvcrtd:MSVCRTD.dll
 0002:00000410       __imp__malloc              1001d410     msvcrtd:MSVCRTD.dll
 0002:00000414       __imp__memcpy              1001d414     msvcrtd:MSVCRTD.dll
 0002:00000418       __imp__free                1001d418     msvcrtd:MSVCRTD.dll
 0002:0000041c       __imp__memset              1001d41c     msvcrtd:MSVCRTD.dll
 0002:00000420       __imp____CxxFrameHandler   1001d420     msvcrtd:MSVCRTD.dll
 0002:00000424       \177MSVCRTD_NULL_THUNK_DATA 1001d424     msvcrtd:MSVCRTD.dll
 0002:00000428       __imp_?GetRuntimeClass@CTriangle@@UBEPAUCRuntimeClass@@XZ 1001d428     OGen_D32:OGEN_D32.dll
 0002:0000042c       \177OGEN_D32_NULL_THUNK_DATA 1001d42c     OGen_D32:OGEN_D32.dll
 0002:00000430       __imp_?GetSpecObject@CObjectMgr@@QAEPAVCDrObject@@H@Z 1001d430     OMgr_D32:OMgr_D32.dll
 0002:00000434       \177OMgr_D32_NULL_THUNK_DATA 1001d434     OMgr_D32:OMgr_D32.dll
 0002:00000438       __imp_?SetObjectInfo@CScaleFactor@@UAEXPAVCDrObject@@@Z 1001d438     Spec_D32:Spec_D32.dll
 0002:0000043c       __imp_?ReadDefaultScaleFactor@CScaleFactor@@UAEXXZ 1001d43c     Spec_D32:Spec_D32.dll
 0002:00000440       __imp_?InitScaleFactor@CScaleFactor@@UAEXXZ 1001d440     Spec_D32:Spec_D32.dll
 0002:00000444       __imp_?GetRuntimeClass@CPrecision@@UBEPAUCRuntimeClass@@XZ 1001d444     Spec_D32:Spec_D32.dll
 0002:00000448       __imp_?Serialize@CPrecision@@UAEXAAVCArchive@@@Z 1001d448     Spec_D32:Spec_D32.dll
 0002:0000044c       __imp_?DoDataView@CPrecision@@UAEXPAVCDC@@H@Z 1001d44c     Spec_D32:Spec_D32.dll
 0002:00000450       __imp_?Pack_drPipe@CPrecision@@UAEXPAVCString@@@Z 1001d450     Spec_D32:Spec_D32.dll
 0002:00000454       __imp_?GetObjectInfo@CPrecision@@UAEXPAVCDrObject@@@Z 1001d454     Spec_D32:Spec_D32.dll
 0002:00000458       __imp_?SetObjectInfo@CPrecision@@UAEXPAVCDrObject@@@Z 1001d458     Spec_D32:Spec_D32.dll
 0002:0000045c       __imp_?ReadDefaultPrecision@CPrecision@@UAEXXZ 1001d45c     Spec_D32:Spec_D32.dll
 0002:00000460       __imp_?InitPrecision@CPrecision@@UAEXXZ 1001d460     Spec_D32:Spec_D32.dll
 0002:00000464       __imp_?GetRuntimeClass@CMapFactor@@UBEPAUCRuntimeClass@@XZ 1001d464     Spec_D32:Spec_D32.dll
 0002:00000468       __imp_?Serialize@CMapFactor@@UAEXAAVCArchive@@@Z 1001d468     Spec_D32:Spec_D32.dll
 0002:0000046c       __imp_?DoDataView@CMapFactor@@UAEXPAVCDC@@H@Z 1001d46c     Spec_D32:Spec_D32.dll
 0002:00000470       __imp_?Pack_drPipe@CMapFactor@@UAEXPAVCString@@@Z 1001d470     Spec_D32:Spec_D32.dll
 0002:00000474       __imp_?GetObjectInfo@CMapFactor@@UAEXPAVCDrObject@@@Z 1001d474     Spec_D32:Spec_D32.dll
 0002:00000478       __imp_?SetObjectInfo@CMapFactor@@UAEXPAVCDrObject@@@Z 1001d478     Spec_D32:Spec_D32.dll
 0002:0000047c       __imp_?ReadDefaultMapFactor@CMapFactor@@UAEXXZ 1001d47c     Spec_D32:Spec_D32.dll
 0002:00000480       __imp_?InitMapFactor@CMapFactor@@UAEXXZ 1001d480     Spec_D32:Spec_D32.dll
 0002:00000484       __imp_?GetRuntimeClass@CObj3DMnu@@UBEPAUCRuntimeClass@@XZ 1001d484     Spec_D32:Spec_D32.dll
 0002:00000488       __imp_?Serialize@CObj3DMnu@@UAEXAAVCArchive@@@Z 1001d488     Spec_D32:Spec_D32.dll
 0002:0000048c       __imp_?DoDataView@CObj3DMnu@@UAEXPAVCDC@@H@Z 1001d48c     Spec_D32:Spec_D32.dll
 0002:00000490       __imp_?Pack_drPipe@CObj3DMnu@@UAEXPAVCString@@@Z 1001d490     Spec_D32:Spec_D32.dll
 0002:00000494       __imp_?GetObjectInfo@CObj3DMnu@@UAEXPAVCDrObject@@@Z 1001d494     Spec_D32:Spec_D32.dll
 0002:00000498       __imp_?SetObjectInfo@CObj3DMnu@@UAEXPAVCDrObject@@@Z 1001d498     Spec_D32:Spec_D32.dll
 0002:0000049c       __imp_?GetObj3DMnuInfo@CObj3DMnu@@UAE?AVCString@@I@Z 1001d49c     Spec_D32:Spec_D32.dll
 0002:000004a0       __imp_?SetObj3DMnuInfo@CObj3DMnu@@UAEXII@Z 1001d4a0     Spec_D32:Spec_D32.dll
 0002:000004a4       __imp_?GetObj3DMnuIDArray@CObj3DMnu@@UAEXQAVCString@@@Z 1001d4a4     Spec_D32:Spec_D32.dll
 0002:000004a8       __imp_?SetObj3DMnuIDArray@CObj3DMnu@@UAEXQAVCString@@@Z 1001d4a8     Spec_D32:Spec_D32.dll
 0002:000004ac       __imp_?GetObj3DMnuArray@CObj3DMnu@@UAEXQAY01I@Z 1001d4ac     Spec_D32:Spec_D32.dll
 0002:000004b0       __imp_?SetObj3DMnuArray@CObj3DMnu@@UAEXQAY01I@Z 1001d4b0     Spec_D32:Spec_D32.dll
 0002:000004b4       __imp_?GetObj3DMnuOldArray@CObj3DMnu@@UAEXQAY01I@Z 1001d4b4     Spec_D32:Spec_D32.dll
 0002:000004b8       __imp_?SetObj3DMnuOldArray@CObj3DMnu@@UAEXQAY01I@Z 1001d4b8     Spec_D32:Spec_D32.dll
 0002:000004bc       __imp_?GetObj3DMnuDefaultArray@CObj3DMnu@@UAEXQAY01I@Z 1001d4bc     Spec_D32:Spec_D32.dll
 0002:000004c0       __imp_?SetObj3DMnuDefaultArray@CObj3DMnu@@UAEXQAY01I@Z 1001d4c0     Spec_D32:Spec_D32.dll
 0002:000004c4       __imp_?ReadDefaultObj3DMnu@CObj3DMnu@@UAEXXZ 1001d4c4     Spec_D32:Spec_D32.dll
 0002:000004c8       __imp_?InitObj3DMnu@CObj3DMnu@@UAEXXZ 1001d4c8     Spec_D32:Spec_D32.dll
 0002:000004cc       __imp_?GetRuntimeClass@CPatchMnu@@UBEPAUCRuntimeClass@@XZ 1001d4cc     Spec_D32:Spec_D32.dll
 0002:000004d0       __imp_?Serialize@CPatchMnu@@UAEXAAVCArchive@@@Z 1001d4d0     Spec_D32:Spec_D32.dll
 0002:000004d4       __imp_?DoDataView@CPatchMnu@@UAEXPAVCDC@@H@Z 1001d4d4     Spec_D32:Spec_D32.dll
 0002:000004d8       __imp_?Pack_drPipe@CPatchMnu@@UAEXPAVCString@@@Z 1001d4d8     Spec_D32:Spec_D32.dll
 0002:000004dc       __imp_?GetObjectInfo@CPatchMnu@@UAEXPAVCDrObject@@@Z 1001d4dc     Spec_D32:Spec_D32.dll
 0002:000004e0       __imp_?SetObjectInfo@CPatchMnu@@UAEXPAVCDrObject@@@Z 1001d4e0     Spec_D32:Spec_D32.dll
 0002:000004e4       __imp_?GetPatchMnuInfo@CPatchMnu@@UAE?AVCString@@I@Z 1001d4e4     Spec_D32:Spec_D32.dll
 0002:000004e8       __imp_?SetPatchMnuInfo@CPatchMnu@@UAEXII@Z 1001d4e8     Spec_D32:Spec_D32.dll
 0002:000004ec       __imp_?GetPatchMnuIDArray@CPatchMnu@@UAEXQAVCString@@@Z 1001d4ec     Spec_D32:Spec_D32.dll
 0002:000004f0       __imp_?SetPatchMnuIDArray@CPatchMnu@@UAEXQAVCString@@@Z 1001d4f0     Spec_D32:Spec_D32.dll
 0002:000004f4       __imp_?GetPatchMnuArray@CPatchMnu@@UAEXQAY01I@Z 1001d4f4     Spec_D32:Spec_D32.dll
 0002:000004f8       __imp_?SetPatchMnuArray@CPatchMnu@@UAEXQAY01I@Z 1001d4f8     Spec_D32:Spec_D32.dll
 0002:000004fc       __imp_?GetPatchMnuOldArray@CPatchMnu@@UAEXQAY01I@Z 1001d4fc     Spec_D32:Spec_D32.dll
 0002:00000500       __imp_?DoDataView@CScaleFactor@@UAEXPAVCDC@@H@Z 1001d500     Spec_D32:Spec_D32.dll
 0002:00000504       __imp_?GetPatchMnuDefaultArray@CPatchMnu@@UAEXQAY01I@Z 1001d504     Spec_D32:Spec_D32.dll
 0002:00000508       __imp_?SetPatchMnuDefaultArray@CPatchMnu@@UAEXQAY01I@Z 1001d508     Spec_D32:Spec_D32.dll
 0002:0000050c       __imp_?ReadDefaultPatchMnu@CPatchMnu@@UAEXXZ 1001d50c     Spec_D32:Spec_D32.dll
 0002:00000510       __imp_?InitPatchMnu@CPatchMnu@@UAEXXZ 1001d510     Spec_D32:Spec_D32.dll
 0002:00000514       __imp_?GetRuntimeClass@CLayer@@UBEPAUCRuntimeClass@@XZ 1001d514     Spec_D32:Spec_D32.dll
 0002:00000518       __imp_?Serialize@CLayer@@UAEXAAVCArchive@@@Z 1001d518     Spec_D32:Spec_D32.dll
 0002:0000051c       __imp_?GetObjectInfo@CScaleFactor@@UAEXPAVCDrObject@@@Z 1001d51c     Spec_D32:Spec_D32.dll
 0002:00000520       __imp_?Pack_drPipe@CLayer@@UAEXPAVCString@@@Z 1001d520     Spec_D32:Spec_D32.dll
 0002:00000524       __imp_?GetObjectInfo@CLayer@@UAEXPAVCDrObject@@@Z 1001d524     Spec_D32:Spec_D32.dll
 0002:00000528       __imp_?SetObjectInfo@CLayer@@UAEXPAVCDrObject@@@Z 1001d528     Spec_D32:Spec_D32.dll
 0002:0000052c       __imp_?GetLayerInfo@CLayer@@UAE?AVCString@@I@Z 1001d52c     Spec_D32:Spec_D32.dll
 0002:00000530       __imp_?SetLayerInfo@CLayer@@UAEXII@Z 1001d530     Spec_D32:Spec_D32.dll
 0002:00000534       __imp_?GetLayerArray@CLayer@@UAEXQAY01I@Z 1001d534     Spec_D32:Spec_D32.dll
 0002:00000538       __imp_?SetLayerArray@CLayer@@UAEXQAY01I@Z 1001d538     Spec_D32:Spec_D32.dll
 0002:0000053c       __imp_?GetLayerOldArray@CLayer@@UAEXQAY01I@Z 1001d53c     Spec_D32:Spec_D32.dll
 0002:00000540       __imp_?SetLayerOldArray@CLayer@@UAEXQAY01I@Z 1001d540     Spec_D32:Spec_D32.dll
 0002:00000544       __imp_?GetLayerDefaultArray@CLayer@@UAEXQAY01I@Z 1001d544     Spec_D32:Spec_D32.dll
 0002:00000548       __imp_?SetLayerDefaultArray@CLayer@@UAEXQAY01I@Z 1001d548     Spec_D32:Spec_D32.dll
 0002:0000054c       __imp_?ReadDefaultLayer@CLayer@@UAEXXZ 1001d54c     Spec_D32:Spec_D32.dll
 0002:00000550       __imp_?InitLayer@CLayer@@UAEXXZ 1001d550     Spec_D32:Spec_D32.dll
 0002:00000554       __imp_?GetRuntimeClass@CHitNet@@UBEPAUCRuntimeClass@@XZ 1001d554     Spec_D32:Spec_D32.dll
 0002:00000558       __imp_?Serialize@CHitNet@@UAEXAAVCArchive@@@Z 1001d558     Spec_D32:Spec_D32.dll
 0002:0000055c       __imp_?DoDataView@CHitNet@@UAEXPAVCDC@@H@Z 1001d55c     Spec_D32:Spec_D32.dll
 0002:00000560       __imp_?Pack_drPipe@CHitNet@@UAEXPAVCString@@@Z 1001d560     Spec_D32:Spec_D32.dll
 0002:00000564       __imp_?GetObjectInfo@CHitNet@@UAEXPAVCDrObject@@@Z 1001d564     Spec_D32:Spec_D32.dll
 0002:00000568       __imp_?SetObjectInfo@CHitNet@@UAEXPAVCDrObject@@@Z 1001d568     Spec_D32:Spec_D32.dll
 0002:0000056c       __imp_?GetRuntimeClass@CDrPen@@UBEPAUCRuntimeClass@@XZ 1001d56c     Spec_D32:Spec_D32.dll
 0002:00000570       __imp_?Serialize@CDrPen@@UAEXAAVCArchive@@@Z 1001d570     Spec_D32:Spec_D32.dll
 0002:00000574       __imp_?DoDataView@CDrPen@@UAEXPAVCDC@@H@Z 1001d574     Spec_D32:Spec_D32.dll
 0002:00000578       __imp_?Pack_drPipe@CDrPen@@UAEXPAVCString@@@Z 1001d578     Spec_D32:Spec_D32.dll
 0002:0000057c       __imp_?GetObjectInfo@CDrPen@@UAEXPAVCDrObject@@@Z 1001d57c     Spec_D32:Spec_D32.dll
 0002:00000580       __imp_?SetObjectInfo@CDrPen@@UAEXPAVCDrObject@@@Z 1001d580     Spec_D32:Spec_D32.dll
 0002:00000584       __imp_?ReplacePen@CDrPen@@UAEXXZ 1001d584     Spec_D32:Spec_D32.dll
 0002:00000588       __imp_?ReadDefaultDrPen@CDrPen@@UAEXXZ 1001d588     Spec_D32:Spec_D32.dll
 0002:0000058c       __imp_?InitDrPen@CDrPen@@UAEXXZ 1001d58c     Spec_D32:Spec_D32.dll
 0002:00000590       __imp_?GetRuntimeClass@CDrFont@@UBEPAUCRuntimeClass@@XZ 1001d590     Spec_D32:Spec_D32.dll
 0002:00000594       __imp_?Serialize@CDrFont@@UAEXAAVCArchive@@@Z 1001d594     Spec_D32:Spec_D32.dll
 0002:00000598       __imp_?DoDataView@CDrFont@@UAEXPAVCDC@@H@Z 1001d598     Spec_D32:Spec_D32.dll
 0002:0000059c       __imp_?Pack_drPipe@CDrFont@@UAEXPAVCString@@@Z 1001d59c     Spec_D32:Spec_D32.dll
 0002:000005a0       __imp_?GetObjectInfo@CDrFont@@UAEXPAVCDrObject@@@Z 1001d5a0     Spec_D32:Spec_D32.dll
 0002:000005a4       __imp_?SetObjectInfo@CDrFont@@UAEXPAVCDrObject@@@Z 1001d5a4     Spec_D32:Spec_D32.dll
 0002:000005a8       __imp_?DoTextFont@CDrFont@@UAEXXZ 1001d5a8     Spec_D32:Spec_D32.dll
 0002:000005ac       __imp_?ReadDefaultDrFont@CDrFont@@UAEXXZ 1001d5ac     Spec_D32:Spec_D32.dll
 0002:000005b0       __imp_?InitDrFont@CDrFont@@UAEXXZ 1001d5b0     Spec_D32:Spec_D32.dll
 0002:000005b4       __imp_?GetRuntimeClass@CDataWindow@@UBEPAUCRuntimeClass@@XZ 1001d5b4     Spec_D32:Spec_D32.dll
 0002:000005b8       __imp_?Serialize@CDataWindow@@UAEXAAVCArchive@@@Z 1001d5b8     Spec_D32:Spec_D32.dll
 0002:000005bc       __imp_?DoDataView@CDataWindow@@UAEXPAVCDC@@H@Z 1001d5bc     Spec_D32:Spec_D32.dll
 0002:000005c0       __imp_?Pack_drPipe@CDataWindow@@UAEXPAVCString@@@Z 1001d5c0     Spec_D32:Spec_D32.dll
 0002:000005c4       __imp_?GetObjectInfo@CDataWindow@@UAEXPAVCDrObject@@@Z 1001d5c4     Spec_D32:Spec_D32.dll
 0002:000005c8       __imp_?SetObjectInfo@CDataWindow@@UAEXPAVCDrObject@@@Z 1001d5c8     Spec_D32:Spec_D32.dll
 0002:000005cc       __imp_?SetWinMinMaxWIC@CDataWindow@@UAEXULPOINT3@@@Z 1001d5cc     Spec_D32:Spec_D32.dll
 0002:000005d0       __imp_?SetWinExtWIC@CDataWindow@@UAEXXZ 1001d5d0     Spec_D32:Spec_D32.dll
 0002:000005d4       __imp_?ReadDefaultDataWindow@CDataWindow@@UAEXXZ 1001d5d4     Spec_D32:Spec_D32.dll
 0002:000005d8       __imp_?Serialize@CScaleFactor@@UAEXAAVCArchive@@@Z 1001d5d8     Spec_D32:Spec_D32.dll
 0002:000005dc       __imp_?GetRuntimeClass@CScaleFactor@@UBEPAUCRuntimeClass@@XZ 1001d5dc     Spec_D32:Spec_D32.dll
 0002:000005e0       __imp_?InitUnit@CUnit@@UAEXXZ 1001d5e0     Spec_D32:Spec_D32.dll
 0002:000005e4       __imp_?ReadDefaultUnit@CUnit@@UAEXXZ 1001d5e4     Spec_D32:Spec_D32.dll
 0002:000005e8       __imp_?SetObjectInfo@CUnit@@UAEXPAVCDrObject@@@Z 1001d5e8     Spec_D32:Spec_D32.dll
 0002:000005ec       __imp_?GetObjectInfo@CUnit@@UAEXPAVCDrObject@@@Z 1001d5ec     Spec_D32:Spec_D32.dll
 0002:000005f0       __imp_?Pack_drPipe@CUnit@@UAEXPAVCString@@@Z 1001d5f0     Spec_D32:Spec_D32.dll
 0002:000005f4       __imp_?DoDataView@CUnit@@UAEXPAVCDC@@H@Z 1001d5f4     Spec_D32:Spec_D32.dll
 0002:000005f8       __imp_?Serialize@CUnit@@UAEXAAVCArchive@@@Z 1001d5f8     Spec_D32:Spec_D32.dll
 0002:000005fc       __imp_?GetRuntimeClass@CUnit@@UBEPAUCRuntimeClass@@XZ 1001d5fc     Spec_D32:Spec_D32.dll
 0002:00000600       __imp_??1CDListMgr@@UAE@XZ 1001d600     Spec_D32:Spec_D32.dll
 0002:00000604       __imp_?DoDataView@CLayer@@UAEXPAVCDC@@H@Z 1001d604     Spec_D32:Spec_D32.dll
 0002:00000608       __imp_?Pack_drPipe@CScaleFactor@@UAEXPAVCString@@@Z 1001d608     Spec_D32:Spec_D32.dll
 0002:0000060c       __imp_?SetPatchMnuOldArray@CPatchMnu@@UAEXQAY01I@Z 1001d60c     Spec_D32:Spec_D32.dll
 0002:00000610       __imp_?InitDataWindow@CDataWindow@@UAEXXZ 1001d610     Spec_D32:Spec_D32.dll
 0002:00000614       __imp_?GetRuntimeClass@CBooleans@@UBEPAUCRuntimeClass@@XZ 1001d614     Spec_D32:Spec_D32.dll
 0002:00000618       __imp_?Serialize@CBooleans@@UAEXAAVCArchive@@@Z 1001d618     Spec_D32:Spec_D32.dll
 0002:0000061c       __imp_?DoDataView@CBooleans@@UAEXPAVCDC@@H@Z 1001d61c     Spec_D32:Spec_D32.dll
 0002:00000620       __imp_?Pack_drPipe@CBooleans@@UAEXPAVCString@@@Z 1001d620     Spec_D32:Spec_D32.dll
 0002:00000624       __imp_?GetObjectInfo@CBooleans@@UAEXPAVCDrObject@@@Z 1001d624     Spec_D32:Spec_D32.dll
 0002:00000628       __imp_?SetScreen3DCorner@CDrObject@@UAEXPAUWORLD@@H@Z 1001d628     Spec_D32:Spec_D32.dll
 0002:0000062c       __imp_?GetScreen3DCorner@CDrObject@@UAEXPAUWORLD@@H@Z 1001d62c     Spec_D32:Spec_D32.dll
 0002:00000630       __imp_?SetEyeCorner@CDrObject@@UAEXPAUWORLD@@H@Z 1001d630     Spec_D32:Spec_D32.dll
 0002:00000634       __imp_?GetEyeCorner@CDrObject@@UAEXPAUWORLD@@H@Z 1001d634     Spec_D32:Spec_D32.dll
 0002:00000638       __imp_?SetWorldCorner@CDrObject@@UAEXPAUWORLD@@H@Z 1001d638     Spec_D32:Spec_D32.dll
 0002:0000063c       __imp_?GetWorldCorner@CDrObject@@UAEXPAUWORLD@@H@Z 1001d63c     Spec_D32:Spec_D32.dll
 0002:00000640       __imp_?SetLocalCorner@CDrObject@@UAEXPAUWORLD@@H@Z 1001d640     Spec_D32:Spec_D32.dll
 0002:00000644       __imp_?GetLocalCorner@CDrObject@@UAEXPAUWORLD@@H@Z 1001d644     Spec_D32:Spec_D32.dll
 0002:00000648       __imp_?SetObjectInfo@CBooleans@@UAEXPAVCDrObject@@@Z 1001d648     Spec_D32:Spec_D32.dll
 0002:0000064c       __imp_?IsZoomEnabled@CBooleans@@UAEHH@Z 1001d64c     Spec_D32:Spec_D32.dll
 0002:00000650       __imp_?SetZoomEnabled@CBooleans@@UAEXHH@Z 1001d650     Spec_D32:Spec_D32.dll
 0002:00000654       __imp_?IsZoomOn@CBooleans@@UAEHHH@Z 1001d654     Spec_D32:Spec_D32.dll
 0002:00000658       __imp_?ToggleZoom@CBooleans@@UAEHHH@Z 1001d658     Spec_D32:Spec_D32.dll
 0002:0000065c       __imp_?ReadDefaultBooleans@CBooleans@@UAEXXZ 1001d65c     Spec_D32:Spec_D32.dll
 0002:00000660       __imp_?InitBooleans@CBooleans@@UAEXXZ 1001d660     Spec_D32:Spec_D32.dll
 0002:00000664       __imp_??1CDrObject@@UAE@XZ 1001d664     Spec_D32:Spec_D32.dll
 0002:00000668       __imp_?GetRuntimeClass@CMatObj@@UBEPAUCRuntimeClass@@XZ 1001d668     Spec_D32:Spec_D32.dll
 0002:0000066c       \177Spec_D32_NULL_THUNK_DATA 1001d66c     Spec_D32:Spec_D32.dll
 0002:00000670       __imp__GetDC@4             1001d670     user32:USER32.dll
 0002:00000674       __imp__ReleaseDC@8         1001d674     user32:USER32.dll
 0002:00000678       __imp__GetSysColor@4       1001d678     user32:USER32.dll
 0002:0000067c       __imp__LoadCursorA@8       1001d67c     user32:USER32.dll
 0002:00000680       __imp__ReleaseCapture@0    1001d680     user32:USER32.dll
 0002:00000684       __imp__GetClassInfoA@12    1001d684     user32:USER32.dll
 0002:00000688       __imp__RegisterClassA@4    1001d688     user32:USER32.dll
 0002:0000068c       \177USER32_NULL_THUNK_DATA 1001d68c     user32:USER32.dll
 0002:000006b0       ?messageMap@CBoxWnd@@1UAFX_MSGMAP@@B 1001d6b0     BoxWnd.obj
 0002:000006b8       ?_messageEntries@CBoxWnd@@0QBUAFX_MSGMAP_ENTRY@@B 1001d6b8     BoxWnd.obj
 0002:000006e8       ?classCBoxWnd@CBoxWnd@@2UCRuntimeClass@@B 1001d6e8     BoxWnd.obj
 0002:00000700       ??_C@_07ICEG@CBoxWnd?$AA@  1001d700     BoxWnd.obj
 0002:00000708       ??_7C3DMath@@6B@           1001d708     BoxWnd.obj
 0002:0000071c       ??_7CMatObj@@6B@           1001d71c     BoxWnd.obj
 0002:000007f8       ??_7CDrLabel@@6B@          1001d7f8     BoxWnd.obj
 0002:00000990       ??_7CTriangle@@6B@         1001d990     BoxWnd.obj
 0002:00000a0c       ??_7CBoxWnd@@6B@           1001da0c     BoxWnd.obj
 0002:00000acc       ??_C@_0CD@GBIJ@CBoxWnd?3?3GetToolNum?5index?5Overfl@ 1001dacc     BoxWnd.obj
 0002:00000af0       ??_7?$CList@HH@@6B@        1001daf0     BoxWnd.obj
 0002:00000b04       ??_C@_01BJG@?6?$AA@        1001db04     BoxWnd.obj
 0002:00000b08       ??_C@_05KIFI@with?5?$AA@   1001db08     BoxWnd.obj
 0002:00000b10       ??_C@_09LOPF@?5elements?$AA@ 1001db10     BoxWnd.obj
 0002:00000b20       ?classCSuperButton@CSuperButton@@2UCRuntimeClass@@B 1001db20     Colorsqu.obj
 0002:00000b38       ?messageMap@CCustomColor@@1UAFX_MSGMAP@@B 1001db38     Colorsqu.obj
 0002:00000b40       ?_messageEntries@CCustomColor@@0QBUAFX_MSGMAP_ENTRY@@B 1001db40     Colorsqu.obj
 0002:00000bb8       ?classCCustomColor@CCustomColor@@2UCRuntimeClass@@B 1001dbb8     Colorsqu.obj
 0002:00000bd0       ?messageMap@CColorSquare@@1UAFX_MSGMAP@@B 1001dbd0     Colorsqu.obj
 0002:00000bd8       ?_messageEntries@CColorSquare@@0QBUAFX_MSGMAP_ENTRY@@B 1001dbd8     Colorsqu.obj
 0002:00000c68       ?classCColorSquare@CColorSquare@@2UCRuntimeClass@@B 1001dc68     Colorsqu.obj
 0002:00000c80       ??_C@_0N@FPGC@CColorSquare?$AA@ 1001dc80     Colorsqu.obj
 0002:00000c90       ??_C@_0N@BMH@CCustomColor?$AA@ 1001dc90     Colorsqu.obj
 0002:00000ca0       ??_C@_0N@ONFJ@CSuperButton?$AA@ 1001dca0     Colorsqu.obj
 0002:00000cb0       ??_7CSuperButton@@6B@      1001dcb0     Colorsqu.obj
 0002:00000d74       ??_C@_0M@CBMF@SuperButton?$AA@ 1001dd74     Colorsqu.obj
 0002:00000d80       ??_7CCustomColor@@6B@      1001dd80     Colorsqu.obj
 0002:00000e40       ??_C@_0L@CGE@CustomBack?$AA@ 1001de40     Colorsqu.obj
 0002:00000e4c       ??_C@_0L@DMCH@CustomFore?$AA@ 1001de4c     Colorsqu.obj
 0002:00000e58       ??_C@_0BP@LIAE@Couldnot?5Register?3?5SuperButton?$AA@ 1001de58     Colorsqu.obj
 0002:00000e78       ??_C@_0BP@CGII@Couldnot?5get?5classInfo?3?5Button?$AA@ 1001de78     Colorsqu.obj
 0002:00000e98       ??_C@_06LPKL@button?$AA@   1001de98     Colorsqu.obj
 0002:00000ea0       ??_7CColorSquare@@6B@      1001dea0     Colorsqu.obj
 0002:00000f60       ??_C@_04HHIJ@MOVE?$AA@     1001df60     Dboxdll.obj
 0002:00000f68       ??_C@_04IGNI@EDIT?$AA@     1001df68     Dboxdll.obj
 0002:00000f70       ??_C@_05LGBJ@BRUSH?$AA@    1001df70     Dboxdll.obj
 0002:00000f78       ??_C@_06JLDH@DRFONT?$AA@   1001df78     Dboxdll.obj
 0002:00000f80       ??_C@_09OGKP@DIMENSION?$AA@ 1001df80     Dboxdll.obj
 0002:00000f8c       ??_C@_0M@FBCA@ZOOM_SELECT?$AA@ 1001df8c     Dboxdll.obj
 0002:00000f98       ??_C@_04KIBB@GRID?$AA@     1001df98     Dboxdll.obj
 0002:00000fa0       ??_C@_04GBFB@LINE?$AA@     1001dfa0     Dboxdll.obj
 0002:00000fa8       ??_C@_0O@EJFP@CIRCLE_HOLLOW?$AA@ 1001dfa8     Dboxdll.obj
 0002:00000fb8       ??_C@_0M@EJJ@CIRCLE_FILL?$AA@ 1001dfb8     Dboxdll.obj
 0002:00000fc4       ??_C@_0N@FBKD@RRECT_HOLLOW?$AA@ 1001dfc4     Dboxdll.obj
 0002:00000fd4       ??_C@_0L@EIIJ@RRECT_FILL?$AA@ 1001dfd4     Dboxdll.obj
 0002:00000fe0       ??_C@_0M@COHN@RECT_HOLLOW?$AA@ 1001dfe0     Dboxdll.obj
 0002:00000fec       ??_C@_09FLLL@RECT_FILL?$AA@ 1001dfec     Dboxdll.obj
 0002:00000ff8       ??_C@_08OGKN@FREEHAND?$AA@ 1001dff8     Dboxdll.obj
 0002:00001004       ??_C@_05GFDK@LABEL?$AA@    1001e004     Dboxdll.obj
 0002:0000100c       ??_C@_0M@FOIL@SHEAR?5Solid?$AA@ 1001e00c     Dboxdll.obj
 0002:00001018       ??_C@_0O@LBHC@REFLECT?5Solid?$AA@ 1001e018     Dboxdll.obj
 0002:00001028       ??_C@_0M@LAKN@SCALE?5Solid?$AA@ 1001e028     Dboxdll.obj
 0002:00001034       ??_C@_0BA@IIN@TRANSLATE?5Solid?$AA@ 1001e034     Dboxdll.obj
 0002:00001044       ??_C@_0N@JDI@ROTATE?5Solid?$AA@ 1001e044     Dboxdll.obj
 0002:00001054       ??_C@_0M@MADC@SPAWN?5Solid?$AA@ 1001e054     Dboxdll.obj
 0002:00001060       ??_C@_0O@OPAJ@STITCH?5Solids?$AA@ 1001e060     Dboxdll.obj
 0002:00001070       ??_C@_0N@LBJI@DELETE?5Solid?$AA@ 1001e070     Dboxdll.obj
 0002:00001080       ??_C@_0N@HNNM@UNPOST?5Solid?$AA@ 1001e080     Dboxdll.obj
 0002:00001090       ??_C@_0L@ILDJ@POST?5Solid?$AA@ 1001e090     Dboxdll.obj
 0002:0000109c       ??_C@_0L@BGJP@MOVE?5Solid?$AA@ 1001e09c     Dboxdll.obj
 0002:000010a8       ??_C@_0L@MAIP@EDIT?5Solid?$AA@ 1001e0a8     Dboxdll.obj
 0002:000010b4       ??_C@_0BA@ICEA@OPERATION?5Solid?$AA@ 1001e0b4     Dboxdll.obj
 0002:000010c4       ??_C@_0L@NNNI@NURB?5Solid?$AA@ 1001e0c4     Dboxdll.obj
 0002:000010d0       ??_C@_0P@CILJ@B?9SPLINE?5Solid?$AA@ 1001e0d0     Dboxdll.obj
 0002:000010e0       ??_C@_0N@PAFK@BEZIER?5Solid?$AA@ 1001e0e0     Dboxdll.obj
 0002:000010f0       ??_C@_0M@NMJ@CUBIC?5Solid?$AA@ 1001e0f0     Dboxdll.obj
 0002:000010fc       ??_C@_0BA@JCFD@QUADRATIC?5Solid?$AA@ 1001e0fc     Dboxdll.obj
 0002:0000110c       ??_C@_0N@PFMG@LINEAR?5Solid?$AA@ 1001e10c     Dboxdll.obj
 0002:0000111c       ??_C@_0L@DPM@FLAT?5Solid?$AA@ 1001e11c     Dboxdll.obj
 0002:00001128       ??_C@_0M@FOEI@SWEPT?5Solid?$AA@ 1001e128     Dboxdll.obj
 0002:00001134       ??_C@_0N@MKKB@DUCTED?5Solid?$AA@ 1001e134     Dboxdll.obj
 0002:00001144       ??_C@_0P@IKAJ@EXTRUDED?5Solid?$AA@ 1001e144     Dboxdll.obj
 0002:00001154       ??_C@_0N@DMKD@LOFTED?5Solid?$AA@ 1001e154     Dboxdll.obj
 0002:00001164       ??_C@_0O@JLO@ROTATED?5Solid?$AA@ 1001e164     Dboxdll.obj
 0002:00001174       ??_C@_0M@FIMB@COONS?5Solid?$AA@ 1001e174     Dboxdll.obj
 0002:00001180       ??_C@_0O@NPP@GORDONS?5Solid?$AA@ 1001e180     Dboxdll.obj
 0002:00001190       ??_C@_0N@OCNK@TENSOR?5Solid?$AA@ 1001e190     Dboxdll.obj
 0002:000011a0       ??_C@_05DEEH@SOLID?$AA@    1001e1a0     Dboxdll.obj
 0002:000011a8       ??_C@_0O@FCLK@Patch?5PROFILE?$AA@ 1001e1a8     Dboxdll.obj
 0002:000011b8       ??_C@_0M@JMKC@SHEAR?5Patch?$AA@ 1001e1b8     Dboxdll.obj
 0002:000011c4       ??_C@_0M@HCIE@SCALE?5Patch?$AA@ 1001e1c4     Dboxdll.obj
 0002:000011d0       ??_C@_0BA@MKKE@TRANSLATE?5Patch?$AA@ 1001e1d0     Dboxdll.obj
 0002:000011e0       ??_C@_0N@MLBB@ROTATE?5Patch?$AA@ 1001e1e0     Dboxdll.obj
 0002:000011f0       ??_C@_0M@CBL@SPAWN?5Patch?$AA@ 1001e1f0     Dboxdll.obj
 0002:000011fc       ??_C@_0P@BLIL@STITCH?5Patches?$AA@ 1001e1fc     Dboxdll.obj
 0002:0000120c       ??_C@_0N@HDLB@DELETE?5Patch?$AA@ 1001e20c     Dboxdll.obj
 0002:0000121c       ??_C@_0N@LPPF@UNPOST?5Patch?$AA@ 1001e21c     Dboxdll.obj
 0002:0000122c       ??_C@_0L@EJBA@POST?5Patch?$AA@ 1001e22c     Dboxdll.obj
 0002:00001238       ??_C@_0L@NELG@MOVE?5Patch?$AA@ 1001e238     Dboxdll.obj
 0002:00001244       ??_C@_0L@CKG@EDIT?5Patch?$AA@ 1001e244     Dboxdll.obj
 0002:00001250       ??_C@_0BA@EAGJ@OPERATION?5Patch?$AA@ 1001e250     Dboxdll.obj
 0002:00001260       ??_C@_0L@BPPB@NURB?5Patch?$AA@ 1001e260     Dboxdll.obj
 0002:0000126c       ??_C@_0P@OKJA@B?9SPLINE?5Patch?$AA@ 1001e26c     Dboxdll.obj
 0002:0000127c       ??_C@_0N@DCHD@BEZIER?5Patch?$AA@ 1001e27c     Dboxdll.obj
 0002:0000128c       ??_C@_0M@MPOA@CUBIC?5Patch?$AA@ 1001e28c     Dboxdll.obj
 0002:00001298       ??_C@_0BA@FAHK@QUADRATIC?5Patch?$AA@ 1001e298     Dboxdll.obj
 0002:000012a8       ??_C@_0N@DHOP@LINEAR?5Patch?$AA@ 1001e2a8     Dboxdll.obj
 0002:000012b8       ??_C@_0L@MBNF@FLAT?5Patch?$AA@ 1001e2b8     Dboxdll.obj
 0002:000012c4       ??_C@_0M@JMGB@SWEPT?5Patch?$AA@ 1001e2c4     Dboxdll.obj
 0002:000012d0       ??_C@_0N@III@DUCTED?5Patch?$AA@ 1001e2d0     Dboxdll.obj
 0002:000012e0       ??_C@_0P@EICA@EXTRUDED?5Patch?$AA@ 1001e2e0     Dboxdll.obj
 0002:000012f0       ??_C@_0N@POIK@LOFTED?5Patch?$AA@ 1001e2f0     Dboxdll.obj
 0002:00001300       ??_C@_0O@MLJH@ROTATED?5Patch?$AA@ 1001e300     Dboxdll.obj
 0002:00001310       ??_C@_0M@JKOI@COONS?5Patch?$AA@ 1001e310     Dboxdll.obj
 0002:0000131c       ??_C@_0O@MPNG@GORDONS?5Patch?$AA@ 1001e31c     Dboxdll.obj
 0002:0000132c       ??_C@_0N@CAPD@TENSOR?5Patch?$AA@ 1001e32c     Dboxdll.obj
 0002:0000133c       ??_C@_05PGGO@PATCH?$AA@    1001e33c     Dboxdll.obj
 0002:00001344       ??_C@_0O@DEDG@Curve?5PROFILE?$AA@ 1001e344     Dboxdll.obj
 0002:00001354       ??_C@_0O@HDFL@REFLECT?5Patch?$AA@ 1001e354     Dboxdll.obj
 0002:00001364       ??_C@_0M@MOHK@SCALE?5Curve?$AA@ 1001e364     Dboxdll.obj
 0002:00001370       ??_C@_0BA@HGFK@TRANSLATE?5Curve?$AA@ 1001e370     Dboxdll.obj
 0002:00001380       ??_C@_0N@HHOP@ROTATE?5Curve?$AA@ 1001e380     Dboxdll.obj
 0002:00001390       ??_C@_0M@LOOF@SPAWN?5Curve?$AA@ 1001e390     Dboxdll.obj
 0002:0000139c       ??_C@_0O@EPHH@STITCH?5Curves?$AA@ 1001e39c     Dboxdll.obj
 0002:000013ac       ??_C@_0N@MPEP@DELETE?5Curve?$AA@ 1001e3ac     Dboxdll.obj
 0002:000013bc       ??_C@_0N@DAL@UNPOST?5Curve?$AA@ 1001e3bc     Dboxdll.obj
 0002:000013cc       ??_C@_0L@PFOO@POST?5Curve?$AA@ 1001e3cc     Dboxdll.obj
 0002:000013d8       ??_C@_0L@GIEI@MOVE?5Curve?$AA@ 1001e3d8     Dboxdll.obj
 0002:000013e4       ??_C@_0L@LOFI@EDIT?5Curve?$AA@ 1001e3e4     Dboxdll.obj
 0002:000013f0       ??_C@_0BA@PMJH@OPERATION?5Curve?$AA@ 1001e3f0     Dboxdll.obj
 0002:00001400       ??_C@_0L@KDAP@NURB?5Curve?$AA@ 1001e400     Dboxdll.obj
 0002:0000140c       ??_C@_0P@FGGO@B?9SPLINE?5Curve?$AA@ 1001e40c     Dboxdll.obj
 0002:0000141c       ??_C@_0N@IOIN@BEZIER?5Curve?$AA@ 1001e41c     Dboxdll.obj
 0002:0000142c       ??_C@_0O@NLEA@HERMITE?5Curve?$AA@ 1001e42c     Dboxdll.obj
 0002:0000143c       ??_C@_0M@HDBO@CUBIC?5Curve?$AA@ 1001e43c     Dboxdll.obj
 0002:00001448       ??_C@_0BA@OMIE@QUADRATIC?5Curve?$AA@ 1001e448     Dboxdll.obj
 0002:00001458       ??_C@_0N@ILBB@LINEAR?5Curve?$AA@ 1001e458     Dboxdll.obj
 0002:00001468       ??_C@_0BA@FFPP@PARABOLIC?5Curve?$AA@ 1001e468     Dboxdll.obj
 0002:00001478       ??_C@_0P@OJDG@ELLIPTIC?5Curve?$AA@ 1001e478     Dboxdll.obj
 0002:00001488       ??_C@_0P@GAFK@CIRCULAR?5Curve?$AA@ 1001e488     Dboxdll.obj
 0002:00001498       ??_C@_05EKJA@CURVE?$AA@    1001e498     Dboxdll.obj
 0002:000014a0       ??_C@_0N@IKMJ@REFLECT?5Node?$AA@ 1001e4a0     Dboxdll.obj
 0002:000014b0       ??_C@_0L@FFFM@SCALE?5Node?$AA@ 1001e4b0     Dboxdll.obj
 0002:000014bc       ??_C@_0P@HFIC@TRANSLATE?5Node?$AA@ 1001e4bc     Dboxdll.obj
 0002:000014cc       ??_C@_0M@MAPN@ROTATE?5Node?$AA@ 1001e4cc     Dboxdll.obj
 0002:000014d8       ??_C@_0L@MKKO@SPAWN?5Node?$AA@ 1001e4d8     Dboxdll.obj
 0002:000014e4       ??_C@_09OKNM@Mesh?5NODE?$AA@ 1001e4e4     Dboxdll.obj
 0002:000014f0       ??_C@_0N@PFFC@Control?5NODE?$AA@ 1001e4f0     Dboxdll.obj
 0002:00001500       ??_C@_04FPID@NODE?$AA@     1001e500     Dboxdll.obj
 0002:00001508       ??_C@_00A@?$AA@            1001e508     Dboxdll.obj
 0002:0000150c       ??_C@_0BH@DAOH@DBox?4DLL?5Terminating?$CB?6?$AA@ 1001e50c     Dboxdll.obj
 0002:00001524       ??_C@_02DILL@?$CFs?$AA@    1001e524     Dboxdll.obj
 0002:00001528       ??_C@_0BI@EMKL@DBox?4DLL?5Initializing?$CB?6?$AA@ 1001e528     Dboxdll.obj
 0002:00001540       ?messageMap@CDrawBar@@1UAFX_MSGMAP@@B 1001e540     Drawbar.obj
 0002:00001548       ?_messageEntries@CDrawBar@@0QBUAFX_MSGMAP_ENTRY@@B 1001e548     Drawbar.obj
 0002:00001590       ?classCDrawBar@CDrawBar@@2UCRuntimeClass@@B 1001e590     Drawbar.obj
 0002:000015a8       ??_C@_08NOIA@CDrawBar?$AA@ 1001e5a8     Drawbar.obj
 0002:000015b4       ??_7CDrawBar@@6B@          1001e5b4     Drawbar.obj
 0002:000016b8       ?messageMap@CDrawBox@@1UAFX_MSGMAP@@B 1001e6b8     Drawbox.obj
 0002:000016c0       ?_messageEntries@CDrawBox@@0QBUAFX_MSGMAP_ENTRY@@B 1001e6c0     Drawbox.obj
 0002:00001720       ?classCDrawBox@CDrawBox@@2UCRuntimeClass@@B 1001e720     Drawbox.obj
 0002:00001738       ??_C@_08BNLN@CDrawBox?$AA@ 1001e738     Drawbox.obj
 0002:00001744       ??_7CBooleans@@6B@         1001e744     Drawbox.obj
 0002:00001984       ??_7CDataWindow@@6B@       1001e984     Drawbox.obj
 0002:00001af4       ??_7CDrFont@@6B@           1001eaf4     Drawbox.obj
 0002:00001c64       ??_7CDrPen@@6B@            1001ec64     Drawbox.obj
 0002:00001e34       ??_7CHitNet@@6B@           1001ee34     Drawbox.obj
 0002:00001f84       ??_7CLayer@@6B@            1001ef84     Drawbox.obj
 0002:00002114       ??_7CPatchMnu@@6B@         1001f114     Drawbox.obj
 0002:000022bc       ??_7CObj3DMnu@@6B@         1001f2bc     Drawbox.obj
 0002:00002464       ??_7CMapFactor@@6B@        1001f464     Drawbox.obj
 0002:000025cc       ??_7CPrecision@@6B@        1001f5cc     Drawbox.obj
 0002:00002754       ??_7CScaleFactor@@6B@      1001f754     Drawbox.obj
 0002:000028c4       ??_7CUnit@@6B@             1001f8c4     Drawbox.obj
 0002:00002a40       ??_7CElemInfo@@6B@         1001fa40     Drawbox.obj
 0002:00002b9c       ??_7CDrawBox@@6B@          1001fb9c     Drawbox.obj
 0002:00002c5c       ??_C@_0CE@BILF@CDrawBox?3?3GetToolNum?5index?5Overf@ 1001fc5c     Drawbox.obj
 0002:00002c80       ??_C@_0BK@GNMN@Cannot?5Create?5ColorSquare?$AA@ 1001fc80     Drawbox.obj
 0002:00002c9c       ??_C@_0BG@EGLJ@Cannot?5Create?5DrawBar?$AA@ 1001fc9c     Drawbox.obj
 0002:00002cb4       ??_C@_0BK@PJFP@Failed?5to?5create?5toolbar?6?$AA@ 1001fcb4     Drawbox.obj
 0002:00002cd0       ??_C@_0BG@LFDF@resource?5string?5?$DN?5?$CFs?6?$AA@ 1001fcd0     Drawbox.obj
 0002:00002ce8       ??_C@_0BJ@FEGD@Button?5Count?5Discrepancy?$AA@ 1001fce8     Drawbox.obj
 0002:00002d04       ??_C@_06ELHP@AfxWnd?$AA@   1001fd04     Drawbox.obj
 0002:00002d0c       ??_C@_04IAJO@Zoom?$AA@     1001fd0c     Drawbox.obj
 0002:00002d14       ??_C@_0CK@FLHA@C?3?2drgraf4_0?2TOOLBOXS?2DRAWBOX?2Ol@ 1001fd14     OldGlob.obj
 0002:00002d60       ?messageMap@COldToolBar@@1UAFX_MSGMAP@@B 1001fd60     Oldtool.obj
 0002:00002d68       ?_messageEntries@COldToolBar@@0QBUAFX_MSGMAP_ENTRY@@B 1001fd68     Oldtool.obj
 0002:00002df8       ?classCOldToolBar@COldToolBar@@2UCRuntimeClass@@B 1001fdf8     Oldtool.obj
 0002:00002e10       ??_C@_0M@FCJA@COldToolBar?$AA@ 1001fe10     Oldtool.obj
 0002:00002e1c       ??_C@_0BM@DAKC@Error?3?5can?8t?5draw?5toolbar?4?6?$AA@ 1001fe1c     Oldtool.obj
 0002:00002e38       ??_7COldToolBar@@6B@       1001fe38     Oldtool.obj
 0002:00002f28       ??_C@_0DK@DGNA@Warning?3?5CToolBar?3?3SetHeight?$CI?$CFd?$CJ@ 1001ff28     Oldtool.obj
 0002:00002f64       ??_7COldToolCmdUI@@6B@     1001ff64     Oldtool.obj
 0002:00002f74       ??_C@_02JCCC@?6?$HN?$AA@   1001ff74     Oldtool.obj
 0002:00002f78       ??_C@_0CB@DJKL@?6?7iImage?5?$CIbitmap?5image?5index?$CJ?5?$DN?5@ 1001ff78     Oldtool.obj
 0002:00002f9c       ??_C@_0BO@PCPI@?6?7iImage?5?$CIseparator?5width?$CJ?5?$DN?5?$AA@ 1001ff9c     Oldtool.obj
 0002:00002fbc       ??_C@_0M@GLAJ@?6?7nStyle?5?$DN?5?$AA@ 1001ffbc     Oldtool.obj
 0002:00002fc8       ??_C@_08LINB@?6?7nID?5?$DN?5?$AA@ 1001ffc8     Oldtool.obj
 0002:00002fd4       ??_C@_0BB@ELCK@?6toolbar?5button?$FL?$AA@ 1001ffd4     Oldtool.obj
 0002:00002fe8       ??_C@_05EJJM@?$FN?5?$DN?5?$HL?$AA@ 1001ffe8     Oldtool.obj
 0002:00002ff0       ??_C@_0BA@BCFB@?6m_sizeImage?5?$DN?5?$AA@ 1001fff0     Oldtool.obj
 0002:00003000       ??_C@_0BB@BMHK@?6m_sizeButton?5?$DN?5?$AA@ 10020000     Oldtool.obj
 0002:00003014       ??_C@_0BF@DFMO@?6m_iButtonCapture?5?$DN?5?$AA@ 10020014     Oldtool.obj
 0002:0000302c       ??_C@_0BF@GKOI@?6m_hRsrcImageWell?5?$DN?5?$AA@ 1002002c     Oldtool.obj
 0002:00003044       ??_C@_0BF@ONDI@?6m_hInstImageWell?5?$DN?5?$AA@ 10020044     Oldtool.obj
 0002:0000305c       ??_C@_0BC@DKGE@m_hbmImageWell?5?$DN?5?$AA@ 1002005c     Oldtool.obj
 0002:00003070       ?classCPaletteBar@CPaletteBar@@2UCRuntimeClass@@B 10020070     Palette.obj
 0002:00003088       ?messageMap@CPaletteBar@@1UAFX_MSGMAP@@B 10020088     Palette.obj
 0002:00003090       ?_messageEntries@CPaletteBar@@0QBUAFX_MSGMAP_ENTRY@@B 10020090     Palette.obj
 0002:00003120       ??_C@_0M@FHPO@CPaletteBar?$AA@ 10020120     Palette.obj
 0002:0000312c       ??_7CPaletteBar@@6B@       1002012c     Palette.obj
 0002:0000322c       ??_C@_0BA@PDEI@SuperControlBar?$AA@ 1002022c     Palette.obj
 0002:00003240       ?classCVOprBar@CVOprBar@@2UCRuntimeClass@@B 10020240     VOprBar.obj
 0002:00003258       ?messageMap@CVOprBar@@1UAFX_MSGMAP@@B 10020258     VOprBar.obj
 0002:00003260       ?_messageEntries@CVOprBar@@0QBUAFX_MSGMAP_ENTRY@@B 10020260     VOprBar.obj
 0002:000032c0       ??_C@_08PILM@CVOprBar?$AA@ 100202c0     VOprBar.obj
 0002:000032cc       ??_7CVOprBar@@6B@          100202cc     VOprBar.obj
 0002:000033d0       ?messageMap@CVOprBox@@1UAFX_MSGMAP@@B 100203d0     VOprbox.obj
 0002:000033d8       ?_messageEntries@CVOprBox@@0QBUAFX_MSGMAP_ENTRY@@B 100203d8     VOprbox.obj
 0002:00003450       ?classCVOprBox@CVOprBox@@2UCRuntimeClass@@B 10020450     VOprbox.obj
 0002:00003468       ??_C@_08DLIB@CVOprBox?$AA@ 10020468     VOprbox.obj
 0002:00003474       ??_7CVOprBox@@6B@          10020474     VOprbox.obj
 0002:00003534       ??_C@_0CJ@LMH@CVOprBox?3?3OnCreate?6Cannot?5Create@ 10020534     VOprbox.obj
 0002:00003560       ??_C@_0DE@EGAA@CVOprBox?3?3CreateElemBar?$CI?$CJ?6Failed@ 10020560     VOprbox.obj
 0002:00003594       ??_C@_0DJ@PHDI@ERROR?3CVOprBox?3?3CreateElemBar?$CI?$CJ?6@ 10020594     VOprbox.obj
 0002:000035d0       ??_C@_07CNPM@UNKNOWN?$AA@  100205d0     VOprbox.obj
 0002:000035d8       _IID_IDocHostUIHandlerDispatch 100205d8     mfcs42d:stdafx.obj
 0002:000035e8       _IID_IInternalConnection   100205e8     mfcs42d:stdafx.obj
 0002:000035f8       _IID_IAxWinAmbientDispatch 100205f8     mfcs42d:stdafx.obj
 0002:00003608       _IID_IAxWinHostWindow      10020608     mfcs42d:stdafx.obj
 0002:00003618       _IID_IRegistrar            10020618     mfcs42d:stdafx.obj
 0002:00003628       _CLSID_Registrar           10020628     mfcs42d:stdafx.obj
 0002:00003638       _LIBID_ATLLib              10020638     mfcs42d:stdafx.obj
 0002:00003674       ??_C@_08JKC@crtdll?4c?$AA@ 10020674     msvcrtd:crtdll.obj
 0002:00004748       __IMPORT_DESCRIPTOR_Spec_D32 10021748     Spec_D32:Spec_D32.dll
 0002:0000475c       __IMPORT_DESCRIPTOR_Elem_D32 1002175c     Elem_D32:Elem_D32.dll
 0002:00004770       __IMPORT_DESCRIPTOR_Draw_D32 10021770     Draw_D32:Draw_D32.dll
 0002:00004784       __IMPORT_DESCRIPTOR_OMgr_D32 10021784     OMgr_D32:OMgr_D32.dll
 0002:00004798       __IMPORT_DESCRIPTOR_Dr3D_D32 10021798     Dr3D_D32:Dr3D_D32.dll
 0002:000047ac       __IMPORT_DESCRIPTOR_OGEN_D32 100217ac     OGen_D32:OGEN_D32.dll
 0002:000047c0       __IMPORT_DESCRIPTOR_MFC42D 100217c0     mfc42d:MFC42D.DLL
 0002:000047d4       __IMPORT_DESCRIPTOR_MSVCRTD 100217d4     msvcrtd:MSVCRTD.dll
 0002:000047e8       __IMPORT_DESCRIPTOR_KERNEL32 100217e8     kernel32:KERNEL32.dll
 0002:000047fc       __IMPORT_DESCRIPTOR_USER32 100217fc     user32:USER32.dll
 0002:00004810       __IMPORT_DESCRIPTOR_GDI32  10021810     gdi32:GDI32.dll
 0002:00004824       __NULL_IMPORT_DESCRIPTOR   10021824     Spec_D32:Spec_D32.dll
 0003:00000000       ___xc_a                    10036000     msvcrtd:cinitexe.obj
 0003:0000000c       ___xc_z                    1003600c     msvcrtd:cinitexe.obj
 0003:00000010       ___xi_a                    10036010     msvcrtd:cinitexe.obj
 0003:00000014       ___xi_z                    10036014     msvcrtd:cinitexe.obj
 0003:000000e4       ?__LINE__Var@?1??Create@CSuperButton@@QAEHPAVCWnd@@VCString@@VCRect@@I@Z@4FA 100360e4     Colorsqu.obj
 0003:000000e8       ?MoTypes@@3PAUmotypes@@A   100360e8     Dboxdll.obj
 0003:00000538       ?nMax_MousTypes@@3HA       10036538     Dboxdll.obj
 0003:00000540       ?DbTypes@@3PAUdbtypes@@A   10036540     Dboxdll.obj
 0003:00000650       ?nMax_DBoxTypes@@3HA       10036650     Dboxdll.obj
 0003:00000680       __pRawDllMain              10036680     Dboxdll.obj
 0003:00000728       ?__LINE__Var@?1???0GLOBAL_DATA@@QAE@XZ@4FA 10036728     OldGlob.obj
 0003:0000072c       ?__LINE__Var@?1??UpdateSysColors@GLOBAL_DATA@@QAEXXZ@4FA 1003672c     OldGlob.obj
 0003:00000730       ?__LINE__Var@?1??UpdateSysMetrics@GLOBAL_DATA@@QAEXXZ@4FA 10036730     OldGlob.obj
 0003:00000760       ?__LINE__Var@?1??DrawButton@COldToolBar@@IAEHPAVCDC@@HHHI@Z@4FA 10036760     Oldtool.obj
 0003:00000764       ?__LINE__Var@?1??PrepareDrawButton@COldToolBar@@IAEHAAUDrawState@2@@Z@4FA 10036764     Oldtool.obj
 0003:00000768       ?__LINE__Var@?1???0COldToolBar@@QAE@XZ@4FA 10036768     Oldtool.obj
 0003:0000076c       ?__LINE__Var@?1??Create@COldToolBar@@QAEHPAVCWnd@@KI@Z@4FA 1003676c     Oldtool.obj
 0003:00000770       ?__LINE__Var@?1??SetSizes@COldToolBar@@QAEXUtagSIZE@@0@Z@4FA 10036770     Oldtool.obj
 0003:00000774       ?__LINE__Var@?1??SetHeight@COldToolBar@@QAEXH@Z@4FA 10036774     Oldtool.obj
 0003:00000778       ?__LINE__Var@?1??LoadBitmapA@COldToolBar@@QAEHPBD@Z@4FA 10036778     Oldtool.obj
 0003:0000077c       ?__LINE__Var@?1??SetButtons@COldToolBar@@QAEHPBIH@Z@4FA 1003677c     Oldtool.obj
 0003:00000780       ?__LINE__Var@?1??CommandToIndex@COldToolBar@@QBEHI@Z@4FA 10036780     Oldtool.obj
 0003:00000784       ?__LINE__Var@?1??_GetButtonPtr@COldToolBar@@IBEPAUAFX_TBBUTTON@@H@Z@4FA 10036784     Oldtool.obj
 0003:00000788       ?__LINE__Var@?1??GetItemID@COldToolBar@@QBEIH@Z@4FA 10036788     Oldtool.obj
 0003:0000078c       ?__LINE__Var@?1??GetItemRect@COldToolBar@@UBEXHPAUtagRECT@@@Z@4FA 1003678c     Oldtool.obj
 0003:00000790       ?__LINE__Var@?1??CalcFixedLayout@COldToolBar@@UAE?AVCSize@@HH@Z@4FA 10036790     Oldtool.obj
 0003:00000794       ?__LINE__Var@?1??GetButtonInfo@COldToolBar@@QBEXHAAI0AAH@Z@4FA 10036794     Oldtool.obj
 0003:00000798       ?__LINE__Var@?1??SetButtonInfo@COldToolBar@@QAEXHIIH@Z@4FA 10036798     Oldtool.obj
 0003:0000079c       ?__LINE__Var@?1??DoPaint@COldToolBar@@MAEXPAVCDC@@@Z@4FA 1003679c     Oldtool.obj
 0003:000007a0       ?__LINE__Var@?1??InvalidateButton@COldToolBar@@IAEXH@Z@4FA 100367a0     Oldtool.obj
 0003:000007a4       ?__LINE__Var@?1??OnToolHitTest@COldToolBar@@MBEHVCPoint@@PAUtagTOOLINFOA@@@Z@4FA 100367a4     Oldtool.obj
 0003:000007a8       ?__LINE__Var@?1??HitTest@COldToolBar@@MAEHVCPoint@@@Z@4FA 100367a8     Oldtool.obj
 0003:000007ac       ?__LINE__Var@?1??OnLButtonDown@COldToolBar@@IAEXIVCPoint@@@Z@4FA 100367ac     Oldtool.obj
 0003:000007b0       ?__LINE__Var@?1??OnMouseMove@COldToolBar@@IAEXIVCPoint@@@Z@4FA 100367b0     Oldtool.obj
 0003:000007b4       ?__LINE__Var@?1??OnLButtonUp@COldToolBar@@IAEXIVCPoint@@@Z@4FA 100367b4     Oldtool.obj
 0003:000007b8       ?__LINE__Var@?1??OnCancelMode@COldToolBar@@IAEXXZ@4FA 100367b8     Oldtool.obj
 0003:000007bc       ?__LINE__Var@?1??Enable@COldToolCmdUI@@UAEXH@Z@4FA 100367bc     Oldtool.obj
 0003:000007c0       ?__LINE__Var@?1??SetCheck@COldToolCmdUI@@UAEXH@Z@4FA 100367c0     Oldtool.obj
 0003:000007c4       ?__LINE__Var@?1??AssertValid@COldToolBar@@UBEXXZ@4FA 100367c4     Oldtool.obj
 0003:000007f4       ?__LINE__Var@?1??Create@CPaletteBar@@UAEHPAVCWnd@@HHII@Z@4FA 100367f4     Palette.obj
 0003:000007f8       ?__LINE__Var@?1??GetItemRect@CPaletteBar@@UBEXHPAUtagRECT@@@Z@4FA 100367f8     Palette.obj
 0003:00000870       ?GUID_ATLVer30@ATL@@3U_GUID@@A 10036870     mfcs42d:stdafx.obj
 0003:00000880       __afxForceEXTDLL           10036880     Dboxdll.obj
 0003:00000888       ?extensionDBox_DLL@@3UAFX_EXTENSION_MODULE@@A 10036888     Dboxdll.obj
 0003:000008a0       ?globalData@@3UGLOBAL_DATA@@A 100368a0     OldGlob.obj
 0003:0000091c       __afxForceEXCLUDE          1003691c     mfcs42d:nolib.obj
 0003:00000920       ?ATL_CREATE_OBJECT@CComApartment@ATL@@2IA 10036920     mfcs42d:stdafx.obj
 0003:00000928       ?m_libid@CComModule@ATL@@2U_GUID@@A 10036928     mfcs42d:stdafx.obj
 0003:00000938       ?_pModule@ATL@@3PAVCComModule@1@A 10036938     mfcs42d:stdafx.obj
 0003:0000093c       __afxForceSTDAFX           1003693c     mfcs42d:stdafx.obj
 0003:00000944       __adjust_fdiv              10036944     <common>
 0003:00000948       ___onexitend               10036948     <common>
 0003:0000094c       ___onexitbegin             1003694c     <common>

 entry point at        0001:00017640

 Static symbols

 0001:00019be0       _$E211                     1001abe0 f   Oldtool.obj
 0001:00019c00       _$E208                     1001ac00 f   Oldtool.obj
 0001:00019c10       _$E210                     1001ac10 f   Oldtool.obj
 0001:00019c30       _$E209                     1001ac30 f   Oldtool.obj
 0001:00018250       ?CreateDitherBitmap@@YGPAUHBITMAP__@@XZ 10019250 f   Oldtool.obj
 0001:000149f0       _$E196                     100159f0 f   OldGlob.obj
 0001:00014a10       _$E193                     10015a10 f   OldGlob.obj
 0001:00014a30       _$E195                     10015a30 f   OldGlob.obj
 0001:00014a50       _$E194                     10015a50 f   OldGlob.obj
 0001:000173e0       ?ArrayUnwindFilter@@YAHPAU_EXCEPTION_POINTERS@@@Z 100183e0 f   msvcrtd:ehvecdtr.obj
