 Mmgr_d32

 Timestamp is 444d7db7 (Mon Apr 24 18:39:03 2006)

 Preferred load address is 10000000

 Start         Length     Name                   Class
 0001:00000000 0007e4a1H .text                   CODE
 0001:0007e4b0 0000101fH .text$AFX_COL1          CODE
 0001:0007f4d0 00006114H .text$x                 CODE
 0001:000855e4 000c940cH .textbss                CODE
 0002:00000000 0000abdeH .rdata                  DATA
 0002:0000abe0 000057c8H .xdata$x                DATA
 0002:000103b0 00018f1dH .edata                  DATA
 0003:00000000 00000104H .CRT$XCA                DATA
 0003:00000104 0000014cH .CRT$XCU                DATA
 0003:00000250 00000104H .CRT$XCZ                DATA
 0003:00000354 00000104H .CRT$XIA                DATA
 0003:00000458 00000104H .CRT$XIZ                DATA
 0003:00000560 00000892H .data                   DATA
 0003:00000df8 000000acH .bss                    DATA
 0004:00000000 00000154H .idata$2                DATA
 0004:00000154 00000014H .idata$3                DATA
 0004:00000168 00000d30H .idata$4                DATA
 0004:00000e98 00000d30H .idata$5                DATA
 0004:00001bc8 0000525dH .idata$6                DATA
 0005:00000000 000007f0H .rsrc$01                DATA
 0005:000007f0 0000176cH .rsrc$02                DATA

  Address         Publics by Value              Rva+Base     Lib:Object

 0001:000063a0       ?GetProbLim@CMouse@@QAE?AW4PROBDIMLIM@@XZ 100073a0 f i CalcTime.obj
 0001:000063c0       ?SetProbLim@CMouse@@QAEXW4PROBDIMLIM@@@Z 100073c0 f i CalcTime.obj
 0001:000063f0       ?GetElemLim@CMouse@@QAE?AW4ELEMDIMLIM@@XZ 100073f0 f i CalcTime.obj
 0001:00006410       ?SetElemLim@CMouse@@QAEXW4ELEMDIMLIM@@@Z 10007410 f i CalcTime.obj
 0001:00006440       ?GetCurrentThirdCoord@CMouse@@QAENXZ 10007440 f i CalcTime.obj
 0001:00006460       ?SetCurrentThirdCoord@CMouse@@QAEXN@Z 10007460 f i CalcTime.obj
 0001:00006490       ?GetMouseWIC@CMouse@@QAE?AULPOINT3@@XZ 10007490 f i CalcTime.obj
 0001:000064d0       ?GetMouseOldWIC@CMouse@@QAE?AULPOINT3@@XZ 100074d0 f i CalcTime.obj
 0001:00006510       ?GetScrolledMouseWIC2D@CMouse@@IAE?AULPOINT@@XZ 10007510 f i CalcTime.obj
 0001:00006550       ?SetScrolledMouseWIC2D@CMouse@@IAEXULPOINT@@@Z 10007550 f i CalcTime.obj
 0001:00006580       ??1CDlg_NodI@@UAE@XZ       10007580 f i CalcTime.obj
 0001:00006600       ?Set3DPts@C3DMath@@QAEXPAULPOINT3@@JJJ@Z 10007600 f i CalcTime.obj
 0001:00006640       ?Set3DPts@C3DMath@@QAEXPAUWORLD@@NNN@Z 10007640 f i CalcTime.obj
 0001:000066a0       ?Len3DPts@C3DMath@@QAENPAUWORLD@@@Z 100076a0 f i CalcTime.obj
 0001:00006700       ??1C3DMath@@UAE@XZ         10007700 f i CalcTime.obj
 0001:00006730       ??_GC3DMath@@UAEPAXI@Z     10007730 f i CalcTime.obj
 0001:00006770       ??_EC3DMath@@UAEPAXI@Z     10007770 f i CalcTime.obj
 0001:00006810       ?GetMatrix@CMatObj@@UAEPAUMATRIX@@XZ 10007810 f i CalcTime.obj
 0001:00006830       ?SetMatrix@CMatObj@@UAEXPAUMATRIX@@@Z 10007830 f i CalcTime.obj
 0001:000068c0       ?GetCurveLatch@CMatObj@@UAE?AW4CURVELATCH@@XZ 100078c0 f i CalcTime.obj
 0001:000068e0       ?SetCurveLatch@CMatObj@@UAEXW4CURVELATCH@@@Z 100078e0 f i CalcTime.obj
 0001:00006910       ?IsInstanced_Prof@CMatObj@@UAEHXZ 10007910 f i CalcTime.obj
 0001:00006930       ?SetInstanced_Prof@CMatObj@@UAEXH@Z 10007930 f i CalcTime.obj
 0001:00006960       ?GetFromID@CMatObj@@UAE?AVCString@@XZ 10007960 f i CalcTime.obj
 0001:000069b0       ?SetFromID@CMatObj@@UAEXVCString@@@Z 100079b0 f i CalcTime.obj
 0001:00006a30       ?GetFromPt@CMatObj@@UAE?AUWORLD@@XZ 10007a30 f i CalcTime.obj
 0001:00006a70       ?SetFromPt@CMatObj@@UAEXUWORLD@@@Z 10007a70 f i CalcTime.obj
 0001:00006ab0       ?GetToID@CMatObj@@UAE?AVCString@@XZ 10007ab0 f i CalcTime.obj
 0001:00006b00       ?SetToID@CMatObj@@UAEXVCString@@@Z 10007b00 f i CalcTime.obj
 0001:00006b80       ?GetToPt@CMatObj@@UAE?AUWORLD@@XZ 10007b80 f i CalcTime.obj
 0001:00006bc0       ?SetToPt@CMatObj@@UAEXUWORLD@@@Z 10007bc0 f i CalcTime.obj
 0001:00006c00       ?GetRotPtID@CMatObj@@UAE?AVCString@@XZ 10007c00 f i CalcTime.obj
 0001:00006c50       ?SetRotPtID@CMatObj@@UAEXVCString@@@Z 10007c50 f i CalcTime.obj
 0001:00006cd0       ?GetRotPt@CMatObj@@UAE?AUWORLD@@XZ 10007cd0 f i CalcTime.obj
 0001:00006d10       ?SetRotPt@CMatObj@@UAEXUWORLD@@@Z 10007d10 f i CalcTime.obj
 0001:00006d50       ?IsCoordIn@CMatObj@@UAEHXZ 10007d50 f i CalcTime.obj
 0001:00006d80       ?SetCoordIn@CMatObj@@UAEXH@Z 10007d80 f i CalcTime.obj
 0001:00006db0       ?GetTranPtID@CMatObj@@UAE?AVCString@@XZ 10007db0 f i CalcTime.obj
 0001:00006e00       ?SetTranPtID@CMatObj@@UAEXVCString@@@Z 10007e00 f i CalcTime.obj
 0001:00006e80       ?GetTranslation@CMatObj@@UAE?AUWORLD@@XZ 10007e80 f i CalcTime.obj
 0001:00006ec0       ?SetTranslation@CMatObj@@UAEXUWORLD@@@Z 10007ec0 f i CalcTime.obj
 0001:00006f00       ?IsAngleIn@CMatObj@@UAEHXZ 10007f00 f i CalcTime.obj
 0001:00006f30       ?SetAngleIn@CMatObj@@UAEXH@Z 10007f30 f i CalcTime.obj
 0001:00006f60       ?IsDirCos@CMatObj@@UAEHXZ  10007f60 f i CalcTime.obj
 0001:00006f90       ?SetDirCos@CMatObj@@UAEXH@Z 10007f90 f i CalcTime.obj
 0001:00006fc0       ?GetDirCosDirect@CMatObj@@UAE?AUWORLD@@XZ 10007fc0 f i CalcTime.obj
 0001:00007000       ?SetDirCosDirect@CMatObj@@UAEXUWORLD@@@Z 10008000 f i CalcTime.obj
 0001:00007040       ?GetRotation@CMatObj@@UAE?AUWORLD@@XZ 10008040 f i CalcTime.obj
 0001:00007080       ?SetRotation@CMatObj@@UAEXUWORLD@@@Z 10008080 f i CalcTime.obj
 0001:000070c0       ?GetScale@CMatObj@@UAE?AUWORLD@@XZ 100080c0 f i CalcTime.obj
 0001:00007100       ?SetScale@CMatObj@@UAEXUWORLD@@@Z 10008100 f i CalcTime.obj
 0001:00007140       ?GetShear@CMatObj@@UAE?AUWORLD@@XZ 10008140 f i CalcTime.obj
 0001:00007180       ?SetShear@CMatObj@@UAEXUWORLD@@@Z 10008180 f i CalcTime.obj
 0001:000071c0       ?IsNoRot@CMatObj@@UAEHXZ   100081c0 f i CalcTime.obj
 0001:000071f0       ?SetNoRot@CMatObj@@UAEXH@Z 100081f0 f i CalcTime.obj
 0001:00007220       ?IsNoTran@CMatObj@@UAEHXZ  10008220 f i CalcTime.obj
 0001:00007250       ?SetNoTran@CMatObj@@UAEXH@Z 10008250 f i CalcTime.obj
 0001:00007280       ?IsNoScale@CMatObj@@UAEHXZ 10008280 f i CalcTime.obj
 0001:000072b0       ?SetNoScale@CMatObj@@UAEXH@Z 100082b0 f i CalcTime.obj
 0001:000072e0       ?IsNoShear@CMatObj@@UAEHXZ 100082e0 f i CalcTime.obj
 0001:00007310       ?SetNoShear@CMatObj@@UAEXH@Z 10008310 f i CalcTime.obj
 0001:00007340       ?GetXformType@CMatObj@@UAE?AW4XFORMTYPE@@XZ 10008340 f i CalcTime.obj
 0001:00007370       ?SetXformType@CMatObj@@UAEXW4XFORMTYPE@@@Z 10008370 f i CalcTime.obj
 0001:000073a0       ?GetSpawnType@CMatObj@@UAE?AW4SPAWNTYPE@@XZ 100083a0 f i CalcTime.obj
 0001:000073d0       ?SetSpawnType@CMatObj@@UAEXW4SPAWNTYPE@@@Z 100083d0 f i CalcTime.obj
 0001:00007400       ?GetCreOp@CMatObj@@UAEIXZ  10008400 f i CalcTime.obj
 0001:00007430       ?SetCreOp@CMatObj@@UAEXI@Z 10008430 f i CalcTime.obj
 0001:00007460       ??1CMatObj@@UAE@XZ         10008460 f i CalcTime.obj
 0001:00007520       ??_GCMatObj@@UAEPAXI@Z     10008520 f i CalcTime.obj
 0001:00007560       ??_ECMatObj@@UAEPAXI@Z     10008560 f i CalcTime.obj
 0001:00007600       ?ReadyToDelete@CDrObject@@UAEXXZ 10008600 f i CalcTime.obj
 0001:00007620       ?DoFormattedCardView@CDrObject@@UAEXPAVCString@@AAV2@@Z 10008620 f i CalcTime.obj
 0001:00007640       ?DoUnFormattedCardView@CDrObject@@UAEXPAVCString@@@Z 10008640 f i CalcTime.obj
 0001:00007660       ?DoDataView@CDrObject@@UAEXPAVCDC@@H@Z 10008660 f i CalcTime.obj
 0001:00007680       ?InitDraw@CDrObject@@UAEXPAVCDC@@HHPAUMATRIX@@1NNN@Z 10008680 f i CalcTime.obj
 0001:000076a0       ?InitDraw@CDrObject@@UAEXPAVCDC@@HHPAUMATRIX@@1NNNN@Z 100086a0 f i CalcTime.obj
 0001:000076c0       ?Corner_3Dto2D@CDrObject@@UAEXXZ 100086c0 f i CalcTime.obj
 0001:000076e0       ?DoDrawView@CDrObject@@UAEXPAVCDC@@@Z 100086e0 f i CalcTime.obj
 0001:00007700       ?DoDrawView@CDrObject@@UAEXPAVCDC@@H@Z 10008700 f i CalcTime.obj
 0001:00007720       ?DoDrawView@CDrObject@@UAEXPAVCDC@@HH@Z 10008720 f i CalcTime.obj
 0001:00007740       ?DealObjectDialog@CDrObject@@UAEHXZ 10008740 f i CalcTime.obj
 0001:00007760       ?TransformObjectToWorld@CDrObject@@UAEXPAUMATRIX@@H@Z 10008760 f i CalcTime.obj
 0001:00007780       ?TransformObjectToView@CDrObject@@UAEXPAUMATRIX@@@Z 10008780 f i CalcTime.obj
 0001:000077a0       ?TransformObjectToViewDirect@CDrObject@@UAEXPAUMATRIX@@00H@Z 100087a0 f i CalcTime.obj
 0001:000077c0       ?RemoveHiddenObject@CDrObject@@UAEHPAUMATRIX@@UWORLD@@H@Z 100087c0 f i CalcTime.obj
 0001:000077e0       ?ProjectObject@CDrObject@@UAEXPAUMATRIX@@NN@Z 100087e0 f i CalcTime.obj
 0001:00007800       ?Calc_2DBoundsScreen@CDrObject@@UAEHXZ 10008800 f i CalcTime.obj
 0001:00007820       ?Calc_3DBoundsLocal@CDrObject@@UAEHXZ 10008820 f i CalcTime.obj
 0001:00007840       ?FinishObject@CDrObject@@UAEXPAVCClientDC@@H@Z 10008840 f i CalcTime.obj
 0001:00007860       ?FinishObject@CDrObject@@UAEXH@Z 10008860 f i CalcTime.obj
 0001:00007880       ?FinishObject@CDrObject@@UAEXXZ 10008880 f i CalcTime.obj
 0001:000078a0       ?GetMaxCorners@CDrObject@@UAEHXZ 100088a0 f i CalcTime.obj
 0001:000078c0       ?GetRawCoords@CDrObject@@UAEXPAJPAHH@Z 100088c0 f i CalcTime.obj
 0001:000078e0       ?SetProjectedCoords@CDrObject@@UAEXUtagPOINT@@H@Z 100088e0 f i CalcTime.obj
 0001:00007900       ?RearrangeProjectedCoords@CDrObject@@UAEXXZ 10008900 f i CalcTime.obj
 0001:00007920       ?IsObjectHit@CDrObject@@UAEHNUWORLD@@@Z 10008920 f i CalcTime.obj
 0001:00007940       ?IsObjectHit@CDrObject@@UAEHHUtagPOINT@@H@Z 10008940 f i CalcTime.obj
 0001:00007960       ?IsObjectHit@CDrObject@@UAEHHUtagPOINT@@@Z 10008960 f i CalcTime.obj
 0001:00007980       ?IsObjectHit@CDrObject@@UAEHPAVCClientDC@@HUtagPOINT@@PAVCRect@@H@Z 10008980 f i CalcTime.obj
 0001:000079a0       ?IsKeyMatch@CDrObject@@UAEHPAV1@VCString@@I@Z 100089a0 f i CalcTime.obj
 0001:000079d0       ?IsKeyMatch@CDrObject@@UAEHVCString@@I@Z 100089d0 f i CalcTime.obj
 0001:00007a00       ?IsControlShapeNeeded@CDrObject@@UAEHXZ 10008a00 f i CalcTime.obj
 0001:00007a20       ?SetControlShapeNeed@CDrObject@@UAEXH@Z 10008a20 f i CalcTime.obj
 0001:00007a40       ?IsNormalNeeded@CDrObject@@UAEHXZ 10008a40 f i CalcTime.obj
 0001:00007a60       ?SetNormalNeed@CDrObject@@UAEXH@Z 10008a60 f i CalcTime.obj
 0001:00007a80       ?IsCulled@CDrObject@@UAEHXZ 10008a80 f i CalcTime.obj
 0001:00007aa0       ?SetCulled@CDrObject@@UAEXH@Z 10008aa0 f i CalcTime.obj
 0001:00007ac0       ?IsSkewed@CDrObject@@UAEHXZ 10008ac0 f i CalcTime.obj
 0001:00007ae0       ?SetSkewed@CDrObject@@UAEXH@Z 10008ae0 f i CalcTime.obj
 0001:00007b00       ?IsLinSpr@CDrObject@@UAEHXZ 10008b00 f i CalcTime.obj
 0001:00007b20       ?SetLinSpr@CDrObject@@UAEXH@Z 10008b20 f i CalcTime.obj
 0001:00007b40       ?IsLinSnu@CDrObject@@UAEHXZ 10008b40 f i CalcTime.obj
 0001:00007b60       ?SetLinSnu@CDrObject@@UAEXH@Z 10008b60 f i CalcTime.obj
 0001:00007b80       ?CullWorld@CDrObject@@UAEHUWORLD@@@Z 10008b80 f i CalcTime.obj
 0001:00007ba0       ?CullScreen@CDrObject@@UAEHPAUMATRIX@@@Z 10008ba0 f i CalcTime.obj
 0001:00007bc0       ?Calc_CentroidWorld@CDrObject@@UAEXXZ 10008bc0 f i CalcTime.obj
 0001:00007be0       ?Calc_CentroidEye@CDrObject@@UAEXXZ 10008be0 f i CalcTime.obj
 0001:00007c00       ?Calc_CentroidScreen3D@CDrObject@@UAEXNN@Z 10008c00 f i CalcTime.obj
 0001:00007c20       ?Calc_NormalWorld@CDrObject@@UAEXXZ 10008c20 f i CalcTime.obj
 0001:00007c40       ?TransformNormalToEye@CDrObject@@UAEXPAUMATRIX@@@Z 10008c40 f i CalcTime.obj
 0001:00007c60       ?ProjectNormalToScreen3D@CDrObject@@UAEXPAUMATRIX@@NN@Z 10008c60 f i CalcTime.obj
 0001:00007c80       ?GetNormalWorld@CDrObject@@UAEPAUWORLD@@XZ 10008c80 f i CalcTime.obj
 0001:00007ca0       ?SetNormalWorld@CDrObject@@UAEXUWORLD@@@Z 10008ca0 f i CalcTime.obj
 0001:00007cc0       ?GetNormalEye@CDrObject@@UAEPAUWORLD@@XZ 10008cc0 f i CalcTime.obj
 0001:00007ce0       ?SetNormalEye@CDrObject@@UAEXUWORLD@@@Z 10008ce0 f i CalcTime.obj
 0001:00007d00       ?GetNormalScreen3D@CDrObject@@UAEPAUWORLD@@XZ 10008d00 f i CalcTime.obj
 0001:00007d20       ?SetNormalScreen3D@CDrObject@@UAEXUWORLD@@@Z 10008d20 f i CalcTime.obj
 0001:00007d40       ?GetNormalScreen2D@CDrObject@@UAEPAUtagPOINT@@XZ 10008d40 f i CalcTime.obj
 0001:00007d60       ?SetNormalScreen2D@CDrObject@@UAEXUtagPOINT@@@Z 10008d60 f i CalcTime.obj
 0001:00007d80       ?GetObjectList@CDrObject@@UAEPAVCDListMgr@@XZ 10008d80 f i CalcTime.obj
 0001:00007da0       ?GetBoundingRect@CDrObject@@QAE?AVCRect@@XZ 10008da0 f i CalcTime.obj
 0001:00007df0       ?GetRInfo@CDrObject@@QAEPAURENDINFO@@XZ 10008df0 f i CalcTime.obj
 0001:00007e10       ?IsParallel@CDrObject@@QAEHXZ 10008e10 f i CalcTime.obj
 0001:00007e40       ?GetnView@CDrObject@@QAEHXZ 10008e40 f i CalcTime.obj
 0001:00007e70       ?GetdzMin@CDrObject@@QAENXZ 10008e70 f i CalcTime.obj
 0001:00007ea0       ?GetdScale_U@CDrObject@@QAENXZ 10008ea0 f i CalcTime.obj
 0001:00007ed0       ?GetdScale_V@CDrObject@@QAENXZ 10008ed0 f i CalcTime.obj
 0001:00007f00       ?GetpViewM@CDrObject@@QAEPAUMATRIX@@XZ 10008f00 f i CalcTime.obj
 0001:00007f30       ?Getpvv3DM@CDrObject@@QAEPAUMATRIX@@XZ 10008f30 f i CalcTime.obj
 0001:00007f60       ?GetpComposedM@CDrObject@@QAEPAUMATRIX@@XZ 10008f60 f i CalcTime.obj
 0001:00007f90       ?SetParallel@CDrObject@@QAEXH@Z 10008f90 f i CalcTime.obj
 0001:00007fc0       ?SetnView@CDrObject@@QAEXH@Z 10008fc0 f i CalcTime.obj
 0001:00007ff0       ?SetdzMin@CDrObject@@QAEXN@Z 10008ff0 f i CalcTime.obj
 0001:00008030       ?SetdScale_U@CDrObject@@QAEXN@Z 10009030 f i CalcTime.obj
 0001:00008070       ?SetdScale_V@CDrObject@@QAEXN@Z 10009070 f i CalcTime.obj
 0001:000080b0       ?SetpViewM@CDrObject@@QAEXPAUMATRIX@@@Z 100090b0 f i CalcTime.obj
 0001:000080f0       ?Setpvv3DM@CDrObject@@QAEXPAUMATRIX@@@Z 100090f0 f i CalcTime.obj
 0001:00008130       ?SetpComposedM@CDrObject@@QAEXPAUMATRIX@@@Z 10009130 f i CalcTime.obj
 0001:00008170       ?GetLevelType@CDrObject@@QAEHXZ 10009170 f i CalcTime.obj
 0001:000081a0       ?SetLevelType@CDrObject@@QAEXH@Z 100091a0 f i CalcTime.obj
 0001:000081d0       ?GetObjectID@CDrObject@@QAE?AVCString@@XZ 100091d0 f i CalcTime.obj
 0001:00008220       ?SetObjectID@CDrObject@@QAEXVCString@@@Z 10009220 f i CalcTime.obj
 0001:000082a0       ?GetObjectNo@CDrObject@@QAEJXZ 100092a0 f i CalcTime.obj
 0001:000082d0       ?SetObjectNo@CDrObject@@QAEXJ@Z 100092d0 f i CalcTime.obj
 0001:00008300       ?GetObjectType@CDrObject@@QAEHXZ 10009300 f i CalcTime.obj
 0001:00008330       ?SetObjectType@CDrObject@@QAEXH@Z 10009330 f i CalcTime.obj
 0001:00008360       ?GetElemType@CDrObject@@QAEHXZ 10009360 f i CalcTime.obj
 0001:00008390       ?SetElemType@CDrObject@@QAEXH@Z 10009390 f i CalcTime.obj
 0001:000083c0       ?GetPenInfo@CDrObject@@QAEXAAIAAK0@Z 100093c0 f i CalcTime.obj
 0001:00008410       ?SetPenInfo@CDrObject@@QAEXIKI@Z 10009410 f i CalcTime.obj
 0001:00008460       ?GetPenInfoHi@CDrObject@@QAEXAAIAAK0@Z 10009460 f i CalcTime.obj
 0001:000084b0       ?SetPenInfoHi@CDrObject@@QAEXIKI@Z 100094b0 f i CalcTime.obj
 0001:00008500       ?GetLayer@CDrObject@@QAEIXZ 10009500 f i CalcTime.obj
 0001:00008530       ?SetLayer@CDrObject@@QAEXI@Z 10009530 f i CalcTime.obj
 0001:00008560       ?IsClipped@CDrObject@@QAEHXZ 10009560 f i CalcTime.obj
 0001:00008590       ?SetClipped@CDrObject@@QAEXH@Z 10009590 f i CalcTime.obj
 0001:000085c0       ?IsVirtual@CDrObject@@QAEHXZ 100095c0 f i CalcTime.obj
 0001:000085e0       ?SetVirtual@CDrObject@@QAEXH@Z 100095e0 f i CalcTime.obj
 0001:00008610       ?IsShow@CDrObject@@QAEHXZ  10009610 f i CalcTime.obj
 0001:00008640       ?SetShow@CDrObject@@QAEXH@Z 10009640 f i CalcTime.obj
 0001:00008670       ?GetParentID@CDrObject@@QAEAAVCString@@XZ 10009670 f i CalcTime.obj
 0001:00008690       ?SetParentID@CDrObject@@QAEXAAVCString@@@Z 10009690 f i CalcTime.obj
 0001:000086c0       ?GetParentType@CDrObject@@QAEIXZ 100096c0 f i CalcTime.obj
 0001:000086e0       ?SetParentType@CDrObject@@QAEXI@Z 100096e0 f i CalcTime.obj
 0001:00008710       ?IsInstanced@CDrObject@@QAEHXZ 10009710 f i CalcTime.obj
 0001:00008730       ?SetInstanced@CDrObject@@QAEXH@Z 10009730 f i CalcTime.obj
 0001:00008760       ?GetMatObj@CDrObject@@QAEPAVCMatObj@@XZ 10009760 f i CalcTime.obj
 0001:00008780       ?SetMatObj@CDrObject@@QAEXPAVCMatObj@@@Z 10009780 f i CalcTime.obj
 0001:000087b0       ?GetSpeLList@CDrObject@@QAEPAVCDListMgr@@XZ 100097b0 f i CalcTime.obj
 0001:000087e0       ?GetDynLList@CDrObject@@QAEPAVCDListMgr@@XZ 100097e0 f i CalcTime.obj
 0001:00008810       ?GetStaLList@CDrObject@@QAEPAVCDListMgr@@XZ 10009810 f i CalcTime.obj
 0001:00008840       ?GetSuppList@CDrObject@@QAEPAVCDListMgr@@XZ 10009840 f i CalcTime.obj
 0001:00008870       ?GetElemList@CDrObject@@QAEPAVCDListMgr@@XZ 10009870 f i CalcTime.obj
 0001:000088a0       ?GetCurveList@CDrObject@@QAEPAVCDListMgr@@XZ 100098a0 f i CalcTime.obj
 0001:000088d0       ?GetCProfList@CDrObject@@QAEPAVCDListMgr@@XZ 100098d0 f i CalcTime.obj
 0001:00008900       ?GetPatchList@CDrObject@@QAEPAVCDListMgr@@XZ 10009900 f i CalcTime.obj
 0001:00008930       ?GetSolidList@CDrObject@@QAEPAVCDListMgr@@XZ 10009930 f i CalcTime.obj
 0001:00008960       ?GetObj3DList@CDrObject@@QAEPAVCDListMgr@@XZ 10009960 f i CalcTime.obj
 0001:00008990       ?GetCNodeList@CDrObject@@QAEPAVCDListMgr@@XZ 10009990 f i CalcTime.obj
 0001:000089c0       ?GetINodeList@CDrObject@@QAEPAVCDListMgr@@XZ 100099c0 f i CalcTime.obj
 0001:000089f0       ?GetNodeList@CDrObject@@QAEPAVCDListMgr@@XZ 100099f0 f i CalcTime.obj
 0001:00008a20       ?GetLabelList@CDrObject@@QAEPAVCDListMgr@@XZ 10009a20 f i CalcTime.obj
 0001:00008a50       ?GetFE0DList@CDrObject@@QAEPAVCDListMgr@@XZ 10009a50 f i CalcTime.obj
 0001:00008a80       ?GetFE1DList@CDrObject@@QAEPAVCDListMgr@@XZ 10009a80 f i CalcTime.obj
 0001:00008ab0       ?GetFE2DList@CDrObject@@QAEPAVCDListMgr@@XZ 10009ab0 f i CalcTime.obj
 0001:00008ae0       ?GetFE3DList@CDrObject@@QAEPAVCDListMgr@@XZ 10009ae0 f i CalcTime.obj
 0001:00008b10       ?GetMs0List@CDrObject@@QAEPAVCDListMgr@@XZ 10009b10 f i CalcTime.obj
 0001:00008b40       ?GetMs1List@CDrObject@@QAEPAVCDListMgr@@XZ 10009b40 f i CalcTime.obj
 0001:00008b70       ?GetMs2List@CDrObject@@QAEPAVCDListMgr@@XZ 10009b70 f i CalcTime.obj
 0001:00008ba0       ?GetMs3List@CDrObject@@QAEPAVCDListMgr@@XZ 10009ba0 f i CalcTime.obj
 0001:00008bd0       ?GetMbj3DList@CDrObject@@QAEPAVCDListMgr@@XZ 10009bd0 f i CalcTime.obj
 0001:00008c00       ?GetM2DProfList@CDrObject@@QAEPAVCDListMgr@@XZ 10009c00 f i CalcTime.obj
 0001:00008c30       ?GetM3DProfList@CDrObject@@QAEPAVCDListMgr@@XZ 10009c30 f i CalcTime.obj
 0001:00008c60       ?GetMbjProfList@CDrObject@@QAEPAVCDListMgr@@XZ 10009c60 f i CalcTime.obj
 0001:00008c90       ?GetScreen2DCorner@CDrObject@@UAE?AUtagPOINT@@H@Z 10009c90 f i CalcTime.obj
 0001:00008ce0       ?SetScreen2DCorner@CDrObject@@UAEXUtagPOINT@@H@Z 10009ce0 f i CalcTime.obj
 0001:00008d20       ?GetSpawnType@CDrObject@@QAE?AW4SPAWNTYPE@@XZ 10009d20 f i CalcTime.obj
 0001:00008d40       ?SetSpawnType@CDrObject@@QAEXW4SPAWNTYPE@@@Z 10009d40 f i CalcTime.obj
 0001:00008d70       ?GetCategory@CDrObject@@QAE?AW4CATEGORY@@XZ 10009d70 f i CalcTime.obj
 0001:00008d90       ?SetCategory@CDrObject@@QAEXW4CATEGORY@@@Z 10009d90 f i CalcTime.obj
 0001:00008dc0       ?GetSubCat@CDrObject@@QAE?AW4SUBCAT@@XZ 10009dc0 f i CalcTime.obj
 0001:00008de0       ?SetSubCat@CDrObject@@QAEXW4SUBCAT@@@Z 10009de0 f i CalcTime.obj
 0001:00008e10       ?GetElemDimLim@CDrObject@@QAE?AW4ELEMDIMLIM@@XZ 10009e10 f i CalcTime.obj
 0001:00008e30       ?SetElemDimLim@CDrObject@@QAEXW4ELEMDIMLIM@@@Z 10009e30 f i CalcTime.obj
 0001:00008e60       ?IsDirty@CDrObject@@QAEHXZ 10009e60 f i CalcTime.obj
 0001:00008e90       ?SetDirty@CDrObject@@QAEXH@Z 10009e90 f i CalcTime.obj
 0001:00008ec0       ?IsMoved@CDrObject@@QAEHXZ 10009ec0 f i CalcTime.obj
 0001:00008ef0       ?SetMoved@CDrObject@@QAEXH@Z 10009ef0 f i CalcTime.obj
 0001:00008f20       ?IsEdited@CDrObject@@QAEHXZ 10009f20 f i CalcTime.obj
 0001:00008f50       ?SetEdited@CDrObject@@QAEXH@Z 10009f50 f i CalcTime.obj
 0001:00008f80       ?IsPosted@CDrObject@@QAEHXZ 10009f80 f i CalcTime.obj
 0001:00008fb0       ?SetPosted@CDrObject@@QAEXH@Z 10009fb0 f i CalcTime.obj
 0001:00008fe0       ?IsDeleted@CDrObject@@QAEHXZ 10009fe0 f i CalcTime.obj
 0001:00009010       ?SetDeleted@CDrObject@@QAEXH@Z 1000a010 f i CalcTime.obj
 0001:00009040       ?IsToBeMoved@CDrObject@@QAEHXZ 1000a040 f i CalcTime.obj
 0001:00009070       ?SetToBeMoved@CDrObject@@QAEXH@Z 1000a070 f i CalcTime.obj
 0001:00009090       ?IsToBeEdited@CDrObject@@QAEHXZ 1000a090 f i CalcTime.obj
 0001:000090c0       ?SetToBeEdited@CDrObject@@QAEXH@Z 1000a0c0 f i CalcTime.obj
 0001:000090e0       ?IsToBePosted@CDrObject@@QAEHXZ 1000a0e0 f i CalcTime.obj
 0001:00009110       ?SetToBePosted@CDrObject@@QAEXH@Z 1000a110 f i CalcTime.obj
 0001:00009130       ?IsToBeUnPosted@CDrObject@@QAEHXZ 1000a130 f i CalcTime.obj
 0001:00009160       ?SetToBeUnPosted@CDrObject@@QAEXH@Z 1000a160 f i CalcTime.obj
 0001:00009180       ?IsToBeDeleted@CDrObject@@QAEHXZ 1000a180 f i CalcTime.obj
 0001:000091b0       ?SetToBeDeleted@CDrObject@@QAEXH@Z 1000a1b0 f i CalcTime.obj
 0001:000091d0       ?IsFormatted@CDrObject@@QAEHXZ 1000a1d0 f i CalcTime.obj
 0001:000091f0       ?SetFormatted@CDrObject@@QAEXH@Z 1000a1f0 f i CalcTime.obj
 0001:00009220       ?Parse_drPipe@CDrNode@@UAEPAUnodecard@@PAVCString@@@Z 1000a220 f i CalcTime.obj
 0001:00009240       ?GetNodeCard@CDrNode@@UAEPAUnodecard@@XZ 1000a240 f i CalcTime.obj
 0001:00009270       ?GetCardNo@CDrNode@@UAEHXZ 1000a270 f i CalcTime.obj
 0001:000092a0       ?SetCardNo@CDrNode@@UAEXH@Z 1000a2a0 f i CalcTime.obj
 0001:000092d0       ?DoFormattedCardView@CDrNode@@UAEXPAVCString@@AAV2@@Z 1000a2d0 f i CalcTime.obj
 0001:000092f0       ?DoUnFormattedCardView@CDrNode@@UAEXPAVCString@@@Z 1000a2f0 f i CalcTime.obj
 0001:00009310       ?GetMaxCorners@CDrNode@@UAEHXZ 1000a310 f i CalcTime.obj
 0001:00009330       ?GetCategory@CDrNode@@UAE?AW4CATEGORY@@XZ 1000a330 f i CalcTime.obj
 0001:00009350       ?SetCategory@CDrNode@@UAEXW4CATEGORY@@@Z 1000a350 f i CalcTime.obj
 0001:00009380       ?GetPrecision@CDrNode@@UAEHXZ 1000a380 f i CalcTime.obj
 0001:000093b0       ?SetPrecision@CDrNode@@UAEXH@Z 1000a3b0 f i CalcTime.obj
 0001:000093e0       ?GetFormat@CDrNode@@QAE?AVCString@@XZ 1000a3e0 f i CalcTime.obj
 0001:00009430       ?SetFormat@CDrNode@@QAEXVCString@@@Z 1000a430 f i CalcTime.obj
 0001:000094b0       ?GetMapFactor@CDrNode@@QAENXZ 1000a4b0 f i CalcTime.obj
 0001:000094e0       ?SetMapFactor@CDrNode@@QAEXN@Z 1000a4e0 f i CalcTime.obj
 0001:00009520       ?GetScaleFactor@CDrNode@@QAENXZ 1000a520 f i CalcTime.obj
 0001:00009550       ?SetScaleFactor@CDrNode@@QAEXN@Z 1000a550 f i CalcTime.obj
 0001:00009590       ?GetMasterMultFac@CDrNode@@QAEJXZ 1000a590 f i CalcTime.obj
 0001:000095c0       ?SetMasterMultFac@CDrNode@@QAEXJ@Z 1000a5c0 f i CalcTime.obj
 0001:000095f0       ?GetLocalPos@CDrNode@@UAEPAUWORLD@@XZ 1000a5f0 f i CalcTime.obj
 0001:00009620       ?SetLocalPos@CDrNode@@UAEXUWORLD@@@Z 1000a620 f i CalcTime.obj
 0001:00009660       ?GetWorldPos@CDrNode@@UAEPAUWORLD@@XZ 1000a660 f i CalcTime.obj
 0001:00009690       ?SetWorldPos@CDrNode@@UAEXUWORLD@@@Z 1000a690 f i CalcTime.obj
 0001:000096d0       ?GetEyePos@CDrNode@@UAEPAUWORLD@@XZ 1000a6d0 f i CalcTime.obj
 0001:00009700       ?SetEyePos@CDrNode@@UAEXUWORLD@@@Z 1000a700 f i CalcTime.obj
 0001:00009740       ?GetScreenPos3D@CDrNode@@UAEPAUWORLD@@XZ 1000a740 f i CalcTime.obj
 0001:00009770       ?SetScreenPos3D@CDrNode@@UAEXUWORLD@@@Z 1000a770 f i CalcTime.obj
 0001:000097b0       ?GetScreenPos2D@CDrNode@@UAEPAUtagPOINT@@XZ 1000a7b0 f i CalcTime.obj
 0001:000097e0       ?SetScreenPos2D@CDrNode@@UAEXUtagPOINT@@@Z 1000a7e0 f i CalcTime.obj
 0001:00009820       ?GetNormalWorld@CDrNode@@UAEPAUWORLD@@XZ 1000a820 f i CalcTime.obj
 0001:00009850       ?SetNormalWorld@CDrNode@@UAEXUWORLD@@@Z 1000a850 f i CalcTime.obj
 0001:00009890       ?GetNormalEye@CDrNode@@UAEPAUWORLD@@XZ 1000a890 f i CalcTime.obj
 0001:000098c0       ?SetNormalEye@CDrNode@@UAEXUWORLD@@@Z 1000a8c0 f i CalcTime.obj
 0001:00009900       ?GetNormalScreen3D@CDrNode@@UAEPAUWORLD@@XZ 1000a900 f i CalcTime.obj
 0001:00009930       ?SetNormalScreen3D@CDrNode@@UAEXUWORLD@@@Z 1000a930 f i CalcTime.obj
 0001:00009970       ?GetNormalScreen2D@CDrNode@@UAEPAUtagPOINT@@XZ 1000a970 f i CalcTime.obj
 0001:000099a0       ?SetNormalScreen2D@CDrNode@@UAEXUtagPOINT@@@Z 1000a9a0 f i CalcTime.obj
 0001:000099e0       ?GetLabelNo@CDrNode@@QAEJXZ 1000a9e0 f i CalcTime.obj
 0001:00009a10       ?SetLabelNo@CDrNode@@QAEXJ@Z 1000aa10 f i CalcTime.obj
 0001:00009a40       ?IsMeshNode@CDrNode@@QAEHXZ 1000aa40 f i CalcTime.obj
 0001:00009a70       ?SetMeshNode@CDrNode@@QAEXH@Z 1000aa70 f i CalcTime.obj
 0001:00009aa0       ?IsGenerated@CDrNode@@QAEHXZ 1000aaa0 f i CalcTime.obj
 0001:00009ad0       ?SetGenerated@CDrNode@@QAEXH@Z 1000aad0 f i CalcTime.obj
 0001:00009b00       ?IsControlNode@CDrNode@@QAEHXZ 1000ab00 f i CalcTime.obj
 0001:00009b30       ?SetControlNode@CDrNode@@QAEXH@Z 1000ab30 f i CalcTime.obj
 0001:00009b70       ?GetInputMode@CDrNode@@QAEHXZ 1000ab70 f i CalcTime.obj
 0001:00009ba0       ?SetInputMode@CDrNode@@QAEXH@Z 1000aba0 f i CalcTime.obj
 0001:00009bd0       ?GetLength@CDrNode@@QAENXZ 1000abd0 f i CalcTime.obj
 0001:00009c00       ?SetLength@CDrNode@@QAEXN@Z 1000ac00 f i CalcTime.obj
 0001:00009c40       ?GetDelta@CDrNode@@QAEPAUWORLD@@XZ 1000ac40 f i CalcTime.obj
 0001:00009c70       ?SetDelta@CDrNode@@QAEXUWORLD@@@Z 1000ac70 f i CalcTime.obj
 0001:00009cb0       ?GetFromID@CDrNode@@QAE?AVCString@@XZ 1000acb0 f i CalcTime.obj
 0001:00009d00       ?SetFromID@CDrNode@@QAEXVCString@@@Z 1000ad00 f i CalcTime.obj
 0001:00009d80       ?GetToID@CDrNode@@QAE?AVCString@@XZ 1000ad80 f i CalcTime.obj
 0001:00009dd0       ?SetToID@CDrNode@@QAEXVCString@@@Z 1000add0 f i CalcTime.obj
 0001:00009e50       ?IsRefCN@CDrNode@@QAEHXZ   1000ae50 f i CalcTime.obj
 0001:00009e80       ?SetRefCN@CDrNode@@QAEXH@Z 1000ae80 f i CalcTime.obj
 0001:00009eb0       ?IsFromCN@CDrNode@@QAEHXZ  1000aeb0 f i CalcTime.obj
 0001:00009ee0       ?SetFromCN@CDrNode@@QAEXH@Z 1000aee0 f i CalcTime.obj
 0001:00009f10       ?IsToCN@CDrNode@@QAEHXZ    1000af10 f i CalcTime.obj
 0001:00009f40       ?SetToCN@CDrNode@@QAEXH@Z  1000af40 f i CalcTime.obj
 0001:00009f70       ?IsSkewed@CDrNode@@UAEHXZ  1000af70 f i CalcTime.obj
 0001:00009fa0       ?SetSkewed@CDrNode@@UAEXH@Z 1000afa0 f i CalcTime.obj
 0001:00009fd0       ?IsLinSpr@CDrNode@@UAEHXZ  1000afd0 f i CalcTime.obj
 0001:0000a000       ?SetLinSpr@CDrNode@@UAEXH@Z 1000b000 f i CalcTime.obj
 0001:0000a030       ?IsLinSnu@CDrNode@@UAEHXZ  1000b030 f i CalcTime.obj
 0001:0000a060       ?SetLinSnu@CDrNode@@UAEXH@Z 1000b060 f i CalcTime.obj
 0001:0000a090       ?GetSuppCardList@CDrNode@@QAEPAV?$CList@Usupportcard@@U1@@@XZ 1000b090 f i CalcTime.obj
 0001:0000a0c0       ?GetStaLCardList@CDrNode@@QAEPAV?$CList@UstaLcard@@U1@@@XZ 1000b0c0 f i CalcTime.obj
 0001:0000a0f0       ?GetMaxCorners@CDrLabel@@UAEHXZ 1000b0f0 f i CalcTime.obj
 0001:0000a110       ?SetProjectedCoords@CDrLabel@@UAEXUtagPOINT@@H@Z 1000b110 f i CalcTime.obj
 0001:0000a150       ?IsMoved@CDrLabel@@UAEHXZ  1000b150 f i CalcTime.obj
 0001:0000a180       ?SetMoved@CDrLabel@@UAEXH@Z 1000b180 f i CalcTime.obj
 0001:0000a1b0       ?GetNodePtr@CDrLabel@@UAEPAVCDrNode@@XZ 1000b1b0 f i CalcTime.obj
 0001:0000a1e0       ?SetNodePtr@CDrLabel@@UAEXPAVCDrNode@@@Z 1000b1e0 f i CalcTime.obj
 0001:0000a210       ?GetContextObj@CDrLabel@@UAE?AW4CONTEXTOBJ@@XZ 1000b210 f i CalcTime.obj
 0001:0000a240       ?SetContextObj@CDrLabel@@UAEXW4CONTEXTOBJ@@@Z 1000b240 f i CalcTime.obj
 0001:0000a270       ?GetMeshElemType@CDrLabel@@UAEIXZ 1000b270 f i CalcTime.obj
 0001:0000a2a0       ?SetMeshElemType@CDrLabel@@UAEXI@Z 1000b2a0 f i CalcTime.obj
 0001:0000a2d0       ?GetColor@CDrLabel@@UAEKXZ 1000b2d0 f i CalcTime.obj
 0001:0000a300       ?SetColor@CDrLabel@@UAEXK@Z 1000b300 f i CalcTime.obj
 0001:0000a330       ?GetViewNum@CDrLabel@@UAEHXZ 1000b330 f i CalcTime.obj
 0001:0000a360       ?SetViewNum@CDrLabel@@UAEXH@Z 1000b360 f i CalcTime.obj
 0001:0000a390       ?GetType@CDrLabel@@UAEHXZ  1000b390 f i CalcTime.obj
 0001:0000a3c0       ?SetType@CDrLabel@@UAEXH@Z 1000b3c0 f i CalcTime.obj
 0001:0000a3f0       ?GetText@CDrLabel@@UAE?AVCString@@XZ 1000b3f0 f i CalcTime.obj
 0001:0000a440       ?SetText@CDrLabel@@UAEXVCString@@@Z 1000b440 f i CalcTime.obj
 0001:0000a4c0       ?SetLogFont@CDrLabel@@UAEXUtagLOGFONTA@@@Z 1000b4c0 f i CalcTime.obj
 0001:0000a500       ?GetLogFont@CDrLabel@@UAE?AUtagLOGFONTA@@XZ 1000b500 f i CalcTime.obj
 0001:0000a540       ?GetOtherCorner@CDrLabel@@UAE?AUtagPOINT@@XZ 1000b540 f i CalcTime.obj
 0001:0000a580       ?SetOtherCorner@CDrLabel@@UAEXUtagPOINT@@@Z 1000b580 f i CalcTime.obj
 0001:0000a5c0       ?GetAngle@CDrLabel@@UAEHXZ 1000b5c0 f i CalcTime.obj
 0001:0000a5f0       ?SetAngle@CDrLabel@@UAEXH@Z 1000b5f0 f i CalcTime.obj
 0001:0000a620       ??1CDrLabel@@UAE@XZ        1000b620 f i CalcTime.obj
 0001:0000a6a0       ??_GCDrLabel@@UAEPAXI@Z    1000b6a0 f i CalcTime.obj
 0001:0000a6e0       ??_ECDrLabel@@UAEPAXI@Z    1000b6e0 f i CalcTime.obj
 0001:0000a780       ??1CDlg_LQCI@@UAE@XZ       1000b780 f i CalcTime.obj
 0001:0000a800       ??1CDlg_CrcI@@UAE@XZ       1000b800 f i CalcTime.obj
 0001:0000a880       ?IsDirty@CDrCurve@@UAEHXZ  1000b880 f i CalcTime.obj
 0001:0000a8b0       ?SetDirty@CDrCurve@@UAEXH@Z 1000b8b0 f i CalcTime.obj
 0001:0000a8e0       ?IsControlShapeNeeded@CDrCurve@@UAEHXZ 1000b8e0 f i CalcTime.obj
 0001:0000a910       ?SetControlShapeNeed@CDrCurve@@UAEXH@Z 1000b910 f i CalcTime.obj
 0001:0000a940       ?IsPosted@CDrCurve@@UAEHXZ 1000b940 f i CalcTime.obj
 0001:0000a970       ?SetPosted@CDrCurve@@UAEXH@Z 1000b970 f i CalcTime.obj
 0001:0000a9a0       ?GetCN_BSList@CDrCurve@@QAEPAVCDListMgr@@XZ 1000b9a0 f i CalcTime.obj
 0001:0000a9d0       ?GetVNodeList@CDrCurve@@QAEPAVCDListMgr@@XZ 1000b9d0 f i CalcTime.obj
 0001:0000aa00       ?GetMeshElemDim@CDrCurve@@QAEHXZ 1000ba00 f i CalcTime.obj
 0001:0000aa30       ?SetMeshElemDim@CDrCurve@@QAEXH@Z 1000ba30 f i CalcTime.obj
 0001:0000aa60       ?IsIso@CDrCurve@@QAEHXZ    1000ba60 f i CalcTime.obj
 0001:0000aa90       ?SetIso@CDrCurve@@QAEXH@Z  1000ba90 f i CalcTime.obj
 0001:0000aac0       ?GetIsoToID@CDrCurve@@QAEAAVCString@@XZ 1000bac0 f i CalcTime.obj
 0001:0000aaf0       ?SetIsoToID@CDrCurve@@QAEXAAVCString@@@Z 1000baf0 f i CalcTime.obj
 0001:0000ab20       ?GetCompoType@CDrCurve@@QAEHXZ 1000bb20 f i CalcTime.obj
 0001:0000ab50       ?SetCompoType@CDrCurve@@QAEXH@Z 1000bb50 f i CalcTime.obj
 0001:0000ab80       ?GetCompoID@CDrCurve@@QAEAAVCString@@XZ 1000bb80 f i CalcTime.obj
 0001:0000abb0       ?SetCompoID@CDrCurve@@QAEXAAVCString@@@Z 1000bbb0 f i CalcTime.obj
 0001:0000abe0       ?GetClass_S@CDrCurve@@QAEHXZ 1000bbe0 f i CalcTime.obj
 0001:0000ac10       ?SetClass_S@CDrCurve@@QAEXH@Z 1000bc10 f i CalcTime.obj
 0001:0000ac40       ?GetOutSegUnif_S@CDrCurve@@QAEHXZ 1000bc40 f i CalcTime.obj
 0001:0000ac70       ?SetOutSegUnif_S@CDrCurve@@QAEXH@Z 1000bc70 f i CalcTime.obj
 0001:0000aca0       ?IsClosed_S@CDrCurve@@QAEHXZ 1000bca0 f i CalcTime.obj
 0001:0000acd0       ?SetClosed_S@CDrCurve@@QAEXH@Z 1000bcd0 f i CalcTime.obj
 0001:0000ad00       ?GetCurveObjectType@CDrCurve@@QAEHXZ 1000bd00 f i CalcTime.obj
 0001:0000ad30       ?SetCurveObjectType@CDrCurve@@QAEXH@Z 1000bd30 f i CalcTime.obj
 0001:0000ad60       ?GetMaxINodes_S@CDrCurve@@QAEHXZ 1000bd60 f i CalcTime.obj
 0001:0000ad90       ?SetMaxINodes_S@CDrCurve@@QAEXH@Z 1000bd90 f i CalcTime.obj
 0001:0000adc0       ?GetMaxCNodes_S@CDrCurve@@QAEHXZ 1000bdc0 f i CalcTime.obj
 0001:0000adf0       ?SetMaxCNodes_S@CDrCurve@@QAEXH@Z 1000bdf0 f i CalcTime.obj
 0001:0000ae20       ?GetMaxBezSegments_S@CDrCurve@@QAEHXZ 1000be20 f i CalcTime.obj
 0001:0000ae50       ?SetMaxBezSegments_S@CDrCurve@@QAEXH@Z 1000be50 f i CalcTime.obj
 0001:0000ae80       ?GetMaxOutPts_S@CDrCurve@@QAEHXZ 1000be80 f i CalcTime.obj
 0001:0000aeb0       ?SetMaxOutPts_S@CDrCurve@@QAEXH@Z 1000beb0 f i CalcTime.obj
 0001:0000aee0       ?GetLongOutPts@CDrCurve@@QAEJXZ 1000bee0 f i CalcTime.obj
 0001:0000af10       ?SetLongOutPts@CDrCurve@@QAEXJ@Z 1000bf10 f i CalcTime.obj
 0001:0000af40       ?GetCurveType_S@CDrCurve@@QAE?AW4CURVEPROC@@XZ 1000bf40 f i CalcTime.obj
 0001:0000af70       ?SetCurveType_S@CDrCurve@@QAEXW4CURVEPROC@@@Z 1000bf70 f i CalcTime.obj
 0001:0000afa0       ?GetOutMethod@CDrCurve@@QAE?AW4CURVEOUTPUT@@XZ 1000bfa0 f i CalcTime.obj
 0001:0000afd0       ?GetAlfa@CDrCurve@@QAENXZ  1000bfd0 f i CalcTime.obj
 0001:0000b000       ?GetBias@CDrCurve@@QAENXZ  1000c000 f i CalcTime.obj
 0001:0000b030       ?GetTension@CDrCurve@@QAENXZ 1000c030 f i CalcTime.obj
 0001:0000b060       ?IsUniform_S@CDrCurve@@QAEHXZ 1000c060 f i CalcTime.obj
 0001:0000b090       ?SetUniform_S@CDrCurve@@QAEXH@Z 1000c090 f i CalcTime.obj
 0001:0000b0c0       ?SetOutMethod_S@CDrCurve@@QAEXW4CURVEOUTPUT@@@Z 1000c0c0 f i CalcTime.obj
 0001:0000b0f0       ?GetMaxOutSeg_S@CDrCurve@@QAEHXZ 1000c0f0 f i CalcTime.obj
 0001:0000b120       ?SetMaxOutSeg_S@CDrCurve@@QAEXH@Z 1000c120 f i CalcTime.obj
 0001:0000b150       ?GetDis_AngPointer_S@CDrCurve@@QAEPANXZ 1000c150 f i CalcTime.obj
 0001:0000b180       ?SetDis_AngPointer_S@CDrCurve@@QAEXPAN@Z 1000c180 f i CalcTime.obj
 0001:0000b1b0       ?GetNum_tPointer_S@CDrCurve@@QAEPAHXZ 1000c1b0 f i CalcTime.obj
 0001:0000b1e0       ?SetNum_tPointer_S@CDrCurve@@QAEXPAH@Z 1000c1e0 f i CalcTime.obj
 0001:0000b210       ?GetDis_tPointer_S@CDrCurve@@QAEPANXZ 1000c210 f i CalcTime.obj
 0001:0000b240       ?SetDis_tPointer_S@CDrCurve@@QAEXPAN@Z 1000c240 f i CalcTime.obj
 0001:0000b270       ?GetNum_tPointer_Ex_S@CDrCurve@@QAEPAHXZ 1000c270 f i CalcTime.obj
 0001:0000b2a0       ?SetNum_tPointer_Ex_S@CDrCurve@@QAEXPAH@Z 1000c2a0 f i CalcTime.obj
 0001:0000b2d0       ?GetnBSeg_Ex_S@CDrCurve@@QAEHXZ 1000c2d0 f i CalcTime.obj
 0001:0000b300       ?SetnBSeg_Ex_S@CDrCurve@@QAEXH@Z 1000c300 f i CalcTime.obj
 0001:0000b330       ?GetBSegPointer_Ex_S@CDrCurve@@QAEPAHXZ 1000c330 f i CalcTime.obj
 0001:0000b360       ?SetBSegPointer_Ex_S@CDrCurve@@QAEXPAH@Z 1000c360 f i CalcTime.obj
 0001:0000b390       ?SetAlfa@CDrCurve@@QAEXN@Z 1000c390 f i CalcTime.obj
 0001:0000b3d0       ?SetBias@CDrCurve@@QAEXN@Z 1000c3d0 f i CalcTime.obj
 0001:0000b410       ?SetTension@CDrCurve@@QAEXN@Z 1000c410 f i CalcTime.obj
 0001:0000b450       ?GetMemIn@CDrCurve@@QAEPAUWORLD@@XZ 1000c450 f i CalcTime.obj
 0001:0000b480       ?GetMemInWts@CDrCurve@@QAEPANXZ 1000c480 f i CalcTime.obj
 0001:0000b4b0       ?GetMemInDP@CDrCurve@@QAEPAUtagPOINT@@XZ 1000c4b0 f i CalcTime.obj
 0001:0000b4e0       ?GetMemOut@CDrCurve@@QAEPAUWORLD@@XZ 1000c4e0 f i CalcTime.obj
 0001:0000b510       ?GetMemOutWts@CDrCurve@@QAEPANXZ 1000c510 f i CalcTime.obj
 0001:0000b540       ?GetMemOutDP@CDrCurve@@QAEPAUtagPOINT@@XZ 1000c540 f i CalcTime.obj
 0001:0000b570       ?SetMemIn@CDrCurve@@QAEXPAUWORLD@@@Z 1000c570 f i CalcTime.obj
 0001:0000b5a0       ?SetMemInWts@CDrCurve@@QAEXPAN@Z 1000c5a0 f i CalcTime.obj
 0001:0000b5d0       ?SetMemInDP@CDrCurve@@QAEXPAUtagPOINT@@@Z 1000c5d0 f i CalcTime.obj
 0001:0000b600       ?SetMemOut@CDrCurve@@QAEXPAUWORLD@@@Z 1000c600 f i CalcTime.obj
 0001:0000b630       ?SetMemOutWts@CDrCurve@@QAEXPAN@Z 1000c630 f i CalcTime.obj
 0001:0000b660       ?SetMemOutDP@CDrCurve@@QAEXPAUtagPOINT@@@Z 1000c660 f i CalcTime.obj
 0001:0000b690       ?FixMemD@CDrCurve@@QAEPANJ@Z 1000c690 f i CalcTime.obj
 0001:0000b6e0       ?FreeMemD@CDrCurve@@QAEXPAN@Z 1000c6e0 f i CalcTime.obj
 0001:0000b710       ?FixMem@CDrCurve@@QAEPAUWORLD@@J@Z 1000c710 f i CalcTime.obj
 0001:0000b760       ?FreeMem@CDrCurve@@QAEXPAUWORLD@@@Z 1000c760 f i CalcTime.obj
 0001:0000b790       ?FixMemDP@CDrCurve@@QAEPAUtagPOINT@@J@Z 1000c790 f i CalcTime.obj
 0001:0000b7e0       ?FreeMemDP@CDrCurve@@QAEXPAUtagPOINT@@@Z 1000c7e0 f i CalcTime.obj
 0001:0000b810       ?GetData_S@CDrCurve@@QAEHXZ 1000c810 f i CalcTime.obj
 0001:0000b840       ?SetData_S@CDrCurve@@QAEXH@Z 1000c840 f i CalcTime.obj
 0001:0000b870       ?GetOrder_S@CDrCurve@@QAEHXZ 1000c870 f i CalcTime.obj
 0001:0000b8a0       ?SetOrder_S@CDrCurve@@QAEXH@Z 1000c8a0 f i CalcTime.obj
 0001:0000b8d0       ?GetKnotType_S@CDrCurve@@QAE?AW4KNOT@@XZ 1000c8d0 f i CalcTime.obj
 0001:0000b900       ?SetKnotType_S@CDrCurve@@QAEXW4KNOT@@@Z 1000c900 f i CalcTime.obj
 0001:0000b930       ?GetWtType_S@CDrCurve@@QAE?AW4WEIGHT@@XZ 1000c930 f i CalcTime.obj
 0001:0000b960       ?SetWtType_S@CDrCurve@@QAEXW4WEIGHT@@@Z 1000c960 f i CalcTime.obj
 0001:0000b990       ?GetBCL_S@CDrCurve@@QAE?AW4BOUNDARY@@XZ 1000c990 f i CalcTime.obj
 0001:0000b9c0       ?SetBCL_S@CDrCurve@@QAEXW4BOUNDARY@@@Z 1000c9c0 f i CalcTime.obj
 0001:0000b9f0       ?GetBCR_S@CDrCurve@@QAE?AW4BOUNDARY@@XZ 1000c9f0 f i CalcTime.obj
 0001:0000ba20       ?SetBCR_S@CDrCurve@@QAEXW4BOUNDARY@@@Z 1000ca20 f i CalcTime.obj
 0001:0000ba50       ?GetTanL_S@CDrCurve@@QAE?AUVECTOR@@XZ 1000ca50 f i CalcTime.obj
 0001:0000ba90       ?SetTanL_S@CDrCurve@@QAEXUVECTOR@@@Z 1000ca90 f i CalcTime.obj
 0001:0000bad0       ?GetTanR_S@CDrCurve@@QAE?AUVECTOR@@XZ 1000cad0 f i CalcTime.obj
 0001:0000bb10       ?SetTanR_S@CDrCurve@@QAEXUVECTOR@@@Z 1000cb10 f i CalcTime.obj
 0001:0000bb50       ?GetnCon_BS_S@CDrCurve@@QAEHXZ 1000cb50 f i CalcTime.obj
 0001:0000bb80       ?SetnCon_BS_S@CDrCurve@@QAEXH@Z 1000cb80 f i CalcTime.obj
 0001:0000bbb0       ?GetnCon_BZ_S@CDrCurve@@QAEHXZ 1000cbb0 f i CalcTime.obj
 0001:0000bbe0       ?SetnCon_BZ_S@CDrCurve@@QAEXH@Z 1000cbe0 f i CalcTime.obj
 0001:0000bc10       ?GetnMKnots_S@CDrCurve@@QAEHXZ 1000cc10 f i CalcTime.obj
 0001:0000bc40       ?SetnMKnots_S@CDrCurve@@QAEXH@Z 1000cc40 f i CalcTime.obj
 0001:0000bc70       ?GetnKnots_S@CDrCurve@@QAEHXZ 1000cc70 f i CalcTime.obj
 0001:0000bca0       ?SetnKnots_S@CDrCurve@@QAEXH@Z 1000cca0 f i CalcTime.obj
 0001:0000bcd0       ?GetnDim_S@CDrCurve@@QAEHXZ 1000ccd0 f i CalcTime.obj
 0001:0000bd00       ?SetnDim_S@CDrCurve@@QAEXH@Z 1000cd00 f i CalcTime.obj
 0001:0000bd30       ?GetpMKnots_S@CDrCurve@@QAEPANXZ 1000cd30 f i CalcTime.obj
 0001:0000bd60       ?SetpMKnots_S@CDrCurve@@QAEXPAN@Z 1000cd60 f i CalcTime.obj
 0001:0000bd90       ?GetpWts_BS_S@CDrCurve@@QAEPANXZ 1000cd90 f i CalcTime.obj
 0001:0000bdc0       ?SetpWts_BS_S@CDrCurve@@QAEXPAN@Z 1000cdc0 f i CalcTime.obj
 0001:0000bdf0       ?GetpKnots_S@CDrCurve@@QAEPANXZ 1000cdf0 f i CalcTime.obj
 0001:0000be20       ?SetpKnots_S@CDrCurve@@QAEXPAN@Z 1000ce20 f i CalcTime.obj
 0001:0000be50       ?GetpWts_DT_S@CDrCurve@@QAEPANXZ 1000ce50 f i CalcTime.obj
 0001:0000be80       ?SetpWts_DT_S@CDrCurve@@QAEXPAN@Z 1000ce80 f i CalcTime.obj
 0001:0000beb0       ?GetpWts_BZ_S@CDrCurve@@QAEPANXZ 1000ceb0 f i CalcTime.obj
 0001:0000bee0       ?SetpWts_BZ_S@CDrCurve@@QAEXPAN@Z 1000cee0 f i CalcTime.obj
 0001:0000bf10       ?GetFromIDNode_S@CDrCurve@@QAEPAVCDrNode@@XZ 1000cf10 f i CalcTime.obj
 0001:0000bf40       ?SetFromIDNode_S@CDrCurve@@QAEXPAVCDrNode@@@Z 1000cf40 f i CalcTime.obj
 0001:0000bf70       ?GetToIDNode_S@CDrCurve@@QAEPAVCDrNode@@XZ 1000cf70 f i CalcTime.obj
 0001:0000bfa0       ?SetToIDNode_S@CDrCurve@@QAEXPAVCDrNode@@@Z 1000cfa0 f i CalcTime.obj
 0001:0000bfd0       ?GetData_Ex_S@CDrCurve@@QAEHXZ 1000cfd0 f i CalcTime.obj
 0001:0000c000       ?SetData_Ex_S@CDrCurve@@QAEXH@Z 1000d000 f i CalcTime.obj
 0001:0000c030       ?IsExpanded_S@CDrCurve@@QAEHXZ 1000d030 f i CalcTime.obj
 0001:0000c060       ?SetExpanded_S@CDrCurve@@QAEXH@Z 1000d060 f i CalcTime.obj
 0001:0000c090       ?GetMaxENodes_S@CDrCurve@@QAEHXZ 1000d090 f i CalcTime.obj
 0001:0000c0c0       ?SetMaxENodes_S@CDrCurve@@QAEXH@Z 1000d0c0 f i CalcTime.obj
 0001:0000c0f0       ?GetRadius_S@CDrCurve@@QAENXZ 1000d0f0 f i CalcTime.obj
 0001:0000c120       ?SetRadius_S@CDrCurve@@QAEXN@Z 1000d120 f i CalcTime.obj
 0001:0000c160       ?GetTheta_S@CDrCurve@@QAENXZ 1000d160 f i CalcTime.obj
 0001:0000c190       ?SetTheta_S@CDrCurve@@QAEXN@Z 1000d190 f i CalcTime.obj
 0001:0000c1d0       ?GetCenter_S@CDrCurve@@QAE?AUWORLD@@XZ 1000d1d0 f i CalcTime.obj
 0001:0000c210       ?SetCenter_S@CDrCurve@@QAEXUWORLD@@@Z 1000d210 f i CalcTime.obj
 0001:0000c280       ?GetNormal_S@CDrCurve@@QAE?AUWORLD@@XZ 1000d280 f i CalcTime.obj
 0001:0000c2c0       ?SetNormal_S@CDrCurve@@QAEXUWORLD@@@Z 1000d2c0 f i CalcTime.obj
 0001:0000c330       ?GetSegAngle_S@CDrCurve@@QAENXZ 1000d330 f i CalcTime.obj
 0001:0000c360       ?SetSegAngle_S@CDrCurve@@QAEXN@Z 1000d360 f i CalcTime.obj
 0001:0000c3a0       ?GetCNode_CC@CDrCurve@@QAEPAVCDrNode@@XZ 1000d3a0 f i CalcTime.obj
 0001:0000c3d0       ?SetCNode_CC@CDrCurve@@QAEXPAVCDrNode@@@Z 1000d3d0 f i CalcTime.obj
 0001:0000c400       ?GetCNode_TI@CDrCurve@@QAEPAVCDrNode@@XZ 1000d400 f i CalcTime.obj
 0001:0000c430       ?SetCNode_TI@CDrCurve@@QAEXPAVCDrNode@@@Z 1000d430 f i CalcTime.obj
 0001:0000c460       ?GetCNode_CA@CDrCurve@@QAEPAVCDrNode@@XZ 1000d460 f i CalcTime.obj
 0001:0000c490       ?SetCNode_CA@CDrCurve@@QAEXPAVCDrNode@@@Z 1000d490 f i CalcTime.obj
 0001:0000c4c0       ?GetCNode_CB@CDrCurve@@QAEPAVCDrNode@@XZ 1000d4c0 f i CalcTime.obj
 0001:0000c4f0       ?SetCNode_CB@CDrCurve@@QAEXPAVCDrNode@@@Z 1000d4f0 f i CalcTime.obj
 0001:0000c520       ?IsHole_S@CDrCurve@@QAEHXZ 1000d520 f i CalcTime.obj
 0001:0000c550       ?SetHole_S@CDrCurve@@QAEXH@Z 1000d550 f i CalcTime.obj
 0001:0000c580       ?GetpTangents_S@CDrCurve@@QAEPAUWORLD@@XZ 1000d580 f i CalcTime.obj
 0001:0000c5b0       ?SetpTangents_S@CDrCurve@@QAEXPAUWORLD@@@Z 1000d5b0 f i CalcTime.obj
 0001:0000c5e0       ?GetpCurvatures_S@CDrCurve@@QAEPANXZ 1000d5e0 f i CalcTime.obj
 0001:0000c610       ?SetpCurvatures_S@CDrCurve@@QAEXPAN@Z 1000d610 f i CalcTime.obj
 0001:0000c640       ?GetRatio_S@CDrCurve@@QAENXZ 1000d640 f i CalcTime.obj
 0001:0000c670       ?SetRatio_S@CDrCurve@@QAEXN@Z 1000d670 f i CalcTime.obj
 0001:0000c6b0       ?IsAxisInput@CDrCurve@@QAEHXZ 1000d6b0 f i CalcTime.obj
 0001:0000c6e0       ?SetAxisInput@CDrCurve@@QAEXH@Z 1000d6e0 f i CalcTime.obj
 0001:0000c710       ?GetAxis@CDrCurve@@QAEHXZ  1000d710 f i CalcTime.obj
 0001:0000c740       ?SetAxis@CDrCurve@@QAEXH@Z 1000d740 f i CalcTime.obj
 0001:0000c770       ?IsNegative@CDrCurve@@QAEHXZ 1000d770 f i CalcTime.obj
 0001:0000c7a0       ?SetNegative@CDrCurve@@QAEXH@Z 1000d7a0 f i CalcTime.obj
 0001:0000c7d0       ?GetCircleType@CDrCurve@@QAE?AW4CIRCLETYPE@@XZ 1000d7d0 f i CalcTime.obj
 0001:0000c800       ?SetCircleType@CDrCurve@@QAEXW4CIRCLETYPE@@@Z 1000d800 f i CalcTime.obj
 0001:0000c830       ?GetInputType@CDrCurve@@QAEHXZ 1000d830 f i CalcTime.obj
 0001:0000c860       ?SetInputType@CDrCurve@@QAEXH@Z 1000d860 f i CalcTime.obj
 0001:0000c890       ?IsArcType@CDrCurve@@QAEHXZ 1000d890 f i CalcTime.obj
 0001:0000c8c0       ?SetArcType@CDrCurve@@QAEXH@Z 1000d8c0 f i CalcTime.obj
 0001:0000c8f0       ?GetElperSegList_S@CDrCurve@@QAEPAV?$CList@HH@@XZ 1000d8f0 f i CalcTime.obj
 0001:0000c920       ?IsSkewed@CDrCurve@@UAEHXZ 1000d920 f i CalcTime.obj
 0001:0000c950       ?SetSkewed@CDrCurve@@UAEXH@Z 1000d950 f i CalcTime.obj
 0001:0000c980       ?IsLinSpr@CDrCurve@@UAEHXZ 1000d980 f i CalcTime.obj
 0001:0000c9b0       ?SetLinSpr@CDrCurve@@UAEXH@Z 1000d9b0 f i CalcTime.obj
 0001:0000c9e0       ?IsLinSnu@CDrCurve@@UAEHXZ 1000d9e0 f i CalcTime.obj
 0001:0000ca10       ?SetLinSnu@CDrCurve@@UAEXH@Z 1000da10 f i CalcTime.obj
 0001:0000ca40       ?CullWorld@CDrCurve@@UAEHUWORLD@@@Z 1000da40 f i CalcTime.obj
 0001:0000ca60       ?CullScreen@CDrCurve@@UAEHPAUMATRIX@@@Z 1000da60 f i CalcTime.obj
 0001:0000ca80       ?Calc_CentroidWorld@CDrCurve@@UAEXXZ 1000da80 f i CalcTime.obj
 0001:0000caa0       ?Calc_CentroidEye@CDrCurve@@UAEXXZ 1000daa0 f i CalcTime.obj
 0001:0000cac0       ?Calc_CentroidScreen3D@CDrCurve@@UAEXNN@Z 1000dac0 f i CalcTime.obj
 0001:0000cae0       ?Calc_NormalWorld@CDrCurve@@UAEXXZ 1000dae0 f i CalcTime.obj
 0001:0000cb00       ?TransformNormalToEye@CDrCurve@@UAEXPAUMATRIX@@@Z 1000db00 f i CalcTime.obj
 0001:0000cb20       ?ProjectNormalToScreen3D@CDrCurve@@UAEXPAUMATRIX@@NN@Z 1000db20 f i CalcTime.obj
 0001:0000cb40       ?GetNormalWorld@CDrCurve@@UAEPAUWORLD@@XZ 1000db40 f i CalcTime.obj
 0001:0000cb60       ?SetNormalWorld@CDrCurve@@UAEXUWORLD@@@Z 1000db60 f i CalcTime.obj
 0001:0000cb80       ?GetNormalEye@CDrCurve@@UAEPAUWORLD@@XZ 1000db80 f i CalcTime.obj
 0001:0000cba0       ?SetNormalEye@CDrCurve@@UAEXUWORLD@@@Z 1000dba0 f i CalcTime.obj
 0001:0000cbc0       ?GetNormalScreen3D@CDrCurve@@UAEPAUWORLD@@XZ 1000dbc0 f i CalcTime.obj
 0001:0000cbe0       ?SetNormalScreen3D@CDrCurve@@UAEXUWORLD@@@Z 1000dbe0 f i CalcTime.obj
 0001:0000cc00       ?GetNormalScreen2D@CDrCurve@@UAEPAUtagPOINT@@XZ 1000dc00 f i CalcTime.obj
 0001:0000cc20       ?SetNormalScreen2D@CDrCurve@@UAEXUtagPOINT@@@Z 1000dc20 f i CalcTime.obj
 0001:0000cc40       ?GetNodTopoList@CDrCurve@@QAEPAVCDListMgr@@XZ 1000dc40 f i CalcTime.obj
 0001:0000cc70       ?GetSuppCardList@CDrCurve@@QAEPAV?$CList@Usupportcard@@U1@@@XZ 1000dc70 f i CalcTime.obj
 0001:0000cca0       ?GetStaLCardList@CDrCurve@@QAEPAV?$CList@UstaLcard@@U1@@@XZ 1000dca0 f i CalcTime.obj
 0001:0000ccd0       ?GetBndryPtList@CDrCurve@@QAEPAV?$CList@UWORLD@@U1@@@XZ 1000dcd0 f i CalcTime.obj
 0001:0000cd00       ?GetBezierType@CDrCurve@@QAE?AW4BEZIERTYPE@@XZ 1000dd00 f i CalcTime.obj
 0001:0000cd30       ?SetBezierType@CDrCurve@@QAEXW4BEZIERTYPE@@@Z 1000dd30 f i CalcTime.obj
 0001:0000cd60       ?IsSubDivided@CTriangle@@UAEHXZ 1000dd60 f i CalcTime.obj
 0001:0000cd80       ?SetSubDivided@CTriangle@@UAEXH@Z 1000dd80 f i CalcTime.obj
 0001:0000cdb0       ?GetSubTriangleIndex@CTriangle@@UAEHH@Z 1000ddb0 f i CalcTime.obj
 0001:0000cde0       ?SetSubTriangleIndex@CTriangle@@UAEXHH@Z 1000dde0 f i CalcTime.obj
 0001:0000ce10       ?GetType@CTriangle@@UAEHXZ 1000de10 f i CalcTime.obj
 0001:0000ce30       ?SetType@CTriangle@@UAEXH@Z 1000de30 f i CalcTime.obj
 0001:0000ce60       ?GetCNIndexList@CTriangle@@UAEPAV?$CList@HH@@XZ 1000de60 f i CalcTime.obj
 0001:0000ce80       ?GetPatIndex@CTriangle@@UAEHXZ 1000de80 f i CalcTime.obj
 0001:0000cea0       ?SetPatIndex@CTriangle@@UAEXH@Z 1000dea0 f i CalcTime.obj
 0001:0000ced0       ?GetDegree@CTriangle@@UAEHXZ 1000ded0 f i CalcTime.obj
 0001:0000cef0       ?SetDegree@CTriangle@@UAEXH@Z 1000def0 f i CalcTime.obj
 0001:0000cf20       ?GetVertexIndex@CTriangle@@UAEHH@Z 1000df20 f i CalcTime.obj
 0001:0000cf50       ?SetVertexIndex@CTriangle@@UAEXHH@Z 1000df50 f i CalcTime.obj
 0001:0000cf80       ?GetVertexIndex@CTriangle@@UAEPAHXZ 1000df80 f i CalcTime.obj
 0001:0000cfa0       ?GetNebrVertexIndex@CTriangle@@UAEHH@Z 1000dfa0 f i CalcTime.obj
 0001:0000cfd0       ?SetNebrVertexIndex@CTriangle@@UAEXHH@Z 1000dfd0 f i CalcTime.obj
 0001:0000d000       ?GetNebrVertexIndex@CTriangle@@UAEPAHXZ 1000e000 f i CalcTime.obj
 0001:0000d020       ?GetNebrTriangleIndex@CTriangle@@UAEHH@Z 1000e020 f i CalcTime.obj
 0001:0000d050       ?SetNebrTriangleIndex@CTriangle@@UAEXHH@Z 1000e050 f i CalcTime.obj
 0001:0000d080       ?GetNebrTriangleIndex@CTriangle@@UAEPAHXZ 1000e080 f i CalcTime.obj
 0001:0000d0a0       ?GetOutSeg@CTriangle@@UAEHXZ 1000e0a0 f i CalcTime.obj
 0001:0000d0c0       ?SetOutSeg@CTriangle@@UAEXH@Z 1000e0c0 f i CalcTime.obj
 0001:0000d0f0       ?GetiOutGlo@CTriangle@@UAEHXZ 1000e0f0 f i CalcTime.obj
 0001:0000d120       ?SetiOutGlo@CTriangle@@UAEXH@Z 1000e120 f i CalcTime.obj
 0001:0000d150       ?GetjOutGlo@CTriangle@@UAEHXZ 1000e150 f i CalcTime.obj
 0001:0000d180       ?SetjOutGlo@CTriangle@@UAEXH@Z 1000e180 f i CalcTime.obj
 0001:0000d1b0       ??1CTriangle@@UAE@XZ       1000e1b0 f i CalcTime.obj
 0001:0000d230       ??_GCTriangle@@UAEPAXI@Z   1000e230 f i CalcTime.obj
 0001:0000d270       ??_ECTriangle@@UAEPAXI@Z   1000e270 f i CalcTime.obj
 0001:0000d310       ?GetCategory@CDrPatch@@UAE?AW4CATEGORY@@XZ 1000e310 f i CalcTime.obj
 0001:0000d330       ?SetCategory@CDrPatch@@UAEXW4CATEGORY@@@Z 1000e330 f i CalcTime.obj
 0001:0000d360       ?IsNormalNeeded@CDrPatch@@UAEHXZ 1000e360 f i CalcTime.obj
 0001:0000d390       ?SetNormalNeed@CDrPatch@@UAEXH@Z 1000e390 f i CalcTime.obj
 0001:0000d3c0       ?GetCurveType_T@CDrPatch@@QAE?AW4CURVEPROC@@XZ 1000e3c0 f i CalcTime.obj
 0001:0000d3f0       ?SetCurveType_T@CDrPatch@@QAEXW4CURVEPROC@@@Z 1000e3f0 f i CalcTime.obj
 0001:0000d420       ?GetOutSegUnif_T@CDrPatch@@QAEHXZ 1000e420 f i CalcTime.obj
 0001:0000d450       ?SetOutSegUnif_T@CDrPatch@@QAEXH@Z 1000e450 f i CalcTime.obj
 0001:0000d480       ?IsClosed_T@CDrPatch@@QAEHXZ 1000e480 f i CalcTime.obj
 0001:0000d4b0       ?SetClosed_T@CDrPatch@@QAEXH@Z 1000e4b0 f i CalcTime.obj
 0001:0000d4e0       ?GetMaxBezSegments_T@CDrPatch@@QAEHXZ 1000e4e0 f i CalcTime.obj
 0001:0000d510       ?SetMaxBezSegments_T@CDrPatch@@QAEXH@Z 1000e510 f i CalcTime.obj
 0001:0000d540       ?GetMaxCNodes_T@CDrPatch@@QAEHXZ 1000e540 f i CalcTime.obj
 0001:0000d570       ?SetMaxCNodes_T@CDrPatch@@QAEXH@Z 1000e570 f i CalcTime.obj
 0001:0000d5a0       ?GetMaxOutPts_T@CDrPatch@@QAEHXZ 1000e5a0 f i CalcTime.obj
 0001:0000d5d0       ?SetMaxOutPts_T@CDrPatch@@QAEXH@Z 1000e5d0 f i CalcTime.obj
 0001:0000d600       ?GetNodes_S@CDrPatch@@QAEHXZ 1000e600 f i CalcTime.obj
 0001:0000d630       ?SetNodes_S@CDrPatch@@QAEXH@Z 1000e630 f i CalcTime.obj
 0001:0000d660       ?GetNodes_T@CDrPatch@@QAEHXZ 1000e660 f i CalcTime.obj
 0001:0000d690       ?SetNodes_T@CDrPatch@@QAEXH@Z 1000e690 f i CalcTime.obj
 0001:0000d6c0       ?GetPrimaryDir@CDrPatch@@QAEHXZ 1000e6c0 f i CalcTime.obj
 0001:0000d6f0       ?SetPrimaryDir@CDrPatch@@QAEXH@Z 1000e6f0 f i CalcTime.obj
 0001:0000d720       ?GetBlendCurve@CDrPatch@@QAEPAVCDrCurve@@XZ 1000e720 f i CalcTime.obj
 0001:0000d750       ?SetBlendCurve@CDrPatch@@QAEXPAVCDrCurve@@@Z 1000e750 f i CalcTime.obj
 0001:0000d780       ?GetBlendCurve_U@CDrPatch@@QAEPAVCDrCurve@@XZ 1000e780 f i CalcTime.obj
 0001:0000d7b0       ?SetBlendCurve_U@CDrPatch@@QAEXPAVCDrCurve@@@Z 1000e7b0 f i CalcTime.obj
 0001:0000d7e0       ?GetBlendCurve_V@CDrPatch@@QAEPAVCDrCurve@@XZ 1000e7e0 f i CalcTime.obj
 0001:0000d810       ?SetBlendCurve_V@CDrPatch@@QAEXPAVCDrCurve@@@Z 1000e810 f i CalcTime.obj
 0001:0000d840       ?GetBlendCurve_W@CDrPatch@@QAEPAVCDrCurve@@XZ 1000e840 f i CalcTime.obj
 0001:0000d870       ?SetBlendCurve_W@CDrPatch@@QAEXPAVCDrCurve@@@Z 1000e870 f i CalcTime.obj
 0001:0000d8a0       ?GetVCurveList@CDrPatch@@QAEPAVCDListMgr@@XZ 1000e8a0 f i CalcTime.obj
 0001:0000d8d0       ?GetCurveList_U@CDrPatch@@QAEPAVCDListMgr@@XZ 1000e8d0 f i CalcTime.obj
 0001:0000d900       ?GetCurveList_V@CDrPatch@@QAEPAVCDListMgr@@XZ 1000e900 f i CalcTime.obj
 0001:0000d930       ?GetCurveList_W@CDrPatch@@QAEPAVCDListMgr@@XZ 1000e930 f i CalcTime.obj
 0001:0000d960       ?GetCurveLatchList_U@CDrPatch@@QAEPAV?$CList@W4CURVELATCH@@W41@@@XZ 1000e960 f i CalcTime.obj
 0001:0000d990       ?GetCurveLatchList_V@CDrPatch@@QAEPAV?$CList@W4CURVELATCH@@W41@@@XZ 1000e990 f i CalcTime.obj
 0001:0000d9c0       ?GetCurveLatchList_W@CDrPatch@@QAEPAV?$CList@W4CURVELATCH@@W41@@@XZ 1000e9c0 f i CalcTime.obj
 0001:0000d9f0       ?IsAdvancedEnd_U@CDrPatch@@QAEHXZ 1000e9f0 f i CalcTime.obj
 0001:0000da20       ?SetAdvancedEnd_U@CDrPatch@@QAEXH@Z 1000ea20 f i CalcTime.obj
 0001:0000da50       ?GetCornerTwist_U@CDrPatch@@QAEPAY01UWORLD@@XZ 1000ea50 f i CalcTime.obj
 0001:0000da80       ?SetCornerTwist_U@CDrPatch@@QAEXPAY01UWORLD@@@Z 1000ea80 f i CalcTime.obj
 0001:0000dab0       ?GetTwistMethod_U@CDrPatch@@QAE?AW4TWIST@@XZ 1000eab0 f i CalcTime.obj
 0001:0000dae0       ?SetTwistMethod_U@CDrPatch@@QAEXW4TWIST@@@Z 1000eae0 f i CalcTime.obj
 0001:0000db10       ?IsAdvancedEnd_V@CDrPatch@@QAEHXZ 1000eb10 f i CalcTime.obj
 0001:0000db40       ?SetAdvancedEnd_V@CDrPatch@@QAEXH@Z 1000eb40 f i CalcTime.obj
 0001:0000db70       ?GetCornerTwist_V@CDrPatch@@QAEPAY01UWORLD@@XZ 1000eb70 f i CalcTime.obj
 0001:0000dba0       ?SetCornerTwist_V@CDrPatch@@QAEXPAY01UWORLD@@@Z 1000eba0 f i CalcTime.obj
 0001:0000dbd0       ?GetTwistMethod_V@CDrPatch@@QAE?AW4TWIST@@XZ 1000ebd0 f i CalcTime.obj
 0001:0000dc00       ?SetTwistMethod_V@CDrPatch@@QAEXW4TWIST@@@Z 1000ec00 f i CalcTime.obj
 0001:0000dc30       ?GetEndList_U@CDrPatch@@QAEPAV?$CList@Ublendend@@U1@@@XZ 1000ec30 f i CalcTime.obj
 0001:0000dc60       ?GetEndList_V@CDrPatch@@QAEPAV?$CList@Ublendend@@U1@@@XZ 1000ec60 f i CalcTime.obj
 0001:0000dc90       ?GetElperSegList_T@CDrPatch@@QAEPAV?$CList@HH@@XZ 1000ec90 f i CalcTime.obj
 0001:0000dcc0       ?GetCurveID@CDrPatch@@QAE?AVCString@@H@Z 1000ecc0 f i CalcTime.obj
 0001:0000dd10       ?SetCurveID@CDrPatch@@QAEXVCString@@H@Z 1000ed10 f i CalcTime.obj
 0001:0000dd90       ?GetBndryCurve@CDrPatch@@QAEPAVCDrCurve@@H@Z 1000ed90 f i CalcTime.obj
 0001:0000ddc0       ?SetCurve@CDrPatch@@QAEXPAVCDrCurve@@H@Z 1000edc0 f i CalcTime.obj
 0001:0000ddf0       ?GetCurveLatch@CDrPatch@@QAE?AW4CURVELATCH@@H@Z 1000edf0 f i CalcTime.obj
 0001:0000de20       ?SetCurveLatch@CDrPatch@@QAEXW4CURVELATCH@@H@Z 1000ee20 f i CalcTime.obj
 0001:0000de50       ?GetFromIDNode_T@CDrPatch@@QAEPAVCDrNode@@XZ 1000ee50 f i CalcTime.obj
 0001:0000de80       ?SetFromIDNode_T@CDrPatch@@QAEXPAVCDrNode@@@Z 1000ee80 f i CalcTime.obj
 0001:0000deb0       ?GetToIDNode_T@CDrPatch@@QAEPAVCDrNode@@XZ 1000eeb0 f i CalcTime.obj
 0001:0000dee0       ?SetToIDNode_T@CDrPatch@@QAEXPAVCDrNode@@@Z 1000eee0 f i CalcTime.obj
 0001:0000df10       ?GetFromPtLocal_T@CDrPatch@@QAEPAUWORLD@@XZ 1000ef10 f i CalcTime.obj
 0001:0000df40       ?SetFromPtLocal_T@CDrPatch@@QAEXUWORLD@@@Z 1000ef40 f i CalcTime.obj
 0001:0000df80       ?GetToPtLocal_T@CDrPatch@@QAEPAUWORLD@@XZ 1000ef80 f i CalcTime.obj
 0001:0000dfb0       ?SetToPtLocal_T@CDrPatch@@QAEXUWORLD@@@Z 1000efb0 f i CalcTime.obj
 0001:0000dff0       ?GetFromPtWorld_T@CDrPatch@@QAEPAUWORLD@@XZ 1000eff0 f i CalcTime.obj
 0001:0000e020       ?SetFromPtWorld_T@CDrPatch@@QAEXUWORLD@@@Z 1000f020 f i CalcTime.obj
 0001:0000e060       ?GetToPtWorld_T@CDrPatch@@QAEPAUWORLD@@XZ 1000f060 f i CalcTime.obj
 0001:0000e090       ?SetToPtWorld_T@CDrPatch@@QAEXUWORLD@@@Z 1000f090 f i CalcTime.obj
 0001:0000e0d0       ?GetFromPtEye_T@CDrPatch@@QAEPAUWORLD@@XZ 1000f0d0 f i CalcTime.obj
 0001:0000e100       ?SetFromPtEye_T@CDrPatch@@QAEXUWORLD@@@Z 1000f100 f i CalcTime.obj
 0001:0000e140       ?GetToPtEye_T@CDrPatch@@QAEPAUWORLD@@XZ 1000f140 f i CalcTime.obj
 0001:0000e170       ?SetToPtEye_T@CDrPatch@@QAEXUWORLD@@@Z 1000f170 f i CalcTime.obj
 0001:0000e1b0       ?GetAxis_T@CDrPatch@@QAEPAUWORLD@@XZ 1000f1b0 f i CalcTime.obj
 0001:0000e1e0       ?SetAxis_T@CDrPatch@@QAEXUWORLD@@@Z 1000f1e0 f i CalcTime.obj
 0001:0000e220       ?GetExtruType_T@CDrPatch@@QAEHXZ 1000f220 f i CalcTime.obj
 0001:0000e250       ?SetExtruType_T@CDrPatch@@QAEXH@Z 1000f250 f i CalcTime.obj
 0001:0000e280       ?GetLength_T@CDrPatch@@QAENXZ 1000f280 f i CalcTime.obj
 0001:0000e2b0       ?SetLength_T@CDrPatch@@QAEXN@Z 1000f2b0 f i CalcTime.obj
 0001:0000e2f0       ?GetWorldLength_T@CDrPatch@@QAE?AUWORLD@@XZ 1000f2f0 f i CalcTime.obj
 0001:0000e330       ?SetWorldLength_T@CDrPatch@@QAEXUWORLD@@@Z 1000f330 f i CalcTime.obj
 0001:0000e370       ?GetSegs_T@CDrPatch@@QAEHXZ 1000f370 f i CalcTime.obj
 0001:0000e3a0       ?SetSegs_T@CDrPatch@@QAEXH@Z 1000f3a0 f i CalcTime.obj
 0001:0000e3d0       ?IsAxisInput_T@CDrPatch@@QAEHXZ 1000f3d0 f i CalcTime.obj
 0001:0000e400       ?SetAxisInput_T@CDrPatch@@QAEXH@Z 1000f400 f i CalcTime.obj
 0001:0000e430       ?GetAxisType_T@CDrPatch@@QAEHXZ 1000f430 f i CalcTime.obj
 0001:0000e460       ?SetAxisType_T@CDrPatch@@QAEXH@Z 1000f460 f i CalcTime.obj
 0001:0000e490       ?IsNegative_T@CDrPatch@@QAEHXZ 1000f490 f i CalcTime.obj
 0001:0000e4c0       ?SetNegative_T@CDrPatch@@QAEXH@Z 1000f4c0 f i CalcTime.obj
 0001:0000e4f0       ?GetCircleType_T@CDrPatch@@QAE?AW4CIRCLETYPE@@XZ 1000f4f0 f i CalcTime.obj
 0001:0000e520       ?SetCircleType_T@CDrPatch@@QAEXW4CIRCLETYPE@@@Z 1000f520 f i CalcTime.obj
 0001:0000e550       ?GetAng_1_T@CDrPatch@@QAENXZ 1000f550 f i CalcTime.obj
 0001:0000e580       ?SetAng_1_T@CDrPatch@@QAEXN@Z 1000f580 f i CalcTime.obj
 0001:0000e5c0       ?GetAng_2_T@CDrPatch@@QAENXZ 1000f5c0 f i CalcTime.obj
 0001:0000e5f0       ?SetAng_2_T@CDrPatch@@QAEXN@Z 1000f5f0 f i CalcTime.obj
 0001:0000e630       ?GetPatchProc@CDrPatch@@QAE?AW4PATCHPROC@@XZ 1000f630 f i CalcTime.obj
 0001:0000e660       ?SetPatchProc@CDrPatch@@QAEXW4PATCHPROC@@@Z 1000f660 f i CalcTime.obj
 0001:0000e690       ?GetPatchType@CDrPatch@@QAE?AW4PATCHTYPE@@XZ 1000f690 f i CalcTime.obj
 0001:0000e6c0       ?SetPatchType@CDrPatch@@QAEXW4PATCHTYPE@@@Z 1000f6c0 f i CalcTime.obj
 0001:0000e6f0       ?GetPatSubType@CDrPatch@@QAE?AW4PATSUBTYPE@@XZ 1000f6f0 f i CalcTime.obj
 0001:0000e720       ?SetPatSubType@CDrPatch@@QAEXW4PATSUBTYPE@@@Z 1000f720 f i CalcTime.obj
 0001:0000e750       ?GetOut_S@CDrPatch@@QAEHXZ 1000f750 f i CalcTime.obj
 0001:0000e780       ?SetOut_S@CDrPatch@@QAEXH@Z 1000f780 f i CalcTime.obj
 0001:0000e7b0       ?GetOut_T@CDrPatch@@QAEHXZ 1000f7b0 f i CalcTime.obj
 0001:0000e7e0       ?SetOut_T@CDrPatch@@QAEXH@Z 1000f7e0 f i CalcTime.obj
 0001:0000e810       ?GetTotalElems@CDrPatch@@QAEJXZ 1000f810 f i CalcTime.obj
 0001:0000e840       ?SetTotalElems@CDrPatch@@QAEXJ@Z 1000f840 f i CalcTime.obj
 0001:0000e870       ?GetPtrTangents_S@CDrPatch@@QAEPAUWORLD@@XZ 1000f870 f i CalcTime.obj
 0001:0000e8a0       ?GetPtrTangents_T@CDrPatch@@QAEPAUWORLD@@XZ 1000f8a0 f i CalcTime.obj
 0001:0000e8d0       ?GetPtrNormals@CDrPatch@@QAEPAUWORLD@@XZ 1000f8d0 f i CalcTime.obj
 0001:0000e900       ?GetPtrTwists@CDrPatch@@QAEPAUWORLD@@XZ 1000f900 f i CalcTime.obj
 0001:0000e930       ?GetMemIn@CDrPatch@@UAEPAUWORLD@@H@Z 1000f930 f i CalcTime.obj
 0001:0000e960       ?SetMemIn@CDrPatch@@UAEXPAUWORLD@@H@Z 1000f960 f i CalcTime.obj
 0001:0000e990       ?SetMemIn@CDrPatch@@UAEXPAUWORLD@@@Z 1000f990 f i CalcTime.obj
 0001:0000e9c0       ?SetMemInDP@CDrPatch@@UAEXPAUtagPOINT@@@Z 1000f9c0 f i CalcTime.obj
 0001:0000e9f0       ?SetMemOut@CDrPatch@@UAEXPAUWORLD@@@Z 1000f9f0 f i CalcTime.obj
 0001:0000ea20       ?SetMemOutDP@CDrPatch@@UAEXPAUtagPOINT@@@Z 1000fa20 f i CalcTime.obj
 0001:0000ea50       ?IsUniform_T@CDrPatch@@QAEHXZ 1000fa50 f i CalcTime.obj
 0001:0000ea80       ?SetUniform_T@CDrPatch@@QAEXH@Z 1000fa80 f i CalcTime.obj
 0001:0000eab0       ?GetClass_T@CDrPatch@@QAEHXZ 1000fab0 f i CalcTime.obj
 0001:0000eae0       ?SetClass_T@CDrPatch@@QAEXH@Z 1000fae0 f i CalcTime.obj
 0001:0000eb10       ?GetOrder_T@CDrPatch@@QAEHXZ 1000fb10 f i CalcTime.obj
 0001:0000eb40       ?SetOrder_T@CDrPatch@@QAEXH@Z 1000fb40 f i CalcTime.obj
 0001:0000eb70       ?GetnDim_T@CDrPatch@@QAEHXZ 1000fb70 f i CalcTime.obj
 0001:0000eba0       ?SetnDim_T@CDrPatch@@QAEXH@Z 1000fba0 f i CalcTime.obj
 0001:0000ebd0       ?GetOutMethod_T@CDrPatch@@QAE?AW4PATCHOUTPUT@@XZ 1000fbd0 f i CalcTime.obj
 0001:0000ec00       ?SetOutMethod_T@CDrPatch@@QAEXW4PATCHOUTPUT@@@Z 1000fc00 f i CalcTime.obj
 0001:0000ec30       ?GetMaxOutSeg_T@CDrPatch@@QAEHXZ 1000fc30 f i CalcTime.obj
 0001:0000ec60       ?SetMaxOutSeg_T@CDrPatch@@QAEXH@Z 1000fc60 f i CalcTime.obj
 0001:0000ec90       ?GetNum_tPointer_T@CDrPatch@@QAEPAHXZ 1000fc90 f i CalcTime.obj
 0001:0000ecc0       ?SetNum_tPointer_T@CDrPatch@@QAEXPAH@Z 1000fcc0 f i CalcTime.obj
 0001:0000ecf0       ?GetDis_tPointer_T@CDrPatch@@QAEPANXZ 1000fcf0 f i CalcTime.obj
 0001:0000ed20       ?SetDis_tPointer_T@CDrPatch@@QAEXPAN@Z 1000fd20 f i CalcTime.obj
 0001:0000ed50       ?GetNum_tPointer_Ex_T@CDrPatch@@QAEPAHXZ 1000fd50 f i CalcTime.obj
 0001:0000ed80       ?SetNum_tPointer_Ex_T@CDrPatch@@QAEXPAH@Z 1000fd80 f i CalcTime.obj
 0001:0000edb0       ?GetDis_AngPointer_T@CDrPatch@@QAEPANXZ 1000fdb0 f i CalcTime.obj
 0001:0000ede0       ?SetDis_AngPointer_T@CDrPatch@@QAEXPAN@Z 1000fde0 f i CalcTime.obj
 0001:0000ee10       ?GetData_Ex_T@CDrPatch@@QAEHXZ 1000fe10 f i CalcTime.obj
 0001:0000ee40       ?SetData_Ex_T@CDrPatch@@QAEXH@Z 1000fe40 f i CalcTime.obj
 0001:0000ee70       ?IsExpanded_T@CDrPatch@@QAEHXZ 1000fe70 f i CalcTime.obj
 0001:0000eea0       ?SetExpanded_T@CDrPatch@@QAEXH@Z 1000fea0 f i CalcTime.obj
 0001:0000eed0       ?GetMaxENodes_T@CDrPatch@@QAEHXZ 1000fed0 f i CalcTime.obj
 0001:0000ef00       ?SetMaxENodes_T@CDrPatch@@QAEXH@Z 1000ff00 f i CalcTime.obj
 0001:0000ef30       ?GetRadius_T@CDrPatch@@QAENXZ 1000ff30 f i CalcTime.obj
 0001:0000ef60       ?SetRadius_T@CDrPatch@@QAEXN@Z 1000ff60 f i CalcTime.obj
 0001:0000efa0       ?GetTheta_T@CDrPatch@@QAENXZ 1000ffa0 f i CalcTime.obj
 0001:0000efd0       ?SetTheta_T@CDrPatch@@QAEXN@Z 1000ffd0 f i CalcTime.obj
 0001:0000f010       ?GetCenter_T@CDrPatch@@QAE?AUWORLD@@XZ 10010010 f i CalcTime.obj
 0001:0000f050       ?SetCenter_T@CDrPatch@@QAEXUWORLD@@@Z 10010050 f i CalcTime.obj
 0001:0000f0c0       ?GetNormal_T@CDrPatch@@QAE?AUWORLD@@XZ 100100c0 f i CalcTime.obj
 0001:0000f100       ?SetNormal_T@CDrPatch@@QAEXUWORLD@@@Z 10010100 f i CalcTime.obj
 0001:0000f170       ?GetSegAngle_T@CDrPatch@@QAENXZ 10010170 f i CalcTime.obj
 0001:0000f1a0       ?SetSegAngle_T@CDrPatch@@QAEXN@Z 100101a0 f i CalcTime.obj
 0001:0000f1e0       ?IsHole_T@CDrPatch@@QAEHXZ 100101e0 f i CalcTime.obj
 0001:0000f210       ?SetHole_T@CDrPatch@@QAEXH@Z 10010210 f i CalcTime.obj
 0001:0000f240       ?GetpTangents_T@CDrPatch@@QAEPAUWORLD@@XZ 10010240 f i CalcTime.obj
 0001:0000f270       ?SetpTangents_T@CDrPatch@@QAEXPAUWORLD@@@Z 10010270 f i CalcTime.obj
 0001:0000f2a0       ?GetpCurvatures_T@CDrPatch@@QAEPANXZ 100102a0 f i CalcTime.obj
 0001:0000f2d0       ?SetpCurvatures_T@CDrPatch@@QAEXPAN@Z 100102d0 f i CalcTime.obj
 0001:0000f300       ?GetRatio_T@CDrPatch@@QAENXZ 10010300 f i CalcTime.obj
 0001:0000f330       ?SetRatio_T@CDrPatch@@QAEXN@Z 10010330 f i CalcTime.obj
 0001:0000f370       ?GetTwistType_T@CDrPatch@@QAEHXZ 10010370 f i CalcTime.obj
 0001:0000f3a0       ?SetTwistType_T@CDrPatch@@QAEXH@Z 100103a0 f i CalcTime.obj
 0001:0000f3d0       ?GetTwistList_T@CDrPatch@@QAEPAV?$CList@NN@@XZ 100103d0 f i CalcTime.obj
 0001:0000f400       ?GetScaleType_T@CDrPatch@@QAEHXZ 10010400 f i CalcTime.obj
 0001:0000f430       ?SetScaleType_T@CDrPatch@@QAEXH@Z 10010430 f i CalcTime.obj
 0001:0000f460       ?GetScaleList_T@CDrPatch@@QAEPAV?$CList@NN@@XZ 10010460 f i CalcTime.obj
 0001:0000f490       ?IsIncTwist_T@CDrPatch@@QAEHXZ 10010490 f i CalcTime.obj
 0001:0000f4c0       ?SetIncTwist_T@CDrPatch@@QAEXH@Z 100104c0 f i CalcTime.obj
 0001:0000f4f0       ?GetTwistMult_T@CDrPatch@@QAENXZ 100104f0 f i CalcTime.obj
 0001:0000f520       ?SetTwistMult_T@CDrPatch@@QAEXN@Z 10010520 f i CalcTime.obj
 0001:0000f560       ?GetTwistStart_T@CDrPatch@@QAENXZ 10010560 f i CalcTime.obj
 0001:0000f590       ?SetTwistStart_T@CDrPatch@@QAEXN@Z 10010590 f i CalcTime.obj
 0001:0000f5d0       ?IsIncScale_T@CDrPatch@@QAEHXZ 100105d0 f i CalcTime.obj
 0001:0000f600       ?SetIncScale_T@CDrPatch@@QAEXH@Z 10010600 f i CalcTime.obj
 0001:0000f630       ?GetScaleMult_T@CDrPatch@@QAENXZ 10010630 f i CalcTime.obj
 0001:0000f660       ?SetScaleMult_T@CDrPatch@@QAEXN@Z 10010660 f i CalcTime.obj
 0001:0000f6a0       ?GetScaleStart_T@CDrPatch@@QAENXZ 100106a0 f i CalcTime.obj
 0001:0000f6d0       ?SetScaleStart_T@CDrPatch@@QAEXN@Z 100106d0 f i CalcTime.obj
 0001:0000f710       ?GetWorldTwistMult_T@CDrPatch@@QAE?AUWORLD@@XZ 10010710 f i CalcTime.obj
 0001:0000f750       ?SetWorldTwistMult_T@CDrPatch@@QAEXUWORLD@@@Z 10010750 f i CalcTime.obj
 0001:0000f790       ?GetWorldTwistStart_T@CDrPatch@@QAE?AUWORLD@@XZ 10010790 f i CalcTime.obj
 0001:0000f7d0       ?SetWorldTwistStart_T@CDrPatch@@QAEXUWORLD@@@Z 100107d0 f i CalcTime.obj
 0001:0000f810       ?GetWorldScaleMult_T@CDrPatch@@QAE?AUWORLD@@XZ 10010810 f i CalcTime.obj
 0001:0000f850       ?SetWorldScaleMult_T@CDrPatch@@QAEXUWORLD@@@Z 10010850 f i CalcTime.obj
 0001:0000f890       ?GetWorldScaleStart_T@CDrPatch@@QAE?AUWORLD@@XZ 10010890 f i CalcTime.obj
 0001:0000f8d0       ?SetWorldScaleStart_T@CDrPatch@@QAEXUWORLD@@@Z 100108d0 f i CalcTime.obj
 0001:0000f910       ?GetTriangleList@CDrPatch@@UAEPAVCDListMgr@@XZ 10010910 f i CalcTime.obj
 0001:0000f940       ?GetnOutGlo_S@CDrPatch@@QAEHXZ 10010940 f i CalcTime.obj
 0001:0000f970       ?SetnOutGlo_S@CDrPatch@@QAEXH@Z 10010970 f i CalcTime.obj
 0001:0000f9a0       ?IsGenBCurve@CDrPatch@@QAEHXZ 100109a0 f i CalcTime.obj
 0001:0000f9d0       ?SetGenBCurve@CDrPatch@@QAEXH@Z 100109d0 f i CalcTime.obj
 0001:0000fa00       ?IsEndCondMode@CSheet_PATI@@QAEHXZ 10010a00 f i CalcTime.obj
 0001:0000fa30       ?SetEndCondMode@CSheet_PATI@@QAEXH@Z 10010a30 f i CalcTime.obj
 0001:0000fa60       ?Parse_drPipe@CDrFE1D@@UAEXPAVCString@@@Z 10010a60 f i CalcTime.obj
 0001:0000fa80       ?DoFormattedCardView@CDrFE1D@@UAEXPAVCString@@AAV2@@Z 10010a80 f i CalcTime.obj
 0001:0000faa0       ?DoUnFormattedCardView@CDrFE1D@@UAEXPAVCString@@@Z 10010aa0 f i CalcTime.obj
 0001:0000fac0       ?GetMaxCorners@CDrFE1D@@UAEHXZ 10010ac0 f i CalcTime.obj
 0001:0000fae0       ?GetMemIn@CDrFE1D@@UAEPAUWORLD@@XZ 10010ae0 f i CalcTime.obj
 0001:0000fb10       ?GetMemInWts@CDrFE1D@@UAEPANXZ 10010b10 f i CalcTime.obj
 0001:0000fb40       ?GetMemInDP@CDrFE1D@@UAEPAUtagPOINT@@XZ 10010b40 f i CalcTime.obj
 0001:0000fb70       ?GetMemOut@CDrFE1D@@UAEPAUWORLD@@XZ 10010b70 f i CalcTime.obj
 0001:0000fba0       ?GetMemOutWts@CDrFE1D@@UAEPANXZ 10010ba0 f i CalcTime.obj
 0001:0000fbd0       ?GetMemOutDP@CDrFE1D@@UAEPAUtagPOINT@@XZ 10010bd0 f i CalcTime.obj
 0001:0000fc00       ?SetMemIn@CDrFE1D@@UAEXPAUWORLD@@@Z 10010c00 f i CalcTime.obj
 0001:0000fc30       ?SetMemInWts@CDrFE1D@@UAEXPAN@Z 10010c30 f i CalcTime.obj
 0001:0000fc60       ?SetMemInDP@CDrFE1D@@UAEXPAUtagPOINT@@@Z 10010c60 f i CalcTime.obj
 0001:0000fc90       ?SetMemOut@CDrFE1D@@UAEXPAUWORLD@@@Z 10010c90 f i CalcTime.obj
 0001:0000fcc0       ?SetMemOutWts@CDrFE1D@@UAEXPAN@Z 10010cc0 f i CalcTime.obj
 0001:0000fcf0       ?SetMemOutDP@CDrFE1D@@UAEXPAUtagPOINT@@@Z 10010cf0 f i CalcTime.obj
 0001:0000fd20       ?FixMemD@CDrFE1D@@UAEPANJ@Z 10010d20 f i CalcTime.obj
 0001:0000fd70       ?FreeMemD@CDrFE1D@@UAEXPAN@Z 10010d70 f i CalcTime.obj
 0001:0000fda0       ?FixMem@CDrFE1D@@UAEPAUWORLD@@J@Z 10010da0 f i CalcTime.obj
 0001:0000fdf0       ?FreeMem@CDrFE1D@@UAEXPAUWORLD@@@Z 10010df0 f i CalcTime.obj
 0001:0000fe20       ?FixMemDP@CDrFE1D@@UAEPAUtagPOINT@@J@Z 10010e20 f i CalcTime.obj
 0001:0000fe70       ?FreeMemDP@CDrFE1D@@UAEXPAUtagPOINT@@@Z 10010e70 f i CalcTime.obj
 0001:0000fea0       ?GetnNodes@CDrFE1D@@QAEFXZ 10010ea0 f i CalcTime.obj
 0001:0000fed0       ?SetnNodes@CDrFE1D@@QAEXF@Z 10010ed0 f i CalcTime.obj
 0001:0000ff00       ?GetEdgeDegree@CDrFE1D@@QAEFXZ 10010f00 f i CalcTime.obj
 0001:0000ff30       ?SetEdgeDegree@CDrFE1D@@QAEXF@Z 10010f30 f i CalcTime.obj
 0001:0000ff60       ?GetElNumID@CDrFE1D@@QAEAAVCString@@XZ 10010f60 f i CalcTime.obj
 0001:0000ff90       ?SetElNumID@CDrFE1D@@QAEXVCString@@@Z 10010f90 f i CalcTime.obj
 0001:00010010       ?GetElTypeID@CDrFE1D@@QAEAAVCString@@XZ 10011010 f i CalcTime.obj
 0001:00010040       ?SetElTypeID@CDrFE1D@@QAEXVCString@@@Z 10011040 f i CalcTime.obj
 0001:000100c0       ?Getline_id@CDrFE1D@@QAEAAVCString@@XZ 100110c0 f i CalcTime.obj
 0001:000100f0       ?Setline_id@CDrFE1D@@QAEXVCString@@@Z 100110f0 f i CalcTime.obj
 0001:00010170       ?Getrid@CDrFE1D@@UAEAAVCString@@H@Z 10011170 f i CalcTime.obj
 0001:000101a0       ?Setrid@CDrFE1D@@UAEXVCString@@H@Z 100111a0 f i CalcTime.obj
 0001:00010220       ?Getpid@CDrFE1D@@QAEAAVCString@@XZ 10011220 f i CalcTime.obj
 0001:00010250       ?Setpid@CDrFE1D@@QAEXVCString@@@Z 10011250 f i CalcTime.obj
 0001:000102d0       ?Getmid@CDrFE1D@@QAEAAVCString@@XZ 100112d0 f i CalcTime.obj
 0001:00010300       ?Setmid@CDrFE1D@@QAEXVCString@@@Z 10011300 f i CalcTime.obj
 0001:00010380       ?GetElNum@CDrFE1D@@QAEIXZ  10011380 f i CalcTime.obj
 0001:000103b0       ?SetElNum@CDrFE1D@@QAEXI@Z 100113b0 f i CalcTime.obj
 0001:000103e0       ?GetElTypeNum@CDrFE1D@@QAEIXZ 100113e0 f i CalcTime.obj
 0001:00010410       ?SetElTypeNum@CDrFE1D@@QAEXI@Z 10011410 f i CalcTime.obj
 0001:00010440       ?Getline_no@CDrFE1D@@QAEIXZ 10011440 f i CalcTime.obj
 0001:00010470       ?Setline_no@CDrFE1D@@QAEXI@Z 10011470 f i CalcTime.obj
 0001:000104a0       ?Getrel@CDrFE1D@@UAEIH@Z   100114a0 f i CalcTime.obj
 0001:000104d0       ?Setrel@CDrFE1D@@UAEXIH@Z  100114d0 f i CalcTime.obj
 0001:00010500       ?Getprop@CDrFE1D@@QAEIXZ   10011500 f i CalcTime.obj
 0001:00010530       ?Setprop@CDrFE1D@@QAEXI@Z  10011530 f i CalcTime.obj
 0001:00010560       ?Getmat@CDrFE1D@@QAEIXZ    10011560 f i CalcTime.obj
 0001:00010590       ?Setmat@CDrFE1D@@QAEXI@Z   10011590 f i CalcTime.obj
 0001:000105c0       ?Getnumseg@CDrFE1D@@QAEIXZ 100115c0 f i CalcTime.obj
 0001:000105f0       ?Setnumseg@CDrFE1D@@QAEXI@Z 100115f0 f i CalcTime.obj
 0001:00010620       ?GetRefTemp@CDrFE1D@@QAENXZ 10011620 f i CalcTime.obj
 0001:00010650       ?SetRefTemp@CDrFE1D@@QAEXN@Z 10011650 f i CalcTime.obj
 0001:00010690       ?GetCardNo@CDrFE1D@@QAEIXZ 10011690 f i CalcTime.obj
 0001:000106c0       ?SetCardNo@CDrFE1D@@QAEXI@Z 100116c0 f i CalcTime.obj
 0001:000106f0       ?GetCenter@CDrFE1D@@UAE?AUtagPOINT@@XZ 100116f0 f i CalcTime.obj
 0001:00010730       ?SetCenter@CDrFE1D@@UAEXUtagPOINT@@@Z 10011730 f i CalcTime.obj
 0001:00010770       ?Parse_drPipe@CDrFE2D@@UAEXPAVCString@@@Z 10011770 f i CalcTime.obj
 0001:00010790       ?DoFormattedCardView@CDrFE2D@@UAEXPAVCString@@AAV2@@Z 10011790 f i CalcTime.obj
 0001:000107b0       ?DoUnFormattedCardView@CDrFE2D@@UAEXPAVCString@@@Z 100117b0 f i CalcTime.obj
 0001:000107d0       ?GetMaxCorners@CDrFE2D@@UAEHXZ 100117d0 f i CalcTime.obj
 0001:00010800       ?GetCentroidScreen2D@CDrFE2D@@UAEPAUtagPOINT@@XZ 10011800 f i CalcTime.obj
 0001:00010830       ?SetCentroidScreen2D@CDrFE2D@@UAEXUtagPOINT@@@Z 10011830 f i CalcTime.obj
 0001:00010870       ?GetCentroidScreen3D@CDrFE2D@@UAEPAUWORLD@@XZ 10011870 f i CalcTime.obj
 0001:000108a0       ?SetCentroidScreen3D@CDrFE2D@@UAEXUWORLD@@@Z 100118a0 f i CalcTime.obj
 0001:000108e0       ?GetCentroidEye@CDrFE2D@@UAEPAUWORLD@@XZ 100118e0 f i CalcTime.obj
 0001:00010910       ?SetCentroidEye@CDrFE2D@@UAEXUWORLD@@@Z 10011910 f i CalcTime.obj
 0001:00010950       ?GetCentroidWorld@CDrFE2D@@UAEPAUWORLD@@XZ 10011950 f i CalcTime.obj
 0001:00010980       ?SetCentroidWorld@CDrFE2D@@UAEXUWORLD@@@Z 10011980 f i CalcTime.obj
 0001:000109c0       ?GetCentroidZdepth@CDrFE2D@@UAENXZ 100119c0 f i CalcTime.obj
 0001:000109f0       ?SetCentroidZdepth@CDrFE2D@@UAEXN@Z 100119f0 f i CalcTime.obj
 0001:00010a30       ?GetNormalWorld@CDrFE2D@@UAEPAUWORLD@@XZ 10011a30 f i CalcTime.obj
 0001:00010a60       ?SetNormalWorld@CDrFE2D@@UAEXUWORLD@@@Z 10011a60 f i CalcTime.obj
 0001:00010aa0       ?GetNormalEye@CDrFE2D@@UAEPAUWORLD@@XZ 10011aa0 f i CalcTime.obj
 0001:00010ad0       ?SetNormalEye@CDrFE2D@@UAEXUWORLD@@@Z 10011ad0 f i CalcTime.obj
 0001:00010b10       ?GetNormalScreen3D@CDrFE2D@@UAEPAUWORLD@@XZ 10011b10 f i CalcTime.obj
 0001:00010b40       ?SetNormalScreen3D@CDrFE2D@@UAEXUWORLD@@@Z 10011b40 f i CalcTime.obj
 0001:00010b80       ?GetNormalScreen2D@CDrFE2D@@UAEPAUtagPOINT@@XZ 10011b80 f i CalcTime.obj
 0001:00010bb0       ?SetNormalScreen2D@CDrFE2D@@UAEXUtagPOINT@@@Z 10011bb0 f i CalcTime.obj
 0001:00010bf0       ?IsCulled@CDrFE2D@@UAEHXZ  10011bf0 f i CalcTime.obj
 0001:00010c20       ?SetCulled@CDrFE2D@@UAEXH@Z 10011c20 f i CalcTime.obj
 0001:00010c50       ?GetnNodes@CDrFE2D@@QAEFXZ 10011c50 f i CalcTime.obj
 0001:00010c80       ?SetnNodes@CDrFE2D@@QAEXF@Z 10011c80 f i CalcTime.obj
 0001:00010cb0       ?GetnEdgeNodes@CDrFE2D@@QAEFXZ 10011cb0 f i CalcTime.obj
 0001:00010ce0       ?SetnEdgeNodes@CDrFE2D@@QAEXF@Z 10011ce0 f i CalcTime.obj
 0001:00010d10       ?GetElNumID@CDrFE2D@@QAEAAVCString@@XZ 10011d10 f i CalcTime.obj
 0001:00010d40       ?SetElNumID@CDrFE2D@@QAEXVCString@@@Z 10011d40 f i CalcTime.obj
 0001:00010dc0       ?GetElTypeID@CDrFE2D@@QAEAAVCString@@XZ 10011dc0 f i CalcTime.obj
 0001:00010df0       ?SetElTypeID@CDrFE2D@@QAEXVCString@@@Z 10011df0 f i CalcTime.obj
 0001:00010e70       ?Getline_id@CDrFE2D@@QAEAAVCString@@XZ 10011e70 f i CalcTime.obj
 0001:00010ea0       ?Setline_id@CDrFE2D@@QAEXVCString@@@Z 10011ea0 f i CalcTime.obj
 0001:00010f20       ?Getpid@CDrFE2D@@QAEAAVCString@@XZ 10011f20 f i CalcTime.obj
 0001:00010f50       ?Setpid@CDrFE2D@@QAEXVCString@@@Z 10011f50 f i CalcTime.obj
 0001:00010fd0       ?Getmid@CDrFE2D@@QAEAAVCString@@XZ 10011fd0 f i CalcTime.obj
 0001:00011000       ?Setmid@CDrFE2D@@QAEXVCString@@@Z 10012000 f i CalcTime.obj
 0001:00011080       ?GetElNum@CDrFE2D@@QAEIXZ  10012080 f i CalcTime.obj
 0001:000110b0       ?SetElNum@CDrFE2D@@QAEXI@Z 100120b0 f i CalcTime.obj
 0001:000110e0       ?GetElTypeNum@CDrFE2D@@QAEIXZ 100120e0 f i CalcTime.obj
 0001:00011110       ?SetElTypeNum@CDrFE2D@@QAEXI@Z 10012110 f i CalcTime.obj
 0001:00011140       ?Getline_no@CDrFE2D@@QAEIXZ 10012140 f i CalcTime.obj
 0001:00011170       ?Setline_no@CDrFE2D@@QAEXI@Z 10012170 f i CalcTime.obj
 0001:000111a0       ?Getprop@CDrFE2D@@QAEIXZ   100121a0 f i CalcTime.obj
 0001:000111d0       ?Setprop@CDrFE2D@@QAEXI@Z  100121d0 f i CalcTime.obj
 0001:00011200       ?Getmat@CDrFE2D@@QAEIXZ    10012200 f i CalcTime.obj
 0001:00011230       ?Setmat@CDrFE2D@@QAEXI@Z   10012230 f i CalcTime.obj
 0001:00011260       ?Getnumseg@CDrFE2D@@QAEIXZ 10012260 f i CalcTime.obj
 0001:00011290       ?Setnumseg@CDrFE2D@@QAEXI@Z 10012290 f i CalcTime.obj
 0001:000112c0       ?GetRefTemp@CDrFE2D@@QAENXZ 100122c0 f i CalcTime.obj
 0001:000112f0       ?SetRefTemp@CDrFE2D@@QAEXN@Z 100122f0 f i CalcTime.obj
 0001:00011330       ?GetCardNo@CDrFE2D@@QAEIXZ 10012330 f i CalcTime.obj
 0001:00011360       ?SetCardNo@CDrFE2D@@QAEXI@Z 10012360 f i CalcTime.obj
 0001:00011390       ?GetCenter@CDrFE2D@@UAE?AUtagPOINT@@XZ 10012390 f i CalcTime.obj
 0001:000113d0       ?SetCenter@CDrFE2D@@UAEXUtagPOINT@@@Z 100123d0 f i CalcTime.obj
 0001:00011410       ?IsPosiEdge@CDrFE2D@@QAEHH@Z 10012410 f i CalcTime.obj
 0001:00011440       ?SetPosiEdge@CDrFE2D@@QAEXHH@Z 10012440 f i CalcTime.obj
 0001:00011470       ?Getrid@CDrFE2D@@UAEAAVCString@@H@Z 10012470 f i CalcTime.obj
 0001:000114a0       ?Setrid@CDrFE2D@@UAEXVCString@@H@Z 100124a0 f i CalcTime.obj
 0001:00011520       ?Getrel@CDrFE2D@@UAEIH@Z   10012520 f i CalcTime.obj
 0001:00011550       ?Setrel@CDrFE2D@@UAEXIH@Z  10012550 f i CalcTime.obj
 0001:00011580       ?GetnCorners@CDrFE2D@@UAEFXZ 10012580 f i CalcTime.obj
 0001:000115b0       ?SetnCorners@CDrFE2D@@UAEXF@Z 100125b0 f i CalcTime.obj
 0001:000115e0       ?GetnEdges@CDrFE2D@@UAEFXZ 100125e0 f i CalcTime.obj
 0001:00011610       ?SetnEdges@CDrFE2D@@UAEXF@Z 10012610 f i CalcTime.obj
 0001:00011640       ?GetElDegree@CDrFE2D@@UAE?AW4ELEM_DEGREE@@XZ 10012640 f i CalcTime.obj
 0001:00011670       ?SetElDegree@CDrFE2D@@UAEXW4ELEM_DEGREE@@@Z 10012670 f i CalcTime.obj
 0001:000116a0       ?GetEdgeDegrees@CDrFE2D@@UAEFH@Z 100126a0 f i CalcTime.obj
 0001:000116d0       ?SetEdgeDegrees@CDrFE2D@@UAEXFH@Z 100126d0 f i CalcTime.obj
 0001:00011700       ?GetThkness@CDrFE2D@@UAENXZ 10012700 f i CalcTime.obj
 0001:00011730       ?SetThkness@CDrFE2D@@UAEXN@Z 10012730 f i CalcTime.obj
 0001:00011770       ?IsNormalNeeded@CDrSolid@@UAEHXZ 10012770 f i CalcTime.obj
 0001:000117a0       ?SetNormalNeed@CDrSolid@@UAEXH@Z 100127a0 f i CalcTime.obj
 0001:000117d0       ?GetCurveType_R@CDrSolid@@QAE?AW4CURVEPROC@@XZ 100127d0 f i CalcTime.obj
 0001:00011800       ?SetCurveType_R@CDrSolid@@QAEXW4CURVEPROC@@@Z 10012800 f i CalcTime.obj
 0001:00011830       ?GetOutSegUnif_R@CDrSolid@@QAEHXZ 10012830 f i CalcTime.obj
 0001:00011860       ?SetOutSegUnif_R@CDrSolid@@QAEXH@Z 10012860 f i CalcTime.obj
 0001:00011890       ?IsClosed_R@CDrSolid@@QAEHXZ 10012890 f i CalcTime.obj
 0001:000118c0       ?SetClosed_R@CDrSolid@@QAEXH@Z 100128c0 f i CalcTime.obj
 0001:000118f0       ?GetSolidObjectType@CDrSolid@@QAEHXZ 100128f0 f i CalcTime.obj
 0001:00011920       ?SetSolidObjectType@CDrSolid@@QAEXH@Z 10012920 f i CalcTime.obj
 0001:00011950       ?GetMaxBezSegments_R@CDrSolid@@QAEHXZ 10012950 f i CalcTime.obj
 0001:00011980       ?SetMaxBezSegments_R@CDrSolid@@QAEXH@Z 10012980 f i CalcTime.obj
 0001:000119b0       ?GetMaxCNodes_R@CDrSolid@@QAEHXZ 100129b0 f i CalcTime.obj
 0001:000119e0       ?SetMaxCNodes_R@CDrSolid@@QAEXH@Z 100129e0 f i CalcTime.obj
 0001:00011a10       ?GetMaxOutPts_R@CDrSolid@@QAEHXZ 10012a10 f i CalcTime.obj
 0001:00011a40       ?SetMaxOutPts_R@CDrSolid@@QAEXH@Z 10012a40 f i CalcTime.obj
 0001:00011a70       ?GetPatchID@CDrSolid@@QAE?AVCString@@H@Z 10012a70 f i CalcTime.obj
 0001:00011ac0       ?SetPatchID@CDrSolid@@QAEXVCString@@H@Z 10012ac0 f i CalcTime.obj
 0001:00011b40       ?GetFromIDNode_R@CDrSolid@@QAEPAVCDrNode@@XZ 10012b40 f i CalcTime.obj
 0001:00011b70       ?SetFromIDNode_R@CDrSolid@@QAEXPAVCDrNode@@@Z 10012b70 f i CalcTime.obj
 0001:00011ba0       ?GetToIDNode_R@CDrSolid@@QAEPAVCDrNode@@XZ 10012ba0 f i CalcTime.obj
 0001:00011bd0       ?SetToIDNode_R@CDrSolid@@QAEXPAVCDrNode@@@Z 10012bd0 f i CalcTime.obj
 0001:00011c00       ?GetFromPtLocal_R@CDrSolid@@QAEPAUWORLD@@XZ 10012c00 f i CalcTime.obj
 0001:00011c30       ?SetFromPtLocal_R@CDrSolid@@QAEXUWORLD@@@Z 10012c30 f i CalcTime.obj
 0001:00011c70       ?GetToPtLocal_R@CDrSolid@@QAEPAUWORLD@@XZ 10012c70 f i CalcTime.obj
 0001:00011ca0       ?SetToPtLocal_R@CDrSolid@@QAEXUWORLD@@@Z 10012ca0 f i CalcTime.obj
 0001:00011ce0       ?GetFromPtWorld_R@CDrSolid@@QAEPAUWORLD@@XZ 10012ce0 f i CalcTime.obj
 0001:00011d10       ?SetFromPtWorld_R@CDrSolid@@QAEXUWORLD@@@Z 10012d10 f i CalcTime.obj
 0001:00011d50       ?GetToPtWorld_R@CDrSolid@@QAEPAUWORLD@@XZ 10012d50 f i CalcTime.obj
 0001:00011d80       ?SetToPtWorld_R@CDrSolid@@QAEXUWORLD@@@Z 10012d80 f i CalcTime.obj
 0001:00011dc0       ?GetFromPtEye_R@CDrSolid@@QAEPAUWORLD@@XZ 10012dc0 f i CalcTime.obj
 0001:00011df0       ?SetFromPtEye_R@CDrSolid@@QAEXUWORLD@@@Z 10012df0 f i CalcTime.obj
 0001:00011e30       ?GetToPtEye_R@CDrSolid@@QAEPAUWORLD@@XZ 10012e30 f i CalcTime.obj
 0001:00011e60       ?SetToPtEye_R@CDrSolid@@QAEXUWORLD@@@Z 10012e60 f i CalcTime.obj
 0001:00011ea0       ?GetAxis_R@CDrSolid@@QAEPAUWORLD@@XZ 10012ea0 f i CalcTime.obj
 0001:00011ed0       ?SetAxis_R@CDrSolid@@QAEXUWORLD@@@Z 10012ed0 f i CalcTime.obj
 0001:00011f10       ?GetExtruType_R@CDrSolid@@QAEHXZ 10012f10 f i CalcTime.obj
 0001:00011f40       ?SetExtruType_R@CDrSolid@@QAEXH@Z 10012f40 f i CalcTime.obj
 0001:00011f70       ?GetLength_R@CDrSolid@@QAENXZ 10012f70 f i CalcTime.obj
 0001:00011fa0       ?SetLength_R@CDrSolid@@QAEXN@Z 10012fa0 f i CalcTime.obj
 0001:00011fe0       ?GetWorldLength_R@CDrSolid@@QAE?AUWORLD@@XZ 10012fe0 f i CalcTime.obj
 0001:00012020       ?SetWorldLength_R@CDrSolid@@QAEXUWORLD@@@Z 10013020 f i CalcTime.obj
 0001:00012060       ?GetSegs_R@CDrSolid@@QAEHXZ 10013060 f i CalcTime.obj
 0001:00012090       ?SetSegs_R@CDrSolid@@QAEXH@Z 10013090 f i CalcTime.obj
 0001:000120c0       ?GetSolidProc@CDrSolid@@QAE?AW4SOLIDPROC@@XZ 100130c0 f i CalcTime.obj
 0001:000120f0       ?SetSolidProc@CDrSolid@@QAEXW4SOLIDPROC@@@Z 100130f0 f i CalcTime.obj
 0001:00012120       ?GetSolidType@CDrSolid@@QAE?AW4SOLIDTYPE@@XZ 10013120 f i CalcTime.obj
 0001:00012150       ?SetSolidType@CDrSolid@@QAEXW4SOLIDTYPE@@@Z 10013150 f i CalcTime.obj
 0001:00012180       ?GetSolSubType@CDrSolid@@QAE?AW4SOLSUBTYPE@@XZ 10013180 f i CalcTime.obj
 0001:000121b0       ?SetSolSubType@CDrSolid@@QAEXW4SOLSUBTYPE@@@Z 100131b0 f i CalcTime.obj
 0001:000121e0       ?GetOut_R@CDrSolid@@QAEHXZ 100131e0 f i CalcTime.obj
 0001:00012210       ?SetOut_R@CDrSolid@@QAEXH@Z 10013210 f i CalcTime.obj
 0001:00012240       ?IsUniform_R@CDrSolid@@QAEHXZ 10013240 f i CalcTime.obj
 0001:00012270       ?SetUniform_R@CDrSolid@@QAEXH@Z 10013270 f i CalcTime.obj
 0001:000122a0       ?GetOrder_R@CDrSolid@@QAEHXZ 100132a0 f i CalcTime.obj
 0001:000122d0       ?SetOrder_R@CDrSolid@@QAEXH@Z 100132d0 f i CalcTime.obj
 0001:00012300       ?GetnDim_R@CDrSolid@@QAEHXZ 10013300 f i CalcTime.obj
 0001:00012330       ?SetnDim_R@CDrSolid@@QAEXH@Z 10013330 f i CalcTime.obj
 0001:00012360       ?GetOutMethod_R@CDrSolid@@QAE?AW4SOLIDOUTPUT@@XZ 10013360 f i CalcTime.obj
 0001:00012390       ?SetOutMethod_R@CDrSolid@@QAEXW4SOLIDOUTPUT@@@Z 10013390 f i CalcTime.obj
 0001:000123c0       ?GetMaxOutSeg_R@CDrSolid@@QAEHXZ 100133c0 f i CalcTime.obj
 0001:000123f0       ?SetMaxOutSeg_R@CDrSolid@@QAEXH@Z 100133f0 f i CalcTime.obj
 0001:00012420       ?GetNum_tPointer_R@CDrSolid@@QAEPAHXZ 10013420 f i CalcTime.obj
 0001:00012450       ?SetNum_tPointer_R@CDrSolid@@QAEXPAH@Z 10013450 f i CalcTime.obj
 0001:00012480       ?GetDis_tPointer_R@CDrSolid@@QAEPANXZ 10013480 f i CalcTime.obj
 0001:000124b0       ?SetDis_tPointer_R@CDrSolid@@QAEXPAN@Z 100134b0 f i CalcTime.obj
 0001:000124e0       ?GetNum_tPointer_Ex_R@CDrSolid@@QAEPAHXZ 100134e0 f i CalcTime.obj
 0001:00012510       ?SetNum_tPointer_Ex_R@CDrSolid@@QAEXPAH@Z 10013510 f i CalcTime.obj
 0001:00012540       ?GetDis_AngPointer_R@CDrSolid@@QAEPANXZ 10013540 f i CalcTime.obj
 0001:00012570       ?SetDis_AngPointer_R@CDrSolid@@QAEXPAN@Z 10013570 f i CalcTime.obj
 0001:000125a0       ?GetNum_tPointer_ST@CDrSolid@@QAEPAHXZ 100135a0 f i CalcTime.obj
 0001:000125d0       ?SetNum_tPointer_ST@CDrSolid@@QAEXPAH@Z 100135d0 f i CalcTime.obj
 0001:00012600       ?GetDis_tPointer_ST@CDrSolid@@QAEPANXZ 10013600 f i CalcTime.obj
 0001:00012630       ?SetDis_tPointer_ST@CDrSolid@@QAEXPAN@Z 10013630 f i CalcTime.obj
 0001:00012660       ?GetNum_tPointer_Ex_ST@CDrSolid@@QAEPAHXZ 10013660 f i CalcTime.obj
 0001:00012690       ?SetNum_tPointer_Ex_ST@CDrSolid@@QAEXPAH@Z 10013690 f i CalcTime.obj
 0001:000126c0       ?GetDis_AngPointer_ST@CDrSolid@@QAEPANXZ 100136c0 f i CalcTime.obj
 0001:000126f0       ?SetDis_AngPointer_ST@CDrSolid@@QAEXPAN@Z 100136f0 f i CalcTime.obj
 0001:00012720       ?GetData_Ex_R@CDrSolid@@QAEHXZ 10013720 f i CalcTime.obj
 0001:00012750       ?SetData_Ex_R@CDrSolid@@QAEXH@Z 10013750 f i CalcTime.obj
 0001:00012780       ?IsExpanded_R@CDrSolid@@QAEHXZ 10013780 f i CalcTime.obj
 0001:000127b0       ?SetExpanded_R@CDrSolid@@QAEXH@Z 100137b0 f i CalcTime.obj
 0001:000127e0       ?GetMaxENodes_R@CDrSolid@@QAEHXZ 100137e0 f i CalcTime.obj
 0001:00012810       ?SetMaxENodes_R@CDrSolid@@QAEXH@Z 10013810 f i CalcTime.obj
 0001:00012840       ?GetRadius_R@CDrSolid@@QAENXZ 10013840 f i CalcTime.obj
 0001:00012870       ?SetRadius_R@CDrSolid@@QAEXN@Z 10013870 f i CalcTime.obj
 0001:000128b0       ?GetTheta_R@CDrSolid@@QAENXZ 100138b0 f i CalcTime.obj
 0001:000128e0       ?SetTheta_R@CDrSolid@@QAEXN@Z 100138e0 f i CalcTime.obj
 0001:00012920       ?GetCenter_R@CDrSolid@@QAE?AUWORLD@@XZ 10013920 f i CalcTime.obj
 0001:00012960       ?SetCenter_R@CDrSolid@@QAEXUWORLD@@@Z 10013960 f i CalcTime.obj
 0001:000129d0       ?GetNormal_R@CDrSolid@@QAE?AUWORLD@@XZ 100139d0 f i CalcTime.obj
 0001:00012a10       ?SetNormal_R@CDrSolid@@QAEXUWORLD@@@Z 10013a10 f i CalcTime.obj
 0001:00012a80       ?GetSegAngle_R@CDrSolid@@QAENXZ 10013a80 f i CalcTime.obj
 0001:00012ab0       ?SetSegAngle_R@CDrSolid@@QAEXN@Z 10013ab0 f i CalcTime.obj
 0001:00012af0       ?IsHole_R@CDrSolid@@QAEHXZ 10013af0 f i CalcTime.obj
 0001:00012b20       ?SetHole_R@CDrSolid@@QAEXH@Z 10013b20 f i CalcTime.obj
 0001:00012b50       ?GetpTangents_R@CDrSolid@@QAEPAUWORLD@@XZ 10013b50 f i CalcTime.obj
 0001:00012b80       ?SetpTangents_R@CDrSolid@@QAEXPAUWORLD@@@Z 10013b80 f i CalcTime.obj
 0001:00012bb0       ?GetpCurvatures_R@CDrSolid@@QAEPANXZ 10013bb0 f i CalcTime.obj
 0001:00012be0       ?SetpCurvatures_R@CDrSolid@@QAEXPAN@Z 10013be0 f i CalcTime.obj
 0001:00012c10       ?GetRatio_R@CDrSolid@@QAENXZ 10013c10 f i CalcTime.obj
 0001:00012c40       ?SetRatio_R@CDrSolid@@QAEXN@Z 10013c40 f i CalcTime.obj
 0001:00012c80       ?GetTwistType_R@CDrSolid@@QAEHXZ 10013c80 f i CalcTime.obj
 0001:00012cb0       ?SetTwistType_R@CDrSolid@@QAEXH@Z 10013cb0 f i CalcTime.obj
 0001:00012ce0       ?GetTwistList_R@CDrSolid@@QAEPAV?$CList@NN@@XZ 10013ce0 f i CalcTime.obj
 0001:00012d10       ?GetScaleType_R@CDrSolid@@QAEHXZ 10013d10 f i CalcTime.obj
 0001:00012d40       ?SetScaleType_R@CDrSolid@@QAEXH@Z 10013d40 f i CalcTime.obj
 0001:00012d70       ?GetScaleList_R@CDrSolid@@QAEPAV?$CList@NN@@XZ 10013d70 f i CalcTime.obj
 0001:00012da0       ?IsIncTwist_R@CDrSolid@@QAEHXZ 10013da0 f i CalcTime.obj
 0001:00012dd0       ?SetIncTwist_R@CDrSolid@@QAEXH@Z 10013dd0 f i CalcTime.obj
 0001:00012e00       ?GetTwistMult_R@CDrSolid@@QAENXZ 10013e00 f i CalcTime.obj
 0001:00012e30       ?SetTwistMult_R@CDrSolid@@QAEXN@Z 10013e30 f i CalcTime.obj
 0001:00012e70       ?GetTwistStart_R@CDrSolid@@QAENXZ 10013e70 f i CalcTime.obj
 0001:00012ea0       ?SetTwistStart_R@CDrSolid@@QAEXN@Z 10013ea0 f i CalcTime.obj
 0001:00012ee0       ?IsIncScale_R@CDrSolid@@QAEHXZ 10013ee0 f i CalcTime.obj
 0001:00012f10       ?SetIncScale_R@CDrSolid@@QAEXH@Z 10013f10 f i CalcTime.obj
 0001:00012f40       ?GetScaleMult_R@CDrSolid@@QAENXZ 10013f40 f i CalcTime.obj
 0001:00012f70       ?SetScaleMult_R@CDrSolid@@QAEXN@Z 10013f70 f i CalcTime.obj
 0001:00012fb0       ?GetScaleStart_R@CDrSolid@@QAENXZ 10013fb0 f i CalcTime.obj
 0001:00012fe0       ?SetScaleStart_R@CDrSolid@@QAEXN@Z 10013fe0 f i CalcTime.obj
 0001:00013020       ?GetPentaList@CDrSolid@@QAEPAVCDListMgr@@XZ 10014020 f i CalcTime.obj
 0001:00013050       ?GetnTriangles_ST@CDrSolid@@QAEHXZ 10014050 f i CalcTime.obj
 0001:00013080       ?SetnTriangles_ST@CDrSolid@@QAEXH@Z 10014080 f i CalcTime.obj
 0001:000130b0       ?GetElperSegList_R@CDrSolid@@QAEPAV?$CList@HH@@XZ 100140b0 f i CalcTime.obj
 0001:000130e0       ?IsGenBPatch@CDrSolid@@QAEHXZ 100140e0 f i CalcTime.obj
 0001:00013110       ?SetGenBPatch@CDrSolid@@QAEXH@Z 10014110 f i CalcTime.obj
 0001:00013140       ?GetVPatchList@CDrSolid@@QAEPAVCDListMgr@@XZ 10014140 f i CalcTime.obj
 0001:00013170       ?GetPatchList_U@CDrSolid@@QAEPAVCDListMgr@@XZ 10014170 f i CalcTime.obj
 0001:000131a0       ?GetPatchList_V@CDrSolid@@QAEPAVCDListMgr@@XZ 100141a0 f i CalcTime.obj
 0001:000131d0       ?GetPatchList_W@CDrSolid@@QAEPAVCDListMgr@@XZ 100141d0 f i CalcTime.obj
 0001:00013200       ?GetPatchLatchList_U@CDrSolid@@QAEPAV?$CList@W4PATCHLATCH@@W41@@@XZ 10014200 f i CalcTime.obj
 0001:00013230       ?GetPatchLatchList_V@CDrSolid@@QAEPAV?$CList@W4PATCHLATCH@@W41@@@XZ 10014230 f i CalcTime.obj
 0001:00013260       ?GetPatchLatchList_W@CDrSolid@@QAEPAV?$CList@W4PATCHLATCH@@W41@@@XZ 10014260 f i CalcTime.obj
 0001:00013290       ?IsAxisInput_R@CDrSolid@@QAEHXZ 10014290 f i CalcTime.obj
 0001:000132c0       ?SetAxisInput_R@CDrSolid@@QAEXH@Z 100142c0 f i CalcTime.obj
 0001:000132f0       ?GetAxisType_R@CDrSolid@@QAEHXZ 100142f0 f i CalcTime.obj
 0001:00013320       ?SetAxisType_R@CDrSolid@@QAEXH@Z 10014320 f i CalcTime.obj
 0001:00013350       ?IsNegative_R@CDrSolid@@QAEHXZ 10014350 f i CalcTime.obj
 0001:00013380       ?SetNegative_R@CDrSolid@@QAEXH@Z 10014380 f i CalcTime.obj
 0001:000133b0       ?GetCircleType_R@CDrSolid@@QAE?AW4CIRCLETYPE@@XZ 100143b0 f i CalcTime.obj
 0001:000133e0       ?SetCircleType_R@CDrSolid@@QAEXW4CIRCLETYPE@@@Z 100143e0 f i CalcTime.obj
 0001:00013410       ?GetAng_1_R@CDrSolid@@QAENXZ 10014410 f i CalcTime.obj
 0001:00013440       ?SetAng_1_R@CDrSolid@@QAEXN@Z 10014440 f i CalcTime.obj
 0001:00013480       ?GetAng_2_R@CDrSolid@@QAENXZ 10014480 f i CalcTime.obj
 0001:000134b0       ?SetAng_2_R@CDrSolid@@QAEXN@Z 100144b0 f i CalcTime.obj
 0001:000134f0       ?IsEndCondMode@CSheet_SOLI@@QAEHXZ 100144f0 f i CalcTime.obj
 0001:00013520       ?SetEndCondMode@CSheet_SOLI@@QAEXH@Z 10014520 f i CalcTime.obj
 0001:00013550       ?IsTackled@CDrObj3D@@QAEHXZ 10014550 f i CalcTime.obj
 0001:00013580       ?SetTackled@CDrObj3D@@QAEXH@Z 10014580 f i CalcTime.obj
 0001:000135b0       ??1CDlg_O3DI@@UAE@XZ       100145b0 f i CalcTime.obj
 0001:00013620       ??1CDlg_SupI@@UAE@XZ       10014620 f i CalcTime.obj
 0001:00013690       ?Parse_drPipe@CDrLinSup@@UAEPAUsupportcard@@PAVCString@@@Z 10014690 f i CalcTime.obj
 0001:000136b0       ?GetSuppCard@CDrLinSup@@UAEPAUsupportcard@@XZ 100146b0 f i CalcTime.obj
 0001:000136e0       ?GetCardNo@CDrLinSup@@UAEHXZ 100146e0 f i CalcTime.obj
 0001:00013710       ?SetCardNo@CDrLinSup@@UAEXH@Z 10014710 f i CalcTime.obj
 0001:00013740       ?GetLabelNo@CDrLinSup@@QAEJXZ 10014740 f i CalcTime.obj
 0001:00013770       ?SetLabelNo@CDrLinSup@@QAEXJ@Z 10014770 f i CalcTime.obj
 0001:000137a0       ?GetnPts@CDrLinSup@@QAEHH@Z 100147a0 f i CalcTime.obj
 0001:000137d0       ?GetpLoc@CDrLinSup@@QAEPAUWORLD@@H@Z 100147d0 f i CalcTime.obj
 0001:00013800       ?IsSkewed@CDrLinSup@@UAEHXZ 10014800 f i CalcTime.obj
 0001:00013830       ?SetSkewed@CDrLinSup@@UAEXH@Z 10014830 f i CalcTime.obj
 0001:00013860       ?GetSkewMat@CDrLinSup@@QAEPAUMATRIX@@XZ 10014860 f i CalcTime.obj
 0001:00013890       ?SetSkewMat@CDrLinSup@@QAEXPAUMATRIX@@@Z 10014890 f i CalcTime.obj
 0001:000138d0       ?GetCreateBase@CDrLinSup@@QAEIXZ 100148d0 f i CalcTime.obj
 0001:00013900       ?SetCreateBase@CDrLinSup@@QAEXI@Z 10014900 f i CalcTime.obj
 0001:00013930       ?IsTriangle@CDrLinSup@@QAEHXZ 10014930 f i CalcTime.obj
 0001:00013960       ?SetTriangle@CDrLinSup@@QAEXH@Z 10014960 f i CalcTime.obj
 0001:00013990       ?IsPentaHed@CDrLinSup@@QAEHXZ 10014990 f i CalcTime.obj
 0001:000139c0       ?SetPentaHed@CDrLinSup@@QAEXH@Z 100149c0 f i CalcTime.obj
 0001:000139f0       ?GetCreate_i@CDrLinSup@@QAEHXZ 100149f0 f i CalcTime.obj
 0001:00013a20       ?SetCreate_i@CDrLinSup@@QAEXH@Z 10014a20 f i CalcTime.obj
 0001:00013a50       ?GetCreate_j@CDrLinSup@@QAEHXZ 10014a50 f i CalcTime.obj
 0001:00013a80       ?SetCreate_j@CDrLinSup@@QAEXH@Z 10014a80 f i CalcTime.obj
 0001:00013ab0       ?GetCreate_k@CDrLinSup@@QAEHXZ 10014ab0 f i CalcTime.obj
 0001:00013ae0       ?SetCreate_k@CDrLinSup@@QAEXH@Z 10014ae0 f i CalcTime.obj
 0001:00013b10       ?GetNodPos@CDrLinSup@@QAEPAUWORLD@@XZ 10014b10 f i CalcTime.obj
 0001:00013b40       ?SetNodPos@CDrLinSup@@QAEXAAUWORLD@@@Z 10014b40 f i CalcTime.obj
 0001:00013b80       ?Parse_drPipe@CDrStatic@@UAEPAUstaLcard@@PAVCString@@@Z 10014b80 f i CalcTime.obj
 0001:00013ba0       ?GetCardNo@CDrStatic@@QAEHXZ 10014ba0 f i CalcTime.obj
 0001:00013bd0       ?SetCardNo@CDrStatic@@QAEXH@Z 10014bd0 f i CalcTime.obj
 0001:00013c00       ?GetStaLCard@CDrStatic@@QAEPAUstaLcard@@XZ 10014c00 f i CalcTime.obj
 0001:00013c30       ?GetNodeList@CDrStatic@@QAEPAVCDListMgr@@XZ 10014c30 f i CalcTime.obj
 0001:00013c60       ?GetCurveList@CDrStatic@@QAEPAVCDListMgr@@XZ 10014c60 f i CalcTime.obj
 0001:00013c90       ?GetPatchList@CDrStatic@@QAEPAVCDListMgr@@XZ 10014c90 f i CalcTime.obj
 0001:00013cc0       ?GetSolidList@CDrStatic@@QAEPAVCDListMgr@@XZ 10014cc0 f i CalcTime.obj
 0001:00013cf0       ?GetLabelNode@CDrStatic@@QAEPAVCDrNode@@XZ 10014cf0 f i CalcTime.obj
 0001:00013d20       ?SetLabelNode@CDrStatic@@QAEXPAVCDrNode@@@Z 10014d20 f i CalcTime.obj
 0001:00013d50       ?GetLabelPtr@CDrStatic@@QAEPAVCDrLabel@@XZ 10014d50 f i CalcTime.obj
 0001:00013d80       ?SetLabelPtr@CDrStatic@@QAEXPAVCDrLabel@@@Z 10014d80 f i CalcTime.obj
 0001:00013db0       ?GetLabelNo@CDrStatic@@QAEJXZ 10014db0 f i CalcTime.obj
 0001:00013de0       ?SetLabelNo@CDrStatic@@QAEXJ@Z 10014de0 f i CalcTime.obj
 0001:00013e10       ?GetLocalM@CDrStatic@@QAEPAUMATRIX@@XZ 10014e10 f i CalcTime.obj
 0001:00013e40       ?SetLocalM@CDrStatic@@QAEXPAUMATRIX@@@Z 10014e40 f i CalcTime.obj
 0001:00013e80       ?GetnPts@CDrStatic@@QAEHH@Z 10014e80 f i CalcTime.obj
 0001:00013eb0       ?GetpLoc@CDrStatic@@QAEPAUWORLD@@H@Z 10014eb0 f i CalcTime.obj
 0001:00013ee0       ?IsSkewed@CDrStatic@@UAEHXZ 10014ee0 f i CalcTime.obj
 0001:00013f10       ?SetSkewed@CDrStatic@@UAEXH@Z 10014f10 f i CalcTime.obj
 0001:00013f40       ?GetSkewMat@CDrStatic@@QAEPAUMATRIX@@XZ 10014f40 f i CalcTime.obj
 0001:00013f70       ?SetSkewMat@CDrStatic@@QAEXPAUMATRIX@@@Z 10014f70 f i CalcTime.obj
 0001:00013fb0       ?GetCreateBase@CDrStatic@@QAEIXZ 10014fb0 f i CalcTime.obj
 0001:00013fe0       ?SetCreateBase@CDrStatic@@QAEXI@Z 10014fe0 f i CalcTime.obj
 0001:00014010       ?IsTriangle@CDrStatic@@QAEHXZ 10015010 f i CalcTime.obj
 0001:00014040       ?SetTriangle@CDrStatic@@QAEXH@Z 10015040 f i CalcTime.obj
 0001:00014070       ?IsPentaHed@CDrStatic@@QAEHXZ 10015070 f i CalcTime.obj
 0001:000140a0       ?SetPentaHed@CDrStatic@@QAEXH@Z 100150a0 f i CalcTime.obj
 0001:000140d0       ?GetCreate_i@CDrStatic@@QAEHXZ 100150d0 f i CalcTime.obj
 0001:00014100       ?SetCreate_i@CDrStatic@@QAEXH@Z 10015100 f i CalcTime.obj
 0001:00014130       ?GetCreate_j@CDrStatic@@QAEHXZ 10015130 f i CalcTime.obj
 0001:00014160       ?SetCreate_j@CDrStatic@@QAEXH@Z 10015160 f i CalcTime.obj
 0001:00014190       ?GetCreate_k@CDrStatic@@QAEHXZ 10015190 f i CalcTime.obj
 0001:000141c0       ?SetCreate_k@CDrStatic@@QAEXH@Z 100151c0 f i CalcTime.obj
 0001:000141f0       ?GetNodPos@CDrStatic@@QAEPAUWORLD@@XZ 100151f0 f i CalcTime.obj
 0001:00014220       ?SetNodPos@CDrStatic@@QAEXAAUWORLD@@@Z 10015220 f i CalcTime.obj
 0001:00014260       ?SetCurrentNode@CSLDNod@@QAEXPAVCDrNode@@@Z 10015260 f i CalcTime.obj
 0001:00014290       ?SetCurrentLabel@CSLDNod@@QAEXPAVCDrLabel@@@Z 10015290 f i CalcTime.obj
 0001:000142c0       ??1CDlg_StLI@@UAE@XZ       100152c0 f i CalcTime.obj
 0001:00014360       ??1CDlg_CrOI@@UAE@XZ       10015360 f i CalcTime.obj
 0001:000143e0       ?GetCurveList@CDrProf_C@@QAEPAVCDListMgr@@XZ 100153e0 f i CalcTime.obj
 0001:00014410       ?GetLMList@CDrProf_C@@QAEPAVCDListMgr@@XZ 10015410 f i CalcTime.obj
 0001:00014440       ?GetCurve@CDrProf_C@@QAEPAVCDrCurve@@XZ 10015440 f i CalcTime.obj
 0001:00014470       ?SetCurve@CDrProf_C@@QAEXPAVCDrCurve@@@Z 10015470 f i CalcTime.obj
 0001:000144a0       ?GetProfileType@CDrProf_C@@QAE?AW4PROFILETYPE@@XZ 100154a0 f i CalcTime.obj
 0001:000144d0       ?SetProfileType@CDrProf_C@@QAEXW4PROFILETYPE@@@Z 100154d0 f i CalcTime.obj
 0001:00014500       ?GetElNumID@CDrFE0D@@QAEAAVCString@@XZ 10015500 f i CalcTime.obj
 0001:00014530       ?SetElNumID@CDrFE0D@@QAEXVCString@@@Z 10015530 f i CalcTime.obj
 0001:000145b0       ?GetElTypeID@CDrFE0D@@QAEAAVCString@@XZ 100155b0 f i CalcTime.obj
 0001:000145e0       ?SetElTypeID@CDrFE0D@@QAEXVCString@@@Z 100155e0 f i CalcTime.obj
 0001:00014660       ?Getrid@CDrFE0D@@QAEAAVCString@@XZ 10015660 f i CalcTime.obj
 0001:00014690       ?Setrid@CDrFE0D@@QAEXVCString@@@Z 10015690 f i CalcTime.obj
 0001:00014710       ?Getpid@CDrFE0D@@QAEAAVCString@@XZ 10015710 f i CalcTime.obj
 0001:00014740       ?Setpid@CDrFE0D@@QAEXVCString@@@Z 10015740 f i CalcTime.obj
 0001:000147c0       ?Getmid@CDrFE0D@@QAEAAVCString@@XZ 100157c0 f i CalcTime.obj
 0001:000147f0       ?Setmid@CDrFE0D@@QAEXVCString@@@Z 100157f0 f i CalcTime.obj
 0001:00014870       ?GetElNum@CDrFE0D@@QAEIXZ  10015870 f i CalcTime.obj
 0001:000148a0       ?SetElNum@CDrFE0D@@QAEXI@Z 100158a0 f i CalcTime.obj
 0001:000148d0       ?GetElTypeNum@CDrFE0D@@QAEIXZ 100158d0 f i CalcTime.obj
 0001:00014900       ?SetElTypeNum@CDrFE0D@@QAEXI@Z 10015900 f i CalcTime.obj
 0001:00014930       ?Getrel@CDrFE0D@@QAEIXZ    10015930 f i CalcTime.obj
 0001:00014960       ?Setrel@CDrFE0D@@QAEXI@Z   10015960 f i CalcTime.obj
 0001:00014990       ?Getprop@CDrFE0D@@QAEIXZ   10015990 f i CalcTime.obj
 0001:000149c0       ?Setprop@CDrFE0D@@QAEXI@Z  100159c0 f i CalcTime.obj
 0001:000149f0       ?Getmat@CDrFE0D@@QAEIXZ    100159f0 f i CalcTime.obj
 0001:00014a20       ?Setmat@CDrFE0D@@QAEXI@Z   10015a20 f i CalcTime.obj
 0001:00014a50       ?GetRefTemp@CDrFE0D@@QAENXZ 10015a50 f i CalcTime.obj
 0001:00014a80       ?SetRefTemp@CDrFE0D@@QAEXN@Z 10015a80 f i CalcTime.obj
 0001:00014ac0       ?GetNormalWorld@CDrFE0D@@UAEPAUWORLD@@XZ 10015ac0 f i CalcTime.obj
 0001:00014af0       ?SetNormalWorld@CDrFE0D@@UAEXUWORLD@@@Z 10015af0 f i CalcTime.obj
 0001:00014b30       ?GetNormalEye@CDrFE0D@@UAEPAUWORLD@@XZ 10015b30 f i CalcTime.obj
 0001:00014b60       ?SetNormalEye@CDrFE0D@@UAEXUWORLD@@@Z 10015b60 f i CalcTime.obj
 0001:00014ba0       ?GetNormalScreen3D@CDrFE0D@@UAEPAUWORLD@@XZ 10015ba0 f i CalcTime.obj
 0001:00014bd0       ?SetNormalScreen3D@CDrFE0D@@UAEXUWORLD@@@Z 10015bd0 f i CalcTime.obj
 0001:00014c10       ?GetNormalScreen2D@CDrFE0D@@UAEPAUtagPOINT@@XZ 10015c10 f i CalcTime.obj
 0001:00014c40       ?SetNormalScreen2D@CDrFE0D@@UAEXUtagPOINT@@@Z 10015c40 f i CalcTime.obj
 0001:00014c80       ?IsMeshNode@CDrFE0D@@UAEHXZ 10015c80 f i CalcTime.obj
 0001:00014cb0       ?SetMeshNode@CDrFE0D@@UAEXH@Z 10015cb0 f i CalcTime.obj
 0001:00014ce0       ?GetHist_S@CDrFE0D@@QAEHXZ 10015ce0 f i CalcTime.obj
 0001:00014d10       ?SetHist_S@CDrFE0D@@QAEXH@Z 10015d10 f i CalcTime.obj
 0001:00014d40       ?GetHist_T@CDrFE0D@@QAEHXZ 10015d40 f i CalcTime.obj
 0001:00014d70       ?SetHist_T@CDrFE0D@@QAEXH@Z 10015d70 f i CalcTime.obj
 0001:00014da0       ?GetHist_R@CDrFE0D@@QAEHXZ 10015da0 f i CalcTime.obj
 0001:00014dd0       ?SetHist_R@CDrFE0D@@QAEXH@Z 10015dd0 f i CalcTime.obj
 0001:00014e00       ??1CMlg_CrOI@@UAE@XZ       10015e00 f i CalcTime.obj
 0001:00014e80       ?GetGenObj@CDrMesh1D@@QAEPAVCDrCurve@@XZ 10015e80 f i CalcTime.obj
 0001:00014eb0       ?SetGenObj@CDrMesh1D@@QAEXPAVCDrCurve@@@Z 10015eb0 f i CalcTime.obj
 0001:00014ee0       ?GetRefQuad@CDrMesh2D@@UAE?AW4REF_QUAD@@XZ 10015ee0 f i CalcTime.obj
 0001:00014f10       ?SetRefQuad@CDrMesh2D@@UAEXW4REF_QUAD@@@Z 10015f10 f i CalcTime.obj
 0001:00014f40       ?GetRefTri@CDrMesh2D@@UAE?AW4REF_TRI@@XZ 10015f40 f i CalcTime.obj
 0001:00014f70       ?SetRefTri@CDrMesh2D@@UAEXW4REF_TRI@@@Z 10015f70 f i CalcTime.obj
 0001:00014fa0       ?GetOrient@CDrMesh2D@@UAE?AW4ORIENT@@XZ 10015fa0 f i CalcTime.obj
 0001:00014fd0       ?SetOrient@CDrMesh2D@@UAEXW4ORIENT@@@Z 10015fd0 f i CalcTime.obj
 0001:00015000       ?GetGenObj@CDrMesh2D@@QAEPAVCDrPatch@@XZ 10016000 f i CalcTime.obj
 0001:00015030       ?SetGenObj@CDrMesh2D@@QAEXPAVCDrPatch@@@Z 10016030 f i CalcTime.obj
 0001:00015060       ?IsReversed_ST@CDrMesh2D@@QAEHXZ 10016060 f i CalcTime.obj
 0001:00015090       ?SetReversed_ST@CDrMesh2D@@QAEXH@Z 10016090 f i CalcTime.obj
 0001:000150c0       ?GetEdgeList@CDrMesh2D@@QAEPAVCDListMgr@@XZ 100160c0 f i CalcTime.obj
 0001:000150f0       ?GetEdgeList@CDrMesh3D@@QAEPAVCDListMgr@@XZ 100160f0 f i CalcTime.obj
 0001:00015120       ?GetFaceList@CDrMesh3D@@QAEPAVCDListMgr@@XZ 10016120 f i CalcTime.obj
 0001:00015150       ?GetGenObj@CDrMesh3D@@QAEPAVCDrSolid@@XZ 10016150 f i CalcTime.obj
 0001:00015180       ?SetGenObj@CDrMesh3D@@QAEXPAVCDrSolid@@@Z 10016180 f i CalcTime.obj
 0001:000151b0       ??1CDlg_FE0I@@UAE@XZ       100161b0 f i CalcTime.obj
 0001:00015230       ?Parse_drPipe@CDrPipe@@UAEXPAVCString@@@Z 10016230 f i CalcTime.obj
 0001:00015250       ?GetMaxCorners@CDrPipe@@UAEHXZ 10016250 f i CalcTime.obj
 0001:00015270       ?GetSIid@CDrPipe@@QAEAAVCString@@H@Z 10016270 f i CalcTime.obj
 0001:000152a0       ?SetSIid@CDrPipe@@QAEXVCString@@H@Z 100162a0 f i CalcTime.obj
 0001:00015320       ?IsValve@CDrPipe@@QAEHXZ   10016320 f i CalcTime.obj
 0001:00015350       ?SetValve@CDrPipe@@QAEXH@Z 10016350 f i CalcTime.obj
 0001:00015380       ?Parse_drPipe@CDrBeam@@UAEXPAVCString@@@Z 10016380 f i CalcTime.obj
 0001:000153a0       ?GetMaxCorners@CDrBeam@@UAEHXZ 100163a0 f i CalcTime.obj
 0001:000153c0       ?GetKNodeID@CDrBeam@@UAEAAVCString@@XZ 100163c0 f i CalcTime.obj
 0001:000153f0       ?SetKNodeID@CDrBeam@@UAEXAAVCString@@@Z 100163f0 f i CalcTime.obj
 0001:00015420       ?Parse_drPipe@CDrTruss@@UAEXPAVCString@@@Z 10016420 f i CalcTime.obj
 0001:00015440       ?GetMaxCorners@CDrTruss@@UAEHXZ 10016440 f i CalcTime.obj
 0001:00015460       ?Parse_drPipe@CDrElbow@@UAEXPAVCString@@@Z 10016460 f i CalcTime.obj
 0001:00015480       ?GetMaxCorners@CDrElbow@@UAEHXZ 10016480 f i CalcTime.obj
 0001:000154a0       ?GetSIid@CDrElbow@@QAEAAVCString@@H@Z 100164a0 f i CalcTime.obj
 0001:000154d0       ?SetSIid@CDrElbow@@QAEXVCString@@H@Z 100164d0 f i CalcTime.obj
 0001:00015550       ?GetCCID@CDrElbow@@QAEAAVCString@@H@Z 10016550 f i CalcTime.obj
 0001:00015580       ?SetCCID@CDrElbow@@QAEXVCString@@@Z 10016580 f i CalcTime.obj
 0001:00015600       ?GetTIID@CDrElbow@@QAEAAVCString@@H@Z 10016600 f i CalcTime.obj
 0001:00015630       ?SetTIID@CDrElbow@@QAEXVCString@@@Z 10016630 f i CalcTime.obj
 0001:000156b0       ?GetCAID@CDrElbow@@QAEAAVCString@@H@Z 100166b0 f i CalcTime.obj
 0001:000156e0       ?SetCAID@CDrElbow@@QAEXVCString@@@Z 100166e0 f i CalcTime.obj
 0001:00015760       ?GetCBID@CDrElbow@@QAEAAVCString@@H@Z 10016760 f i CalcTime.obj
 0001:00015790       ?SetCBID@CDrElbow@@QAEXVCString@@@Z 10016790 f i CalcTime.obj
 0001:00015810       ??1CDlg_FE1I@@UAE@XZ       10016810 f i CalcTime.obj
 0001:000158f0       ?GetDrFace@CFaceInfo@@QAEPAVCObject@@XZ 100168f0 f i CalcTime.obj
 0001:00015910       ?SetDrFace@CFaceInfo@@QAEXPAVCObject@@@Z 10016910 f i CalcTime.obj
 0001:00015940       ?GetFaceType@CFaceInfo@@QAEIXZ 10016940 f i CalcTime.obj
 0001:00015960       ?SetFaceType@CFaceInfo@@QAEXI@Z 10016960 f i CalcTime.obj
 0001:00015990       ?GetGenObj@CFaceInfo@@QAEPAVCObject@@XZ 10016990 f i CalcTime.obj
 0001:000159b0       ?SetGenObj@CFaceInfo@@QAEXPAVCObject@@@Z 100169b0 f i CalcTime.obj
 0001:000159e0       ?GetGenType@CFaceInfo@@QAEIXZ 100169e0 f i CalcTime.obj
 0001:00015a00       ?SetGenType@CFaceInfo@@QAEXI@Z 10016a00 f i CalcTime.obj
 0001:00015a30       ?GetFaceDim@CFaceInfo@@QAEIXZ 10016a30 f i CalcTime.obj
 0001:00015a50       ?SetFaceDim@CFaceInfo@@QAEXI@Z 10016a50 f i CalcTime.obj
 0001:00015a80       ?GetObjectID@CDrEdge@@QAEAAVCString@@XZ 10016a80 f i CalcTime.obj
 0001:00015aa0       ?SetObjectID@CDrEdge@@QAEXAAVCString@@@Z 10016aa0 f i CalcTime.obj
 0001:00015ad0       ?GetVrtxIndex@CDrEdge@@QAEHH@Z 10016ad0 f i CalcTime.obj
 0001:00015b00       ?SetVrtxIndex@CDrEdge@@QAEXHH@Z 10016b00 f i CalcTime.obj
 0001:00015b30       ?GetFaceInfoList@CDrEdge@@QAEPAVCDListMgr@@XZ 10016b30 f i CalcTime.obj
 0001:00015b50       ?GetHist_RCH@CDrEdge@@QAEHXZ 10016b50 f i CalcTime.obj
 0001:00015b70       ?SetHist_RCH@CDrEdge@@QAEXH@Z 10016b70 f i CalcTime.obj
 0001:00015ba0       ?GetHistType@CDrEdge@@QAEHXZ 10016ba0 f i CalcTime.obj
 0001:00015bc0       ?SetHistType@CDrEdge@@QAEXH@Z 10016bc0 f i CalcTime.obj
 0001:00015bf0       ?GetMesh@CDrEdge@@QAEPAVCDrObject@@XZ 10016bf0 f i CalcTime.obj
 0001:00015c10       ?SetMesh@CDrEdge@@QAEXPAVCDrObject@@@Z 10016c10 f i CalcTime.obj
 0001:00015c40       ?GetMeshType@CDrEdge@@QAEIXZ 10016c40 f i CalcTime.obj
 0001:00015c60       ?SetMeshType@CDrEdge@@QAEXI@Z 10016c60 f i CalcTime.obj
 0001:00015c90       ?IsOnBndry@CDrEdge@@QAEHXZ 10016c90 f i CalcTime.obj
 0001:00015cb0       ?SetOnBndry@CDrEdge@@QAEXH@Z 10016cb0 f i CalcTime.obj
 0001:00015ce0       ??1CDlg_FE2I@@UAE@XZ       10016ce0 f i CalcTime.obj
 0001:00015dc0       ?GetMesh1DList@CDrProf_1@@UAEPAVCDListMgr@@XZ 10016dc0 f i CalcTime.obj
 0001:00015df0       ?GetLMList@CDrProf_1@@UAEPAVCDListMgr@@XZ 10016df0 f i CalcTime.obj
 0001:00015e20       ?GetMesh1D@CDrProf_1@@UAEPAVCDrMesh1D@@XZ 10016e20 f i CalcTime.obj
 0001:00015e50       ?SetMesh1D@CDrProf_1@@UAEXPAVCDrMesh1D@@@Z 10016e50 f i CalcTime.obj
 0001:00015e80       ?_GetBaseClass@CCalcTime@@KGPAUCRuntimeClass@@XZ 10016e80 f   CalcTime.obj
 0001:00015ea0       ?GetRuntimeClass@CCalcTime@@UBEPAUCRuntimeClass@@XZ 10016ea0 f   CalcTime.obj
 0001:00015ec0       ??0CCalcTime@@QAE@XZ       10016ec0 f   CalcTime.obj
 0001:00015f10       ??_GCCalcTime@@UAEPAXI@Z   10016f10 f i CalcTime.obj
 0001:00015f10       ??_ECCalcTime@@UAEPAXI@Z   10016f10 f i CalcTime.obj
 0001:00015f50       ??1CCalcTime@@UAE@XZ       10016f50 f i CalcTime.obj
 0001:00015f80       ?StartClock@CCalcTime@@QAEXXZ 10016f80 f   CalcTime.obj
 0001:00015fe0       ?IsDebugCTim@CDrGrafFrame@@QAEHXZ 10016fe0 f i CalcTime.obj
 0001:00016010       ?StopClock@CCalcTime@@QAEXXZ 10017010 f   CalcTime.obj
 0001:00016070       ?OutDuration@CCalcTime@@QAEXAAVCString@@@Z 10017070 f   CalcTime.obj
 0001:000161b0       ?GetDlg_CTim@CDrGrafFrame@@QAEPAVCDlg_CTim@@XZ 100171b0 f i CalcTime.obj
 0001:000161e0       ?OutComment@CCalcTime@@QAEXAAVCString@@@Z 100171e0 f   CalcTime.obj
 0001:00016240       ??1?$CList@HH@@UAE@XZ      10017240 f i CalcTime.obj
 0001:000162e0       ?Serialize@?$CList@HH@@UAEXAAVCArchive@@@Z 100172e0 f i CalcTime.obj
 0001:00016400       ?Dump@?$CList@HH@@UBEXAAVCDumpContext@@@Z 10017400 f i CalcTime.obj
 0001:000164c0       ?AssertValid@?$CList@HH@@UBEXXZ 100174c0 f i CalcTime.obj
 0001:000165c0       ??_G?$CList@HH@@UAEPAXI@Z  100175c0 f i CalcTime.obj
 0001:000165c0       ??_E?$CList@HH@@UAEPAXI@Z  100175c0 f i CalcTime.obj
 0001:00016600       ?AddTail@?$CList@HH@@QAEPAU__POSITION@@H@Z 10017600 f i CalcTime.obj
 0001:00016690       ?RemoveAll@?$CList@HH@@QAEXXZ 10017690 f i CalcTime.obj
 0001:00016740       ?GetHeadPosition@?$CList@HH@@QBEPAU__POSITION@@XZ 10017740 f i CalcTime.obj
 0001:00016760       ?GetNext@?$CList@HH@@QAEAAHAAPAU__POSITION@@@Z 10017760 f i CalcTime.obj
 0001:000167d0       ?SerializeElements@@YGXAAVCArchive@@PAHH@Z 100177d0 f i CalcTime.obj
 0001:00016870       ?DumpElements@@YGXAAVCDumpContext@@PBHH@Z 10017870 f i CalcTime.obj
 0001:000168d0       ?NewNode@?$CList@HH@@IAEPAUCNode@1@PAU21@0@Z 100178d0 f i CalcTime.obj
 0001:00016a40       ?DestructElements@@YGXPAHH@Z 10017a40 f i CalcTime.obj
 0001:00016ac0       ?ConstructElements@@YGXPAHH@Z 10017ac0 f i CalcTime.obj
 0001:00016b70       ??2@YAPAXIPAX@Z            10017b70 f i CalcTime.obj
 0001:00016b90       ??1CViewInfo@@UAE@XZ       10017b90 f i CurMouse.obj
 0001:00016c20       ??1CBitmapButton@@UAE@XZ   10017c20 f i CurMouse.obj
 0001:00016cc0       ?GetObjectType@CBooleans@@UAEHXZ 10017cc0 f i CurMouse.obj
 0001:00016cf0       ?SetObjectType@CBooleans@@UAEXH@Z 10017cf0 f i CurMouse.obj
 0001:00016d20       ?GetElemType@CBooleans@@UAEHXZ 10017d20 f i CurMouse.obj
 0001:00016d50       ?SetElemType@CBooleans@@UAEXH@Z 10017d50 f i CurMouse.obj
 0001:00016d80       ?GetObjectNo@CBooleans@@UAEJXZ 10017d80 f i CurMouse.obj
 0001:00016db0       ?SetObjectNo@CBooleans@@UAEXJ@Z 10017db0 f i CurMouse.obj
 0001:00016de0       ?IsSoundOn@CBooleans@@UAEHXZ 10017de0 f i CurMouse.obj
 0001:00016e10       ?ToggleSoundOn@CBooleans@@UAEXXZ 10017e10 f i CurMouse.obj
 0001:00016e50       ?IsCoonSocksOff@CBooleans@@UAEHXZ 10017e50 f i CurMouse.obj
 0001:00016e80       ?ToggleCoonSocksOff@CBooleans@@UAEXXZ 10017e80 f i CurMouse.obj
 0001:00016ec0       ?IsSnapOn@CBooleans@@UAEHXZ 10017ec0 f i CurMouse.obj
 0001:00016ef0       ?ToggleSnapOn@CBooleans@@UAEXXZ 10017ef0 f i CurMouse.obj
 0001:00016f30       ?IsHorSnapOn@CBooleans@@UAEHXZ 10017f30 f i CurMouse.obj
 0001:00016f60       ?ToggleHorSnapOn@CBooleans@@UAEXXZ 10017f60 f i CurMouse.obj
 0001:00016fa0       ?IsVerSnapOn@CBooleans@@UAEHXZ 10017fa0 f i CurMouse.obj
 0001:00016fd0       ?ToggleVerSnapOn@CBooleans@@UAEXXZ 10017fd0 f i CurMouse.obj
 0001:00017010       ?IsSpawnOn@CBooleans@@UAEHXZ 10018010 f i CurMouse.obj
 0001:00017040       ?ToggleSpawnOn@CBooleans@@UAEXXZ 10018040 f i CurMouse.obj
 0001:00017080       ?IsBLineOn@CBooleans@@UAEHXZ 10018080 f i CurMouse.obj
 0001:000170b0       ?ToggleBLineOn@CBooleans@@UAEXXZ 100180b0 f i CurMouse.obj
 0001:000170f0       ?IsSingleSegOn@CBooleans@@UAEHXZ 100180f0 f i CurMouse.obj
 0001:00017120       ?ToggleSingleSegOn@CBooleans@@UAEXXZ 10018120 f i CurMouse.obj
 0001:00017160       ?IsAutoAcceptOn@CBooleans@@UAEHXZ 10018160 f i CurMouse.obj
 0001:00017190       ?ToggleAutoAcceptOn@CBooleans@@UAEXXZ 10018190 f i CurMouse.obj
 0001:000171d0       ?IsDialogOn@CBooleans@@UAEHXZ 100181d0 f i CurMouse.obj
 0001:00017200       ?ToggleDialogOn@CBooleans@@UAEXXZ 10018200 f i CurMouse.obj
 0001:00017240       ?IsElementOn@CBooleans@@UAEHXZ 10018240 f i CurMouse.obj
 0001:00017270       ?ToggleElementOn@CBooleans@@UAEXXZ 10018270 f i CurMouse.obj
 0001:000172b0       ?IsDragOn@CBooleans@@UAEHXZ 100182b0 f i CurMouse.obj
 0001:000172e0       ?ToggleDragOn@CBooleans@@UAEXXZ 100182e0 f i CurMouse.obj
 0001:00017320       ?IsRefreshOn@CBooleans@@UAEHXZ 10018320 f i CurMouse.obj
 0001:00017350       ?ToggleRefreshOn@CBooleans@@UAEXXZ 10018350 f i CurMouse.obj
 0001:00017390       ?IsRubberBandOn@CBooleans@@UAEHXZ 10018390 f i CurMouse.obj
 0001:000173c0       ?ToggleRubberBandOn@CBooleans@@UAEXXZ 100183c0 f i CurMouse.obj
 0001:00017400       ?IsStViewActive@CBooleans@@UAEHXZ 10018400 f i CurMouse.obj
 0001:00017430       ?ToggleStViewActive@CBooleans@@UAEXXZ 10018430 f i CurMouse.obj
 0001:00017470       ?IsSpViewActive@CBooleans@@UAEHXZ 10018470 f i CurMouse.obj
 0001:000174a0       ?ToggleSpViewActive@CBooleans@@UAEXXZ 100184a0 f i CurMouse.obj
 0001:000174e0       ?IsHsViewActive@CBooleans@@UAEHXZ 100184e0 f i CurMouse.obj
 0001:00017510       ?ToggleHsViewActive@CBooleans@@UAEXXZ 10018510 f i CurMouse.obj
 0001:00017550       ?Is12ViewActive@CBooleans@@UAEHXZ 10018550 f i CurMouse.obj
 0001:00017580       ?Toggle12ViewActive@CBooleans@@UAEXXZ 10018580 f i CurMouse.obj
 0001:000175c0       ?Is23ViewActive@CBooleans@@UAEHXZ 100185c0 f i CurMouse.obj
 0001:000175f0       ?Toggle23ViewActive@CBooleans@@UAEXXZ 100185f0 f i CurMouse.obj
 0001:00017630       ?Is31ViewActive@CBooleans@@UAEHXZ 10018630 f i CurMouse.obj
 0001:00017660       ?Toggle31ViewActive@CBooleans@@UAEXXZ 10018660 f i CurMouse.obj
 0001:000176a0       ?IsIsoViewActive@CBooleans@@UAEHXZ 100186a0 f i CurMouse.obj
 0001:000176d0       ?ToggleIsoViewActive@CBooleans@@UAEXXZ 100186d0 f i CurMouse.obj
 0001:00017710       ?IsDataViewActive@CBooleans@@UAEHXZ 10018710 f i CurMouse.obj
 0001:00017740       ?ToggleDataViewActive@CBooleans@@UAEXXZ 10018740 f i CurMouse.obj
 0001:00017780       ?IsMeshDataViewActive@CBooleans@@UAEHXZ 10018780 f i CurMouse.obj
 0001:000177b0       ?ToggleMeshDataViewActive@CBooleans@@UAEXXZ 100187b0 f i CurMouse.obj
 0001:000177f0       ?IsDeckViewActive@CBooleans@@UAEHXZ 100187f0 f i CurMouse.obj
 0001:00017820       ?ToggleDeckViewActive@CBooleans@@UAEXXZ 10018820 f i CurMouse.obj
 0001:00017860       ?IsFormDataViewActive@CBooleans@@UAEHXZ 10018860 f i CurMouse.obj
 0001:00017890       ?ToggleFormDataViewActive@CBooleans@@UAEXXZ 10018890 f i CurMouse.obj
 0001:000178d0       ?IsInputMode@CBooleans@@UAEHXZ 100188d0 f i CurMouse.obj
 0001:00017900       ?SetInputMode@CBooleans@@UAEXH@Z 10018900 f i CurMouse.obj
 0001:00017930       ?IsOutputMode@CBooleans@@UAEHXZ 10018930 f i CurMouse.obj
 0001:00017960       ?SetOutputMode@CBooleans@@UAEXH@Z 10018960 f i CurMouse.obj
 0001:00017990       ??1CBooleans@@UAE@XZ       10018990 f i CurMouse.obj
 0001:000179c0       ??_GCBooleans@@UAEPAXI@Z   100189c0 f i CurMouse.obj
 0001:00017a00       ??_ECBooleans@@UAEPAXI@Z   10018a00 f i CurMouse.obj
 0001:00017aa0       ?GetObjectType@CDataWindow@@UAEHXZ 10018aa0 f i CurMouse.obj
 0001:00017ad0       ?SetObjectType@CDataWindow@@UAEXH@Z 10018ad0 f i CurMouse.obj
 0001:00017b00       ?GetElemType@CDataWindow@@UAEHXZ 10018b00 f i CurMouse.obj
 0001:00017b30       ?SetElemType@CDataWindow@@UAEXH@Z 10018b30 f i CurMouse.obj
 0001:00017b60       ?GetObjectNo@CDataWindow@@UAEJXZ 10018b60 f i CurMouse.obj
 0001:00017b90       ?SetObjectNo@CDataWindow@@UAEXJ@Z 10018b90 f i CurMouse.obj
 0001:00017bc0       ?GetWinOrgWIC@CDataWindow@@UAE?AULPOINT3@@XZ 10018bc0 f i CurMouse.obj
 0001:00017c00       ?GetWinMinWIC@CDataWindow@@UAE?AULPOINT3@@XZ 10018c00 f i CurMouse.obj
 0001:00017c40       ?GetWinMaxWIC@CDataWindow@@UAE?AULPOINT3@@XZ 10018c40 f i CurMouse.obj
 0001:00017c80       ?GetWinExtWIC@CDataWindow@@UAE?AULPOINT3@@XZ 10018c80 f i CurMouse.obj
 0001:00017cc0       ??1CDataWindow@@UAE@XZ     10018cc0 f i CurMouse.obj
 0001:00017cf0       ??_GCDataWindow@@UAEPAXI@Z 10018cf0 f i CurMouse.obj
 0001:00017d30       ??_ECDataWindow@@UAEPAXI@Z 10018d30 f i CurMouse.obj
 0001:00017dd0       ?GetObjectType@CDrFont@@UAEHXZ 10018dd0 f i CurMouse.obj
 0001:00017e00       ?SetObjectType@CDrFont@@UAEXH@Z 10018e00 f i CurMouse.obj
 0001:00017e30       ?GetElemType@CDrFont@@UAEHXZ 10018e30 f i CurMouse.obj
 0001:00017e60       ?SetElemType@CDrFont@@UAEXH@Z 10018e60 f i CurMouse.obj
 0001:00017e90       ?GetObjectNo@CDrFont@@UAEJXZ 10018e90 f i CurMouse.obj
 0001:00017ec0       ?SetObjectNo@CDrFont@@UAEXJ@Z 10018ec0 f i CurMouse.obj
 0001:00017ef0       ?IsFontSelected@CDrFont@@UAEHXZ 10018ef0 f i CurMouse.obj
 0001:00017f20       ?GetTextColor@CDrFont@@UAEKXZ 10018f20 f i CurMouse.obj
 0001:00017f50       ?SetTextColor@CDrFont@@UAEXK@Z 10018f50 f i CurMouse.obj
 0001:00017f80       ?GetCurrentLogFont@CDrFont@@UAE?AUtagLOGFONTA@@XZ 10018f80 f i CurMouse.obj
 0001:00017fc0       ?SetCurrentLogFont@CDrFont@@UAEXUtagLOGFONTA@@@Z 10018fc0 f i CurMouse.obj
 0001:00018000       ??1CDrFont@@UAE@XZ         10019000 f i CurMouse.obj
 0001:00018030       ??_GCDrFont@@UAEPAXI@Z     10019030 f i CurMouse.obj
 0001:00018070       ??_ECDrFont@@UAEPAXI@Z     10019070 f i CurMouse.obj
 0001:00018110       ?GetObjectType@CDrPen@@UAEHXZ 10019110 f i CurMouse.obj
 0001:00018140       ?SetObjectType@CDrPen@@UAEXH@Z 10019140 f i CurMouse.obj
 0001:00018170       ?GetElemType@CDrPen@@UAEHXZ 10019170 f i CurMouse.obj
 0001:000181a0       ?SetElemType@CDrPen@@UAEXH@Z 100191a0 f i CurMouse.obj
 0001:000181d0       ?GetObjectNo@CDrPen@@UAEJXZ 100191d0 f i CurMouse.obj
 0001:00018200       ?SetObjectNo@CDrPen@@UAEXJ@Z 10019200 f i CurMouse.obj
 0001:00018230       ?GetCurrentPen@CDrPen@@UAEPAVCPen@@XZ 10019230 f i CurMouse.obj
 0001:00018260       ?GetStyle@CDrPen@@UAEHXZ   10019260 f i CurMouse.obj
 0001:00018290       ?SetStyle@CDrPen@@UAEXH@Z  10019290 f i CurMouse.obj
 0001:000182c0       ?GetStyleOld@CDrPen@@UAEHXZ 100192c0 f i CurMouse.obj
 0001:000182f0       ?SetStyleOld@CDrPen@@UAEXH@Z 100192f0 f i CurMouse.obj
 0001:00018320       ?GetStyleDefault@CDrPen@@UAEHXZ 10019320 f i CurMouse.obj
 0001:00018350       ?SetStyleDefault@CDrPen@@UAEXH@Z 10019350 f i CurMouse.obj
 0001:00018380       ?GetWidth@CDrPen@@UAEHXZ   10019380 f i CurMouse.obj
 0001:000183b0       ?SetWidth@CDrPen@@UAEXH@Z  100193b0 f i CurMouse.obj
 0001:000183e0       ?GetWidthOld@CDrPen@@UAEHXZ 100193e0 f i CurMouse.obj
 0001:00018410       ?SetWidthOld@CDrPen@@UAEXH@Z 10019410 f i CurMouse.obj
 0001:00018440       ?GetWidthDefault@CDrPen@@UAEHXZ 10019440 f i CurMouse.obj
 0001:00018470       ?SetWidthDefault@CDrPen@@UAEXH@Z 10019470 f i CurMouse.obj
 0001:000184a0       ?GetColor@CDrPen@@UAEKXZ   100194a0 f i CurMouse.obj
 0001:000184d0       ?SetColor@CDrPen@@UAEXK@Z  100194d0 f i CurMouse.obj
 0001:00018500       ?GetColorOld@CDrPen@@UAEKXZ 10019500 f i CurMouse.obj
 0001:00018530       ?SetColorOld@CDrPen@@UAEXK@Z 10019530 f i CurMouse.obj
 0001:00018560       ?GetColorDefault@CDrPen@@UAEKXZ 10019560 f i CurMouse.obj
 0001:00018590       ?SetColorDefault@CDrPen@@UAEXK@Z 10019590 f i CurMouse.obj
 0001:000185c0       ?GetIndex@CDrPen@@UAEIXZ   100195c0 f i CurMouse.obj
 0001:000185f0       ?SetIndex@CDrPen@@UAEXI@Z  100195f0 f i CurMouse.obj
 0001:00018620       ?GetIndexOld@CDrPen@@UAEIXZ 10019620 f i CurMouse.obj
 0001:00018650       ?SetIndexOld@CDrPen@@UAEXI@Z 10019650 f i CurMouse.obj
 0001:00018680       ?GetIndexDefault@CDrPen@@UAEIXZ 10019680 f i CurMouse.obj
 0001:000186b0       ?SetIndexDefault@CDrPen@@UAEXI@Z 100196b0 f i CurMouse.obj
 0001:000186e0       ?GetStyleNameCount@CDrPen@@UAEIXZ 100196e0 f i CurMouse.obj
 0001:00018710       ?SetStyleNameCount@CDrPen@@UAEXI@Z 10019710 f i CurMouse.obj
 0001:00018740       ?GetStyleName@CDrPen@@UAE?AVCString@@I@Z 10019740 f i CurMouse.obj
 0001:00018790       ?GetStyleConstant@CDrPen@@UAEII@Z 10019790 f i CurMouse.obj
 0001:000187c0       ??1CDrPen@@UAE@XZ          100197c0 f i CurMouse.obj
 0001:00018860       ??_GCDrPen@@UAEPAXI@Z      10019860 f i CurMouse.obj
 0001:000188a0       ??_ECDrPen@@UAEPAXI@Z      100198a0 f i CurMouse.obj
 0001:00018940       ?GetObjectType@CHitNet@@UAEHXZ 10019940 f i CurMouse.obj
 0001:00018970       ?SetObjectType@CHitNet@@UAEXH@Z 10019970 f i CurMouse.obj
 0001:000189a0       ?GetElemType@CHitNet@@UAEHXZ 100199a0 f i CurMouse.obj
 0001:000189d0       ?SetElemType@CHitNet@@UAEXH@Z 100199d0 f i CurMouse.obj
 0001:00018a00       ?GetObjectNo@CHitNet@@UAEJXZ 10019a00 f i CurMouse.obj
 0001:00018a30       ?SetObjectNo@CHitNet@@UAEXJ@Z 10019a30 f i CurMouse.obj
 0001:00018a60       ?GetSearchNet@CHitNet@@QAEHXZ 10019a60 f i CurMouse.obj
 0001:00018a90       ?SetSearchNet@CHitNet@@QAEXH@Z 10019a90 f i CurMouse.obj
 0001:00018ac0       ?GetSearchNetOld@CHitNet@@QAEHXZ 10019ac0 f i CurMouse.obj
 0001:00018af0       ?SetSearchNetOld@CHitNet@@QAEXH@Z 10019af0 f i CurMouse.obj
 0001:00018b20       ?GetSearchNetDefault@CHitNet@@QAEHXZ 10019b20 f i CurMouse.obj
 0001:00018b50       ?SetSearchNetDefault@CHitNet@@QAEXH@Z 10019b50 f i CurMouse.obj
 0001:00018b80       ?GetSearchDet@CHitNet@@QAENXZ 10019b80 f i CurMouse.obj
 0001:00018bb0       ?SetSearchDet@CHitNet@@QAEXN@Z 10019bb0 f i CurMouse.obj
 0001:00018bf0       ?GetSearchDetOld@CHitNet@@QAENXZ 10019bf0 f i CurMouse.obj
 0001:00018c20       ?SetSearchDetOld@CHitNet@@QAEXN@Z 10019c20 f i CurMouse.obj
 0001:00018c60       ?GetSearchDetDefault@CHitNet@@QAENXZ 10019c60 f i CurMouse.obj
 0001:00018c90       ?SetSearchDetDefault@CHitNet@@QAEXN@Z 10019c90 f i CurMouse.obj
 0001:00018cd0       ?GetDblRatio@CHitNet@@QAENXZ 10019cd0 f i CurMouse.obj
 0001:00018d00       ?SetDblRatio@CHitNet@@QAEXN@Z 10019d00 f i CurMouse.obj
 0001:00018d40       ?GetDblRatioOld@CHitNet@@QAENXZ 10019d40 f i CurMouse.obj
 0001:00018d70       ?SetDblRatioOld@CHitNet@@QAEXN@Z 10019d70 f i CurMouse.obj
 0001:00018db0       ?GetDblRatioDefault@CHitNet@@QAENXZ 10019db0 f i CurMouse.obj
 0001:00018de0       ?SetDblRatioDefault@CHitNet@@QAEXN@Z 10019de0 f i CurMouse.obj
 0001:00018e20       ?GetCoLinear@CHitNet@@QAENXZ 10019e20 f i CurMouse.obj
 0001:00018e50       ?SetCoLinear@CHitNet@@QAEXN@Z 10019e50 f i CurMouse.obj
 0001:00018e90       ?GetCoLinearOld@CHitNet@@QAENXZ 10019e90 f i CurMouse.obj
 0001:00018ec0       ?SetCoLinearOld@CHitNet@@QAEXN@Z 10019ec0 f i CurMouse.obj
 0001:00018f00       ?GetCoLinearDefault@CHitNet@@QAENXZ 10019f00 f i CurMouse.obj
 0001:00018f30       ?SetCoLinearDefault@CHitNet@@QAEXN@Z 10019f30 f i CurMouse.obj
 0001:00018f70       ?GetCoPlanar@CHitNet@@QAENXZ 10019f70 f i CurMouse.obj
 0001:00018fa0       ?SetCoPlanar@CHitNet@@QAEXN@Z 10019fa0 f i CurMouse.obj
 0001:00018fe0       ?GetCoPlanarOld@CHitNet@@QAENXZ 10019fe0 f i CurMouse.obj
 0001:00019010       ?SetCoPlanarOld@CHitNet@@QAEXN@Z 1001a010 f i CurMouse.obj
 0001:00019050       ?GetCoPlanarDefault@CHitNet@@QAENXZ 1001a050 f i CurMouse.obj
 0001:00019080       ?SetCoPlanarDefault@CHitNet@@QAEXN@Z 1001a080 f i CurMouse.obj
 0001:000190c0       ?GetMergeNode_X@CHitNet@@QAENXZ 1001a0c0 f i CurMouse.obj
 0001:000190f0       ?SetMergeNode_X@CHitNet@@QAEXN@Z 1001a0f0 f i CurMouse.obj
 0001:00019130       ?GetMergeNode_XOld@CHitNet@@QAENXZ 1001a130 f i CurMouse.obj
 0001:00019160       ?SetMergeNode_XOld@CHitNet@@QAEXN@Z 1001a160 f i CurMouse.obj
 0001:000191a0       ?GetMergeNode_XDefault@CHitNet@@QAENXZ 1001a1a0 f i CurMouse.obj
 0001:000191d0       ?SetMergeNode_XDefault@CHitNet@@QAEXN@Z 1001a1d0 f i CurMouse.obj
 0001:00019210       ?GetMergeNode_Y@CHitNet@@QAENXZ 1001a210 f i CurMouse.obj
 0001:00019240       ?SetMergeNode_Y@CHitNet@@QAEXN@Z 1001a240 f i CurMouse.obj
 0001:00019280       ?GetMergeNode_YOld@CHitNet@@QAENXZ 1001a280 f i CurMouse.obj
 0001:000192b0       ?SetMergeNode_YOld@CHitNet@@QAEXN@Z 1001a2b0 f i CurMouse.obj
 0001:000192f0       ?GetMergeNode_YDefault@CHitNet@@QAENXZ 1001a2f0 f i CurMouse.obj
 0001:00019320       ?SetMergeNode_YDefault@CHitNet@@QAEXN@Z 1001a320 f i CurMouse.obj
 0001:00019360       ?GetMergeNode_Z@CHitNet@@QAENXZ 1001a360 f i CurMouse.obj
 0001:00019390       ?SetMergeNode_Z@CHitNet@@QAEXN@Z 1001a390 f i CurMouse.obj
 0001:000193d0       ?GetMergeNode_ZOld@CHitNet@@QAENXZ 1001a3d0 f i CurMouse.obj
 0001:00019400       ?SetMergeNode_ZOld@CHitNet@@QAEXN@Z 1001a400 f i CurMouse.obj
 0001:00019440       ?GetMergeNode_ZDefault@CHitNet@@QAENXZ 1001a440 f i CurMouse.obj
 0001:00019470       ?SetMergeNode_ZDefault@CHitNet@@QAEXN@Z 1001a470 f i CurMouse.obj
 0001:000194b0       ??1CHitNet@@UAE@XZ         1001a4b0 f i CurMouse.obj
 0001:000194e0       ??_GCHitNet@@UAEPAXI@Z     1001a4e0 f i CurMouse.obj
 0001:00019520       ??_ECHitNet@@UAEPAXI@Z     1001a520 f i CurMouse.obj
 0001:000195c0       ?GetObjectType@CLayer@@UAEHXZ 1001a5c0 f i CurMouse.obj
 0001:000195f0       ?SetObjectType@CLayer@@UAEXH@Z 1001a5f0 f i CurMouse.obj
 0001:00019620       ?GetElemType@CLayer@@UAEHXZ 1001a620 f i CurMouse.obj
 0001:00019650       ?SetElemType@CLayer@@UAEXH@Z 1001a650 f i CurMouse.obj
 0001:00019680       ?GetObjectNo@CLayer@@UAEJXZ 1001a680 f i CurMouse.obj
 0001:000196b0       ?SetObjectNo@CLayer@@UAEXJ@Z 1001a6b0 f i CurMouse.obj
 0001:000196e0       ?GetCurrentLayer@CLayer@@UAEIXZ 1001a6e0 f i CurMouse.obj
 0001:00019710       ?SetCurrentLayer@CLayer@@UAEXI@Z 1001a710 f i CurMouse.obj
 0001:00019740       ?GetCurrentLayerOld@CLayer@@UAEIXZ 1001a740 f i CurMouse.obj
 0001:00019770       ?SetCurrentLayerOld@CLayer@@UAEXI@Z 1001a770 f i CurMouse.obj
 0001:000197a0       ?GetCurrentLayerDefault@CLayer@@UAEIXZ 1001a7a0 f i CurMouse.obj
 0001:000197d0       ?SetCurrentLayerDefault@CLayer@@UAEXI@Z 1001a7d0 f i CurMouse.obj
 0001:00019800       ??1CLayer@@UAE@XZ          1001a800 f i CurMouse.obj
 0001:00019830       ??_GCLayer@@UAEPAXI@Z      1001a830 f i CurMouse.obj
 0001:00019870       ??_ECLayer@@UAEPAXI@Z      1001a870 f i CurMouse.obj
 0001:00019910       ?GetObjectType@CPatchMnu@@UAEHXZ 1001a910 f i CurMouse.obj
 0001:00019940       ?SetObjectType@CPatchMnu@@UAEXH@Z 1001a940 f i CurMouse.obj
 0001:00019970       ?GetElemType@CPatchMnu@@UAEHXZ 1001a970 f i CurMouse.obj
 0001:000199a0       ?SetElemType@CPatchMnu@@UAEXH@Z 1001a9a0 f i CurMouse.obj
 0001:000199d0       ?GetObjectNo@CPatchMnu@@UAEJXZ 1001a9d0 f i CurMouse.obj
 0001:00019a00       ?SetObjectNo@CPatchMnu@@UAEXJ@Z 1001aa00 f i CurMouse.obj
 0001:00019a30       ?GetCurrentPatchMnu@CPatchMnu@@UAEIXZ 1001aa30 f i CurMouse.obj
 0001:00019a60       ?SetCurrentPatchMnu@CPatchMnu@@UAEXI@Z 1001aa60 f i CurMouse.obj
 0001:00019a90       ?GetCurrentPatchMnuOld@CPatchMnu@@UAEIXZ 1001aa90 f i CurMouse.obj
 0001:00019ac0       ?SetCurrentPatchMnuOld@CPatchMnu@@UAEXI@Z 1001aac0 f i CurMouse.obj
 0001:00019af0       ?GetCurrentPatchMnuDefault@CPatchMnu@@UAEIXZ 1001aaf0 f i CurMouse.obj
 0001:00019b20       ?SetCurrentPatchMnuDefault@CPatchMnu@@UAEXI@Z 1001ab20 f i CurMouse.obj
 0001:00019b50       ?GetPatchMnuID@CPatchMnu@@UAE?AVCString@@I@Z 1001ab50 f i CurMouse.obj
 0001:00019ba0       ?SetPatchMnuID@CPatchMnu@@UAEXVCString@@I@Z 1001aba0 f i CurMouse.obj
 0001:00019c20       ?GetCurrentID@CPatchMnu@@UAE?AVCString@@XZ 1001ac20 f i CurMouse.obj
 0001:00019c70       ?SetCurrentID@CPatchMnu@@UAEXVCString@@@Z 1001ac70 f i CurMouse.obj
 0001:00019cf0       ??1CPatchMnu@@UAE@XZ       1001acf0 f i CurMouse.obj
 0001:00019db0       ??_GCPatchMnu@@UAEPAXI@Z   1001adb0 f i CurMouse.obj
 0001:00019df0       ??_ECPatchMnu@@UAEPAXI@Z   1001adf0 f i CurMouse.obj
 0001:00019e90       ?GetObjectType@CObj3DMnu@@UAEHXZ 1001ae90 f i CurMouse.obj
 0001:00019ec0       ?SetObjectType@CObj3DMnu@@UAEXH@Z 1001aec0 f i CurMouse.obj
 0001:00019ef0       ?GetElemType@CObj3DMnu@@UAEHXZ 1001aef0 f i CurMouse.obj
 0001:00019f20       ?SetElemType@CObj3DMnu@@UAEXH@Z 1001af20 f i CurMouse.obj
 0001:00019f50       ?GetObjectNo@CObj3DMnu@@UAEJXZ 1001af50 f i CurMouse.obj
 0001:00019f80       ?SetObjectNo@CObj3DMnu@@UAEXJ@Z 1001af80 f i CurMouse.obj
 0001:00019fb0       ?GetCurrentObj3DMnu@CObj3DMnu@@UAEIXZ 1001afb0 f i CurMouse.obj
 0001:00019fe0       ?SetCurrentObj3DMnu@CObj3DMnu@@UAEXI@Z 1001afe0 f i CurMouse.obj
 0001:0001a010       ?GetCurrentObj3DMnuOld@CObj3DMnu@@UAEIXZ 1001b010 f i CurMouse.obj
 0001:0001a040       ?SetCurrentObj3DMnuOld@CObj3DMnu@@UAEXI@Z 1001b040 f i CurMouse.obj
 0001:0001a070       ?GetCurrentObj3DMnuDefault@CObj3DMnu@@UAEIXZ 1001b070 f i CurMouse.obj
 0001:0001a0a0       ?SetCurrentObj3DMnuDefault@CObj3DMnu@@UAEXI@Z 1001b0a0 f i CurMouse.obj
 0001:0001a0d0       ?GetObj3DMnuID@CObj3DMnu@@UAE?AVCString@@I@Z 1001b0d0 f i CurMouse.obj
 0001:0001a120       ?SetObj3DMnuID@CObj3DMnu@@UAEXVCString@@I@Z 1001b120 f i CurMouse.obj
 0001:0001a1a0       ?GetCurrentID@CObj3DMnu@@UAE?AVCString@@XZ 1001b1a0 f i CurMouse.obj
 0001:0001a1f0       ?SetCurrentID@CObj3DMnu@@UAEXVCString@@@Z 1001b1f0 f i CurMouse.obj
 0001:0001a270       ??1CObj3DMnu@@UAE@XZ       1001b270 f i CurMouse.obj
 0001:0001a330       ??_GCObj3DMnu@@UAEPAXI@Z   1001b330 f i CurMouse.obj
 0001:0001a370       ??_ECObj3DMnu@@UAEPAXI@Z   1001b370 f i CurMouse.obj
 0001:0001a410       ?GetObjectType@CMapFactor@@UAEHXZ 1001b410 f i CurMouse.obj
 0001:0001a440       ?SetObjectType@CMapFactor@@UAEXH@Z 1001b440 f i CurMouse.obj
 0001:0001a470       ?GetElemType@CMapFactor@@UAEHXZ 1001b470 f i CurMouse.obj
 0001:0001a4a0       ?SetElemType@CMapFactor@@UAEXH@Z 1001b4a0 f i CurMouse.obj
 0001:0001a4d0       ?GetObjectNo@CMapFactor@@UAEJXZ 1001b4d0 f i CurMouse.obj
 0001:0001a500       ?SetObjectNo@CMapFactor@@UAEXJ@Z 1001b500 f i CurMouse.obj
 0001:0001a530       ?GetMapFactor@CMapFactor@@UAENXZ 1001b530 f i CurMouse.obj
 0001:0001a560       ?SetMapFactor@CMapFactor@@UAEXN@Z 1001b560 f i CurMouse.obj
 0001:0001a5a0       ?GetMapModeIndex@CMapFactor@@UAEHXZ 1001b5a0 f i CurMouse.obj
 0001:0001a5d0       ?SetMapModeIndex@CMapFactor@@UAEXH@Z 1001b5d0 f i CurMouse.obj
 0001:0001a600       ??1CMapFactor@@UAE@XZ      1001b600 f i CurMouse.obj
 0001:0001a630       ??_GCMapFactor@@UAEPAXI@Z  1001b630 f i CurMouse.obj
 0001:0001a670       ??_ECMapFactor@@UAEPAXI@Z  1001b670 f i CurMouse.obj
 0001:0001a710       ?GetObjectType@CPrecision@@UAEHXZ 1001b710 f i CurMouse.obj
 0001:0001a740       ?SetObjectType@CPrecision@@UAEXH@Z 1001b740 f i CurMouse.obj
 0001:0001a770       ?GetElemType@CPrecision@@UAEHXZ 1001b770 f i CurMouse.obj
 0001:0001a7a0       ?SetElemType@CPrecision@@UAEXH@Z 1001b7a0 f i CurMouse.obj
 0001:0001a7d0       ?GetObjectNo@CPrecision@@UAEJXZ 1001b7d0 f i CurMouse.obj
 0001:0001a800       ?SetObjectNo@CPrecision@@UAEXJ@Z 1001b800 f i CurMouse.obj
 0001:0001a830       ?GetPrecision@CPrecision@@UAEIXZ 1001b830 f i CurMouse.obj
 0001:0001a860       ?SetPrecision@CPrecision@@UAEXI@Z 1001b860 f i CurMouse.obj
 0001:0001a890       ?GetPrecisionOld@CPrecision@@UAEIXZ 1001b890 f i CurMouse.obj
 0001:0001a8c0       ?SetPrecisionOld@CPrecision@@UAEXI@Z 1001b8c0 f i CurMouse.obj
 0001:0001a8f0       ?GetPrecisionDefault@CPrecision@@UAEIXZ 1001b8f0 f i CurMouse.obj
 0001:0001a920       ?SetPrecisionDefault@CPrecision@@UAEXI@Z 1001b920 f i CurMouse.obj
 0001:0001a950       ?GetWorldBase@CPrecision@@UAEJXZ 1001b950 f i CurMouse.obj
 0001:0001a980       ?SetWorldBase@CPrecision@@UAEXJ@Z 1001b980 f i CurMouse.obj
 0001:0001a9b0       ?GetWorldBaseOld@CPrecision@@UAEJXZ 1001b9b0 f i CurMouse.obj
 0001:0001a9e0       ?SetWorldBaseOld@CPrecision@@UAEXJ@Z 1001b9e0 f i CurMouse.obj
 0001:0001aa10       ?GetWorldBaseDefault@CPrecision@@UAEJXZ 1001ba10 f i CurMouse.obj
 0001:0001aa40       ?SetWorldBaseDefault@CPrecision@@UAEXJ@Z 1001ba40 f i CurMouse.obj
 0001:0001aa70       ??1CPrecision@@UAE@XZ      1001ba70 f i CurMouse.obj
 0001:0001aaa0       ??_GCPrecision@@UAEPAXI@Z  1001baa0 f i CurMouse.obj
 0001:0001aae0       ??_ECPrecision@@UAEPAXI@Z  1001bae0 f i CurMouse.obj
 0001:0001ab80       ?GetObjectType@CScaleFactor@@UAEHXZ 1001bb80 f i CurMouse.obj
 0001:0001abb0       ?SetObjectType@CScaleFactor@@UAEXH@Z 1001bbb0 f i CurMouse.obj
 0001:0001abe0       ?GetElemType@CScaleFactor@@UAEHXZ 1001bbe0 f i CurMouse.obj
 0001:0001ac10       ?SetElemType@CScaleFactor@@UAEXH@Z 1001bc10 f i CurMouse.obj
 0001:0001ac40       ?GetObjectNo@CScaleFactor@@UAEJXZ 1001bc40 f i CurMouse.obj
 0001:0001ac70       ?SetObjectNo@CScaleFactor@@UAEXJ@Z 1001bc70 f i CurMouse.obj
 0001:0001aca0       ?GetScaleFactor@CScaleFactor@@UAENXZ 1001bca0 f i CurMouse.obj
 0001:0001acd0       ?SetScaleFactor@CScaleFactor@@UAEXN@Z 1001bcd0 f i CurMouse.obj
 0001:0001ad10       ?GetScaleFactorOld@CScaleFactor@@UAENXZ 1001bd10 f i CurMouse.obj
 0001:0001ad40       ?SetScaleFactorOld@CScaleFactor@@UAEXN@Z 1001bd40 f i CurMouse.obj
 0001:0001ad80       ?GetScaleFactorDefault@CScaleFactor@@UAENXZ 1001bd80 f i CurMouse.obj
 0001:0001adb0       ?SetScaleFactorDefault@CScaleFactor@@UAEXN@Z 1001bdb0 f i CurMouse.obj
 0001:0001adf0       ??1CScaleFactor@@UAE@XZ    1001bdf0 f i CurMouse.obj
 0001:0001ae20       ??_GCScaleFactor@@UAEPAXI@Z 1001be20 f i CurMouse.obj
 0001:0001ae60       ??_ECScaleFactor@@UAEPAXI@Z 1001be60 f i CurMouse.obj
 0001:0001af00       ?GetObjectType@CUnit@@UAEHXZ 1001bf00 f i CurMouse.obj
 0001:0001af30       ?SetObjectType@CUnit@@UAEXH@Z 1001bf30 f i CurMouse.obj
 0001:0001af60       ?GetElemType@CUnit@@UAEHXZ 1001bf60 f i CurMouse.obj
 0001:0001af90       ?SetElemType@CUnit@@UAEXH@Z 1001bf90 f i CurMouse.obj
 0001:0001afc0       ?GetObjectNo@CUnit@@UAEJXZ 1001bfc0 f i CurMouse.obj
 0001:0001aff0       ?SetObjectNo@CUnit@@UAEXJ@Z 1001bff0 f i CurMouse.obj
 0001:0001b020       ?GetUnitName@CUnit@@UAE?AVCString@@I@Z 1001c020 f i CurMouse.obj
 0001:0001b070       ?GetUnitIndex@CUnit@@UAEIXZ 1001c070 f i CurMouse.obj
 0001:0001b0a0       ?SetUnitIndex@CUnit@@UAEXI@Z 1001c0a0 f i CurMouse.obj
 0001:0001b0d0       ?GetUnitIndexOld@CUnit@@UAEIXZ 1001c0d0 f i CurMouse.obj
 0001:0001b100       ?SetUnitIndexOld@CUnit@@UAEXI@Z 1001c100 f i CurMouse.obj
 0001:0001b130       ?GetUnitIndexDefault@CUnit@@UAEIXZ 1001c130 f i CurMouse.obj
 0001:0001b160       ?SetUnitIndexDefault@CUnit@@UAEXI@Z 1001c160 f i CurMouse.obj
 0001:0001b190       ?GetUnitNameCount@CUnit@@UAEIXZ 1001c190 f i CurMouse.obj
 0001:0001b1c0       ?SetUnitNameCount@CUnit@@UAEXI@Z 1001c1c0 f i CurMouse.obj
 0001:0001b1f0       ??1CUnit@@UAE@XZ           1001c1f0 f i CurMouse.obj
 0001:0001b280       ??_GCUnit@@UAEPAXI@Z       1001c280 f i CurMouse.obj
 0001:0001b2c0       ??_ECUnit@@UAEPAXI@Z       1001c2c0 f i CurMouse.obj
 0001:0001b360       ??1CDataRowHint@@UAE@XZ    1001c360 f i CurMouse.obj
 0001:0001b390       ?GetMapFactor@CObjectMgr@@UAEPAVCMapFactor@@XZ 1001c390 f i CurMouse.obj
 0001:0001b3c0       ?GetPrecision@CObjectMgr@@UAEPAVCPrecision@@XZ 1001c3c0 f i CurMouse.obj
 0001:0001b3f0       ?GetScaleFactor@CObjectMgr@@UAEPAVCScaleFactor@@XZ 1001c3f0 f i CurMouse.obj
 0001:0001b420       ?GetUnit@CObjectMgr@@UAEPAVCUnit@@XZ 1001c420 f i CurMouse.obj
 0001:0001b450       ?GetObjectListFromIndex@CObjectMgr@@UAEPAVCDListMgr@@H@Z 1001c450 f i CurMouse.obj
 0001:0001b4a0       ?IsSceneChanged@CObjectMgr@@UAEHXZ 1001c4a0 f i CurMouse.obj
 0001:0001b4d0       ?SetSceneChanged@CObjectMgr@@UAEXH@Z 1001c4d0 f i CurMouse.obj
 0001:0001b500       ?IsViewChanged@CObjectMgr@@UAEHXZ 1001c500 f i CurMouse.obj
 0001:0001b530       ?SetViewChanged@CObjectMgr@@UAEXH@Z 1001c530 f i CurMouse.obj
 0001:0001b560       ?GetMasterLastObjectNo@CObjectMgr@@UAEIXZ 1001c560 f i CurMouse.obj
 0001:0001b590       ?SetMasterLastObjectNo@CObjectMgr@@UAEXI@Z 1001c590 f i CurMouse.obj
 0001:0001b5c0       ?GetActiveObjectNo@CObjectMgr@@UAEIXZ 1001c5c0 f i CurMouse.obj
 0001:0001b5f0       ?SetActiveObjectNo@CObjectMgr@@UAEXI@Z 1001c5f0 f i CurMouse.obj
 0001:0001b620       ?GetActiveListIndex@CObjectMgr@@UAEHXZ 1001c620 f i CurMouse.obj
 0001:0001b650       ?SetActiveListIndex@CObjectMgr@@UAEXH@Z 1001c650 f i CurMouse.obj
 0001:0001b680       ?GetActiveObjectIndex@CObjectMgr@@UAEHXZ 1001c680 f i CurMouse.obj
 0001:0001b6b0       ?SetActiveObjectIndex@CObjectMgr@@UAEXH@Z 1001c6b0 f i CurMouse.obj
 0001:0001b6e0       ?GetActiveObjectType@CObjectMgr@@UAEHXZ 1001c6e0 f i CurMouse.obj
 0001:0001b710       ?SetActiveObjectType@CObjectMgr@@UAEXH@Z 1001c710 f i CurMouse.obj
 0001:0001b740       ?GetRowList@CObjectMgr@@QAEPAV?$CList@JJ@@XZ 1001c740 f i CurMouse.obj
 0001:0001b770       ?GetRowCount@CObjectMgr@@QAEHXZ 1001c770 f i CurMouse.obj
 0001:0001b7a0       ?GetActiveRowIndex@CObjectMgr@@QAEHXZ 1001c7a0 f i CurMouse.obj
 0001:0001b7d0       ?SetActiveRowIndex@CObjectMgr@@QAEXH@Z 1001c7d0 f i CurMouse.obj
 0001:0001b800       ?GetFormat@CObjectMgr@@UAE?AVCString@@XZ 1001c800 f i CurMouse.obj
 0001:0001b850       ?IsMeshGenOn@CObjectMgr@@UAEHXZ 1001c850 f i CurMouse.obj
 0001:0001b880       ?SetMeshGenOn@CObjectMgr@@UAEXH@Z 1001c880 f i CurMouse.obj
 0001:0001b8b0       ?GetMeshType@CObjectMgr@@UAEIXZ 1001c8b0 f i CurMouse.obj
 0001:0001b8e0       ?SetMeshType@CObjectMgr@@UAEXI@Z 1001c8e0 f i CurMouse.obj
 0001:0001b910       ?GetCurrentTopLevel@CObjectMgr@@UAEHXZ 1001c910 f i CurMouse.obj
 0001:0001b940       ?SetCurrentTopLevel@CObjectMgr@@UAEXH@Z 1001c940 f i CurMouse.obj
 0001:0001b970       ?GetObjectType@CElemInfo@@UAEHXZ 1001c970 f i CurMouse.obj
 0001:0001b9a0       ?SetObjectType@CElemInfo@@UAEXH@Z 1001c9a0 f i CurMouse.obj
 0001:0001b9d0       ?GetElemType@CElemInfo@@UAEHXZ 1001c9d0 f i CurMouse.obj
 0001:0001ba00       ?SetElemType@CElemInfo@@UAEXH@Z 1001ca00 f i CurMouse.obj
 0001:0001ba30       ?GetObjectNo@CElemInfo@@UAEJXZ 1001ca30 f i CurMouse.obj
 0001:0001ba60       ?SetObjectNo@CElemInfo@@UAEXJ@Z 1001ca60 f i CurMouse.obj
 0001:0001ba90       ?GetInfoList@CElemInfo@@UAEPAVCDListMgr@@H@Z 1001ca90 f i CurMouse.obj
 0001:0001bac0       ??1CElemInfo@@UAE@XZ       1001cac0 f i CurMouse.obj
 0001:0001bb50       ??_GCElemInfo@@UAEPAXI@Z   1001cb50 f i CurMouse.obj
 0001:0001bb90       ??_ECElemInfo@@UAEPAXI@Z   1001cb90 f i CurMouse.obj
 0001:0001bc30       ??1CMeshRowHint@@UAE@XZ    1001cc30 f i CurMouse.obj
 0001:0001bc60       ?GetRowList@CMsObjMgr@@QAEPAV?$CList@JJ@@XZ 1001cc60 f i CurMouse.obj
 0001:0001bc90       ?GetRowCount@CMsObjMgr@@QAEHXZ 1001cc90 f i CurMouse.obj
 0001:0001bcc0       ?GetActiveRowIndex@CMsObjMgr@@QAEHXZ 1001ccc0 f i CurMouse.obj
 0001:0001bcf0       ?SetActiveRowIndex@CMsObjMgr@@QAEXH@Z 1001ccf0 f i CurMouse.obj
 0001:0001bd20       ??1CBaseRowHint@@UAE@XZ    1001cd20 f i CurMouse.obj
 0001:0001bd50       ?GetCurrentItem@CDbObjMgr@@QAEAAVCString@@XZ 1001cd50 f i CurMouse.obj
 0001:0001bd70       ?SetCurrentItem@CDbObjMgr@@QAEXAAVCString@@@Z 1001cd70 f i CurMouse.obj
 0001:0001bda0       ?GetCurrentParent@CDbObjMgr@@QAEAAVCString@@XZ 1001cda0 f i CurMouse.obj
 0001:0001bdc0       ?SetCurrentParent@CDbObjMgr@@QAEXAAVCString@@@Z 1001cdc0 f i CurMouse.obj
 0001:0001bdf0       ??1CAxDataRowHint@@UAE@XZ  1001cdf0 f i CurMouse.obj
 0001:0001be20       ?GetMapFactor@CAxObjMgr@@UAEPAVCMapFactor@@XZ 1001ce20 f i CurMouse.obj
 0001:0001be50       ?GetPrecision@CAxObjMgr@@UAEPAVCPrecision@@XZ 1001ce50 f i CurMouse.obj
 0001:0001be80       ?GetScaleFactor@CAxObjMgr@@UAEPAVCScaleFactor@@XZ 1001ce80 f i CurMouse.obj
 0001:0001beb0       ?GetUnit@CAxObjMgr@@UAEPAVCUnit@@XZ 1001ceb0 f i CurMouse.obj
 0001:0001bee0       ?GetObjectListFromIndex@CAxObjMgr@@UAEPAVCDListMgr@@H@Z 1001cee0 f i CurMouse.obj
 0001:0001bf30       ?IsSceneChanged@CAxObjMgr@@UAEHXZ 1001cf30 f i CurMouse.obj
 0001:0001bf60       ?SetSceneChanged@CAxObjMgr@@UAEXH@Z 1001cf60 f i CurMouse.obj
 0001:0001bf90       ?IsViewChanged@CAxObjMgr@@UAEHXZ 1001cf90 f i CurMouse.obj
 0001:0001bfc0       ?SetViewChanged@CAxObjMgr@@UAEXH@Z 1001cfc0 f i CurMouse.obj
 0001:0001bff0       ?GetMasterLastObjectNo@CAxObjMgr@@UAEIXZ 1001cff0 f i CurMouse.obj
 0001:0001c020       ?SetMasterLastObjectNo@CAxObjMgr@@UAEXI@Z 1001d020 f i CurMouse.obj
 0001:0001c050       ?GetActiveObjectNo@CAxObjMgr@@UAEIXZ 1001d050 f i CurMouse.obj
 0001:0001c080       ?SetActiveObjectNo@CAxObjMgr@@UAEXI@Z 1001d080 f i CurMouse.obj
 0001:0001c0b0       ?GetActiveListIndex@CAxObjMgr@@UAEHXZ 1001d0b0 f i CurMouse.obj
 0001:0001c0e0       ?SetActiveListIndex@CAxObjMgr@@UAEXH@Z 1001d0e0 f i CurMouse.obj
 0001:0001c110       ?GetActiveObjectIndex@CAxObjMgr@@UAEHXZ 1001d110 f i CurMouse.obj
 0001:0001c140       ?SetActiveObjectIndex@CAxObjMgr@@UAEXH@Z 1001d140 f i CurMouse.obj
 0001:0001c170       ?GetActiveObjectType@CAxObjMgr@@UAEHXZ 1001d170 f i CurMouse.obj
 0001:0001c1a0       ?SetActiveObjectType@CAxObjMgr@@UAEXH@Z 1001d1a0 f i CurMouse.obj
 0001:0001c1d0       ?GetRowList@CAxObjMgr@@QAEPAV?$CList@JJ@@XZ 1001d1d0 f i CurMouse.obj
 0001:0001c200       ?GetRowCount@CAxObjMgr@@QAEHXZ 1001d200 f i CurMouse.obj
 0001:0001c230       ?GetActiveRowIndex@CAxObjMgr@@QAEHXZ 1001d230 f i CurMouse.obj
 0001:0001c260       ?SetActiveRowIndex@CAxObjMgr@@QAEXH@Z 1001d260 f i CurMouse.obj
 0001:0001c290       ?GetFormat@CAxObjMgr@@UAE?AVCString@@XZ 1001d290 f i CurMouse.obj
 0001:0001c2e0       ?IsMeshGenOn@CAxObjMgr@@UAEHXZ 1001d2e0 f i CurMouse.obj
 0001:0001c310       ?SetMeshGenOn@CAxObjMgr@@UAEXH@Z 1001d310 f i CurMouse.obj
 0001:0001c340       ?GetMeshType@CAxObjMgr@@UAEIXZ 1001d340 f i CurMouse.obj
 0001:0001c370       ?SetMeshType@CAxObjMgr@@UAEXI@Z 1001d370 f i CurMouse.obj
 0001:0001c3a0       ?GetCurrentTopLevel@CAxObjMgr@@UAEHXZ 1001d3a0 f i CurMouse.obj
 0001:0001c3d0       ?SetCurrentTopLevel@CAxObjMgr@@UAEXH@Z 1001d3d0 f i CurMouse.obj
 0001:0001c400       ?Setid@CMI_GangN@@QAEXVCString@@@Z 1001d400 f i CurMouse.obj
 0001:0001c470       ?FixMemD@CMI_GangN@@QAEPANJ@Z 1001d470 f i CurMouse.obj
 0001:0001c4c0       ?FreeMemD@CMI_GangN@@QAEXPAN@Z 1001d4c0 f i CurMouse.obj
 0001:0001c4f0       ?FixMem@CMI_GangN@@QAEPAUWORLD@@J@Z 1001d4f0 f i CurMouse.obj
 0001:0001c540       ?FreeMem@CMI_GangN@@QAEXPAUWORLD@@@Z 1001d540 f i CurMouse.obj
 0001:0001c580       ?IsNoDefault@CMI_GangC@@QAEHXZ 1001d580 f i CurMouse.obj
 0001:0001c5a0       ?SetNoDefault@CMI_GangC@@QAEXH@Z 1001d5a0 f i CurMouse.obj
 0001:0001c5d0       ?IsAxisInput@CMI_GangC@@QAEHXZ 1001d5d0 f i CurMouse.obj
 0001:0001c600       ?SetAxisInput@CMI_GangC@@QAEXH@Z 1001d600 f i CurMouse.obj
 0001:0001c630       ?GetAxis@CMI_GangC@@QAEHXZ 1001d630 f i CurMouse.obj
 0001:0001c660       ?SetAxis@CMI_GangC@@QAEXH@Z 1001d660 f i CurMouse.obj
 0001:0001c690       ?IsNegative@CMI_GangC@@QAEHXZ 1001d690 f i CurMouse.obj
 0001:0001c6c0       ?SetNegative@CMI_GangC@@QAEXH@Z 1001d6c0 f i CurMouse.obj
 0001:0001c6f0       ?GetbBack@CMI_GangC@@QAEHXZ 1001d6f0 f i CurMouse.obj
 0001:0001c720       ?SetbBack@CMI_GangC@@QAEXH@Z 1001d720 f i CurMouse.obj
 0001:0001c750       ?GetBezierType@CMI_GangC@@QAE?AW4BEZIERTYPE@@XZ 1001d750 f i CurMouse.obj
 0001:0001c770       ?SetBezierType@CMI_GangC@@QAEXW4BEZIERTYPE@@@Z 1001d770 f i CurMouse.obj
 0001:0001c7a0       ?CreateObject@CCurMouse@@SGPAVCObject@@XZ 1001d7a0 f   CurMouse.obj
 0001:0001c840       ?_GetBaseClass@CCurMouse@@KGPAUCRuntimeClass@@XZ 1001d840 f   CurMouse.obj
 0001:0001c860       ?GetRuntimeClass@CCurMouse@@UBEPAUCRuntimeClass@@XZ 1001d860 f   CurMouse.obj
 0001:0001c8d0       ??0AFX_CLASSINIT@@QAE@PAUCRuntimeClass@@@Z 1001d8d0 f i CurMouse.obj
 0001:0001c900       ??5@YGAAVCArchive@@AAV0@AAPAVCCurMouse@@@Z 1001d900 f   CurMouse.obj
 0001:0001c930       ??0CCurMouse@@QAE@XZ       1001d930 f   CurMouse.obj
 0001:0001ca90       ?GetCurrentNodeID@CNodMouse@@UAE?AVCString@@XZ 1001da90 f i CurMouse.obj
 0001:0001cae0       ?SetCurrentNodeID@CNodMouse@@UAEXVCString@@@Z 1001dae0 f i CurMouse.obj
 0001:0001cb60       ?GetAnchorNodeID@CNodMouse@@UAE?AVCString@@XZ 1001db60 f i CurMouse.obj
 0001:0001cbb0       ?SetAnchorNodeID@CNodMouse@@UAEXVCString@@@Z 1001dbb0 f i CurMouse.obj
 0001:0001cc30       ?GetCurrentPipeID@CCurMouse@@UAE?AVCString@@XZ 1001dc30 f i CurMouse.obj
 0001:0001cc80       ?SetCurrentPipeID@CCurMouse@@UAEXVCString@@@Z 1001dc80 f i CurMouse.obj
 0001:0001cd00       ?GetCurrentCurveID@CCurMouse@@UAE?AVCString@@XZ 1001dd00 f i CurMouse.obj
 0001:0001cd50       ?SetCurrentCurveID@CCurMouse@@UAEXVCString@@@Z 1001dd50 f i CurMouse.obj
 0001:0001cdd0       ?GetCurrentCurvePtr@CCurMouse@@UAEPAVCDrCurve@@XZ 1001ddd0 f i CurMouse.obj
 0001:0001ce00       ?SetCurrentCurvePtr@CCurMouse@@UAEXPAVCDrCurve@@@Z 1001de00 f i CurMouse.obj
 0001:0001ce30       ?GetCurrentElPerSeg@CCurMouse@@UAEHXZ 1001de30 f i CurMouse.obj
 0001:0001ce60       ?GetCurrentRatio@CCurMouse@@UAENXZ 1001de60 f i CurMouse.obj
 0001:0001ce90       ?SetCurrentElPerSeg@CCurMouse@@UAEXH@Z 1001de90 f i CurMouse.obj
 0001:0001cec0       ?SetCurrentRatio@CCurMouse@@UAEXN@Z 1001dec0 f i CurMouse.obj
 0001:0001cf00       ?IsClosed@CCurMouse@@UAEHXZ 1001df00 f i CurMouse.obj
 0001:0001cf30       ?SetClosed@CCurMouse@@UAEXH@Z 1001df30 f i CurMouse.obj
 0001:0001cf60       ?IsAdvanceOn@CCurMouse@@UAEHXZ 1001df60 f i CurMouse.obj
 0001:0001cf90       ?SetAdvanceOn@CCurMouse@@UAEXH@Z 1001df90 f i CurMouse.obj
 0001:0001cfc0       ?IsBLineOn@CCurMouse@@UAEHXZ 1001dfc0 f i CurMouse.obj
 0001:0001cff0       ?SetBLineOn@CCurMouse@@UAEXH@Z 1001dff0 f i CurMouse.obj
 0001:0001d020       ?IsSingleSegOn@CCurMouse@@UAEHXZ 1001e020 f i CurMouse.obj
 0001:0001d050       ?SetSingleSegOn@CCurMouse@@UAEXH@Z 1001e050 f i CurMouse.obj
 0001:0001d080       ??_ECCurMouse@@UAEPAXI@Z   1001e080 f i CurMouse.obj
 0001:0001d080       ??_GCCurMouse@@UAEPAXI@Z   1001e080 f i CurMouse.obj
 0001:0001d0c0       ??1CCurMouse@@UAE@XZ       1001e0c0 f   CurMouse.obj
 0001:0001d320       ?InitDlgIn_CUR@CCurMouse@@QAEXXZ 1001e320 f   CurMouse.obj
 0001:0001d4a0       ?GetDocument@CDrGrafApp@@QAEPAVCDrGrafDoc@@XZ 1001e4a0 f i CurMouse.obj
 0001:0001d4d0       ?GetObjectMgr@CDrGrafDoc@@QAEPAVCObjectMgr@@XZ 1001e4d0 f i CurMouse.obj
 0001:0001d500       ?Terminate_CUR@CCurMouse@@IAEHH@Z 1001e500 f   CurMouse.obj
 0001:0001d6b0       ?SetCurrentProcessDone@CMouseMgr@@QAEXH@Z 1001e6b0 f i CurMouse.obj
 0001:0001d6e0       ?GetMouseMgr@CDrGrafFrame@@QAEPAVCMouseMgr@@XZ 1001e6e0 f i CurMouse.obj
 0001:0001d710       ?ResetVariables_CUR@CCurMouse@@IAEXXZ 1001e710 f   CurMouse.obj
 0001:0001da00       ?LeftDown_CURVE@CCurMouse@@IAEHXZ 1001ea00 f   CurMouse.obj
 0001:0001dbe0       ?ElementLeftDown_CUR@CCurMouse@@IAEXXZ 1001ebe0 f   CurMouse.obj
 0001:0001dee0       ?ShowCurve@CCurMouse@@IAEHPAVCString@@H@Z 1001eee0 f   CurMouse.obj
 0001:0001ee80       ?GetCurrentCntlID@CDrGrafFrame@@QAEIXZ 1001fe80 f i CurMouse.obj
 0001:0001eeb0       ??_GCString@@QAEPAXI@Z     1001feb0 f i CurMouse.obj
 0001:0001ef00       ?CurTopo_Update@CCurMouse@@QAEHPAVCDrCurve@@IPAVCDListMgr@@@Z 1001ff00 f   CurMouse.obj
 0001:0001f330       ?CurTopo_GetEndNodes@CCurMouse@@QAEHPAVCDrCurve@@IPAVCDListMgr@@1@Z 10020330 f   CurMouse.obj
 0001:0001f3e0       ?CurTopo_EndNodeInOtherCurves@CCurMouse@@QAEHPAVCDrCurve@@0PAVCDrNode@@@Z 100203e0 f   CurMouse.obj
 0001:0001f5d0       ?OnEBoxLButtonDown_CUR@CCurMouse@@QAEXPAVCClientDC@@PAVCView@@W4GENERATE@@IVCPoint@@@Z 100205d0 f   CurMouse.obj
 0001:0001f8d0       ?GetLQCInDlg@CCurMouse@@QAEPAVCDlg_LQCI@@XZ 100208d0 f i CurMouse.obj
 0001:0001f900       ?GetCrcInDlg@CCurMouse@@QAEPAVCDlg_CrcI@@XZ 10020900 f i CurMouse.obj
 0001:0001f930       ?IsCurrentProcessDone@CMouseMgr@@QAEHXZ 10020930 f i CurMouse.obj
 0001:0001f950       ?GetActiveObjectType@CDrGrafFrame@@QAEHXZ 10020950 f i CurMouse.obj
 0001:0001f980       ?GetActiveToolType@CDrGrafFrame@@QAEHXZ 10020980 f i CurMouse.obj
 0001:0001f9b0       ?UpdateCDlg_TRUE@CCurMouse@@IAEXXZ 100209b0 f   CurMouse.obj
 0001:0001fd60       ?UpdateCDlg_FALSE@CCurMouse@@IAEXXZ 10020d60 f   CurMouse.obj
 0001:00020df0       ?UpdateCurrStat@CDrGrafFrame@@QAEXAAVCString@@@Z 10021df0 f i CurMouse.obj
 0001:00020e50       ?SetText@CStatCntl@@QAEXAAVCString@@@Z 10021e50 f i CurMouse.obj
 0001:00020e80       ?LeftUp_Cur_Node@CCurMouse@@IAEHVCPoint@@HHH@Z 10021e80 f   CurMouse.obj
 0001:00021020       ?IsMeshMode@CDrGrafFrame@@QAEHXZ 10022020 f i CurMouse.obj
 0001:00021050       ?NewNode_N_Update_OtherContext@CCurMouse@@IAEHVCPoint@@H@Z 10022050 f   CurMouse.obj
 0001:000210d0       ?OldNode_N_Update_CURContext@CCurMouse@@IAEHHH@Z 100220d0 f   CurMouse.obj
 0001:000211c0       ?LeftUp_Node_Accept_OtherContext@CCurMouse@@IAEHVCPoint@@HHHHPAPAVCDrNode@@@Z 100221c0 f   CurMouse.obj
 0001:00021a70       ?NewNode_OtherContext@CCurMouse@@IAEHVCPoint@@H@Z 10022a70 f   CurMouse.obj
 0001:00021f30       ?GetMsObjMgr@CDrGrafDoc@@QAEPAVCMsObjMgr@@XZ 10022f30 f i CurMouse.obj
 0001:00021f60       ?UpdateforOldNode@CCurMouse@@IAEHH@Z 10022f60 f   CurMouse.obj
 0001:00022060       ?UpdateforNewNode@CCurMouse@@IAEHH@Z 10023060 f   CurMouse.obj
 0001:00022200       ?ShowNodeInfo_SameCoords_OtherContext@CCurMouse@@IAEHPAVCDrNode@@@Z 10023200 f   CurMouse.obj
 0001:000224c0       ?LeftUp_CURVE@CCurMouse@@IAEHVCPoint@@@Z 100234c0 f   CurMouse.obj
 0001:00022ae0       ?ElementLeftUp_CUR@CCurMouse@@IAEXVCPoint@@@Z 10023ae0 f   CurMouse.obj
 0001:00022e10       ?ShowCurveInfo@CCurMouse@@IAEHPAVCDrCurve@@@Z 10023e10 f   CurMouse.obj
 0001:00023ba0       ?OnEBoxMouseMove_CUR@CCurMouse@@QAEXPAVCClientDC@@PAVCView@@W4GENERATE@@IVCPoint@@@Z 10024ba0 f   CurMouse.obj
 0001:00024060       ?OnEBoxLButtonUp_CUR@CCurMouse@@QAEXPAVCClientDC@@PAVCView@@W4GENERATE@@IVCPoint@@@Z 10025060 f   CurMouse.obj
 0001:00024170       ?OnEBoxRButtonDown_CUR@CCurMouse@@QAEXPAVCClientDC@@PAVCView@@W4GENERATE@@IVCPoint@@@Z 10025170 f   CurMouse.obj
 0001:00024330       ?RightUp_CURVE@CCurMouse@@IAEHXZ 10025330 f   CurMouse.obj
 0001:000248e0       ?RightUp_CURVE_Error@CCurMouse@@IAEHXZ 100258e0 f   CurMouse.obj
 0001:00024a70       ?GetCurrentIGenID@CDrGrafFrame@@QAEIXZ 10025a70 f i CurMouse.obj
 0001:00024aa0       ?RightUp_CURVE_Premature@CCurMouse@@IAEHXZ 10025aa0 f   CurMouse.obj
 0001:00024f20       ?RightUp_CURVE_NotAutoAccept@CCurMouse@@IAEHXZ 10025f20 f   CurMouse.obj
 0001:00024f70       ?RightUp_NOTCIRCLE_NotAutoAccept@CCurMouse@@IAEHXZ 10025f70 f   CurMouse.obj
 0001:00025360       ?RightUp_CIRCLE_NotAutoAccept@CCurMouse@@IAEHXZ 10026360 f   CurMouse.obj
 0001:00025d40       ?OnEBoxRButtonUp_CUR@CCurMouse@@QAEXPAVCClientDC@@PAVCView@@W4GENERATE@@IVCPoint@@@Z 10026d40 f   CurMouse.obj
 0001:00025e50       ?PutEndIdsInPipeList@CCurMouse@@IAEHQAVCString@@H@Z 10026e50 f   CurMouse.obj
 0001:00025e80       ?ReSetToolID_CUR@CCurMouse@@QAEIIII@Z 10026e80 f   CurMouse.obj
 0001:000263a0       ?SetIGenBoxStatus@CDrGrafFrame@@QAEXH@Z 100273a0 f i CurMouse.obj
 0001:000263d0       ?SetCntlBoxStatus@CDrGrafFrame@@QAEXH@Z 100273d0 f i CurMouse.obj
 0001:00026400       ?SetDrawBoxStatus@CDrGrafFrame@@QAEXH@Z 10027400 f i CurMouse.obj
 0001:00026430       ?SetstrCntlID@CDrGrafFrame@@QAEXAAVCString@@@Z 10027430 f i CurMouse.obj
 0001:00026460       ?SetstrIGenID@CDrGrafFrame@@QAEXAAVCString@@@Z 10027460 f i CurMouse.obj
 0001:00026490       ?SetstrOperID@CDrGrafFrame@@QAEXAAVCString@@@Z 10027490 f i CurMouse.obj
 0001:000264c0       ?SetstrCurrID@CDrGrafFrame@@QAEXAAVCString@@@Z 100274c0 f i CurMouse.obj
 0001:000264f0       ?ModeLessOff_CUR@CCurMouse@@QAEXXZ 100274f0 f   CurMouse.obj
 0001:00026560       ?ModeLessOn_CUR@CCurMouse@@QAEXXZ 10027560 f   CurMouse.obj
 0001:00026700       ?SetCurrentIGenID@CDrGrafFrame@@QAEXI@Z 10027700 f i CurMouse.obj
 0001:00026770       ?CreateorActivateLQCIn@CCurMouse@@QAEJIJ@Z 10027770 f   CurMouse.obj
 0001:00026e20       ?ResetVuBasedVars_CurDlg@CCurMouse@@QAEXXZ 10027e20 f   CurMouse.obj
 0001:00026f70       ?GetActiveViewNumber@CDrGrafFrame@@QAEHXZ 10027f70 f i CurMouse.obj
 0001:00026fa0       ?CancelLQCIn@CCurMouse@@QAEJIJ@Z 10027fa0 f   CurMouse.obj
 0001:00026fe0       ?GoodByeLQCIn@CCurMouse@@QAEJIJ@Z 10027fe0 f   CurMouse.obj
 0001:00027040       ?UpdateLQCIn@CCurMouse@@QAEJIJ@Z 10028040 f   CurMouse.obj
 0001:00027280       ?CreateorActivateCrcIn@CCurMouse@@QAEJIJ@Z 10028280 f   CurMouse.obj
 0001:00027b50       ?CancelCrcIn@CCurMouse@@QAEJIJ@Z 10028b50 f   CurMouse.obj
 0001:00027b90       ?GoodByeCrcIn@CCurMouse@@QAEJIJ@Z 10028b90 f   CurMouse.obj
 0001:00027c30       ?UpdateCrcIn@CCurMouse@@QAEJIJ@Z 10028c30 f   CurMouse.obj
 0001:000282c0       ?Serialize@CCurMouse@@UAEXAAVCArchive@@@Z 100292c0 f   CurMouse.obj
 0001:00028340       ?SerializePipe@CCurMouse@@IAEXAAVCArchive@@@Z 10029340 f   CurMouse.obj
 0001:000283a0       ??0?$CList@HH@@QAE@H@Z     100293a0 f i CurMouse.obj
 0001:00028480       ?IsEmpty@?$CList@HH@@QBEHXZ 10029480 f i CurMouse.obj
 0001:000284b0       ?GetCount@?$CList@JJ@@QBEHXZ 100294b0 f i CurMouse.obj
 0001:000284d0       ?SetProjectedCoords@CDrFreeHand@@UAEXUtagPOINT@@H@Z 100294d0 f i Dbmouse.obj
 0001:00028510       ?IsMoved@CDrFreeHand@@UAEHXZ 10029510 f i Dbmouse.obj
 0001:00028540       ?SetMoved@CDrFreeHand@@UAEXH@Z 10029540 f i Dbmouse.obj
 0001:00028570       ?GetFreeHandNum@CDrFreeHand@@UAEHXZ 10029570 f i Dbmouse.obj
 0001:000285a0       ?SetFreeHandNum@CDrFreeHand@@UAEXH@Z 100295a0 f i Dbmouse.obj
 0001:000285d0       ?GetViewNum@CDrFreeHand@@UAEHXZ 100295d0 f i Dbmouse.obj
 0001:00028600       ?SetViewNum@CDrFreeHand@@UAEXH@Z 10029600 f i Dbmouse.obj
 0001:00028630       ?GetPoint@CDrFreeHand@@IBE?AVCPoint@@H@Z 10029630 f i Dbmouse.obj
 0001:00028680       ??1CDrFreeHand@@UAE@XZ     10029680 f i Dbmouse.obj
 0001:00028700       ??_GCDrFreeHand@@UAEPAXI@Z 10029700 f i Dbmouse.obj
 0001:00028740       ??_ECDrFreeHand@@UAEPAXI@Z 10029740 f i Dbmouse.obj
 0001:000287e0       ?IsMoved@CDrGrid@@UAEHXZ   100297e0 f i Dbmouse.obj
 0001:00028810       ?SetMoved@CDrGrid@@UAEXH@Z 10029810 f i Dbmouse.obj
 0001:00028840       ?GetMaxCorners@CDrGrid@@UAEHXZ 10029840 f i Dbmouse.obj
 0001:00028860       ?GetPenInfo_G@CDrGrid@@UAEXIKI@Z 10029860 f i Dbmouse.obj
 0001:000288b0       ?SetPenInfo_G@CDrGrid@@UAEXIKI@Z 100298b0 f i Dbmouse.obj
 0001:00028900       ?GetPenInfo_C@CDrGrid@@UAEXIKI@Z 10029900 f i Dbmouse.obj
 0001:00028950       ?SetPenInfo_C@CDrGrid@@UAEXIKI@Z 10029950 f i Dbmouse.obj
 0001:000289a0       ?GetNodeList@CDrGrid@@UAEPAVCDListMgr@@XZ 100299a0 f i Dbmouse.obj
 0001:000289d0       ?GetGrInfo@CDrGrid@@UAEPAUGR_INFO@@XZ 100299d0 f i Dbmouse.obj
 0001:00028a00       ?SetGrInfo@CDrGrid@@UAEXUGR_INFO@@@Z 10029a00 f i Dbmouse.obj
 0001:00028a30       ?GetStep@CDrGrid@@UAE?AUWORLD@@XZ 10029a30 f i Dbmouse.obj
 0001:00028a70       ?SetStep@CDrGrid@@UAEXUWORLD@@@Z 10029a70 f i Dbmouse.obj
 0001:00028ab0       ?GetAngle@CDrGrid@@UAENXZ  10029ab0 f i Dbmouse.obj
 0001:00028ae0       ?SetAngle@CDrGrid@@UAEXN@Z 10029ae0 f i Dbmouse.obj
 0001:00028b20       ?GetAnchor@CDrGrid@@UAE?AUWORLD@@XZ 10029b20 f i Dbmouse.obj
 0001:00028b60       ?SetAnchor@CDrGrid@@UAEXUWORLD@@@Z 10029b60 f i Dbmouse.obj
 0001:00028ba0       ?CreateObject@CDBMouse@@SGPAVCObject@@XZ 10029ba0 f   Dbmouse.obj
 0001:00028c30       ?_GetBaseClass@CDBMouse@@KGPAUCRuntimeClass@@XZ 10029c30 f   Dbmouse.obj
 0001:00028c50       ?GetRuntimeClass@CDBMouse@@UBEPAUCRuntimeClass@@XZ 10029c50 f   Dbmouse.obj
 0001:00028cc0       ??5@YGAAVCArchive@@AAV0@AAPAVCDBMouse@@@Z 10029cc0 f   Dbmouse.obj
 0001:00028cf0       ??0CDBMouse@@QAE@XZ        10029cf0 f   Dbmouse.obj
 0001:00028dd0       ?GetFHIndexCurrent@CDBMouse@@UAEHXZ 10029dd0 f i Dbmouse.obj
 0001:00028e00       ?SetFHIndexCurrent@CDBMouse@@UAEXH@Z 10029e00 f i Dbmouse.obj
 0001:00028e30       ?GetFHNumberCurrent@CDBMouse@@UAEHXZ 10029e30 f i Dbmouse.obj
 0001:00028e60       ?SetFHNumberCurrent@CDBMouse@@UAEXH@Z 10029e60 f i Dbmouse.obj
 0001:00028e90       ?GetCurrentLabelID@CDBMouse@@UAE?AVCString@@XZ 10029e90 f i Dbmouse.obj
 0001:00028ee0       ?SetCurrentLabelID@CDBMouse@@UAEXVCString@@@Z 10029ee0 f i Dbmouse.obj
 0001:00028f60       ??_ECDBMouse@@UAEPAXI@Z    10029f60 f i Dbmouse.obj
 0001:00028f60       ??_GCDBMouse@@UAEPAXI@Z    10029f60 f i Dbmouse.obj
 0001:00028fa0       ??1CDBMouse@@UAE@XZ        10029fa0 f   Dbmouse.obj
 0001:00029020       ?DBoxLBDown_FREEHAND@CDBMouse@@IAEXVCPoint@@@Z 1002a020 f   Dbmouse.obj
 0001:000291f0       ?DBoxMMove_FREEHAND@CDBMouse@@IAEXPAVCClientDC@@VCPoint@@@Z 1002a1f0 f   Dbmouse.obj
 0001:00029330       ?DBoxLBUp_FREEHAND@CDBMouse@@IAEXVCPoint@@@Z 1002a330 f   Dbmouse.obj
 0001:00029400       ?DBoxLBDown_OBJECTMOVE@CDBMouse@@IAEXPAVCClientDC@@VCPoint@@@Z 1002a400 f   Dbmouse.obj
 0001:000296a0       ?DBoxMMove_OBJECTMOVE@CDBMouse@@IAEXPAVCClientDC@@VCPoint@@@Z 1002a6a0 f   Dbmouse.obj
 0001:00029b90       ?DBoxLBUp_OBJECTMOVE@CDBMouse@@IAEXPAVCClientDC@@VCPoint@@PAVCView@@@Z 1002ab90 f   Dbmouse.obj
 0001:00029ce0       ?OnDBoxLButtonDown@CDBMouse@@QAEXPAVCClientDC@@PAVCView@@IVCPoint@@@Z 1002ace0 f   Dbmouse.obj
 0001:0002a060       ?OnDBoxMouseMove@CDBMouse@@QAEXPAVCClientDC@@PAVCView@@IVCPoint@@@Z 1002b060 f   Dbmouse.obj
 0001:0002a390       ?OnDBoxLButtonUp@CDBMouse@@QAEXPAVCClientDC@@PAVCView@@IVCPoint@@@Z 1002b390 f   Dbmouse.obj
 0001:0002a670       ?OnDBoxRButtonDown@CDBMouse@@QAEXPAVCClientDC@@PAVCView@@IVCPoint@@@Z 1002b670 f   Dbmouse.obj
 0001:0002a6b0       ?OnDBoxRButtonUp@CDBMouse@@QAEXPAVCClientDC@@PAVCView@@IVCPoint@@@Z 1002b6b0 f   Dbmouse.obj
 0001:0002a6f0       ?Serialize@CDBMouse@@UAEXAAVCArchive@@@Z 1002b6f0 f   Dbmouse.obj
 0001:0002a990       ?CreateObject@CDLDMouse@@SGPAVCObject@@XZ 1002b990 f   DLDmouse.obj
 0001:0002aa30       ?_GetBaseClass@CDLDMouse@@KGPAUCRuntimeClass@@XZ 1002ba30 f   DLDmouse.obj
 0001:0002aa50       ?GetRuntimeClass@CDLDMouse@@UBEPAUCRuntimeClass@@XZ 1002ba50 f   DLDmouse.obj
 0001:0002aac0       ??5@YGAAVCArchive@@AAV0@AAPAVCDLDMouse@@@Z 1002bac0 f   DLDmouse.obj
 0001:0002aaf0       ??0CDLDMouse@@QAE@XZ       1002baf0 f   DLDmouse.obj
 0001:0002ab20       ?GetCurrentPatchID@CPatMouse@@UAEAAVCString@@XZ 1002bb20 f i DLDmouse.obj
 0001:0002ab50       ?SetCurrentPatchID@CPatMouse@@UAEXVCString@@@Z 1002bb50 f i DLDmouse.obj
 0001:0002abd0       ?GetPatSubType@CPatMouse@@UAE?AW4PATSUBTYPE@@XZ 1002bbd0 f i DLDmouse.obj
 0001:0002ac00       ?SetPatSubType@CPatMouse@@UAEXW4PATSUBTYPE@@@Z 1002bc00 f i DLDmouse.obj
 0001:0002ac30       ?GetCurrentSolidID@CSolMouse@@UAEAAVCString@@XZ 1002bc30 f i DLDmouse.obj
 0001:0002ac60       ?SetCurrentSolidID@CSolMouse@@UAEXVCString@@@Z 1002bc60 f i DLDmouse.obj
 0001:0002ace0       ?GetSolSubType@CSolMouse@@UAE?AW4SOLSUBTYPE@@XZ 1002bce0 f i DLDmouse.obj
 0001:0002ad10       ?SetSolSubType@CSolMouse@@UAEXW4SOLSUBTYPE@@@Z 1002bd10 f i DLDmouse.obj
 0001:0002ad40       ?GetCurrentObj3DID@CO3DMouse@@UAEAAVCString@@XZ 1002bd40 f i DLDmouse.obj
 0001:0002ad70       ?SetCurrentObj3DID@CO3DMouse@@UAEXVCString@@@Z 1002bd70 f i DLDmouse.obj
 0001:0002adf0       ?GetStaLProc@CSLDMouse@@UAE?AW4STALPROC@@XZ 1002bdf0 f i DLDmouse.obj
 0001:0002ae20       ?SetStaLProc@CSLDMouse@@UAEXW4STALPROC@@@Z 1002be20 f i DLDmouse.obj
 0001:0002ae60       ??_GCDLDMouse@@UAEPAXI@Z   1002be60 f i DLDmouse.obj
 0001:0002ae60       ??_ECDLDMouse@@UAEPAXI@Z   1002be60 f i DLDmouse.obj
 0001:0002aea0       ??1CDLDMouse@@UAE@XZ       1002bea0 f   DLDmouse.obj
 0001:0002aed0       ?Serialize@CDLDMouse@@UAEXAAVCArchive@@@Z 1002bed0 f   DLDmouse.obj
 0001:0002af30       ?CreateObject@CMI_Cur_I@@SGPAVCObject@@XZ 1002bf30 f   Mi_cur_i.obj
 0001:0002afc0       ?_GetBaseClass@CMI_Cur_I@@KGPAUCRuntimeClass@@XZ 1002bfc0 f   Mi_cur_i.obj
 0001:0002afe0       ?GetRuntimeClass@CMI_Cur_I@@UBEPAUCRuntimeClass@@XZ 1002bfe0 f   Mi_cur_i.obj
 0001:0002b050       ??5@YGAAVCArchive@@AAV0@AAPAVCMI_Cur_I@@@Z 1002c050 f   Mi_cur_i.obj
 0001:0002b080       ??0CMI_Cur_I@@QAE@XZ       1002c080 f   Mi_cur_i.obj
 0001:0002b0b0       ?LBDownInit_CPost@CMI_Cur_I@@UAEHXZ 1002c0b0 f i Mi_cur_i.obj
 0001:0002b0d0       ?LBUpCurvePost@CMI_Cur_I@@UAEHXZ 1002c0d0 f i Mi_cur_i.obj
 0001:0002b0f0       ?LBDownInit_CEdit@CMI_Cur_I@@UAEHXZ 1002c0f0 f i Mi_cur_i.obj
 0001:0002b110       ?LBUpCurveEdit@CMI_Cur_I@@UAEHXZ 1002c110 f i Mi_cur_i.obj
 0001:0002b130       ?LBDownInit_CMove@CMI_Cur_I@@UAEHXZ 1002c130 f i Mi_cur_i.obj
 0001:0002b150       ?LBUpCurveMove@CMI_Cur_I@@UAEHXZ 1002c150 f i Mi_cur_i.obj
 0001:0002b170       ??_GCMI_Cur_I@@UAEPAXI@Z   1002c170 f i Mi_cur_i.obj
 0001:0002b170       ??_ECMI_Cur_I@@UAEPAXI@Z   1002c170 f i Mi_cur_i.obj
 0001:0002b1b0       ??1CMI_Cur_I@@UAE@XZ       1002c1b0 f   Mi_cur_i.obj
 0001:0002b1e0       ?RBUp_CInsert@CMI_Cur_I@@UAEHW4CURVEPROC@@PAVCView@@I@Z 1002c1e0 f   Mi_cur_i.obj
 0001:0002b580       ?RBDown_CInsert@CMI_Cur_I@@UAEHW4CURVEPROC@@PAVCView@@I@Z 1002c580 f   Mi_cur_i.obj
 0001:0002b5a0       ?Post_Curve@CMI_Cur_I@@UAEHPAVCDrObject@@@Z 1002c5a0 f   Mi_cur_i.obj
 0001:0002b5c0       ?Serialize@CMI_Cur_I@@UAEXAAVCArchive@@@Z 1002c5c0 f   Mi_cur_i.obj
 0001:0002b620       ?CreateObject@CMI_Obj3D@@SGPAVCObject@@XZ 1002c620 f   Mi_obj3d.obj
 0001:0002b6b0       ?_GetBaseClass@CMI_Obj3D@@KGPAUCRuntimeClass@@XZ 1002c6b0 f   Mi_obj3d.obj
 0001:0002b6d0       ?GetRuntimeClass@CMI_Obj3D@@UBEPAUCRuntimeClass@@XZ 1002c6d0 f   Mi_obj3d.obj
 0001:0002b740       ??5@YGAAVCArchive@@AAV0@AAPAVCMI_Obj3D@@@Z 1002c740 f   Mi_obj3d.obj
 0001:0002b770       ??0CMI_Obj3D@@QAE@XZ       1002c770 f   Mi_obj3d.obj
 0001:0002b7a0       ?LBDownInit_OEdit@CMI_Obj3D@@UAEHXZ 1002c7a0 f i Mi_obj3d.obj
 0001:0002b7c0       ?LBUpObj3DEdit@CMI_Obj3D@@UAEHXZ 1002c7c0 f i Mi_obj3d.obj
 0001:0002b7e0       ?LBDownInit_OMove@CMI_Obj3D@@UAEHXZ 1002c7e0 f i Mi_obj3d.obj
 0001:0002b800       ?LBUpObj3DMove@CMI_Obj3D@@UAEHXZ 1002c800 f i Mi_obj3d.obj
 0001:0002b820       ??_ECMI_Obj3D@@UAEPAXI@Z   1002c820 f i Mi_obj3d.obj
 0001:0002b820       ??_GCMI_Obj3D@@UAEPAXI@Z   1002c820 f i Mi_obj3d.obj
 0001:0002b860       ??1CMI_Obj3D@@UAE@XZ       1002c860 f   Mi_obj3d.obj
 0001:0002b890       ?LBDownInit_OInsert@CMI_Obj3D@@UAEHXZ 1002c890 f   Mi_obj3d.obj
 0001:0002b8b0       ?LBUpInit_OInsert@CMI_Obj3D@@UAEHXZ 1002c8b0 f   Mi_obj3d.obj
 0001:0002b8d0       ?LBUp_OInsert@CMI_Obj3D@@UAEHPAVCView@@I@Z 1002c8d0 f   Mi_obj3d.obj
 0001:0002ba90       ?InsertAllInfo@CMI_Obj3D@@IAEHXZ 1002ca90 f   Mi_obj3d.obj
 0001:0002bab0       ?O_GetInfo@CMI_Obj3D@@IAEPAVCDrObj3D@@XZ 1002cab0 f   Mi_obj3d.obj
 0001:0002bbd0       ?Serialize@CMI_Obj3D@@UAEXAAVCArchive@@@Z 1002cbd0 f   Mi_obj3d.obj
 0001:0002bc30       ?SetParallel@CXForm@@UAEXH@Z 1002cc30 f i Mi_pat_i.obj
 0001:0002bc60       ?GetParallel@CXForm@@UAEHXZ 1002cc60 f i Mi_pat_i.obj
 0001:0002bc80       ??1CXForm@@UAE@XZ          1002cc80 f i Mi_pat_i.obj
 0001:0002bcb0       ??_GCXForm@@UAEPAXI@Z      1002ccb0 f i Mi_pat_i.obj
 0001:0002bcf0       ??_ECXForm@@UAEPAXI@Z      1002ccf0 f i Mi_pat_i.obj
 0001:0002bd90       ?GetNDoneList@CMI_NSPN@@QAEPAVCDListMgr@@XZ 1002cd90 f i Mi_pat_i.obj
 0001:0002bdb0       ?SetNDoneList@CMI_NSPN@@QAEXPAVCDListMgr@@@Z 1002cdb0 f i Mi_pat_i.obj
 0001:0002bde0       ?GetCDoneList@CMI_NSPN@@QAEPAVCDListMgr@@XZ 1002cde0 f i Mi_pat_i.obj
 0001:0002be00       ?SetCDoneList@CMI_NSPN@@QAEXPAVCDListMgr@@@Z 1002ce00 f i Mi_pat_i.obj
 0001:0002be30       ?GetPDoneList@CMI_NSPN@@QAEPAVCDListMgr@@XZ 1002ce30 f i Mi_pat_i.obj
 0001:0002be50       ?SetPDoneList@CMI_NSPN@@QAEXPAVCDListMgr@@@Z 1002ce50 f i Mi_pat_i.obj
 0001:0002be80       ?GetSDoneList@CMI_NSPN@@QAEPAVCDListMgr@@XZ 1002ce80 f i Mi_pat_i.obj
 0001:0002bea0       ?SetSDoneList@CMI_NSPN@@QAEXPAVCDListMgr@@@Z 1002cea0 f i Mi_pat_i.obj
 0001:0002bed0       ?GetODoneList@CMI_NSPN@@QAEPAVCDListMgr@@XZ 1002ced0 f i Mi_pat_i.obj
 0001:0002bef0       ?SetODoneList@CMI_NSPN@@QAEXPAVCDListMgr@@@Z 1002cef0 f i Mi_pat_i.obj
 0001:0002bf20       ?CreateObject@CMI_Pat_I@@SGPAVCObject@@XZ 1002cf20 f   Mi_pat_i.obj
 0001:0002bfb0       ?_GetBaseClass@CMI_Pat_I@@KGPAUCRuntimeClass@@XZ 1002cfb0 f   Mi_pat_i.obj
 0001:0002bfd0       ?GetRuntimeClass@CMI_Pat_I@@UBEPAUCRuntimeClass@@XZ 1002cfd0 f   Mi_pat_i.obj
 0001:0002c040       ??5@YGAAVCArchive@@AAV0@AAPAVCMI_Pat_I@@@Z 1002d040 f   Mi_pat_i.obj
 0001:0002c070       ??0CMI_Pat_I@@QAE@XZ       1002d070 f   Mi_pat_i.obj
 0001:0002c0a0       ??_GCMI_Pat_I@@UAEPAXI@Z   1002d0a0 f i Mi_pat_i.obj
 0001:0002c0a0       ??_ECMI_Pat_I@@UAEPAXI@Z   1002d0a0 f i Mi_pat_i.obj
 0001:0002c0e0       ??1CMI_Pat_I@@UAE@XZ       1002d0e0 f   Mi_pat_i.obj
 0001:0002c110       ?LBDownInit_PInsert@CMI_Pat_I@@QAEHI@Z 1002d110 f   Mi_pat_i.obj
 0001:0002c130       ?LBUpInit_PInsert@CMI_Pat_I@@QAEHW4CURVEPROC@@@Z 1002d130 f   Mi_pat_i.obj
 0001:0002c150       ?RBUpDuctInsert@CMI_Pat_I@@QAEHHHAAVCString@@PAVCDrPatch@@PAVCDListMgr@@2PAV?$CList@W4CURVELATCH@@W41@@@PAV?$CList@NN@@NHNPAVCView@@@Z 1002d150 f   Mi_pat_i.obj
 0001:0002c2d0       ?RBUpSweepInsert@CMI_Pat_I@@QAEHHHHAAVCString@@PAVCDrPatch@@PAVCDListMgr@@2PAV?$CList@W4CURVELATCH@@W41@@@PAV?$CList@NN@@NHN4NHNPAVCView@@@Z 1002d2d0 f   Mi_pat_i.obj
 0001:0002c470       ?RBUpTensorInsert@CMI_Pat_I@@QAEHHHAAVCString@@PAVCDrPatch@@PAVCDListMgr@@PAY01UWORLD@@W4TWIST@@HAAV?$CList@HH@@NPAVCDrCurve@@PAV?$CList@Ublendend@@U1@@@H5N67PAVCView@@@Z 1002d470 f   Mi_pat_i.obj
 0001:0002c610       ?RBUpGordonInsert@CMI_Pat_I@@QAEHHAAVCString@@PAVCDrPatch@@PAVCDListMgr@@PAY01UWORLD@@W4TWIST@@H2PAV?$CList@W4CURVELATCH@@W41@@@AAV?$CList@HH@@NPAVCDrCurve@@PAV?$CList@Ublendend@@U1@@@H256N78PAVCView@@@Z 1002d610 f   Mi_pat_i.obj
 0001:0002c7c0       ?RBUpLoftXInsert@CMI_Pat_I@@QAEHHPAVCDrCurve@@HPAY01UWORLD@@W4TWIST@@HAAVCString@@PAVCDrPatch@@HHPAVCDListMgr@@5PAV?$CList@W4CURVELATCH@@W41@@@AAV?$CList@HH@@0NPAV?$CList@Ublendend@@U1@@@PAVCView@@@Z 1002d7c0 f   Mi_pat_i.obj
 0001:0002c950       ?RBUpLoft2Insert@CMI_Pat_I@@QAEHAAVCString@@PAVCDrPatch@@PAVCDListMgr@@PAV?$CList@W4CURVELATCH@@W41@@@PAV?$CList@HH@@NPAVCView@@@Z 1002d950 f   Mi_pat_i.obj
 0001:0002c9f0       ?RBUpCoonInsert@CMI_Pat_I@@QAEHHW4PATCHPROC@@AAVCString@@PAVCDrPatch@@PAVCDListMgr@@PAV?$CList@W4CURVELATCH@@W41@@@PAVCView@@@Z 1002d9f0 f   Mi_pat_i.obj
 0001:0002cbe0       ?RBUpRotateInsert@CMI_Pat_I@@QAEHHAAVCString@@PAVCDrPatch@@PAVCDListMgr@@2PAV?$CList@W4CURVELATCH@@W41@@@AAV?$CList@HH@@NNHHHPAVCView@@@Z 1002dbe0 f   Mi_pat_i.obj
 0001:0002cd60       ?RBUpExtrudeInsert@CMI_Pat_I@@QAEHHHAAVCString@@PAVCDrPatch@@PAVCDListMgr@@2PAV?$CList@W4CURVELATCH@@W41@@@AAV?$CList@HH@@UWORLD@@NNPAVCView@@@Z 1002dd60 f   Mi_pat_i.obj
 0001:0002cef0       ?Serialize@CMI_Pat_I@@UAEXAAVCArchive@@@Z 1002def0 f   Mi_pat_i.obj
 0001:0002cf50       ?CreateObject@CMI_Sol_I@@SGPAVCObject@@XZ 1002df50 f   Mi_sol_i.obj
 0001:0002cfe0       ?_GetBaseClass@CMI_Sol_I@@KGPAUCRuntimeClass@@XZ 1002dfe0 f   Mi_sol_i.obj
 0001:0002d000       ?GetRuntimeClass@CMI_Sol_I@@UBEPAUCRuntimeClass@@XZ 1002e000 f   Mi_sol_i.obj
 0001:0002d070       ??5@YGAAVCArchive@@AAV0@AAPAVCMI_Sol_I@@@Z 1002e070 f   Mi_sol_i.obj
 0001:0002d0a0       ??0CMI_Sol_I@@QAE@XZ       1002e0a0 f   Mi_sol_i.obj
 0001:0002d0d0       ??_ECMI_Sol_I@@UAEPAXI@Z   1002e0d0 f i Mi_sol_i.obj
 0001:0002d0d0       ??_GCMI_Sol_I@@UAEPAXI@Z   1002e0d0 f i Mi_sol_i.obj
 0001:0002d110       ??1CMI_Sol_I@@UAE@XZ       1002e110 f   Mi_sol_i.obj
 0001:0002d140       ?LBDownInit_SInsert@CMI_Sol_I@@QAEHI@Z 1002e140 f   Mi_sol_i.obj
 0001:0002d160       ?LBUpInit_SInsert@CMI_Sol_I@@QAEHW4PATCHTYPE@@@Z 1002e160 f   Mi_sol_i.obj
 0001:0002d180       ?RBUp_SDuctInsert@CMI_Sol_I@@QAEHW4PATSUBTYPE@@HHHAAVCString@@PAVCDrSolid@@PAVCDListMgr@@3PAV?$CList@W4CURVELATCH@@W41@@@3PAV?$CList@W4PATCHLATCH@@W41@@@PAV?$CList@NN@@NHNPAVCView@@@Z 1002e180 f   Mi_sol_i.obj
 0001:0002d3e0       ?RBUp_SSweepInsert@CMI_Sol_I@@QAEHW4PATSUBTYPE@@HHHHAAVCString@@PAVCDrSolid@@PAVCDListMgr@@3PAV?$CList@W4CURVELATCH@@W41@@@3PAV?$CList@W4PATCHLATCH@@W41@@@PAV?$CList@NN@@NHN6NHNPAVCView@@@Z 1002e3e0 f   Mi_sol_i.obj
 0001:0002d690       ?RBUp_SLoft2Insert@CMI_Sol_I@@QAEHW4PATSUBTYPE@@AAVCString@@PAVCDrSolid@@PAVCDListMgr@@PAV?$CList@W4PATCHLATCH@@W41@@@PAV?$CList@HH@@NPAVCView@@@Z 1002e690 f   Mi_sol_i.obj
 0001:0002d950       ?RBUp_SCoonInsert@CMI_Sol_I@@QAEHW4SOLIDPROC@@AAVCString@@PAVCDrSolid@@PAVCDListMgr@@PAV?$CList@W4PATCHLATCH@@W41@@@PAVCView@@@Z 1002e950 f   Mi_sol_i.obj
 0001:0002d970       ?RBUp_SRotateInsert@CMI_Sol_I@@QAEHW4PATSUBTYPE@@HHAAVCString@@PAVCDrSolid@@PAVCDListMgr@@3PAV?$CList@W4PATCHLATCH@@W41@@@AAV?$CList@HH@@NNHHHPAVCView@@@Z 1002e970 f   Mi_sol_i.obj
 0001:0002dbd0       ?RBUp_SExtrudeInsert@CMI_Sol_I@@QAEHW4PATSUBTYPE@@HHHAAVCString@@PAVCDrSolid@@PAVCDListMgr@@3PAV?$CList@W4PATCHLATCH@@W41@@@AAV?$CList@HH@@UWORLD@@NNPAVCView@@@Z 1002ebd0 f   Mi_sol_i.obj
 0001:0002de40       ?Serialize@CMI_Sol_I@@UAEXAAVCArchive@@@Z 1002ee40 f   Mi_sol_i.obj
 0001:0002dea0       _ExtRawDllMain@12          1002eea0 f   Mmgrdll.obj
 0001:0002df20       _InitMMgrDLL@0             1002ef20 f   Mmgrdll.obj
 0001:0002df80       _DllMain@12                1002ef80 f   Mmgrdll.obj
 0001:0002e000       ??B?$CTypedSimpleList@PAUCRuntimeClass@@@@QAEPAUCRuntimeClass@@XZ 1002f000 f i Mmgrdll.obj
 0001:0002e030       ??B?$CTypedSimpleList@PAVCOleObjectFactory@@@@QAEPAVCOleObjectFactory@@XZ 1002f030 f i Mmgrdll.obj
 0001:0002e060       ?GetHead@CSimpleList@@QBEPAXXZ 1002f060 f i Mmgrdll.obj
 0001:0002e080       ?CreateObject@CMouse@@SGPAVCObject@@XZ 1002f080 f   Mouse.obj
 0001:0002e110       ?_GetBaseClass@CMouse@@KGPAUCRuntimeClass@@XZ 1002f110 f   Mouse.obj
 0001:0002e130       ?GetRuntimeClass@CMouse@@UBEPAUCRuntimeClass@@XZ 1002f130 f   Mouse.obj
 0001:0002e1a0       ??5@YGAAVCArchive@@AAV0@AAPAVCMouse@@@Z 1002f1a0 f   Mouse.obj
 0001:0002e1d0       ??0CMouse@@QAE@XZ          1002f1d0 f   Mouse.obj
 0001:0002e2e0       ??_GCMouse@@UAEPAXI@Z      1002f2e0 f i Mouse.obj
 0001:0002e320       ??_ECMouse@@UAEPAXI@Z      1002f320 f i Mouse.obj
 0001:0002e3c0       ??1CMouse@@UAE@XZ          1002f3c0 f   Mouse.obj
 0001:0002e480       ?SetViewNumber@CMouse@@QAEXI@Z 1002f480 f   Mouse.obj
 0001:0002e4b0       ?Initialize@CMouse@@IAEXXZ 1002f4b0 f   Mouse.obj
 0001:0002e510       ?ReadDefaults@CMouse@@IAEXXZ 1002f510 f   Mouse.obj
 0001:0002e550       ?SetMouseWIC@CMouse@@QAEXULPOINT3@@@Z 1002f550 f   Mouse.obj
 0001:0002e590       ?SetMouseOldWIC@CMouse@@QAEXULPOINT3@@@Z 1002f590 f   Mouse.obj
 0001:0002e5d0       ?WICtoWOR@CMouse@@QAEXJPAN@Z 1002f5d0 f   Mouse.obj
 0001:0002e600       ?WICtoWOR@CMouse@@QAEXPAULPOINT3@@PAUWORLD@@@Z 1002f600 f   Mouse.obj
 0001:0002e650       ?WICtoWOP@CMouse@@QAEXJPAN@Z 1002f650 f   Mouse.obj
 0001:0002e720       ?WICtoWOP@CMouse@@QAEXPAULPOINT3@@PAUWORLD@@@Z 1002f720 f   Mouse.obj
 0001:0002e870       ?WORtoWOP@CMouse@@QAEXPAN0@Z 1002f870 f   Mouse.obj
 0001:0002e940       ?WOPtoWOR@CMouse@@QAEXPAN0@Z 1002f940 f   Mouse.obj
 0001:0002ea10       ?WORtoWOP@CMouse@@QAEXPAUWORLD@@0@Z 1002fa10 f   Mouse.obj
 0001:0002eb60       ?WOPtoWOR@CMouse@@QAEXPAUWORLD@@0@Z 1002fb60 f   Mouse.obj
 0001:0002ecb0       ?WOPtoWIC@CMouse@@QAEXPAJN@Z 1002fcb0 f   Mouse.obj
 0001:0002ed90       ?WOPtoWIC@CMouse@@QAEXPAULPOINT3@@PAUWORLD@@@Z 1002fd90 f   Mouse.obj
 0001:0002eef0       ?WORtoWIC@CMouse@@QAEXPAJN@Z 1002fef0 f   Mouse.obj
 0001:0002ef20       ?WORtoWIC@CMouse@@QAEXPAULPOINT3@@PAUWORLD@@@Z 1002ff20 f   Mouse.obj
 0001:0002ef80       ?DevtoScrolledWIC2D@CMouse@@IAEXVCPoint@@PAULPOINT@@@Z 1002ff80 f   Mouse.obj
 0001:0002f020       ?WICtoLOG@CMouse@@IAEXPAULPOINT3@@PAULPOINT@@@Z 10030020 f   Mouse.obj
 0001:0002f170       ?LOGtoWIC2@CMouse@@IAEXPAULPOINT3@@PAULPOINT@@0@Z 10030170 f   Mouse.obj
 0001:0002f310       ?LOGtoWIC@CMouse@@IAEXPAULPOINT3@@PAULPOINT@@@Z 10030310 f   Mouse.obj
 0001:0002f490       ?SwitchThirdCoordHeading@CMouse@@QAEXPAVCStatic@@I@Z 10030490 f   Mouse.obj
 0001:0002f500       ?IsObjectHit@CMouse@@IAEHHPAUWORLD@@H@Z 10030500 f   Mouse.obj
 0001:0002f640       ?IsObjectHit@CMouse@@IAEHHUtagPOINT@@H@Z 10030640 f   Mouse.obj
 0001:0002f810       ?IsObjectHit@CMouse@@IAEHHUtagPOINT@@PAVCRect@@@Z 10030810 f   Mouse.obj
 0001:0002f990       ?LabelHit_SetBMSize@CMouse@@IAEHAAVCString@@@Z 10030990 f   Mouse.obj
 0001:0002fb90       ?LabelHit_InitBM@CMouse@@IAEXVCPoint@@AAVCString@@@Z 10030b90 f   Mouse.obj
 0001:0002fcb0       ?LabelHit_ShowBM@CMouse@@IAEXVCPoint@@AAVCString@@H@Z 10030cb0 f   Mouse.obj
 0001:00030320       ?Serialize@CMouse@@UAEXAAVCArchive@@@Z 10031320 f   Mouse.obj
 0001:00030670       ?CreateObject@CMouseMgr@@SGPAVCObject@@XZ 10031670 f   Mousemgr.obj
 0001:00030700       ?_GetBaseClass@CMouseMgr@@KGPAUCRuntimeClass@@XZ 10031700 f   Mousemgr.obj
 0001:00030720       ?GetRuntimeClass@CMouseMgr@@UBEPAUCRuntimeClass@@XZ 10031720 f   Mousemgr.obj
 0001:00030790       ??5@YGAAVCArchive@@AAV0@AAPAVCMouseMgr@@@Z 10031790 f   Mousemgr.obj
 0001:000307c0       ??0CMouseMgr@@QAE@XZ       100317c0 f   Mousemgr.obj
 0001:000309e0       ??_ECMouseMgr@@UAEPAXI@Z   100319e0 f i Mousemgr.obj
 0001:000309e0       ??_GCMouseMgr@@UAEPAXI@Z   100319e0 f i Mousemgr.obj
 0001:00030a20       ??1CMouseMgr@@UAE@XZ       10031a20 f   Mousemgr.obj
 0001:00030b30       ?InitDlgIn@CMouseMgr@@QAEXXZ 10031b30 f   Mousemgr.obj
 0001:00030c20       ?GetDLDMouse@CMouseMgr@@QAEPAVCDLDMouse@@XZ 10031c20 f i Mousemgr.obj
 0001:00030c40       ?GetProbDimLim@CDrGrafFrame@@QAE?AW4PROBDIMLIM@@XZ 10031c40 f i Mousemgr.obj
 0001:00030c70       ?GetElemDimLim@CDrGrafFrame@@QAE?AW4ELEMDIMLIM@@XZ 10031c70 f i Mousemgr.obj
 0001:00030ca0       ?ReSetToolID@CMouseMgr@@QAEIIII@Z 10031ca0 f   Mousemgr.obj
 0001:00030f50       ?GetStatusMouseWIC@CMouseMgr@@QAE?AULPOINT3@@XZ 10031f50 f   Mousemgr.obj
 0001:00030f90       ?SetStatusMouseWIC@CMouseMgr@@QAEXULPOINT3@@@Z 10031f90 f   Mousemgr.obj
 0001:00030fe0       ?SetViewCursor@CMouseMgr@@QAEXH@Z 10031fe0 f   Mousemgr.obj
 0001:00031130       ?Serialize@CMouseMgr@@UAEXAAVCArchive@@@Z 10032130 f   Mousemgr.obj
 0001:00031200       ?GetDBMouse@CMouseMgr@@QAEPAVCDBMouse@@XZ 10032200 f i Mousemgr.obj
 0001:00031230       ?CreateObject@CNodMouse@@SGPAVCObject@@XZ 10032230 f   NodMouse.obj
 0001:000312d0       ?_GetBaseClass@CNodMouse@@KGPAUCRuntimeClass@@XZ 100322d0 f   NodMouse.obj
 0001:000312f0       ?GetRuntimeClass@CNodMouse@@UBEPAUCRuntimeClass@@XZ 100322f0 f   NodMouse.obj
 0001:00031360       ??5@YGAAVCArchive@@AAV0@AAPAVCNodMouse@@@Z 10032360 f   NodMouse.obj
 0001:00031390       ??0CNodMouse@@QAE@XZ       10032390 f   NodMouse.obj
 0001:00031690       ??_ECNodMouse@@UAEPAXI@Z   10032690 f i NodMouse.obj
 0001:00031690       ??_GCNodMouse@@UAEPAXI@Z   10032690 f i NodMouse.obj
 0001:000316d0       ??1CNodMouse@@UAE@XZ       100326d0 f   NodMouse.obj
 0001:000318a0       ?Init_NOD@CNodMouse@@IAEXXZ 100328a0 f   NodMouse.obj
 0001:00031bf0       ?Terminate_NOD@CNodMouse@@IAEXH@Z 10032bf0 f   NodMouse.obj
 0001:00031c90       ?InitDlgIn_NOD@CNodMouse@@QAEXXZ 10032c90 f   NodMouse.obj
 0001:00031d80       ?SizeRectDlgIn@CNodMouse@@IAEXAAVCRect@@@Z 10032d80 f   NodMouse.obj
 0001:00031ee0       ?PreLeftDown@CNodMouse@@IAEXVCPoint@@@Z 10032ee0 f   NodMouse.obj
 0001:00031fd0       ?GetObjectFromID@CNodMouse@@IAEPAVCDrObject@@AAVCString@@H@Z 10032fd0 f   NodMouse.obj
 0001:00032070       ?SetMouseWICFromNode@CNodMouse@@IAEXPAVCDrNode@@PAULPOINT3@@@Z 10033070 f   NodMouse.obj
 0001:000320e0       ?ElementLeftDown_NOD@CNodMouse@@IAEXXZ 100330e0 f   NodMouse.obj
 0001:00032140       ?PreLeftUp@CNodMouse@@IAEXVCPoint@@@Z 10033140 f   NodMouse.obj
 0001:00032240       ?ShowNode@CNodMouse@@UAEHPAVCString@@HH@Z 10033240 f   NodMouse.obj
 0001:000324e0       ?PostLeft@CNodMouse@@IAEXXZ 100334e0 f   NodMouse.obj
 0001:000325e0       ?OnEBoxLButtonDown_NOD@CNodMouse@@QAEXPAVCClientDC@@PAVCView@@W4GENERATE@@IVCPoint@@@Z 100335e0 f   NodMouse.obj
 0001:00032850       ?GetNodInDlg@CNodMouse@@QAEPAVCDlg_NodI@@XZ 10033850 f i NodMouse.obj
 0001:00032880       ?UpdateNDlg_TRUE@CNodMouse@@IAEXXZ 10033880 f   NodMouse.obj
 0001:00032900       ?UpdateNDlg_FALSE@CNodMouse@@IAEXXZ 10033900 f   NodMouse.obj
 0001:00032ab0       ?LeftUp_NODE@CNodMouse@@IAEHVCPoint@@H@Z 10033ab0 f   NodMouse.obj
 0001:00032b50       ?LeftUp_NODE_NodeContext@CNodMouse@@IAEHVCPoint@@H@Z 10033b50 f   NodMouse.obj
 0001:000331d0       ?LeftUp_Node_Accept_NodeContext@CNodMouse@@IAEHVCPoint@@HH@Z 100341d0 f   NodMouse.obj
 0001:000334d0       ?ShowNodeInfo_SameID@CNodMouse@@IAEHPAVCDrNode@@@Z 100344d0 f   NodMouse.obj
 0001:00033640       ?ShowNodeInfo_SameCoords_NodeContext@CNodMouse@@IAEHPAVCDrNode@@@Z 10034640 f   NodMouse.obj
 0001:000338f0       ?UpdateADlg_TRUE@CNodMouse@@IAEXXZ 100348f0 f   NodMouse.obj
 0001:00033a80       ?UpdateDlg_TRUE_ADVANCE@CNodMouse@@IAEXXZ 10034a80 f   NodMouse.obj
 0001:000340a0       ?UpdateADlg_FALSE@CNodMouse@@IAEXXZ 100350a0 f   NodMouse.obj
 0001:000346c0       ?UpdateDlg_FALSE_ADVANCE@CNodMouse@@IAEXXZ 100356c0 f   NodMouse.obj
 0001:00035060       ?LeftUp_GetNode@CNodMouse@@IAEHUtagPOINT@@H@Z 10036060 f   NodMouse.obj
 0001:00035170       ?LeftUp_GetNode_ADVANCE@CNodMouse@@IAEHUtagPOINT@@H@Z 10036170 f   NodMouse.obj
 0001:000356f0       ?LeftUp_ADVANCE_NOD@CNodMouse@@IAEHUtagPOINT@@@Z 100366f0 f   NodMouse.obj
 0001:00035a70       ?ElementLeftUp_NOD@CNodMouse@@IAEXVCPoint@@@Z 10036a70 f   NodMouse.obj
 0001:00035f60       ?LeftUp_Node_Accept@CNodMouse@@IAEHVCPoint@@HH@Z 10036f60 f   NodMouse.obj
 0001:000362a0       ?ShowNotParentNodeInfo@CNodMouse@@IAEHPAVCDrNode@@@Z 100372a0 f   NodMouse.obj
 0001:000364f0       ?OnEBoxMouseMove_NOD@CNodMouse@@QAEXPAVCClientDC@@PAVCView@@W4GENERATE@@IVCPoint@@@Z 100374f0 f   NodMouse.obj
 0001:00036a00       ?OnEBoxLButtonUp_NOD@CNodMouse@@QAEXPAVCClientDC@@PAVCView@@W4GENERATE@@IVCPoint@@@Z 10037a00 f   NodMouse.obj
 0001:00036b10       ?OnEBoxRButtonDown_NOD@CNodMouse@@QAEXPAVCClientDC@@PAVCView@@W4GENERATE@@IVCPoint@@@Z 10037b10 f   NodMouse.obj
 0001:00036c30       ?RightUp_Premature@CNodMouse@@IAEHXZ 10037c30 f   NodMouse.obj
 0001:00036d60       ?ShowInputInfo_NOD@CNodMouse@@IAEHXZ 10037d60 f   NodMouse.obj
 0001:00037470       ?ShowNodeInfo@CNodMouse@@IAEHPAVCDrNode@@PADH@Z 10038470 f   NodMouse.obj
 0001:00037610       ?ResolveReference_Direction@CNodMouse@@IAEHXZ 10038610 f   NodMouse.obj
 0001:000376c0       ?ResolveReference_Coords@CNodMouse@@IAEHXZ 100386c0 f   NodMouse.obj
 0001:00037740       ?UnitAxisFromEndNodes@CNodMouse@@IAEHPAUWORLD@@@Z 10038740 f   NodMouse.obj
 0001:000377f0       ?RightUp_NotAutoAccept@CNodMouse@@IAEHXZ 100387f0 f   NodMouse.obj
 0001:00037980       ?OnEBoxRButtonUp_NOD@CNodMouse@@QAEXPAVCClientDC@@PAVCView@@W4GENERATE@@IVCPoint@@@Z 10038980 f   NodMouse.obj
 0001:00037e70       ?ReSetToolID_NOD@CNodMouse@@QAEIIII@Z 10038e70 f   NodMouse.obj
 0001:00038220       ?ModeLessOff_NOD@CNodMouse@@QAEXXZ 10039220 f   NodMouse.obj
 0001:00038270       ?ModeLessOn_NOD@CNodMouse@@QAEXXZ 10039270 f   NodMouse.obj
 0001:00038330       ?CreateorActivateNodIn@CNodMouse@@QAEJIJ@Z 10039330 f   NodMouse.obj
 0001:000387d0       ?ResetVuBasedVars_NodDlg@CNodMouse@@QAEXXZ 100397d0 f   NodMouse.obj
 0001:00038840       ?CancelNodIn@CNodMouse@@QAEJIJ@Z 10039840 f   NodMouse.obj
 0001:00038890       ?GoodByeNodIn@CNodMouse@@QAEJIJ@Z 10039890 f   NodMouse.obj
 0001:000388e0       ?UpdateNodIn@CNodMouse@@QAEJIJ@Z 100398e0 f   NodMouse.obj
 0001:00038aa0       ?Serialize@CNodMouse@@UAEXAAVCArchive@@@Z 10039aa0 f   NodMouse.obj
 0001:00038cf0       ?SerializeNode@CNodMouse@@IAEXAAVCArchive@@@Z 10039cf0 f   NodMouse.obj
 0001:00038d70       ?SetpDrObj3D@CMI_OSPN@@QAEXPAVCDrObj3D@@@Z 10039d70 f i O3DMouse.obj
 0001:00038da0       ?CreateObject@CO3DMouse@@SGPAVCObject@@XZ 10039da0 f   O3DMouse.obj
 0001:00038e40       ?_GetBaseClass@CO3DMouse@@KGPAUCRuntimeClass@@XZ 10039e40 f   O3DMouse.obj
 0001:00038e60       ?GetRuntimeClass@CO3DMouse@@UBEPAUCRuntimeClass@@XZ 10039e60 f   O3DMouse.obj
 0001:00038ed0       ??5@YGAAVCArchive@@AAV0@AAPAVCO3DMouse@@@Z 10039ed0 f   O3DMouse.obj
 0001:00038f00       ??0CO3DMouse@@QAE@XZ       10039f00 f   O3DMouse.obj
 0001:00039080       ??_ECO3DMouse@@UAEPAXI@Z   1003a080 f i O3DMouse.obj
 0001:00039080       ??_GCO3DMouse@@UAEPAXI@Z   1003a080 f i O3DMouse.obj
 0001:000390c0       ??1CO3DMouse@@UAE@XZ       1003a0c0 f   O3DMouse.obj
 0001:00039200       ?InitDlgIn_O3D@CO3DMouse@@QAEXXZ 1003a200 f   O3DMouse.obj
 0001:000392c0       ?Terminate_O3D@CO3DMouse@@IAEHH@Z 1003a2c0 f   O3DMouse.obj
 0001:000394a0       ?LeftDown_OBJ3D@CO3DMouse@@IAEHXZ 1003a4a0 f   O3DMouse.obj
 0001:000394c0       ?ElementLeftDown_O3D@CO3DMouse@@IAEXXZ 1003a4c0 f   O3DMouse.obj
 0001:00039550       ?OnEBoxLButtonDown_O3D@CO3DMouse@@QAEXPAVCClientDC@@PAVCView@@W4GENERATE@@IVCPoint@@@Z 1003a550 f   O3DMouse.obj
 0001:00039860       ?GetO3DInDlg@CO3DMouse@@QAEPAVCDlg_O3DI@@XZ 1003a860 f i O3DMouse.obj
 0001:00039890       ?UpdateODlg_TRUE@CO3DMouse@@IAEXXZ 1003a890 f   O3DMouse.obj
 0001:000398e0       ?UpdateODlg_FALSE@CO3DMouse@@IAEXXZ 1003a8e0 f   O3DMouse.obj
 0001:000399c0       ?LeftUp_Obj3D_Accept_OtherContext@CO3DMouse@@IAEHVCPoint@@@Z 1003a9c0 f   O3DMouse.obj
 0001:00039fa0       ?LeftUp_Solid_Accept_OtherContext@CO3DMouse@@IAEHVCPoint@@@Z 1003afa0 f   O3DMouse.obj
 0001:0003a580       ?ShowSolidInfo@CO3DMouse@@IAEHPAVCDrSolid@@PADH@Z 1003b580 f   O3DMouse.obj
 0001:0003a7c0       ?LeftUp_O3D_Obj3D@CO3DMouse@@IAEHUtagPOINT@@@Z 1003b7c0 f   O3DMouse.obj
 0001:0003aa70       ?LeftUp_O3D_Solid@CO3DMouse@@IAEHUtagPOINT@@@Z 1003ba70 f   O3DMouse.obj
 0001:0003ad20       ?LeftUp_O3D_Patch@CO3DMouse@@IAEHUtagPOINT@@@Z 1003bd20 f   O3DMouse.obj
 0001:0003afd0       ?LeftUp_O3D_Curve@CO3DMouse@@IAEHUtagPOINT@@@Z 1003bfd0 f   O3DMouse.obj
 0001:0003b280       ?LeftUp_O3D_Node@CO3DMouse@@IAEHVCPoint@@HHH@Z 1003c280 f   O3DMouse.obj
 0001:0003b450       ?ElementLeftUp_O3D@CO3DMouse@@IAEXVCPoint@@@Z 1003c450 f   O3DMouse.obj
 0001:0003b630       ?OnEBoxMouseMove_O3D@CO3DMouse@@QAEXPAVCClientDC@@PAVCView@@W4GENERATE@@IVCPoint@@@Z 1003c630 f   O3DMouse.obj
 0001:0003baf0       ?OnEBoxLButtonUp_O3D@CO3DMouse@@QAEXPAVCClientDC@@PAVCView@@W4GENERATE@@IVCPoint@@@Z 1003caf0 f   O3DMouse.obj
 0001:0003bc00       ?OnEBoxRButtonDown_O3D@CO3DMouse@@QAEXPAVCClientDC@@PAVCView@@W4GENERATE@@IVCPoint@@@Z 1003cc00 f   O3DMouse.obj
 0001:0003bd60       ?RightUp_Premature_O3D@CO3DMouse@@IAEHXZ 1003cd60 f   O3DMouse.obj
 0001:0003c130       ?RightUp_NotAutoAccept_O3D@CO3DMouse@@IAEHXZ 1003d130 f   O3DMouse.obj
 0001:0003cb20       ?ShowObj3DInfo@CO3DMouse@@IAEHPAVCDrObj3D@@PADH@Z 1003db20 f   O3DMouse.obj
 0001:0003d130       ?ShowObj3D@CO3DMouse@@IAEHPAVCString@@@Z 1003e130 f   O3DMouse.obj
 0001:0003d440       ?O3DTopo_Update@CO3DMouse@@QAEHPAVCDrObj3D@@PAVCDListMgr@@1111@Z 1003e440 f   O3DMouse.obj
 0001:0003d7d0       ?O3DTopo_ConnectObjects@CO3DMouse@@QAEHPAVCDrObj3D@@PAVCDListMgr@@@Z 1003e7d0 f   O3DMouse.obj
 0001:0003d8f0       ?OnEBoxRButtonUp_O3D@CO3DMouse@@QAEXPAVCClientDC@@PAVCView@@W4GENERATE@@IVCPoint@@@Z 1003e8f0 f   O3DMouse.obj
 0001:0003dd10       ?ReSetToolID_O3D@CO3DMouse@@QAEIIII@Z 1003ed10 f   O3DMouse.obj
 0001:0003dfa0       ?ModeLessOff_O3D@CO3DMouse@@QAEXXZ 1003efa0 f   O3DMouse.obj
 0001:0003dff0       ?ModeLessOn_O3D@CO3DMouse@@QAEXXZ 1003eff0 f   O3DMouse.obj
 0001:0003e030       ?CreateorActivateO3DIn@CO3DMouse@@QAEJIJ@Z 1003f030 f   O3DMouse.obj
 0001:0003e210       ?GoodByeO3DIn@CO3DMouse@@QAEJIJ@Z 1003f210 f   O3DMouse.obj
 0001:0003e250       ?CancelO3DIn@CO3DMouse@@QAEJIJ@Z 1003f250 f   O3DMouse.obj
 0001:0003e290       ?UpdateO3DIn@CO3DMouse@@QAEJIJ@Z 1003f290 f   O3DMouse.obj
 0001:0003e2d0       ?Serialize@CO3DMouse@@UAEXAAVCArchive@@@Z 1003f2d0 f   O3DMouse.obj
 0001:0003e330       ??0CLoft_Compat@@QAE@XZ    1003f330 f i PatMouse.obj
 0001:0003e360       ??1CLoft_Compat@@UAE@XZ    1003f360 f i PatMouse.obj
 0001:0003e390       ??_GCLoft_Compat@@UAEPAXI@Z 1003f390 f i PatMouse.obj
 0001:0003e3d0       ??_ECLoft_Compat@@UAEPAXI@Z 1003f3d0 f i PatMouse.obj
 0001:0003e470       ?CreateObject@CPatMouse@@SGPAVCObject@@XZ 1003f470 f   PatMouse.obj
 0001:0003e510       ?_GetBaseClass@CPatMouse@@KGPAUCRuntimeClass@@XZ 1003f510 f   PatMouse.obj
 0001:0003e530       ?GetRuntimeClass@CPatMouse@@UBEPAUCRuntimeClass@@XZ 1003f530 f   PatMouse.obj
 0001:0003e5a0       ??5@YGAAVCArchive@@AAV0@AAPAVCPatMouse@@@Z 1003f5a0 f   PatMouse.obj
 0001:0003e5d0       ??0CPatMouse@@QAE@XZ       1003f5d0 f   PatMouse.obj
 0001:0003e8d0       ??_GCPatMouse@@UAEPAXI@Z   1003f8d0 f i PatMouse.obj
 0001:0003e8d0       ??_ECPatMouse@@UAEPAXI@Z   1003f8d0 f i PatMouse.obj
 0001:0003e910       ??1CPatMouse@@UAE@XZ       1003f910 f   PatMouse.obj
 0001:0003eb80       ?GetPatSheet@CPatMouse@@QAEPAVCSheet_PATI@@XZ 1003fb80 f i PatMouse.obj
 0001:0003ebb0       ?InitDlgIn_PAT@CPatMouse@@QAEXXZ 1003fbb0 f   PatMouse.obj
 0001:0003ecc0       ?Terminate_PAT@CPatMouse@@IAEHH@Z 1003fcc0 f   PatMouse.obj
 0001:0003ef40       ?SetCurrentOperID@CDrGrafFrame@@QAEXI@Z 1003ff40 f i PatMouse.obj
 0001:0003efb0       ?SetCurrentCntlID@CDrGrafFrame@@QAEXI@Z 1003ffb0 f i PatMouse.obj
 0001:0003f020       ?SetActiveObjectType@CDrGrafFrame@@QAEXH@Z 10040020 f i PatMouse.obj
 0001:0003f050       ?SetActiveToolType@CDrGrafFrame@@QAEXH@Z 10040050 f i PatMouse.obj
 0001:0003f080       ?ResetVariables_PAT@CPatMouse@@IAEXXZ 10040080 f   PatMouse.obj
 0001:0003f570       ?LeftDown_PATCH@CPatMouse@@IAEHXZ 10040570 f   PatMouse.obj
 0001:0003f590       ?ShowPatch@CPatMouse@@IAEHPAVCString@@@Z 10040590 f   PatMouse.obj
 0001:00040040       ?Temp_FillOtherInfo_Tensor@CPatMouse@@IAEXXZ 10041040 f   PatMouse.obj
 0001:00040130       ?PatTopo_Update@CPatMouse@@QAEHPAVCDrPatch@@PAVCDListMgr@@1@Z 10041130 f   PatMouse.obj
 0001:000402c0       ?PatTopo_ConnectObjects@CPatMouse@@QAEHPAVCDrPatch@@PAVCDListMgr@@@Z 100412c0 f   PatMouse.obj
 0001:000403e0       ?ElementLeftDown_PAT@CPatMouse@@IAEHXZ 100413e0 f   PatMouse.obj
 0001:000406a0       ?OnEBoxLButtonDown_PAT@CPatMouse@@QAEXPAVCClientDC@@PAVCView@@W4GENERATE@@IVCPoint@@@Z 100416a0 f   PatMouse.obj
 0001:000408f0       ?UpdatePDlg_TRUE@CPatMouse@@IAEHXZ 100418f0 f   PatMouse.obj
 0001:00040da0       ?UpdatePDlg_FALSE@CPatMouse@@IAEHXZ 10041da0 f   PatMouse.obj
 0001:000414b0       ?UpdateTwistDlg_TRUE@CPatMouse@@IAEHXZ 100424b0 f   PatMouse.obj
 0001:00041560       ?UpdateEndDlg_TRUE@CPatMouse@@IAEHXZ 10042560 f   PatMouse.obj
 0001:000415c0       ?UpdateEndDlg_FALSE@CPatMouse@@IAEHXZ 100425c0 f   PatMouse.obj
 0001:00042140       ?UpdateTwistDlg_FALSE@CPatMouse@@IAEHXZ 10043140 f   PatMouse.obj
 0001:00042690       ?LeftUp_Pat_Node@CPatMouse@@IAEHVCPoint@@HHH@Z 10043690 f   PatMouse.obj
 0001:00042830       ?OldNode_N_Update_PATContext@CPatMouse@@IAEHHH@Z 10043830 f   PatMouse.obj
 0001:00042920       ?LeftUp_EXTRUDE_PAT@CPatMouse@@IAEHUtagPOINT@@@Z 10043920 f   PatMouse.obj
 0001:00042ab0       ?LeftUp_ROTATE_PAT@CPatMouse@@IAEHUtagPOINT@@@Z 10043ab0 f   PatMouse.obj
 0001:00042c40       ?LeftUp_LOFT_PAT@CPatMouse@@IAEHUtagPOINT@@@Z 10043c40 f   PatMouse.obj
 0001:00042fd0       ?LeftUp_TENSOR_PAT@CPatMouse@@IAEHUtagPOINT@@@Z 10043fd0 f   PatMouse.obj
 0001:00043110       ?LeftUp_GORDON_PAT@CPatMouse@@IAEHUtagPOINT@@@Z 10044110 f   PatMouse.obj
 0001:00043510       ?LeftUp_DUCT_PAT@CPatMouse@@IAEHUtagPOINT@@@Z 10044510 f   PatMouse.obj
 0001:000436b0       ?LeftUp_SWEEP_PAT@CPatMouse@@IAEHUtagPOINT@@@Z 100446b0 f   PatMouse.obj
 0001:00043850       ?LeftUp_COONS_PAT@CPatMouse@@IAEHUtagPOINT@@@Z 10044850 f   PatMouse.obj
 0001:00043900       ?LeftUp_Curve_Accept_OtherContext@CPatMouse@@IAEHVCPoint@@@Z 10044900 f   PatMouse.obj
 0001:00043ee0       ?ShowCurveInfo@CPatMouse@@IAEHPAVCDrCurve@@PADH@Z 10044ee0 f   PatMouse.obj
 0001:000440c0       ?LeftUp_Pat_Curve@CPatMouse@@IAEHUtagPOINT@@@Z 100450c0 f   PatMouse.obj
 0001:00044520       ?CheckCompatibility_COONS_Curve@CPatMouse@@IAEHPAVCDrCurve@@AAW4CURVELATCH@@@Z 10045520 f   PatMouse.obj
 0001:00044b70       ?ElementLeftUp_PAT@CPatMouse@@IAEHVCPoint@@@Z 10045b70 f   PatMouse.obj
 0001:00045f30       ?CheckCompatibility_GORDON_Curve@CPatMouse@@IAEHPAVCDListMgr@@PAV?$CList@W4CURVELATCH@@W41@@@01@Z 10046f30 f   PatMouse.obj
 0001:00045f50       ?CreateDataNodeList@CPatMouse@@QAEHPAVCDListMgr@@0PAV?$CList@W4CURVELATCH@@W41@@@AAH2@Z 10046f50 f   PatMouse.obj
 0001:00046230       ?TENSORTwistDlgUpdate_PAT@CPatMouse@@IAEHXZ 10047230 f   PatMouse.obj
 0001:00046530       ?TENSOREndDlgUpdate_PAT@CPatMouse@@IAEHXZ 10047530 f   PatMouse.obj
 0001:00046940       ?IsEndCondNeeded_LOFT@CPatMouse@@IAEHAAH00@Z 10047940 f   PatMouse.obj
 0001:00046bc0       ?GetBlendInfo_LOFT@CPatMouse@@IAEHXZ 10047bc0 f   PatMouse.obj
 0001:00046e60       ?IsEndCondNeeded_TENSOR@CPatMouse@@IAEHAAH00@Z 10047e60 f   PatMouse.obj
 0001:00047160       ?GetBlendInfo_TENSOR@CPatMouse@@IAEHXZ 10048160 f   PatMouse.obj
 0001:00047600       ?GORDONEndDlgUpdate_PAT@CPatMouse@@IAEHXZ 10048600 f   PatMouse.obj
 0001:00047770       ?IsEndCondNeeded_GORDON@CPatMouse@@IAEHAAHPAVCDListMgr@@1@Z 10048770 f   PatMouse.obj
 0001:00047ae0       ?GetBlendInfo_GORDON@CPatMouse@@IAEHXZ 10048ae0 f   PatMouse.obj
 0001:00047ef0       ?SwitchToEndCondDlg@CPatMouse@@IAEHXZ 10048ef0 f   PatMouse.obj
 0001:00047fb0       ?ShowPatchInfo@CPatMouse@@IAEHPAVCDrPatch@@@Z 10048fb0 f   PatMouse.obj
 0001:00048410       ?OnEBoxMouseMove_PAT@CPatMouse@@QAEXPAVCClientDC@@PAVCView@@W4GENERATE@@IVCPoint@@@Z 10049410 f   PatMouse.obj
 0001:000488d0       ?OnEBoxLButtonUp_PAT@CPatMouse@@QAEXPAVCClientDC@@PAVCView@@W4GENERATE@@IVCPoint@@@Z 100498d0 f   PatMouse.obj
 0001:000489e0       ?OnEBoxRButtonDown_PAT@CPatMouse@@QAEXPAVCClientDC@@PAVCView@@W4GENERATE@@IVCPoint@@@Z 100499e0 f   PatMouse.obj
 0001:00048b40       ?RightUp_Premature_PAT@CPatMouse@@IAEHXZ 10049b40 f   PatMouse.obj
 0001:00048f80       ?RightUp_NotAutoAccept_PAT@CPatMouse@@IAEHXZ 10049f80 f   PatMouse.obj
 0001:00049df0       ?OnEBoxRButtonUp_PAT@CPatMouse@@QAEXPAVCClientDC@@PAVCView@@W4GENERATE@@IVCPoint@@@Z 1004adf0 f   PatMouse.obj
 0001:0004a1b0       ?PutEndIdsInPlateList@CPatMouse@@IAEHQAVCString@@H@Z 1004b1b0 f   PatMouse.obj
 0001:0004a1e0       ?PutObjectinPatch@CPatMouse@@IAEHPAVCDrObject@@QAVCString@@H@Z 1004b1e0 f   PatMouse.obj
 0001:0004a200       ?ReSetToolID_PAT@CPatMouse@@QAEIIII@Z 1004b200 f   PatMouse.obj
 0001:0004a6f0       ?ModeLessOff_PAT@CPatMouse@@QAEXXZ 1004b6f0 f   PatMouse.obj
 0001:0004a740       ?ModeLessOn_PAT@CPatMouse@@QAEXXZ 1004b740 f   PatMouse.obj
 0001:0004a900       ?CreateorActivatePatIn@CPatMouse@@QAEJIJ@Z 1004b900 f   PatMouse.obj
 0001:0004aaf0       ?ResetVuBasedVars_PatDlg@CPatMouse@@QAEXXZ 1004baf0 f   PatMouse.obj
 0001:0004abd0       ?GoodByePatIn@CPatMouse@@QAEJIJ@Z 1004bbd0 f   PatMouse.obj
 0001:0004ac10       ?CancelPatIn@CPatMouse@@QAEJIJ@Z 1004bc10 f   PatMouse.obj
 0001:0004ac50       ?UpdatePatIn@CPatMouse@@QAEJIJ@Z 1004bc50 f   PatMouse.obj
 0001:0004aec0       ?ProcessPatTwist_DUCT_SWEEP@CPatMouse@@IAEHXZ 1004bec0 f   PatMouse.obj
 0001:0004b0e0       ?ProcessPatScale_SWEEP@CPatMouse@@IAEHXZ 1004c0e0 f   PatMouse.obj
 0001:0004b300       ?ProcessPatRotAxis@CPatMouse@@IAEHXZ 1004c300 f   PatMouse.obj
 0001:0004b710       ?UpdatePDlg_FALSE_EXTRUDE@CPatMouse@@IAEHXZ 1004c710 f   PatMouse.obj
 0001:0004bdd0       ?UpdatePDlg_FALSE_ROTATE@CPatMouse@@IAEHXZ 1004cdd0 f   PatMouse.obj
 0001:0004c740       ?UpdatePDlg_FALSE_LOFT@CPatMouse@@IAEHXZ 1004d740 f   PatMouse.obj
 0001:0004cf40       ?UpdatePDlg_FALSE_TENSOR@CPatMouse@@IAEHXZ 1004df40 f   PatMouse.obj
 0001:0004d6f0       ?UpdatePDlg_FALSE_GORDON@CPatMouse@@IAEHXZ 1004e6f0 f   PatMouse.obj
 0001:0004de40       ?UpdatePDlg_FALSE_COONS@CPatMouse@@IAEHXZ 1004ee40 f   PatMouse.obj
 0001:0004e2e0       ?UpdatePDlg_FALSE_DUCT@CPatMouse@@IAEHXZ 1004f2e0 f   PatMouse.obj
 0001:0004ec40       ?UpdatePDlg_FALSE_SWEEP@CPatMouse@@IAEHXZ 1004fc40 f   PatMouse.obj
 0001:0004f760       ?Serialize@CPatMouse@@UAEXAAVCArchive@@@Z 10050760 f   PatMouse.obj
 0001:0004f7c0       ?GetCount@?$CList@HH@@QBEHXZ 100507c0 f i PatMouse.obj
 0001:0004f7e0       ?GetHead@?$CList@HH@@QAEAAHXZ 100507e0 f i PatMouse.obj
 0001:0004f830       ?AddTail@?$CList@HH@@QAEXPAV1@@Z 10050830 f i PatMouse.obj
 0001:0004f8e0       ??0?$CList@W4CURVELATCH@@W41@@@QAE@H@Z 100508e0 f i PatMouse.obj
 0001:0004f9c0       ?RemoveTail@?$CList@W4CURVELATCH@@W41@@@QAE?AW4CURVELATCH@@XZ 100509c0 f i PatMouse.obj
 0001:0004fac0       ?AddTail@?$CList@W4CURVELATCH@@W41@@@QAEXPAV1@@Z 10050ac0 f i PatMouse.obj
 0001:0004fb70       ?AddTail@?$CList@W4CURVELATCH@@W41@@@QAEPAU__POSITION@@W4CURVELATCH@@@Z 10050b70 f i PatMouse.obj
 0001:0004fc00       ?RemoveAll@?$CList@W4CURVELATCH@@W41@@@QAEXXZ 10050c00 f i PatMouse.obj
 0001:0004fcb0       ?GetHeadPosition@?$CList@W4CURVELATCH@@W41@@@QBEPAU__POSITION@@XZ 10050cb0 f i PatMouse.obj
 0001:0004fcd0       ?GetNext@?$CList@W4CURVELATCH@@W41@@@QAEAAW4CURVELATCH@@AAPAU__POSITION@@@Z 10050cd0 f i PatMouse.obj
 0001:0004fd40       ?GetAt@?$CList@W4CURVELATCH@@W41@@@QAEAAW4CURVELATCH@@PAU__POSITION@@@Z 10050d40 f i PatMouse.obj
 0001:0004fda0       ?FindIndex@?$CList@W4CURVELATCH@@W41@@@QBEPAU__POSITION@@H@Z 10050da0 f i PatMouse.obj
 0001:0004fe60       ??1?$CList@W4CURVELATCH@@W41@@@UAE@XZ 10050e60 f i PatMouse.obj
 0001:0004ff00       ?Serialize@?$CList@W4CURVELATCH@@W41@@@UAEXAAVCArchive@@@Z 10050f00 f i PatMouse.obj
 0001:00050020       ?Dump@?$CList@W4CURVELATCH@@W41@@@UBEXAAVCDumpContext@@@Z 10051020 f i PatMouse.obj
 0001:000500e0       ?AssertValid@?$CList@W4CURVELATCH@@W41@@@UBEXXZ 100510e0 f i PatMouse.obj
 0001:000501e0       ??0?$CList@Ublendend@@U1@@@QAE@H@Z 100511e0 f i PatMouse.obj
 0001:000502c0       ?AddTail@?$CList@Ublendend@@U1@@@QAEPAU__POSITION@@Ublendend@@@Z 100512c0 f i PatMouse.obj
 0001:00050360       ?RemoveAll@?$CList@Ublendend@@U1@@@QAEXXZ 10051360 f i PatMouse.obj
 0001:00050410       ??1?$CList@Ublendend@@U1@@@UAE@XZ 10051410 f i PatMouse.obj
 0001:000504b0       ?Serialize@?$CList@Ublendend@@U1@@@UAEXAAVCArchive@@@Z 100514b0 f i PatMouse.obj
 0001:000505e0       ?Dump@?$CList@Ublendend@@U1@@@UBEXAAVCDumpContext@@@Z 100515e0 f i PatMouse.obj
 0001:000506a0       ?AssertValid@?$CList@Ublendend@@U1@@@UBEXXZ 100516a0 f i PatMouse.obj
 0001:000507a0       ??0?$CList@NN@@QAE@H@Z     100517a0 f i PatMouse.obj
 0001:00050880       ?AddTail@?$CList@NN@@QAEPAU__POSITION@@N@Z 10051880 f i PatMouse.obj
 0001:00050920       ?RemoveAll@?$CList@NN@@QAEXXZ 10051920 f i PatMouse.obj
 0001:000509d0       ??1?$CList@NN@@UAE@XZ      100519d0 f i PatMouse.obj
 0001:00050a70       ?Serialize@?$CList@NN@@UAEXAAVCArchive@@@Z 10051a70 f i PatMouse.obj
 0001:00050b90       ?Dump@?$CList@NN@@UBEXAAVCDumpContext@@@Z 10051b90 f i PatMouse.obj
 0001:00050c50       ?AssertValid@?$CList@NN@@UBEXXZ 10051c50 f i PatMouse.obj
 0001:00050d50       ??_G?$CList@W4CURVELATCH@@W41@@@UAEPAXI@Z 10051d50 f i PatMouse.obj
 0001:00050d50       ??_E?$CList@W4CURVELATCH@@W41@@@UAEPAXI@Z 10051d50 f i PatMouse.obj
 0001:00050d90       ??_E?$CList@Ublendend@@U1@@@UAEPAXI@Z 10051d90 f i PatMouse.obj
 0001:00050d90       ??_G?$CList@Ublendend@@U1@@@UAEPAXI@Z 10051d90 f i PatMouse.obj
 0001:00050dd0       ??_G?$CList@NN@@UAEPAXI@Z  10051dd0 f i PatMouse.obj
 0001:00050dd0       ??_E?$CList@NN@@UAEPAXI@Z  10051dd0 f i PatMouse.obj
 0001:00050e10       ?NewNode@?$CList@W4CURVELATCH@@W41@@@IAEPAUCNode@1@PAU21@0@Z 10051e10 f i PatMouse.obj
 0001:00050f80       ?FreeNode@?$CList@W4CURVELATCH@@W41@@@IAEXPAUCNode@1@@Z 10051f80 f i PatMouse.obj
 0001:00051020       ?DestructElements@@YGXPAW4CURVELATCH@@H@Z 10052020 f i PatMouse.obj
 0001:000510a0       ?SerializeElements@@YGXAAVCArchive@@PAW4CURVELATCH@@H@Z 100520a0 f i PatMouse.obj
 0001:00051140       ?DumpElements@@YGXAAVCDumpContext@@PBW4CURVELATCH@@H@Z 10052140 f i PatMouse.obj
 0001:000511a0       ?GetHeadPosition@?$CList@Ublendend@@U1@@@QBEPAU__POSITION@@XZ 100521a0 f i PatMouse.obj
 0001:000511c0       ?GetNext@?$CList@Ublendend@@U1@@@QAEAAUblendend@@AAPAU__POSITION@@@Z 100521c0 f i PatMouse.obj
 0001:00051230       ?NewNode@?$CList@Ublendend@@U1@@@IAEPAUCNode@1@PAU21@0@Z 10052230 f i PatMouse.obj
 0001:000513a0       ?DestructElements@@YGXPAUblendend@@H@Z 100523a0 f i PatMouse.obj
 0001:00051420       ?SerializeElements@@YGXAAVCArchive@@PAUblendend@@H@Z 10052420 f i PatMouse.obj
 0001:000514c0       ?DumpElements@@YGXAAVCDumpContext@@PBUblendend@@H@Z 100524c0 f i PatMouse.obj
 0001:00051520       ?GetHeadPosition@?$CList@NN@@QBEPAU__POSITION@@XZ 10052520 f i PatMouse.obj
 0001:00051540       ?GetNext@?$CList@NN@@QAEAANAAPAU__POSITION@@@Z 10052540 f i PatMouse.obj
 0001:000515b0       ?NewNode@?$CList@NN@@IAEPAUCNode@1@PAU21@0@Z 100525b0 f i PatMouse.obj
 0001:00051720       ?DestructElements@@YGXPANH@Z 10052720 f i PatMouse.obj
 0001:000517a0       ?SerializeElements@@YGXAAVCArchive@@PANH@Z 100527a0 f i PatMouse.obj
 0001:00051840       ?DumpElements@@YGXAAVCDumpContext@@PBNH@Z 10052840 f i PatMouse.obj
 0001:000518a0       ?ConstructElements@@YGXPAW4CURVELATCH@@H@Z 100528a0 f i PatMouse.obj
 0001:00051950       ?ConstructElements@@YGXPAUblendend@@H@Z 10052950 f i PatMouse.obj
 0001:00051a00       ?ConstructElements@@YGXPANH@Z 10052a00 f i PatMouse.obj
 0001:00051ab0       ?CreateObject@CSLDMouse@@SGPAVCObject@@XZ 10052ab0 f   SLDmouse.obj
 0001:00051b50       ?_GetBaseClass@CSLDMouse@@KGPAUCRuntimeClass@@XZ 10052b50 f   SLDmouse.obj
 0001:00051b70       ?GetRuntimeClass@CSLDMouse@@UBEPAUCRuntimeClass@@XZ 10052b70 f   SLDmouse.obj
 0001:00051be0       ??5@YGAAVCArchive@@AAV0@AAPAVCSLDMouse@@@Z 10052be0 f   SLDmouse.obj
 0001:00051c10       ??0CSLDMouse@@QAE@XZ       10052c10 f   SLDmouse.obj
 0001:00051ff0       ??_GCSLDMouse@@UAEPAXI@Z   10052ff0 f i SLDmouse.obj
 0001:00051ff0       ??_ECSLDMouse@@UAEPAXI@Z   10052ff0 f i SLDmouse.obj
 0001:00052030       ??1CSLDMouse@@UAE@XZ       10053030 f   SLDmouse.obj
 0001:00052270       ?InitDlgIn_SLD@CSLDMouse@@QAEXXZ 10053270 f   SLDmouse.obj
 0001:00052330       ?Init_SLD@CSLDMouse@@IAEXXZ 10053330 f   SLDmouse.obj
 0001:000525d0       ?GetStLInDlg@CSLDMouse@@QAEPAVCDlg_StLI@@XZ 100535d0 f i SLDmouse.obj
 0001:00052600       ?Terminate_SLD@CSLDMouse@@IAEXH@Z 10053600 f   SLDmouse.obj
 0001:00052770       ?ElementLeftDown_SLD@CSLDMouse@@IAEXXZ 10053770 f   SLDmouse.obj
 0001:000527c0       ?UpdateSLDObjInfo@CSLDMouse@@IAEHXZ 100537c0 f   SLDmouse.obj
 0001:00052f30       ?ShowStatic@CSLDMouse@@IAEHPAVCString@@@Z 10053f30 f   SLDmouse.obj
 0001:000530f0       ?ShowStatic_Node@CSLDMouse@@IAEHPAVCString@@@Z 100540f0 f   SLDmouse.obj
 0001:00053160       ?ShowStatic_Curve@CSLDMouse@@IAEHPAVCString@@@Z 10054160 f   SLDmouse.obj
 0001:000531d0       ?ShowStatic_Patch@CSLDMouse@@IAEHPAVCString@@@Z 100541d0 f   SLDmouse.obj
 0001:00053240       ?ShowStatic_Solid@CSLDMouse@@IAEHPAVCString@@@Z 10054240 f   SLDmouse.obj
 0001:00053290       ?OnEBoxLButtonDown_SLD@CSLDMouse@@QAEXPAVCClientDC@@PAVCView@@W4GENERATE@@IVCPoint@@@Z 10054290 f   SLDmouse.obj
 0001:000535c0       ?UpdateDlgIn_TRUE@CSLDMouse@@IAEXXZ 100545c0 f   SLDmouse.obj
 0001:000538e0       ?UpdateDlgIn_FALSE@CSLDMouse@@IAEXXZ 100548e0 f   SLDmouse.obj
 0001:00053bf0       ?UpdateStaticDlg_TRUE@CSLDMouse@@IAEXXZ 10054bf0 f   SLDmouse.obj
 0001:00053c20       ?CurrentOperationString@CSLDMouse@@IAEXIIAAVCString@@@Z 10054c20 f   SLDmouse.obj
 0001:00053e00       ?UpdateStaticDlg_FALSE@CSLDMouse@@IAEXXZ 10054e00 f   SLDmouse.obj
 0001:000541e0       ?LeftUp_Node_SLDContext@CSLDMouse@@IAEHVCPoint@@HHH@Z 100551e0 f   SLDmouse.obj
 0001:00054470       ?NewNode_N_Update_SLDContext@CSLDMouse@@IAEHAAVCString@@VCPoint@@H@Z 10055470 f   SLDmouse.obj
 0001:00054910       ?OldNode_N_Update_SLDContext@CSLDMouse@@IAEHHH@Z 10055910 f   SLDmouse.obj
 0001:000549b0       ?LeftUp_JC_X_FIXEDDIR_SLD@CSLDMouse@@IAEHUtagPOINT@@@Z 100559b0 f   SLDmouse.obj
 0001:00054b10       ?LeftUp_JC_X_TAN_CURVE_SLD@CSLDMouse@@IAEHUtagPOINT@@@Z 10055b10 f   SLDmouse.obj
 0001:00054c10       ?LeftUp_JC_Z_NOR_PATCH_SLD@CSLDMouse@@IAEHUtagPOINT@@@Z 10055c10 f   SLDmouse.obj
 0001:00054d10       ?LeftUp_GetNodeStatic@CSLDMouse@@IAEHVCPoint@@@Z 10055d10 f   SLDmouse.obj
 0001:00054da0       ?LeftUp_Node_Accept_NodeBased@CSLDMouse@@IAEHVCPoint@@H@Z 10055da0 f   SLDmouse.obj
 0001:000554a0       ?Show_NodeBased_NodeInfo@CSLDMouse@@IAEHPAVCDrNode@@@Z 100564a0 f   SLDmouse.obj
 0001:00055a60       ?Show_CurveBased_CurveInfo@CSLDMouse@@IAEHPAVCDrCurve@@@Z 10056a60 f   SLDmouse.obj
 0001:00055fb0       ?LeftUp_GetCurveStatic@CSLDMouse@@IAEHVCPoint@@@Z 10056fb0 f   SLDmouse.obj
 0001:00056050       ?LeftUp_Curve_Accept@CSLDMouse@@IAEHVCPoint@@@Z 10057050 f   SLDmouse.obj
 0001:000564b0       ?Show_PatchBased_PatchInfo@CSLDMouse@@IAEHPAVCDrPatch@@@Z 100574b0 f   SLDmouse.obj
 0001:00056a00       ?LeftUp_GetPatchStatic@CSLDMouse@@IAEHVCPoint@@@Z 10057a00 f   SLDmouse.obj
 0001:00056aa0       ?LeftUp_Patch_Accept@CSLDMouse@@IAEHVCPoint@@@Z 10057aa0 f   SLDmouse.obj
 0001:00056e90       ?ShowSolidInfo@CSLDMouse@@IAEHPAVCDrSolid@@@Z 10057e90 f   SLDmouse.obj
 0001:000573b0       ?ShowInfo_SolidStatic@CSLDMouse@@IAEHPAVCDrSolid@@PADH@Z 100583b0 f   SLDmouse.obj
 0001:000573f0       ?LeftUp_Static_Solid@CSLDMouse@@IAEHVCPoint@@@Z 100583f0 f   SLDmouse.obj
 0001:00057430       ?LeftUp_Solid_Accept@CSLDMouse@@IAEHVCPoint@@@Z 10058430 f   SLDmouse.obj
 0001:00057820       ?LeftUp_Static_NODE@CSLDMouse@@IAEHUtagPOINT@@IW4JOINTCOORD@@@Z 10058820 f   SLDmouse.obj
 0001:00057cd0       ?GetValues_CURVE@CSLDMouse@@IAEHXZ 10058cd0 f   SLDmouse.obj
 0001:00057f40       ?LeftUp_Static_CURVE@CSLDMouse@@IAEHUtagPOINT@@IW4JOINTCOORD@@@Z 10058f40 f   SLDmouse.obj
 0001:00058250       ?GetValues_PATCH@CSLDMouse@@IAEHXZ 10059250 f   SLDmouse.obj
 0001:00058510       ?LeftUp_Static_PATCH@CSLDMouse@@IAEHUtagPOINT@@IW4JOINTCOORD@@@Z 10059510 f   SLDmouse.obj
 0001:00058790       ?GetValues_SOLID@CSLDMouse@@IAEHXZ 10059790 f   SLDmouse.obj
 0001:000587c0       ?LeftUp_Static_SOLID@CSLDMouse@@IAEHUtagPOINT@@IW4JOINTCOORD@@@Z 100597c0 f   SLDmouse.obj
 0001:000587f0       ?ElementLeftUp_SLD@CSLDMouse@@IAEXVCPoint@@@Z 100597f0 f   SLDmouse.obj
 0001:00058c70       ?OnEBoxMouseMove_SLD@CSLDMouse@@QAEXPAVCClientDC@@PAVCView@@W4GENERATE@@IVCPoint@@@Z 10059c70 f   SLDmouse.obj
 0001:00059130       ?OnEBoxLButtonUp_SLD@CSLDMouse@@QAEXPAVCClientDC@@PAVCView@@W4GENERATE@@IVCPoint@@@Z 1005a130 f   SLDmouse.obj
 0001:00059240       ?OnEBoxRButtonDown_SLD@CSLDMouse@@QAEXPAVCClientDC@@PAVCView@@W4GENERATE@@IVCPoint@@@Z 1005a240 f   SLDmouse.obj
 0001:000593a0       ?RightUp_Static_Error@CSLDMouse@@IAEHXZ 1005a3a0 f   SLDmouse.obj
 0001:000593f0       ?RightUp_Static_Premature@CSLDMouse@@IAEHXZ 1005a3f0 f   SLDmouse.obj
 0001:00059ba0       ?RightUp_Static_NotAutoAccept@CSLDMouse@@IAEHXZ 1005aba0 f   SLDmouse.obj
 0001:00059db0       ?ShowAcceptInfo_Static@CSLDMouse@@IAEHPADAAH@Z 1005adb0 f   SLDmouse.obj
 0001:00059f00       ?ShowAcceptInfo_NodeBased@CSLDMouse@@IAEHPAVCDrNode@@PADAAH@Z 1005af00 f   SLDmouse.obj
 0001:00059ff0       ?ShowAcceptInfo_CurveBased@CSLDMouse@@IAEHPAVCDrCurve@@PADAAH@Z 1005aff0 f   SLDmouse.obj
 0001:0005a110       ?ShowAcceptInfo_PatchBased@CSLDMouse@@IAEHPAVCDrPatch@@PADAAH@Z 1005b110 f   SLDmouse.obj
 0001:0005a230       ?ShowAcceptInfo_SolidBased@CSLDMouse@@IAEHPAVCDrSolid@@PADAAH@Z 1005b230 f   SLDmouse.obj
 0001:0005a310       ?OnEBoxRButtonUp_SLD@CSLDMouse@@QAEXPAVCClientDC@@PAVCView@@W4GENERATE@@IVCPoint@@@Z 1005b310 f   SLDmouse.obj
 0001:0005a4e0       ?ReSetToolID_SLD@CSLDMouse@@QAEIIII@Z 1005b4e0 f   SLDmouse.obj
 0001:0005b010       ?SetMouseBoxType@CDrGrafFrame@@QAEXI@Z 1005c010 f i SLDmouse.obj
 0001:0005b040       ?ModeLessOff_SLD@CSLDMouse@@QAEXXZ 1005c040 f   SLDmouse.obj
 0001:0005b130       ?SetMainType_SLD@CSLDMouse@@IAEXXZ 1005c130 f   SLDmouse.obj
 0001:0005b6e0       ?ModeLessOn_SLD@CSLDMouse@@QAEXXZ 1005c6e0 f   SLDmouse.obj
 0001:0005b820       ?CreateorActivateF_MIn@CSLDMouse@@QAEJIJ@Z 1005c820 f   SLDmouse.obj
 0001:0005bcc0       ?GetCurrStat@CDrGrafFrame@@QAEPAVCStatCntl@@XZ 1005ccc0 f i SLDmouse.obj
 0001:0005bcf0       ?CancelF_MIn@CSLDMouse@@QAEJIJ@Z 1005ccf0 f   SLDmouse.obj
 0001:0005bd30       ?GoodByeF_MIn@CSLDMouse@@QAEJIJ@Z 1005cd30 f   SLDmouse.obj
 0001:0005bd80       ?UpdateF_MIn@CSLDMouse@@QAEJIJ@Z 1005cd80 f   SLDmouse.obj
 0001:0005bdb0       ?CreateorActivateD_RIn@CSLDMouse@@QAEJIJ@Z 1005cdb0 f   SLDmouse.obj
 0001:0005c250       ?CancelD_RIn@CSLDMouse@@QAEJIJ@Z 1005d250 f   SLDmouse.obj
 0001:0005c290       ?GoodByeD_RIn@CSLDMouse@@QAEJIJ@Z 1005d290 f   SLDmouse.obj
 0001:0005c2e0       ?UpdateD_RIn@CSLDMouse@@QAEJIJ@Z 1005d2e0 f   SLDmouse.obj
 0001:0005c310       ?CreateorActivatePrsIn@CSLDMouse@@QAEJIJ@Z 1005d310 f   SLDmouse.obj
 0001:0005c900       ?CancelPrsIn@CSLDMouse@@QAEJIJ@Z 1005d900 f   SLDmouse.obj
 0001:0005c940       ?GoodByePrsIn@CSLDMouse@@QAEJIJ@Z 1005d940 f   SLDmouse.obj
 0001:0005c990       ?UpdatePrsIn@CSLDMouse@@QAEJIJ@Z 1005d990 f   SLDmouse.obj
 0001:0005c9c0       ?CreateorActivateThrIn@CSLDMouse@@QAEJIJ@Z 1005d9c0 f   SLDmouse.obj
 0001:0005cf40       ?CancelThrIn@CSLDMouse@@QAEJIJ@Z 1005df40 f   SLDmouse.obj
 0001:0005cf70       ?GoodByeThrIn@CSLDMouse@@QAEJIJ@Z 1005df70 f   SLDmouse.obj
 0001:0005cfc0       ?UpdateThrIn@CSLDMouse@@QAEJIJ@Z 1005dfc0 f   SLDmouse.obj
 0001:0005cff0       ?CreateorActivateLWtIn@CSLDMouse@@QAEJIJ@Z 1005dff0 f   SLDmouse.obj
 0001:0005d5e0       ?CancelLWtIn@CSLDMouse@@QAEJIJ@Z 1005e5e0 f   SLDmouse.obj
 0001:0005d620       ?GoodByeLWtIn@CSLDMouse@@QAEJIJ@Z 1005e620 f   SLDmouse.obj
 0001:0005d670       ?UpdateLWtIn@CSLDMouse@@QAEJIJ@Z 1005e670 f   SLDmouse.obj
 0001:0005d6a0       ?Serialize@CSLDMouse@@UAEXAAVCArchive@@@Z 1005e6a0 f   SLDmouse.obj
 0001:0005d700       ??0CLoftSol_Compat@@QAE@XZ 1005e700 f i SolMouse.obj
 0001:0005d730       ??1CLoftSol_Compat@@UAE@XZ 1005e730 f i SolMouse.obj
 0001:0005d760       ??_GCLoftSol_Compat@@UAEPAXI@Z 1005e760 f i SolMouse.obj
 0001:0005d7a0       ??_ECLoftSol_Compat@@UAEPAXI@Z 1005e7a0 f i SolMouse.obj
 0001:0005d840       ?CreateObject@CSolMouse@@SGPAVCObject@@XZ 1005e840 f   SolMouse.obj
 0001:0005d8e0       ?_GetBaseClass@CSolMouse@@KGPAUCRuntimeClass@@XZ 1005e8e0 f   SolMouse.obj
 0001:0005d900       ?GetRuntimeClass@CSolMouse@@UBEPAUCRuntimeClass@@XZ 1005e900 f   SolMouse.obj
 0001:0005d970       ??5@YGAAVCArchive@@AAV0@AAPAVCSolMouse@@@Z 1005e970 f   SolMouse.obj
 0001:0005d9a0       ??0CSolMouse@@QAE@XZ       1005e9a0 f   SolMouse.obj
 0001:0005dcd0       ??_ECSolMouse@@UAEPAXI@Z   1005ecd0 f i SolMouse.obj
 0001:0005dcd0       ??_GCSolMouse@@UAEPAXI@Z   1005ecd0 f i SolMouse.obj
 0001:0005dd10       ??1CSolMouse@@UAE@XZ       1005ed10 f   SolMouse.obj
 0001:0005df60       ?GetSolSheet@CSolMouse@@QAEPAVCSheet_SOLI@@XZ 1005ef60 f i SolMouse.obj
 0001:0005df90       ?InitDlgIn_SOL@CSolMouse@@QAEXXZ 1005ef90 f   SolMouse.obj
 0001:0005e0a0       ?Terminate_SOL@CSolMouse@@IAEHH@Z 1005f0a0 f   SolMouse.obj
 0001:0005e320       ?ResetVariables_SOL@CSolMouse@@IAEXXZ 1005f320 f   SolMouse.obj
 0001:0005e920       ?LeftDown_SOLID@CSolMouse@@IAEHXZ 1005f920 f   SolMouse.obj
 0001:0005e940       ?ShowSolid@CSolMouse@@IAEHPAVCString@@@Z 1005f940 f   SolMouse.obj
 0001:0005f1a0       ?Temp_FillOtherInfo_Tensor_SOL@CSolMouse@@IAEXXZ 100601a0 f   SolMouse.obj
 0001:0005f290       ?SolTopo_Update@CSolMouse@@QAEHPAVCDrSolid@@PAVCDListMgr@@11@Z 10060290 f   SolMouse.obj
 0001:0005f4d0       ?SolTopo_ConnectObjects@CSolMouse@@QAEHPAVCDrSolid@@PAVCDListMgr@@@Z 100604d0 f   SolMouse.obj
 0001:0005f5f0       ?ElementLeftDown_SOL@CSolMouse@@IAEHXZ 100605f0 f   SolMouse.obj
 0001:0005f870       ?OnEBoxLButtonDown_SOL@CSolMouse@@QAEXPAVCClientDC@@PAVCView@@W4GENERATE@@IVCPoint@@@Z 10060870 f   SolMouse.obj
 0001:0005fac0       ?UpdateSDlg_TRUE@CSolMouse@@IAEHXZ 10060ac0 f   SolMouse.obj
 0001:00060050       ?UpdateSDlg_FALSE@CSolMouse@@IAEHXZ 10061050 f   SolMouse.obj
 0001:000607f0       ?UpdateTwistDlg_TRUE_SOL@CSolMouse@@IAEHXZ 100617f0 f   SolMouse.obj
 0001:000608a0       ?UpdateEndDlg_TRUE_SOL@CSolMouse@@IAEHXZ 100618a0 f   SolMouse.obj
 0001:00060900       ?UpdateEndDlg_FALSE_SOL@CSolMouse@@IAEHXZ 10061900 f   SolMouse.obj
 0001:000614e0       ?UpdateTwistDlg_FALSE_SOL@CSolMouse@@IAEHXZ 100624e0 f   SolMouse.obj
 0001:00061a30       ?LeftUp_Sol_Node@CSolMouse@@IAEHVCPoint@@HHH@Z 10062a30 f   SolMouse.obj
 0001:00061bd0       ?OldNode_N_Update_SOLContext@CSolMouse@@IAEHHH@Z 10062bd0 f   SolMouse.obj
 0001:00061cc0       ?LeftUp_EXTRUDE_SOL@CSolMouse@@IAEHUtagPOINT@@@Z 10062cc0 f   SolMouse.obj
 0001:00061e40       ?LeftUp_ROTATE_SOL@CSolMouse@@IAEHUtagPOINT@@@Z 10062e40 f   SolMouse.obj
 0001:00061fc0       ?LeftUp_LOFT_SOL@CSolMouse@@IAEHUtagPOINT@@@Z 10062fc0 f   SolMouse.obj
 0001:00062350       ?LeftUp_TENSOR_SOL@CSolMouse@@IAEHUtagPOINT@@@Z 10063350 f   SolMouse.obj
 0001:00062490       ?LeftUp_GORDON_SOL@CSolMouse@@IAEHUtagPOINT@@@Z 10063490 f   SolMouse.obj
 0001:000628c0       ?LeftUp_DUCT_SOL@CSolMouse@@IAEHUtagPOINT@@@Z 100638c0 f   SolMouse.obj
 0001:00062ad0       ?LeftUp_SWEEP_SOL@CSolMouse@@IAEHUtagPOINT@@@Z 10063ad0 f   SolMouse.obj
 0001:00062cd0       ?LeftUp_COONS_SOL@CSolMouse@@IAEHUtagPOINT@@@Z 10063cd0 f   SolMouse.obj
 0001:00062d80       ?LeftUp_Patch_Accept_OtherContext@CSolMouse@@IAEHVCPoint@@@Z 10063d80 f   SolMouse.obj
 0001:00063360       ?ShowPatchInfo@CSolMouse@@IAEHPAVCDrPatch@@PADH@Z 10064360 f   SolMouse.obj
 0001:00063540       ?LeftUp_Sol_Patch@CSolMouse@@IAEHUtagPOINT@@@Z 10064540 f   SolMouse.obj
 0001:00063950       ?LeftUp_Sol_Curve@CSolMouse@@IAEHUtagPOINT@@@Z 10064950 f   SolMouse.obj
 0001:00063be0       ?ElementLeftUp_SOL@CSolMouse@@IAEHVCPoint@@@Z 10064be0 f   SolMouse.obj
 0001:00064f80       ?CheckCompatibility_GORDON_Solid@CSolMouse@@IAEHPAVCDListMgr@@PAV?$CList@W4PATCHLATCH@@W41@@@01@Z 10065f80 f   SolMouse.obj
 0001:00064fa0       ?CreateDataNodeList_Solid@CSolMouse@@QAEHPAVCDListMgr@@0PAV?$CList@W4PATCHLATCH@@W41@@@AAH2@Z 10065fa0 f   SolMouse.obj
 0001:00064fc0       ?TENSORTwistDlgUpdate_SOL@CSolMouse@@IAEHXZ 10065fc0 f   SolMouse.obj
 0001:000652c0       ?TENSOREndDlgUpdate_SOL@CSolMouse@@IAEHXZ 100662c0 f   SolMouse.obj
 0001:000656d0       ?IsEndCondNeeded_LOFT_SOL@CSolMouse@@IAEHAAH00@Z 100666d0 f   SolMouse.obj
 0001:00065950       ?GetBlendInfo_LOFT_SOL@CSolMouse@@IAEHXZ 10066950 f   SolMouse.obj
 0001:00065bf0       ?IsEndCondNeeded_TENSOR_SOL@CSolMouse@@IAEHAAH00@Z 10066bf0 f   SolMouse.obj
 0001:00065ef0       ?GetBlendInfo_TENSOR_SOL@CSolMouse@@IAEHXZ 10066ef0 f   SolMouse.obj
 0001:00066390       ?GORDONEndDlgUpdate_SOL@CSolMouse@@IAEHXZ 10067390 f   SolMouse.obj
 0001:00066500       ?IsEndCondNeeded_GORDON_SOL@CSolMouse@@IAEHAAHPAVCDListMgr@@1@Z 10067500 f   SolMouse.obj
 0001:00066870       ?GetBlendInfo_GORDON_SOL@CSolMouse@@IAEHXZ 10067870 f   SolMouse.obj
 0001:00066c80       ?SwitchToEndCondDlg_SOL@CSolMouse@@IAEHXZ 10067c80 f   SolMouse.obj
 0001:00066d40       ?ShowSolidInfo@CSolMouse@@IAEHPAVCDrSolid@@@Z 10067d40 f   SolMouse.obj
 0001:000671a0       ?OnEBoxMouseMove_SOL@CSolMouse@@QAEXPAVCClientDC@@PAVCView@@W4GENERATE@@IVCPoint@@@Z 100681a0 f   SolMouse.obj
 0001:00067660       ?OnEBoxLButtonUp_SOL@CSolMouse@@QAEXPAVCClientDC@@PAVCView@@W4GENERATE@@IVCPoint@@@Z 10068660 f   SolMouse.obj
 0001:00067770       ?OnEBoxRButtonDown_SOL@CSolMouse@@QAEXPAVCClientDC@@PAVCView@@W4GENERATE@@IVCPoint@@@Z 10068770 f   SolMouse.obj
 0001:000678d0       ?RightUp_Premature_SOL@CSolMouse@@IAEHXZ 100688d0 f   SolMouse.obj
 0001:00067d20       ?RightUp_NotAutoAccept_SOL@CSolMouse@@IAEHXZ 10068d20 f   SolMouse.obj
 0001:00068d90       ?OnEBoxRButtonUp_SOL@CSolMouse@@QAEXPAVCClientDC@@PAVCView@@W4GENERATE@@IVCPoint@@@Z 10069d90 f   SolMouse.obj
 0001:00069150       ?ReSetToolID_SOL@CSolMouse@@QAEIIII@Z 1006a150 f   SolMouse.obj
 0001:00069620       ?ModeLessOff_SOL@CSolMouse@@QAEXXZ 1006a620 f   SolMouse.obj
 0001:00069670       ?ModeLessOn_SOL@CSolMouse@@QAEXXZ 1006a670 f   SolMouse.obj
 0001:00069810       ?CreateorActivateSolIn@CSolMouse@@QAEJIJ@Z 1006a810 f   SolMouse.obj
 0001:00069a00       ?ResetVuBasedVars_SolDlg@CSolMouse@@QAEXXZ 1006aa00 f   SolMouse.obj
 0001:00069ae0       ?GoodByeSolIn@CSolMouse@@QAEJIJ@Z 1006aae0 f   SolMouse.obj
 0001:00069b20       ?CancelSolIn@CSolMouse@@QAEJIJ@Z 1006ab20 f   SolMouse.obj
 0001:00069b60       ?UpdateSolIn@CSolMouse@@QAEJIJ@Z 1006ab60 f   SolMouse.obj
 0001:00069dd0       ?ProcessSolTwist_DUCT_SWEEP@CSolMouse@@IAEHXZ 1006add0 f   SolMouse.obj
 0001:00069ff0       ?ProcessSolScale_SWEEP@CSolMouse@@IAEHXZ 1006aff0 f   SolMouse.obj
 0001:0006a210       ?ProcessSolRotAxis@CSolMouse@@IAEHXZ 1006b210 f   SolMouse.obj
 0001:0006a620       ?UpdateSDlg_FALSE_EXTRUDE@CSolMouse@@IAEHXZ 1006b620 f   SolMouse.obj
 0001:0006ad00       ?UpdateSDlg_FALSE_ROTATE@CSolMouse@@IAEHXZ 1006bd00 f   SolMouse.obj
 0001:0006b6a0       ?UpdateSDlg_FALSE_LOFT@CSolMouse@@IAEHXZ 1006c6a0 f   SolMouse.obj
 0001:0006be90       ?UpdateSDlg_FALSE_TENSOR@CSolMouse@@IAEHXZ 1006ce90 f   SolMouse.obj
 0001:0006c710       ?UpdateSDlg_FALSE_GORDON@CSolMouse@@IAEHXZ 1006d710 f   SolMouse.obj
 0001:0006ceb0       ?UpdateSDlg_FALSE_COONS@CSolMouse@@IAEHXZ 1006deb0 f   SolMouse.obj
 0001:0006d370       ?UpdateSDlg_FALSE_DUCT@CSolMouse@@IAEHXZ 1006e370 f   SolMouse.obj
 0001:0006dea0       ?UpdateSDlg_FALSE_SWEEP@CSolMouse@@IAEHXZ 1006eea0 f   SolMouse.obj
 0001:0006eb90       ?Serialize@CSolMouse@@UAEXAAVCArchive@@@Z 1006fb90 f   SolMouse.obj
 0001:0006ebf0       ??0?$CList@W4PATCHLATCH@@W41@@@QAE@H@Z 1006fbf0 f i SolMouse.obj
 0001:0006ecd0       ?AddTail@?$CList@W4PATCHLATCH@@W41@@@QAEPAU__POSITION@@W4PATCHLATCH@@@Z 1006fcd0 f i SolMouse.obj
 0001:0006ed60       ?RemoveAll@?$CList@W4PATCHLATCH@@W41@@@QAEXXZ 1006fd60 f i SolMouse.obj
 0001:0006ee10       ??1?$CList@W4PATCHLATCH@@W41@@@UAE@XZ 1006fe10 f i SolMouse.obj
 0001:0006eeb0       ?Serialize@?$CList@W4PATCHLATCH@@W41@@@UAEXAAVCArchive@@@Z 1006feb0 f i SolMouse.obj
 0001:0006efd0       ?Dump@?$CList@W4PATCHLATCH@@W41@@@UBEXAAVCDumpContext@@@Z 1006ffd0 f i SolMouse.obj
 0001:0006f090       ?AssertValid@?$CList@W4PATCHLATCH@@W41@@@UBEXXZ 10070090 f i SolMouse.obj
 0001:0006f190       ??_E?$CList@W4PATCHLATCH@@W41@@@UAEPAXI@Z 10070190 f i SolMouse.obj
 0001:0006f190       ??_G?$CList@W4PATCHLATCH@@W41@@@UAEPAXI@Z 10070190 f i SolMouse.obj
 0001:0006f1d0       ?GetHeadPosition@?$CList@W4PATCHLATCH@@W41@@@QBEPAU__POSITION@@XZ 100701d0 f i SolMouse.obj
 0001:0006f1f0       ?GetNext@?$CList@W4PATCHLATCH@@W41@@@QAEAAW4PATCHLATCH@@AAPAU__POSITION@@@Z 100701f0 f i SolMouse.obj
 0001:0006f260       ?NewNode@?$CList@W4PATCHLATCH@@W41@@@IAEPAUCNode@1@PAU21@0@Z 10070260 f i SolMouse.obj
 0001:0006f3d0       ?DestructElements@@YGXPAW4PATCHLATCH@@H@Z 100703d0 f i SolMouse.obj
 0001:0006f450       ?SerializeElements@@YGXAAVCArchive@@PAW4PATCHLATCH@@H@Z 10070450 f i SolMouse.obj
 0001:0006f4f0       ?DumpElements@@YGXAAVCDumpContext@@PBW4PATCHLATCH@@H@Z 100704f0 f i SolMouse.obj
 0001:0006f550       ?ConstructElements@@YGXPAW4PATCHLATCH@@H@Z 10070550 f i SolMouse.obj
 0001:0006f600       ?CreateObject@CSpLMouse@@SGPAVCObject@@XZ 10070600 f   SpLmouse.obj
 0001:0006f6a0       ?_GetBaseClass@CSpLMouse@@KGPAUCRuntimeClass@@XZ 100706a0 f   SpLmouse.obj
 0001:0006f6c0       ?GetRuntimeClass@CSpLMouse@@UBEPAUCRuntimeClass@@XZ 100706c0 f   SpLmouse.obj
 0001:0006f730       ??5@YGAAVCArchive@@AAV0@AAPAVCSpLMouse@@@Z 10070730 f   SpLmouse.obj
 0001:0006f760       ??0CSpLMouse@@QAE@XZ       10070760 f   SpLmouse.obj
 0001:0006f790       ??_GCSpLMouse@@UAEPAXI@Z   10070790 f i SpLmouse.obj
 0001:0006f790       ??_ECSpLMouse@@UAEPAXI@Z   10070790 f i SpLmouse.obj
 0001:0006f7d0       ??1CSpLMouse@@UAE@XZ       100707d0 f   SpLmouse.obj
 0001:0006f800       ?Serialize@CSpLMouse@@UAEXAAVCArchive@@@Z 10070800 f   SpLmouse.obj
 0001:0006f860       ?CreateObject@CSupMouse@@SGPAVCObject@@XZ 10070860 f   Supmouse.obj
 0001:0006f900       ?_GetBaseClass@CSupMouse@@KGPAUCRuntimeClass@@XZ 10070900 f   Supmouse.obj
 0001:0006f920       ?GetRuntimeClass@CSupMouse@@UBEPAUCRuntimeClass@@XZ 10070920 f   Supmouse.obj
 0001:0006f990       ??5@YGAAVCArchive@@AAV0@AAPAVCSupMouse@@@Z 10070990 f   Supmouse.obj
 0001:0006f9c0       ??0CSupMouse@@QAE@XZ       100709c0 f   Supmouse.obj
 0001:0006fce0       ??_GCSupMouse@@UAEPAXI@Z   10070ce0 f i Supmouse.obj
 0001:0006fce0       ??_ECSupMouse@@UAEPAXI@Z   10070ce0 f i Supmouse.obj
 0001:0006fd20       ??0supportcard@@QAE@XZ     10070d20 f i Supmouse.obj
 0001:0006fdc0       ??1supportcard@@QAE@XZ     10070dc0 f i Supmouse.obj
 0001:0006fe60       ??1CSupMouse@@UAE@XZ       10070e60 f   Supmouse.obj
 0001:0006ffd0       ?InitDlgIn_SUP@CSupMouse@@QAEXXZ 10070fd0 f   Supmouse.obj
 0001:00070090       ?Init_SUP@CSupMouse@@IAEXXZ 10071090 f   Supmouse.obj
 0001:000706d0       ?GetSupInDlg@CSupMouse@@QAEPAVCDlg_SupI@@XZ 100716d0 f i Supmouse.obj
 0001:00070700       ?Terminate_SUP@CSupMouse@@IAEXH@Z 10071700 f   Supmouse.obj
 0001:00070870       ?ElementLeftDown_SUP@CSupMouse@@IAEXXZ 10071870 f   Supmouse.obj
 0001:000708c0       ?FillSupCard@CSupMouse@@IAEHAAUsupportcard@@PAVCString@@@Z 100718c0 f   Supmouse.obj
 0001:00070f90       ?ShowLinSupp@CSupMouse@@IAEHPAVCString@@@Z 10071f90 f   Supmouse.obj
 0001:00071190       ?ShowLinSupp_Node@CSupMouse@@IAEHPAVCString@@@Z 10072190 f   Supmouse.obj
 0001:000713e0       ??0supportcard@@QAE@ABU0@@Z 100723e0 f i Supmouse.obj
 0001:00071650       ??4supportcard@@QAEAAU0@ABU0@@Z 10072650 f i Supmouse.obj
 0001:000718e0       ?ShowLinSupp_Curve@CSupMouse@@IAEHPAVCString@@@Z 100728e0 f   Supmouse.obj
 0001:00071b70       ?ShowLinSupp_Patch@CSupMouse@@IAEHPAVCString@@@Z 10072b70 f   Supmouse.obj
 0001:00071e50       ?ShowLinSupp_Solid@CSupMouse@@IAEHPAVCString@@@Z 10072e50 f   Supmouse.obj
 0001:00071e70       ?OnEBoxLButtonDown_SUP@CSupMouse@@QAEXPAVCClientDC@@PAVCView@@W4GENERATE@@IVCPoint@@@Z 10072e70 f   Supmouse.obj
 0001:00072110       ?UpdateLinSupDlg_TRUE@CSupMouse@@IAEXXZ 10073110 f   Supmouse.obj
 0001:00072330       ?UpdateLinSupDlg_FALSE@CSupMouse@@IAEXXZ 10073330 f   Supmouse.obj
 0001:000728b0       ?LeftUp_Node_SupContext@CSupMouse@@IAEHVCPoint@@HHH@Z 100738b0 f   Supmouse.obj
 0001:00072b40       ?NewNode_N_Update_SUPContext@CSupMouse@@IAEHAAVCString@@VCPoint@@H@Z 10073b40 f   Supmouse.obj
 0001:00072fe0       ?OldNode_N_Update_SUPContext@CSupMouse@@IAEHHH@Z 10073fe0 f   Supmouse.obj
 0001:00073080       ?LeftUp_JC_X_FIXEDDIR_SUP@CSupMouse@@IAEHUtagPOINT@@@Z 10074080 f   Supmouse.obj
 0001:000731e0       ?LeftUp_JC_X_TAN_CURVE_SUP@CSupMouse@@IAEHUtagPOINT@@@Z 100741e0 f   Supmouse.obj
 0001:000732e0       ?LeftUp_JC_Z_NOR_PATCH_SUP@CSupMouse@@IAEHUtagPOINT@@@Z 100742e0 f   Supmouse.obj
 0001:000733e0       ?ShowInfo_NodeLinSupport@CSupMouse@@IAEHPAVCDrNode@@PADH@Z 100743e0 f   Supmouse.obj
 0001:00073590       ?ShowInfo_CurveLinSupport@CSupMouse@@IAEHPAVCDrCurve@@PADH@Z 10074590 f   Supmouse.obj
 0001:00073740       ?ShowInfo_PatchLinSupport@CSupMouse@@IAEHPAVCDrPatch@@PADH@Z 10074740 f   Supmouse.obj
 0001:000738f0       ?ShowInfo_SupCard@CSupMouse@@IAEHAAUsupportcard@@PADH@Z 100748f0 f   Supmouse.obj
 0001:000739c0       ?ShowInfo_Rigid@CSupMouse@@IAEHUsupportcard@@PADH@Z 100749c0 f   Supmouse.obj
 0001:00073a60       ?ShowInfo_SprOrSnu@CSupMouse@@IAEHUsupportcard@@PADH@Z 10074a60 f   Supmouse.obj
 0001:00074190       ?LeftUp_GetNodeLinSupp@CSupMouse@@IAEHVCPoint@@@Z 10075190 f   Supmouse.obj
 0001:00074220       ?LeftUp_Node_Accept_NodeBased@CSupMouse@@IAEHVCPoint@@H@Z 10075220 f   Supmouse.obj
 0001:00074920       ?Show_NodeBased_NodeInfo@CSupMouse@@IAEHPAVCDrNode@@@Z 10075920 f   Supmouse.obj
 0001:00074ec0       ?Show_CurveBased_CurveInfo@CSupMouse@@IAEHPAVCDrCurve@@@Z 10075ec0 f   Supmouse.obj
 0001:000753f0       ?LeftUp_GetCurveLinSupp@CSupMouse@@IAEHVCPoint@@@Z 100763f0 f   Supmouse.obj
 0001:00075490       ?LeftUp_Curve_Accept@CSupMouse@@IAEHVCPoint@@@Z 10076490 f   Supmouse.obj
 0001:000758f0       ?Show_PatchBased_PatchInfo@CSupMouse@@IAEHPAVCDrPatch@@@Z 100768f0 f   Supmouse.obj
 0001:00075e20       ?LeftUp_GetPatchLinSupp@CSupMouse@@IAEHVCPoint@@@Z 10076e20 f   Supmouse.obj
 0001:00075ec0       ?LeftUp_Patch_Accept@CSupMouse@@IAEHVCPoint@@@Z 10076ec0 f   Supmouse.obj
 0001:000762b0       ?ShowSolidInfo@CSupMouse@@IAEHPAVCDrSolid@@@Z 100772b0 f   Supmouse.obj
 0001:000767e0       ?ShowInfo_SolidLinSupport@CSupMouse@@IAEHPAVCDrSolid@@PADH@Z 100777e0 f   Supmouse.obj
 0001:00076820       ?LeftUp_SolidLinSupp@CSupMouse@@IAEHVCPoint@@@Z 10077820 f   Supmouse.obj
 0001:00076860       ?LeftUp_Solid_Accept@CSupMouse@@IAEHVCPoint@@@Z 10077860 f   Supmouse.obj
 0001:00076c50       ?LeftUp_LinSupp_NODE@CSupMouse@@IAEHUtagPOINT@@IW4JOINTCOORD@@@Z 10077c50 f   Supmouse.obj
 0001:00077110       ?LeftUp_LinSupp_CURVE@CSupMouse@@IAEHUtagPOINT@@IW4JOINTCOORD@@@Z 10078110 f   Supmouse.obj
 0001:000773c0       ?LeftUp_LinSupp_PATCH@CSupMouse@@IAEHUtagPOINT@@IW4JOINTCOORD@@@Z 100783c0 f   Supmouse.obj
 0001:00077620       ?ElementLeftUp_SUP@CSupMouse@@IAEXVCPoint@@@Z 10078620 f   Supmouse.obj
 0001:00077c90       ?OnEBoxMouseMove_SUP@CSupMouse@@QAEXPAVCClientDC@@PAVCView@@W4GENERATE@@IVCPoint@@@Z 10078c90 f   Supmouse.obj
 0001:00078150       ?OnEBoxLButtonUp_SUP@CSupMouse@@QAEXPAVCClientDC@@PAVCView@@W4GENERATE@@IVCPoint@@@Z 10079150 f   Supmouse.obj
 0001:00078260       ?OnEBoxRButtonDown_SUP@CSupMouse@@QAEXPAVCClientDC@@PAVCView@@W4GENERATE@@IVCPoint@@@Z 10079260 f   Supmouse.obj
 0001:000783c0       ?RightUp_SUPPORT_Error@CSupMouse@@IAEHXZ 100793c0 f   Supmouse.obj
 0001:00078410       ?RightUp_LinSup_Premature@CSupMouse@@IAEHXZ 10079410 f   Supmouse.obj
 0001:00078e00       ?RightUp_LinSup_NotAutoAccept@CSupMouse@@IAEHXZ 10079e00 f   Supmouse.obj
 0001:00079010       ?ShowAcceptInfo_Support@CSupMouse@@IAEHPADAAH@Z 1007a010 f   Supmouse.obj
 0001:000791f0       ?ShowAcceptInfo_NodeBased@CSupMouse@@IAEHPAVCDrNode@@PADAAH@Z 1007a1f0 f   Supmouse.obj
 0001:000792f0       ?ShowAcceptInfo_CurveBased@CSupMouse@@IAEHPAVCDrCurve@@PADAAH@Z 1007a2f0 f   Supmouse.obj
 0001:000793f0       ?ShowAcceptInfo_PatchBased@CSupMouse@@IAEHPAVCDrPatch@@PADAAH@Z 1007a3f0 f   Supmouse.obj
 0001:000794f0       ?ShowAcceptInfo_SolidBased@CSupMouse@@IAEHPAVCDrSolid@@PADAAH@Z 1007a4f0 f   Supmouse.obj
 0001:000795f0       ?OnEBoxRButtonUp_SUP@CSupMouse@@QAEXPAVCClientDC@@PAVCView@@W4GENERATE@@IVCPoint@@@Z 1007a5f0 f   Supmouse.obj
 0001:000797e0       ?ReSetToolID_SUP@CSupMouse@@QAEIIII@Z 1007a7e0 f   Supmouse.obj
 0001:0007a320       ?CurrentOperationString@CSupMouse@@IAEXIIAAVCString@@@Z 1007b320 f   Supmouse.obj
 0001:0007a500       ?ModeLessOff_SUP@CSupMouse@@QAEXXZ 1007b500 f   Supmouse.obj
 0001:0007a550       ?SetMainType_SUP@CSupMouse@@IAEXXZ 1007b550 f   Supmouse.obj
 0001:0007ab10       ?ModeLessOn_SUP@CSupMouse@@QAEXXZ 1007bb10 f   Supmouse.obj
 0001:0007ab60       ?CreateorActivateSupIn@CSupMouse@@QAEJIJ@Z 1007bb60 f   Supmouse.obj
 0001:0007b6a0       ?GetTx@CSupMouse@@QAEHXZ   1007c6a0 f i Supmouse.obj
 0001:0007b6d0       ?GetTy@CSupMouse@@QAEHXZ   1007c6d0 f i Supmouse.obj
 0001:0007b700       ?GetTz@CSupMouse@@QAEHXZ   1007c700 f i Supmouse.obj
 0001:0007b730       ?GetRx@CSupMouse@@QAEHXZ   1007c730 f i Supmouse.obj
 0001:0007b760       ?GetRy@CSupMouse@@QAEHXZ   1007c760 f i Supmouse.obj
 0001:0007b790       ?GetRz@CSupMouse@@QAEHXZ   1007c790 f i Supmouse.obj
 0001:0007b7c0       ?GetTxG@CSupMouse@@QAEHXZ  1007c7c0 f i Supmouse.obj
 0001:0007b7f0       ?GetTyG@CSupMouse@@QAEHXZ  1007c7f0 f i Supmouse.obj
 0001:0007b820       ?GetTzG@CSupMouse@@QAEHXZ  1007c820 f i Supmouse.obj
 0001:0007b850       ?GetRxG@CSupMouse@@QAEHXZ  1007c850 f i Supmouse.obj
 0001:0007b880       ?GetRyG@CSupMouse@@QAEHXZ  1007c880 f i Supmouse.obj
 0001:0007b8b0       ?GetRzG@CSupMouse@@QAEHXZ  1007c8b0 f i Supmouse.obj
 0001:0007b8e0       ?CancelSupIn@CSupMouse@@QAEJIJ@Z 1007c8e0 f   Supmouse.obj
 0001:0007b920       ?GoodByeSupIn@CSupMouse@@QAEJIJ@Z 1007c920 f   Supmouse.obj
 0001:0007b970       ?UpdateSupIn@CSupMouse@@QAEJIJ@Z 1007c970 f   Supmouse.obj
 0001:0007bc70       ?SetTx@CSupMouse@@QAEXH@Z  1007cc70 f i Supmouse.obj
 0001:0007bca0       ?SetTy@CSupMouse@@QAEXH@Z  1007cca0 f i Supmouse.obj
 0001:0007bcd0       ?SetTz@CSupMouse@@QAEXH@Z  1007ccd0 f i Supmouse.obj
 0001:0007bd00       ?SetRx@CSupMouse@@QAEXH@Z  1007cd00 f i Supmouse.obj
 0001:0007bd30       ?SetRy@CSupMouse@@QAEXH@Z  1007cd30 f i Supmouse.obj
 0001:0007bd60       ?SetRz@CSupMouse@@QAEXH@Z  1007cd60 f i Supmouse.obj
 0001:0007bd90       ?SetTxG@CSupMouse@@QAEXH@Z 1007cd90 f i Supmouse.obj
 0001:0007bdc0       ?SetTyG@CSupMouse@@QAEXH@Z 1007cdc0 f i Supmouse.obj
 0001:0007bdf0       ?SetTzG@CSupMouse@@QAEXH@Z 1007cdf0 f i Supmouse.obj
 0001:0007be20       ?SetRxG@CSupMouse@@QAEXH@Z 1007ce20 f i Supmouse.obj
 0001:0007be50       ?SetRyG@CSupMouse@@QAEXH@Z 1007ce50 f i Supmouse.obj
 0001:0007be80       ?SetRzG@CSupMouse@@QAEXH@Z 1007ce80 f i Supmouse.obj
 0001:0007beb0       ?SetSuppProc@CSupMouse@@QAEXW4SUPPPROC@@@Z 1007ceb0 f i Supmouse.obj
 0001:0007bef0       ?Serialize@CSupMouse@@UAEXAAVCArchive@@@Z 1007cef0 f   Supmouse.obj
 0001:0007bf50       ??0?$CList@Usupportcard@@U1@@@QAE@H@Z 1007cf50 f i Supmouse.obj
 0001:0007c030       ?GetTail@?$CList@Usupportcard@@U1@@@QAEAAUsupportcard@@XZ 1007d030 f i Supmouse.obj
 0001:0007c080       ?AddTail@?$CList@Usupportcard@@U1@@@QAEPAU__POSITION@@Usupportcard@@@Z 1007d080 f i Supmouse.obj
 0001:0007c160       ?RemoveAll@?$CList@Usupportcard@@U1@@@QAEXXZ 1007d160 f i Supmouse.obj
 0001:0007c210       ??1?$CList@Usupportcard@@U1@@@UAE@XZ 1007d210 f i Supmouse.obj
 0001:0007c2b0       ?Serialize@?$CList@Usupportcard@@U1@@@UAEXAAVCArchive@@@Z 1007d2b0 f i Supmouse.obj
 0001:0007c450       ?Dump@?$CList@Usupportcard@@U1@@@UBEXAAVCDumpContext@@@Z 1007d450 f i Supmouse.obj
 0001:0007c510       ?AssertValid@?$CList@Usupportcard@@U1@@@UBEXXZ 1007d510 f i Supmouse.obj
 0001:0007c620       ??_G?$CList@Usupportcard@@U1@@@UAEPAXI@Z 1007d620 f i Supmouse.obj
 0001:0007c620       ??_E?$CList@Usupportcard@@U1@@@UAEPAXI@Z 1007d620 f i Supmouse.obj
 0001:0007c660       ?GetHeadPosition@?$CList@Usupportcard@@U1@@@QBEPAU__POSITION@@XZ 1007d660 f i Supmouse.obj
 0001:0007c680       ?GetNext@?$CList@Usupportcard@@U1@@@QAEAAUsupportcard@@AAPAU__POSITION@@@Z 1007d680 f i Supmouse.obj
 0001:0007c700       ?NewNode@?$CList@Usupportcard@@U1@@@IAEPAUCNode@1@PAU21@0@Z 1007d700 f i Supmouse.obj
 0001:0007c880       ?DestructElements@@YGXPAUsupportcard@@H@Z 1007d880 f i Supmouse.obj
 0001:0007c910       ?SerializeElements@@YGXAAVCArchive@@PAUsupportcard@@H@Z 1007d910 f i Supmouse.obj
 0001:0007c9c0       ?DumpElements@@YGXAAVCDumpContext@@PBUsupportcard@@H@Z 1007d9c0 f i Supmouse.obj
 0001:0007ca20       ??_Gsupportcard@@QAEPAXI@Z 1007da20 f i Supmouse.obj
 0001:0007ca70       ?ConstructElements@@YGXPAUsupportcard@@H@Z 1007da70 f i Supmouse.obj
 0001:0007cb90       ??3@YAXPAX0@Z              1007db90 f i Supmouse.obj
 0001:0007cba4       ?SetObjInfoID@CObjectMgr@@QAEHAAVCString@@I@Z 1007dba4 f   OMgr_D32:OMgr_D32.dll
 0001:0007cbaa       ?GetSpecObject@CObjectMgr@@QAEPAVCDrObject@@H@Z 1007dbaa f   OMgr_D32:OMgr_D32.dll
 0001:0007cbb0       ?ShowObject_On_Off@CObjectMgr@@QAEHPAVCDrObject@@IH@Z 1007dbb0 f   OMgr_D32:OMgr_D32.dll
 0001:0007cbb6       ?GetNodeList_OtherContext@CObjectMgr@@QAEPAVCDListMgr@@HH@Z 1007dbb6 f   OMgr_D32:OMgr_D32.dll
 0001:0007cbbc       ?SetNodeInfoID@CObjectMgr@@QAEHAAVCString@@HI@Z 1007dbbc f   OMgr_D32:OMgr_D32.dll
 0001:0007cbc2       ?SetNodeInfoID@CObjectMgr@@QAEHAAVCString@@HH@Z 1007dbc2 f   OMgr_D32:OMgr_D32.dll
 0001:0007cbc8       ?UpdateAllViewsWithActiveIndex@CObjectMgr@@QAEXPAVCView@@IH@Z 1007dbc8 f   OMgr_D32:OMgr_D32.dll
 0001:0007cbce       ?GetObjectIndexfromKey@CObjectMgr@@QAEHHVCString@@I@Z 1007dbce f   OMgr_D32:OMgr_D32.dll
 0001:0007cbd4       ?GetRuntimeClass@CMatObj@@UBEPAUCRuntimeClass@@XZ 1007dbd4 f   Spec_d32:Spec_D32.dll
 0001:0007cbda       ?SetScreen3DCorner@CDrObject@@UAEXPAUWORLD@@H@Z 1007dbda f   Spec_d32:Spec_D32.dll
 0001:0007cbe0       ?GetScreen3DCorner@CDrObject@@UAEXPAUWORLD@@H@Z 1007dbe0 f   Spec_d32:Spec_D32.dll
 0001:0007cbe6       ?SetEyeCorner@CDrObject@@UAEXPAUWORLD@@H@Z 1007dbe6 f   Spec_d32:Spec_D32.dll
 0001:0007cbec       ?GetEyeCorner@CDrObject@@UAEXPAUWORLD@@H@Z 1007dbec f   Spec_d32:Spec_D32.dll
 0001:0007cbf2       ?SetWorldCorner@CDrObject@@UAEXPAUWORLD@@H@Z 1007dbf2 f   Spec_d32:Spec_D32.dll
 0001:0007cbf8       ?GetWorldCorner@CDrObject@@UAEXPAUWORLD@@H@Z 1007dbf8 f   Spec_d32:Spec_D32.dll
 0001:0007cbfe       ?SetLocalCorner@CDrObject@@UAEXPAUWORLD@@H@Z 1007dbfe f   Spec_d32:Spec_D32.dll
 0001:0007cc04       ?GetLocalCorner@CDrObject@@UAEXPAUWORLD@@H@Z 1007dc04 f   Spec_d32:Spec_D32.dll
 0001:0007cc0a       ??1CDrObject@@UAE@XZ       1007dc0a f   Spec_d32:Spec_D32.dll
 0001:0007cc10       ?InitBooleans@CBooleans@@UAEXXZ 1007dc10 f   Spec_d32:Spec_D32.dll
 0001:0007cc16       ?ReadDefaultBooleans@CBooleans@@UAEXXZ 1007dc16 f   Spec_d32:Spec_D32.dll
 0001:0007cc1c       ?ToggleZoom@CBooleans@@UAEHHH@Z 1007dc1c f   Spec_d32:Spec_D32.dll
 0001:0007cc22       ?IsZoomOn@CBooleans@@UAEHHH@Z 1007dc22 f   Spec_d32:Spec_D32.dll
 0001:0007cc28       ?SetZoomEnabled@CBooleans@@UAEXHH@Z 1007dc28 f   Spec_d32:Spec_D32.dll
 0001:0007cc2e       ?IsZoomEnabled@CBooleans@@UAEHH@Z 1007dc2e f   Spec_d32:Spec_D32.dll
 0001:0007cc34       ?SetObjectInfo@CBooleans@@UAEXPAVCDrObject@@@Z 1007dc34 f   Spec_d32:Spec_D32.dll
 0001:0007cc3a       ?GetObjectInfo@CBooleans@@UAEXPAVCDrObject@@@Z 1007dc3a f   Spec_d32:Spec_D32.dll
 0001:0007cc40       ?Pack_drPipe@CBooleans@@UAEXPAVCString@@@Z 1007dc40 f   Spec_d32:Spec_D32.dll
 0001:0007cc46       ?DoDataView@CBooleans@@UAEXPAVCDC@@H@Z 1007dc46 f   Spec_d32:Spec_D32.dll
 0001:0007cc4c       ?Serialize@CBooleans@@UAEXAAVCArchive@@@Z 1007dc4c f   Spec_d32:Spec_D32.dll
 0001:0007cc52       ?GetRuntimeClass@CBooleans@@UBEPAUCRuntimeClass@@XZ 1007dc52 f   Spec_d32:Spec_D32.dll
 0001:0007cc58       ?InitDataWindow@CDataWindow@@UAEXXZ 1007dc58 f   Spec_d32:Spec_D32.dll
 0001:0007cc5e       ?ReadDefaultDataWindow@CDataWindow@@UAEXXZ 1007dc5e f   Spec_d32:Spec_D32.dll
 0001:0007cc64       ?SetWinExtWIC@CDataWindow@@UAEXXZ 1007dc64 f   Spec_d32:Spec_D32.dll
 0001:0007cc6a       ?SetWinMinMaxWIC@CDataWindow@@UAEXULPOINT3@@@Z 1007dc6a f   Spec_d32:Spec_D32.dll
 0001:0007cc70       ?SetObjectInfo@CDataWindow@@UAEXPAVCDrObject@@@Z 1007dc70 f   Spec_d32:Spec_D32.dll
 0001:0007cc76       ?GetObjectInfo@CDataWindow@@UAEXPAVCDrObject@@@Z 1007dc76 f   Spec_d32:Spec_D32.dll
 0001:0007cc7c       ?Pack_drPipe@CDataWindow@@UAEXPAVCString@@@Z 1007dc7c f   Spec_d32:Spec_D32.dll
 0001:0007cc82       ?DoDataView@CDataWindow@@UAEXPAVCDC@@H@Z 1007dc82 f   Spec_d32:Spec_D32.dll
 0001:0007cc88       ?Serialize@CDataWindow@@UAEXAAVCArchive@@@Z 1007dc88 f   Spec_d32:Spec_D32.dll
 0001:0007cc8e       ?GetRuntimeClass@CDataWindow@@UBEPAUCRuntimeClass@@XZ 1007dc8e f   Spec_d32:Spec_D32.dll
 0001:0007cc94       ?InitDrFont@CDrFont@@UAEXXZ 1007dc94 f   Spec_d32:Spec_D32.dll
 0001:0007cc9a       ?ReadDefaultDrFont@CDrFont@@UAEXXZ 1007dc9a f   Spec_d32:Spec_D32.dll
 0001:0007cca0       ?DoTextFont@CDrFont@@UAEXXZ 1007dca0 f   Spec_d32:Spec_D32.dll
 0001:0007cca6       ?SetObjectInfo@CDrFont@@UAEXPAVCDrObject@@@Z 1007dca6 f   Spec_d32:Spec_D32.dll
 0001:0007ccac       ?GetObjectInfo@CDrFont@@UAEXPAVCDrObject@@@Z 1007dcac f   Spec_d32:Spec_D32.dll
 0001:0007ccb2       ?Pack_drPipe@CDrFont@@UAEXPAVCString@@@Z 1007dcb2 f   Spec_d32:Spec_D32.dll
 0001:0007ccb8       ?DoDataView@CDrFont@@UAEXPAVCDC@@H@Z 1007dcb8 f   Spec_d32:Spec_D32.dll
 0001:0007ccbe       ?Serialize@CDrFont@@UAEXAAVCArchive@@@Z 1007dcbe f   Spec_d32:Spec_D32.dll
 0001:0007ccc4       ?GetRuntimeClass@CDrFont@@UBEPAUCRuntimeClass@@XZ 1007dcc4 f   Spec_d32:Spec_D32.dll
 0001:0007ccca       ?InitDrPen@CDrPen@@UAEXXZ  1007dcca f   Spec_d32:Spec_D32.dll
 0001:0007ccd0       ?ReadDefaultDrPen@CDrPen@@UAEXXZ 1007dcd0 f   Spec_d32:Spec_D32.dll
 0001:0007ccd6       ?ReplacePen@CDrPen@@UAEXXZ 1007dcd6 f   Spec_d32:Spec_D32.dll
 0001:0007ccdc       ?SetObjectInfo@CDrPen@@UAEXPAVCDrObject@@@Z 1007dcdc f   Spec_d32:Spec_D32.dll
 0001:0007cce2       ?GetObjectInfo@CDrPen@@UAEXPAVCDrObject@@@Z 1007dce2 f   Spec_d32:Spec_D32.dll
 0001:0007cce8       ?Pack_drPipe@CDrPen@@UAEXPAVCString@@@Z 1007dce8 f   Spec_d32:Spec_D32.dll
 0001:0007ccee       ?DoDataView@CDrPen@@UAEXPAVCDC@@H@Z 1007dcee f   Spec_d32:Spec_D32.dll
 0001:0007ccf4       ?Serialize@CDrPen@@UAEXAAVCArchive@@@Z 1007dcf4 f   Spec_d32:Spec_D32.dll
 0001:0007ccfa       ?GetRuntimeClass@CDrPen@@UBEPAUCRuntimeClass@@XZ 1007dcfa f   Spec_d32:Spec_D32.dll
 0001:0007cd00       ?SetObjectInfo@CHitNet@@UAEXPAVCDrObject@@@Z 1007dd00 f   Spec_d32:Spec_D32.dll
 0001:0007cd06       ?GetObjectInfo@CHitNet@@UAEXPAVCDrObject@@@Z 1007dd06 f   Spec_d32:Spec_D32.dll
 0001:0007cd0c       ?Pack_drPipe@CHitNet@@UAEXPAVCString@@@Z 1007dd0c f   Spec_d32:Spec_D32.dll
 0001:0007cd12       ?DoDataView@CHitNet@@UAEXPAVCDC@@H@Z 1007dd12 f   Spec_d32:Spec_D32.dll
 0001:0007cd18       ?Serialize@CHitNet@@UAEXAAVCArchive@@@Z 1007dd18 f   Spec_d32:Spec_D32.dll
 0001:0007cd1e       ?GetRuntimeClass@CHitNet@@UBEPAUCRuntimeClass@@XZ 1007dd1e f   Spec_d32:Spec_D32.dll
 0001:0007cd24       ?InitLayer@CLayer@@UAEXXZ  1007dd24 f   Spec_d32:Spec_D32.dll
 0001:0007cd2a       ?ReadDefaultLayer@CLayer@@UAEXXZ 1007dd2a f   Spec_d32:Spec_D32.dll
 0001:0007cd30       ?SetLayerDefaultArray@CLayer@@UAEXQAY01I@Z 1007dd30 f   Spec_d32:Spec_D32.dll
 0001:0007cd36       ?GetLayerDefaultArray@CLayer@@UAEXQAY01I@Z 1007dd36 f   Spec_d32:Spec_D32.dll
 0001:0007cd3c       ?SetLayerOldArray@CLayer@@UAEXQAY01I@Z 1007dd3c f   Spec_d32:Spec_D32.dll
 0001:0007cd42       ?GetLayerOldArray@CLayer@@UAEXQAY01I@Z 1007dd42 f   Spec_d32:Spec_D32.dll
 0001:0007cd48       ?SetLayerArray@CLayer@@UAEXQAY01I@Z 1007dd48 f   Spec_d32:Spec_D32.dll
 0001:0007cd4e       ?GetLayerArray@CLayer@@UAEXQAY01I@Z 1007dd4e f   Spec_d32:Spec_D32.dll
 0001:0007cd54       ?SetLayerInfo@CLayer@@UAEXII@Z 1007dd54 f   Spec_d32:Spec_D32.dll
 0001:0007cd5a       ?GetLayerInfo@CLayer@@UAE?AVCString@@I@Z 1007dd5a f   Spec_d32:Spec_D32.dll
 0001:0007cd60       ?SetObjectInfo@CLayer@@UAEXPAVCDrObject@@@Z 1007dd60 f   Spec_d32:Spec_D32.dll
 0001:0007cd66       ?GetObjectInfo@CLayer@@UAEXPAVCDrObject@@@Z 1007dd66 f   Spec_d32:Spec_D32.dll
 0001:0007cd6c       ?Pack_drPipe@CLayer@@UAEXPAVCString@@@Z 1007dd6c f   Spec_d32:Spec_D32.dll
 0001:0007cd72       ?DoDataView@CLayer@@UAEXPAVCDC@@H@Z 1007dd72 f   Spec_d32:Spec_D32.dll
 0001:0007cd78       ?Serialize@CLayer@@UAEXAAVCArchive@@@Z 1007dd78 f   Spec_d32:Spec_D32.dll
 0001:0007cd7e       ?GetRuntimeClass@CLayer@@UBEPAUCRuntimeClass@@XZ 1007dd7e f   Spec_d32:Spec_D32.dll
 0001:0007cd84       ?InitPatchMnu@CPatchMnu@@UAEXXZ 1007dd84 f   Spec_d32:Spec_D32.dll
 0001:0007cd8a       ?ReadDefaultPatchMnu@CPatchMnu@@UAEXXZ 1007dd8a f   Spec_d32:Spec_D32.dll
 0001:0007cd90       ?SetPatchMnuDefaultArray@CPatchMnu@@UAEXQAY01I@Z 1007dd90 f   Spec_d32:Spec_D32.dll
 0001:0007cd96       ?GetPatchMnuDefaultArray@CPatchMnu@@UAEXQAY01I@Z 1007dd96 f   Spec_d32:Spec_D32.dll
 0001:0007cd9c       ?SetPatchMnuOldArray@CPatchMnu@@UAEXQAY01I@Z 1007dd9c f   Spec_d32:Spec_D32.dll
 0001:0007cda2       ?GetPatchMnuOldArray@CPatchMnu@@UAEXQAY01I@Z 1007dda2 f   Spec_d32:Spec_D32.dll
 0001:0007cda8       ?SetPatchMnuArray@CPatchMnu@@UAEXQAY01I@Z 1007dda8 f   Spec_d32:Spec_D32.dll
 0001:0007cdae       ?GetPatchMnuArray@CPatchMnu@@UAEXQAY01I@Z 1007ddae f   Spec_d32:Spec_D32.dll
 0001:0007cdb4       ?SetPatchMnuIDArray@CPatchMnu@@UAEXQAVCString@@@Z 1007ddb4 f   Spec_d32:Spec_D32.dll
 0001:0007cdba       ?GetPatchMnuIDArray@CPatchMnu@@UAEXQAVCString@@@Z 1007ddba f   Spec_d32:Spec_D32.dll
 0001:0007cdc0       ?SetPatchMnuInfo@CPatchMnu@@UAEXII@Z 1007ddc0 f   Spec_d32:Spec_D32.dll
 0001:0007cdc6       ?GetPatchMnuInfo@CPatchMnu@@UAE?AVCString@@I@Z 1007ddc6 f   Spec_d32:Spec_D32.dll
 0001:0007cdcc       ?SetObjectInfo@CPatchMnu@@UAEXPAVCDrObject@@@Z 1007ddcc f   Spec_d32:Spec_D32.dll
 0001:0007cdd2       ?GetObjectInfo@CPatchMnu@@UAEXPAVCDrObject@@@Z 1007ddd2 f   Spec_d32:Spec_D32.dll
 0001:0007cdd8       ?Pack_drPipe@CPatchMnu@@UAEXPAVCString@@@Z 1007ddd8 f   Spec_d32:Spec_D32.dll
 0001:0007cdde       ?DoDataView@CPatchMnu@@UAEXPAVCDC@@H@Z 1007ddde f   Spec_d32:Spec_D32.dll
 0001:0007cde4       ?Serialize@CPatchMnu@@UAEXAAVCArchive@@@Z 1007dde4 f   Spec_d32:Spec_D32.dll
 0001:0007cdea       ?GetRuntimeClass@CPatchMnu@@UBEPAUCRuntimeClass@@XZ 1007ddea f   Spec_d32:Spec_D32.dll
 0001:0007cdf0       ?InitObj3DMnu@CObj3DMnu@@UAEXXZ 1007ddf0 f   Spec_d32:Spec_D32.dll
 0001:0007cdf6       ?ReadDefaultObj3DMnu@CObj3DMnu@@UAEXXZ 1007ddf6 f   Spec_d32:Spec_D32.dll
 0001:0007cdfc       ?SetObj3DMnuDefaultArray@CObj3DMnu@@UAEXQAY01I@Z 1007ddfc f   Spec_d32:Spec_D32.dll
 0001:0007ce02       ?GetObj3DMnuDefaultArray@CObj3DMnu@@UAEXQAY01I@Z 1007de02 f   Spec_d32:Spec_D32.dll
 0001:0007ce08       ?SetObj3DMnuOldArray@CObj3DMnu@@UAEXQAY01I@Z 1007de08 f   Spec_d32:Spec_D32.dll
 0001:0007ce0e       ?GetObj3DMnuOldArray@CObj3DMnu@@UAEXQAY01I@Z 1007de0e f   Spec_d32:Spec_D32.dll
 0001:0007ce14       ?SetObj3DMnuArray@CObj3DMnu@@UAEXQAY01I@Z 1007de14 f   Spec_d32:Spec_D32.dll
 0001:0007ce1a       ?GetObj3DMnuArray@CObj3DMnu@@UAEXQAY01I@Z 1007de1a f   Spec_d32:Spec_D32.dll
 0001:0007ce20       ?SetObj3DMnuIDArray@CObj3DMnu@@UAEXQAVCString@@@Z 1007de20 f   Spec_d32:Spec_D32.dll
 0001:0007ce26       ?GetObj3DMnuIDArray@CObj3DMnu@@UAEXQAVCString@@@Z 1007de26 f   Spec_d32:Spec_D32.dll
 0001:0007ce2c       ?SetObj3DMnuInfo@CObj3DMnu@@UAEXII@Z 1007de2c f   Spec_d32:Spec_D32.dll
 0001:0007ce32       ?GetObj3DMnuInfo@CObj3DMnu@@UAE?AVCString@@I@Z 1007de32 f   Spec_d32:Spec_D32.dll
 0001:0007ce38       ?SetObjectInfo@CObj3DMnu@@UAEXPAVCDrObject@@@Z 1007de38 f   Spec_d32:Spec_D32.dll
 0001:0007ce3e       ?GetObjectInfo@CObj3DMnu@@UAEXPAVCDrObject@@@Z 1007de3e f   Spec_d32:Spec_D32.dll
 0001:0007ce44       ?Pack_drPipe@CObj3DMnu@@UAEXPAVCString@@@Z 1007de44 f   Spec_d32:Spec_D32.dll
 0001:0007ce4a       ?DoDataView@CObj3DMnu@@UAEXPAVCDC@@H@Z 1007de4a f   Spec_d32:Spec_D32.dll
 0001:0007ce50       ?Serialize@CObj3DMnu@@UAEXAAVCArchive@@@Z 1007de50 f   Spec_d32:Spec_D32.dll
 0001:0007ce56       ?GetRuntimeClass@CObj3DMnu@@UBEPAUCRuntimeClass@@XZ 1007de56 f   Spec_d32:Spec_D32.dll
 0001:0007ce5c       ?InitMapFactor@CMapFactor@@UAEXXZ 1007de5c f   Spec_d32:Spec_D32.dll
 0001:0007ce62       ?ReadDefaultMapFactor@CMapFactor@@UAEXXZ 1007de62 f   Spec_d32:Spec_D32.dll
 0001:0007ce68       ?SetObjectInfo@CMapFactor@@UAEXPAVCDrObject@@@Z 1007de68 f   Spec_d32:Spec_D32.dll
 0001:0007ce6e       ?GetObjectInfo@CMapFactor@@UAEXPAVCDrObject@@@Z 1007de6e f   Spec_d32:Spec_D32.dll
 0001:0007ce74       ?Pack_drPipe@CMapFactor@@UAEXPAVCString@@@Z 1007de74 f   Spec_d32:Spec_D32.dll
 0001:0007ce7a       ?DoDataView@CMapFactor@@UAEXPAVCDC@@H@Z 1007de7a f   Spec_d32:Spec_D32.dll
 0001:0007ce80       ?Serialize@CMapFactor@@UAEXAAVCArchive@@@Z 1007de80 f   Spec_d32:Spec_D32.dll
 0001:0007ce86       ?GetRuntimeClass@CMapFactor@@UBEPAUCRuntimeClass@@XZ 1007de86 f   Spec_d32:Spec_D32.dll
 0001:0007ce8c       ?InitPrecision@CPrecision@@UAEXXZ 1007de8c f   Spec_d32:Spec_D32.dll
 0001:0007ce92       ?ReadDefaultPrecision@CPrecision@@UAEXXZ 1007de92 f   Spec_d32:Spec_D32.dll
 0001:0007ce98       ?SetObjectInfo@CPrecision@@UAEXPAVCDrObject@@@Z 1007de98 f   Spec_d32:Spec_D32.dll
 0001:0007ce9e       ?GetObjectInfo@CPrecision@@UAEXPAVCDrObject@@@Z 1007de9e f   Spec_d32:Spec_D32.dll
 0001:0007cea4       ?Pack_drPipe@CPrecision@@UAEXPAVCString@@@Z 1007dea4 f   Spec_d32:Spec_D32.dll
 0001:0007ceaa       ?DoDataView@CPrecision@@UAEXPAVCDC@@H@Z 1007deaa f   Spec_d32:Spec_D32.dll
 0001:0007ceb0       ?Serialize@CPrecision@@UAEXAAVCArchive@@@Z 1007deb0 f   Spec_d32:Spec_D32.dll
 0001:0007ceb6       ?GetRuntimeClass@CPrecision@@UBEPAUCRuntimeClass@@XZ 1007deb6 f   Spec_d32:Spec_D32.dll
 0001:0007cebc       ?InitScaleFactor@CScaleFactor@@UAEXXZ 1007debc f   Spec_d32:Spec_D32.dll
 0001:0007cec2       ?ReadDefaultScaleFactor@CScaleFactor@@UAEXXZ 1007dec2 f   Spec_d32:Spec_D32.dll
 0001:0007cec8       ?SetObjectInfo@CScaleFactor@@UAEXPAVCDrObject@@@Z 1007dec8 f   Spec_d32:Spec_D32.dll
 0001:0007cece       ?GetObjectInfo@CScaleFactor@@UAEXPAVCDrObject@@@Z 1007dece f   Spec_d32:Spec_D32.dll
 0001:0007ced4       ?Pack_drPipe@CScaleFactor@@UAEXPAVCString@@@Z 1007ded4 f   Spec_d32:Spec_D32.dll
 0001:0007ceda       ?DoDataView@CScaleFactor@@UAEXPAVCDC@@H@Z 1007deda f   Spec_d32:Spec_D32.dll
 0001:0007cee0       ?Serialize@CScaleFactor@@UAEXAAVCArchive@@@Z 1007dee0 f   Spec_d32:Spec_D32.dll
 0001:0007cee6       ?GetRuntimeClass@CScaleFactor@@UBEPAUCRuntimeClass@@XZ 1007dee6 f   Spec_d32:Spec_D32.dll
 0001:0007ceec       ?InitUnit@CUnit@@UAEXXZ    1007deec f   Spec_d32:Spec_D32.dll
 0001:0007cef2       ?ReadDefaultUnit@CUnit@@UAEXXZ 1007def2 f   Spec_d32:Spec_D32.dll
 0001:0007cef8       ?SetObjectInfo@CUnit@@UAEXPAVCDrObject@@@Z 1007def8 f   Spec_d32:Spec_D32.dll
 0001:0007cefe       ?GetObjectInfo@CUnit@@UAEXPAVCDrObject@@@Z 1007defe f   Spec_d32:Spec_D32.dll
 0001:0007cf04       ?Pack_drPipe@CUnit@@UAEXPAVCString@@@Z 1007df04 f   Spec_d32:Spec_D32.dll
 0001:0007cf0a       ?DoDataView@CUnit@@UAEXPAVCDC@@H@Z 1007df0a f   Spec_d32:Spec_D32.dll
 0001:0007cf10       ?Serialize@CUnit@@UAEXAAVCArchive@@@Z 1007df10 f   Spec_d32:Spec_D32.dll
 0001:0007cf16       ?GetRuntimeClass@CUnit@@UBEPAUCRuntimeClass@@XZ 1007df16 f   Spec_d32:Spec_D32.dll
 0001:0007cf1c       ??1CDListMgr@@UAE@XZ       1007df1c f   Spec_d32:Spec_D32.dll
 0001:0007cf22       ??0CDListMgr@@QAE@XZ       1007df22 f   Spec_d32:Spec_D32.dll
 0001:0007cf28       ?GetObjectIndex@CDListMgr@@QAEHIVCString@@@Z 1007df28 f   Spec_d32:Spec_D32.dll
 0001:0007cf2e       ?InsertObject@CDListMgr@@QAEHPAVCObject@@@Z 1007df2e f   Spec_d32:Spec_D32.dll
 0001:0007cf34       ?GetObjectIndex@CDListMgr@@QAEHPAVCObject@@@Z 1007df34 f   Spec_d32:Spec_D32.dll
 0001:0007cf3a       ?GetObjectA@CDListMgr@@QAEPAVCObject@@H@Z 1007df3a f   Spec_d32:Spec_D32.dll
 0001:0007cf40       ?GetNextObject@CDListMgr@@QAEPAVCObject@@AAPAU__POSITION@@@Z 1007df40 f   Spec_d32:Spec_D32.dll
 0001:0007cf46       ?GetFirstObjectPos@CDListMgr@@QAEPAU__POSITION@@XZ 1007df46 f   Spec_d32:Spec_D32.dll
 0001:0007cf4c       ?GetSpecificObjectCount@CDListMgr@@QAEHH@Z 1007df4c f   Spec_d32:Spec_D32.dll
 0001:0007cf52       ?SetCorner@CDrLabel@@UAEXUtagPOINT@@H@Z 1007df52 f   Draw_D32:Draw_D32.dll
 0001:0007cf58       ?GetCorner@CDrLabel@@UAE?AUtagPOINT@@H@Z 1007df58 f   Draw_D32:Draw_D32.dll
 0001:0007cf5e       ?GetObjectInfo@CDrLabel@@UAEXPAVCDrObject@@@Z 1007df5e f   Draw_D32:Draw_D32.dll
 0001:0007cf64       ?SetObjectInfo@CDrLabel@@UAEXPAVCDrObject@@@Z 1007df64 f   Draw_D32:Draw_D32.dll
 0001:0007cf6a       ?Pack_drPipe@CDrLabel@@UAEXPAVCString@@@Z 1007df6a f   Draw_D32:Draw_D32.dll
 0001:0007cf70       ?IsKeyMatch@CDrLabel@@UAEHPAVCDrObject@@VCString@@I@Z 1007df70 f   Draw_D32:Draw_D32.dll
 0001:0007cf76       ?IsObjectHit@CDrLabel@@UAEHPAVCClientDC@@HUtagPOINT@@PAVCRect@@H@Z 1007df76 f   Draw_D32:Draw_D32.dll
 0001:0007cf7c       ?GetRawCoords@CDrLabel@@UAEXPAJPAHH@Z 1007df7c f   Draw_D32:Draw_D32.dll
 0001:0007cf82       ?FinishObject@CDrLabel@@UAEXPAVCClientDC@@H@Z 1007df82 f   Draw_D32:Draw_D32.dll
 0001:0007cf88       ?DealObjectDialog@CDrLabel@@UAEHXZ 1007df88 f   Draw_D32:Draw_D32.dll
 0001:0007cf8e       ?DoDrawView@CDrLabel@@UAEXPAVCDC@@HH@Z 1007df8e f   Draw_D32:Draw_D32.dll
 0001:0007cf94       ?Corner_3Dto2D@CDrLabel@@UAEXXZ 1007df94 f   Draw_D32:Draw_D32.dll
 0001:0007cf9a       ?InitDraw@CDrLabel@@UAEXPAVCDC@@HHPAUMATRIX@@1NNN@Z 1007df9a f   Draw_D32:Draw_D32.dll
 0001:0007cfa0       ?DoDataView@CDrLabel@@UAEXPAVCDC@@H@Z 1007dfa0 f   Draw_D32:Draw_D32.dll
 0001:0007cfa6       ?Serialize@CDrLabel@@UAEXAAVCArchive@@@Z 1007dfa6 f   Draw_D32:Draw_D32.dll
 0001:0007cfac       ?GetRuntimeClass@CDrLabel@@UBEPAUCRuntimeClass@@XZ 1007dfac f   Draw_D32:Draw_D32.dll
 0001:0007cfb2       ?AddPoint@CDrFreeHand@@UAEXVCPoint@@@Z 1007dfb2 f   Draw_D32:Draw_D32.dll
 0001:0007cfb8       ?IsObjectHit@CDrFreeHand@@UAEHPAVCDrObject@@PAVCClientDC@@HUtagPOINT@@PAUtagRECT@@H@Z 1007dfb8 f   Draw_D32:Draw_D32.dll
 0001:0007cfbe       ?GetObjectInfo@CDrFreeHand@@UAEXPAVCDrObject@@@Z 1007dfbe f   Draw_D32:Draw_D32.dll
 0001:0007cfc4       ?SetObjectInfo@CDrFreeHand@@UAEXPAVCDrObject@@@Z 1007dfc4 f   Draw_D32:Draw_D32.dll
 0001:0007cfca       ?Pack_drPipe@CDrFreeHand@@UAEXPAVCString@@@Z 1007dfca f   Draw_D32:Draw_D32.dll
 0001:0007cfd0       ?IsKeyMatch@CDrFreeHand@@UAEHPAVCDrObject@@VCString@@I@Z 1007dfd0 f   Draw_D32:Draw_D32.dll
 0001:0007cfd6       ?FinishObject@CDrFreeHand@@UAEXH@Z 1007dfd6 f   Draw_D32:Draw_D32.dll
 0001:0007cfdc       ?DealObjectDialog@CDrFreeHand@@UAEHXZ 1007dfdc f   Draw_D32:Draw_D32.dll
 0001:0007cfe2       ?DoDrawView@CDrFreeHand@@UAEXPAVCDC@@HH@Z 1007dfe2 f   Draw_D32:Draw_D32.dll
 0001:0007cfe8       ?InitDraw@CDrFreeHand@@UAEXPAVCDC@@HHPAUMATRIX@@1NNN@Z 1007dfe8 f   Draw_D32:Draw_D32.dll
 0001:0007cfee       ?DoDataView@CDrFreeHand@@UAEXPAVCDC@@H@Z 1007dfee f   Draw_D32:Draw_D32.dll
 0001:0007cff4       ?Serialize@CDrFreeHand@@UAEXAAVCArchive@@@Z 1007dff4 f   Draw_D32:Draw_D32.dll
 0001:0007cffa       ?GetRuntimeClass@CDrFreeHand@@UBEPAUCRuntimeClass@@XZ 1007dffa f   Draw_D32:Draw_D32.dll
 0001:0007d000       ?Init@CElemInfo@@UAEXXZ    1007e000 f   Elem_D32:Elem_D32.dll
 0001:0007d006       ?ReadDefault@CElemInfo@@UAEXXZ 1007e006 f   Elem_D32:Elem_D32.dll
 0001:0007d00c       ?SetObjectInfo@CElemInfo@@UAEXPAVCDrObject@@@Z 1007e00c f   Elem_D32:Elem_D32.dll
 0001:0007d012       ?GetObjectInfo@CElemInfo@@UAEXPAVCDrObject@@@Z 1007e012 f   Elem_D32:Elem_D32.dll
 0001:0007d018       ?Pack_drPipe@CElemInfo@@UAEXPAVCString@@@Z 1007e018 f   Elem_D32:Elem_D32.dll
 0001:0007d01e       ?DoDataView@CElemInfo@@UAEXPAVCDC@@H@Z 1007e01e f   Elem_D32:Elem_D32.dll
 0001:0007d024       ?Serialize@CElemInfo@@UAEXAAVCArchive@@@Z 1007e024 f   Elem_D32:Elem_D32.dll
 0001:0007d02a       ?GetRuntimeClass@CElemInfo@@UBEPAUCRuntimeClass@@XZ 1007e02a f   Elem_D32:Elem_D32.dll
 0001:0007d030       ?GetRuntimeClass@CTriangle@@UBEPAUCRuntimeClass@@XZ 1007e030 f   OGen_D32:OGEN_D32.dll
 0001:0007d036       ??0CDrCurve@@QAE@XZ        1007e036 f   OGen_D32:OGEN_D32.dll
 0001:0007d03c       ?DoModal_Label_Edit@CDDlgMgr@@QAEIH@Z 1007e03c f   DDlg_D32:DDlg_D32.dll
 0001:0007d042       ?DoModal_Label_Insert@CDDlgMgr@@QAEIHUtagPOINT@@@Z 1007e042 f   DDlg_D32:DDlg_D32.dll
 0001:0007d048       ?DoModal_Grid_Insert@CDDlgMgr@@QAEIXZ 1007e048 f   DDlg_D32:DDlg_D32.dll
 0001:0007d04e       ?Serialize@C3DMath@@UAEXAAVCArchive@@@Z 1007e04e f   Dr3D_D32:Dr3D_D32.dll
 0001:0007d054       ?GetRuntimeClass@C3DMath@@UBEPAUCRuntimeClass@@XZ 1007e054 f   Dr3D_D32:Dr3D_D32.dll
 0001:0007d05a       ?BlockCopy@C3DMath@@QAEXPAD0K@Z 1007e05a f   Dr3D_D32:Dr3D_D32.dll
 0001:0007d060       ??0C3DMath@@QAE@XZ         1007e060 f   Dr3D_D32:Dr3D_D32.dll
 0001:0007d066       ?Project@CXForm@@UAEXPAUMATRIX@@PAUWORLD@@1@Z 1007e066 f   Dr3D_D32:Dr3D_D32.dll
 0001:0007d06c       ?ComposeWin3DtoScreen3DMATRIX@CXForm@@UAEXPAUMATRIX@@UWORLD@@1@Z 1007e06c f   Dr3D_D32:Dr3D_D32.dll
 0001:0007d072       ?TransformPerToParCVV@CXForm@@UAEXNPAUWORLD@@0@Z 1007e072 f   Dr3D_D32:Dr3D_D32.dll
 0001:0007d078       ?Transform@CXForm@@UAEXPAUWORLD@@0PAUMATRIX@@@Z 1007e078 f   Dr3D_D32:Dr3D_D32.dll
 0001:0007d07e       ?ComposeCombineMATRIX@CXForm@@UAEXPAUMATRIX@@00@Z 1007e07e f   Dr3D_D32:Dr3D_D32.dll
 0001:0007d084       ?Per_SetVMMATRIX@CXForm@@UAENPAUMATRIX@@UWORLD@@1NNNN@Z 1007e084 f   Dr3D_D32:Dr3D_D32.dll
 0001:0007d08a       ?Par_SetVMMATRIX@CXForm@@UAEXPAUMATRIX@@UWORLD@@1NNNN@Z 1007e08a f   Dr3D_D32:Dr3D_D32.dll
 0001:0007d090       ?SetVOMATRIX@CXForm@@UAEXPAUMATRIX@@UWORLD@@11@Z 1007e090 f   Dr3D_D32:Dr3D_D32.dll
 0001:0007d096       ?ALT_ComposeViewMATRIX@CXForm@@UAEHPAUMATRIX@@UWORLD@@1111NNNN@Z 1007e096 f   Dr3D_D32:Dr3D_D32.dll
 0001:0007d09c       ?PerToParCVVMATRIX@CXForm@@UAEXPAUMATRIX@@N@Z 1007e09c f   Dr3D_D32:Dr3D_D32.dll
 0001:0007d0a2       ?ComposeViewMATRIX@CXForm@@UAENPAUMATRIX@@UWORLD@@1111NNNN@Z 1007e0a2 f   Dr3D_D32:Dr3D_D32.dll
 0001:0007d0a8       ?ComposeLocalMATRIX@CXForm@@UAEXPAUMATRIX@@NNNNNNNNNNNN@Z 1007e0a8 f   Dr3D_D32:Dr3D_D32.dll
 0001:0007d0ae       ?VRCtoWORLDRotationMATRIX@CXForm@@UAEXPAUMATRIX@@PAUWORLD@@1@Z 1007e0ae f   Dr3D_D32:Dr3D_D32.dll
 0001:0007d0b4       ?RotateToNewXMATRIX@CXForm@@UAEXPAUWORLD@@PAUMATRIX@@W4XFMODE@@@Z 1007e0b4 f   Dr3D_D32:Dr3D_D32.dll
 0001:0007d0ba       ?HeadToNewXLocMATRIX@CXForm@@UAEXPAUWORLD@@0PAUMATRIX@@W4XFMODE@@@Z 1007e0ba f   Dr3D_D32:Dr3D_D32.dll
 0001:0007d0c0       ?RotateToNewYMATRIX@CXForm@@UAEXPAUWORLD@@PAUMATRIX@@W4XFMODE@@@Z 1007e0c0 f   Dr3D_D32:Dr3D_D32.dll
 0001:0007d0c6       ?HeadToNewYLocMATRIX@CXForm@@UAEXPAUWORLD@@0PAUMATRIX@@W4XFMODE@@@Z 1007e0c6 f   Dr3D_D32:Dr3D_D32.dll
 0001:0007d0cc       ?RotateToNewZMATRIX@CXForm@@UAEXPAUWORLD@@PAUMATRIX@@W4XFMODE@@@Z 1007e0cc f   Dr3D_D32:Dr3D_D32.dll
 0001:0007d0d2       ?HeadToNewZLocMATRIX@CXForm@@UAEXPAUWORLD@@0PAUMATRIX@@W4XFMODE@@@Z 1007e0d2 f   Dr3D_D32:Dr3D_D32.dll
 0001:0007d0d8       ?RotateAboutLineMATRIX@CXForm@@UAEXPAUMATRIX@@PAUWORLD@@1NW4XFMODE@@@Z 1007e0d8 f   Dr3D_D32:Dr3D_D32.dll
 0001:0007d0de       ?Translate@CXForm@@UAEXPAUMATRIX@@NNNW4XFMODE@@@Z 1007e0de f   Dr3D_D32:Dr3D_D32.dll
 0001:0007d0e4       ?Rotate_Z@CXForm@@UAEXPAUMATRIX@@NW4XFMODE@@@Z 1007e0e4 f   Dr3D_D32:Dr3D_D32.dll
 0001:0007d0ea       ?Rotate_Y@CXForm@@UAEXPAUMATRIX@@NW4XFMODE@@@Z 1007e0ea f   Dr3D_D32:Dr3D_D32.dll
 0001:0007d0f0       ?Rotate_X@CXForm@@UAEXPAUMATRIX@@NW4XFMODE@@@Z 1007e0f0 f   Dr3D_D32:Dr3D_D32.dll
 0001:0007d0f6       ?Shear_Z@CXForm@@UAEXPAUMATRIX@@NNW4XFMODE@@@Z 1007e0f6 f   Dr3D_D32:Dr3D_D32.dll
 0001:0007d0fc       ?Shear_Y@CXForm@@UAEXPAUMATRIX@@NNW4XFMODE@@@Z 1007e0fc f   Dr3D_D32:Dr3D_D32.dll
 0001:0007d102       ?Shear_X@CXForm@@UAEXPAUMATRIX@@NNW4XFMODE@@@Z 1007e102 f   Dr3D_D32:Dr3D_D32.dll
 0001:0007d108       ?Scale@CXForm@@UAEXPAUMATRIX@@NNNW4XFMODE@@@Z 1007e108 f   Dr3D_D32:Dr3D_D32.dll
 0001:0007d10e       ?Reflect@CXForm@@UAEXPAUMATRIX@@UWORLD@@N@Z 1007e10e f   Dr3D_D32:Dr3D_D32.dll
 0001:0007d114       ?Serialize@CXForm@@UAEXAAVCArchive@@@Z 1007e114 f   Dr3D_D32:Dr3D_D32.dll
 0001:0007d11a       ?GetRuntimeClass@CXForm@@UBEPAUCRuntimeClass@@XZ 1007e11a f   Dr3D_D32:Dr3D_D32.dll
 0001:0007d120       ?AreSame_WORLD@C3DMath@@QAEHPAUWORLD@@0N@Z 1007e120 f   Dr3D_D32:Dr3D_D32.dll
 0001:0007d126       ?Normalize@C3DMath@@QAEXPAUWORLD@@0@Z 1007e126 f   Dr3D_D32:Dr3D_D32.dll
 0001:0007d12c       ?Sub3DPts@C3DMath@@QAEXPAUWORLD@@00@Z 1007e12c f   Dr3D_D32:Dr3D_D32.dll
 0001:0007d132       ??0CDlg_SupI@@QAE@PAVCWnd@@@Z 1007e132 f   MSup_D32:MSup_D32.dll
 0001:0007d138       ??1CMI_LSupp@@UAE@XZ       1007e138 f   MSup_D32:MSup_D32.dll
 0001:0007d13e       ?CreateNodeBased@CMI_LSupp@@QAEHPAVCDrNode@@PAV?$CList@Usupportcard@@U1@@@@Z 1007e13e f   MSup_D32:MSup_D32.dll
 0001:0007d144       ??0CMI_LSupp@@QAE@XZ       1007e144 f   MSup_D32:MSup_D32.dll
 0001:0007d14a       ?CreateCurveBased@CMI_LSupp@@QAEHPAVCDrCurve@@PAV?$CList@Usupportcard@@U1@@@@Z 1007e14a f   MSup_D32:MSup_D32.dll
 0001:0007d150       ?CreatePatchBased_3@CMI_LSupp@@QAEHPAVCDrPatch@@PAV?$CList@Usupportcard@@U1@@@@Z 1007e150 f   MSup_D32:MSup_D32.dll
 0001:0007d156       ?CreatePatchBased_4@CMI_LSupp@@QAEHPAVCDrPatch@@PAV?$CList@Usupportcard@@U1@@@@Z 1007e156 f   MSup_D32:MSup_D32.dll
 0001:0007d15c       ?Create@CDlg_SupI@@QAEHXZ  1007e15c f   MSup_D32:MSup_D32.dll
 0001:0007d162       ??1CSLDPat@@UAE@XZ         1007e162 f   MStL_D32:MStL_D32.dll
 0001:0007d168       ??0CSLDPat@@QAE@XZ         1007e168 f   MStL_D32:MStL_D32.dll
 0001:0007d16e       ??0CDlg_StLI@@QAE@PAVCWnd@@@Z 1007e16e f   MStL_D32:MStL_D32.dll
 0001:0007d174       ?ShowNodeStaticLoad@CSLDNod@@QAEHPAVCDrNode@@PAVCString@@@Z 1007e174 f   MStL_D32:MStL_D32.dll
 0001:0007d17a       ?ShowCurveStaticLoad@CSLDCur@@QAEHPAVCDrCurve@@PAVCString@@@Z 1007e17a f   MStL_D32:MStL_D32.dll
 0001:0007d180       ?ShowPatchStaticLoad@CSLDPat@@QAEHPAVCDrPatch@@PAVCString@@@Z 1007e180 f   MStL_D32:MStL_D32.dll
 0001:0007d186       ?ShowInfo_NodeStaticLoad@CSLDNod@@QAEHPAVCDrNode@@PADHAAVCString@@@Z 1007e186 f   MStL_D32:MStL_D32.dll
 0001:0007d18c       ?ShowInfo_CurveStaticLoad@CSLDCur@@QAEHPAVCDrCurve@@PADHAAVCString@@@Z 1007e18c f   MStL_D32:MStL_D32.dll
 0001:0007d192       ?ShowInfo_PatchStaticLoad@CSLDPat@@QAEHPAVCDrPatch@@PADHAAVCString@@@Z 1007e192 f   MStL_D32:MStL_D32.dll
 0001:0007d198       ?Get_Values_Uniform@CDlg_StLI@@QAEXXZ 1007e198 f   MStL_D32:MStL_D32.dll
 0001:0007d19e       ?Get_Values_NonIso_Cur@CSLDCur@@QAEHW4STALPROC@@@Z 1007e19e f   MStL_D32:MStL_D32.dll
 0001:0007d1a4       ?Generate_IsoCurveControls@CSLDCur@@QAEHPAVCDrCurve@@HPAVCString@@H@Z 1007e1a4 f   MStL_D32:MStL_D32.dll
 0001:0007d1aa       ?Get_Values_Iso_Cur@CSLDCur@@QAEHPAVCDrCurve@@W4STALPROC@@HH@Z 1007e1aa f   MStL_D32:MStL_D32.dll
 0001:0007d1b0       ?Generate_IsoPatchControls@CSLDPat@@QAEHPAVCDrPatch@@PAVCString@@H@Z 1007e1b0 f   MStL_D32:MStL_D32.dll
 0001:0007d1b6       ?Get_Values_Iso_Pat@CSLDPat@@QAEHPAVCDrPatch@@W4STALPROC@@AAVCString@@@Z 1007e1b6 f   MStL_D32:MStL_D32.dll
 0001:0007d1bc       ?Create@CDlg_StLI@@QAEHXZ  1007e1bc f   MStL_D32:MStL_D32.dll
 0001:0007d1c2       ?CreateNode@CMI_GangN@@QAEPAVCDrNode@@AAVCString@@PAVCDrLabel@@UWORLD@@HHAAH3I@Z 1007e1c2 f   MNod_D32:MNod_D32.dll
 0001:0007d1c8       ??1CMI_GangN@@UAE@XZ       1007e1c8 f   MNod_D32:MNod_D32.dll
 0001:0007d1ce       ??0CMI_GangN@@QAE@XZ       1007e1ce f   MNod_D32:MNod_D32.dll
 0001:0007d1d4       ??0CDlg_NodI@@QAE@PAVCWnd@@H@Z 1007e1d4 f   MNod_D32:MNod_D32.dll
 0001:0007d1da       ?CompareNodeCoords@CMI_GangN@@QAEHPAVCDListMgr@@UWORLD@@HH@Z 1007e1da f   MNod_D32:MNod_D32.dll
 0001:0007d1e0       ?Create@CDlg_NodI@@QAEHXZ  1007e1e0 f   MNod_D32:MNod_D32.dll
 0001:0007d1e6       ??0CDlg_CrcI@@QAE@PAVCWnd@@W4CIRCLETYPE@@@Z 1007e1e6 f   MCur_D32:MCur_D32.dll
 0001:0007d1ec       ??0CDlg_LQCI@@QAE@PAVCWnd@@@Z 1007e1ec f   MCur_D32:MCur_D32.dll
 0001:0007d1f2       ?GenerateCurveVNodes@CMI_GangC@@QAEHPAVCDrCurve@@AAVCString@@@Z 1007e1f2 f   MCur_D32:MCur_D32.dll
 0001:0007d1f8       ?CreateCurve@CMI_GangC@@QAEPAVCDrCurve@@AAVCString@@PAV2@PAVCDListMgr@@W4CURVEPROC@@PAV?$CList@HH@@HH@Z 1007e1f8 f   MCur_D32:MCur_D32.dll
 0001:0007d1fe       ?CreateParabola@CMC_Parab@@QAEPAVCDrCurve@@AAVCString@@PAV2@PAVCDListMgr@@W4CURVEPROC@@PAV?$CList@HH@@HH@Z 1007e1fe f   MCur_D32:MCur_D32.dll
 0001:0007d204       ??1CMI_GangC@@UAE@XZ       1007e204 f   MCur_D32:MCur_D32.dll
 0001:0007d20a       ??1CMC_Circle@@UAE@XZ      1007e20a f   MCur_D32:MCur_D32.dll
 0001:0007d210       ??1CMC_Parab@@UAE@XZ       1007e210 f   MCur_D32:MCur_D32.dll
 0001:0007d216       ?CreateCircle@CMC_Circle@@QAEPAVCDrCurve@@AAVCString@@PAV2@PAVCDListMgr@@W4CURVEPROC@@PAV?$CList@HH@@W4CIRCLETYPE@@NNNHPAVCDrNode@@6H@Z 1007e216 f   MCur_D32:MCur_D32.dll
 0001:0007d21c       ??0CMC_Parab@@QAE@XZ       1007e21c f   MCur_D32:MCur_D32.dll
 0001:0007d222       ??0CMC_Circle@@QAE@XZ      1007e222 f   MCur_D32:MCur_D32.dll
 0001:0007d228       ??0CMI_GangC@@QAE@XZ       1007e228 f   MCur_D32:MCur_D32.dll
 0001:0007d22e       ?DoModal_CIRCLE_Type@CMCurMgr@@QAEIAAW4CIRCLETYPE@@@Z 1007e22e f   MCur_D32:MCur_D32.dll
 0001:0007d234       ?Create@CDlg_LQCI@@QAEHXZ  1007e234 f   MCur_D32:MCur_D32.dll
 0001:0007d23a       ?Create@CDlg_CrcI@@QAEHXZ  1007e23a f   MCur_D32:MCur_D32.dll
 0001:0007d240       ??1CMC_Cube@@UAE@XZ        1007e240 f   MCur_D32:MCur_D32.dll
 0001:0007d246       ?GoDoIt@CMC_Cube@@QAEPAVCDrCurve@@XZ 1007e246 f   MCur_D32:MCur_D32.dll
 0001:0007d24c       ??0CMC_Cube@@QAE@XZ        1007e24c f   MCur_D32:MCur_D32.dll
 0001:0007d252       ??1CMC_Quad@@UAE@XZ        1007e252 f   MCur_D32:MCur_D32.dll
 0001:0007d258       ?GoDoIt@CMC_Quad@@QAEPAVCDrCurve@@XZ 1007e258 f   MCur_D32:MCur_D32.dll
 0001:0007d25e       ??0CMC_Quad@@QAE@XZ        1007e25e f   MCur_D32:MCur_D32.dll
 0001:0007d264       ??1CMC_Lin@@UAE@XZ         1007e264 f   MCur_D32:MCur_D32.dll
 0001:0007d26a       ?GoDoIt@CMC_Lin@@QAEPAVCDrCurve@@XZ 1007e26a f   MCur_D32:MCur_D32.dll
 0001:0007d270       ??0CMC_Lin@@QAE@XZ         1007e270 f   MCur_D32:MCur_D32.dll
 0001:0007d276       ??1CMP_Duct@@UAE@XZ        1007e276 f   MPat_D32:MPat_D32.dll
 0001:0007d27c       ?GoDoIt@CMP_Duct@@QAEHHHAAVCString@@PAVCDrPatch@@PAVCDListMgr@@2PAV?$CList@W4CURVELATCH@@W41@@@PAV?$CList@NN@@NHNPAVCView@@@Z 1007e27c f   MPat_D32:MPat_D32.dll
 0001:0007d282       ??0CMP_Duct@@QAE@XZ        1007e282 f   MPat_D32:MPat_D32.dll
 0001:0007d288       ??1CMP_Sweep@@UAE@XZ       1007e288 f   MPat_D32:MPat_D32.dll
 0001:0007d28e       ?GoDoIt@CMP_Sweep@@QAEHHHHAAVCString@@PAVCDrPatch@@PAVCDListMgr@@2PAV?$CList@W4CURVELATCH@@W41@@@PAV?$CList@NN@@NHN4NHNPAVCView@@@Z 1007e28e f   MPat_D32:MPat_D32.dll
 0001:0007d294       ??0CMP_Sweep@@QAE@XZ       1007e294 f   MPat_D32:MPat_D32.dll
 0001:0007d29a       ??1CMP_Tensor@@UAE@XZ      1007e29a f   MPat_D32:MPat_D32.dll
 0001:0007d2a0       ?GoDoIt@CMP_Tensor@@QAEHHHAAVCString@@PAVCDrPatch@@PAVCDListMgr@@PAY01UWORLD@@W4TWIST@@HAAV?$CList@HH@@NPAVCDrCurve@@PAV?$CList@Ublendend@@U1@@@H5N67PAVCView@@@Z 1007e2a0 f   MPat_D32:MPat_D32.dll
 0001:0007d2a6       ??0CMP_Tensor@@QAE@XZ      1007e2a6 f   MPat_D32:MPat_D32.dll
 0001:0007d2ac       ??1CMP_Gordon@@UAE@XZ      1007e2ac f   MPat_D32:MPat_D32.dll
 0001:0007d2b2       ?GoDoIt@CMP_Gordon@@QAEHHAAVCString@@PAVCDrPatch@@PAVCDListMgr@@PAY01UWORLD@@W4TWIST@@H2PAV?$CList@W4CURVELATCH@@W41@@@AAV?$CList@HH@@NPAVCDrCurve@@PAV?$CList@Ublendend@@U1@@@H256N78PAVCView@@@Z 1007e2b2 f   MPat_D32:MPat_D32.dll
 0001:0007d2b8       ??0CMP_Gordon@@QAE@XZ      1007e2b8 f   MPat_D32:MPat_D32.dll
 0001:0007d2be       ??1CMP_LoftX@@UAE@XZ       1007e2be f   MPat_D32:MPat_D32.dll
 0001:0007d2c4       ?GoDoIt@CMP_LoftX@@QAEHHHPAVCDrCurve@@HPAY01UWORLD@@W4TWIST@@HAAVCString@@PAVCDrPatch@@HHPAVCDListMgr@@5PAV?$CList@W4CURVELATCH@@W41@@@AAV?$CList@HH@@0NPAV?$CList@Ublendend@@U1@@@PAVCView@@@Z 1007e2c4 f   MPat_D32:MPat_D32.dll
 0001:0007d2ca       ??0CMP_LoftX@@QAE@XZ       1007e2ca f   MPat_D32:MPat_D32.dll
 0001:0007d2d0       ??1CMP_CooP4@@UAE@XZ       1007e2d0 f   MPat_D32:MPat_D32.dll
 0001:0007d2d6       ?GoDoIt@CMP_CooP4@@QAEHHAAVCString@@PAVCDrPatch@@PAVCDListMgr@@PAV?$CList@W4CURVELATCH@@W41@@@@Z 1007e2d6 f   MPat_D32:MPat_D32.dll
 0001:0007d2dc       ??0CMP_CooP4@@QAE@XZ       1007e2dc f   MPat_D32:MPat_D32.dll
 0001:0007d2e2       ??1CMP_CooP3@@UAE@XZ       1007e2e2 f   MPat_D32:MPat_D32.dll
 0001:0007d2e8       ?GoDoIt@CMP_CooP3@@QAEHHAAVCString@@PAVCDrPatch@@PAVCDListMgr@@PAV?$CList@W4CURVELATCH@@W41@@@@Z 1007e2e8 f   MPat_D32:MPat_D32.dll
 0001:0007d2ee       ??0CMP_CooP3@@QAE@XZ       1007e2ee f   MPat_D32:MPat_D32.dll
 0001:0007d2f4       ??1CMP_Rotat@@UAE@XZ       1007e2f4 f   MPat_D32:MPat_D32.dll
 0001:0007d2fa       ?GoDoIt@CMP_Rotat@@QAEHHAAVCString@@PAVCDrPatch@@PAVCDListMgr@@2PAV?$CList@W4CURVELATCH@@W41@@@AAV?$CList@HH@@NNHHHPAVCView@@@Z 1007e2fa f   MPat_D32:MPat_D32.dll
 0001:0007d300       ??0CMP_Rotat@@QAE@XZ       1007e300 f   MPat_D32:MPat_D32.dll
 0001:0007d306       ??1CMP_Xtrud@@UAE@XZ       1007e306 f   MPat_D32:MPat_D32.dll
 0001:0007d30c       ?GoDoIt@CMP_Xtrud@@QAEHHHAAVCString@@PAVCDrPatch@@PAVCDListMgr@@2PAV?$CList@W4CURVELATCH@@W41@@@AAV?$CList@HH@@UWORLD@@NNPAVCView@@@Z 1007e30c f   MPat_D32:MPat_D32.dll
 0001:0007d312       ??0CMP_Xtrud@@QAE@XZ       1007e312 f   MPat_D32:MPat_D32.dll
 0001:0007d318       ?GetRuntimeClass@CLoft_Compat@@UBEPAUCRuntimeClass@@XZ 1007e318 f   MPat_D32:MPat_D32.dll
 0001:0007d31e       ??0CSheet_PATI@@QAE@PBDPAVCWnd@@W4PATCHPROC@@I@Z 1007e31e f   MPat_D32:MPat_D32.dll
 0001:0007d324       ??1CMPatMgr@@UAE@XZ        1007e324 f   MPat_D32:MPat_D32.dll
 0001:0007d32a       ??0CMPatMgr@@QAE@XZ        1007e32a f   MPat_D32:MPat_D32.dll
 0001:0007d330       ?SetProcPage@CSheet_PATI@@QAEHXZ 1007e330 f   MPat_D32:MPat_D32.dll
 0001:0007d336       ?AreCurvesCompatible@CLoft_Compat@@QAEHPAVCDListMgr@@PAV?$CList@W4CURVELATCH@@W41@@@@Z 1007e336 f   MPat_D32:MPat_D32.dll
 0001:0007d33c       ?DoModal_Patch_TensorBlend@CMPatMgr@@QAEIPAVCDrCurve@@HH@Z 1007e33c f   MPat_D32:MPat_D32.dll
 0001:0007d342       ?DoModal_Patch_LoftCurveCount@CMPatMgr@@QAEIAAH@Z 1007e342 f   MPat_D32:MPat_D32.dll
 0001:0007d348       ?DoModal_Patch_TensorNodeCount@CMPatMgr@@QAEIAAH0@Z 1007e348 f   MPat_D32:MPat_D32.dll
 0001:0007d34e       ?DoModal_Patch_GordonCurveCount@CMPatMgr@@QAEIAAH0@Z 1007e34e f   MPat_D32:MPat_D32.dll
 0001:0007d354       ??1CMS_Duct@@UAE@XZ        1007e354 f   MSol_D32:MSol_D32.dll
 0001:0007d35a       ?GoDoIt@CMS_Duct@@QAEHHHHAAVCString@@PAVCDrSolid@@PAVCDListMgr@@2PAV?$CList@W4CURVELATCH@@W41@@@2PAV?$CList@W4PATCHLATCH@@W41@@@PAV?$CList@NN@@NHNPAVCView@@@Z 1007e35a f   MSol_D32:MSol_D32.dll
 0001:0007d360       ??0CMS_Duct@@QAE@XZ        1007e360 f   MSol_D32:MSol_D32.dll
 0001:0007d366       ??1CMS_Duc3@@UAE@XZ        1007e366 f   MSol_D32:MSol_D32.dll
 0001:0007d36c       ?GoDoIt@CMS_Duc3@@QAEHHHHAAVCString@@PAVCDrSolid@@PAVCDListMgr@@2PAV?$CList@W4CURVELATCH@@W41@@@2PAV?$CList@W4PATCHLATCH@@W41@@@PAV?$CList@NN@@NHNPAVCView@@@Z 1007e36c f   MSol_D32:MSol_D32.dll
 0001:0007d372       ??0CMS_Duc3@@QAE@XZ        1007e372 f   MSol_D32:MSol_D32.dll
 0001:0007d378       ??1CMS_Sweep@@UAE@XZ       1007e378 f   MSol_D32:MSol_D32.dll
 0001:0007d37e       ?GoDoIt@CMS_Sweep@@QAEHHHHHAAVCString@@PAVCDrSolid@@PAVCDListMgr@@2PAV?$CList@W4CURVELATCH@@W41@@@2PAV?$CList@W4PATCHLATCH@@W41@@@PAV?$CList@NN@@NHN5NHNPAVCView@@@Z 1007e37e f   MSol_D32:MSol_D32.dll
 0001:0007d384       ??0CMS_Sweep@@QAE@XZ       1007e384 f   MSol_D32:MSol_D32.dll
 0001:0007d38a       ??1CMS_Swee3@@UAE@XZ       1007e38a f   MSol_D32:MSol_D32.dll
 0001:0007d390       ?GoDoIt@CMS_Swee3@@QAEHHHHHAAVCString@@PAVCDrSolid@@PAVCDListMgr@@2PAV?$CList@W4CURVELATCH@@W41@@@2PAV?$CList@W4PATCHLATCH@@W41@@@PAV?$CList@NN@@NHN5NHNPAVCView@@@Z 1007e390 f   MSol_D32:MSol_D32.dll
 0001:0007d396       ??0CMS_Swee3@@QAE@XZ       1007e396 f   MSol_D32:MSol_D32.dll
 0001:0007d39c       ??1CMS_Lof42@@UAE@XZ       1007e39c f   MSol_D32:MSol_D32.dll
 0001:0007d3a2       ?SetInfoBase@CMS_Lof42@@QAEHAAVCString@@PAVCDrSolid@@PAVCDListMgr@@PAV?$CList@W4PATCHLATCH@@W41@@@PAV?$CList@HH@@NPAVCView@@@Z 1007e3a2 f   MSol_D32:MSol_D32.dll
 0001:0007d3a8       ??0CMS_Lof42@@QAE@XZ       1007e3a8 f   MSol_D32:MSol_D32.dll
 0001:0007d3ae       ??1CMS_Lof32@@UAE@XZ       1007e3ae f   MSol_D32:MSol_D32.dll
 0001:0007d3b4       ?SetInfoBase@CMS_Lof32@@QAEHAAVCString@@PAVCDrSolid@@PAVCDListMgr@@PAV?$CList@W4PATCHLATCH@@W41@@@PAV?$CList@HH@@NPAVCView@@@Z 1007e3b4 f   MSol_D32:MSol_D32.dll
 0001:0007d3ba       ??0CMS_Lof32@@QAE@XZ       1007e3ba f   MSol_D32:MSol_D32.dll
 0001:0007d3c0       ??1CMS_Rotat@@UAE@XZ       1007e3c0 f   MSol_D32:MSol_D32.dll
 0001:0007d3c6       ?GoDoIt@CMS_Rotat@@QAEHHHAAVCString@@PAVCDrSolid@@PAVCDListMgr@@2PAV?$CList@W4PATCHLATCH@@W41@@@AAV?$CList@HH@@NNHHHPAVCView@@@Z 1007e3c6 f   MSol_D32:MSol_D32.dll
 0001:0007d3cc       ??0CMS_Rotat@@QAE@XZ       1007e3cc f   MSol_D32:MSol_D32.dll
 0001:0007d3d2       ??1CMS_Rota3@@UAE@XZ       1007e3d2 f   MSol_D32:MSol_D32.dll
 0001:0007d3d8       ?GoDoIt@CMS_Rota3@@QAEHHHAAVCString@@PAVCDrSolid@@PAVCDListMgr@@2PAV?$CList@W4PATCHLATCH@@W41@@@AAV?$CList@HH@@NNHHHPAVCView@@@Z 1007e3d8 f   MSol_D32:MSol_D32.dll
 0001:0007d3de       ??0CMS_Rota3@@QAE@XZ       1007e3de f   MSol_D32:MSol_D32.dll
 0001:0007d3e4       ??1CMS_Xtrud@@UAE@XZ       1007e3e4 f   MSol_D32:MSol_D32.dll
 0001:0007d3ea       ?GoDoIt@CMS_Xtrud@@QAEHHHHAAVCString@@PAVCDrSolid@@PAVCDListMgr@@2PAV?$CList@W4PATCHLATCH@@W41@@@AAV?$CList@HH@@UWORLD@@NNPAVCView@@@Z 1007e3ea f   MSol_D32:MSol_D32.dll
 0001:0007d3f0       ??0CMS_Xtrud@@QAE@XZ       1007e3f0 f   MSol_D32:MSol_D32.dll
 0001:0007d3f6       ??1CMS_Xtru3@@UAE@XZ       1007e3f6 f   MSol_D32:MSol_D32.dll
 0001:0007d3fc       ?GoDoIt@CMS_Xtru3@@QAEHHHHAAVCString@@PAVCDrSolid@@PAVCDListMgr@@2PAV?$CList@W4PATCHLATCH@@W41@@@AAV?$CList@HH@@UWORLD@@NNPAVCView@@@Z 1007e3fc f   MSol_D32:MSol_D32.dll
 0001:0007d402       ??0CMS_Xtru3@@QAE@XZ       1007e402 f   MSol_D32:MSol_D32.dll
 0001:0007d408       ?GetRuntimeClass@CLoftSol_Compat@@UBEPAUCRuntimeClass@@XZ 1007e408 f   MSol_D32:MSol_D32.dll
 0001:0007d40e       ??0CSheet_SOLI@@QAE@PBDPAVCWnd@@W4SOLIDPROC@@I@Z 1007e40e f   MSol_D32:MSol_D32.dll
 0001:0007d414       ?SetProcPage@CSheet_SOLI@@QAEHXZ 1007e414 f   MSol_D32:MSol_D32.dll
 0001:0007d41a       ?ArePatchesCompatible@CLoftSol_Compat@@QAEHPAVCDListMgr@@PAV?$CList@W4PATCHLATCH@@W41@@@@Z 1007e41a f   MSol_D32:MSol_D32.dll
 0001:0007d420       ??1CMSolMgr@@UAE@XZ        1007e420 f   MSol_D32:MSol_D32.dll
 0001:0007d426       ?DoModal_Solid_TensorBlend@CMSolMgr@@QAEIPAVCDrCurve@@HH@Z 1007e426 f   MSol_D32:MSol_D32.dll
 0001:0007d42c       ??0CMSolMgr@@QAE@XZ        1007e42c f   MSol_D32:MSol_D32.dll
 0001:0007d432       ?DoModal_Solid_LoftPatchCount@CMSolMgr@@QAEIAAH@Z 1007e432 f   MSol_D32:MSol_D32.dll
 0001:0007d438       ?DoModal_Solid_TensorNodeCount@CMSolMgr@@QAEIAAH00@Z 1007e438 f   MSol_D32:MSol_D32.dll
 0001:0007d43e       ?DoModal_Solid_GordonPatchCount@CMSolMgr@@QAEIAAH00@Z 1007e43e f   MSol_D32:MSol_D32.dll
 0001:0007d444       ??0CDlg_O3DI@@QAE@PAVCWnd@@@Z 1007e444 f   MO3D_D32:MO3D_D32.dll
 0001:0007d44a       ?ResetDlg@CDlg_O3DI@@QAEXXZ 1007e44a f   MO3D_D32:MO3D_D32.dll
 0001:0007d450       ?Create@CDlg_O3DI@@QAEHXZ  1007e450 f   MO3D_D32:MO3D_D32.dll
 0001:0007d456       ??1CDialog@@UAE@XZ         1007e456 f   mfc42d:MFC42D.DLL
 0001:0007d45c       ??1CString@@QAE@XZ         1007e45c f   mfc42d:MFC42D.DLL
 0001:0007d462       ?Dump@CObject@@UBEXAAVCDumpContext@@@Z 1007e462 f   mfc42d:MFC42D.DLL
 0001:0007d468       ?AssertValid@CObject@@UBEXXZ 1007e468 f   mfc42d:MFC42D.DLL
 0001:0007d46e       ??1CObject@@UAE@XZ         1007e46e f   mfc42d:MFC42D.DLL
 0001:0007d474       ??3CObject@@SGXPAX@Z       1007e474 f   mfc42d:MFC42D.DLL
 0001:0007d47a       ??3@YAXPAX@Z               1007e47a f   mfc42d:MFC42D.DLL
 0001:0007d480       ??0CString@@QAE@ABV0@@Z    1007e480 f   mfc42d:MFC42D.DLL
 0001:0007d486       ??4CString@@QAEABV0@ABV0@@Z 1007e486 f   mfc42d:MFC42D.DLL
 0001:0007d48c       ?Serialize@CObject@@UAEXAAVCArchive@@@Z 1007e48c f   mfc42d:MFC42D.DLL
 0001:0007d492       ??2@YAPAXI@Z               1007e492 f   mfc42d:MFC42D.DLL
 0001:0007d498       ??0CObject@@IAE@XZ         1007e498 f   mfc42d:MFC42D.DLL
 0001:0007d49e       ?AfxGetMainWnd@@YGPAVCWnd@@XZ 1007e49e f   mfc42d:MFC42D.DLL
 0001:0007d4a4       ?ReleaseBuffer@CString@@QAEXH@Z 1007e4a4 f   mfc42d:MFC42D.DLL
 0001:0007d4aa       ?AddString@CListBox@@QAEHPBD@Z 1007e4aa f   mfc42d:MFC42D.DLL
 0001:0007d4b0       ?GetDlgItem@CWnd@@QBEPAV1@H@Z 1007e4b0 f   mfc42d:MFC42D.DLL
 0001:0007d4b6       ??BCString@@QBEPBDXZ       1007e4b6 f   mfc42d:MFC42D.DLL
 0001:0007d4bc       ?GetBuffer@CString@@QAEPADH@Z 1007e4bc f   mfc42d:MFC42D.DLL
 0001:0007d4c2       ??0CString@@QAE@XZ         1007e4c2 f   mfc42d:MFC42D.DLL
 0001:0007d4c8       ?GetRuntimeClass@CObject@@UBEPAUCRuntimeClass@@XZ 1007e4c8 f   mfc42d:MFC42D.DLL
 0001:0007d4ce       ?AfxAssertFailedLine@@YGHPBDH@Z 1007e4ce f   mfc42d:MFC42D.DLL
 0001:0007d4d4       ?ReadCount@CArchive@@QAEKXZ 1007e4d4 f   mfc42d:MFC42D.DLL
 0001:0007d4da       ?AfxIsValidAddress@@YGHPBXIH@Z 1007e4da f   mfc42d:MFC42D.DLL
 0001:0007d4e0       ?WriteCount@CArchive@@QAEXK@Z 1007e4e0 f   mfc42d:MFC42D.DLL
 0001:0007d4e6       ?IsStoring@CArchive@@QBEHXZ 1007e4e6 f   mfc42d:MFC42D.DLL
 0001:0007d4ec       ?AfxAssertValidObject@@YGXPBVCObject@@PBDH@Z 1007e4ec f   mfc42d:MFC42D.DLL
 0001:0007d4f2       ?GetDepth@CDumpContext@@QBEHXZ 1007e4f2 f   mfc42d:MFC42D.DLL
 0001:0007d4f8       ??6CDumpContext@@QAEAAV0@H@Z 1007e4f8 f   mfc42d:MFC42D.DLL
 0001:0007d4fe       ??6CDumpContext@@QAEAAV0@PBD@Z 1007e4fe f   mfc42d:MFC42D.DLL
 0001:0007d504       ?FreeDataChain@CPlex@@QAEXXZ 1007e504 f   mfc42d:MFC42D.DLL
 0001:0007d50a       ?Read@CArchive@@QAEIPAXI@Z 1007e50a f   mfc42d:MFC42D.DLL
 0001:0007d510       ?Write@CArchive@@QAEXPBXI@Z 1007e510 f   mfc42d:MFC42D.DLL
 0001:0007d516       ?Create@CPlex@@SGPAU1@AAPAU1@II@Z 1007e516 f   mfc42d:MFC42D.DLL
 0001:0007d51c       ??1CButton@@UAE@XZ         1007e51c f   mfc42d:MFC42D.DLL
 0001:0007d522       ??1CBitmap@@UAE@XZ         1007e522 f   mfc42d:MFC42D.DLL
 0001:0007d528       ??1CPen@@UAE@XZ            1007e528 f   mfc42d:MFC42D.DLL
 0001:0007d52e       ??3CObject@@SGXPAXPBDH@Z   1007e52e f   mfc42d:MFC42D.DLL
 0001:0007d534       ??2CObject@@SGPAXIPBDH@Z   1007e534 f   mfc42d:MFC42D.DLL
 0001:0007d53a       ?AfxClassInit@@YGXPAUCRuntimeClass@@@Z 1007e53a f   mfc42d:MFC42D.DLL
 0001:0007d540       ?ReadObject@CArchive@@QAEPAVCObject@@PBUCRuntimeClass@@@Z 1007e540 f   mfc42d:MFC42D.DLL
 0001:0007d546       ?AfxGetApp@@YGPAVCWinApp@@XZ 1007e546 f   mfc42d:MFC42D.DLL
 0001:0007d54c       ?UpdateAllViews@CDocument@@QAEXPAVCView@@JPAVCObject@@@Z 1007e54c f   mfc42d:MFC42D.DLL
 0001:0007d552       ?EnableWindow@CWnd@@QAEHH@Z 1007e552 f   mfc42d:MFC42D.DLL
 0001:0007d558       ?GetSafeHwnd@CWnd@@QBEPAUHWND__@@XZ 1007e558 f   mfc42d:MFC42D.DLL
 0001:0007d55e       ??4CString@@QAEABV0@PBD@Z  1007e55e f   mfc42d:MFC42D.DLL
 0001:0007d564       ?RemoveAll@CObList@@QAEXXZ 1007e564 f   mfc42d:MFC42D.DLL
 0001:0007d56a       ?GetHead@CObList@@QAEAAPAVCObject@@XZ 1007e56a f   mfc42d:MFC42D.DLL
 0001:0007d570       ?IsEmpty@CObList@@QBEHXZ   1007e570 f   mfc42d:MFC42D.DLL
 0001:0007d576       ?SetCapture@CWnd@@QAEPAV1@XZ 1007e576 f   mfc42d:MFC42D.DLL
 0001:0007d57c       ?EnableMenuItem@CMenu@@QAEIII@Z 1007e57c f   mfc42d:MFC42D.DLL
 0001:0007d582       ?GetMenu@CWnd@@QBEPAVCMenu@@XZ 1007e582 f   mfc42d:MFC42D.DLL
 0001:0007d588       ??3@YAXPAXPBDH@Z           1007e588 f   mfc42d:MFC42D.DLL
 0001:0007d58e       ?RemoveTail@CObList@@QAEPAVCObject@@XZ 1007e58e f   mfc42d:MFC42D.DLL
 0001:0007d594       ?GetTail@CObList@@QAEAAPAVCObject@@XZ 1007e594 f   mfc42d:MFC42D.DLL
 0001:0007d59a       ?RemoveAt@CObList@@QAEXPAU__POSITION@@@Z 1007e59a f   mfc42d:MFC42D.DLL
 0001:0007d5a0       ?AddTail@CObList@@QAEXPAV1@@Z 1007e5a0 f   mfc42d:MFC42D.DLL
 0001:0007d5a6       ??0CString@@QAE@PBD@Z      1007e5a6 f   mfc42d:MFC42D.DLL
 0001:0007d5ac       ?GetAt@CObList@@QAEAAPAVCObject@@PAU__POSITION@@@Z 1007e5ac f   mfc42d:MFC42D.DLL
 0001:0007d5b2       ?FindIndex@CObList@@QBEPAU__POSITION@@H@Z 1007e5b2 f   mfc42d:MFC42D.DLL
 0001:0007d5b8       ?AfxMessageBox@@YGHPBDII@Z 1007e5b8 f   mfc42d:MFC42D.DLL
 0001:0007d5be       ??2@YAPAXIPBDH@Z           1007e5be f   mfc42d:MFC42D.DLL
 0001:0007d5c4       ?GetCount@CObList@@QBEHXZ  1007e5c4 f   mfc42d:MFC42D.DLL
 0001:0007d5ca       ??8@YG_NABVCString@@PBD@Z  1007e5ca f   mfc42d:MFC42D.DLL
 0001:0007d5d0       ?SendMessageA@CWnd@@QAEJIIJ@Z 1007e5d0 f   mfc42d:MFC42D.DLL
 0001:0007d5d6       ?DPtoLP@CDC@@QBEXPAUtagPOINT@@H@Z 1007e5d6 f   mfc42d:MFC42D.DLL
 0001:0007d5dc       ?UpdateData@CWnd@@QAEHH@Z  1007e5dc f   mfc42d:MFC42D.DLL
 0001:0007d5e2       ?SetWindowTextA@CWnd@@QAEXPBD@Z 1007e5e2 f   mfc42d:MFC42D.DLL
 0001:0007d5e8       ?UpdateWindow@CWnd@@QAEXXZ 1007e5e8 f   mfc42d:MFC42D.DLL
 0001:0007d5ee       ?Invalidate@CWnd@@QAEXH@Z  1007e5ee f   mfc42d:MFC42D.DLL
 0001:0007d5f4       ?GetHeadPosition@CObList@@QBEPAU__POSITION@@XZ 1007e5f4 f   mfc42d:MFC42D.DLL
 0001:0007d5fa       ?DeleteObject@CGdiObject@@QAEHXZ 1007e5fa f   mfc42d:MFC42D.DLL
 0001:0007d600       ?LineTo@CDC@@QAEHUtagPOINT@@@Z 1007e600 f   mfc42d:MFC42D.DLL
 0001:0007d606       ?MoveTo@CDC@@QAE?AVCPoint@@UtagPOINT@@@Z 1007e606 f   mfc42d:MFC42D.DLL
 0001:0007d60c       ?SetROP2@CDC@@QAEHH@Z      1007e60c f   mfc42d:MFC42D.DLL
 0001:0007d612       ?SelectObject@CDC@@QAEPAVCPen@@PAV2@@Z 1007e612 f   mfc42d:MFC42D.DLL
 0001:0007d618       ?CreatePen@CPen@@QAEHHHK@Z 1007e618 f   mfc42d:MFC42D.DLL
 0001:0007d61e       ?SetBkMode@CDC@@QAEHH@Z    1007e61e f   mfc42d:MFC42D.DLL
 0001:0007d624       ??0CPen@@QAE@XZ            1007e624 f   mfc42d:MFC42D.DLL
 0001:0007d62a       ?LPtoDP@CDC@@QBEXPAUtagPOINT@@H@Z 1007e62a f   mfc42d:MFC42D.DLL
 0001:0007d630       ??0CPoint@@QAE@UtagPOINT@@@Z 1007e630 f   mfc42d:MFC42D.DLL
 0001:0007d636       ?AddTail@CObList@@QAEPAU__POSITION@@PAVCObject@@@Z 1007e636 f   mfc42d:MFC42D.DLL
 0001:0007d63c       ??8@YG_NABVCString@@0@Z    1007e63c f   mfc42d:MFC42D.DLL
 0001:0007d642       ?SetFocus@CWnd@@QAEPAV1@XZ 1007e642 f   mfc42d:MFC42D.DLL
 0001:0007d648       ??YCString@@QAEABV0@PBD@Z  1007e648 f   mfc42d:MFC42D.DLL
 0001:0007d64e       ?SetActiveWindow@CWnd@@QAEPAV1@XZ 1007e64e f   mfc42d:MFC42D.DLL
 0001:0007d654       ??1CWnd@@UAE@XZ            1007e654 f   mfc42d:MFC42D.DLL
 0001:0007d65a       ?SetWindowPos@CWnd@@QAEHPBV1@HHHHI@Z 1007e65a f   mfc42d:MFC42D.DLL
 0001:0007d660       ?Width@CRect@@QBEHXZ       1007e660 f   mfc42d:MFC42D.DLL
 0001:0007d666       ?Height@CRect@@QBEHXZ      1007e666 f   mfc42d:MFC42D.DLL
 0001:0007d66c       ?GetWindowRect@CWnd@@QBEXPAUtagRECT@@@Z 1007e66c f   mfc42d:MFC42D.DLL
 0001:0007d672       ??0CWnd@@QAE@XZ            1007e672 f   mfc42d:MFC42D.DLL
 0001:0007d678       ??0CRect@@QAE@XZ           1007e678 f   mfc42d:MFC42D.DLL
 0001:0007d67e       ?AfxTrace@@YAXPBDZZ        1007e67e f   mfc42d:MFC42D.DLL
 0001:0007d684       ??5@YGAAVCArchive@@AAV0@AAVCString@@@Z 1007e684 f   mfc42d:MFC42D.DLL
 0001:0007d68a       ??6@YGAAVCArchive@@AAV0@ABVCString@@@Z 1007e68a f   mfc42d:MFC42D.DLL
 0001:0007d690       ??0CPoint@@QAE@K@Z         1007e690 f   mfc42d:MFC42D.DLL
 0001:0007d696       ??ACDWordArray@@QBEKH@Z    1007e696 f   mfc42d:MFC42D.DLL
 0001:0007d69c       ??1CDWordArray@@UAE@XZ     1007e69c f   mfc42d:MFC42D.DLL
 0001:0007d6a2       ??2CObject@@SGPAXI@Z       1007e6a2 f   mfc42d:MFC42D.DLL
 0001:0007d6a8       ??1CDC@@UAE@XZ             1007e6a8 f   mfc42d:MFC42D.DLL
 0001:0007d6ae       ?BitBlt@CDC@@QAEHHHHHPAV1@HHK@Z 1007e6ae f   mfc42d:MFC42D.DLL
 0001:0007d6b4       ?PatBlt@CDC@@QAEHHHHHK@Z   1007e6b4 f   mfc42d:MFC42D.DLL
 0001:0007d6ba       ?SelectObject@CDC@@QAEPAVCBitmap@@PAV2@@Z 1007e6ba f   mfc42d:MFC42D.DLL
 0001:0007d6c0       ?DrawFocusRect@CDC@@QAEXPBUtagRECT@@@Z 1007e6c0 f   mfc42d:MFC42D.DLL
 0001:0007d6c6       ?NormalizeRect@CRect@@QAEXXZ 1007e6c6 f   mfc42d:MFC42D.DLL
 0001:0007d6cc       ?DPtoLP@CDC@@QBEXPAUtagRECT@@@Z 1007e6cc f   mfc42d:MFC42D.DLL
 0001:0007d6d2       ?InflateRect@CRect@@QAEXHH@Z 1007e6d2 f   mfc42d:MFC42D.DLL
 0001:0007d6d8       ?CreateCompatibleBitmap@CBitmap@@QAEHPAVCDC@@HH@Z 1007e6d8 f   mfc42d:MFC42D.DLL
 0001:0007d6de       ?LPtoDP@CDC@@QBEXPAUtagRECT@@@Z 1007e6de f   mfc42d:MFC42D.DLL
 0001:0007d6e4       ?SetMapMode@CDC@@UAEHH@Z   1007e6e4 f   mfc42d:MFC42D.DLL
 0001:0007d6ea       ?CreateCompatibleDC@CDC@@QAEHPAV1@@Z 1007e6ea f   mfc42d:MFC42D.DLL
 0001:0007d6f0       ??0CDC@@QAE@XZ             1007e6f0 f   mfc42d:MFC42D.DLL
 0001:0007d6f6       ?UnionRect@CRect@@QAEHPBUtagRECT@@0@Z 1007e6f6 f   mfc42d:MFC42D.DLL
 0001:0007d6fc       ??HCRect@@QBE?AV0@UtagPOINT@@@Z 1007e6fc f   mfc42d:MFC42D.DLL
 0001:0007d702       ??HCPoint@@QBE?AV0@UtagSIZE@@@Z 1007e702 f   mfc42d:MFC42D.DLL
 0001:0007d708       ??0CPoint@@QAE@HH@Z        1007e708 f   mfc42d:MFC42D.DLL
 0001:0007d70e       ??GCPoint@@QBE?AVCSize@@UtagPOINT@@@Z 1007e70e f   mfc42d:MFC42D.DLL
 0001:0007d714       ??BCRect@@QAEPAUtagRECT@@XZ 1007e714 f   mfc42d:MFC42D.DLL
 0001:0007d71a       ??0CPoint@@QAE@XZ          1007e71a f   mfc42d:MFC42D.DLL
 0001:0007d720       ??0CSize@@QAE@XZ           1007e720 f   mfc42d:MFC42D.DLL
 0001:0007d726       ?InvalidateRect@CWnd@@QAEXPBUtagRECT@@H@Z 1007e726 f   mfc42d:MFC42D.DLL
 0001:0007d72c       ?IntersectRect@CRect@@QAEHPBUtagRECT@@0@Z 1007e72c f   mfc42d:MFC42D.DLL
 0001:0007d732       ?GetClientRect@CWnd@@QBEXPAUtagRECT@@@Z 1007e732 f   mfc42d:MFC42D.DLL
 0001:0007d738       ?PtInRect@CRect@@QBEHUtagPOINT@@@Z 1007e738 f   mfc42d:MFC42D.DLL
 0001:0007d73e       ?GetCapture@CWnd@@SGPAV1@XZ 1007e73e f   mfc42d:MFC42D.DLL
 0001:0007d744       ??5CArchive@@QAEAAV0@AAE@Z 1007e744 f   mfc42d:MFC42D.DLL
 0001:0007d74a       ??5@YGAAVCArchive@@AAV0@AAUtagPOINT@@@Z 1007e74a f   mfc42d:MFC42D.DLL
 0001:0007d750       ??5@YGAAVCArchive@@AAV0@AAUtagRECT@@@Z 1007e750 f   mfc42d:MFC42D.DLL
 0001:0007d756       ??5CArchive@@QAEAAV0@AAG@Z 1007e756 f   mfc42d:MFC42D.DLL
 0001:0007d75c       ??6CArchive@@QAEAAV0@E@Z   1007e75c f   mfc42d:MFC42D.DLL
 0001:0007d762       ??6@YGAAVCArchive@@AAV0@UtagPOINT@@@Z 1007e762 f   mfc42d:MFC42D.DLL
 0001:0007d768       ??6@YGAAVCArchive@@AAV0@ABUtagRECT@@@Z 1007e768 f   mfc42d:MFC42D.DLL
 0001:0007d76e       ??6CArchive@@QAEAAV0@G@Z   1007e76e f   mfc42d:MFC42D.DLL
 0001:0007d774       ?AfxGetModuleState@@YGPAVAFX_MODULE_STATE@@XZ 1007e774 f   mfc42d:MFC42D.DLL
 0001:0007d77a       ??0CDynLinkLibrary@@QAE@AAUAFX_EXTENSION_MODULE@@H@Z 1007e77a f   mfc42d:MFC42D.DLL
 0001:0007d780       ?AfxInitExtensionModule@@YGHAAUAFX_EXTENSION_MODULE@@PAUHINSTANCE__@@@Z 1007e780 f   mfc42d:MFC42D.DLL
 0001:0007d786       ??1CFont@@UAE@XZ           1007e786 f   mfc42d:MFC42D.DLL
 0001:0007d78c       ??0CFont@@QAE@XZ           1007e78c f   mfc42d:MFC42D.DLL
 0001:0007d792       ??0CBitmap@@QAE@XZ         1007e792 f   mfc42d:MFC42D.DLL
 0001:0007d798       ?Detach@CGdiObject@@QAEPAXXZ 1007e798 f   mfc42d:MFC42D.DLL
 0001:0007d79e       ?GetTextExtent@CDC@@QBE?AVCSize@@PBDH@Z 1007e79e f   mfc42d:MFC42D.DLL
 0001:0007d7a4       ?GetLength@CString@@QBEHXZ 1007e7a4 f   mfc42d:MFC42D.DLL
 0001:0007d7aa       ?CreateFontIndirectA@CFont@@QAEHPBUtagLOGFONTA@@@Z 1007e7aa f   mfc42d:MFC42D.DLL
 0001:0007d7b0       ??1CBrush@@UAE@XZ          1007e7b0 f   mfc42d:MFC42D.DLL
 0001:0007d7b6       ?Rectangle@CDC@@QAEHPBUtagRECT@@@Z 1007e7b6 f   mfc42d:MFC42D.DLL
 0001:0007d7bc       ?SelectObject@CDC@@QAEPAVCBrush@@PAV2@@Z 1007e7bc f   mfc42d:MFC42D.DLL
 0001:0007d7c2       ?CreateSolidBrush@CBrush@@QAEHK@Z 1007e7c2 f   mfc42d:MFC42D.DLL
 0001:0007d7c8       ??0CBrush@@QAE@XZ          1007e7c8 f   mfc42d:MFC42D.DLL
 0001:0007d7ce       ?LoadCursorA@CWinApp@@QBEPAUHICON__@@I@Z 1007e7ce f   mfc42d:MFC42D.DLL
 0001:0007d7d4       ?LoadStandardCursor@CWinApp@@QBEPAUHICON__@@PBD@Z 1007e7d4 f   mfc42d:MFC42D.DLL
 0001:0007d7da       ?LoadStringA@CString@@QAEHI@Z 1007e7da f   mfc42d:MFC42D.DLL
 0001:0007d7e0       ?AfxSetResourceHandle@@YGXPAUHINSTANCE__@@@Z 1007e7e0 f   mfc42d:MFC42D.DLL
 0001:0007d7e6       ?AfxGetResourceHandle@@YGPAUHINSTANCE__@@XZ 1007e7e6 f   mfc42d:MFC42D.DLL
 0001:0007d7ec       ?ClientToScreen@CWnd@@QBEXPAUtagRECT@@@Z 1007e7ec f   mfc42d:MFC42D.DLL
 0001:0007d7f2       ?ClientToScreen@CWnd@@QBEXPAUtagPOINT@@@Z 1007e7f2 f   mfc42d:MFC42D.DLL
 0001:0007d7f8       ??9@YG_NABVCString@@PBD@Z  1007e7f8 f   mfc42d:MFC42D.DLL
 0001:0007d7fe       ?GetActivePage@CPropertySheet@@QBEPAVCPropertyPage@@XZ 1007e7fe f   mfc42d:MFC42D.DLL
 0001:0007d804       ?ShowWindow@CWnd@@QAEHH@Z  1007e804 f   mfc42d:MFC42D.DLL
 0001:0007d80a       ?GetPrev@CObList@@QAEAAPAVCObject@@AAPAU__POSITION@@@Z 1007e80a f   mfc42d:MFC42D.DLL
 0001:0007d810       ?GetTailPosition@CObList@@QBEPAU__POSITION@@XZ 1007e810 f   mfc42d:MFC42D.DLL
 0001:0007d816       ?SetCurSel@CComboBox@@QAEHH@Z 1007e816 f   mfc42d:MFC42D.DLL
 0001:0007d81c       ??H@YG?AVCString@@ABV0@PBD@Z 1007e81c f   mfc42d:MFC42D.DLL
 0001:0007d830       ___CxxFrameHandler         1007e830 f   msvcrtd:MSVCRTD.dll
 0001:0007d836       _sqrt                      1007e836 f   msvcrtd:MSVCRTD.dll
 0001:0007d840       ??_M@YGXPAXIHP6EX0@Z@Z     1007e840 f   msvcrtd:ehvecdtr.obj
 0001:0007d8f0       ?__ArrayUnwind@@YGXPAXIHP6EX0@Z@Z 1007e8f0 f   msvcrtd:ehvecdtr.obj
 0001:0007d99c       _clock                     1007e99c f   msvcrtd:MSVCRTD.dll
 0001:0007d9a2       _sprintf                   1007e9a2 f   msvcrtd:MSVCRTD.dll
 0001:0007d9a8       _memset                    1007e9a8 f   msvcrtd:MSVCRTD.dll
 0001:0007d9ae       __ftol                     1007e9ae f   msvcrtd:MSVCRTD.dll
 0001:0007d9b4       _fabs                      1007e9b4 f   msvcrtd:MSVCRTD.dll
 0001:0007d9c0       __CRT_INIT@12              1007e9c0 f   msvcrtd:crtdll.obj
 0001:0007dad0       __DllMainCRTStartup@12     1007ead0 f   msvcrtd:crtdll.obj
 0001:0007dbc4       __except_handler3          1007ebc4 f   msvcrtd:MSVCRTD.dll
 0001:0007dbca       ?terminate@@YAXXZ          1007ebca f   msvcrtd:MSVCRTD.dll
 0001:0007dbd0       __free_dbg                 1007ebd0 f   msvcrtd:MSVCRTD.dll
 0001:0007dbd6       __initterm                 1007ebd6 f   msvcrtd:MSVCRTD.dll
 0001:0007dbe0       __onexit                   1007ebe0 f   msvcrtd:atonexit.obj
 0001:0007dc20       _atexit                    1007ec20 f   msvcrtd:atonexit.obj
 0001:0007dc38       __malloc_dbg               1007ec38 f   msvcrtd:MSVCRTD.dll
 0001:0007dc3e       ___dllonexit               1007ec3e f   msvcrtd:MSVCRTD.dll
 0001:0007dc44       _ReleaseCapture@0          1007ec44 f   user32:USER32.dll
 0001:0007dc4a       _DestroyCursor@4           1007ec4a f   user32:USER32.dll
 0001:0007dc50       _SetCursor@4               1007ec50 f   user32:USER32.dll
 0001:0007dc56       _GetSystemMetrics@4        1007ec56 f   user32:USER32.dll
 0001:0007dc5c       _SetCursorPos@8            1007ec5c f   user32:USER32.dll
 0001:0007e4b0       ?data@CPlex@@QAEPAXXZ      1007f4b0 f i CalcTime.obj
 0001:000855f0       __enc$textbss$begin        100865f0     <linker-defined>
 0001:0014e9f0       __enc$textbss$end          1014f9f0     <linker-defined>
 0002:00000020       ?classCCalcTime@CCalcTime@@2UCRuntimeClass@@B 10150020     CalcTime.obj
 0002:0000003c       ??_C@_09HECJ@CCalcTime?$AA@ 1015003c     CalcTime.obj
 0002:00000048       ??_7C3DMath@@6B@           10150048     CalcTime.obj
 0002:00000060       ??_7CMatObj@@6B@           10150060     CalcTime.obj
 0002:00000168       ??_7CDrLabel@@6B@          10150168     CalcTime.obj
 0002:00000354       ??_7CTriangle@@6B@         10150354     CalcTime.obj
 0002:000003e8       ??_7CCalcTime@@6B@         101503e8     CalcTime.obj
 0002:00000400       __real@8@4008fa00000000000000 10150400     CalcTime.obj
 0002:0000040c       ??_C@_0BI@DMDM@?$CFs?5Takes?5?$CF8?44f?5seconds?4?$AA@ 1015040c     CalcTime.obj
 0002:00000428       __real@8@00000000000000000000 10150428     CalcTime.obj
 0002:00000434       ??_7?$CList@HH@@6B@        10150434     CalcTime.obj
 0002:0000044c       ??_C@_01BJG@?6?$AA@        1015044c     CalcTime.obj
 0002:00000450       ??_C@_05KIFI@with?5?$AA@   10150450     CalcTime.obj
 0002:00000458       ??_C@_09LOPF@?5elements?$AA@ 10150458     CalcTime.obj
 0002:00000464       ??_C@_09IDDL@CCurMouse?$AA@ 10150464     CurMouse.obj
 0002:00000470       ??_7CBooleans@@6B@         10150470     CurMouse.obj
 0002:00000724       ??_7CDataWindow@@6B@       10150724     CurMouse.obj
 0002:000008e0       ??_7CDrFont@@6B@           101508e0     CurMouse.obj
 0002:00000a9c       ??_7CDrPen@@6B@            10150a9c     CurMouse.obj
 0002:00000cc8       ??_7CHitNet@@6B@           10150cc8     CurMouse.obj
 0002:00000e5c       ??_7CLayer@@6B@            10150e5c     CurMouse.obj
 0002:0000103c       ??_7CPatchMnu@@6B@         1015103c     CurMouse.obj
 0002:00001238       ??_7CObj3DMnu@@6B@         10151238     CurMouse.obj
 0002:00001434       ??_7CMapFactor@@6B@        10151434     CurMouse.obj
 0002:000015e4       ??_7CPrecision@@6B@        101515e4     CurMouse.obj
 0002:000017bc       ??_7CScaleFactor@@6B@      101517bc     CurMouse.obj
 0002:00001978       ??_7CUnit@@6B@             10151978     CurMouse.obj
 0002:00001b40       ??_7CElemInfo@@6B@         10151b40     CurMouse.obj
 0002:00001ce4       ??_7CCurMouse@@6B@         10151ce4     CurMouse.obj
 0002:00001d6c       ??_C@_00A@?$AA@            10151d6c     CurMouse.obj
 0002:00001d70       ??_C@_0BB@HGG@?7LevelType?5?$DN?5?$CFd?6?$AA@ 10151d70     CurMouse.obj
 0002:00001d84       ??_C@_0BD@BHEA@?7IsGenerated?5?$DN?5?$CFs?6?$AA@ 10151d84     CurMouse.obj
 0002:00001d9c       ??_C@_0P@LLEC@?7IsCNode?5?$DN?5?$CFs?6?$AA@ 10151d9c     CurMouse.obj
 0002:00001db0       ??_C@_02JOHD@No?$AA@       10151db0     CurMouse.obj
 0002:00001db4       ??_C@_03PEHN@Yes?$AA@      10151db4     CurMouse.obj
 0002:00001db8       ??_C@_0BH@CACO@?7NodeID?$CINode?$CD?$CFd?$CJ?5?$DN?5?$CFs?6?$AA@ 10151db8     CurMouse.obj
 0002:00001dd4       ??_C@_0BI@KALF@CCurMouse?3?3ShowCurve?$CI?$CJ?6?$AA@ 10151dd4     CurMouse.obj
 0002:00001df0       ??_C@_0BM@BMCL@?$CD?5of?5Nodes?5in?5NodeList?5?$DN?5?$CFd?$AA@ 10151df0     CurMouse.obj
 0002:00001e14       ??_C@_0EE@GJJI@Internal?5ERROR?3?6CCurMouse?3?3CurTo@ 10151e14     CurMouse.obj
 0002:00001e68       ??_C@_0M@NNJJ@C4?5Specific?$AA@ 10151e68     CurMouse.obj
 0002:00001e78       ??_C@_02MAJG@C4?$AA@       10151e78     CurMouse.obj
 0002:00001e7c       ??_C@_0DE@DMDM@Creating?5A?5Circle?3?5Click?5in?$EACNod@ 10151e7c     CurMouse.obj
 0002:00001ebc       ??_C@_07FAGP@CNode_B?$AA@  10151ebc     CurMouse.obj
 0002:00001ec8       ??_C@_0DE@HJBO@Creating?5A?5Circle?3?5Click?5in?$EACNod@ 10151ec8     CurMouse.obj
 0002:00001f08       ??_C@_07KPNG@CNode_A?$AA@  10151f08     CurMouse.obj
 0002:00001f14       ??_C@_0DB@LBHG@Creating?5A?5Circle?3?5Click?5in?$EACNod@ 10151f14     CurMouse.obj
 0002:00001f50       ??_C@_0DC@DGNH@Creating?5A?5Circle?3?5Click?5in?$EACNod@ 10151f50     CurMouse.obj
 0002:00001f8c       ??_C@_07CNFF@Node_CC?$AA@  10151f8c     CurMouse.obj
 0002:00001f98       ??_C@_0CK@HMPL@Creating?5A?5Circle?3?5Click?5in?$EANode@ 10151f98     CurMouse.obj
 0002:00001fcc       ??_C@_06NCAB@Node_J?$AA@   10151fcc     CurMouse.obj
 0002:00001fd4       ??_C@_0DH@NIPB@Creating?5A?5Circle?3?5Click?5in?$EATang@ 10151fd4     CurMouse.obj
 0002:00002018       ??_C@_07CHDP@Node_TI?$AA@  10152018     CurMouse.obj
 0002:00002024       ??_C@_0CK@IDEC@Creating?5A?5Circle?3?5Click?5in?$EANode@ 10152024     CurMouse.obj
 0002:00002058       ??_C@_06CNLI@Node_I?$AA@   10152058     CurMouse.obj
 0002:00002060       ??_C@_0EI@GCGA@Circle?3?5Click?5in?52nd?5?$CIC?$CJNode?5def@ 10152060     CurMouse.obj
 0002:000020b8       ??_C@_07PBEG@To?5Node?$AA@ 101520b8     CurMouse.obj
 0002:000020c4       ??_C@_04HKJH@Axis?$AA@     101520c4     CurMouse.obj
 0002:000020cc       ??_C@_0DG@FLFO@Creating?5A?5Circle?3?5Click?5in?$EAIst?5@ 101520cc     CurMouse.obj
 0002:0000210c       ??_C@_09OFID@From?5Node?$AA@ 1015210c     CurMouse.obj
 0002:00002118       ??_C@_0CL@BNNI@Creating?5A?5Circle?3?5Click?5in?$EANode@ 10152118     CurMouse.obj
 0002:0000214c       ??_C@_08FMLM@Rot?4Node?$AA@ 1015214c     CurMouse.obj
 0002:00002158       ??_C@_0CL@HNGI@Ready?5with?5Other?5Info?4?$DP?$EAClick?5Ri@ 10152158     CurMouse.obj
 0002:0000218c       ??_C@_0BP@NOMK@Select?$EALast?5Node?5on?5the?5Circle?$AA@ 1015218c     CurMouse.obj
 0002:000021b4       ??_C@_09GMMK@Last?5Node?$AA@ 101521b4     CurMouse.obj
 0002:000021c0       ??_C@_0DD@DKHK@Creating?5A?5Circle?3?5Click?5in?$EA2nd?5@ 101521c0     CurMouse.obj
 0002:00002200       ??_C@_08OHKJ@2nd?5Node?$AA@ 10152200     CurMouse.obj
 0002:0000220c       ??_C@_0DD@LGNJ@Creating?5A?5Circle?3?5Click?5in?$EAIst?5@ 1015220c     CurMouse.obj
 0002:0000224c       ??_C@_08KBAG@Ist?5Node?$AA@ 1015224c     CurMouse.obj
 0002:00002258       ??_C@_0EF@MMMI@Select?5Another?5Node?5or?5If?5Ready?$EA@ 10152258     CurMouse.obj
 0002:000022ac       ??_C@_0DM@OIIP@Single?5Segment?5Bezier?5Curve?$EA?$CIUpt@ 101522ac     CurMouse.obj
 0002:000022f4       ??_C@_0DK@CMG@Continuing?5on?5Same?5Curve?3?5Click?5@ 101522f4     CurMouse.obj
 0002:0000233c       ??_C@_0DN@HJJD@Continuing?5on?5Same?5Curve?3?5Click?5@ 1015233c     CurMouse.obj
 0002:00002388       ??_C@_0DH@IMA@Creating?5New?5Curve?3?5Click?5in?$EAAno@ 10152388     CurMouse.obj
 0002:000023cc       ??_C@_0EC@NOPJ@Creating?5Single?5Segment?5Curve?$EACl@ 101523cc     CurMouse.obj
 0002:0000241c       ??_C@_0DC@GGLF@Creating?5New?5Curve?3?5Click?5in?5?$EAa?5@ 1015241c     CurMouse.obj
 0002:00002458       ??_C@_0EE@NAEM@Creating?5Single?5Segment?5Curve?$EACl@ 10152458     CurMouse.obj
 0002:000024ac       ??_C@_0EO@KKPO@ERROR?3?6Same?5Node?5More?5than?5Once?$CB@ 101524ac     CurMouse.obj
 0002:0000250c       ??_C@_0BP@HBIO@?6NO?3?7?7Cancel?5Selection?5Process?$AA@ 1015250c     CurMouse.obj
 0002:00002534       ??_C@_0CE@ONCB@?6?6YES?3?7?7Create?5A?5New?5?$CIC?$CJNode?5Any@ 10152534     CurMouse.obj
 0002:00002560       ??_C@_0BP@ILEI@?$CK?$CK?$CK?$CK?$CK?5No?5More?5Node?5Found?5?$CK?$CK?$CK?$CK?6?$AA@ 10152560     CurMouse.obj
 0002:00002588       ??_C@_0CG@NGII@?6CANCEL?3?7?7Create?5A?5New?5?$CIC?$CJNode?5A@ 10152588     CurMouse.obj
 0002:000025b8       ??_C@_0CB@NEFG@?6NO?3?7?7Continue?5Searching?5?$CIC?$CJNode@ 101525b8     CurMouse.obj
 0002:000025e0       ??_C@_0CF@EGAI@?6?6YES?3?7?7Accept?5This?5Existing?5?$CIC?$CJ@ 101525e0     CurMouse.obj
 0002:0000260c       ??_C@_0BK@DPPH@?$CIwith?5a?5Net?5Sieve?5of?5?$CFf?$CJ?6?$AA@ 1015260c     CurMouse.obj
 0002:0000262c       ??_C@_0BO@NIIB@?$CK?$CK?$CK?$CK?$CK?5An?5Input?5Node?5Hit?5?$CK?$CK?$CK?$CK?6?$AA@ 1015262c     CurMouse.obj
 0002:00002650       ??_C@_0BP@MLMK@?$CK?$CK?$CK?$CK?$CK?5A?5Control?5Node?5Hit?5?$CK?$CK?$CK?$CK?6?$AA@ 10152650     CurMouse.obj
 0002:00002678       ??_C@_0DI@FPOC@ERROR?3?6CCurMouse?3?3NewNode_OtherC@ 10152678     CurMouse.obj
 0002:000026bc       ??_C@_0BI@OMAI@?6?6Accept?5This?5New?5Node?$DP?$AA@ 101526bc     CurMouse.obj
 0002:000026d8       ??_C@_0FD@NJM@?$CK?$CK?$CK?$CK?$CK?5A?5New?5Node?5Creation?3?5?$CK?$CK?$CK?$CK?$CK@ 101526d8     CurMouse.obj
 0002:0000273c       ??_C@_01FBAH@1?$AA@        1015273c     CurMouse.obj
 0002:00002740       ??_C@_0DG@IJJH@?6?$CK?$CK?$CKTo?5set?5Sievesize?0?5Adjust?5Net@ 10152740     CurMouse.obj
 0002:00002780       ??_C@_0BO@LMOC@?6NO?3?7?7Create?5New?5Node?5Anyway?6?$AA@ 10152780     CurMouse.obj
 0002:000027a4       ??_C@_0BN@CPOE@?6?6YES?3?7?7Accept?5Existing?5Node?$AA@ 101527a4     CurMouse.obj
 0002:000027c8       ??_C@_0CM@GEFM@?$CK?$CK?$CK?$CK?$CK?5A?5Node?5with?5same?5Coords?5Ex@ 101527c8     CurMouse.obj
 0002:000027fc       ??_C@_0DL@MKOJ@ERROR?3?6CCurMouse?3?3LeftUp_CURVE?6C@ 101527fc     CurMouse.obj
 0002:00002844       ??_C@_0CD@NDGH@?6CANCEL?3?7?7Cancel?5Selection?5Proce@ 10152844     CurMouse.obj
 0002:00002870       ??_C@_0CO@IKCN@?6NO?3?7?7Find?5Next?5Curve?5with?5Inter@ 10152870     CurMouse.obj
 0002:000028a8       ??_C@_0BJ@BEOM@?6YES?3?7?7Accept?5This?5Curve?$AA@ 101528a8     CurMouse.obj
 0002:000028c8       ??_C@_02GDLA@?$DL?5?$AA@   101528c8     CurMouse.obj
 0002:000028cc       ??_C@_04GCDK@?$CFs?0?5?$AA@ 101528cc     CurMouse.obj
 0002:000028d4       ??_C@_07FKCA@Nodes?3?6?$AA@ 101528d4     CurMouse.obj
 0002:000028e0       ??_C@_0DB@EPIA@Curve?5?$CFs?5contains?3?6?7?$CFd?5Input?5Nod@ 101528e0     CurMouse.obj
 0002:0000291c       ??_C@_0BB@FKHB@?7?$CFs?5is?5CNode_CB?6?$AA@ 1015291c     CurMouse.obj
 0002:00002930       ??_C@_0BB@GBIO@?7?$CFs?5is?5CNode_CA?6?$AA@ 10152930     CurMouse.obj
 0002:00002944       ??_C@_0DE@HPFA@2?5Control?5Nodes?5on?5Tangents?5?$CG?6Ta@ 10152944     CurMouse.obj
 0002:00002984       ??_C@_0DP@OLB@Circle?5?$CFs?5contains?3?6?7?$CFd?5InPut?5No@ 10152984     CurMouse.obj
 0002:000029d0       ??_C@_0BE@HBGA@?7?$CFs?5is?5Center?5Node?6?$AA@ 101529d0     CurMouse.obj
 0002:000029e8       ??_C@_0BG@EGFA@2?5End?5Nodes?5?$CG?5Center?6?$AA@ 101529e8     CurMouse.obj
 0002:00002a04       ??_C@_0CC@HMDN@?7?$CFs?5is?5Tangent?5Intersection?5Node@ 10152a04     CurMouse.obj
 0002:00002a2c       ??_C@_0CE@CCOB@2?5End?5Nodes?5?$CG?5Tangent?5Intersecti@ 10152a2c     CurMouse.obj
 0002:00002a58       ??_C@_0BE@BEPD@?7Arc?5upto?53rd?5Node?6?$AA@ 10152a58     CurMouse.obj
 0002:00002a70       ??_C@_0DC@KEJB@Circle?5?$CFs?5contains?3?6?7?$CFd?5Input?5No@ 10152a70     CurMouse.obj
 0002:00002aac       ??_C@_0BK@DFNO@?7?$CFf?5is?5Angle?5of?5Rotation?6?$AA@ 10152aac     CurMouse.obj
 0002:00002acc       ??_C@_0BA@PJPF@?7Closed?5Circle?6?$AA@ 10152acc     CurMouse.obj
 0002:00002ae0       ??_C@_0CE@CGKA@?7?$CFs?5and?5?$CFs?5are?5Axis?5defining?5Nod@ 10152ae0     CurMouse.obj
 0002:00002b0c       ??_C@_0BL@IHFM@?7Axis?5of?5Rotation?5?$DN?5?$CFs?5?$CFs?6?$AA@ 10152b0c     CurMouse.obj
 0002:00002b2c       ??_C@_08COKH@Negative?$AA@ 10152b2c     CurMouse.obj
 0002:00002b38       ??_C@_08HJPD@Positive?$AA@ 10152b38     CurMouse.obj
 0002:00002b44       ??_C@_06OLON@Z?9Axis?$AA@  10152b44     CurMouse.obj
 0002:00002b4c       ??_C@_06FFAN@Y?9Axis?$AA@  10152b4c     CurMouse.obj
 0002:00002b54       ??_C@_06MAKN@X?9Axis?$AA@  10152b54     CurMouse.obj
 0002:00002b5c       ??_C@_0DK@NDNM@Circle?5?$CFs?5contains?3?6?7?$CFd?5InputNod@ 10152b5c     CurMouse.obj
 0002:00002ba4       ??_C@_0BJ@PMCG@?$CK?$CK?$CK?$CK?$CK?5A?5Curve?5Hit?5?$CK?$CK?$CK?$CK?$CK?6?$AA@ 10152ba4     CurMouse.obj
 0002:00002bc4       ??_C@_0DP@PLGI@INVALID?5DATA?3?6For?5Curve?6Atleast?5@ 10152bc4     CurMouse.obj
 0002:00002c10       ??_C@_0EF@OPLA@INVALID?5DATA?3?6For?5Open?5Circle?6At@ 10152c10     CurMouse.obj
 0002:00002c64       ??_C@_0EI@NFIM@INVALID?5DATA?3?6For?5Closed?5Circle?6@ 10152c64     CurMouse.obj
 0002:00002cbc       ??_C@_0CP@MOKC@Are?5You?5Sure?5You?5Want?5to?6Delete?5@ 10152cbc     CurMouse.obj
 0002:00002cf4       ??_C@_0BL@CGBN@Minimum?5of?52?5Nodes?5Needed?6?$AA@ 10152cf4     CurMouse.obj
 0002:00002d14       ??_C@_0BI@HMJA@Exactly?53?5Nodes?5Needed?6?$AA@ 10152d14     CurMouse.obj
 0002:00002d30       ??_C@_0CO@NLH@ERROR?3?6?7?$CFd?5Nodes?5Input?5to?5genera@ 10152d30     CurMouse.obj
 0002:00002d68       ??_C@_0CO@IMMJ@Do?5You?5want?5to?5Continue?5to?5Get?5M@ 10152d68     CurMouse.obj
 0002:00002da0       ??_C@_0CP@KNED@Exactly?53?5Nodes?5and?1or?5CNodes?5Co@ 10152da0     CurMouse.obj
 0002:00002dd8       ??_C@_0CP@BLHG@ERROR?3?6?7?$CFd?5Nodes?5Input?5to?5genera@ 10152dd8     CurMouse.obj
 0002:00002e10       ??_C@_0DJ@DEGG@Curve?5?$CFs?5contains?3?6?7?$CFd?5Interpola@ 10152e10     CurMouse.obj
 0002:00002e54       ??_C@_0DJ@IOOH@Circle?5?$CFs?5contains?3?6?7?$CFd?5Nodes?6?7?$CF@ 10152e54     CurMouse.obj
 0002:00002e98       ??_C@_0CM@FLOG@Circle?5?$CFs?5contains?3?6?7?$CFd?5Nodes?6?7?$CF@ 10152e98     CurMouse.obj
 0002:00002ecc       ??_C@_0DK@LMMM@Circle?5?$CFs?5contains?3?6?7?$CFd?5Interpol@ 10152ecc     CurMouse.obj
 0002:00002f18       __real@8@4007b400000000000000 10152f18     CurMouse.obj
 0002:00002f24       ??_C@_0BL@JCCE@?7?$CFs?5and?5?$CFs?5are?5Axis?5Nodes?6?$AA@ 10152f24     CurMouse.obj
 0002:00002f44       ??_C@_0DF@FBGK@Circle?5?$CFs?5contains?3?6?7?$CFd?5Node?5to?5@ 10152f44     CurMouse.obj
 0002:00002f84       ??_C@_0DJ@IFIA@ERROR?3?6CCurMouse?3?3PutEndIdsInPip@ 10152f84     CurMouse.obj
 0002:00002fc8       ??_C@_07CNPM@UNKNOWN?$AA@  10152fc8     CurMouse.obj
 0002:00002fd4       ??_C@_0O@OMPD@UNKNOWN?$EACURVE?$AA@ 10152fd4     CurMouse.obj
 0002:00002fe4       ??_C@_0N@OFLO@A?5NURB?5Curve?$AA@ 10152fe4     CurMouse.obj
 0002:00002ff4       ??_C@_0L@KEOC@CUBIC?$EANURB?$AA@ 10152ff4     CurMouse.obj
 0002:00003004       ??_C@_0BA@BOHF@A?5BSpline?5Curve?$AA@ 10153004     CurMouse.obj
 0002:00003018       ??_C@_0P@CAOI@A?5Bezier?5Curve?$AA@ 10153018     CurMouse.obj
 0002:0000302c       ??_C@_0P@EKLJ@ONE_SEG?$EABEZIER?$AA@ 1015302c     CurMouse.obj
 0002:00003040       ??_C@_0BA@DBFK@A?5Hermite?5Curve?$AA@ 10153040     CurMouse.obj
 0002:00003054       ??_C@_0O@GIGI@HERMITE?$EACURVE?$AA@ 10153054     CurMouse.obj
 0002:00003064       ??_C@_0O@KCHC@A?5Cubic?5Curve?$AA@ 10153064     CurMouse.obj
 0002:00003074       ??_C@_0O@GAKE@CUBIC?$EABSPLINE?$AA@ 10153074     CurMouse.obj
 0002:00003084       ??_C@_0BC@IFJC@A?5Quadratic?5Curve?$AA@ 10153084     CurMouse.obj
 0002:0000309c       ??_C@_0BC@BCGE@QUADRATIC?$EABSPLINE?$AA@ 1015309c     CurMouse.obj
 0002:000030b4       ??_C@_0P@CFHE@A?5Linear?5Curve?$AA@ 101530b4     CurMouse.obj
 0002:000030c8       ??_C@_0P@NEDB@LINEAR?$EABSPLINE?$AA@ 101530c8     CurMouse.obj
 0002:000030dc       ??_C@_0M@OKIE@A?5Hyperbola?$AA@ 101530dc     CurMouse.obj
 0002:000030ec       ??_C@_0BB@CCMH@HYPERBOLIC?$EACURVE?$AA@ 101530ec     CurMouse.obj
 0002:00003100       ??_C@_0L@HGLC@A?5Parabola?$AA@ 10153100     CurMouse.obj
 0002:00003110       ??_C@_0BA@OGNH@PARABOLIC?$EACURVE?$AA@ 10153110     CurMouse.obj
 0002:00003124       ??_C@_0L@GKEB@An?5Ellipse?$AA@ 10153124     CurMouse.obj
 0002:00003134       ??_C@_0P@FKBO@ELLIPTIC?$EACURVE?$AA@ 10153134     CurMouse.obj
 0002:00003148       ??_C@_0BF@IIDP@Select?5a?5Circle?5Type?$AA@ 10153148     CurMouse.obj
 0002:00003164       ??_C@_0P@NDHC@CIRCULAR?$EACURVE?$AA@ 10153164     CurMouse.obj
 0002:00003178       ??_C@_0BE@HLKH@Select?5a?5Curve?5Type?$AA@ 10153178     CurMouse.obj
 0002:00003190       ??_C@_05EKJA@CURVE?$AA@    10153190     CurMouse.obj
 0002:00003198       ??_C@_07BEMM@ELEMENT?$AA@  10153198     CurMouse.obj
 0002:000031a4       ??_C@_06JBCM@CREATE?$AA@   101531a4     CurMouse.obj
 0002:000031ac       ??_C@_0BE@HDO@Ready?5for?5Creation?$EA?$AA@ 101531ac     CurMouse.obj
 0002:000031c4       ??_C@_0CC@KLJM@?$EASelect?5the?5Ist?5Node?5on?5the?5Curv@ 101531c4     CurMouse.obj
 0002:000031ec       ??_C@_0DP@LFLJ@Last?5Node?5Selected?5as?5the?5Ist?$EASe@ 101531ec     CurMouse.obj
 0002:00003238       ??_C@_0BG@KHHO@Creating?5A?5NURB?5Curve?$AA@ 10153238     CurMouse.obj
 0002:00003254       ??_C@_0BJ@DJIM@Creating?5A?5BSpline?5Curve?$AA@ 10153254     CurMouse.obj
 0002:00003274       ??_C@_0BI@NJEB@Creating?5A?5Bezier?5Curve?$AA@ 10153274     CurMouse.obj
 0002:00003290       ??_C@_0BJ@BGKD@Creating?5A?5Hermite?5Curve?$AA@ 10153290     CurMouse.obj
 0002:000032b0       ??_C@_0BH@LDA@Creating?5A?5Cubic?5Curve?$AA@ 101532b0     CurMouse.obj
 0002:000032cc       ??_C@_0BL@EPOL@Creating?5A?5Quadratic?5Curve?$AA@ 101532cc     CurMouse.obj
 0002:000032ec       ??_C@_0BI@NMNN@Creating?5A?5Linear?5Curve?$AA@ 101532ec     CurMouse.obj
 0002:00003308       ??_C@_0BF@CKJI@Creating?5A?5Hyperbola?$AA@ 10153308     CurMouse.obj
 0002:00003324       ??_C@_0BE@GKGK@Creating?5A?5Parabola?$AA@ 10153324     CurMouse.obj
 0002:0000333c       ??_C@_0BE@HGJJ@Creating?5An?5Ellipse?$AA@ 1015333c     CurMouse.obj
 0002:00003354       ??_C@_0DP@GIKB@Last?5Node?5Selected?5as?5Node_CA?$EASe@ 10153354     CurMouse.obj
 0002:000033a0       ??_C@_0CL@FEOP@Last?5Node?5Selected?5as?5Node_I?$EASel@ 101533a0     CurMouse.obj
 0002:000033d4       ??_C@_0DO@KGE@Last?5Node?5Selected?5as?5Node_I?$EASel@ 101533d4     CurMouse.obj
 0002:00003420       ??_C@_0CI@PMOL@Last?5Node?5Selected?5as?$EAthe?5Node?5a@ 10153420     CurMouse.obj
 0002:00003450       ??_C@_0CH@LCCC@Creating?5Circle?$EASelect?5a?5Node?5at@ 10153450     CurMouse.obj
 0002:00003480       ??_C@_0CE@JPJE@Creating?5Circle?$EASelect?5the?52nd?5N@ 10153480     CurMouse.obj
 0002:000034ac       ??_C@_0CP@FKI@Creating?5Circle?$EASelect?5CNode_CA?5@ 101534ac     CurMouse.obj
 0002:000034e4       ??_C@_0CI@LDMD@Creating?5Circle?$EASelect?5a?5Node?5fo@ 101534e4     CurMouse.obj
 0002:00003514       ??_C@_0DK@GCMH@Internal?5ERROR?3?6CCurMouse?3?3Updat@ 10153514     CurMouse.obj
 0002:00003560       __real@8@3fff8000000000000000 10153560     CurMouse.obj
 0002:00003570       __real@8@bfff8000000000000000 10153570     CurMouse.obj
 0002:0000357c       ??_C@_0BH@IAH@?5CurMouse?3?5?5?5?5Loading?6?$AA@ 1015357c     CurMouse.obj
 0002:00003598       ??_C@_0BH@MPFB@?5CurMouse?3?5?5?5?5Storing?6?$AA@ 10153598     CurMouse.obj
 0002:000035b4       ??_C@_08KMJF@CDBMouse?$AA@ 101535b4     Dbmouse.obj
 0002:000035c0       ??_7CDrFreeHand@@6B@       101535c0     Dbmouse.obj
 0002:0000375c       ??_7CDBMouse@@6B@          1015375c     Dbmouse.obj
 0002:00003790       ??_C@_0BA@GPA@Use?5Node?5Dialog?$AA@ 10153790     Dbmouse.obj
 0002:000037a4       ??_C@_0BG@NCHH@?5DBMouse?3?5?5?5?5Loading?6?$AA@ 101537a4     Dbmouse.obj
 0002:000037c0       ??_C@_0BG@BFCB@?5DBMouse?3?5?5?5?5Storing?6?$AA@ 101537c0     Dbmouse.obj
 0002:000037dc       ??_C@_09IJOC@CDLDMouse?$AA@ 101537dc     DLDmouse.obj
 0002:000037e8       ??_7CDLDMouse@@6B@         101537e8     DLDmouse.obj
 0002:000038a8       ??_C@_0BH@MCHM@?5DLDMouse?3?5?5?5?5Loading?6?$AA@ 101538a8     DLDmouse.obj
 0002:000038c4       ??_C@_0BH@FCK@?5DLDMouse?3?5?5?5?5Storing?6?$AA@ 101538c4     DLDmouse.obj
 0002:000038e0       ??_C@_09IBLB@CMI_Cur_I?$AA@ 101538e0     Mi_cur_i.obj
 0002:000038ec       ??_7CMI_Cur_I@@6B@         101538ec     Mi_cur_i.obj
 0002:00003930       ??_C@_0BG@GFFK@?5ELMouse?3?5?5?5?5Loading?6?$AA@ 10153930     Mi_cur_i.obj
 0002:0000394c       ??_C@_0BG@KCAM@?5ELMouse?3?5?5?5?5Storing?6?$AA@ 1015394c     Mi_cur_i.obj
 0002:00003968       ??_C@_09NKDE@CMI_Obj3D?$AA@ 10153968     Mi_obj3d.obj
 0002:00003974       ??_7CMI_Obj3D@@6B@         10153974     Mi_obj3d.obj
 0002:000039b0       ??_C@_0BF@DGDI@?5MI_Obj3D?3?5?7Loading?6?$AA@ 101539b0     Mi_obj3d.obj
 0002:000039cc       ??_C@_0BG@PJHF@?5MI_Obj3D?3?5?5?5Storing?6?$AA@ 101539cc     Mi_obj3d.obj
 0002:000039e8       ??_C@_09EPJF@CMI_Pat_I?$AA@ 101539e8     Mi_pat_i.obj
 0002:000039f4       ??_7CXForm@@6B@            101539f4     Mi_pat_i.obj
 0002:00003aa0       ??_7CMI_Pat_I@@6B@         10153aa0     Mi_pat_i.obj
 0002:00003ae4       ??_C@_0BH@PLCB@?5MI_PAT_I?3?5?5?5?5Loading?6?$AA@ 10153ae4     Mi_pat_i.obj
 0002:00003b00       ??_C@_0BH@DMHH@?5MI_PAT_I?3?5?5?5?5Storing?6?$AA@ 10153b00     Mi_pat_i.obj
 0002:00003b1c       ??_C@_09OLFJ@CMI_Sol_I?$AA@ 10153b1c     Mi_sol_i.obj
 0002:00003b28       ??_7CMI_Sol_I@@6B@         10153b28     Mi_sol_i.obj
 0002:00003b6c       ??_C@_0BH@EOMI@?5MI_SOL_I?3?5?5?5?5Loading?6?$AA@ 10153b6c     Mi_sol_i.obj
 0002:00003b88       ??_C@_0BH@IJJO@?5MI_SOL_I?3?5?5?5?5Storing?6?$AA@ 10153b88     Mi_sol_i.obj
 0002:00003ba4       ??_C@_0BH@FOFF@MMgr?4DLL?5Terminating?$CB?6?$AA@ 10153ba4     Mmgrdll.obj
 0002:00003bc0       ??_C@_02DILL@?$CFs?$AA@    10153bc0     Mmgrdll.obj
 0002:00003bc4       ??_C@_0BI@HKMF@MMgr?4DLL?5Initializing?$CB?6?$AA@ 10153bc4     Mmgrdll.obj
 0002:00003be0       ??_C@_06PFNN@CMouse?$AA@   10153be0     Mouse.obj
 0002:00003be8       ??_7CMouse@@6B@            10153be8     Mouse.obj
 0002:00003c00       ??_C@_01PCJP@Y?$AA@        10153c00     Mouse.obj
 0002:00003c04       ??_C@_01FIAI@X?$AA@        10153c04     Mouse.obj
 0002:00003c08       ??_C@_01NCG@Z?$AA@         10153c08     Mouse.obj
 0002:00003c0c       ??_C@_0DB@HOAM@Error?3CMouse?3?3LabelHit_InitBM?6La@ 10153c0c     Mouse.obj
 0002:00003c48       ??_C@_0BE@JBJN@?5Mouse?3?5?5?5?5Loading?6?$AA@ 10153c48     Mouse.obj
 0002:00003c60       ??_C@_0BE@FGML@?5Mouse?3?5?5?5?5Storing?6?$AA@ 10153c60     Mouse.obj
 0002:00003c78       ??_C@_09MCLG@CMouseMgr?$AA@ 10153c78     Mousemgr.obj
 0002:00003c84       ??_C@_0BG@LFDF@resource?5string?5?$DN?5?$CFs?6?$AA@ 10153c84     Mousemgr.obj
 0002:00003ca0       ??_7CMouseMgr@@6B@         10153ca0     Mousemgr.obj
 0002:00003cb8       ??_C@_0BE@FJGK@?5MouseMgr?7?3Loading?6?$AA@ 10153cb8     Mousemgr.obj
 0002:00003cd0       ??_C@_0BE@JODM@?5MouseMgr?7?3Storing?6?$AA@ 10153cd0     Mousemgr.obj
 0002:00003ce8       ??_C@_09ENMF@CNodMouse?$AA@ 10153ce8     NodMouse.obj
 0002:00003cf4       ??_7CNodMouse@@6B@         10153cf4     NodMouse.obj
 0002:00003d24       ??_C@_0EG@OIMP@ERROR?3?6CNodMouse?3?3ShowNode?6Shoul@ 10153d24     NodMouse.obj
 0002:00003d78       ??_C@_0N@LDOD@CONTROL?5Node?$AA@ 10153d78     NodMouse.obj
 0002:00003d88       ??_C@_0P@KJIC@A?5Control?5Node?$AA@ 10153d88     NodMouse.obj
 0002:00003d9c       ??_C@_0L@KHMA@INPUT?5Node?$AA@ 10153d9c     NodMouse.obj
 0002:00003dac       ??_C@_0O@BCJB@An?5Input?5Node?$AA@ 10153dac     NodMouse.obj
 0002:00003dbc       ??_C@_0BF@EJDL@Ready?5for?5Selection?$EA?$AA@ 10153dbc     NodMouse.obj
 0002:00003dd8       ??_C@_0CC@MKOC@This?5Routine?5Should?5NOT?5be?5Calle@ 10153dd8     NodMouse.obj
 0002:00003e00       ??_C@_0DK@DHHF@ERROR?3?6CNodMouse?3?3LeftUp_Node_No@ 10153e00     NodMouse.obj
 0002:00003e48       ??_C@_0FC@KDPH@?$CK?$CK?$CK?$CK?$CK?5New?5Node?5Selection?3?5?$CK?$CK?$CK?$CK?$CK?6@ 10153e48     NodMouse.obj
 0002:00003eac       ??_C@_0FF@DNAO@ERROR?3?6CNodMouse?3?3LeftUp_NODE_No@ 10153eac     NodMouse.obj
 0002:00003f14       ??_C@_0DF@EGHA@Input?5ERROR?3?6NodeID?5is?5Blank?$CB?6Pl@ 10153f14     NodMouse.obj
 0002:00003f54       ??_C@_0CA@PKNM@Please?5Input?5a?5Distinct?5Node?5ID?$AA@ 10153f54     NodMouse.obj
 0002:00003f7c       ??_C@_0DA@FCDN@?$CK?$CK?$CK?$CK?$CK?5ERROR?3?5A?5Node?5with?5same?5ID@ 10153f7c     NodMouse.obj
 0002:00003fb8       ??_C@_0BO@GMHC@?6NO?3?7?7Do?5Not?5Create?5New?5Node?6?$AA@ 10153fb8     NodMouse.obj
 0002:00003fdc       ??_C@_0BP@ICNP@?6?6YES?3?7?7Create?5New?5Node?5Anyway?$AA@ 10153fdc     NodMouse.obj
 0002:00004004       ??_C@_05KFME@value?$AA@    10154004     NodMouse.obj
 0002:0000400c       ??_C@_06CAAP@Length?$AA@   1015400c     NodMouse.obj
 0002:00004014       ??_C@_09DONA@Ref?4?5Node?$AA@ 10154014     NodMouse.obj
 0002:00004020       ??_C@_09MJKL@Increment?$AA@ 10154020     NodMouse.obj
 0002:0000402c       ??_C@_09GBHJ@Direction?$AA@ 1015402c     NodMouse.obj
 0002:00004038       ??_C@_08CINJ@Dominant?$AA@ 10154038     NodMouse.obj
 0002:00004044       ??_C@_06BOAN@Direct?$AA@   10154044     NodMouse.obj
 0002:0000404c       ??_C@_0CJ@BBEA@CLICK?5in?$EAAxis_defining?52nd?5Node?5@ 1015404c     NodMouse.obj
 0002:00004080       ??_C@_0BO@DHCG@CLICK?5in?$EAAxis?5Node_To?5Coords?4?$AA@ 10154080     NodMouse.obj
 0002:000040a4       ??_C@_0CK@EACP@TYPE?5in?$EAAxis?5Node_To?5Coords?5in?5D@ 101540a4     NodMouse.obj
 0002:000040d8       ??_C@_0CL@CDG@Ready?5with?5other?5Info?4?$DP?$EAClick?5Ri@ 101540d8     NodMouse.obj
 0002:0000410c       ??_C@_0CJ@PMIK@CLICK?5in?$EAAxis_defining?5Ist?5Node?5@ 1015410c     NodMouse.obj
 0002:00004140       ??_C@_0CA@BLLP@CLICK?5in?$EAAxis?5Node_From?5Coords?4?$AA@ 10154140     NodMouse.obj
 0002:00004168       ??_C@_0CM@BOJ@TYPE?5in?$EAAxis?5Node_From?5Coords?5in@ 10154168     NodMouse.obj
 0002:0000419c       ??_C@_02PNCJ@DZ?$AA@       1015419c     NodMouse.obj
 0002:000041a0       ??_C@_02CJA@DY?$AA@        101541a0     NodMouse.obj
 0002:000041a4       ??_C@_02KIAH@DX?$AA@       101541a4     NodMouse.obj
 0002:000041a8       ??_C@_06HJEM@values?$AA@   101541a8     NodMouse.obj
 0002:000041b0       ??_C@_0CJ@IPIK@TYPE?5in?$EAIncremental?5Coords?5in?5Di@ 101541b0     NodMouse.obj
 0002:000041e4       ??_C@_0CL@FLFD@CLICK?5On?$EA?5A?5Reference?5Node?5or?5Co@ 101541e4     NodMouse.obj
 0002:00004218       ??_C@_05DPGI@Third?$AA@    10154218     NodMouse.obj
 0002:00004220       ??_C@_05ELAO@Coord?$AA@    10154220     NodMouse.obj
 0002:00004228       ??_C@_0CA@JFBP@CLICK?5in?$EAReference?5Node?5Coords?4?$AA@ 10154228     NodMouse.obj
 0002:00004250       ??_C@_0CN@LPLK@TYPE?5in?$EAReference?5Node?5Coords?4?5i@ 10154250     NodMouse.obj
 0002:00004288       ??_C@_06FCKC@Coords?$AA@   10154288     NodMouse.obj
 0002:00004290       ??_C@_0BJ@BPLO@Advanced?5Node?5Creation?3?5?$AA@ 10154290     NodMouse.obj
 0002:000042b0       ??_C@_0DF@BIPK@Degenerate?5Reference?5Line?3?6Same?5@ 101542b0     NodMouse.obj
 0002:000042f0       ??_C@_0CF@LG@?6NO?3?7?7Find?5Next?5Node?5with?5same?5T@ 101542f0     NodMouse.obj
 0002:0000431c       ??_C@_0BJ@HBEP@?6?6YES?3?7?7Accept?5This?5Node?$AA@ 1015431c     NodMouse.obj
 0002:0000433c       ??_C@_0BH@PJM@?$CK?$CK?$CK?$CK?$CK?5A?5Node?5Hit?5?$CK?$CK?$CK?$CK?6?$AA@ 1015433c     NodMouse.obj
 0002:00004358       ??_C@_0CG@POKD@Internal?5Error?3?6Increase?5buffer?5@ 10154358     NodMouse.obj
 0002:00004388       ??_C@_0BC@BFCP@?6?6Final?5Coords?3?5?6?$AA@ 10154388     NodMouse.obj
 0002:000043a0       ??_C@_0P@ODLL@?6?7Length?5?5?$DN?5?$CFf?$AA@ 101543a0     NodMouse.obj
 0002:000043b4       ??_C@_0BD@BJAB@?6?6Axis_To?5Coords?3?6?$AA@ 101543b4     NodMouse.obj
 0002:000043cc       ??_C@_0BI@HFPJ@?6?6Axis_To?5Node?5ID?5?$DN?5?$CFs?6?$AA@ 101543cc     NodMouse.obj
 0002:000043e8       ??_C@_0BF@EHMG@?6?6Axis_From?5Coords?3?6?$AA@ 101543e8     NodMouse.obj
 0002:00004404       ??_C@_0BK@LBKA@?6?6Axis_From?5Node?5ID?5?$DN?5?$CFs?6?$AA@ 10154404     NodMouse.obj
 0002:00004424       ??_C@_0P@DMM@?6?6Increments?3?6?$AA@ 10154424     NodMouse.obj
 0002:00004438       ??_C@_08CIGI@?6?7Z?7?$DN?5?$CFf?$AA@ 10154438     NodMouse.obj
 0002:00004444       ??_C@_08JGII@?6?7Y?7?$DN?5?$CFf?$AA@ 10154444     NodMouse.obj
 0002:00004450       ??_C@_08DCI@?6?7X?7?$DN?5?$CFf?$AA@ 10154450     NodMouse.obj
 0002:0000445c       ??_C@_0BF@NOAM@?6?6Reference?5Coords?3?6?$AA@ 1015445c     NodMouse.obj
 0002:00004478       ??_C@_0BK@LKED@?6?6Reference?5Node?5ID?5?$DN?5?$CFs?6?$AA@ 10154478     NodMouse.obj
 0002:00004498       ??_C@_0BF@HNJE@?6?6New?5Node?5ID?5?$DN?5?$CFs?6?6?$AA@ 10154498     NodMouse.obj
 0002:000044b4       ??_C@_0BH@PNGI@?$CK?$CK?$CK?$CK?$CK?5Node?5Info?5?$CK?$CK?$CK?$CK?$CK?$CK?$AA@ 101544b4     NodMouse.obj
 0002:000044d0       ??_C@_0CD@BAHG@?6?7?$CK?$CK?$CK?$CK?5This?5is?5an?5Input?5Node?5?$CK?$CK?$CK@ 101544d0     NodMouse.obj
 0002:000044fc       ??_C@_0CE@BIPL@?6?7?$CK?$CK?$CK?$CK?5This?5is?5a?5Control?5Node?5?$CK?$CK@ 101544fc     NodMouse.obj
 0002:00004528       ??_C@_0DP@OMJH@?6Existing?5NodeID?5?$DN?5?$CFs?6Coordinate@ 10154528     NodMouse.obj
 0002:00004574       ??_C@_0DH@LMAO@Do?5You?5Want?5to?5Delete?6Current?5No@ 10154574     NodMouse.obj
 0002:000045b8       ??_C@_0CB@DOOP@A?5Reference?5Node?5or?5Control?5Node@ 101545b8     NodMouse.obj
 0002:000045e0       ??_C@_0CL@KGHD@Ready?5for?5Another?5Node?5Creation?4@ 101545e0     NodMouse.obj
 0002:00004614       ??_C@_0N@DMAE@UNKNOWN?$EANODE?$AA@ 10154614     NodMouse.obj
 0002:00004624       ??_C@_0BI@HDPL@Click?5in?5a?5Control?5Node?$AA@ 10154624     NodMouse.obj
 0002:00004640       ??_C@_0N@PIKM@Control?$EANODE?$AA@ 10154640     NodMouse.obj
 0002:00004650       ??_C@_0BH@GLHK@Click?5in?5an?5Input?5Node?$AA@ 10154650     NodMouse.obj
 0002:0000466c       ??_C@_0L@EFDO@Input?$EANODE?$AA@ 1015466c     NodMouse.obj
 0002:0000467c       ??_C@_0BB@ICMC@Select?5Node?5Type?$AA@ 1015467c     NodMouse.obj
 0002:00004690       ??_C@_04FPID@NODE?$AA@     10154690     NodMouse.obj
 0002:00004698       ??_C@_0CB@JLAN@Ready?5for?5Control?5Node?5Creation?$EA@ 10154698     NodMouse.obj
 0002:000046c0       ??_C@_0BP@BMBK@Ready?5for?5Input?5Node?5Creation?$EA?$AA@ 101546c0     NodMouse.obj
 0002:000046e8       ??_C@_03JDOE@MC_?$AA@      101546e8     NodMouse.obj
 0002:000046ec       ??_C@_03BGHC@CN_?$AA@      101546ec     NodMouse.obj
 0002:000046f0       ??_C@_02MECO@?$CFd?$AA@    101546f0     NodMouse.obj
 0002:000046f4       ??_C@_0BH@BJJK@?5NodMouse?3?5?5?5?5Loading?6?$AA@ 101546f4     NodMouse.obj
 0002:00004710       ??_C@_0BH@NOMM@?5NodMouse?3?5?5?5?5Storing?6?$AA@ 10154710     NodMouse.obj
 0002:0000472c       ??_C@_09DDCG@CO3DMouse?$AA@ 1015472c     O3DMouse.obj
 0002:00004738       ??_C@_03IHMK@Ss0?$AA@      10154738     O3DMouse.obj
 0002:0000473c       ??_7CO3DMouse@@6B@         1015473c     O3DMouse.obj
 0002:000047f4       ??_C@_0DI@CMBL@Click?5in?5Objects?5to?5Include?$EAHit?5@ 101547f4     O3DMouse.obj
 0002:00004838       ??_C@_0CA@ICNB@?$CK?$CK?$CK?$CK?$CK?5No?5More?5Obj3D?5Found?5?$CK?$CK?$CK?$CK?6?$AA@ 10154838     O3DMouse.obj
 0002:00004860       ??_C@_0CF@LLCJ@?6NO?3?7?7Find?5Next?5Matching?5SubAsse@ 10154860     O3DMouse.obj
 0002:0000488c       ??_C@_0CJ@CAFP@?6?6YES?3?7?7Accept?5This?5Existing?5Sub@ 1015488c     O3DMouse.obj
 0002:000048c0       ??_C@_0BO@IGNG@?$CK?$CK?$CK?$CK?$CK?5A?5SubAssembly?5Hit?5?$CK?$CK?$CK?$CK?6?$AA@ 101548c0     O3DMouse.obj
 0002:000048e4       ??_C@_0CA@OIIB@?$CK?$CK?$CK?$CK?$CK?5No?5More?5Solid?5Found?5?$CK?$CK?$CK?$CK?6?$AA@ 101548e4     O3DMouse.obj
 0002:0000490c       ??_C@_0BP@GIDK@?6NO?3?7?7Find?5Next?5Matching?5Solid?$AA@ 1015490c     O3DMouse.obj
 0002:00004934       ??_C@_0CD@IHFG@?6?6YES?3?7?7Accept?5This?5Existing?5Sol@ 10154934     O3DMouse.obj
 0002:00004960       ??_C@_0BI@KPBL@?$CK?$CK?$CK?$CK?$CK?5A?5Solid?5Hit?5?$CK?$CK?$CK?$CK?6?$AA@ 10154960     O3DMouse.obj
 0002:0000497c       ??_C@_0CD@GCAF@Solid?5?$CFs?6Quadrilateral?5Coons?5Typ@ 1015497c     O3DMouse.obj
 0002:000049a8       ??_C@_0CA@JBOC@Solid?5?$CFs?6Triangular?5Coons?5Type?6?$AA@ 101549a8     O3DMouse.obj
 0002:000049d0       ??_C@_0CA@KOEI@Solid?5?$CFs?6Generated?5by?6Sweeping?6?$AA@ 101549d0     O3DMouse.obj
 0002:000049f8       ??_C@_0BP@BNOK@Solid?5?$CFs?6Generated?5by?5Ducting?6?$AA@ 101549f8     O3DMouse.obj
 0002:00004a20       ??_C@_0BP@FPGC@Solid?5?$CFs?6Generated?5by?5Lofting?6?$AA@ 10154a20     O3DMouse.obj
 0002:00004a48       ??_C@_0CE@LMEA@Solid?5?$CFs?5was?5Generated?5by?5Rotati@ 10154a48     O3DMouse.obj
 0002:00004a74       ??_C@_0CF@CKON@Solid?5?$CFs?5was?5Generated?5by?5Extrus@ 10154a74     O3DMouse.obj
 0002:00004aa0       ??_C@_0DF@PEDF@ILLEGAL?5Selection?5?3?6Same?5SubAsse@ 10154aa0     O3DMouse.obj
 0002:00004ae0       ??_C@_0CP@HLCB@ILLEGAL?5Selection?5?3?6Same?5Solid?5M@ 10154ae0     O3DMouse.obj
 0002:00004b18       ??_C@_0CP@LICB@ILLEGAL?5Selection?5?3?6Same?5Patch?5M@ 10154b18     O3DMouse.obj
 0002:00004b50       ??_C@_0CP@KAHB@ILLEGAL?5Selection?5?3?6Same?5Curve?5M@ 10154b50     O3DMouse.obj
 0002:00004b88       ??_C@_0DM@CMGN@Do?5You?5Want?5to?5Delete?6Current?5Su@ 10154b88     O3DMouse.obj
 0002:00004bd0       ??_C@_0GG@OICD@Minimum?5of?51?5Node?0Curve?0Patch?0So@ 10154bd0     O3DMouse.obj
 0002:00004c4c       ??_C@_0L@FOCE@?6?7?$CFd?5Nodes?$AA@ 10154c4c     O3DMouse.obj
 0002:00004c5c       ??_C@_0M@IOGJ@?6?7?$CFd?5Curves?$AA@ 10154c5c     O3DMouse.obj
 0002:00004c6c       ??_C@_0N@ELEK@?6?7?$CFd?5Patches?$AA@ 10154c6c     O3DMouse.obj
 0002:00004c7c       ??_C@_0M@COBH@?6?7?$CFd?5Solids?$AA@ 10154c7c     O3DMouse.obj
 0002:00004c8c       ??_C@_03DBAJ@?3?6?7?$AA@   10154c8c     O3DMouse.obj
 0002:00004c90       ??_C@_0BD@KFNM@?7?$CFd?5SubAssembliess?$AA@ 10154c90     O3DMouse.obj
 0002:00004ca8       ??_C@_0BK@EFFE@SubAssembly?5?$CFs?5contains?3?6?$AA@ 10154ca8     O3DMouse.obj
 0002:00004cc8       ??_C@_0M@KEDK@Please?5Wait?$AA@ 10154cc8     O3DMouse.obj
 0002:00004cd8       ??_C@_0DB@JMOM@Internal?5ERROR?3?6CO3DMouse?3?3O3DTo@ 10154cd8     O3DMouse.obj
 0002:00004d14       ??_C@_0DC@KMLD@Internal?5ERROR?3?6CO3DMouse?3?3O3DTo@ 10154d14     O3DMouse.obj
 0002:00004d50       ??_C@_0DC@BAEN@Internal?5ERROR?3?6CO3DMouse?3?3O3DTo@ 10154d50     O3DMouse.obj
 0002:00004d8c       ??_C@_0DC@NCGE@Internal?5ERROR?3?6CO3DMouse?3?3O3DTo@ 10154d8c     O3DMouse.obj
 0002:00004dc8       ??_C@_0DC@CNJO@Internal?5ERROR?3?6CO3DMouse?3?3O3DTo@ 10154dc8     O3DMouse.obj
 0002:00004e04       ??_C@_0DL@NDMA@Internal?5ERROR?3?6CO3DMouse?3?3O3DTo@ 10154e04     O3DMouse.obj
 0002:00004e4c       ??_C@_0O@OKGM@UNKNOWN?$EAOBJ3D?$AA@ 10154e4c     O3DMouse.obj
 0002:00004e5c       ??_C@_0CC@PKEG@Curve?0Patch?0Solid?5or?5SubStructur@ 10154e5c     O3DMouse.obj
 0002:00004e84       ??_C@_0O@JAPM@Sub?$EAStructure?$AA@ 10154e84     O3DMouse.obj
 0002:00004e94       ??_C@_0CO@OAHF@Ready?5for?5Defining?5SubStructure?4@ 10154e94     O3DMouse.obj
 0002:00004ecc       ??_C@_0CG@HGBK@Defining?5SubStructure?4?5Click?5In?5@ 10154ecc     O3DMouse.obj
 0002:00004efc       ??_C@_0BH@JLAL@?5O3DMouse?3?5?5?5?5Loading?6?$AA@ 10154efc     O3DMouse.obj
 0002:00004f18       ??_C@_0BH@FMFN@?5O3DMouse?3?5?5?5?5Storing?6?$AA@ 10154f18     O3DMouse.obj
 0002:00004f34       ??_C@_09PHGN@CPatMouse?$AA@ 10154f34     PatMouse.obj
 0002:00004f40       ??_7CLoft_Compat@@6B@      10154f40     PatMouse.obj
 0002:00004f58       ??_7CPatMouse@@6B@         10154f58     PatMouse.obj
 0002:00004ff4       ??_C@_0BF@NGLD@Tensor?5Product?5Patch?$AA@ 10154ff4     PatMouse.obj
 0002:00005010       ??_C@_05ODIL@START?$AA@    10155010     PatMouse.obj
 0002:00005018       ??_C@_0CO@IPIH@Please?5Click?5On?5START?3?$EATo?5Select@ 10155018     PatMouse.obj
 0002:00005050       ??_C@_0DB@LKEP@Internal?5ERROR?3?6CPatMouse?3?3PatTo@ 10155050     PatMouse.obj
 0002:0000508c       ??_C@_0DC@FNJF@Internal?5ERROR?3?6CPatMouse?3?3PatTo@ 1015508c     PatMouse.obj
 0002:000050c8       ??_C@_0DL@EINJ@Internal?5ERROR?3?6CPatMouse?3?3PatTo@ 101550c8     PatMouse.obj
 0002:00005110       ??_C@_0P@FBH@Gordon?5Patch?3?5?$AA@ 10155110     PatMouse.obj
 0002:00005124       ??_C@_0BN@NFLA@Gordon?5Patch?3?5Provide?5Twists?$AA@ 10155124     PatMouse.obj
 0002:00005148       ??_C@_0CE@JAIB@Gordon?5Patch?3?5Provide?5EndConditi@ 10155148     PatMouse.obj
 0002:00005174       ??_C@_0BH@KMOP@Tensor?5Product?5Patch?3?5?$AA@ 10155174     PatMouse.obj
 0002:00005190       ??_C@_0CF@DJIK@Tensor?5Product?5Patch?3?5Provide?5Tw@ 10155190     PatMouse.obj
 0002:000051bc       ??_C@_0CM@NCOB@Tensor?5Product?5Patch?3?5Provide?5En@ 101551bc     PatMouse.obj
 0002:000051f0       ??_C@_0CM@BAAI@?$EAReady?5with?5other?5Info?4?$DP?5Click?5R@ 101551f0     PatMouse.obj
 0002:00005224       ??_C@_0N@HDOM@Loft?5Patch?3?5?$AA@ 10155224     PatMouse.obj
 0002:00005234       ??_C@_0EH@GCJF@Internal?5ERROR?3?6CPatMouse?3?3Updat@ 10155234     PatMouse.obj
 0002:0000528c       ??_C@_0BL@BECL@Loft?5Patch?3?5Provide?5Twists?$AA@ 1015528c     PatMouse.obj
 0002:000052ac       ??_C@_0CN@JIPE@?$EADone?5with?5it?$DP?5Please?5Click?5On?5U@ 101552ac     PatMouse.obj
 0002:000052e4       ??_C@_0CC@GCIB@Loft?5Patch?3?5Provide?5EndCondition@ 101552e4     PatMouse.obj
 0002:0000530c       ??_C@_0EL@JCBD@Internal?5ERROR?3?6CPatMouse?3?3Updat@ 1015530c     PatMouse.obj
 0002:00005368       ??_C@_0CF@PMKP@Gordon?5Patch?3?5Provide?5Twists?5at?5@ 10155368     PatMouse.obj
 0002:00005394       ??_C@_0CH@KGHK@Tensor?5Product?3?5Provide?5Twists?5a@ 10155394     PatMouse.obj
 0002:000053c4       ??_C@_0CD@EIFN@Loft?5Patch?3?5Provide?5Twists?5at?5th@ 101553c4     PatMouse.obj
 0002:000053f0       ??_C@_0BA@IOEH@Corner?$CD?5?$CFd?5of?54?$AA@ 101553f0     PatMouse.obj
 0002:00005404       ??_C@_0DL@KKIM@ERROR?3?6Degenerate?5Rotation?5Axis?3@ 10155404     PatMouse.obj
 0002:0000544c       ??_C@_0EB@CECO@ERROR?3?6Degenerate?5Extrusion?5Dire@ 1015544c     PatMouse.obj
 0002:0000549c       ??_C@_0DF@NIKF@?7Not?5All?5having?5same?5Number?5of?5E@ 1015549c     PatMouse.obj
 0002:000054dc       ??_C@_0CK@EEOF@?7Latch?5Option?5for?5the?5Curve?5may?5@ 101554dc     PatMouse.obj
 0002:00005510       ??_C@_0DA@OCHF@?7Not?5All?5having?5same?5Number?5of?5B@ 10155510     PatMouse.obj
 0002:0000554c       ??_C@_0BJ@BNFM@?7Not?5All?5Closed?5or?5Open?6?$AA@ 1015554c     PatMouse.obj
 0002:0000556c       ??_C@_0CC@BDOC@Incompatibility?5could?5be?5due?5to?3@ 1015556c     PatMouse.obj
 0002:00005594       ??_C@_0CK@HMIK@Last?5Curve?5is?5Not?5Compatible?5wit@ 10155594     PatMouse.obj
 0002:000055c8       ??_C@_0CB@JEOF@?7?7?7?$CK?$CK?$CK?5DATA?5ERROR?5?$CK?$CK?$CK?5?5?5?5?5?5?5?5?5?5?6@ 101555c8     PatMouse.obj
 0002:000055f0       ??_C@_0CA@HMKH@?$CK?$CK?$CK?$CK?$CK?5No?5More?5Curve?5Found?5?$CK?$CK?$CK?$CK?6?$AA@ 101555f0     PatMouse.obj
 0002:00005618       ??_C@_0BP@BGON@?6NO?3?7?7Find?5Next?5Matching?5Curve?$AA@ 10155618     PatMouse.obj
 0002:00005640       ??_C@_0CD@PJIB@?6?6YES?3?7?7Accept?5This?5Existing?5Cur@ 10155640     PatMouse.obj
 0002:0000566c       ??_C@_0BI@OCBK@?$CK?$CK?$CK?$CK?$CK?5A?5Curve?5Hit?5?$CK?$CK?$CK?$CK?6?$AA@ 1015566c     PatMouse.obj
 0002:00005688       ??_C@_0DI@PAJP@Curve?5?$CFs?5contains?3?6?7?$CFd?5Interpola@ 10155688     PatMouse.obj
 0002:000056cc       ??_C@_07OKFF@FORWARD?$AA@  101556cc     PatMouse.obj
 0002:000056d8       ??_C@_08OAJO@BACKWARD?$AA@ 101556d8     PatMouse.obj
 0002:000056e4       ??_C@_0CN@LLNL@Degenerate?5Patch?3?6Same?5Curve?5Mor@ 101556e4     PatMouse.obj
 0002:0000571c       ??_C@_0FC@MPAL@ComPatibility?5Problem?$CB?6Curve_?$CFd?$CI@ 1015571c     PatMouse.obj
 0002:00005780       __real@8@3ff8a3d70a3d70a3d800 10155780     PatMouse.obj
 0002:0000578c       ??_C@_0BG@KIBN@?$CFs?5Curve?5MUST?5BE?5OPEN?$AA@ 1015578c     PatMouse.obj
 0002:000057a8       ??_C@_0EG@MHJ@Internal?5ERROR?3?6CPatMouse?3?3Creat@ 101557a8     PatMouse.obj
 0002:000057fc       ??_C@_0DI@CJEB@INPUT?5ERROR?3?6Curves?5Need?5to?5be?6A@ 101557fc     PatMouse.obj
 0002:00005840       ??_C@_0EB@DELO@INPUT?5ERROR?3?6Curves?5DO?5Not?5Have?5@ 10155840     PatMouse.obj
 0002:00005890       ??_C@_0DH@FHIB@Loft?5Patch?3?5Please?5Select?5?$EAV?9dir@ 10155890     PatMouse.obj
 0002:000058d4       ??_C@_0EB@NAND@Tensor?5Product?5Patch?3?5Please?5Sel@ 101558d4     PatMouse.obj
 0002:00005924       ??_C@_0EB@NHBE@Tensor?5Product?5Patch?3?5Please?5Sel@ 10155924     PatMouse.obj
 0002:00005974       ??_C@_0DJ@BHPG@Gordon?5Patch?3?5Please?5Select?5?$EAV?9d@ 10155974     PatMouse.obj
 0002:000059b8       ??_C@_0DJ@BADB@Gordon?5Patch?3?5Please?5Select?5?$EAU?9d@ 101559b8     PatMouse.obj
 0002:000059fc       ??_C@_0EH@FDAO@Internal?5ERROR?3?6CPatMouse?3?3Switc@ 101559fc     PatMouse.obj
 0002:00005a54       ??_C@_0CO@DPFM@?6NO?3?7?7Find?5Next?5Patch?5with?5Inter@ 10155a54     PatMouse.obj
 0002:00005a8c       ??_C@_0BI@MHMH@?6YES?3?7?7Spawn?5This?5Patch?$AA@ 10155a8c     PatMouse.obj
 0002:00005aa8       ??_C@_0CD@LABE@Patch?5?$CFs?6Quadrilateral?5Coons?5Typ@ 10155aa8     PatMouse.obj
 0002:00005ad4       ??_C@_0CA@FDIN@Patch?5?$CFs?6Triangular?5Coons?5Type?6?$AA@ 10155ad4     PatMouse.obj
 0002:00005afc       ??_C@_0CA@GMCH@Patch?5?$CFs?6Generated?5by?6Sweeping?6?$AA@ 10155afc     PatMouse.obj
 0002:00005b24       ??_C@_0BP@HCEK@Patch?5?$CFs?6Generated?5by?5Ducting?6?$AA@ 10155b24     PatMouse.obj
 0002:00005b4c       ??_C@_0CF@OCKG@Patch?5?$CFs?6Generated?5by?5Gordon?5Met@ 10155b4c     PatMouse.obj
 0002:00005b78       ??_C@_0CG@JGNK@Patch?5?$CFs?6Generated?5by?5Tensor?5Pro@ 10155b78     PatMouse.obj
 0002:00005ba8       ??_C@_0BP@DAMC@Patch?5?$CFs?6Generated?5by?5Lofting?6?$AA@ 10155ba8     PatMouse.obj
 0002:00005bd0       ??_C@_0CE@IOJC@Patch?5?$CFs?5was?5Generated?5by?5Rotati@ 10155bd0     PatMouse.obj
 0002:00005bfc       ??_C@_0CF@HFNP@Patch?5?$CFs?5was?5Generated?5by?5Extrus@ 10155bfc     PatMouse.obj
 0002:00005c28       ??_C@_0CB@OKDG@?$CK?$CK?$CK?$CK?$CK?5A?5Patch?5Hit?5To?5Spawn?5?$CK?$CK?$CK?$CK?6@ 10155c28     PatMouse.obj
 0002:00005c50       ??_C@_0CP@LFBO@Are?5You?5Sure?5You?5Want?5to?6Delete?5@ 10155c50     PatMouse.obj
 0002:00005c88       ??_C@_0CO@MDPC@?6?5Do?5You?5want?5to?5Continue?5to?5Get@ 10155c88     PatMouse.obj
 0002:00005cc0       ??_C@_0BL@CMHP@Minimum?5of?53?5Curves?5Needed?$AA@ 10155cc0     PatMouse.obj
 0002:00005ce0       ??_C@_0DN@PILH@Minimum?5of?52?5Curves?5?$CG?51?5CNode?0?6T@ 10155ce0     PatMouse.obj
 0002:00005d2c       ??_C@_0DE@LNMA@Minimum?5of?52?5Curves?5?$CG?51?5CNode?5an@ 10155d2c     PatMouse.obj
 0002:00005d6c       ??_C@_0CN@IONG@Minimum?5of?52?5Curves?5Needed?5in?5Ea@ 10155d6c     PatMouse.obj
 0002:00005da4       ??_C@_0CM@HGKD@Minimum?5of?52?5Nodes?5Needed?5in?5Eac@ 10155da4     PatMouse.obj
 0002:00005dd8       ??_C@_0BL@OONP@Minimum?5of?52?5Curves?5Needed?$AA@ 10155dd8     PatMouse.obj
 0002:00005df8       ??_C@_0CF@CAEJ@Minimum?5of?51?5Curve?5?$CG?52?5CNodes?5Ne@ 10155df8     PatMouse.obj
 0002:00005e24       ??_C@_0DK@FND@Patch?5?$CFs?5contains?6?7?$CFd?5Sweeping?5C@ 10155e24     PatMouse.obj
 0002:00005e6c       ??_C@_0BB@KLID@?6?7?$CFs?5Anchor?5Node?$AA@ 10155e6c     PatMouse.obj
 0002:00005e80       ??_C@_0BA@JEEL@?7?$CFs?5Spine?5Curve?$AA@ 10155e80     PatMouse.obj
 0002:00005e94       ??_C@_0BJ@MEOH@?7?$CFs?5CrossSectional?5Curve?$AA@ 10155e94     PatMouse.obj
 0002:00005eb4       ??_C@_0DJ@MOO@Patch?5?$CFs?5contains?6?7?$CFd?5Ducting?5Cu@ 10155eb4     PatMouse.obj
 0002:00005ef8       ??_C@_0CP@KHKL@Patch?5?$CFs?5consists?5of?6?7?$CFd?5Curves?5@ 10155ef8     PatMouse.obj
 0002:00005f30       ??_C@_0CN@NHIC@Patch?5?$CFs?5consists?5of?6?7?$CFd?5Nodes?5b@ 10155f30     PatMouse.obj
 0002:00005f68       ??_C@_05NCCP@?7?$CFs?5?0?$AA@ 10155f68     PatMouse.obj
 0002:00005f70       ??_C@_0CH@OAAN@Patch?5?$CFs?5contains?6?7?$CFd?5Lofting?5Cu@ 10155f70     PatMouse.obj
 0002:00005fa0       ??_C@_0BC@LBOI@?6?7?$CFd?5Axis?5Nodes?3?7?$AA@ 10155fa0     PatMouse.obj
 0002:00005fb8       ??_C@_0CI@CEAF@Patch?5?$CFs?5contains?6?7Rotational?5Cu@ 10155fb8     PatMouse.obj
 0002:00005fe8       ??_C@_0BH@MIIF@?6?7?$CFd?5Direction?5Nodes?3?7?$AA@ 10155fe8     PatMouse.obj
 0002:00006004       ??_C@_0CH@JKPG@Patch?5?$CFs?5contains?6?7Extrusion?5Cur@ 10156004     PatMouse.obj
 0002:00006034       ??_C@_0O@KIBD@?7?$CFs?5Curve_?$CFd?6?$AA@ 10156034     PatMouse.obj
 0002:00006044       ??_C@_0CF@JBBH@Patch?5?$CFs?5contains?6?7?$CFd?5Coons?5Curv@ 10156044     PatMouse.obj
 0002:00006070       ??_C@_0DA@OGNO@Do?5You?5Want?5to?5Continue?6with?5the@ 10156070     PatMouse.obj
 0002:000060ac       ??_C@_0BB@NKKI@At?5Your?5Service?$CB?$AA@ 101560ac     PatMouse.obj
 0002:000060c0       ??_C@_0DK@HJOG@ERROR?3?6CPatMouse?3?3PutEndIdsInPla@ 101560c0     PatMouse.obj
 0002:00006108       ??_C@_0O@FAAN@UNKNOWN?$EAPATCH?$AA@ 10156108     PatMouse.obj
 0002:00006118       ??_C@_0BH@PEOO@A?5Patch?5by?5Tessalation?$AA@ 10156118     PatMouse.obj
 0002:00006134       ??_C@_0L@OMJO@Flat?$EAPATCH?$AA@ 10156134     PatMouse.obj
 0002:00006144       ??_C@_0BE@GKPE@A?5Patch?5by?5Sweeping?$AA@ 10156144     PatMouse.obj
 0002:0000615c       ??_C@_0M@EJGD@Swept?$EAPATCH?$AA@ 1015615c     PatMouse.obj
 0002:0000616c       ??_C@_0BD@PGJB@A?5Patch?5by?5Ducting?$AA@ 1015616c     PatMouse.obj
 0002:00006184       ??_C@_0N@IMHC@Ducted?$EAPATCH?$AA@ 10156184     PatMouse.obj
 0002:00006194       ??_C@_0BF@HJDC@A?5Patch?5by?5Extrusion?$AA@ 10156194     PatMouse.obj
 0002:000061b0       ??_C@_0P@FMDG@Extruded?$EAPATCH?$AA@ 101561b0     PatMouse.obj
 0002:000061c4       ??_C@_0BD@HOMP@A?5Patch?5by?5Lofting?$AA@ 101561c4     PatMouse.obj
 0002:000061dc       ??_C@_0N@HKHA@Lofted?$EAPATCH?$AA@ 101561dc     PatMouse.obj
 0002:000061ec       ??_C@_0BE@INNH@A?5Patch?5by?5Rotation?$AA@ 101561ec     PatMouse.obj
 0002:00006204       ??_C@_0BB@CIJM@Rotational?$EAPATCH?$AA@ 10156204     PatMouse.obj
 0002:00006218       ??_C@_0O@ELIE@A?5Coons?5Patch?$AA@ 10156218     PatMouse.obj
 0002:00006228       ??_C@_0M@EPOK@Coons?$EAPATCH?$AA@ 10156228     PatMouse.obj
 0002:00006238       ??_C@_0BA@CFMM@A?5Gordons?5Patch?$AA@ 10156238     PatMouse.obj
 0002:0000624c       ??_C@_0O@PGHN@Gordons?$EAPATCH?$AA@ 1015624c     PatMouse.obj
 0002:0000625c       ??_C@_0BH@KAEM@A?5Tensor?5Product?5Patch?$AA@ 1015625c     PatMouse.obj
 0002:00006278       ??_C@_0BF@GFJL@Tensor?5Product?$EAPATCH?$AA@ 10156278     PatMouse.obj
 0002:00006294       ??_C@_0BE@JJDI@Select?5a?5Patch?5Type?$AA@ 10156294     PatMouse.obj
 0002:000062ac       ??_C@_05PGGO@PATCH?$AA@    101562ac     PatMouse.obj
 0002:000062b4       ??_C@_0EK@GFBM@Internal?5ERROR?3?6CPatMouse?3?3Creat@ 101562b4     PatMouse.obj
 0002:0000630c       ??_C@_0EA@MKFA@Internal?5ERROR?3?6CPatMouse?3?3Proce@ 1015630c     PatMouse.obj
 0002:00006358       ??_C@_0O@JDGE@Dirn?4?5Node?5To?$AA@ 10156358     PatMouse.obj
 0002:00006368       ??_C@_0FI@KBLN@Click?5in?52nd?5?$CIC?$CJNode?5defining?5Ex@ 10156368     PatMouse.obj
 0002:000063d4       ??_C@_0BA@DHAE@Dirn?4?5Node?5From?$AA@ 101563d4     PatMouse.obj
 0002:000063e8       ??_C@_0EG@PFOM@Patch?5by?5Extrusion?3?5Click?5in?$EAIst@ 101563e8     PatMouse.obj
 0002:0000643c       ??_C@_0DA@LBOL@Patch?5by?5Extrusion?3?5Click?5in?$EAA?5C@ 1015643c     PatMouse.obj
 0002:00006478       ??_C@_0N@BOCC@Axis?5Node?5To?$AA@ 10156478     PatMouse.obj
 0002:00006488       ??_C@_0FJ@BIHK@Click?5in?52nd?5?$CIC?$CJNode?5defining?5Ro@ 10156488     PatMouse.obj
 0002:000064f4       ??_C@_0P@KKNE@Axis?5Node?5From?$AA@ 101564f4     PatMouse.obj
 0002:00006508       ??_C@_0DP@CCHI@Patch?5by?5Rotation?3?5Click?5in?$EAIst?5@ 10156508     PatMouse.obj
 0002:00006554       ??_C@_0M@PGIK@Rotnl?4Curve?$AA@ 10156554     PatMouse.obj
 0002:00006564       ??_C@_0CO@EMNK@Patch?5by?5Rotation?3?5Click?5in?$EAA?5Cu@ 10156564     PatMouse.obj
 0002:0000659c       ??_C@_0CM@MJHK@Loft?5Patch?3?5Provide?5B?4C?4?5for?5the@ 1015659c     PatMouse.obj
 0002:000065d0       ??_C@_0BL@NOKA@Loft?5Patch?3?5Left?5Click?5in?5?$AA@ 101565d0     PatMouse.obj
 0002:000065f0       ??_C@_0BO@PNDM@?$EACurve?$CD?5?$CFd?5of?5?$CFd?5Total?5Curves?$AA@ 101565f0     PatMouse.obj
 0002:00006614       ??_C@_0CF@MKDG@Loft?5Patch?3?$EAProvide?5Number?5of?5Cu@ 10156614     PatMouse.obj
 0002:00006640       ??_C@_0DA@FINK@Tensor?5Product?3?5Provide?5B?4C?4?5for@ 10156640     PatMouse.obj
 0002:0000667c       ??_C@_0BP@PBKE@Tensor?5Product?3?5Left?5Click?5in?5?$AA@ 1015667c     PatMouse.obj
 0002:000066a4       ??_C@_0CD@OAPK@?$EANode?$CD?5?$CFd?5of?5?$CFd?5Total?5Nodes?$CI?$CFdX?$CF@ 101566a4     PatMouse.obj
 0002:000066d0       ??_C@_0CO@JJDC@Tensor?5Product?5Patch?3?$EAProvide?5Nu@ 101566d0     PatMouse.obj
 0002:00006708       ??_C@_0DF@KENG@Gordon?5Patch?3?5Provide?5Twist?5Info@ 10156708     PatMouse.obj
 0002:00006748       ??_C@_0BH@GOIB@Gordon?3?5Left?5Click?5in?5?$AA@ 10156748     PatMouse.obj
 0002:00006764       ??_C@_0CF@FBAE@?$EACurve?$CD?5?$CFd?5of?5?$CFd?5Total?5Curves?$CI?$CFd@ 10156764     PatMouse.obj
 0002:00006790       ??_C@_0CH@CNBE@Gordon?5Patch?3?$EAProvide?5Number?5of?5@ 10156790     PatMouse.obj
 0002:000067c0       ??_C@_0CI@CIKM@Quadrilateral?5Patch?3?$EAClick?5Right@ 101567c0     PatMouse.obj
 0002:000067f0       ??_C@_0L@EJED@Last?5Curve?$AA@ 101567f0     PatMouse.obj
 0002:00006800       ??_C@_0DP@PMED@Quadrilateral?3?5Select?5Last?5Curve@ 10156800     PatMouse.obj
 0002:0000684c       ??_C@_09GLKH@3rd?5Curve?$AA@ 1015684c     PatMouse.obj
 0002:00006858       ??_C@_0CO@HAMD@Patch?5by?5Coons?5Method?3?$EAClick?5in?5@ 10156858     PatMouse.obj
 0002:00006890       ??_C@_09EKMI@2nd?5Curve?$AA@ 10156890     PatMouse.obj
 0002:0000689c       ??_C@_0CO@FBKM@Patch?5by?5Coons?5Method?3?$EAClick?5in?5@ 1015689c     PatMouse.obj
 0002:000068d4       ??_C@_09KDIO@Ist?5Curve?$AA@ 101568d4     PatMouse.obj
 0002:000068e0       ??_C@_0DA@BEOP@Patch?5by?5Coons?5Method?3?$EAClick?5in?5@ 101568e0     PatMouse.obj
 0002:0000691c       ??_C@_0DN@DEFA@Patch?5by?5Ducting?3?5Ready?5with?5oth@ 1015691c     PatMouse.obj
 0002:00006968       ??_C@_0EI@OKAB@Patch?5by?5Ducting?3?5Provide?5in?5Dia@ 10156968     PatMouse.obj
 0002:000069c0       ??_C@_0M@DEHG@Anchor?5Node?$AA@ 101569c0     PatMouse.obj
 0002:000069d0       ??_C@_0CH@JJL@Patch?5by?5Ducting?3?$EAClick?5in?5Ancho@ 101569d0     PatMouse.obj
 0002:00006a00       ??_C@_0O@NLKH@Spine?5CurveID?$AA@ 10156a00     PatMouse.obj
 0002:00006a10       ??_C@_0CH@HLMD@Patch?5by?5Ducting?3?$EAClick?5in?5Spine@ 10156a10     PatMouse.obj
 0002:00006a40       ??_C@_0O@ODEL@Xsec?4?5CurveID?$AA@ 10156a40     PatMouse.obj
 0002:00006a50       ??_C@_0DB@NEMG@Patch?5by?5Ducting?3?$EAClick?5in?5Cross@ 10156a50     PatMouse.obj
 0002:00006a8c       ??_C@_0DO@DIPH@Patch?5by?5Sweeping?3?5Ready?5with?5ot@ 10156a8c     PatMouse.obj
 0002:00006ad8       ??_C@_0FA@KIHA@Patch?5by?5Sweeping?3?5Provide?5in?5Di@ 10156ad8     PatMouse.obj
 0002:00006b38       ??_C@_0EJ@OMLB@Patch?5by?5Sweeping?3?5Provide?5in?5Di@ 10156b38     PatMouse.obj
 0002:00006b90       ??_C@_0CI@PLDC@Patch?5by?5Sweeping?3?$EAClick?5in?5Anch@ 10156b90     PatMouse.obj
 0002:00006bc0       ??_C@_0M@EGCO@Spine?5Curve?$AA@ 10156bc0     PatMouse.obj
 0002:00006bd0       ??_C@_0CI@IJGK@Patch?5by?5Sweeping?3?$EAClick?5in?5Spin@ 10156bd0     PatMouse.obj
 0002:00006c00       ??_C@_0DC@HMKH@Patch?5by?5Sweeping?3?$EAClick?5in?5Cros@ 10156c00     PatMouse.obj
 0002:00006c3c       ??_C@_0BH@IIJJ@?5PatMouse?3?5?5?5?5Loading?6?$AA@ 10156c3c     PatMouse.obj
 0002:00006c58       ??_C@_0BH@EPMP@?5PatMouse?3?5?5?5?5Storing?6?$AA@ 10156c58     PatMouse.obj
 0002:00006c74       ??_7?$CList@W4CURVELATCH@@W41@@@6B@ 10156c74     PatMouse.obj
 0002:00006c8c       ??_7?$CList@Ublendend@@U1@@@6B@ 10156c8c     PatMouse.obj
 0002:00006ca4       ??_7?$CList@NN@@6B@        10156ca4     PatMouse.obj
 0002:00006cbc       ??_C@_09PDMC@CSLDMouse?$AA@ 10156cbc     SLDmouse.obj
 0002:00006cc8       ??_C@_04PLIB@StP0?$AA@     10156cc8     SLDmouse.obj
 0002:00006cd0       ??_C@_04KKNH@StC0?$AA@     10156cd0     SLDmouse.obj
 0002:00006cd8       ??_7CSLDMouse@@6B@         10156cd8     SLDmouse.obj
 0002:00006d98       ??_C@_0EG@GH@Internal?5Error?6CSLDMouse?3?3Update@ 10156d98     SLDmouse.obj
 0002:00006dec       ??_C@_0CK@IPE@ERROR?3?6CSLDMouse?3?3ShowStatic_Nod@ 10156dec     SLDmouse.obj
 0002:00006e20       ??_C@_0CL@DBCJ@ERROR?3?6CSLDMouse?3?3ShowStatic_Cur@ 10156e20     SLDmouse.obj
 0002:00006e54       ??_C@_0CL@FHKF@ERROR?3?6CSLDMouse?3?3ShowStatic_Pat@ 10156e54     SLDmouse.obj
 0002:00006e88       ??_C@_0CL@CBEN@ERROR?3?6CSLDMouse?3?3ShowStatic_Sol@ 10156e88     SLDmouse.obj
 0002:00006ebc       ??_C@_07GEJL@A?5Solid?$AA@ 10156ebc     SLDmouse.obj
 0002:00006ec8       ??_C@_07KGLC@A?5Patch?$AA@ 10156ec8     SLDmouse.obj
 0002:00006ed4       ??_C@_07BKEM@A?5Curve?$AA@ 10156ed4     SLDmouse.obj
 0002:00006ee0       ??_C@_09PGFI@Click?5On?5?$AA@ 10156ee0     SLDmouse.obj
 0002:00006eec       ??_C@_0O@OHMP@Lump?5Weights?$EA?$AA@ 10156eec     SLDmouse.obj
 0002:00006efc       ??_C@_0BB@HO@Thermal?5Loading?$EA?$AA@ 10156efc     SLDmouse.obj
 0002:00006f10       ??_C@_0BC@CJDG@Pressure?5Loading?$EA?$AA@ 10156f10     SLDmouse.obj
 0002:00006f28       ??_C@_0BJ@PDLN@Displacement?5?$CG?5Rotation?$EA?$AA@ 10156f28     SLDmouse.obj
 0002:00006f48       ??_C@_0BA@INFN@Force?5?$CG?5Moment?$EA?$AA@ 10156f48     SLDmouse.obj
 0002:00006f5c       ??_C@_0CA@BMHJ@Select?5A?5Load?1Kinematic?5BC?5Type?$AA@ 10156f5c     SLDmouse.obj
 0002:00006f84       ??_C@_0BG@HICD@Loading?1Kinematic?5BC?$EA?$AA@ 10156f84     SLDmouse.obj
 0002:00006fa0       ??_C@_0BG@FBPM@Ready?5for?5Creation?3?5?5?$AA@ 10156fa0     SLDmouse.obj
 0002:00006fbc       ??_C@_0EH@NAOM@More?5than?5One?5Patch?5thro?8?5the?5No@ 10156fbc     SLDmouse.obj
 0002:00007014       ??_C@_0EI@JLMM@More?5than?5One?5Curve?5thro?8?5the?5No@ 10157014     SLDmouse.obj
 0002:0000706c       ??_C@_0EO@CML@Fixed?5Direction?5Skewed?5Load?1Disp@ 1015706c     SLDmouse.obj
 0002:000070cc       ??_C@_0FA@PFDL@Fixed?5Direction?5Skewed?5Load?1Disp@ 101570cc     SLDmouse.obj
 0002:0000712c       ??_C@_0DI@MKPN@ERROR?3?6CSLDMouse?3?3NewNode_OtherC@ 1015712c     SLDmouse.obj
 0002:00007170       ??_C@_0DP@IAJP@ERROR?3?6Degenerate?5Loading?5Direct@ 10157170     SLDmouse.obj
 0002:000071bc       ??_C@_0CA@IDKC@?6?6YES?3?7Accept?5The?5Existing?5Node?$AA@ 101571bc     SLDmouse.obj
 0002:000071e4       ??_C@_0CB@CEKO@?6?6YES?3?7Accept?5This?5Existing?5Node@ 101571e4     SLDmouse.obj
 0002:0000720c       ??_C@_0DG@OGOD@?6NodeID?5?$DN?5?$CFs?6Coordinates?3?6?7?5X?5?$DN?5@ 1015720c     SLDmouse.obj
 0002:0000724c       ??_C@_0CE@ELDI@?$CK?$CK?$CK?$CK?$CK?5Existing?5Node?5Selected?5?$CK?$CK?$CK@ 1015724c     SLDmouse.obj
 0002:00007278       ??_C@_0CN@GGAH@?6CANCEL?3?7Update?5Node?5with?5New?5Lo@ 10157278     SLDmouse.obj
 0002:000072b0       ??_C@_0BN@PJHG@?6NO?3?7Find?5Next?5Matching?5Node?$AA@ 101572b0     SLDmouse.obj
 0002:000072d4       ??_C@_0CJ@DBJO@?6NO?3?7Update?5Node?5with?5New?5Loadin@ 101572d4     SLDmouse.obj
 0002:00007308       ??_C@_0CJ@HMEP@?6?6YES?3?7Accept?5The?5Existing?5Nodal@ 10157308     SLDmouse.obj
 0002:0000733c       ??_C@_0DG@LFJF@?6NodeID?5?$DN?5?$CFs?6Coordinates?3?6?7?5X?5?$DN?5@ 1015733c     SLDmouse.obj
 0002:0000737c       ??_C@_0CO@BPG@?$CK?$CK?$CK?$CK?$CK?5Selected?5Node?5is?5Already?5L@ 1015737c     SLDmouse.obj
 0002:000073b4       ??_C@_0CB@KCKM@?6?6YES?3?7Accept?5The?5Existing?5Curve@ 101573b4     SLDmouse.obj
 0002:000073dc       ??_C@_0CC@EOAL@?6?6YES?3?7Accept?5This?5Existing?5Curv@ 101573dc     SLDmouse.obj
 0002:00007404       ??_C@_0CF@MHAG@?$CK?$CK?$CK?$CK?$CK?5Existing?5Curve?5Selected?5?$CK?$CK@ 10157404     SLDmouse.obj
 0002:00007430       ??_C@_0CO@GIBK@?6CANCEL?3?7Update?5Curve?5with?5New?5L@ 10157430     SLDmouse.obj
 0002:00007468       ??_C@_0BO@IANG@?6NO?3?7Find?5Next?5Matching?5Curve?$AA@ 10157468     SLDmouse.obj
 0002:0000748c       ??_C@_0CK@HLEN@?6NO?3?7Update?5Curve?5with?5New?5Loadi@ 1015748c     SLDmouse.obj
 0002:000074c0       ??_C@_0CO@MBPO@?6?6YES?3?7Accept?5The?5Existing?5Curve@ 101574c0     SLDmouse.obj
 0002:000074f8       ??_C@_0P@GCDK@?6CurveID?5?$DN?5?$CFs?5?$AA@ 101574f8     SLDmouse.obj
 0002:0000750c       ??_C@_0CP@NBKM@?$CK?$CK?$CK?$CK?$CK?5Selected?5Curve?5is?5Already?5@ 1015750c     SLDmouse.obj
 0002:00007544       ??_C@_0CB@BOFC@?6?6YES?3?7Accept?5The?5Existing?5Patch@ 10157544     SLDmouse.obj
 0002:0000756c       ??_C@_0CC@PCPF@?6?6YES?3?7Accept?5This?5Existing?5Patc@ 1015756c     SLDmouse.obj
 0002:00007594       ??_C@_0CF@NPFG@?$CK?$CK?$CK?$CK?$CK?5Existing?5Patch?5Selected?5?$CK?$CK@ 10157594     SLDmouse.obj
 0002:000075c0       ??_C@_0CO@NNGL@?6CANCEL?3?7Update?5Patch?5with?5New?5L@ 101575c0     SLDmouse.obj
 0002:000075f8       ??_C@_0BO@DMCI@?6NO?3?7Find?5Next?5Matching?5Patch?$AA@ 101575f8     SLDmouse.obj
 0002:0000761c       ??_C@_0CK@MODM@?6NO?3?7Update?5Patch?5with?5New?5Loadi@ 1015761c     SLDmouse.obj
 0002:00007650       ??_C@_0CO@DHAP@?6?6YES?3?7Accept?5The?5Existing?5Patch@ 10157650     SLDmouse.obj
 0002:00007688       ??_C@_0P@ELG@?6PatchID?5?$DN?5?$CFs?5?$AA@ 10157688     SLDmouse.obj
 0002:0000769c       ??_C@_0CP@PPBF@?$CK?$CK?$CK?$CK?$CK?5Selected?5Patch?5is?5Already?5@ 1015769c     SLDmouse.obj
 0002:000076d4       ??_C@_0CB@NMHL@?6?6YES?3?7Accept?5The?5Existing?5Solid@ 101576d4     SLDmouse.obj
 0002:000076fc       ??_C@_0CC@DANM@?6?6YES?3?7Accept?5This?5Existing?5Soli@ 101576fc     SLDmouse.obj
 0002:00007724       ??_C@_0CF@BMFG@?$CK?$CK?$CK?$CK?$CK?5Existing?5Solid?5Selected?5?$CK?$CK@ 10157724     SLDmouse.obj
 0002:00007750       ??_C@_0CO@HNMH@?6CANCEL?3?7Update?5Solid?5with?5New?5L@ 10157750     SLDmouse.obj
 0002:00007788       ??_C@_0BO@POAB@?6NO?3?7Find?5Next?5Matching?5Solid?$AA@ 10157788     SLDmouse.obj
 0002:000077ac       ??_C@_0CK@GOJA@?6NO?3?7Update?5Solid?5with?5New?5Loadi@ 101577ac     SLDmouse.obj
 0002:000077e0       ??_C@_0CO@JBGK@?6?6YES?3?7Accept?5The?5Existing?5Solid@ 101577e0     SLDmouse.obj
 0002:00007818       ??_C@_0P@HCFO@?6SolidID?5?$DN?5?$CFs?5?$AA@ 10157818     SLDmouse.obj
 0002:0000782c       ??_C@_0CP@DNHK@?$CK?$CK?$CK?$CK?$CK?5Selected?5Solid?5is?5Already?5@ 1015782c     SLDmouse.obj
 0002:00007864       ??_C@_0CF@PKIC@SOLIDBASED?5LOADING?6NOT?5SUPPORTED@ 10157864     SLDmouse.obj
 0002:00007890       ??_C@_02ENJD@_R?$AA@       10157890     SLDmouse.obj
 0002:00007894       ??_C@_02LCOB@_T?$AA@       10157894     SLDmouse.obj
 0002:00007898       ??_C@_03EBDH@_CC?$AA@      10157898     SLDmouse.obj
 0002:0000789c       ??_C@_03EGKI@_PP?$AA@      1015789c     SLDmouse.obj
 0002:000078a0       ??_C@_0DP@BBNI@Please?5Select?5Atleast?6One?5Degree@ 101578a0     SLDmouse.obj
 0002:000078ec       ??_C@_0DB@DGJB@Are?5You?5Sure?5You?5Want?5to?6Delete?5@ 101578ec     SLDmouse.obj
 0002:00007928       ??_C@_0CO@FAHF@Do?5You?5want?5to?5Continue?5to?5Get?5M@ 10157928     SLDmouse.obj
 0002:00007960       ??_C@_0DM@LJFI@ERROR?3?6Need?5to?5Select?5A?5Solid?0?5a@ 10157960     SLDmouse.obj
 0002:000079a8       ??_C@_0BO@OJKF@ERROR?3?6Need?5to?5Select?5A?5Solid?$AA@ 101579a8     SLDmouse.obj
 0002:000079cc       ??_C@_0DM@ILIK@ERROR?3?6Need?5to?5Select?5A?5Patch?0?5a@ 101579cc     SLDmouse.obj
 0002:00007a14       ??_C@_0BO@CLIM@ERROR?3?6Need?5to?5Select?5A?5Patch?$AA@ 10157a14     SLDmouse.obj
 0002:00007a38       ??_C@_0DM@CMGO@ERROR?3?6Need?5to?5Select?5A?5Curve?0?5a@ 10157a38     SLDmouse.obj
 0002:00007a80       ??_C@_0BO@JHHC@ERROR?3?6Need?5to?5Select?5A?5Curve?$AA@ 10157a80     SLDmouse.obj
 0002:00007aa4       ??_C@_0EA@OLCC@ERROR?3?6Need?5to?5Select?5A?5Node?0?5an@ 10157aa4     SLDmouse.obj
 0002:00007af0       ??_C@_0EB@PJIL@ERROR?3?6Need?5to?5Select?5A?5Node?0?5an@ 10157af0     SLDmouse.obj
 0002:00007b40       ??_C@_0EB@IIMF@ERROR?3?6Need?5to?5Select?5A?5Node?0?5an@ 10157b40     SLDmouse.obj
 0002:00007b90       ??_C@_0DL@KDON@ERROR?3?6Need?5to?5Select?5A?5Node?0?5an@ 10157b90     SLDmouse.obj
 0002:00007bd8       ??_C@_0BN@FNFA@ERROR?3?6Need?5to?5Select?5A?5Node?$AA@ 10157bd8     SLDmouse.obj
 0002:00007bfc       ??_C@_0CP@DLIG@?$CK?$CK?$CK?$CK?$CK?5Selected?5Node?9Based?5Loadin@ 10157bfc     SLDmouse.obj
 0002:00007c34       ??_C@_0BK@ONDI@?6Loading?5at?5CurveID?5?$DN?5?$CFs?6?$AA@ 10157c34     SLDmouse.obj
 0002:00007c54       ??_C@_0BK@ILLE@?6Loading?5at?5PatchID?5?$DN?5?$CFs?6?$AA@ 10157c54     SLDmouse.obj
 0002:00007c74       ??_C@_0BK@PNFM@?6Loading?5at?5SolidID?5?$DN?5?$CFs?6?$AA@ 10157c74     SLDmouse.obj
 0002:00007c94       ??_C@_06NFED@LUMPWT?$AA@   10157c94     SLDmouse.obj
 0002:00007c9c       ??_C@_07LJPA@THERMAL?$AA@  10157c9c     SLDmouse.obj
 0002:00007ca8       ??_C@_08EAJO@PRESSURE?$AA@ 10157ca8     SLDmouse.obj
 0002:00007cb4       ??_C@_08FLBF@DISPLACE?$AA@ 10157cb4     SLDmouse.obj
 0002:00007cc0       ??_C@_05HJJM@FORCE?$AA@    10157cc0     SLDmouse.obj
 0002:00007cc8       ??_C@_05DEEH@SOLID?$AA@    10157cc8     SLDmouse.obj
 0002:00007cd0       ??_C@_0M@DKIC@Static?$EALoad?$AA@ 10157cd0     SLDmouse.obj
 0002:00007ce0       ??_C@_0BL@GHB@Click?5on?5An?5Existing?5Solid?$AA@ 10157ce0     SLDmouse.obj
 0002:00007d00       ??_C@_0CH@KNPF@Imposing?5Solid?9based?5Force?5Condi@ 10157d00     SLDmouse.obj
 0002:00007d30       ??_C@_0BL@MEFI@Click?5on?5An?5Existing?5Patch?$AA@ 10157d30     SLDmouse.obj
 0002:00007d50       ??_C@_0CH@NFJ@Imposing?5Patch?9based?5Force?5Condi@ 10157d50     SLDmouse.obj
 0002:00007d80       ??_C@_0BL@HIKG@Click?5on?5An?5Existing?5Curve?$AA@ 10157d80     SLDmouse.obj
 0002:00007da0       ??_C@_0CH@LICI@Imposing?5Curve?9based?5Force?5Condi@ 10157da0     SLDmouse.obj
 0002:00007dd0       ??_C@_0CA@JDMG@Click?5on?5An?5Existing?5Input?5Node?$AA@ 10157dd0     SLDmouse.obj
 0002:00007df8       ??_C@_0CG@HPFO@Imposing?5Node?9based?5Force?5Condit@ 10157df8     SLDmouse.obj
 0002:00007e28       ??_C@_07CLBE@Uniform?$AA@  10157e28     SLDmouse.obj
 0002:00007e34       ??_C@_09LIPC@Values?4?4?4?$AA@ 10157e34     SLDmouse.obj
 0002:00007e40       ??_C@_0BB@GEGC@Forces?5?$CG?5Moments?$AA@ 10157e40     SLDmouse.obj
 0002:00007e54       ??_C@_0CL@DCIB@Imposing?5Solid?9based?5Kinematic?5C@ 10157e54     SLDmouse.obj
 0002:00007e88       ??_C@_0CL@CDJO@Imposing?5Patch?9based?5Kinematic?5C@ 10157e88     SLDmouse.obj
 0002:00007ebc       ??_C@_0CL@BLBL@Imposing?5Curve?9based?5Kinematic?5C@ 10157ebc     SLDmouse.obj
 0002:00007ef0       ??_C@_0CK@LECI@Imposing?5Node?9based?5Kinematic?5Co@ 10157ef0     SLDmouse.obj
 0002:00007f24       ??_C@_0BK@KIBL@Displacements?5?$CG?5Rotations?$AA@ 10157f24     SLDmouse.obj
 0002:00007f44       ??_C@_0CK@OCII@Imposing?5Solid?9based?5Pressure?5Co@ 10157f44     SLDmouse.obj
 0002:00007f78       ??_C@_0CK@PNEK@Imposing?5Patch?9based?5Pressure?5Co@ 10157f78     SLDmouse.obj
 0002:00007fac       ??_C@_0CK@HIGE@Imposing?5Curve?9based?5Pressure?5Co@ 10157fac     SLDmouse.obj
 0002:00007fe0       ??_C@_0CJ@ELJH@Imposing?5Node?9based?5Pressure?5Con@ 10157fe0     SLDmouse.obj
 0002:00008014       ??_C@_0BG@GIFM@Pressures?5?$CG?5Tractions?$AA@ 10158014     SLDmouse.obj
 0002:00008030       ??_C@_0CJ@COMI@Imposing?5Solid?9based?5Thermal?5Con@ 10158030     SLDmouse.obj
 0002:00008064       ??_C@_0CJ@OMKH@Imposing?5Patch?9based?5Thermal?5Con@ 10158064     SLDmouse.obj
 0002:00008098       ??_C@_0CJ@MCBO@Imposing?5Curve?9based?5Thermal?5Con@ 10158098     SLDmouse.obj
 0002:000080cc       ??_C@_0CI@DBAE@Imposing?5Node?9based?5Thermal?5Cond@ 101580cc     SLDmouse.obj
 0002:000080fc       ??_C@_0BB@EFH@Thermal?5Loadings?$AA@ 101580fc     SLDmouse.obj
 0002:00008110       ??_C@_0CD@EAIM@Imposing?5Solid?9based?5Lump?5Weight@ 10158110     SLDmouse.obj
 0002:0000813c       ??_C@_0CD@NLKC@Imposing?5Patch?9based?5Lump?5Weight@ 1015813c     SLDmouse.obj
 0002:00008168       ??_C@_0CD@LGNA@Imposing?5Curve?9based?5Lump?5Weight@ 10158168     SLDmouse.obj
 0002:00008194       ??_C@_0CC@MJJM@Imposing?5Node?9based?5Lump?5Weights@ 10158194     SLDmouse.obj
 0002:000081bc       ??_C@_0N@PON@Lump?5Weights?$AA@ 101581bc     SLDmouse.obj
 0002:000081cc       ??_C@_0BH@DHII@?5SLDMouse?3?5?5?5?5Loading?6?$AA@ 101581cc     SLDmouse.obj
 0002:000081e8       ??_C@_0BH@PANO@?5SLDMouse?3?5?5?5?5Storing?6?$AA@ 101581e8     SLDmouse.obj
 0002:00008204       ??_C@_09ELMN@CSolMouse?$AA@ 10158204     SolMouse.obj
 0002:00008210       ??_7CLoftSol_Compat@@6B@   10158210     SolMouse.obj
 0002:00008228       ??_7CSolMouse@@6B@         10158228     SolMouse.obj
 0002:000082d4       ??_C@_0BF@BEJK@Tensor?5Product?5Solid?$AA@ 101582d4     SolMouse.obj
 0002:000082f0       ??_C@_0DB@BJOP@Internal?5ERROR?3?6CSolMouse?3?3SolTo@ 101582f0     SolMouse.obj
 0002:0000832c       ??_C@_0DC@MODG@Internal?5ERROR?3?6CSolMouse?3?3SolTo@ 1015832c     SolMouse.obj
 0002:00008368       ??_C@_0DC@HCMI@Internal?5ERROR?3?6CSolMouse?3?3SolTo@ 10158368     SolMouse.obj
 0002:000083a4       ??_C@_0DL@OBHC@Internal?5ERROR?3?6CSolMouse?3?3SolTo@ 101583a4     SolMouse.obj
 0002:000083ec       ??_C@_0P@BNMM@Gordon?5Solid?3?5?$AA@ 101583ec     SolMouse.obj
 0002:00008400       ??_C@_0BN@BGLA@Gordon?5Solid?3?5Provide?5Twists?$AA@ 10158400     SolMouse.obj
 0002:00008424       ??_C@_0CE@DMNN@Gordon?5Solid?3?5Provide?5EndConditi@ 10158424     SolMouse.obj
 0002:00008450       ??_C@_0BH@LEDE@Tensor?5Product?5Solid?3?5?$AA@ 10158450     SolMouse.obj
 0002:0000846c       ??_C@_0CF@PKIK@Tensor?5Product?5Solid?3?5Provide?5Tw@ 1015846c     SolMouse.obj
 0002:00008498       ??_C@_0CM@HOLN@Tensor?5Product?5Solid?3?5Provide?5En@ 10158498     SolMouse.obj
 0002:000084cc       ??_C@_0N@GLDH@Loft?5Solid?3?5?$AA@ 101584cc     SolMouse.obj
 0002:000084dc       ??_C@_0EH@NGEH@Internal?5ERROR?3?6CSolMouse?3?3Updat@ 101584dc     SolMouse.obj
 0002:00008534       ??_C@_0BL@NHCL@Loft?5Solid?3?5Provide?5Twists?$AA@ 10158534     SolMouse.obj
 0002:00008554       ??_C@_0CC@MONN@Loft?5Solid?3?5Provide?5EndCondition@ 10158554     SolMouse.obj
 0002:0000857c       ??_C@_0EL@CIIJ@Internal?5ERROR?3?6CSolMouse?3?3Updat@ 1015857c     SolMouse.obj
 0002:000085d8       ??_C@_0CF@FMAD@Gordon?5Solid?3?5Provide?5Twists?5at?5@ 101585d8     SolMouse.obj
 0002:00008604       ??_C@_0CD@OIPB@Loft?5Solid?3?5Provide?5Twists?5at?5th@ 10158604     SolMouse.obj
 0002:00008630       ??_C@_0CK@PABD@?7Latch?5Option?5for?5the?5Patch?5may?5@ 10158630     SolMouse.obj
 0002:00008664       ??_C@_0CK@DOCN@Last?5Patch?5is?5Not?5Compatible?5wit@ 10158664     SolMouse.obj
 0002:00008698       ??_C@_0CA@INIP@?$CK?$CK?$CK?$CK?$CK?5No?5More?5Patch?5Found?5?$CK?$CK?$CK?$CK?6?$AA@ 10158698     SolMouse.obj
 0002:000086c0       ??_C@_0BP@KKBD@?6NO?3?7?7Find?5Next?5Matching?5Patch?$AA@ 101586c0     SolMouse.obj
 0002:000086e8       ??_C@_0CD@EFHP@?6?6YES?3?7?7Accept?5This?5Existing?5Pat@ 101586e8     SolMouse.obj
 0002:00008714       ??_C@_0BI@PMOG@?$CK?$CK?$CK?$CK?$CK?5A?5Patch?5Hit?5?$CK?$CK?$CK?$CK?6?$AA@ 10158714     SolMouse.obj
 0002:00008730       ??_C@_0DI@DEKL@Solid?5?$CFs?5contains?3?6?7?$CFd?5Interpola@ 10158730     SolMouse.obj
 0002:00008774       ??_C@_0L@HOBI@BACKWARD_1?$AA@ 10158774     SolMouse.obj
 0002:00008784       ??_C@_09MFK@FORWARD_1?$AA@ 10158784     SolMouse.obj
 0002:00008790       ??_C@_0CN@LCJE@Degenerate?5Solid?3?6Same?5Patch?5Mor@ 10158790     SolMouse.obj
 0002:000087c8       ??_C@_0EH@HIFK@Internal?5ERROR?3?6CSolMouse?3?3Switc@ 101587c8     SolMouse.obj
 0002:00008820       ??_C@_0CO@JPPA@?6NO?3?7?7Find?5Next?5Solid?5with?5Inter@ 10158820     SolMouse.obj
 0002:00008858       ??_C@_0BI@FOO@?6YES?3?7?7Spawn?5This?5Solid?$AA@ 10158858     SolMouse.obj
 0002:00008874       ??_C@_0CF@LNJE@Solid?5?$CFs?6Generated?5by?5Gordon?5Met@ 10158874     SolMouse.obj
 0002:000088a0       ??_C@_0CG@FCIF@Solid?5?$CFs?6Generated?5by?5Tensor?5Pro@ 101588a0     SolMouse.obj
 0002:000088d0       ??_C@_0CB@MEAP@?$CK?$CK?$CK?$CK?$CK?5A?5Solid?5Hit?5To?5Spawn?5?$CK?$CK?$CK?$CK?6@ 101588d0     SolMouse.obj
 0002:000088f8       ??_C@_0BM@JHHB@Minimum?5of?54?5Patches?5Needed?$AA@ 101588f8     SolMouse.obj
 0002:0000891c       ??_C@_0EF@PHDA@Minimum?5of?51?5Patch?0?51?5Curve?5?$CG?51?5@ 1015891c     SolMouse.obj
 0002:00008970       ??_C@_0DM@NJKD@Minimum?5of?51?5Patch?0?51?5Curve?5?$CG?51?5@ 10158970     SolMouse.obj
 0002:000089b8       ??_C@_0CO@BELN@Minimum?5of?52?5Patches?5Needed?5in?5E@ 101589b8     SolMouse.obj
 0002:000089f0       ??_C@_0BM@FDPO@Minimum?5of?52?5Patches?5Needed?$AA@ 101589f0     SolMouse.obj
 0002:00008a14       ??_C@_0CF@BOEI@Minimum?5of?51?5Patch?5?$CG?52?5CNodes?5Ne@ 10158a14     SolMouse.obj
 0002:00008a40       ??_C@_0BH@OIID@?7?$CFs?5Radial?5Scale?5Curve?$AA@ 10158a40     SolMouse.obj
 0002:00008a5c       ??_C@_0ED@PMDO@Solid?5?$CFs?5contains?6?7?$CFd?5Sweeping?5P@ 10158a5c     SolMouse.obj
 0002:00008aac       ??_C@_0BA@MCGN@?7?$CFs?5Twist?5Curve?$AA@ 10158aac     SolMouse.obj
 0002:00008ac0       ??_C@_0BJ@HIBJ@?7?$CFs?5CrossSectional?5Patch?$AA@ 10158ac0     SolMouse.obj
 0002:00008ae0       ??_C@_0EH@BKFO@Solid?5?$CFs?5contains?6?7?$CFd?5Ducting?5Pa@ 10158ae0     SolMouse.obj
 0002:00008b38       ??_C@_0CP@DKHD@Solid?5?$CFs?5consists?5of?6?7?$CFd?5Curves?5@ 10158b38     SolMouse.obj
 0002:00008b70       ??_C@_0CN@GOOL@Solid?5?$CFs?5consists?5of?6?7?$CFd?5Nodes?5b@ 10158b70     SolMouse.obj
 0002:00008ba8       ??_C@_0P@PKIE@?7?$CFs?5To?5Loft?5To?$AA@ 10158ba8     SolMouse.obj
 0002:00008bbc       ??_C@_0BB@GDD@?7?$CFs?5To?5Loft?5From?$AA@ 10158bbc     SolMouse.obj
 0002:00008bd0       ??_C@_0CI@OHEK@Solid?5?$CFs?5contains?6?7?$CFd?5Lofting?5Pa@ 10158bd0     SolMouse.obj
 0002:00008c00       ??_C@_0CI@HEAG@Solid?5?$CFs?5contains?6?7Rotational?5Pa@ 10158c00     SolMouse.obj
 0002:00008c30       ??_C@_0CH@MKPO@Solid?5?$CFs?5contains?6?7Extrusion?5Pat@ 10158c30     SolMouse.obj
 0002:00008c60       ??_C@_0CF@MOCF@Solid?5?$CFs?5contains?6?7?$CFd?5Coons?5Curv@ 10158c60     SolMouse.obj
 0002:00008c8c       ??_C@_0O@JCCE@UNKNOWN?$EASOLID?$AA@ 10158c8c     SolMouse.obj
 0002:00008c9c       ??_C@_0BH@PEIO@A?5Solid?5by?5Tessalation?$AA@ 10158c9c     SolMouse.obj
 0002:00008cb8       ??_C@_0L@COLH@Flat?$EASOLID?$AA@ 10158cb8     SolMouse.obj
 0002:00008cc8       ??_C@_0BE@PPK@A?5Solid?5by?5Sweeping?$AA@ 10158cc8     SolMouse.obj
 0002:00008ce0       ??_C@_0M@ILEK@Swept?$EASOLID?$AA@ 10158ce0     SolMouse.obj
 0002:00008cf0       ??_C@_0BD@PIMC@A?5Solid?5by?5Ducting?$AA@ 10158cf0     SolMouse.obj
 0002:00008d08       ??_C@_0N@EOFL@Ducted?$EASOLID?$AA@ 10158d08     SolMouse.obj
 0002:00008d18       ??_C@_0BF@NPFH@A?5Solid?5by?5Extrusion?$AA@ 10158d18     SolMouse.obj
 0002:00008d34       ??_C@_0P@JOBP@Extruded?$EASOLID?$AA@ 10158d34     SolMouse.obj
 0002:00008d48       ??_C@_0BD@HAJM@A?5Solid?5by?5Lofting?$AA@ 10158d48     SolMouse.obj
 0002:00008d60       ??_C@_0N@LIFJ@Lofted?$EASOLID?$AA@ 10158d60     SolMouse.obj
 0002:00008d70       ??_C@_0BE@OINJ@A?5Solid?5by?5Rotation?$AA@ 10158d70     SolMouse.obj
 0002:00008d88       ??_C@_0BB@OKLF@Rotational?$EASOLID?$AA@ 10158d88     SolMouse.obj
 0002:00008d9c       ??_C@_0O@IJKN@A?5Coons?5Solid?$AA@ 10158d9c     SolMouse.obj
 0002:00008dac       ??_C@_0M@INMD@Coons?$EASOLID?$AA@ 10158dac     SolMouse.obj
 0002:00008dbc       ??_C@_0BA@OHOF@A?5Gordons?5Solid?$AA@ 10158dbc     SolMouse.obj
 0002:00008dd0       ??_C@_0O@DEFE@Gordons?$EASOLID?$AA@ 10158dd0     SolMouse.obj
 0002:00008de0       ??_C@_0BH@GCGF@A?5Tensor?5Product?5Solid?$AA@ 10158de0     SolMouse.obj
 0002:00008dfc       ??_C@_0BF@KHLC@Tensor?5Product?$EASOLID?$AA@ 10158dfc     SolMouse.obj
 0002:00008e18       ??_C@_0BE@IHBF@Select?5a?5Solid?5Type?$AA@ 10158e18     SolMouse.obj
 0002:00008e30       ??_C@_0EK@GNPL@Internal?5ERROR?3?6CSolMouse?3?3Creat@ 10158e30     SolMouse.obj
 0002:00008e88       ??_C@_0EA@JPOG@Internal?5ERROR?3?6CSolMouse?3?3Proce@ 10158e88     SolMouse.obj
 0002:00008ed4       ??_C@_0EG@BCHD@Solid?5by?5Extrusion?3?5Click?5in?$EAIst@ 10158ed4     SolMouse.obj
 0002:00008f28       ??_C@_0DA@LJGI@Solid?5by?5Extrusion?3?5Click?5in?$EAA?5P@ 10158f28     SolMouse.obj
 0002:00008f64       ??_C@_0DP@KCCJ@Solid?5by?5Rotation?3?5Click?5in?$EAIst?5@ 10158f64     SolMouse.obj
 0002:00008fb0       ??_C@_0M@ENGH@Rotng?4Patch?$AA@ 10158fb0     SolMouse.obj
 0002:00008fc0       ??_C@_0CO@IKJP@Solid?5by?5Rotation?3?5Click?5in?$EAA?5Pa@ 10158fc0     SolMouse.obj
 0002:00008ff8       ??_C@_0CM@HNAC@Loft?5Solid?3?5Provide?5B?4C?4?5for?5the@ 10158ff8     SolMouse.obj
 0002:0000902c       ??_C@_0BL@BNKA@Loft?5Solid?3?5Left?5Click?5in?5?$AA@ 1015902c     SolMouse.obj
 0002:0000904c       ??_C@_0BP@KGEI@?$EAPatch?$CD?5?$CFd?5of?5?$CFd?5Total?5Patches?$AA@ 1015904c     SolMouse.obj
 0002:00009074       ??_C@_0CG@NAMM@Loft?5Solid?3?$EAProvide?5Number?5of?5Pa@ 10159074     SolMouse.obj
 0002:000090a4       ??_C@_0DA@CDGG@Tensor?5Product?3?5Provide?5B?4C?4?5for@ 101590a4     SolMouse.obj
 0002:000090e0       ??_C@_0CG@KMCD@?$EANode?$CD?5?$CFd?5of?5?$CFd?5Total?5Nodes?$CI?$CFdX?$CF@ 101590e0     SolMouse.obj
 0002:00009110       ??_C@_0CO@PGJC@Tensor?5Product?5Solid?3?$EAProvide?5Nu@ 10159110     SolMouse.obj
 0002:00009148       ??_C@_0DF@HMGP@Gordon?5Solid?3?5Provide?5Twist?5Info@ 10159148     SolMouse.obj
 0002:00009188       ??_C@_0CJ@EMDO@?$EAPatch?$CD?5?$CFd?5of?5?$CFd?5Total?5Patches?$CI?$CF@ 10159188     SolMouse.obj
 0002:000091bc       ??_C@_0CI@KGCL@Gordon?5Solid?3?$EAProvide?5Number?5of?5@ 101591bc     SolMouse.obj
 0002:000091ec       ??_C@_0L@PFLN@Last?5Patch?$AA@ 101591ec     SolMouse.obj
 0002:000091fc       ??_C@_0DP@FLKH@Quadrilateral?3?5Select?5Last?5Patch@ 101591fc     SolMouse.obj
 0002:00009248       ??_C@_09NHFJ@3rd?5Patch?$AA@ 10159248     SolMouse.obj
 0002:00009254       ??_C@_0CO@MMDN@Patch?5by?5Coons?5Method?3?$EAClick?5in?5@ 10159254     SolMouse.obj
 0002:0000928c       ??_C@_09PGDG@2nd?5Patch?$AA@ 1015928c     SolMouse.obj
 0002:00009298       ??_C@_0CO@ONFC@Patch?5by?5Coons?5Method?3?$EAClick?5in?5@ 10159298     SolMouse.obj
 0002:000092d0       ??_C@_09BPHA@Ist?5Patch?$AA@ 101592d0     SolMouse.obj
 0002:000092dc       ??_C@_0DA@IIIM@Solid?5by?5Coons?5Method?3?$EAClick?5in?5@ 101592dc     SolMouse.obj
 0002:00009318       ??_C@_0DN@BGKG@Solid?5by?5Ducting?3?5Ready?5with?5oth@ 10159318     SolMouse.obj
 0002:00009364       ??_C@_0EI@NCNF@Solid?5by?5Ducting?3?5Provide?5in?5Dia@ 10159364     SolMouse.obj
 0002:000093bc       ??_C@_0CH@MGFP@Solid?5by?5Ducting?3?$EAClick?5in?5Ancho@ 101593bc     SolMouse.obj
 0002:000093ec       ??_C@_0CH@LEAH@Solid?5by?5Ducting?3?$EAClick?5in?5Spine@ 101593ec     SolMouse.obj
 0002:0000941c       ??_C@_0DB@PBBI@Solid?5by?5Ducting?3?$EAClick?5in?5Cross@ 1015941c     SolMouse.obj
 0002:00009458       ??_C@_0DO@GJNF@Solid?5by?5Sweeping?3?5Ready?5with?5ot@ 10159458     SolMouse.obj
 0002:000094a4       ??_C@_0FA@KPMC@Solid?5by?5Sweeping?3?5Provide?5in?5Di@ 101594a4     SolMouse.obj
 0002:00009504       ??_C@_0DC@EMA@Solid?5by?5Sweeping?3?$EAClick?5in?5Cros@ 10159504     SolMouse.obj
 0002:00009540       ??_C@_0BH@LOFJ@?5SolMouse?3?5?5?5?5Loading?6?$AA@ 10159540     SolMouse.obj
 0002:0000955c       ??_C@_0BH@HJAP@?5SolMouse?3?5?5?5?5Storing?6?$AA@ 1015955c     SolMouse.obj
 0002:00009578       ??_7?$CList@W4PATCHLATCH@@W41@@@6B@ 10159578     SolMouse.obj
 0002:00009590       ??_C@_09KLNG@CSpLMouse?$AA@ 10159590     SpLmouse.obj
 0002:0000959c       ??_7CSpLMouse@@6B@         1015959c     SpLmouse.obj
 0002:0000965c       ??_C@_0BH@OIMO@?5SPLMouse?3?5?5?5?5Loading?6?$AA@ 1015965c     SpLmouse.obj
 0002:00009678       ??_C@_0BH@CPJI@?5SPLMouse?3?5?5?5?5Storing?6?$AA@ 10159678     SpLmouse.obj
 0002:00009694       ??_C@_09CKJC@CSupMouse?$AA@ 10159694     Supmouse.obj
 0002:000096a0       ??_7CSupMouse@@6B@         101596a0     Supmouse.obj
 0002:00009758       ??_C@_0EB@KDFO@Internal?5Error?6CSupMouse?3?3FillSu@ 10159758     Supmouse.obj
 0002:000097a8       ??_C@_0EM@FEKI@Fixed?5Direction?5Skewed?5Support?5C@ 101597a8     Supmouse.obj
 0002:00009804       ??_C@_0EO@MKHC@Fixed?5Direction?5Skewed?5Support?5C@ 10159804     Supmouse.obj
 0002:00009864       ??_C@_0DI@CKAJ@ERROR?3?6CSupMouse?3?3NewNode_OtherC@ 10159864     Supmouse.obj
 0002:000098a8       ??_C@_0DP@CGEC@ERROR?3?6Degenerate?5Support?5Direct@ 101598a8     Supmouse.obj
 0002:000098f4       ??_C@_0EC@FOGM@Internal?5ERROR?3?6CSupMouse?3?3FillI@ 101598f4     Supmouse.obj
 0002:00009944       ??_C@_0EJ@BOFO@Internal?5ERROR?3?6CSupMouse?3?3FillI@ 10159944     Supmouse.obj
 0002:0000999c       ??_C@_0ED@KKHK@Internal?5ERROR?3?6CSupMouse?3?3ShowI@ 1015999c     Supmouse.obj
 0002:000099ec       ??_C@_0EK@LOPI@Internal?5ERROR?3?6CSupMouse?3?3ShowI@ 101599ec     Supmouse.obj
 0002:00009a44       ??_C@_0ED@BDMP@Internal?5ERROR?3?6CSupMouse?3?3ShowI@ 10159a44     Supmouse.obj
 0002:00009a94       ??_C@_0EK@IILK@Internal?5ERROR?3?6CSupMouse?3?3ShowI@ 10159a94     Supmouse.obj
 0002:00009aec       ??_C@_0BC@CEPN@?6?7Stiffness?5?$DN?5?$CFf?6?$AA@ 10159aec     Supmouse.obj
 0002:00009b04       ??_C@_0BB@LGBE@?6SupportID?5?$DN?5?$CFs?6?$AA@ 10159b04     Supmouse.obj
 0002:00009b18       ??_C@_0BH@OHFG@?7?7Direction?5?$CFs?5?$DN?5NONE?6?$AA@ 10159b18     Supmouse.obj
 0002:00009b34       ??_C@_0BG@LPBE@?7?7Direction?5?$CFs?5?$DN?5GAP?6?$AA@ 10159b34     Supmouse.obj
 0002:00009b50       ??_C@_0CC@JEGI@?6Support?5Modeled?5as?5PseudoGap?$CIs?$CJ@ 10159b50     Supmouse.obj
 0002:00009b78       ??_C@_0CB@FBJO@Z?9axis?5along?5Normal?5to?5Patch?5?$CFs?6@ 10159b78     Supmouse.obj
 0002:00009ba0       ??_C@_0CJ@HHJB@X?5?$CG?5Y?9axis?5along?5Iso_Curves?5to?5P@ 10159ba0     Supmouse.obj
 0002:00009bd4       ??_C@_0CC@FJKK@X?9axis?5along?5Tangent?5to?5Curve?5?$CFs@ 10159bd4     Supmouse.obj
 0002:00009bfc       ??_C@_0M@EPPH@?7?$CFs?5and?5?$CFs?6?$AA@ 10159bfc     Supmouse.obj
 0002:00009c0c       ??_C@_0BK@JPIO@X?9axis?5defined?5by?5Nodes?3?6?$AA@ 10159c0c     Supmouse.obj
 0002:00009c2c       ??_C@_0CC@OHLN@?6Joint?5Coordinate?5is?5Skewed?5with@ 10159c2c     Supmouse.obj
 0002:00009c54       ??_C@_0P@DAFC@?6?7Rotational?3?6?$AA@ 10159c54     Supmouse.obj
 0002:00009c68       ??_C@_0BO@EPNE@?7?7Direction?5?$CFs?5?$DN?5UNSUPPORTED?6?$AA@ 10159c68     Supmouse.obj
 0002:00009c8c       ??_C@_0DA@GBAL@?7?7Direction?5?$CFs?5?$DN?5SUPPORTED?5with?5@ 10159c8c     Supmouse.obj
 0002:00009cc8       ??_C@_0BC@FFJH@?6?7Translational?3?6?$AA@ 10159cc8     Supmouse.obj
 0002:00009ce0       ??_C@_0CA@EADN@?6?6SupportType?5?$DN?5LINEAR?5SNUBBER?6?$AA@ 10159ce0     Supmouse.obj
 0002:00009d08       ??_C@_0BP@KJNJ@?6?6SupportType?5?$DN?5LINEAR?5SPRING?6?$AA@ 10159d08     Supmouse.obj
 0002:00009d30       ??_C@_0CN@MLDD@?6CANCEL?3?7Update?5Node?5with?5New?5Su@ 10159d30     Supmouse.obj
 0002:00009d68       ??_C@_0CJ@JMKK@?6NO?3?7Update?5Node?5with?5New?5Suppor@ 10159d68     Supmouse.obj
 0002:00009d9c       ??_C@_0CJ@KJOD@?6?6YES?3?7Accept?5The?5Existing?5Nodal@ 10159d9c     Supmouse.obj
 0002:00009dd0       ??_C@_0DB@FEEB@?$CK?$CK?$CK?$CK?$CK?5Selected?5Node?5is?5Already?5S@ 10159dd0     Supmouse.obj
 0002:00009e0c       ??_C@_0CO@MFCO@?6CANCEL?3?7Update?5Curve?5with?5New?5S@ 10159e0c     Supmouse.obj
 0002:00009e44       ??_C@_0CK@NGHJ@?6NO?3?7Update?5Curve?5with?5New?5Suppo@ 10159e44     Supmouse.obj
 0002:00009e78       ??_C@_0CO@BEFC@?6?6YES?3?7Accept?5The?5Existing?5Curve@ 10159e78     Supmouse.obj
 0002:00009eb0       ??_C@_0DC@FFAL@?$CK?$CK?$CK?$CK?$CK?5Selected?5Curve?5is?5Already?5@ 10159eb0     Supmouse.obj
 0002:00009eec       ??_C@_0CO@HAFP@?6CANCEL?3?7Update?5Patch?5with?5New?5S@ 10159eec     Supmouse.obj
 0002:00009f24       ??_C@_0CK@GDAI@?6NO?3?7Update?5Patch?5with?5New?5Suppo@ 10159f24     Supmouse.obj
 0002:00009f58       ??_C@_0CO@OCKD@?6?6YES?3?7Accept?5The?5Existing?5Patch@ 10159f58     Supmouse.obj
 0002:00009f90       ??_C@_0DC@LBDD@?$CK?$CK?$CK?$CK?$CK?5Selected?5Patch?5is?5Already?5@ 10159f90     Supmouse.obj
 0002:00009fcc       ??_C@_0CO@NAPD@?6CANCEL?3?7Update?5Solid?5with?5New?5S@ 10159fcc     Supmouse.obj
 0002:0000a004       ??_C@_0CK@MDKE@?6NO?3?7Update?5Solid?5with?5New?5Suppo@ 1015a004     Supmouse.obj
 0002:0000a038       ??_C@_0CO@EEMG@?6?6YES?3?7Accept?5The?5Existing?5Solid@ 1015a038     Supmouse.obj
 0002:0000a070       ??_C@_0DC@GDCC@?$CK?$CK?$CK?$CK?$CK?5Selected?5Solid?5is?5Already?5@ 1015a070     Supmouse.obj
 0002:0000a0ac       ??_C@_0CF@FCBF@SOLIDBASED?5SUPPORT?6NOT?5SUPPORTED@ 1015a0ac     Supmouse.obj
 0002:0000a0d8       ??_C@_0DB@PHEE@Are?5You?5Sure?5You?5Want?5to?6Delete?5@ 1015a0d8     Supmouse.obj
 0002:0000a114       ??_C@_0CN@FIKE@ERROR?3?6NonLinear?5Support?6NOT?5SUP@ 1015a114     Supmouse.obj
 0002:0000a14c       ??_C@_0BL@MPJN@ERROR?3?6Need?5to?5Select?5A?5?$CFs?$AA@ 1015a14c     Supmouse.obj
 0002:0000a16c       ??_C@_05FLGC@Solid?$AA@    1015a16c     Supmouse.obj
 0002:0000a174       ??_C@_05JJEL@Patch?$AA@    1015a174     Supmouse.obj
 0002:0000a17c       ??_C@_05CFLF@Curve?$AA@    1015a17c     Supmouse.obj
 0002:0000a184       ??_C@_04JKOE@Node?$AA@     1015a184     Supmouse.obj
 0002:0000a18c       ??_C@_0CP@PBHH@?$CK?$CK?$CK?$CK?$CK?5Selected?5Node?9Based?5Suppor@ 1015a18c     Supmouse.obj
 0002:0000a1c4       ??_C@_0BJ@HKEE@?6Support?5at?5NodeID?5?$DN?5?$CFs?6?$AA@ 1015a1c4     Supmouse.obj
 0002:0000a1e4       ??_C@_0BK@HKCB@?6Support?5at?5CurveID?5?$DN?5?$CFs?6?$AA@ 1015a1e4     Supmouse.obj
 0002:0000a204       ??_C@_0BK@BMKN@?6Support?5at?5PatchID?5?$DN?5?$CFs?6?$AA@ 1015a204     Supmouse.obj
 0002:0000a224       ??_C@_0BK@GKEF@?6Support?5at?5SolidID?5?$DN?5?$CFs?6?$AA@ 1015a224     Supmouse.obj
 0002:0000a244       ??_C@_0BC@PKBN@NonLinear?$EARESEVED?$AA@ 1015a244     Supmouse.obj
 0002:0000a25c       ??_C@_0BB@CKFH@NonLinear?$EASpring?$AA@ 1015a25c     Supmouse.obj
 0002:0000a270       ??_C@_0P@EJHC@Linear?$EASnubber?$AA@ 1015a270     Supmouse.obj
 0002:0000a284       ??_C@_0O@OJAC@Linear?$EASpring?$AA@ 1015a284     Supmouse.obj
 0002:0000a294       ??_C@_0O@JGFG@Rigid?$EASupport?$AA@ 1015a294     Supmouse.obj
 0002:0000a2a4       ??_C@_07CEMJ@SUPPORT?$AA@  1015a2a4     Supmouse.obj
 0002:0000a2b0       ??_C@_0BE@OJPG@NonLinear?5Snubbers?$EA?$AA@ 1015a2b0     Supmouse.obj
 0002:0000a2c8       ??_C@_0BD@EMCD@NonLinear?5Springs?$EA?$AA@ 1015a2c8     Supmouse.obj
 0002:0000a2e0       ??_C@_0BB@IIDL@Linear?5Snubbers?$EA?$AA@ 1015a2e0     Supmouse.obj
 0002:0000a2f4       ??_C@_0BA@IBHH@Linear?5Springs?$EA?$AA@ 1015a2f4     Supmouse.obj
 0002:0000a308       ??_C@_0BA@LKJJ@Rigid?5Supports?$EA?$AA@ 1015a308     Supmouse.obj
 0002:0000a31c       ??_C@_0BG@NJDD@Select?5A?5Support?5Type?$AA@ 1015a31c     Supmouse.obj
 0002:0000a338       ??_C@_09KEJA@Supports?$EA?$AA@ 1015a338     Supmouse.obj
 0002:0000a344       ??_C@_0BH@LBKK@Ready?5for?5Assignment?3?5?$AA@ 1015a344     Supmouse.obj
 0002:0000a360       ??_C@_0DC@KIMO@Creating?5Solid?9based?5Non?9Linear?5@ 1015a360     Supmouse.obj
 0002:0000a39c       ??_C@_0DC@DKAB@Creating?5Patch?9based?5Non?9Linear?5@ 1015a39c     Supmouse.obj
 0002:0000a3d8       ??_C@_0DC@CFEF@Creating?5Curve?9based?5Non?9Linear?5@ 1015a3d8     Supmouse.obj
 0002:0000a414       ??_C@_0DB@KONA@Creating?5Node?9based?5Non?9Linear?5S@ 1015a414     Supmouse.obj
 0002:0000a450       ??_C@_0DB@FJCG@Creating?5Solid?9based?5Non?9Linear?5@ 1015a450     Supmouse.obj
 0002:0000a48c       ??_C@_0DB@JGOJ@Creating?5Patch?9based?5Non?9Linear?5@ 1015a48c     Supmouse.obj
 0002:0000a4c8       ??_C@_0DB@NCOC@Creating?5Curve?9based?5Non?9Linear?5@ 1015a4c8     Supmouse.obj
 0002:0000a504       ??_C@_0DA@EHNJ@Creating?5Node?9based?5Non?9Linear?5S@ 1015a504     Supmouse.obj
 0002:0000a540       ??_C@_0CO@FBDA@Creating?5Solid?9based?5Linear?5Snub@ 1015a540     Supmouse.obj
 0002:0000a578       ??_C@_0CO@OAC@Creating?5Patch?9based?5Linear?5Snub@ 1015a578     Supmouse.obj
 0002:0000a5b0       ??_C@_0CO@EMKF@Creating?5Curve?9based?5Linear?5Snub@ 1015a5b0     Supmouse.obj
 0002:0000a5e8       ??_C@_0CN@JPAJ@Creating?5Node?9based?5Linear?5Snubb@ 1015a5e8     Supmouse.obj
 0002:0000a620       ??_C@_0CN@KHCE@Creating?5Solid?9based?5Linear?5Spri@ 1015a620     Supmouse.obj
 0002:0000a658       ??_C@_0CN@JFPG@Creating?5Patch?9based?5Linear?5Spri@ 1015a658     Supmouse.obj
 0002:0000a690       ??_C@_0CN@DCBC@Creating?5Curve?9based?5Linear?5Spri@ 1015a690     Supmouse.obj
 0002:0000a6c8       ??_C@_0CM@IGFF@Creating?5Node?9based?5Linear?5Sprin@ 1015a6c8     Supmouse.obj
 0002:0000a6fc       ??_C@_0CF@BLDB@Creating?5Solid?9based?5Rigid?5Suppo@ 1015a6fc     Supmouse.obj
 0002:0000a728       ??_C@_0CF@EHBL@Creating?5Patch?9based?5Rigid?5Suppo@ 1015a728     Supmouse.obj
 0002:0000a754       ??_C@_0CF@JMB@Creating?5Curve?9based?5Rigid?5Suppo@ 1015a754     Supmouse.obj
 0002:0000a780       ??_C@_0CE@FFLJ@Creating?5Node?9based?5Rigid?5Suppor@ 1015a780     Supmouse.obj
 0002:0000a7ac       ??_C@_0BH@PABD@?5SupMouse?3?5?5?5?5Loading?6?$AA@ 1015a7ac     Supmouse.obj
 0002:0000a7c8       ??_C@_0BH@DHEF@?5SupMouse?3?5?5?5?5Storing?6?$AA@ 1015a7c8     Supmouse.obj
 0002:0000a7e4       ??_7?$CList@Usupportcard@@U1@@@6B@ 1015a7e4     Supmouse.obj
 0002:0000a800       _IID_IDocHostUIHandlerDispatch 1015a800     mfcs42d:stdafx.obj
 0002:0000a810       _IID_IInternalConnection   1015a810     mfcs42d:stdafx.obj
 0002:0000a820       _IID_IAxWinAmbientDispatch 1015a820     mfcs42d:stdafx.obj
 0002:0000a830       _IID_IAxWinHostWindow      1015a830     mfcs42d:stdafx.obj
 0002:0000a840       _IID_IRegistrar            1015a840     mfcs42d:stdafx.obj
 0002:0000a850       _CLSID_Registrar           1015a850     mfcs42d:stdafx.obj
 0002:0000a860       _LIBID_ATLLib              1015a860     mfcs42d:stdafx.obj
 0002:0000a88c       ??_C@_08JKC@crtdll?4c?$AA@ 1015a88c     msvcrtd:crtdll.obj
 0003:00000000       ___xc_a                    1017a000     msvcrtd:cinitexe.obj
 0003:00000250       ___xc_z                    1017a250     msvcrtd:cinitexe.obj
 0003:00000354       ___xi_a                    1017a354     msvcrtd:cinitexe.obj
 0003:00000458       ___xi_z                    1017a458     msvcrtd:cinitexe.obj
 0003:000005c8       ?classCCurMouse@CCurMouse@@2UCRuntimeClass@@A 1017a5c8     CurMouse.obj
 0003:000005f0       ?__LINE__Var@?1??InitDlgIn_CUR@CCurMouse@@QAEXXZ@4FA 1017a5f0     CurMouse.obj
 0003:000005f4       ?__LINE__Var@?1??ShowCurve@CCurMouse@@IAEHPAVCString@@H@Z@4FA 1017a5f4     CurMouse.obj
 0003:000005f8       ?__LINE__Var@?1??LeftUp_Node_Accept_OtherContext@CCurMouse@@IAEHVCPoint@@HHHHPAPAVCDrNode@@@Z@4FA 1017a5f8     CurMouse.obj
 0003:000005fc       ?__LINE__Var@?1??NewNode_OtherContext@CCurMouse@@IAEHVCPoint@@H@Z@4FA 1017a5fc     CurMouse.obj
 0003:00000600       ?__LINE__Var@?1??ShowNodeInfo_SameCoords_OtherContext@CCurMouse@@IAEHPAVCDrNode@@@Z@4FA 1017a600     CurMouse.obj
 0003:00000604       ?__LINE__Var@?1??ShowCurveInfo@CCurMouse@@IAEHPAVCDrCurve@@@Z@4FA 1017a604     CurMouse.obj
 0003:00000608       ?__LINE__Var@?1??RightUp_CURVE_Premature@CCurMouse@@IAEHXZ@4FA 1017a608     CurMouse.obj
 0003:0000060c       ?__LINE__Var@?1??RightUp_NOTCIRCLE_NotAutoAccept@CCurMouse@@IAEHXZ@4FA 1017a60c     CurMouse.obj
 0003:00000610       ?__LINE__Var@?1??RightUp_CIRCLE_NotAutoAccept@CCurMouse@@IAEHXZ@4FA 1017a610     CurMouse.obj
 0003:00000648       ?classCDBMouse@CDBMouse@@2UCRuntimeClass@@A 1017a648     Dbmouse.obj
 0003:000006a0       ?classCDLDMouse@CDLDMouse@@2UCRuntimeClass@@A 1017a6a0     DLDmouse.obj
 0003:000006f8       ?classCMI_Cur_I@CMI_Cur_I@@2UCRuntimeClass@@A 1017a6f8     Mi_cur_i.obj
 0003:00000750       ?classCMI_Obj3D@CMI_Obj3D@@2UCRuntimeClass@@A 1017a750     Mi_obj3d.obj
 0003:000007a8       ?classCMI_Pat_I@CMI_Pat_I@@2UCRuntimeClass@@A 1017a7a8     Mi_pat_i.obj
 0003:00000800       ?classCMI_Sol_I@CMI_Sol_I@@2UCRuntimeClass@@A 1017a800     Mi_sol_i.obj
 0003:0000084c       __pRawDllMain              1017a84c     Mmgrdll.obj
 0003:00000888       ?classCMouse@CMouse@@2UCRuntimeClass@@A 1017a888     Mouse.obj
 0003:000008e0       ?classCMouseMgr@CMouseMgr@@2UCRuntimeClass@@A 1017a8e0     Mousemgr.obj
 0003:00000938       ?classCNodMouse@CNodMouse@@2UCRuntimeClass@@A 1017a938     NodMouse.obj
 0003:00000960       ?__LINE__Var@?1??InitDlgIn_NOD@CNodMouse@@QAEXXZ@4FA 1017a960     NodMouse.obj
 0003:00000964       ?__LINE__Var@?1??LeftUp_NODE_NodeContext@CNodMouse@@IAEHVCPoint@@H@Z@4FA 1017a964     NodMouse.obj
 0003:00000968       ?__LINE__Var@?1??ShowNodeInfo_SameID@CNodMouse@@IAEHPAVCDrNode@@@Z@4FA 1017a968     NodMouse.obj
 0003:0000096c       ?__LINE__Var@?1??ShowNodeInfo_SameCoords_NodeContext@CNodMouse@@IAEHPAVCDrNode@@@Z@4FA 1017a96c     NodMouse.obj
 0003:00000970       ?__LINE__Var@?1??ShowNotParentNodeInfo@CNodMouse@@IAEHPAVCDrNode@@@Z@4FA 1017a970     NodMouse.obj
 0003:00000974       ?__LINE__Var@?1??ShowInputInfo_NOD@CNodMouse@@IAEHXZ@4FA 1017a974     NodMouse.obj
 0003:00000978       ?__LINE__Var@?1??RightUp_NotAutoAccept@CNodMouse@@IAEHXZ@4FA 1017a978     NodMouse.obj
 0003:000009b0       ?classCO3DMouse@CO3DMouse@@2UCRuntimeClass@@A 1017a9b0     O3DMouse.obj
 0003:000009d8       ?__LINE__Var@?1??InitDlgIn_O3D@CO3DMouse@@QAEXXZ@4FA 1017a9d8     O3DMouse.obj
 0003:000009dc       ?__LINE__Var@?1??LeftUp_Obj3D_Accept_OtherContext@CO3DMouse@@IAEHVCPoint@@@Z@4FA 1017a9dc     O3DMouse.obj
 0003:000009e0       ?__LINE__Var@?1??LeftUp_Solid_Accept_OtherContext@CO3DMouse@@IAEHVCPoint@@@Z@4FA 1017a9e0     O3DMouse.obj
 0003:000009e4       ?__LINE__Var@?1??RightUp_Premature_O3D@CO3DMouse@@IAEHXZ@4FA 1017a9e4     O3DMouse.obj
 0003:000009e8       ?__LINE__Var@?1??RightUp_NotAutoAccept_O3D@CO3DMouse@@IAEHXZ@4FA 1017a9e8     O3DMouse.obj
 0003:00000a20       ?classCPatMouse@CPatMouse@@2UCRuntimeClass@@A 1017aa20     PatMouse.obj
 0003:00000a48       ?__LINE__Var@?1???0CPatMouse@@QAE@XZ@4FA 1017aa48     PatMouse.obj
 0003:00000a4c       ?__LINE__Var@?1??InitDlgIn_PAT@CPatMouse@@QAEXXZ@4FA 1017aa4c     PatMouse.obj
 0003:00000a50       ?__LINE__Var@?1??UpdateTwistDlg_FALSE@CPatMouse@@IAEHXZ@4FA 1017aa50     PatMouse.obj
 0003:00000a54       ?__LINE__Var@?1??LeftUp_LOFT_PAT@CPatMouse@@IAEHUtagPOINT@@@Z@4FA 1017aa54     PatMouse.obj
 0003:00000a58       ?__LINE__Var@?1??LeftUp_GORDON_PAT@CPatMouse@@IAEHUtagPOINT@@@Z@4FA 1017aa58     PatMouse.obj
 0003:00000a5c       ?__LINE__Var@?1??LeftUp_Curve_Accept_OtherContext@CPatMouse@@IAEHVCPoint@@@Z@4FA 1017aa5c     PatMouse.obj
 0003:00000a60       ?__LINE__Var@?1??CheckCompatibility_COONS_Curve@CPatMouse@@IAEHPAVCDrCurve@@AAW4CURVELATCH@@@Z@4FA 1017aa60     PatMouse.obj
 0003:00000a64       ?__LINE__Var@?1??GetBlendInfo_LOFT@CPatMouse@@IAEHXZ@4FA 1017aa64     PatMouse.obj
 0003:00000a68       ?__LINE__Var@?1??GetBlendInfo_TENSOR@CPatMouse@@IAEHXZ@4FA 1017aa68     PatMouse.obj
 0003:00000a6c       ?__LINE__Var@?1??GetBlendInfo_GORDON@CPatMouse@@IAEHXZ@4FA 1017aa6c     PatMouse.obj
 0003:00000a70       ?__LINE__Var@?1??ShowPatchInfo@CPatMouse@@IAEHPAVCDrPatch@@@Z@4FA 1017aa70     PatMouse.obj
 0003:00000a74       ?__LINE__Var@?1??RightUp_Premature_PAT@CPatMouse@@IAEHXZ@4FA 1017aa74     PatMouse.obj
 0003:00000a78       ?__LINE__Var@?1??RightUp_NotAutoAccept_PAT@CPatMouse@@IAEHXZ@4FA 1017aa78     PatMouse.obj
 0003:00000a7c       ?__LINE__Var@?1??UpdatePDlg_FALSE_LOFT@CPatMouse@@IAEHXZ@4FA 1017aa7c     PatMouse.obj
 0003:00000a80       ?__LINE__Var@?1??UpdatePDlg_FALSE_TENSOR@CPatMouse@@IAEHXZ@4FA 1017aa80     PatMouse.obj
 0003:00000a84       ?__LINE__Var@?1??UpdatePDlg_FALSE_GORDON@CPatMouse@@IAEHXZ@4FA 1017aa84     PatMouse.obj
 0003:00000a88       ?__LINE__Var@?1??UpdatePDlg_FALSE_DUCT@CPatMouse@@IAEHXZ@4FA 1017aa88     PatMouse.obj
 0003:00000a8c       ?__LINE__Var@?1??UpdatePDlg_FALSE_SWEEP@CPatMouse@@IAEHXZ@4FA 1017aa8c     PatMouse.obj
 0003:00000ac0       ?classCSLDMouse@CSLDMouse@@2UCRuntimeClass@@A 1017aac0     SLDmouse.obj
 0003:00000ae8       ?__LINE__Var@?1???0CSLDMouse@@QAE@XZ@4FA 1017aae8     SLDmouse.obj
 0003:00000aec       ?__LINE__Var@?1??InitDlgIn_SLD@CSLDMouse@@QAEXXZ@4FA 1017aaec     SLDmouse.obj
 0003:00000af0       ?__LINE__Var@?1??NewNode_N_Update_SLDContext@CSLDMouse@@IAEHAAVCString@@VCPoint@@H@Z@4FA 1017aaf0     SLDmouse.obj
 0003:00000af4       ?__LINE__Var@?1??Show_NodeBased_NodeInfo@CSLDMouse@@IAEHPAVCDrNode@@@Z@4FA 1017aaf4     SLDmouse.obj
 0003:00000af8       ?__LINE__Var@?1??Show_CurveBased_CurveInfo@CSLDMouse@@IAEHPAVCDrCurve@@@Z@4FA 1017aaf8     SLDmouse.obj
 0003:00000afc       ?__LINE__Var@?1??Show_PatchBased_PatchInfo@CSLDMouse@@IAEHPAVCDrPatch@@@Z@4FA 1017aafc     SLDmouse.obj
 0003:00000b00       ?__LINE__Var@?1??ShowSolidInfo@CSLDMouse@@IAEHPAVCDrSolid@@@Z@4FA 1017ab00     SLDmouse.obj
 0003:00000b04       ?__LINE__Var@?1??RightUp_Static_Premature@CSLDMouse@@IAEHXZ@4FA 1017ab04     SLDmouse.obj
 0003:00000b08       ?__LINE__Var@?1??RightUp_Static_NotAutoAccept@CSLDMouse@@IAEHXZ@4FA 1017ab08     SLDmouse.obj
 0003:00000b40       ?classCSolMouse@CSolMouse@@2UCRuntimeClass@@A 1017ab40     SolMouse.obj
 0003:00000b68       ?__LINE__Var@?1???0CSolMouse@@QAE@XZ@4FA 1017ab68     SolMouse.obj
 0003:00000b6c       ?__LINE__Var@?1??InitDlgIn_SOL@CSolMouse@@QAEXXZ@4FA 1017ab6c     SolMouse.obj
 0003:00000b70       ?__LINE__Var@?1??UpdateTwistDlg_FALSE_SOL@CSolMouse@@IAEHXZ@4FA 1017ab70     SolMouse.obj
 0003:00000b74       ?__LINE__Var@?1??LeftUp_LOFT_SOL@CSolMouse@@IAEHUtagPOINT@@@Z@4FA 1017ab74     SolMouse.obj
 0003:00000b78       ?__LINE__Var@?1??LeftUp_GORDON_SOL@CSolMouse@@IAEHUtagPOINT@@@Z@4FA 1017ab78     SolMouse.obj
 0003:00000b7c       ?__LINE__Var@?1??LeftUp_Patch_Accept_OtherContext@CSolMouse@@IAEHVCPoint@@@Z@4FA 1017ab7c     SolMouse.obj
 0003:00000b80       ?__LINE__Var@?1??GetBlendInfo_LOFT_SOL@CSolMouse@@IAEHXZ@4FA 1017ab80     SolMouse.obj
 0003:00000b84       ?__LINE__Var@?1??GetBlendInfo_TENSOR_SOL@CSolMouse@@IAEHXZ@4FA 1017ab84     SolMouse.obj
 0003:00000b88       ?__LINE__Var@?1??GetBlendInfo_GORDON_SOL@CSolMouse@@IAEHXZ@4FA 1017ab88     SolMouse.obj
 0003:00000b8c       ?__LINE__Var@?1??ShowSolidInfo@CSolMouse@@IAEHPAVCDrSolid@@@Z@4FA 1017ab8c     SolMouse.obj
 0003:00000b90       ?__LINE__Var@?1??RightUp_Premature_SOL@CSolMouse@@IAEHXZ@4FA 1017ab90     SolMouse.obj
 0003:00000b94       ?__LINE__Var@?1??RightUp_NotAutoAccept_SOL@CSolMouse@@IAEHXZ@4FA 1017ab94     SolMouse.obj
 0003:00000b98       ?__LINE__Var@?1??UpdateSDlg_FALSE_LOFT@CSolMouse@@IAEHXZ@4FA 1017ab98     SolMouse.obj
 0003:00000b9c       ?__LINE__Var@?1??UpdateSDlg_FALSE_TENSOR@CSolMouse@@IAEHXZ@4FA 1017ab9c     SolMouse.obj
 0003:00000ba0       ?__LINE__Var@?1??UpdateSDlg_FALSE_GORDON@CSolMouse@@IAEHXZ@4FA 1017aba0     SolMouse.obj
 0003:00000ba4       ?__LINE__Var@?1??UpdateSDlg_FALSE_DUCT@CSolMouse@@IAEHXZ@4FA 1017aba4     SolMouse.obj
 0003:00000ba8       ?__LINE__Var@?1??UpdateSDlg_FALSE_SWEEP@CSolMouse@@IAEHXZ@4FA 1017aba8     SolMouse.obj
 0003:00000be0       ?classCSpLMouse@CSpLMouse@@2UCRuntimeClass@@A 1017abe0     SpLmouse.obj
 0003:00000c38       ?classCSupMouse@CSupMouse@@2UCRuntimeClass@@A 1017ac38     Supmouse.obj
 0003:00000c60       ?__LINE__Var@?1???0CSupMouse@@QAE@XZ@4FA 1017ac60     Supmouse.obj
 0003:00000c64       ?__LINE__Var@?1??InitDlgIn_SUP@CSupMouse@@QAEXXZ@4FA 1017ac64     Supmouse.obj
 0003:00000c68       ?__LINE__Var@?1??NewNode_N_Update_SUPContext@CSupMouse@@IAEHAAVCString@@VCPoint@@H@Z@4FA 1017ac68     Supmouse.obj
 0003:00000c6c       ?__LINE__Var@?1??Show_NodeBased_NodeInfo@CSupMouse@@IAEHPAVCDrNode@@@Z@4FA 1017ac6c     Supmouse.obj
 0003:00000c70       ?__LINE__Var@?1??Show_CurveBased_CurveInfo@CSupMouse@@IAEHPAVCDrCurve@@@Z@4FA 1017ac70     Supmouse.obj
 0003:00000c74       ?__LINE__Var@?1??Show_PatchBased_PatchInfo@CSupMouse@@IAEHPAVCDrPatch@@@Z@4FA 1017ac74     Supmouse.obj
 0003:00000c78       ?__LINE__Var@?1??ShowSolidInfo@CSupMouse@@IAEHPAVCDrSolid@@@Z@4FA 1017ac78     Supmouse.obj
 0003:00000c7c       ?__LINE__Var@?1??RightUp_LinSup_Premature@CSupMouse@@IAEHXZ@4FA 1017ac7c     Supmouse.obj
 0003:00000c80       ?__LINE__Var@?1??RightUp_LinSup_NotAutoAccept@CSupMouse@@IAEHXZ@4FA 1017ac80     Supmouse.obj
 0003:00000c88       ?GUID_ATLVer30@ATL@@3U_GUID@@A 1017ac88     mfcs42d:stdafx.obj
 0003:00000df8       ?_init_CCurMouse@@3UAFX_CLASSINIT@@A 1017adf8     CurMouse.obj
 0003:00000dfc       ?_init_CDBMouse@@3UAFX_CLASSINIT@@A 1017adfc     Dbmouse.obj
 0003:00000e00       ?_init_CDLDMouse@@3UAFX_CLASSINIT@@A 1017ae00     DLDmouse.obj
 0003:00000e04       ?_init_CMI_Cur_I@@3UAFX_CLASSINIT@@A 1017ae04     Mi_cur_i.obj
 0003:00000e08       ?_init_CMI_Obj3D@@3UAFX_CLASSINIT@@A 1017ae08     Mi_obj3d.obj
 0003:00000e0c       ?_init_CMI_Pat_I@@3UAFX_CLASSINIT@@A 1017ae0c     Mi_pat_i.obj
 0003:00000e10       ?_init_CMI_Sol_I@@3UAFX_CLASSINIT@@A 1017ae10     Mi_sol_i.obj
 0003:00000e18       __afxForceEXTDLL           1017ae18     Mmgrdll.obj
 0003:00000e20       ?extensionMMgr_DLL@@3UAFX_EXTENSION_MODULE@@A 1017ae20     Mmgrdll.obj
 0003:00000e3c       ?_init_CMouse@@3UAFX_CLASSINIT@@A 1017ae3c     Mouse.obj
 0003:00000e40       ?_init_CMouseMgr@@3UAFX_CLASSINIT@@A 1017ae40     Mousemgr.obj
 0003:00000e44       ?_init_CNodMouse@@3UAFX_CLASSINIT@@A 1017ae44     NodMouse.obj
 0003:00000e48       ?_init_CO3DMouse@@3UAFX_CLASSINIT@@A 1017ae48     O3DMouse.obj
 0003:00000e4c       ?_init_CPatMouse@@3UAFX_CLASSINIT@@A 1017ae4c     PatMouse.obj
 0003:00000e50       ?_init_CSLDMouse@@3UAFX_CLASSINIT@@A 1017ae50     SLDmouse.obj
 0003:00000e54       ?_init_CSolMouse@@3UAFX_CLASSINIT@@A 1017ae54     SolMouse.obj
 0003:00000e58       ?_init_CSpLMouse@@3UAFX_CLASSINIT@@A 1017ae58     SpLmouse.obj
 0003:00000e5c       ?_init_CSupMouse@@3UAFX_CLASSINIT@@A 1017ae5c     Supmouse.obj
 0003:00000e60       __afxForceEXCLUDE          1017ae60     mfcs42d:nolib.obj
 0003:00000e64       ?ATL_CREATE_OBJECT@CComApartment@ATL@@2IA 1017ae64     mfcs42d:stdafx.obj
 0003:00000e68       ?m_libid@CComModule@ATL@@2U_GUID@@A 1017ae68     mfcs42d:stdafx.obj
 0003:00000e78       ?_pModule@ATL@@3PAVCComModule@1@A 1017ae78     mfcs42d:stdafx.obj
 0003:00000e7c       __afxForceSTDAFX           1017ae7c     mfcs42d:stdafx.obj
 0003:00000e84       __adjust_fdiv              1017ae84     <common>
 0003:00000e90       ___onexitend               1017ae90     <common>
 0003:00000ea0       ___onexitbegin             1017aea0     <common>
 0004:00000000       __IMPORT_DESCRIPTOR_OMgr_D32 1017b000     OMgr_D32:OMgr_D32.dll
 0004:00000014       __IMPORT_DESCRIPTOR_Spec_D32 1017b014     Spec_d32:Spec_D32.dll
 0004:00000028       __IMPORT_DESCRIPTOR_Draw_D32 1017b028     Draw_D32:Draw_D32.dll
 0004:0000003c       __IMPORT_DESCRIPTOR_Elem_D32 1017b03c     Elem_D32:Elem_D32.dll
 0004:00000050       __IMPORT_DESCRIPTOR_OGEN_D32 1017b050     OGen_D32:OGEN_D32.dll
 0004:00000064       __IMPORT_DESCRIPTOR_DDlg_D32 1017b064     DDlg_D32:DDlg_D32.dll
 0004:00000078       __IMPORT_DESCRIPTOR_Dr3D_D32 1017b078     Dr3D_D32:Dr3D_D32.dll
 0004:0000008c       __IMPORT_DESCRIPTOR_MSup_D32 1017b08c     MSup_D32:MSup_D32.dll
 0004:000000a0       __IMPORT_DESCRIPTOR_MStL_D32 1017b0a0     MStL_D32:MStL_D32.dll
 0004:000000b4       __IMPORT_DESCRIPTOR_MNod_D32 1017b0b4     MNod_D32:MNod_D32.dll
 0004:000000c8       __IMPORT_DESCRIPTOR_MCur_D32 1017b0c8     MCur_D32:MCur_D32.dll
 0004:000000dc       __IMPORT_DESCRIPTOR_MPat_D32 1017b0dc     MPat_D32:MPat_D32.dll
 0004:000000f0       __IMPORT_DESCRIPTOR_MSol_D32 1017b0f0     MSol_D32:MSol_D32.dll
 0004:00000104       __IMPORT_DESCRIPTOR_MO3D_D32 1017b104     MO3D_D32:MO3D_D32.dll
 0004:00000118       __IMPORT_DESCRIPTOR_MFC42D 1017b118     mfc42d:MFC42D.DLL
 0004:0000012c       __IMPORT_DESCRIPTOR_MSVCRTD 1017b12c     msvcrtd:MSVCRTD.dll
 0004:00000140       __IMPORT_DESCRIPTOR_USER32 1017b140     user32:USER32.dll
 0004:00000154       __NULL_IMPORT_DESCRIPTOR   1017b154     OMgr_D32:OMgr_D32.dll
 0004:00000e98       __imp_?DoModal_Label_Edit@CDDlgMgr@@QAEIH@Z 1017be98     DDlg_D32:DDlg_D32.dll
 0004:00000e9c       __imp_?DoModal_Label_Insert@CDDlgMgr@@QAEIHUtagPOINT@@@Z 1017be9c     DDlg_D32:DDlg_D32.dll
 0004:00000ea0       __imp_?DoModal_Grid_Insert@CDDlgMgr@@QAEIXZ 1017bea0     DDlg_D32:DDlg_D32.dll
 0004:00000ea4       \177DDlg_D32_NULL_THUNK_DATA 1017bea4     DDlg_D32:DDlg_D32.dll
 0004:00000ed0       __imp_?BlockCopy@C3DMath@@QAEXPAD0K@Z 1017bed0     Dr3D_D32:Dr3D_D32.dll
 0004:00000ed4       __imp_?Serialize@C3DMath@@UAEXAAVCArchive@@@Z 1017bed4     Dr3D_D32:Dr3D_D32.dll
 0004:00000ed8       __imp_?GetRuntimeClass@C3DMath@@UBEPAUCRuntimeClass@@XZ 1017bed8     Dr3D_D32:Dr3D_D32.dll
 0004:00000edc       __imp_??0C3DMath@@QAE@XZ   1017bedc     Dr3D_D32:Dr3D_D32.dll
 0004:00000ee0       __imp_?Project@CXForm@@UAEXPAUMATRIX@@PAUWORLD@@1@Z 1017bee0     Dr3D_D32:Dr3D_D32.dll
 0004:00000ee4       __imp_?ComposeWin3DtoScreen3DMATRIX@CXForm@@UAEXPAUMATRIX@@UWORLD@@1@Z 1017bee4     Dr3D_D32:Dr3D_D32.dll
 0004:00000ee8       __imp_?TransformPerToParCVV@CXForm@@UAEXNPAUWORLD@@0@Z 1017bee8     Dr3D_D32:Dr3D_D32.dll
 0004:00000eec       __imp_?Transform@CXForm@@UAEXPAUWORLD@@0PAUMATRIX@@@Z 1017beec     Dr3D_D32:Dr3D_D32.dll
 0004:00000ef0       __imp_?ComposeCombineMATRIX@CXForm@@UAEXPAUMATRIX@@00@Z 1017bef0     Dr3D_D32:Dr3D_D32.dll
 0004:00000ef4       __imp_?Per_SetVMMATRIX@CXForm@@UAENPAUMATRIX@@UWORLD@@1NNNN@Z 1017bef4     Dr3D_D32:Dr3D_D32.dll
 0004:00000ef8       __imp_?Par_SetVMMATRIX@CXForm@@UAEXPAUMATRIX@@UWORLD@@1NNNN@Z 1017bef8     Dr3D_D32:Dr3D_D32.dll
 0004:00000efc       __imp_?SetVOMATRIX@CXForm@@UAEXPAUMATRIX@@UWORLD@@11@Z 1017befc     Dr3D_D32:Dr3D_D32.dll
 0004:00000f00       __imp_?ALT_ComposeViewMATRIX@CXForm@@UAEHPAUMATRIX@@UWORLD@@1111NNNN@Z 1017bf00     Dr3D_D32:Dr3D_D32.dll
 0004:00000f04       __imp_?PerToParCVVMATRIX@CXForm@@UAEXPAUMATRIX@@N@Z 1017bf04     Dr3D_D32:Dr3D_D32.dll
 0004:00000f08       __imp_?ComposeViewMATRIX@CXForm@@UAENPAUMATRIX@@UWORLD@@1111NNNN@Z 1017bf08     Dr3D_D32:Dr3D_D32.dll
 0004:00000f0c       __imp_?ComposeLocalMATRIX@CXForm@@UAEXPAUMATRIX@@NNNNNNNNNNNN@Z 1017bf0c     Dr3D_D32:Dr3D_D32.dll
 0004:00000f10       __imp_?VRCtoWORLDRotationMATRIX@CXForm@@UAEXPAUMATRIX@@PAUWORLD@@1@Z 1017bf10     Dr3D_D32:Dr3D_D32.dll
 0004:00000f14       __imp_?RotateToNewXMATRIX@CXForm@@UAEXPAUWORLD@@PAUMATRIX@@W4XFMODE@@@Z 1017bf14     Dr3D_D32:Dr3D_D32.dll
 0004:00000f18       __imp_?HeadToNewXLocMATRIX@CXForm@@UAEXPAUWORLD@@0PAUMATRIX@@W4XFMODE@@@Z 1017bf18     Dr3D_D32:Dr3D_D32.dll
 0004:00000f1c       __imp_?RotateToNewYMATRIX@CXForm@@UAEXPAUWORLD@@PAUMATRIX@@W4XFMODE@@@Z 1017bf1c     Dr3D_D32:Dr3D_D32.dll
 0004:00000f20       __imp_?HeadToNewYLocMATRIX@CXForm@@UAEXPAUWORLD@@0PAUMATRIX@@W4XFMODE@@@Z 1017bf20     Dr3D_D32:Dr3D_D32.dll
 0004:00000f24       __imp_?Sub3DPts@C3DMath@@QAEXPAUWORLD@@00@Z 1017bf24     Dr3D_D32:Dr3D_D32.dll
 0004:00000f28       __imp_?Normalize@C3DMath@@QAEXPAUWORLD@@0@Z 1017bf28     Dr3D_D32:Dr3D_D32.dll
 0004:00000f2c       __imp_?AreSame_WORLD@C3DMath@@QAEHPAUWORLD@@0N@Z 1017bf2c     Dr3D_D32:Dr3D_D32.dll
 0004:00000f30       __imp_?GetRuntimeClass@CXForm@@UBEPAUCRuntimeClass@@XZ 1017bf30     Dr3D_D32:Dr3D_D32.dll
 0004:00000f34       __imp_?Serialize@CXForm@@UAEXAAVCArchive@@@Z 1017bf34     Dr3D_D32:Dr3D_D32.dll
 0004:00000f38       __imp_?Reflect@CXForm@@UAEXPAUMATRIX@@UWORLD@@N@Z 1017bf38     Dr3D_D32:Dr3D_D32.dll
 0004:00000f3c       __imp_?Scale@CXForm@@UAEXPAUMATRIX@@NNNW4XFMODE@@@Z 1017bf3c     Dr3D_D32:Dr3D_D32.dll
 0004:00000f40       __imp_?Shear_X@CXForm@@UAEXPAUMATRIX@@NNW4XFMODE@@@Z 1017bf40     Dr3D_D32:Dr3D_D32.dll
 0004:00000f44       __imp_?Shear_Y@CXForm@@UAEXPAUMATRIX@@NNW4XFMODE@@@Z 1017bf44     Dr3D_D32:Dr3D_D32.dll
 0004:00000f48       __imp_?Shear_Z@CXForm@@UAEXPAUMATRIX@@NNW4XFMODE@@@Z 1017bf48     Dr3D_D32:Dr3D_D32.dll
 0004:00000f4c       __imp_?Rotate_X@CXForm@@UAEXPAUMATRIX@@NW4XFMODE@@@Z 1017bf4c     Dr3D_D32:Dr3D_D32.dll
 0004:00000f50       __imp_?Rotate_Y@CXForm@@UAEXPAUMATRIX@@NW4XFMODE@@@Z 1017bf50     Dr3D_D32:Dr3D_D32.dll
 0004:00000f54       __imp_?Rotate_Z@CXForm@@UAEXPAUMATRIX@@NW4XFMODE@@@Z 1017bf54     Dr3D_D32:Dr3D_D32.dll
 0004:00000f58       __imp_?Translate@CXForm@@UAEXPAUMATRIX@@NNNW4XFMODE@@@Z 1017bf58     Dr3D_D32:Dr3D_D32.dll
 0004:00000f5c       __imp_?RotateAboutLineMATRIX@CXForm@@UAEXPAUMATRIX@@PAUWORLD@@1NW4XFMODE@@@Z 1017bf5c     Dr3D_D32:Dr3D_D32.dll
 0004:00000f60       __imp_?HeadToNewZLocMATRIX@CXForm@@UAEXPAUWORLD@@0PAUMATRIX@@W4XFMODE@@@Z 1017bf60     Dr3D_D32:Dr3D_D32.dll
 0004:00000f64       __imp_?RotateToNewZMATRIX@CXForm@@UAEXPAUWORLD@@PAUMATRIX@@W4XFMODE@@@Z 1017bf64     Dr3D_D32:Dr3D_D32.dll
 0004:00000f68       \177Dr3D_D32_NULL_THUNK_DATA 1017bf68     Dr3D_D32:Dr3D_D32.dll
 0004:00000fb0       __imp_?SetCorner@CDrLabel@@UAEXUtagPOINT@@H@Z 1017bfb0     Draw_D32:Draw_D32.dll
 0004:00000fb4       __imp_?GetCorner@CDrLabel@@UAE?AUtagPOINT@@H@Z 1017bfb4     Draw_D32:Draw_D32.dll
 0004:00000fb8       __imp_?GetObjectInfo@CDrLabel@@UAEXPAVCDrObject@@@Z 1017bfb8     Draw_D32:Draw_D32.dll
 0004:00000fbc       __imp_?SetObjectInfo@CDrLabel@@UAEXPAVCDrObject@@@Z 1017bfbc     Draw_D32:Draw_D32.dll
 0004:00000fc0       __imp_?Pack_drPipe@CDrLabel@@UAEXPAVCString@@@Z 1017bfc0     Draw_D32:Draw_D32.dll
 0004:00000fc4       __imp_?IsKeyMatch@CDrLabel@@UAEHPAVCDrObject@@VCString@@I@Z 1017bfc4     Draw_D32:Draw_D32.dll
 0004:00000fc8       __imp_?IsObjectHit@CDrLabel@@UAEHPAVCClientDC@@HUtagPOINT@@PAVCRect@@H@Z 1017bfc8     Draw_D32:Draw_D32.dll
 0004:00000fcc       __imp_?GetRawCoords@CDrLabel@@UAEXPAJPAHH@Z 1017bfcc     Draw_D32:Draw_D32.dll
 0004:00000fd0       __imp_?FinishObject@CDrLabel@@UAEXPAVCClientDC@@H@Z 1017bfd0     Draw_D32:Draw_D32.dll
 0004:00000fd4       __imp_?DealObjectDialog@CDrLabel@@UAEHXZ 1017bfd4     Draw_D32:Draw_D32.dll
 0004:00000fd8       __imp_?DoDrawView@CDrLabel@@UAEXPAVCDC@@HH@Z 1017bfd8     Draw_D32:Draw_D32.dll
 0004:00000fdc       __imp_?Corner_3Dto2D@CDrLabel@@UAEXXZ 1017bfdc     Draw_D32:Draw_D32.dll
 0004:00000fe0       __imp_?InitDraw@CDrLabel@@UAEXPAVCDC@@HHPAUMATRIX@@1NNN@Z 1017bfe0     Draw_D32:Draw_D32.dll
 0004:00000fe4       __imp_?DoDataView@CDrLabel@@UAEXPAVCDC@@H@Z 1017bfe4     Draw_D32:Draw_D32.dll
 0004:00000fe8       __imp_?Serialize@CDrLabel@@UAEXAAVCArchive@@@Z 1017bfe8     Draw_D32:Draw_D32.dll
 0004:00000fec       __imp_?GetRuntimeClass@CDrLabel@@UBEPAUCRuntimeClass@@XZ 1017bfec     Draw_D32:Draw_D32.dll
 0004:00000ff0       __imp_?AddPoint@CDrFreeHand@@UAEXVCPoint@@@Z 1017bff0     Draw_D32:Draw_D32.dll
 0004:00000ff4       __imp_?IsObjectHit@CDrFreeHand@@UAEHPAVCDrObject@@PAVCClientDC@@HUtagPOINT@@PAUtagRECT@@H@Z 1017bff4     Draw_D32:Draw_D32.dll
 0004:00000ff8       __imp_?GetObjectInfo@CDrFreeHand@@UAEXPAVCDrObject@@@Z 1017bff8     Draw_D32:Draw_D32.dll
 0004:00000ffc       __imp_?SetObjectInfo@CDrFreeHand@@UAEXPAVCDrObject@@@Z 1017bffc     Draw_D32:Draw_D32.dll
 0004:00001000       __imp_?Pack_drPipe@CDrFreeHand@@UAEXPAVCString@@@Z 1017c000     Draw_D32:Draw_D32.dll
 0004:00001004       __imp_?IsKeyMatch@CDrFreeHand@@UAEHPAVCDrObject@@VCString@@I@Z 1017c004     Draw_D32:Draw_D32.dll
 0004:00001008       __imp_?FinishObject@CDrFreeHand@@UAEXH@Z 1017c008     Draw_D32:Draw_D32.dll
 0004:0000100c       __imp_?DealObjectDialog@CDrFreeHand@@UAEHXZ 1017c00c     Draw_D32:Draw_D32.dll
 0004:00001010       __imp_?DoDrawView@CDrFreeHand@@UAEXPAVCDC@@HH@Z 1017c010     Draw_D32:Draw_D32.dll
 0004:00001014       __imp_?DoDataView@CDrFreeHand@@UAEXPAVCDC@@H@Z 1017c014     Draw_D32:Draw_D32.dll
 0004:00001018       __imp_?Serialize@CDrFreeHand@@UAEXAAVCArchive@@@Z 1017c018     Draw_D32:Draw_D32.dll
 0004:0000101c       __imp_?GetRuntimeClass@CDrFreeHand@@UBEPAUCRuntimeClass@@XZ 1017c01c     Draw_D32:Draw_D32.dll
 0004:00001020       __imp_?InitDraw@CDrFreeHand@@UAEXPAVCDC@@HHPAUMATRIX@@1NNN@Z 1017c020     Draw_D32:Draw_D32.dll
 0004:00001024       \177Draw_D32_NULL_THUNK_DATA 1017c024     Draw_D32:Draw_D32.dll
 0004:00001064       __imp_?GetObjectInfo@CElemInfo@@UAEXPAVCDrObject@@@Z 1017c064     Elem_D32:Elem_D32.dll
 0004:00001068       __imp_?SetObjectInfo@CElemInfo@@UAEXPAVCDrObject@@@Z 1017c068     Elem_D32:Elem_D32.dll
 0004:0000106c       __imp_?ReadDefault@CElemInfo@@UAEXXZ 1017c06c     Elem_D32:Elem_D32.dll
 0004:00001070       __imp_?Init@CElemInfo@@UAEXXZ 1017c070     Elem_D32:Elem_D32.dll
 0004:00001074       __imp_?DoDataView@CElemInfo@@UAEXPAVCDC@@H@Z 1017c074     Elem_D32:Elem_D32.dll
 0004:00001078       __imp_?Serialize@CElemInfo@@UAEXAAVCArchive@@@Z 1017c078     Elem_D32:Elem_D32.dll
 0004:0000107c       __imp_?GetRuntimeClass@CElemInfo@@UBEPAUCRuntimeClass@@XZ 1017c07c     Elem_D32:Elem_D32.dll
 0004:00001080       __imp_?Pack_drPipe@CElemInfo@@UAEXPAVCString@@@Z 1017c080     Elem_D32:Elem_D32.dll
 0004:00001084       \177Elem_D32_NULL_THUNK_DATA 1017c084     Elem_D32:Elem_D32.dll
 0004:000010b4       __imp_??0CMC_Lin@@QAE@XZ   1017c0b4     MCur_D32:MCur_D32.dll
 0004:000010b8       __imp_?GoDoIt@CMC_Lin@@QAEPAVCDrCurve@@XZ 1017c0b8     MCur_D32:MCur_D32.dll
 0004:000010bc       __imp_??1CMC_Lin@@UAE@XZ   1017c0bc     MCur_D32:MCur_D32.dll
 0004:000010c0       __imp_??0CMC_Quad@@QAE@XZ  1017c0c0     MCur_D32:MCur_D32.dll
 0004:000010c4       __imp_?GoDoIt@CMC_Quad@@QAEPAVCDrCurve@@XZ 1017c0c4     MCur_D32:MCur_D32.dll
 0004:000010c8       __imp_?CreateCircle@CMC_Circle@@QAEPAVCDrCurve@@AAVCString@@PAV2@PAVCDListMgr@@W4CURVEPROC@@PAV?$CList@HH@@W4CIRCLETYPE@@NNNHPAVCDrNode@@6H@Z 1017c0c8     MCur_D32:MCur_D32.dll
 0004:000010cc       __imp_??1CMC_Quad@@UAE@XZ  1017c0cc     MCur_D32:MCur_D32.dll
 0004:000010d0       __imp_??0CMC_Cube@@QAE@XZ  1017c0d0     MCur_D32:MCur_D32.dll
 0004:000010d4       __imp_?GoDoIt@CMC_Cube@@QAEPAVCDrCurve@@XZ 1017c0d4     MCur_D32:MCur_D32.dll
 0004:000010d8       __imp_??1CMC_Cube@@UAE@XZ  1017c0d8     MCur_D32:MCur_D32.dll
 0004:000010dc       __imp_?Create@CDlg_CrcI@@QAEHXZ 1017c0dc     MCur_D32:MCur_D32.dll
 0004:000010e0       __imp_?Create@CDlg_LQCI@@QAEHXZ 1017c0e0     MCur_D32:MCur_D32.dll
 0004:000010e4       __imp_?DoModal_CIRCLE_Type@CMCurMgr@@QAEIAAW4CIRCLETYPE@@@Z 1017c0e4     MCur_D32:MCur_D32.dll
 0004:000010e8       __imp_??0CMI_GangC@@QAE@XZ 1017c0e8     MCur_D32:MCur_D32.dll
 0004:000010ec       __imp_??0CMC_Circle@@QAE@XZ 1017c0ec     MCur_D32:MCur_D32.dll
 0004:000010f0       __imp_??0CMC_Parab@@QAE@XZ 1017c0f0     MCur_D32:MCur_D32.dll
 0004:000010f4       __imp_??1CMC_Parab@@UAE@XZ 1017c0f4     MCur_D32:MCur_D32.dll
 0004:000010f8       __imp_??1CMC_Circle@@UAE@XZ 1017c0f8     MCur_D32:MCur_D32.dll
 0004:000010fc       __imp_??1CMI_GangC@@UAE@XZ 1017c0fc     MCur_D32:MCur_D32.dll
 0004:00001100       __imp_?CreateParabola@CMC_Parab@@QAEPAVCDrCurve@@AAVCString@@PAV2@PAVCDListMgr@@W4CURVEPROC@@PAV?$CList@HH@@HH@Z 1017c100     MCur_D32:MCur_D32.dll
 0004:00001104       __imp_?CreateCurve@CMI_GangC@@QAEPAVCDrCurve@@AAVCString@@PAV2@PAVCDListMgr@@W4CURVEPROC@@PAV?$CList@HH@@HH@Z 1017c104     MCur_D32:MCur_D32.dll
 0004:00001108       __imp_?GenerateCurveVNodes@CMI_GangC@@QAEHPAVCDrCurve@@AAVCString@@@Z 1017c108     MCur_D32:MCur_D32.dll
 0004:0000110c       __imp_??0CDlg_LQCI@@QAE@PAVCWnd@@@Z 1017c10c     MCur_D32:MCur_D32.dll
 0004:00001110       __imp_??0CDlg_CrcI@@QAE@PAVCWnd@@W4CIRCLETYPE@@@Z 1017c110     MCur_D32:MCur_D32.dll
 0004:00001114       \177MCur_D32_NULL_THUNK_DATA 1017c114     MCur_D32:MCur_D32.dll
 0004:00001150       __imp_?AddTail@CObList@@QAEPAU__POSITION@@PAVCObject@@@Z 1017c150     mfc42d:MFC42D.DLL
 0004:00001154       __imp_??0CPoint@@QAE@UtagPOINT@@@Z 1017c154     mfc42d:MFC42D.DLL
 0004:00001158       __imp_?LPtoDP@CDC@@QBEXPAUtagPOINT@@H@Z 1017c158     mfc42d:MFC42D.DLL
 0004:0000115c       __imp_??0CPen@@QAE@XZ      1017c15c     mfc42d:MFC42D.DLL
 0004:00001160       __imp_?SetBkMode@CDC@@QAEHH@Z 1017c160     mfc42d:MFC42D.DLL
 0004:00001164       __imp_?CreatePen@CPen@@QAEHHHK@Z 1017c164     mfc42d:MFC42D.DLL
 0004:00001168       __imp_?SelectObject@CDC@@QAEPAVCPen@@PAV2@@Z 1017c168     mfc42d:MFC42D.DLL
 0004:0000116c       __imp_?SetROP2@CDC@@QAEHH@Z 1017c16c     mfc42d:MFC42D.DLL
 0004:00001170       __imp_?MoveTo@CDC@@QAE?AVCPoint@@UtagPOINT@@@Z 1017c170     mfc42d:MFC42D.DLL
 0004:00001174       __imp_?LineTo@CDC@@QAEHUtagPOINT@@@Z 1017c174     mfc42d:MFC42D.DLL
 0004:00001178       __imp_?DeleteObject@CGdiObject@@QAEHXZ 1017c178     mfc42d:MFC42D.DLL
 0004:0000117c       __imp_?GetHeadPosition@CObList@@QBEPAU__POSITION@@XZ 1017c17c     mfc42d:MFC42D.DLL
 0004:00001180       __imp_?Invalidate@CWnd@@QAEXH@Z 1017c180     mfc42d:MFC42D.DLL
 0004:00001184       __imp_?UpdateWindow@CWnd@@QAEXXZ 1017c184     mfc42d:MFC42D.DLL
 0004:00001188       __imp_?SetWindowTextA@CWnd@@QAEXPBD@Z 1017c188     mfc42d:MFC42D.DLL
 0004:0000118c       __imp_?UpdateData@CWnd@@QAEHH@Z 1017c18c     mfc42d:MFC42D.DLL
 0004:00001190       __imp_?DPtoLP@CDC@@QBEXPAUtagPOINT@@H@Z 1017c190     mfc42d:MFC42D.DLL
 0004:00001194       __imp_?SendMessageA@CWnd@@QAEJIIJ@Z 1017c194     mfc42d:MFC42D.DLL
 0004:00001198       __imp_??8@YG_NABVCString@@PBD@Z 1017c198     mfc42d:MFC42D.DLL
 0004:0000119c       __imp_?GetCount@CObList@@QBEHXZ 1017c19c     mfc42d:MFC42D.DLL
 0004:000011a0       __imp_??2@YAPAXIPBDH@Z     1017c1a0     mfc42d:MFC42D.DLL
 0004:000011a4       __imp_?AfxMessageBox@@YGHPBDII@Z 1017c1a4     mfc42d:MFC42D.DLL
 0004:000011a8       __imp_?FindIndex@CObList@@QBEPAU__POSITION@@H@Z 1017c1a8     mfc42d:MFC42D.DLL
 0004:000011ac       __imp_?GetAt@CObList@@QAEAAPAVCObject@@PAU__POSITION@@@Z 1017c1ac     mfc42d:MFC42D.DLL
 0004:000011b0       __imp_??0CString@@QAE@PBD@Z 1017c1b0     mfc42d:MFC42D.DLL
 0004:000011b4       __imp_?AddTail@CObList@@QAEXPAV1@@Z 1017c1b4     mfc42d:MFC42D.DLL
 0004:000011b8       __imp_?RemoveAt@CObList@@QAEXPAU__POSITION@@@Z 1017c1b8     mfc42d:MFC42D.DLL
 0004:000011bc       __imp_?GetTail@CObList@@QAEAAPAVCObject@@XZ 1017c1bc     mfc42d:MFC42D.DLL
 0004:000011c0       __imp_?RemoveTail@CObList@@QAEPAVCObject@@XZ 1017c1c0     mfc42d:MFC42D.DLL
 0004:000011c4       __imp_??3@YAXPAXPBDH@Z     1017c1c4     mfc42d:MFC42D.DLL
 0004:000011c8       __imp_?GetMenu@CWnd@@QBEPAVCMenu@@XZ 1017c1c8     mfc42d:MFC42D.DLL
 0004:000011cc       __imp_?EnableMenuItem@CMenu@@QAEIII@Z 1017c1cc     mfc42d:MFC42D.DLL
 0004:000011d0       __imp_?SetCapture@CWnd@@QAEPAV1@XZ 1017c1d0     mfc42d:MFC42D.DLL
 0004:000011d4       __imp_?IsEmpty@CObList@@QBEHXZ 1017c1d4     mfc42d:MFC42D.DLL
 0004:000011d8       __imp_?GetHead@CObList@@QAEAAPAVCObject@@XZ 1017c1d8     mfc42d:MFC42D.DLL
 0004:000011dc       __imp_?RemoveAll@CObList@@QAEXXZ 1017c1dc     mfc42d:MFC42D.DLL
 0004:000011e0       __imp_??4CString@@QAEABV0@PBD@Z 1017c1e0     mfc42d:MFC42D.DLL
 0004:000011e4       __imp_?GetSafeHwnd@CWnd@@QBEPAUHWND__@@XZ 1017c1e4     mfc42d:MFC42D.DLL
 0004:000011e8       __imp_?EnableWindow@CWnd@@QAEHH@Z 1017c1e8     mfc42d:MFC42D.DLL
 0004:000011ec       __imp_?UpdateAllViews@CDocument@@QAEXPAVCView@@JPAVCObject@@@Z 1017c1ec     mfc42d:MFC42D.DLL
 0004:000011f0       __imp_?AfxGetApp@@YGPAVCWinApp@@XZ 1017c1f0     mfc42d:MFC42D.DLL
 0004:000011f4       __imp_?ReadObject@CArchive@@QAEPAVCObject@@PBUCRuntimeClass@@@Z 1017c1f4     mfc42d:MFC42D.DLL
 0004:000011f8       __imp_?AfxClassInit@@YGXPAUCRuntimeClass@@@Z 1017c1f8     mfc42d:MFC42D.DLL
 0004:000011fc       __imp_??2CObject@@SGPAXIPBDH@Z 1017c1fc     mfc42d:MFC42D.DLL
 0004:00001200       __imp_??3CObject@@SGXPAXPBDH@Z 1017c200     mfc42d:MFC42D.DLL
 0004:00001204       __imp_??1CPen@@UAE@XZ      1017c204     mfc42d:MFC42D.DLL
 0004:00001208       __imp_??1CBitmap@@UAE@XZ   1017c208     mfc42d:MFC42D.DLL
 0004:0000120c       __imp_??1CButton@@UAE@XZ   1017c20c     mfc42d:MFC42D.DLL
 0004:00001210       __imp_?Create@CPlex@@SGPAU1@AAPAU1@II@Z 1017c210     mfc42d:MFC42D.DLL
 0004:00001214       __imp_?Write@CArchive@@QAEXPBXI@Z 1017c214     mfc42d:MFC42D.DLL
 0004:00001218       __imp_?Read@CArchive@@QAEIPAXI@Z 1017c218     mfc42d:MFC42D.DLL
 0004:0000121c       __imp_?FreeDataChain@CPlex@@QAEXXZ 1017c21c     mfc42d:MFC42D.DLL
 0004:00001220       __imp_??8@YG_NABVCString@@0@Z 1017c220     mfc42d:MFC42D.DLL
 0004:00001224       __imp_?SetFocus@CWnd@@QAEPAV1@XZ 1017c224     mfc42d:MFC42D.DLL
 0004:00001228       __imp_??YCString@@QAEABV0@PBD@Z 1017c228     mfc42d:MFC42D.DLL
 0004:0000122c       __imp_?SetActiveWindow@CWnd@@QAEPAV1@XZ 1017c22c     mfc42d:MFC42D.DLL
 0004:00001230       __imp_??1CWnd@@UAE@XZ      1017c230     mfc42d:MFC42D.DLL
 0004:00001234       __imp_?SetWindowPos@CWnd@@QAEHPBV1@HHHHI@Z 1017c234     mfc42d:MFC42D.DLL
 0004:00001238       __imp_?Width@CRect@@QBEHXZ 1017c238     mfc42d:MFC42D.DLL
 0004:0000123c       __imp_?Height@CRect@@QBEHXZ 1017c23c     mfc42d:MFC42D.DLL
 0004:00001240       __imp_?GetWindowRect@CWnd@@QBEXPAUtagRECT@@@Z 1017c240     mfc42d:MFC42D.DLL
 0004:00001244       __imp_??0CWnd@@QAE@XZ      1017c244     mfc42d:MFC42D.DLL
 0004:00001248       __imp_??0CRect@@QAE@XZ     1017c248     mfc42d:MFC42D.DLL
 0004:0000124c       __imp_?AfxTrace@@YAXPBDZZ  1017c24c     mfc42d:MFC42D.DLL
 0004:00001250       __imp_??5@YGAAVCArchive@@AAV0@AAVCString@@@Z 1017c250     mfc42d:MFC42D.DLL
 0004:00001254       __imp_??6@YGAAVCArchive@@AAV0@ABVCString@@@Z 1017c254     mfc42d:MFC42D.DLL
 0004:00001258       __imp_??0CPoint@@QAE@K@Z   1017c258     mfc42d:MFC42D.DLL
 0004:0000125c       __imp_??ACDWordArray@@QBEKH@Z 1017c25c     mfc42d:MFC42D.DLL
 0004:00001260       __imp_??1CDWordArray@@UAE@XZ 1017c260     mfc42d:MFC42D.DLL
 0004:00001264       __imp_??2CObject@@SGPAXI@Z 1017c264     mfc42d:MFC42D.DLL
 0004:00001268       __imp_??1CDC@@UAE@XZ       1017c268     mfc42d:MFC42D.DLL
 0004:0000126c       __imp_?BitBlt@CDC@@QAEHHHHHPAV1@HHK@Z 1017c26c     mfc42d:MFC42D.DLL
 0004:00001270       __imp_?PatBlt@CDC@@QAEHHHHHK@Z 1017c270     mfc42d:MFC42D.DLL
 0004:00001274       __imp_?SelectObject@CDC@@QAEPAVCBitmap@@PAV2@@Z 1017c274     mfc42d:MFC42D.DLL
 0004:00001278       __imp_?DrawFocusRect@CDC@@QAEXPBUtagRECT@@@Z 1017c278     mfc42d:MFC42D.DLL
 0004:0000127c       __imp_?NormalizeRect@CRect@@QAEXXZ 1017c27c     mfc42d:MFC42D.DLL
 0004:00001280       __imp_?DPtoLP@CDC@@QBEXPAUtagRECT@@@Z 1017c280     mfc42d:MFC42D.DLL
 0004:00001284       __imp_?InflateRect@CRect@@QAEXHH@Z 1017c284     mfc42d:MFC42D.DLL
 0004:00001288       __imp_?CreateCompatibleBitmap@CBitmap@@QAEHPAVCDC@@HH@Z 1017c288     mfc42d:MFC42D.DLL
 0004:0000128c       __imp_?LPtoDP@CDC@@QBEXPAUtagRECT@@@Z 1017c28c     mfc42d:MFC42D.DLL
 0004:00001290       __imp_?SetMapMode@CDC@@UAEHH@Z 1017c290     mfc42d:MFC42D.DLL
 0004:00001294       __imp_?CreateCompatibleDC@CDC@@QAEHPAV1@@Z 1017c294     mfc42d:MFC42D.DLL
 0004:00001298       __imp_??0CDC@@QAE@XZ       1017c298     mfc42d:MFC42D.DLL
 0004:0000129c       __imp_?UnionRect@CRect@@QAEHPBUtagRECT@@0@Z 1017c29c     mfc42d:MFC42D.DLL
 0004:000012a0       __imp_??HCRect@@QBE?AV0@UtagPOINT@@@Z 1017c2a0     mfc42d:MFC42D.DLL
 0004:000012a4       __imp_??HCPoint@@QBE?AV0@UtagSIZE@@@Z 1017c2a4     mfc42d:MFC42D.DLL
 0004:000012a8       __imp_??0CPoint@@QAE@HH@Z  1017c2a8     mfc42d:MFC42D.DLL
 0004:000012ac       __imp_??GCPoint@@QBE?AVCSize@@UtagPOINT@@@Z 1017c2ac     mfc42d:MFC42D.DLL
 0004:000012b0       __imp_??BCRect@@QAEPAUtagRECT@@XZ 1017c2b0     mfc42d:MFC42D.DLL
 0004:000012b4       __imp_??0CPoint@@QAE@XZ    1017c2b4     mfc42d:MFC42D.DLL
 0004:000012b8       __imp_??0CSize@@QAE@XZ     1017c2b8     mfc42d:MFC42D.DLL
 0004:000012bc       __imp_??6CDumpContext@@QAEAAV0@H@Z 1017c2bc     mfc42d:MFC42D.DLL
 0004:000012c0       __imp_?GetDepth@CDumpContext@@QBEHXZ 1017c2c0     mfc42d:MFC42D.DLL
 0004:000012c4       __imp_?AfxAssertValidObject@@YGXPBVCObject@@PBDH@Z 1017c2c4     mfc42d:MFC42D.DLL
 0004:000012c8       __imp_?InvalidateRect@CWnd@@QAEXPBUtagRECT@@H@Z 1017c2c8     mfc42d:MFC42D.DLL
 0004:000012cc       __imp_?IntersectRect@CRect@@QAEHPBUtagRECT@@0@Z 1017c2cc     mfc42d:MFC42D.DLL
 0004:000012d0       __imp_?GetClientRect@CWnd@@QBEXPAUtagRECT@@@Z 1017c2d0     mfc42d:MFC42D.DLL
 0004:000012d4       __imp_?PtInRect@CRect@@QBEHUtagPOINT@@@Z 1017c2d4     mfc42d:MFC42D.DLL
 0004:000012d8       __imp_?GetCapture@CWnd@@SGPAV1@XZ 1017c2d8     mfc42d:MFC42D.DLL
 0004:000012dc       __imp_??5CArchive@@QAEAAV0@AAE@Z 1017c2dc     mfc42d:MFC42D.DLL
 0004:000012e0       __imp_??5@YGAAVCArchive@@AAV0@AAUtagPOINT@@@Z 1017c2e0     mfc42d:MFC42D.DLL
 0004:000012e4       __imp_??5@YGAAVCArchive@@AAV0@AAUtagRECT@@@Z 1017c2e4     mfc42d:MFC42D.DLL
 0004:000012e8       __imp_??5CArchive@@QAEAAV0@AAG@Z 1017c2e8     mfc42d:MFC42D.DLL
 0004:000012ec       __imp_??6CArchive@@QAEAAV0@E@Z 1017c2ec     mfc42d:MFC42D.DLL
 0004:000012f0       __imp_??6@YGAAVCArchive@@AAV0@UtagPOINT@@@Z 1017c2f0     mfc42d:MFC42D.DLL
 0004:000012f4       __imp_??6@YGAAVCArchive@@AAV0@ABUtagRECT@@@Z 1017c2f4     mfc42d:MFC42D.DLL
 0004:000012f8       __imp_??6CArchive@@QAEAAV0@G@Z 1017c2f8     mfc42d:MFC42D.DLL
 0004:000012fc       __imp_?AfxGetModuleState@@YGPAVAFX_MODULE_STATE@@XZ 1017c2fc     mfc42d:MFC42D.DLL
 0004:00001300       __imp_??0CDynLinkLibrary@@QAE@AAUAFX_EXTENSION_MODULE@@H@Z 1017c300     mfc42d:MFC42D.DLL
 0004:00001304       __imp_?AfxInitExtensionModule@@YGHAAUAFX_EXTENSION_MODULE@@PAUHINSTANCE__@@@Z 1017c304     mfc42d:MFC42D.DLL
 0004:00001308       __imp_??1CFont@@UAE@XZ     1017c308     mfc42d:MFC42D.DLL
 0004:0000130c       __imp_??0CFont@@QAE@XZ     1017c30c     mfc42d:MFC42D.DLL
 0004:00001310       __imp_??0CBitmap@@QAE@XZ   1017c310     mfc42d:MFC42D.DLL
 0004:00001314       __imp_?Detach@CGdiObject@@QAEPAXXZ 1017c314     mfc42d:MFC42D.DLL
 0004:00001318       __imp_?GetTextExtent@CDC@@QBE?AVCSize@@PBDH@Z 1017c318     mfc42d:MFC42D.DLL
 0004:0000131c       __imp_?GetLength@CString@@QBEHXZ 1017c31c     mfc42d:MFC42D.DLL
 0004:00001320       __imp_?CreateFontIndirectA@CFont@@QAEHPBUtagLOGFONTA@@@Z 1017c320     mfc42d:MFC42D.DLL
 0004:00001324       __imp_??1CBrush@@UAE@XZ    1017c324     mfc42d:MFC42D.DLL
 0004:00001328       __imp_?Rectangle@CDC@@QAEHPBUtagRECT@@@Z 1017c328     mfc42d:MFC42D.DLL
 0004:0000132c       __imp_?SelectObject@CDC@@QAEPAVCBrush@@PAV2@@Z 1017c32c     mfc42d:MFC42D.DLL
 0004:00001330       __imp_?CreateSolidBrush@CBrush@@QAEHK@Z 1017c330     mfc42d:MFC42D.DLL
 0004:00001334       __imp_??0CBrush@@QAE@XZ    1017c334     mfc42d:MFC42D.DLL
 0004:00001338       __imp_?LoadCursorA@CWinApp@@QBEPAUHICON__@@I@Z 1017c338     mfc42d:MFC42D.DLL
 0004:0000133c       __imp_?LoadStandardCursor@CWinApp@@QBEPAUHICON__@@PBD@Z 1017c33c     mfc42d:MFC42D.DLL
 0004:00001340       __imp_?LoadStringA@CString@@QAEHI@Z 1017c340     mfc42d:MFC42D.DLL
 0004:00001344       __imp_?AfxSetResourceHandle@@YGXPAUHINSTANCE__@@@Z 1017c344     mfc42d:MFC42D.DLL
 0004:00001348       __imp_?AfxGetResourceHandle@@YGPAUHINSTANCE__@@XZ 1017c348     mfc42d:MFC42D.DLL
 0004:0000134c       __imp_?ClientToScreen@CWnd@@QBEXPAUtagRECT@@@Z 1017c34c     mfc42d:MFC42D.DLL
 0004:00001350       __imp_?ClientToScreen@CWnd@@QBEXPAUtagPOINT@@@Z 1017c350     mfc42d:MFC42D.DLL
 0004:00001354       __imp_??9@YG_NABVCString@@PBD@Z 1017c354     mfc42d:MFC42D.DLL
 0004:00001358       __imp_?GetActivePage@CPropertySheet@@QBEPAVCPropertyPage@@XZ 1017c358     mfc42d:MFC42D.DLL
 0004:0000135c       __imp_?ShowWindow@CWnd@@QAEHH@Z 1017c35c     mfc42d:MFC42D.DLL
 0004:00001360       __imp_?GetPrev@CObList@@QAEAAPAVCObject@@AAPAU__POSITION@@@Z 1017c360     mfc42d:MFC42D.DLL
 0004:00001364       __imp_?GetTailPosition@CObList@@QBEPAU__POSITION@@XZ 1017c364     mfc42d:MFC42D.DLL
 0004:00001368       __imp_?SetCurSel@CComboBox@@QAEHH@Z 1017c368     mfc42d:MFC42D.DLL
 0004:0000136c       __imp_??H@YG?AVCString@@ABV0@PBD@Z 1017c36c     mfc42d:MFC42D.DLL
 0004:00001370       __imp_?IsStoring@CArchive@@QBEHXZ 1017c370     mfc42d:MFC42D.DLL
 0004:00001374       __imp_?WriteCount@CArchive@@QAEXK@Z 1017c374     mfc42d:MFC42D.DLL
 0004:00001378       __imp_?AfxIsValidAddress@@YGHPBXIH@Z 1017c378     mfc42d:MFC42D.DLL
 0004:0000137c       __imp_?ReadCount@CArchive@@QAEKXZ 1017c37c     mfc42d:MFC42D.DLL
 0004:00001380       __imp_?AfxAssertFailedLine@@YGHPBDH@Z 1017c380     mfc42d:MFC42D.DLL
 0004:00001384       __imp_?GetRuntimeClass@CObject@@UBEPAUCRuntimeClass@@XZ 1017c384     mfc42d:MFC42D.DLL
 0004:00001388       __imp_??0CString@@QAE@XZ   1017c388     mfc42d:MFC42D.DLL
 0004:0000138c       __imp_?GetBuffer@CString@@QAEPADH@Z 1017c38c     mfc42d:MFC42D.DLL
 0004:00001390       __imp_??BCString@@QBEPBDXZ 1017c390     mfc42d:MFC42D.DLL
 0004:00001394       __imp_?GetDlgItem@CWnd@@QBEPAV1@H@Z 1017c394     mfc42d:MFC42D.DLL
 0004:00001398       __imp_?AddString@CListBox@@QAEHPBD@Z 1017c398     mfc42d:MFC42D.DLL
 0004:0000139c       __imp_?ReleaseBuffer@CString@@QAEXH@Z 1017c39c     mfc42d:MFC42D.DLL
 0004:000013a0       __imp_?AfxGetMainWnd@@YGPAVCWnd@@XZ 1017c3a0     mfc42d:MFC42D.DLL
 0004:000013a4       __imp_??0CObject@@IAE@XZ   1017c3a4     mfc42d:MFC42D.DLL
 0004:000013a8       __imp_?classCObject@CObject@@2UCRuntimeClass@@B 1017c3a8     mfc42d:MFC42D.DLL
 0004:000013ac       __imp_??2@YAPAXI@Z         1017c3ac     mfc42d:MFC42D.DLL
 0004:000013b0       __imp_?Serialize@CObject@@UAEXAAVCArchive@@@Z 1017c3b0     mfc42d:MFC42D.DLL
 0004:000013b4       __imp_??6CDumpContext@@QAEAAV0@PBD@Z 1017c3b4     mfc42d:MFC42D.DLL
 0004:000013b8       __imp_??4CString@@QAEABV0@ABV0@@Z 1017c3b8     mfc42d:MFC42D.DLL
 0004:000013bc       __imp_??0CString@@QAE@ABV0@@Z 1017c3bc     mfc42d:MFC42D.DLL
 0004:000013c0       __imp_??3@YAXPAX@Z         1017c3c0     mfc42d:MFC42D.DLL
 0004:000013c4       __imp_??3CObject@@SGXPAX@Z 1017c3c4     mfc42d:MFC42D.DLL
 0004:000013c8       __imp_??1CObject@@UAE@XZ   1017c3c8     mfc42d:MFC42D.DLL
 0004:000013cc       __imp_?AssertValid@CObject@@UBEXXZ 1017c3cc     mfc42d:MFC42D.DLL
 0004:000013d0       __imp_?Dump@CObject@@UBEXAAVCDumpContext@@@Z 1017c3d0     mfc42d:MFC42D.DLL
 0004:000013d4       __imp_??1CString@@QAE@XZ   1017c3d4     mfc42d:MFC42D.DLL
 0004:000013d8       __imp_??1CDialog@@UAE@XZ   1017c3d8     mfc42d:MFC42D.DLL
 0004:000013dc       \177MFC42D_NULL_THUNK_DATA 1017c3dc     mfc42d:MFC42D.DLL
 0004:00001488       __imp_??1CMI_GangN@@UAE@XZ 1017c488     MNod_D32:MNod_D32.dll
 0004:0000148c       __imp_??0CMI_GangN@@QAE@XZ 1017c48c     MNod_D32:MNod_D32.dll
 0004:00001490       __imp_??0CDlg_NodI@@QAE@PAVCWnd@@H@Z 1017c490     MNod_D32:MNod_D32.dll
 0004:00001494       __imp_?CompareNodeCoords@CMI_GangN@@QAEHPAVCDListMgr@@UWORLD@@HH@Z 1017c494     MNod_D32:MNod_D32.dll
 0004:00001498       __imp_?Create@CDlg_NodI@@QAEHXZ 1017c498     MNod_D32:MNod_D32.dll
 0004:0000149c       __imp_?CreateNode@CMI_GangN@@QAEPAVCDrNode@@AAVCString@@PAVCDrLabel@@UWORLD@@HHAAH3I@Z 1017c49c     MNod_D32:MNod_D32.dll
 0004:000014a0       \177MNod_D32_NULL_THUNK_DATA 1017c4a0     MNod_D32:MNod_D32.dll
 0004:000014d0       __imp_?Create@CDlg_O3DI@@QAEHXZ 1017c4d0     MO3D_D32:MO3D_D32.dll
 0004:000014d4       __imp_?ResetDlg@CDlg_O3DI@@QAEXXZ 1017c4d4     MO3D_D32:MO3D_D32.dll
 0004:000014d8       __imp_??0CDlg_O3DI@@QAE@PAVCWnd@@@Z 1017c4d8     MO3D_D32:MO3D_D32.dll
 0004:000014dc       \177MO3D_D32_NULL_THUNK_DATA 1017c4dc     MO3D_D32:MO3D_D32.dll
 0004:00001508       __imp_?SetProcPage@CSheet_PATI@@QAEHXZ 1017c508     MPat_D32:MPat_D32.dll
 0004:0000150c       __imp_??0CMPatMgr@@QAE@XZ  1017c50c     MPat_D32:MPat_D32.dll
 0004:00001510       __imp_?AreCurvesCompatible@CLoft_Compat@@QAEHPAVCDListMgr@@PAV?$CList@W4CURVELATCH@@W41@@@@Z 1017c510     MPat_D32:MPat_D32.dll
 0004:00001514       __imp_?DoModal_Patch_TensorBlend@CMPatMgr@@QAEIPAVCDrCurve@@HH@Z 1017c514     MPat_D32:MPat_D32.dll
 0004:00001518       __imp_??0CSheet_PATI@@QAE@PBDPAVCWnd@@W4PATCHPROC@@I@Z 1017c518     MPat_D32:MPat_D32.dll
 0004:0000151c       __imp_?GetRuntimeClass@CLoft_Compat@@UBEPAUCRuntimeClass@@XZ 1017c51c     MPat_D32:MPat_D32.dll
 0004:00001520       __imp_??0CMP_Xtrud@@QAE@XZ 1017c520     MPat_D32:MPat_D32.dll
 0004:00001524       __imp_?GoDoIt@CMP_Xtrud@@QAEHHHAAVCString@@PAVCDrPatch@@PAVCDListMgr@@2PAV?$CList@W4CURVELATCH@@W41@@@AAV?$CList@HH@@UWORLD@@NNPAVCView@@@Z 1017c524     MPat_D32:MPat_D32.dll
 0004:00001528       __imp_??1CMP_Xtrud@@UAE@XZ 1017c528     MPat_D32:MPat_D32.dll
 0004:0000152c       __imp_??0CMP_Rotat@@QAE@XZ 1017c52c     MPat_D32:MPat_D32.dll
 0004:00001530       __imp_?GoDoIt@CMP_Rotat@@QAEHHAAVCString@@PAVCDrPatch@@PAVCDListMgr@@2PAV?$CList@W4CURVELATCH@@W41@@@AAV?$CList@HH@@NNHHHPAVCView@@@Z 1017c530     MPat_D32:MPat_D32.dll
 0004:00001534       __imp_??1CMP_Rotat@@UAE@XZ 1017c534     MPat_D32:MPat_D32.dll
 0004:00001538       __imp_?DoModal_Patch_LoftCurveCount@CMPatMgr@@QAEIAAH@Z 1017c538     MPat_D32:MPat_D32.dll
 0004:0000153c       __imp_?DoModal_Patch_TensorNodeCount@CMPatMgr@@QAEIAAH0@Z 1017c53c     MPat_D32:MPat_D32.dll
 0004:00001540       __imp_?DoModal_Patch_GordonCurveCount@CMPatMgr@@QAEIAAH0@Z 1017c540     MPat_D32:MPat_D32.dll
 0004:00001544       __imp_??1CMPatMgr@@UAE@XZ  1017c544     MPat_D32:MPat_D32.dll
 0004:00001548       __imp_??0CMP_CooP3@@QAE@XZ 1017c548     MPat_D32:MPat_D32.dll
 0004:0000154c       __imp_?GoDoIt@CMP_CooP3@@QAEHHAAVCString@@PAVCDrPatch@@PAVCDListMgr@@PAV?$CList@W4CURVELATCH@@W41@@@@Z 1017c54c     MPat_D32:MPat_D32.dll
 0004:00001550       __imp_??1CMP_CooP3@@UAE@XZ 1017c550     MPat_D32:MPat_D32.dll
 0004:00001554       __imp_??0CMP_CooP4@@QAE@XZ 1017c554     MPat_D32:MPat_D32.dll
 0004:00001558       __imp_??1CMP_Duct@@UAE@XZ  1017c558     MPat_D32:MPat_D32.dll
 0004:0000155c       __imp_?GoDoIt@CMP_Duct@@QAEHHHAAVCString@@PAVCDrPatch@@PAVCDListMgr@@2PAV?$CList@W4CURVELATCH@@W41@@@PAV?$CList@NN@@NHNPAVCView@@@Z 1017c55c     MPat_D32:MPat_D32.dll
 0004:00001560       __imp_??0CMP_Duct@@QAE@XZ  1017c560     MPat_D32:MPat_D32.dll
 0004:00001564       __imp_??1CMP_Sweep@@UAE@XZ 1017c564     MPat_D32:MPat_D32.dll
 0004:00001568       __imp_?GoDoIt@CMP_Sweep@@QAEHHHHAAVCString@@PAVCDrPatch@@PAVCDListMgr@@2PAV?$CList@W4CURVELATCH@@W41@@@PAV?$CList@NN@@NHN4NHNPAVCView@@@Z 1017c568     MPat_D32:MPat_D32.dll
 0004:0000156c       __imp_??0CMP_Sweep@@QAE@XZ 1017c56c     MPat_D32:MPat_D32.dll
 0004:00001570       __imp_??1CMP_Tensor@@UAE@XZ 1017c570     MPat_D32:MPat_D32.dll
 0004:00001574       __imp_?GoDoIt@CMP_Tensor@@QAEHHHAAVCString@@PAVCDrPatch@@PAVCDListMgr@@PAY01UWORLD@@W4TWIST@@HAAV?$CList@HH@@NPAVCDrCurve@@PAV?$CList@Ublendend@@U1@@@H5N67PAVCView@@@Z 1017c574     MPat_D32:MPat_D32.dll
 0004:00001578       __imp_??0CMP_Tensor@@QAE@XZ 1017c578     MPat_D32:MPat_D32.dll
 0004:0000157c       __imp_??1CMP_Gordon@@UAE@XZ 1017c57c     MPat_D32:MPat_D32.dll
 0004:00001580       __imp_?GoDoIt@CMP_Gordon@@QAEHHAAVCString@@PAVCDrPatch@@PAVCDListMgr@@PAY01UWORLD@@W4TWIST@@H2PAV?$CList@W4CURVELATCH@@W41@@@AAV?$CList@HH@@NPAVCDrCurve@@PAV?$CList@Ublendend@@U1@@@H256N78PAVCView@@@Z 1017c580     MPat_D32:MPat_D32.dll
 0004:00001584       __imp_??0CMP_Gordon@@QAE@XZ 1017c584     MPat_D32:MPat_D32.dll
 0004:00001588       __imp_??1CMP_LoftX@@UAE@XZ 1017c588     MPat_D32:MPat_D32.dll
 0004:0000158c       __imp_?GoDoIt@CMP_LoftX@@QAEHHHPAVCDrCurve@@HPAY01UWORLD@@W4TWIST@@HAAVCString@@PAVCDrPatch@@HHPAVCDListMgr@@5PAV?$CList@W4CURVELATCH@@W41@@@AAV?$CList@HH@@0NPAV?$CList@Ublendend@@U1@@@PAVCView@@@Z 1017c58c     MPat_D32:MPat_D32.dll
 0004:00001590       __imp_??0CMP_LoftX@@QAE@XZ 1017c590     MPat_D32:MPat_D32.dll
 0004:00001594       __imp_??1CMP_CooP4@@UAE@XZ 1017c594     MPat_D32:MPat_D32.dll
 0004:00001598       __imp_?GoDoIt@CMP_CooP4@@QAEHHAAVCString@@PAVCDrPatch@@PAVCDListMgr@@PAV?$CList@W4CURVELATCH@@W41@@@@Z 1017c598     MPat_D32:MPat_D32.dll
 0004:0000159c       \177MPat_D32_NULL_THUNK_DATA 1017c59c     MPat_D32:MPat_D32.dll
 0004:000015e4       __imp____CxxFrameHandler   1017c5e4     msvcrtd:MSVCRTD.dll
 0004:000015e8       __imp__sqrt                1017c5e8     msvcrtd:MSVCRTD.dll
 0004:000015ec       __imp__clock               1017c5ec     msvcrtd:MSVCRTD.dll
 0004:000015f0       __imp___onexit             1017c5f0     msvcrtd:MSVCRTD.dll
 0004:000015f4       __imp____dllonexit         1017c5f4     msvcrtd:MSVCRTD.dll
 0004:000015f8       __imp___adjust_fdiv        1017c5f8     msvcrtd:MSVCRTD.dll
 0004:000015fc       __imp___malloc_dbg         1017c5fc     msvcrtd:MSVCRTD.dll
 0004:00001600       __imp___initterm           1017c600     msvcrtd:MSVCRTD.dll
 0004:00001604       __imp___free_dbg           1017c604     msvcrtd:MSVCRTD.dll
 0004:00001608       __imp_?terminate@@YAXXZ    1017c608     msvcrtd:MSVCRTD.dll
 0004:0000160c       __imp___except_handler3    1017c60c     msvcrtd:MSVCRTD.dll
 0004:00001610       __imp__fabs                1017c610     msvcrtd:MSVCRTD.dll
 0004:00001614       __imp___ftol               1017c614     msvcrtd:MSVCRTD.dll
 0004:00001618       __imp__memset              1017c618     msvcrtd:MSVCRTD.dll
 0004:0000161c       __imp__sprintf             1017c61c     msvcrtd:MSVCRTD.dll
 0004:00001620       \177MSVCRTD_NULL_THUNK_DATA 1017c620     msvcrtd:MSVCRTD.dll
 0004:00001658       __imp_?DoModal_Solid_GordonPatchCount@CMSolMgr@@QAEIAAH00@Z 1017c658     MSol_D32:MSol_D32.dll
 0004:0000165c       __imp_?DoModal_Solid_TensorNodeCount@CMSolMgr@@QAEIAAH00@Z 1017c65c     MSol_D32:MSol_D32.dll
 0004:00001660       __imp_?DoModal_Solid_LoftPatchCount@CMSolMgr@@QAEIAAH@Z 1017c660     MSol_D32:MSol_D32.dll
 0004:00001664       __imp_??1CMS_Duct@@UAE@XZ  1017c664     MSol_D32:MSol_D32.dll
 0004:00001668       __imp_?GoDoIt@CMS_Duct@@QAEHHHHAAVCString@@PAVCDrSolid@@PAVCDListMgr@@2PAV?$CList@W4CURVELATCH@@W41@@@2PAV?$CList@W4PATCHLATCH@@W41@@@PAV?$CList@NN@@NHNPAVCView@@@Z 1017c668     MSol_D32:MSol_D32.dll
 0004:0000166c       __imp_??0CMS_Duct@@QAE@XZ  1017c66c     MSol_D32:MSol_D32.dll
 0004:00001670       __imp_??1CMS_Duc3@@UAE@XZ  1017c670     MSol_D32:MSol_D32.dll
 0004:00001674       __imp_?GoDoIt@CMS_Duc3@@QAEHHHHAAVCString@@PAVCDrSolid@@PAVCDListMgr@@2PAV?$CList@W4CURVELATCH@@W41@@@2PAV?$CList@W4PATCHLATCH@@W41@@@PAV?$CList@NN@@NHNPAVCView@@@Z 1017c674     MSol_D32:MSol_D32.dll
 0004:00001678       __imp_??0CMS_Duc3@@QAE@XZ  1017c678     MSol_D32:MSol_D32.dll
 0004:0000167c       __imp_??1CMS_Sweep@@UAE@XZ 1017c67c     MSol_D32:MSol_D32.dll
 0004:00001680       __imp_?GoDoIt@CMS_Sweep@@QAEHHHHHAAVCString@@PAVCDrSolid@@PAVCDListMgr@@2PAV?$CList@W4CURVELATCH@@W41@@@2PAV?$CList@W4PATCHLATCH@@W41@@@PAV?$CList@NN@@NHN5NHNPAVCView@@@Z 1017c680     MSol_D32:MSol_D32.dll
 0004:00001684       __imp_??0CMS_Sweep@@QAE@XZ 1017c684     MSol_D32:MSol_D32.dll
 0004:00001688       __imp_??1CMS_Swee3@@UAE@XZ 1017c688     MSol_D32:MSol_D32.dll
 0004:0000168c       __imp_?GoDoIt@CMS_Swee3@@QAEHHHHHAAVCString@@PAVCDrSolid@@PAVCDListMgr@@2PAV?$CList@W4CURVELATCH@@W41@@@2PAV?$CList@W4PATCHLATCH@@W41@@@PAV?$CList@NN@@NHN5NHNPAVCView@@@Z 1017c68c     MSol_D32:MSol_D32.dll
 0004:00001690       __imp_??0CMS_Swee3@@QAE@XZ 1017c690     MSol_D32:MSol_D32.dll
 0004:00001694       __imp_??1CMS_Lof42@@UAE@XZ 1017c694     MSol_D32:MSol_D32.dll
 0004:00001698       __imp_?SetInfoBase@CMS_Lof42@@QAEHAAVCString@@PAVCDrSolid@@PAVCDListMgr@@PAV?$CList@W4PATCHLATCH@@W41@@@PAV?$CList@HH@@NPAVCView@@@Z 1017c698     MSol_D32:MSol_D32.dll
 0004:0000169c       __imp_??0CMS_Lof42@@QAE@XZ 1017c69c     MSol_D32:MSol_D32.dll
 0004:000016a0       __imp_??1CMS_Lof32@@UAE@XZ 1017c6a0     MSol_D32:MSol_D32.dll
 0004:000016a4       __imp_?SetInfoBase@CMS_Lof32@@QAEHAAVCString@@PAVCDrSolid@@PAVCDListMgr@@PAV?$CList@W4PATCHLATCH@@W41@@@PAV?$CList@HH@@NPAVCView@@@Z 1017c6a4     MSol_D32:MSol_D32.dll
 0004:000016a8       __imp_??0CMS_Lof32@@QAE@XZ 1017c6a8     MSol_D32:MSol_D32.dll
 0004:000016ac       __imp_??1CMS_Rotat@@UAE@XZ 1017c6ac     MSol_D32:MSol_D32.dll
 0004:000016b0       __imp_?GoDoIt@CMS_Rotat@@QAEHHHAAVCString@@PAVCDrSolid@@PAVCDListMgr@@2PAV?$CList@W4PATCHLATCH@@W41@@@AAV?$CList@HH@@NNHHHPAVCView@@@Z 1017c6b0     MSol_D32:MSol_D32.dll
 0004:000016b4       __imp_??0CMS_Rotat@@QAE@XZ 1017c6b4     MSol_D32:MSol_D32.dll
 0004:000016b8       __imp_??1CMS_Rota3@@UAE@XZ 1017c6b8     MSol_D32:MSol_D32.dll
 0004:000016bc       __imp_?GoDoIt@CMS_Rota3@@QAEHHHAAVCString@@PAVCDrSolid@@PAVCDListMgr@@2PAV?$CList@W4PATCHLATCH@@W41@@@AAV?$CList@HH@@NNHHHPAVCView@@@Z 1017c6bc     MSol_D32:MSol_D32.dll
 0004:000016c0       __imp_??0CMS_Rota3@@QAE@XZ 1017c6c0     MSol_D32:MSol_D32.dll
 0004:000016c4       __imp_??1CMS_Xtrud@@UAE@XZ 1017c6c4     MSol_D32:MSol_D32.dll
 0004:000016c8       __imp_?GoDoIt@CMS_Xtrud@@QAEHHHHAAVCString@@PAVCDrSolid@@PAVCDListMgr@@2PAV?$CList@W4PATCHLATCH@@W41@@@AAV?$CList@HH@@UWORLD@@NNPAVCView@@@Z 1017c6c8     MSol_D32:MSol_D32.dll
 0004:000016cc       __imp_??0CMS_Xtrud@@QAE@XZ 1017c6cc     MSol_D32:MSol_D32.dll
 0004:000016d0       __imp_??1CMS_Xtru3@@UAE@XZ 1017c6d0     MSol_D32:MSol_D32.dll
 0004:000016d4       __imp_?GoDoIt@CMS_Xtru3@@QAEHHHHAAVCString@@PAVCDrSolid@@PAVCDListMgr@@2PAV?$CList@W4PATCHLATCH@@W41@@@AAV?$CList@HH@@UWORLD@@NNPAVCView@@@Z 1017c6d4     MSol_D32:MSol_D32.dll
 0004:000016d8       __imp_??0CMS_Xtru3@@QAE@XZ 1017c6d8     MSol_D32:MSol_D32.dll
 0004:000016dc       __imp_?GetRuntimeClass@CLoftSol_Compat@@UBEPAUCRuntimeClass@@XZ 1017c6dc     MSol_D32:MSol_D32.dll
 0004:000016e0       __imp_??0CSheet_SOLI@@QAE@PBDPAVCWnd@@W4SOLIDPROC@@I@Z 1017c6e0     MSol_D32:MSol_D32.dll
 0004:000016e4       __imp_?SetProcPage@CSheet_SOLI@@QAEHXZ 1017c6e4     MSol_D32:MSol_D32.dll
 0004:000016e8       __imp_?ArePatchesCompatible@CLoftSol_Compat@@QAEHPAVCDListMgr@@PAV?$CList@W4PATCHLATCH@@W41@@@@Z 1017c6e8     MSol_D32:MSol_D32.dll
 0004:000016ec       __imp_??1CMSolMgr@@UAE@XZ  1017c6ec     MSol_D32:MSol_D32.dll
 0004:000016f0       __imp_?DoModal_Solid_TensorBlend@CMSolMgr@@QAEIPAVCDrCurve@@HH@Z 1017c6f0     MSol_D32:MSol_D32.dll
 0004:000016f4       __imp_??0CMSolMgr@@QAE@XZ  1017c6f4     MSol_D32:MSol_D32.dll
 0004:000016f8       \177MSol_D32_NULL_THUNK_DATA 1017c6f8     MSol_D32:MSol_D32.dll
 0004:00001744       __imp_?ShowPatchStaticLoad@CSLDPat@@QAEHPAVCDrPatch@@PAVCString@@@Z 1017c744     MStL_D32:MStL_D32.dll
 0004:00001748       __imp_??1CSLDPat@@UAE@XZ   1017c748     MStL_D32:MStL_D32.dll
 0004:0000174c       __imp_??0CSLDPat@@QAE@XZ   1017c74c     MStL_D32:MStL_D32.dll
 0004:00001750       __imp_??0CDlg_StLI@@QAE@PAVCWnd@@@Z 1017c750     MStL_D32:MStL_D32.dll
 0004:00001754       __imp_?ShowNodeStaticLoad@CSLDNod@@QAEHPAVCDrNode@@PAVCString@@@Z 1017c754     MStL_D32:MStL_D32.dll
 0004:00001758       __imp_?ShowCurveStaticLoad@CSLDCur@@QAEHPAVCDrCurve@@PAVCString@@@Z 1017c758     MStL_D32:MStL_D32.dll
 0004:0000175c       __imp_?ShowInfo_PatchStaticLoad@CSLDPat@@QAEHPAVCDrPatch@@PADHAAVCString@@@Z 1017c75c     MStL_D32:MStL_D32.dll
 0004:00001760       __imp_?ShowInfo_NodeStaticLoad@CSLDNod@@QAEHPAVCDrNode@@PADHAAVCString@@@Z 1017c760     MStL_D32:MStL_D32.dll
 0004:00001764       __imp_?ShowInfo_CurveStaticLoad@CSLDCur@@QAEHPAVCDrCurve@@PADHAAVCString@@@Z 1017c764     MStL_D32:MStL_D32.dll
 0004:00001768       __imp_?Create@CDlg_StLI@@QAEHXZ 1017c768     MStL_D32:MStL_D32.dll
 0004:0000176c       __imp_?Get_Values_Iso_Pat@CSLDPat@@QAEHPAVCDrPatch@@W4STALPROC@@AAVCString@@@Z 1017c76c     MStL_D32:MStL_D32.dll
 0004:00001770       __imp_?Generate_IsoPatchControls@CSLDPat@@QAEHPAVCDrPatch@@PAVCString@@H@Z 1017c770     MStL_D32:MStL_D32.dll
 0004:00001774       __imp_?Get_Values_Iso_Cur@CSLDCur@@QAEHPAVCDrCurve@@W4STALPROC@@HH@Z 1017c774     MStL_D32:MStL_D32.dll
 0004:00001778       __imp_?Generate_IsoCurveControls@CSLDCur@@QAEHPAVCDrCurve@@HPAVCString@@H@Z 1017c778     MStL_D32:MStL_D32.dll
 0004:0000177c       __imp_?Get_Values_NonIso_Cur@CSLDCur@@QAEHW4STALPROC@@@Z 1017c77c     MStL_D32:MStL_D32.dll
 0004:00001780       __imp_?Get_Values_Uniform@CDlg_StLI@@QAEXXZ 1017c780     MStL_D32:MStL_D32.dll
 0004:00001784       \177MStL_D32_NULL_THUNK_DATA 1017c784     MStL_D32:MStL_D32.dll
 0004:000017bc       __imp_?CreatePatchBased_4@CMI_LSupp@@QAEHPAVCDrPatch@@PAV?$CList@Usupportcard@@U1@@@@Z 1017c7bc     MSup_D32:MSup_D32.dll
 0004:000017c0       __imp_?Create@CDlg_SupI@@QAEHXZ 1017c7c0     MSup_D32:MSup_D32.dll
 0004:000017c4       __imp_??0CDlg_SupI@@QAE@PAVCWnd@@@Z 1017c7c4     MSup_D32:MSup_D32.dll
 0004:000017c8       __imp_??1CMI_LSupp@@UAE@XZ 1017c7c8     MSup_D32:MSup_D32.dll
 0004:000017cc       __imp_?CreateNodeBased@CMI_LSupp@@QAEHPAVCDrNode@@PAV?$CList@Usupportcard@@U1@@@@Z 1017c7cc     MSup_D32:MSup_D32.dll
 0004:000017d0       __imp_??0CMI_LSupp@@QAE@XZ 1017c7d0     MSup_D32:MSup_D32.dll
 0004:000017d4       __imp_?CreateCurveBased@CMI_LSupp@@QAEHPAVCDrCurve@@PAV?$CList@Usupportcard@@U1@@@@Z 1017c7d4     MSup_D32:MSup_D32.dll
 0004:000017d8       __imp_?CreatePatchBased_3@CMI_LSupp@@QAEHPAVCDrPatch@@PAV?$CList@Usupportcard@@U1@@@@Z 1017c7d8     MSup_D32:MSup_D32.dll
 0004:000017dc       \177MSup_D32_NULL_THUNK_DATA 1017c7dc     MSup_D32:MSup_D32.dll
 0004:0000180c       __imp_?GetRuntimeClass@CTriangle@@UBEPAUCRuntimeClass@@XZ 1017c80c     OGen_D32:OGEN_D32.dll
 0004:00001810       __imp_??0CDrCurve@@QAE@XZ  1017c810     OGen_D32:OGEN_D32.dll
 0004:00001814       \177OGEN_D32_NULL_THUNK_DATA 1017c814     OGen_D32:OGEN_D32.dll
 0004:00001840       __imp_?GetNodeList_OtherContext@CObjectMgr@@QAEPAVCDListMgr@@HH@Z 1017c840     OMgr_D32:OMgr_D32.dll
 0004:00001844       __imp_?SetNodeInfoID@CObjectMgr@@QAEHAAVCString@@HI@Z 1017c844     OMgr_D32:OMgr_D32.dll
 0004:00001848       __imp_?SetNodeInfoID@CObjectMgr@@QAEHAAVCString@@HH@Z 1017c848     OMgr_D32:OMgr_D32.dll
 0004:0000184c       __imp_?UpdateAllViewsWithActiveIndex@CObjectMgr@@QAEXPAVCView@@IH@Z 1017c84c     OMgr_D32:OMgr_D32.dll
 0004:00001850       __imp_?GetObjectIndexfromKey@CObjectMgr@@QAEHHVCString@@I@Z 1017c850     OMgr_D32:OMgr_D32.dll
 0004:00001854       __imp_?SetObjInfoID@CObjectMgr@@QAEHAAVCString@@I@Z 1017c854     OMgr_D32:OMgr_D32.dll
 0004:00001858       __imp_?ShowObject_On_Off@CObjectMgr@@QAEHPAVCDrObject@@IH@Z 1017c858     OMgr_D32:OMgr_D32.dll
 0004:0000185c       __imp_?GetSpecObject@CObjectMgr@@QAEPAVCDrObject@@H@Z 1017c85c     OMgr_D32:OMgr_D32.dll
 0004:00001860       \177OMgr_D32_NULL_THUNK_DATA 1017c860     OMgr_D32:OMgr_D32.dll
 0004:00001890       __imp_?GetSpecificObjectCount@CDListMgr@@QAEHH@Z 1017c890     Spec_d32:Spec_D32.dll
 0004:00001894       __imp_?GetFirstObjectPos@CDListMgr@@QAEPAU__POSITION@@XZ 1017c894     Spec_d32:Spec_D32.dll
 0004:00001898       __imp_?GetNextObject@CDListMgr@@QAEPAVCObject@@AAPAU__POSITION@@@Z 1017c898     Spec_d32:Spec_D32.dll
 0004:0000189c       __imp_?GetObjectA@CDListMgr@@QAEPAVCObject@@H@Z 1017c89c     Spec_d32:Spec_D32.dll
 0004:000018a0       __imp_?GetObjectIndex@CDListMgr@@QAEHPAVCObject@@@Z 1017c8a0     Spec_d32:Spec_D32.dll
 0004:000018a4       __imp_?InsertObject@CDListMgr@@QAEHPAVCObject@@@Z 1017c8a4     Spec_d32:Spec_D32.dll
 0004:000018a8       __imp_?GetObjectIndex@CDListMgr@@QAEHIVCString@@@Z 1017c8a8     Spec_d32:Spec_D32.dll
 0004:000018ac       __imp_??0CDListMgr@@QAE@XZ 1017c8ac     Spec_d32:Spec_D32.dll
 0004:000018b0       __imp_??1CDListMgr@@UAE@XZ 1017c8b0     Spec_d32:Spec_D32.dll
 0004:000018b4       __imp_?GetRuntimeClass@CUnit@@UBEPAUCRuntimeClass@@XZ 1017c8b4     Spec_d32:Spec_D32.dll
 0004:000018b8       __imp_?Serialize@CUnit@@UAEXAAVCArchive@@@Z 1017c8b8     Spec_d32:Spec_D32.dll
 0004:000018bc       __imp_?DoDataView@CUnit@@UAEXPAVCDC@@H@Z 1017c8bc     Spec_d32:Spec_D32.dll
 0004:000018c0       __imp_?Pack_drPipe@CUnit@@UAEXPAVCString@@@Z 1017c8c0     Spec_d32:Spec_D32.dll
 0004:000018c4       __imp_?GetObjectInfo@CUnit@@UAEXPAVCDrObject@@@Z 1017c8c4     Spec_d32:Spec_D32.dll
 0004:000018c8       __imp_?SetObjectInfo@CUnit@@UAEXPAVCDrObject@@@Z 1017c8c8     Spec_d32:Spec_D32.dll
 0004:000018cc       __imp_?ReadDefaultUnit@CUnit@@UAEXXZ 1017c8cc     Spec_d32:Spec_D32.dll
 0004:000018d0       __imp_?InitUnit@CUnit@@UAEXXZ 1017c8d0     Spec_d32:Spec_D32.dll
 0004:000018d4       __imp_?GetRuntimeClass@CScaleFactor@@UBEPAUCRuntimeClass@@XZ 1017c8d4     Spec_d32:Spec_D32.dll
 0004:000018d8       __imp_?Serialize@CScaleFactor@@UAEXAAVCArchive@@@Z 1017c8d8     Spec_d32:Spec_D32.dll
 0004:000018dc       __imp_?DoDataView@CScaleFactor@@UAEXPAVCDC@@H@Z 1017c8dc     Spec_d32:Spec_D32.dll
 0004:000018e0       __imp_?Pack_drPipe@CScaleFactor@@UAEXPAVCString@@@Z 1017c8e0     Spec_d32:Spec_D32.dll
 0004:000018e4       __imp_?GetObjectInfo@CScaleFactor@@UAEXPAVCDrObject@@@Z 1017c8e4     Spec_d32:Spec_D32.dll
 0004:000018e8       __imp_?SetObjectInfo@CScaleFactor@@UAEXPAVCDrObject@@@Z 1017c8e8     Spec_d32:Spec_D32.dll
 0004:000018ec       __imp_?ReadDefaultScaleFactor@CScaleFactor@@UAEXXZ 1017c8ec     Spec_d32:Spec_D32.dll
 0004:000018f0       __imp_?InitScaleFactor@CScaleFactor@@UAEXXZ 1017c8f0     Spec_d32:Spec_D32.dll
 0004:000018f4       __imp_?GetRuntimeClass@CPrecision@@UBEPAUCRuntimeClass@@XZ 1017c8f4     Spec_d32:Spec_D32.dll
 0004:000018f8       __imp_?Serialize@CPrecision@@UAEXAAVCArchive@@@Z 1017c8f8     Spec_d32:Spec_D32.dll
 0004:000018fc       __imp_?DoDataView@CPrecision@@UAEXPAVCDC@@H@Z 1017c8fc     Spec_d32:Spec_D32.dll
 0004:00001900       __imp_?Pack_drPipe@CPrecision@@UAEXPAVCString@@@Z 1017c900     Spec_d32:Spec_D32.dll
 0004:00001904       __imp_?GetObjectInfo@CPrecision@@UAEXPAVCDrObject@@@Z 1017c904     Spec_d32:Spec_D32.dll
 0004:00001908       __imp_?SetObjectInfo@CPrecision@@UAEXPAVCDrObject@@@Z 1017c908     Spec_d32:Spec_D32.dll
 0004:0000190c       __imp_?ReadDefaultPrecision@CPrecision@@UAEXXZ 1017c90c     Spec_d32:Spec_D32.dll
 0004:00001910       __imp_?InitPrecision@CPrecision@@UAEXXZ 1017c910     Spec_d32:Spec_D32.dll
 0004:00001914       __imp_?GetRuntimeClass@CMapFactor@@UBEPAUCRuntimeClass@@XZ 1017c914     Spec_d32:Spec_D32.dll
 0004:00001918       __imp_?Serialize@CMapFactor@@UAEXAAVCArchive@@@Z 1017c918     Spec_d32:Spec_D32.dll
 0004:0000191c       __imp_?DoDataView@CMapFactor@@UAEXPAVCDC@@H@Z 1017c91c     Spec_d32:Spec_D32.dll
 0004:00001920       __imp_?Pack_drPipe@CMapFactor@@UAEXPAVCString@@@Z 1017c920     Spec_d32:Spec_D32.dll
 0004:00001924       __imp_?GetObjectInfo@CMapFactor@@UAEXPAVCDrObject@@@Z 1017c924     Spec_d32:Spec_D32.dll
 0004:00001928       __imp_?SetObjectInfo@CMapFactor@@UAEXPAVCDrObject@@@Z 1017c928     Spec_d32:Spec_D32.dll
 0004:0000192c       __imp_?ReadDefaultMapFactor@CMapFactor@@UAEXXZ 1017c92c     Spec_d32:Spec_D32.dll
 0004:00001930       __imp_?InitMapFactor@CMapFactor@@UAEXXZ 1017c930     Spec_d32:Spec_D32.dll
 0004:00001934       __imp_?GetRuntimeClass@CObj3DMnu@@UBEPAUCRuntimeClass@@XZ 1017c934     Spec_d32:Spec_D32.dll
 0004:00001938       __imp_?Serialize@CObj3DMnu@@UAEXAAVCArchive@@@Z 1017c938     Spec_d32:Spec_D32.dll
 0004:0000193c       __imp_?DoDataView@CObj3DMnu@@UAEXPAVCDC@@H@Z 1017c93c     Spec_d32:Spec_D32.dll
 0004:00001940       __imp_?Pack_drPipe@CObj3DMnu@@UAEXPAVCString@@@Z 1017c940     Spec_d32:Spec_D32.dll
 0004:00001944       __imp_?GetObjectInfo@CObj3DMnu@@UAEXPAVCDrObject@@@Z 1017c944     Spec_d32:Spec_D32.dll
 0004:00001948       __imp_?SetObjectInfo@CObj3DMnu@@UAEXPAVCDrObject@@@Z 1017c948     Spec_d32:Spec_D32.dll
 0004:0000194c       __imp_?GetObj3DMnuInfo@CObj3DMnu@@UAE?AVCString@@I@Z 1017c94c     Spec_d32:Spec_D32.dll
 0004:00001950       __imp_?SetObj3DMnuInfo@CObj3DMnu@@UAEXII@Z 1017c950     Spec_d32:Spec_D32.dll
 0004:00001954       __imp_?GetObj3DMnuIDArray@CObj3DMnu@@UAEXQAVCString@@@Z 1017c954     Spec_d32:Spec_D32.dll
 0004:00001958       __imp_?SetObj3DMnuIDArray@CObj3DMnu@@UAEXQAVCString@@@Z 1017c958     Spec_d32:Spec_D32.dll
 0004:0000195c       __imp_?GetObj3DMnuArray@CObj3DMnu@@UAEXQAY01I@Z 1017c95c     Spec_d32:Spec_D32.dll
 0004:00001960       __imp_?SetObj3DMnuArray@CObj3DMnu@@UAEXQAY01I@Z 1017c960     Spec_d32:Spec_D32.dll
 0004:00001964       __imp_?GetObj3DMnuOldArray@CObj3DMnu@@UAEXQAY01I@Z 1017c964     Spec_d32:Spec_D32.dll
 0004:00001968       __imp_?SetObj3DMnuOldArray@CObj3DMnu@@UAEXQAY01I@Z 1017c968     Spec_d32:Spec_D32.dll
 0004:0000196c       __imp_?GetObj3DMnuDefaultArray@CObj3DMnu@@UAEXQAY01I@Z 1017c96c     Spec_d32:Spec_D32.dll
 0004:00001970       __imp_?SetObj3DMnuDefaultArray@CObj3DMnu@@UAEXQAY01I@Z 1017c970     Spec_d32:Spec_D32.dll
 0004:00001974       __imp_?ReadDefaultObj3DMnu@CObj3DMnu@@UAEXXZ 1017c974     Spec_d32:Spec_D32.dll
 0004:00001978       __imp_?InitObj3DMnu@CObj3DMnu@@UAEXXZ 1017c978     Spec_d32:Spec_D32.dll
 0004:0000197c       __imp_?GetRuntimeClass@CPatchMnu@@UBEPAUCRuntimeClass@@XZ 1017c97c     Spec_d32:Spec_D32.dll
 0004:00001980       __imp_?Serialize@CPatchMnu@@UAEXAAVCArchive@@@Z 1017c980     Spec_d32:Spec_D32.dll
 0004:00001984       __imp_?DoDataView@CPatchMnu@@UAEXPAVCDC@@H@Z 1017c984     Spec_d32:Spec_D32.dll
 0004:00001988       __imp_?Pack_drPipe@CPatchMnu@@UAEXPAVCString@@@Z 1017c988     Spec_d32:Spec_D32.dll
 0004:0000198c       __imp_?GetObjectInfo@CPatchMnu@@UAEXPAVCDrObject@@@Z 1017c98c     Spec_d32:Spec_D32.dll
 0004:00001990       __imp_?SetObjectInfo@CPatchMnu@@UAEXPAVCDrObject@@@Z 1017c990     Spec_d32:Spec_D32.dll
 0004:00001994       __imp_?GetPatchMnuInfo@CPatchMnu@@UAE?AVCString@@I@Z 1017c994     Spec_d32:Spec_D32.dll
 0004:00001998       __imp_?SetPatchMnuInfo@CPatchMnu@@UAEXII@Z 1017c998     Spec_d32:Spec_D32.dll
 0004:0000199c       __imp_?GetPatchMnuIDArray@CPatchMnu@@UAEXQAVCString@@@Z 1017c99c     Spec_d32:Spec_D32.dll
 0004:000019a0       __imp_?SetPatchMnuIDArray@CPatchMnu@@UAEXQAVCString@@@Z 1017c9a0     Spec_d32:Spec_D32.dll
 0004:000019a4       __imp_?GetPatchMnuArray@CPatchMnu@@UAEXQAY01I@Z 1017c9a4     Spec_d32:Spec_D32.dll
 0004:000019a8       __imp_?SetPatchMnuArray@CPatchMnu@@UAEXQAY01I@Z 1017c9a8     Spec_d32:Spec_D32.dll
 0004:000019ac       __imp_?GetPatchMnuOldArray@CPatchMnu@@UAEXQAY01I@Z 1017c9ac     Spec_d32:Spec_D32.dll
 0004:000019b0       __imp_?SetPatchMnuOldArray@CPatchMnu@@UAEXQAY01I@Z 1017c9b0     Spec_d32:Spec_D32.dll
 0004:000019b4       __imp_?GetPatchMnuDefaultArray@CPatchMnu@@UAEXQAY01I@Z 1017c9b4     Spec_d32:Spec_D32.dll
 0004:000019b8       __imp_?SetPatchMnuDefaultArray@CPatchMnu@@UAEXQAY01I@Z 1017c9b8     Spec_d32:Spec_D32.dll
 0004:000019bc       __imp_?ReadDefaultPatchMnu@CPatchMnu@@UAEXXZ 1017c9bc     Spec_d32:Spec_D32.dll
 0004:000019c0       __imp_?InitPatchMnu@CPatchMnu@@UAEXXZ 1017c9c0     Spec_d32:Spec_D32.dll
 0004:000019c4       __imp_?GetRuntimeClass@CLayer@@UBEPAUCRuntimeClass@@XZ 1017c9c4     Spec_d32:Spec_D32.dll
 0004:000019c8       __imp_?Serialize@CLayer@@UAEXAAVCArchive@@@Z 1017c9c8     Spec_d32:Spec_D32.dll
 0004:000019cc       __imp_?DoDataView@CLayer@@UAEXPAVCDC@@H@Z 1017c9cc     Spec_d32:Spec_D32.dll
 0004:000019d0       __imp_?Pack_drPipe@CLayer@@UAEXPAVCString@@@Z 1017c9d0     Spec_d32:Spec_D32.dll
 0004:000019d4       __imp_?GetObjectInfo@CLayer@@UAEXPAVCDrObject@@@Z 1017c9d4     Spec_d32:Spec_D32.dll
 0004:000019d8       __imp_?SetObjectInfo@CLayer@@UAEXPAVCDrObject@@@Z 1017c9d8     Spec_d32:Spec_D32.dll
 0004:000019dc       __imp_?GetLayerInfo@CLayer@@UAE?AVCString@@I@Z 1017c9dc     Spec_d32:Spec_D32.dll
 0004:000019e0       __imp_?SetLayerInfo@CLayer@@UAEXII@Z 1017c9e0     Spec_d32:Spec_D32.dll
 0004:000019e4       __imp_?GetLayerArray@CLayer@@UAEXQAY01I@Z 1017c9e4     Spec_d32:Spec_D32.dll
 0004:000019e8       __imp_?SetLayerArray@CLayer@@UAEXQAY01I@Z 1017c9e8     Spec_d32:Spec_D32.dll
 0004:000019ec       __imp_?GetLayerOldArray@CLayer@@UAEXQAY01I@Z 1017c9ec     Spec_d32:Spec_D32.dll
 0004:000019f0       __imp_?SetLayerOldArray@CLayer@@UAEXQAY01I@Z 1017c9f0     Spec_d32:Spec_D32.dll
 0004:000019f4       __imp_?GetLayerDefaultArray@CLayer@@UAEXQAY01I@Z 1017c9f4     Spec_d32:Spec_D32.dll
 0004:000019f8       __imp_?SetLayerDefaultArray@CLayer@@UAEXQAY01I@Z 1017c9f8     Spec_d32:Spec_D32.dll
 0004:000019fc       __imp_?ReadDefaultLayer@CLayer@@UAEXXZ 1017c9fc     Spec_d32:Spec_D32.dll
 0004:00001a00       __imp_?InitLayer@CLayer@@UAEXXZ 1017ca00     Spec_d32:Spec_D32.dll
 0004:00001a04       __imp_?GetRuntimeClass@CHitNet@@UBEPAUCRuntimeClass@@XZ 1017ca04     Spec_d32:Spec_D32.dll
 0004:00001a08       __imp_?Serialize@CHitNet@@UAEXAAVCArchive@@@Z 1017ca08     Spec_d32:Spec_D32.dll
 0004:00001a0c       __imp_?DoDataView@CHitNet@@UAEXPAVCDC@@H@Z 1017ca0c     Spec_d32:Spec_D32.dll
 0004:00001a10       __imp_?Pack_drPipe@CHitNet@@UAEXPAVCString@@@Z 1017ca10     Spec_d32:Spec_D32.dll
 0004:00001a14       __imp_?GetObjectInfo@CHitNet@@UAEXPAVCDrObject@@@Z 1017ca14     Spec_d32:Spec_D32.dll
 0004:00001a18       __imp_?SetObjectInfo@CHitNet@@UAEXPAVCDrObject@@@Z 1017ca18     Spec_d32:Spec_D32.dll
 0004:00001a1c       __imp_?GetRuntimeClass@CDrPen@@UBEPAUCRuntimeClass@@XZ 1017ca1c     Spec_d32:Spec_D32.dll
 0004:00001a20       __imp_?Serialize@CDrPen@@UAEXAAVCArchive@@@Z 1017ca20     Spec_d32:Spec_D32.dll
 0004:00001a24       __imp_?DoDataView@CDrPen@@UAEXPAVCDC@@H@Z 1017ca24     Spec_d32:Spec_D32.dll
 0004:00001a28       __imp_?Pack_drPipe@CDrPen@@UAEXPAVCString@@@Z 1017ca28     Spec_d32:Spec_D32.dll
 0004:00001a2c       __imp_?GetObjectInfo@CDrPen@@UAEXPAVCDrObject@@@Z 1017ca2c     Spec_d32:Spec_D32.dll
 0004:00001a30       __imp_?SetObjectInfo@CDrPen@@UAEXPAVCDrObject@@@Z 1017ca30     Spec_d32:Spec_D32.dll
 0004:00001a34       __imp_?ReplacePen@CDrPen@@UAEXXZ 1017ca34     Spec_d32:Spec_D32.dll
 0004:00001a38       __imp_?ReadDefaultDrPen@CDrPen@@UAEXXZ 1017ca38     Spec_d32:Spec_D32.dll
 0004:00001a3c       __imp_?InitDrPen@CDrPen@@UAEXXZ 1017ca3c     Spec_d32:Spec_D32.dll
 0004:00001a40       __imp_?GetRuntimeClass@CDrFont@@UBEPAUCRuntimeClass@@XZ 1017ca40     Spec_d32:Spec_D32.dll
 0004:00001a44       __imp_?Serialize@CDrFont@@UAEXAAVCArchive@@@Z 1017ca44     Spec_d32:Spec_D32.dll
 0004:00001a48       __imp_?DoDataView@CDrFont@@UAEXPAVCDC@@H@Z 1017ca48     Spec_d32:Spec_D32.dll
 0004:00001a4c       __imp_?Pack_drPipe@CDrFont@@UAEXPAVCString@@@Z 1017ca4c     Spec_d32:Spec_D32.dll
 0004:00001a50       __imp_?GetObjectInfo@CDrFont@@UAEXPAVCDrObject@@@Z 1017ca50     Spec_d32:Spec_D32.dll
 0004:00001a54       __imp_?SetObjectInfo@CDrFont@@UAEXPAVCDrObject@@@Z 1017ca54     Spec_d32:Spec_D32.dll
 0004:00001a58       __imp_?DoTextFont@CDrFont@@UAEXXZ 1017ca58     Spec_d32:Spec_D32.dll
 0004:00001a5c       __imp_?ReadDefaultDrFont@CDrFont@@UAEXXZ 1017ca5c     Spec_d32:Spec_D32.dll
 0004:00001a60       __imp_?InitDrFont@CDrFont@@UAEXXZ 1017ca60     Spec_d32:Spec_D32.dll
 0004:00001a64       __imp_?GetRuntimeClass@CDataWindow@@UBEPAUCRuntimeClass@@XZ 1017ca64     Spec_d32:Spec_D32.dll
 0004:00001a68       __imp_?Serialize@CDataWindow@@UAEXAAVCArchive@@@Z 1017ca68     Spec_d32:Spec_D32.dll
 0004:00001a6c       __imp_?DoDataView@CDataWindow@@UAEXPAVCDC@@H@Z 1017ca6c     Spec_d32:Spec_D32.dll
 0004:00001a70       __imp_?Pack_drPipe@CDataWindow@@UAEXPAVCString@@@Z 1017ca70     Spec_d32:Spec_D32.dll
 0004:00001a74       __imp_?GetObjectInfo@CDataWindow@@UAEXPAVCDrObject@@@Z 1017ca74     Spec_d32:Spec_D32.dll
 0004:00001a78       __imp_?SetObjectInfo@CDataWindow@@UAEXPAVCDrObject@@@Z 1017ca78     Spec_d32:Spec_D32.dll
 0004:00001a7c       __imp_?SetWinMinMaxWIC@CDataWindow@@UAEXULPOINT3@@@Z 1017ca7c     Spec_d32:Spec_D32.dll
 0004:00001a80       __imp_?SetWinExtWIC@CDataWindow@@UAEXXZ 1017ca80     Spec_d32:Spec_D32.dll
 0004:00001a84       __imp_?ReadDefaultDataWindow@CDataWindow@@UAEXXZ 1017ca84     Spec_d32:Spec_D32.dll
 0004:00001a88       __imp_?InitDataWindow@CDataWindow@@UAEXXZ 1017ca88     Spec_d32:Spec_D32.dll
 0004:00001a8c       __imp_?GetRuntimeClass@CBooleans@@UBEPAUCRuntimeClass@@XZ 1017ca8c     Spec_d32:Spec_D32.dll
 0004:00001a90       __imp_?Serialize@CBooleans@@UAEXAAVCArchive@@@Z 1017ca90     Spec_d32:Spec_D32.dll
 0004:00001a94       __imp_?DoDataView@CBooleans@@UAEXPAVCDC@@H@Z 1017ca94     Spec_d32:Spec_D32.dll
 0004:00001a98       __imp_?Pack_drPipe@CBooleans@@UAEXPAVCString@@@Z 1017ca98     Spec_d32:Spec_D32.dll
 0004:00001a9c       __imp_?GetObjectInfo@CBooleans@@UAEXPAVCDrObject@@@Z 1017ca9c     Spec_d32:Spec_D32.dll
 0004:00001aa0       __imp_?SetObjectInfo@CBooleans@@UAEXPAVCDrObject@@@Z 1017caa0     Spec_d32:Spec_D32.dll
 0004:00001aa4       __imp_?IsZoomEnabled@CBooleans@@UAEHH@Z 1017caa4     Spec_d32:Spec_D32.dll
 0004:00001aa8       __imp_?SetZoomEnabled@CBooleans@@UAEXHH@Z 1017caa8     Spec_d32:Spec_D32.dll
 0004:00001aac       __imp_?IsZoomOn@CBooleans@@UAEHHH@Z 1017caac     Spec_d32:Spec_D32.dll
 0004:00001ab0       __imp_?ToggleZoom@CBooleans@@UAEHHH@Z 1017cab0     Spec_d32:Spec_D32.dll
 0004:00001ab4       __imp_?ReadDefaultBooleans@CBooleans@@UAEXXZ 1017cab4     Spec_d32:Spec_D32.dll
 0004:00001ab8       __imp_?InitBooleans@CBooleans@@UAEXXZ 1017cab8     Spec_d32:Spec_D32.dll
 0004:00001abc       __imp_??1CDrObject@@UAE@XZ 1017cabc     Spec_d32:Spec_D32.dll
 0004:00001ac0       __imp_?GetLocalCorner@CDrObject@@UAEXPAUWORLD@@H@Z 1017cac0     Spec_d32:Spec_D32.dll
 0004:00001ac4       __imp_?SetLocalCorner@CDrObject@@UAEXPAUWORLD@@H@Z 1017cac4     Spec_d32:Spec_D32.dll
 0004:00001ac8       __imp_?GetWorldCorner@CDrObject@@UAEXPAUWORLD@@H@Z 1017cac8     Spec_d32:Spec_D32.dll
 0004:00001acc       __imp_?SetWorldCorner@CDrObject@@UAEXPAUWORLD@@H@Z 1017cacc     Spec_d32:Spec_D32.dll
 0004:00001ad0       __imp_?GetEyeCorner@CDrObject@@UAEXPAUWORLD@@H@Z 1017cad0     Spec_d32:Spec_D32.dll
 0004:00001ad4       __imp_?SetEyeCorner@CDrObject@@UAEXPAUWORLD@@H@Z 1017cad4     Spec_d32:Spec_D32.dll
 0004:00001ad8       __imp_?GetScreen3DCorner@CDrObject@@UAEXPAUWORLD@@H@Z 1017cad8     Spec_d32:Spec_D32.dll
 0004:00001adc       __imp_?SetScreen3DCorner@CDrObject@@UAEXPAUWORLD@@H@Z 1017cadc     Spec_d32:Spec_D32.dll
 0004:00001ae0       __imp_?GetRuntimeClass@CMatObj@@UBEPAUCRuntimeClass@@XZ 1017cae0     Spec_d32:Spec_D32.dll
 0004:00001ae4       \177Spec_D32_NULL_THUNK_DATA 1017cae4     Spec_d32:Spec_D32.dll
 0004:00001b84       __imp__DestroyCursor@4     1017cb84     user32:USER32.dll
 0004:00001b88       __imp__SetCursor@4         1017cb88     user32:USER32.dll
 0004:00001b8c       __imp__GetSystemMetrics@4  1017cb8c     user32:USER32.dll
 0004:00001b90       __imp__SetCursorPos@8      1017cb90     user32:USER32.dll
 0004:00001b94       __imp__ReleaseCapture@0    1017cb94     user32:USER32.dll
 0004:00001b98       \177USER32_NULL_THUNK_DATA 1017cb98     user32:USER32.dll

 entry point at        0001:0007dad0

