 MStL_D32

 Timestamp is 403565d3 (Thu Feb 19 17:41:39 2004)

 Preferred load address is 10000000

 Start         Length     Name                   Class
 0001:00000000 00039be2H .text                   CODE
 0001:00039bf0 0000101fH .text$AFX_COL1          CODE
 0001:0003ac10 00003800H .text$x                 CODE
 0001:0003e410 0004a000H .textbss                CODE
 0002:00000000 00003b99H .rdata                  DATA
 0002:00003ba0 00002d0aH .xdata$x                DATA
 0002:000068b0 00019150H .edata                  DATA
 0003:00000000 00000104H .CRT$XCA                DATA
 0003:00000104 00000164H .CRT$XCU                DATA
 0003:00000268 00000104H .CRT$XCZ                DATA
 0003:0000036c 00000104H .CRT$XIA                DATA
 0003:00000470 00000104H .CRT$XIZ                DATA
 0003:00000580 00000533H .data                   DATA
 0003:00000ab8 0000012cH .bss                    DATA
 0004:00000000 00000104H .idata$2                DATA
 0004:00000104 00000014H .idata$3                DATA
 0004:00000118 00000a08H .idata$4                DATA
 0004:00000b20 00000a08H .idata$5                DATA
 0004:00001528 000037c0H .idata$6                DATA
 0005:00000000 00000734H .rsrc$01                DATA
 0005:00000740 00004e79H .rsrc$02                DATA

  Address         Publics by Value              Rva+Base     Lib:Object

 0001:00004bf0       ??1CDlg_IsoP@@UAE@XZ       10005bf0 f i Dlg_IsoP.obj
 0001:00004c60       ??_FCDlg_IsoP@@QAEXXZ      10005c60 f i Dlg_IsoP.obj
 0001:00005120       ??0CDlg_IsoP@@QAE@PAVCWnd@@@Z 10006120 f   Dlg_IsoP.obj
 0001:000051c0       ??_GCDlg_IsoP@@UAEPAXI@Z   100061c0 f i Dlg_IsoP.obj
 0001:00005200       ??_ECDlg_IsoP@@UAEPAXI@Z   10006200 f i Dlg_IsoP.obj
 0001:000052a0       ?DoDataExchange@CDlg_IsoP@@MAEXPAVCDataExchange@@@Z 100062a0 f   Dlg_IsoP.obj
 0001:000052f0       ?_GetBaseMessageMap@CDlg_IsoP@@KGPBUAFX_MSGMAP@@XZ 100062f0 f   Dlg_IsoP.obj
 0001:00005310       ?GetMessageMap@CDlg_IsoP@@MBEPBUAFX_MSGMAP@@XZ 10006310 f   Dlg_IsoP.obj
 0001:00005330       ?OnOk@CDlg_IsoP@@IAEXXZ    10006330 f   Dlg_IsoP.obj
 0001:00005360       ?OnCancel@CDlg_IsoP@@MAEXXZ 10006360 f   Dlg_IsoP.obj
 0001:00005390       ?OnInitDialog@CDlg_IsoP@@MAEHXZ 10006390 f   Dlg_IsoP.obj
 0001:00005550       ??_9@$BNA@AE               10006550 f i Dlg_IsoP.obj
 0001:00005560       ??1CDlg_Many@@UAE@XZ       10006560 f i dlg_Many.obj
 0001:00005600       ??_FCDlg_Many@@QAEXXZ      10006600 f i dlg_Many.obj
 0001:00005630       ??1CBitmapButton@@UAE@XZ   10006630 f i dlg_Many.obj
 0001:00005a60       ??0CDlg_Many@@QAE@PAVCWnd@@@Z 10006a60 f   dlg_Many.obj
 0001:00005b60       ??_GCDlg_Many@@UAEPAXI@Z   10006b60 f i dlg_Many.obj
 0001:00005ba0       ??_ECDlg_Many@@UAEPAXI@Z   10006ba0 f i dlg_Many.obj
 0001:00005c40       ?DoDataExchange@CDlg_Many@@MAEXPAVCDataExchange@@@Z 10006c40 f   dlg_Many.obj
 0001:00005d20       ?_GetBaseMessageMap@CDlg_Many@@KGPBUAFX_MSGMAP@@XZ 10006d20 f   dlg_Many.obj
 0001:00005d40       ?GetMessageMap@CDlg_Many@@MBEPBUAFX_MSGMAP@@XZ 10006d40 f   dlg_Many.obj
 0001:00005d60       ?OnInitDialog@CDlg_Many@@MAEHXZ 10006d60 f   dlg_Many.obj
 0001:00006140       ?OnOK@CDlg_Many@@MAEXXZ    10007140 f   dlg_Many.obj
 0001:00006250       ?OnCancel@CDlg_Many@@MAEXXZ 10007250 f   dlg_Many.obj
 0001:00006280       ??_9@$BMM@AE               10007280 f i dlg_Many.obj
 0001:00006290       ?Set3DPts@C3DMath@@QAEXPAULPOINT3@@JJJ@Z 10007290 f i Dlg_StLA.obj
 0001:000062d0       ?Set3DPts@C3DMath@@QAEXPAUWORLD@@NNN@Z 100072d0 f i Dlg_StLA.obj
 0001:00006330       ?Len3DPts@C3DMath@@QAENPAUWORLD@@@Z 10007330 f i Dlg_StLA.obj
 0001:00006390       ??1C3DMath@@UAE@XZ         10007390 f i Dlg_StLA.obj
 0001:000063c0       ??_GC3DMath@@UAEPAXI@Z     100073c0 f i Dlg_StLA.obj
 0001:00006400       ??_EC3DMath@@UAEPAXI@Z     10007400 f i Dlg_StLA.obj
 0001:000064a0       ?GetMatrix@CMatObj@@UAEPAUMATRIX@@XZ 100074a0 f i Dlg_StLA.obj
 0001:000064c0       ?SetMatrix@CMatObj@@UAEXPAUMATRIX@@@Z 100074c0 f i Dlg_StLA.obj
 0001:00006550       ?GetCurveLatch@CMatObj@@UAE?AW4CURVELATCH@@XZ 10007550 f i Dlg_StLA.obj
 0001:00006570       ?SetCurveLatch@CMatObj@@UAEXW4CURVELATCH@@@Z 10007570 f i Dlg_StLA.obj
 0001:000065a0       ?IsInstanced_Prof@CMatObj@@UAEHXZ 100075a0 f i Dlg_StLA.obj
 0001:000065c0       ?SetInstanced_Prof@CMatObj@@UAEXH@Z 100075c0 f i Dlg_StLA.obj
 0001:000065f0       ?GetFromID@CMatObj@@UAE?AVCString@@XZ 100075f0 f i Dlg_StLA.obj
 0001:00006640       ?SetFromID@CMatObj@@UAEXVCString@@@Z 10007640 f i Dlg_StLA.obj
 0001:000066c0       ?GetFromPt@CMatObj@@UAE?AUWORLD@@XZ 100076c0 f i Dlg_StLA.obj
 0001:00006700       ?SetFromPt@CMatObj@@UAEXUWORLD@@@Z 10007700 f i Dlg_StLA.obj
 0001:00006740       ?GetToID@CMatObj@@UAE?AVCString@@XZ 10007740 f i Dlg_StLA.obj
 0001:00006790       ?SetToID@CMatObj@@UAEXVCString@@@Z 10007790 f i Dlg_StLA.obj
 0001:00006810       ?GetToPt@CMatObj@@UAE?AUWORLD@@XZ 10007810 f i Dlg_StLA.obj
 0001:00006850       ?SetToPt@CMatObj@@UAEXUWORLD@@@Z 10007850 f i Dlg_StLA.obj
 0001:00006890       ?GetRotPtID@CMatObj@@UAE?AVCString@@XZ 10007890 f i Dlg_StLA.obj
 0001:000068e0       ?SetRotPtID@CMatObj@@UAEXVCString@@@Z 100078e0 f i Dlg_StLA.obj
 0001:00006960       ?GetRotPt@CMatObj@@UAE?AUWORLD@@XZ 10007960 f i Dlg_StLA.obj
 0001:000069a0       ?SetRotPt@CMatObj@@UAEXUWORLD@@@Z 100079a0 f i Dlg_StLA.obj
 0001:000069e0       ?IsCoordIn@CMatObj@@UAEHXZ 100079e0 f i Dlg_StLA.obj
 0001:00006a10       ?SetCoordIn@CMatObj@@UAEXH@Z 10007a10 f i Dlg_StLA.obj
 0001:00006a40       ?GetTranPtID@CMatObj@@UAE?AVCString@@XZ 10007a40 f i Dlg_StLA.obj
 0001:00006a90       ?SetTranPtID@CMatObj@@UAEXVCString@@@Z 10007a90 f i Dlg_StLA.obj
 0001:00006b10       ?GetTranslation@CMatObj@@UAE?AUWORLD@@XZ 10007b10 f i Dlg_StLA.obj
 0001:00006b50       ?SetTranslation@CMatObj@@UAEXUWORLD@@@Z 10007b50 f i Dlg_StLA.obj
 0001:00006b90       ?IsAngleIn@CMatObj@@UAEHXZ 10007b90 f i Dlg_StLA.obj
 0001:00006bc0       ?SetAngleIn@CMatObj@@UAEXH@Z 10007bc0 f i Dlg_StLA.obj
 0001:00006bf0       ?IsDirCos@CMatObj@@UAEHXZ  10007bf0 f i Dlg_StLA.obj
 0001:00006c20       ?SetDirCos@CMatObj@@UAEXH@Z 10007c20 f i Dlg_StLA.obj
 0001:00006c50       ?GetDirCosDirect@CMatObj@@UAE?AUWORLD@@XZ 10007c50 f i Dlg_StLA.obj
 0001:00006c90       ?SetDirCosDirect@CMatObj@@UAEXUWORLD@@@Z 10007c90 f i Dlg_StLA.obj
 0001:00006cd0       ?GetRotation@CMatObj@@UAE?AUWORLD@@XZ 10007cd0 f i Dlg_StLA.obj
 0001:00006d10       ?SetRotation@CMatObj@@UAEXUWORLD@@@Z 10007d10 f i Dlg_StLA.obj
 0001:00006d50       ?GetScale@CMatObj@@UAE?AUWORLD@@XZ 10007d50 f i Dlg_StLA.obj
 0001:00006d90       ?SetScale@CMatObj@@UAEXUWORLD@@@Z 10007d90 f i Dlg_StLA.obj
 0001:00006dd0       ?GetShear@CMatObj@@UAE?AUWORLD@@XZ 10007dd0 f i Dlg_StLA.obj
 0001:00006e10       ?SetShear@CMatObj@@UAEXUWORLD@@@Z 10007e10 f i Dlg_StLA.obj
 0001:00006e50       ?IsNoRot@CMatObj@@UAEHXZ   10007e50 f i Dlg_StLA.obj
 0001:00006e80       ?SetNoRot@CMatObj@@UAEXH@Z 10007e80 f i Dlg_StLA.obj
 0001:00006eb0       ?IsNoTran@CMatObj@@UAEHXZ  10007eb0 f i Dlg_StLA.obj
 0001:00006ee0       ?SetNoTran@CMatObj@@UAEXH@Z 10007ee0 f i Dlg_StLA.obj
 0001:00006f10       ?IsNoScale@CMatObj@@UAEHXZ 10007f10 f i Dlg_StLA.obj
 0001:00006f40       ?SetNoScale@CMatObj@@UAEXH@Z 10007f40 f i Dlg_StLA.obj
 0001:00006f70       ?IsNoShear@CMatObj@@UAEHXZ 10007f70 f i Dlg_StLA.obj
 0001:00006fa0       ?SetNoShear@CMatObj@@UAEXH@Z 10007fa0 f i Dlg_StLA.obj
 0001:00006fd0       ?GetXformType@CMatObj@@UAE?AW4XFORMTYPE@@XZ 10007fd0 f i Dlg_StLA.obj
 0001:00007000       ?SetXformType@CMatObj@@UAEXW4XFORMTYPE@@@Z 10008000 f i Dlg_StLA.obj
 0001:00007030       ?GetSpawnType@CMatObj@@UAE?AW4SPAWNTYPE@@XZ 10008030 f i Dlg_StLA.obj
 0001:00007060       ?SetSpawnType@CMatObj@@UAEXW4SPAWNTYPE@@@Z 10008060 f i Dlg_StLA.obj
 0001:00007090       ?GetCreOp@CMatObj@@UAEIXZ  10008090 f i Dlg_StLA.obj
 0001:000070c0       ?SetCreOp@CMatObj@@UAEXI@Z 100080c0 f i Dlg_StLA.obj
 0001:000070f0       ??1CMatObj@@UAE@XZ         100080f0 f i Dlg_StLA.obj
 0001:000071b0       ??_GCMatObj@@UAEPAXI@Z     100081b0 f i Dlg_StLA.obj
 0001:000071f0       ??_ECMatObj@@UAEPAXI@Z     100081f0 f i Dlg_StLA.obj
 0001:00007290       ?ReadyToDelete@CDrObject@@UAEXXZ 10008290 f i Dlg_StLA.obj
 0001:000072b0       ?DoFormattedCardView@CDrObject@@UAEXPAVCString@@AAV2@@Z 100082b0 f i Dlg_StLA.obj
 0001:000072d0       ?DoUnFormattedCardView@CDrObject@@UAEXPAVCString@@@Z 100082d0 f i Dlg_StLA.obj
 0001:000072f0       ?DoDataView@CDrObject@@UAEXPAVCDC@@H@Z 100082f0 f i Dlg_StLA.obj
 0001:00007310       ?InitDraw@CDrObject@@UAEXPAVCDC@@HHPAUMATRIX@@1NNN@Z 10008310 f i Dlg_StLA.obj
 0001:00007330       ?InitDraw@CDrObject@@UAEXPAVCDC@@HHPAUMATRIX@@1NNNN@Z 10008330 f i Dlg_StLA.obj
 0001:00007350       ?Corner_3Dto2D@CDrObject@@UAEXXZ 10008350 f i Dlg_StLA.obj
 0001:00007370       ?DoDrawView@CDrObject@@UAEXPAVCDC@@@Z 10008370 f i Dlg_StLA.obj
 0001:00007390       ?DoDrawView@CDrObject@@UAEXPAVCDC@@H@Z 10008390 f i Dlg_StLA.obj
 0001:000073b0       ?DoDrawView@CDrObject@@UAEXPAVCDC@@HH@Z 100083b0 f i Dlg_StLA.obj
 0001:000073d0       ?DealObjectDialog@CDrObject@@UAEHXZ 100083d0 f i Dlg_StLA.obj
 0001:000073f0       ?TransformObjectToWorld@CDrObject@@UAEXPAUMATRIX@@H@Z 100083f0 f i Dlg_StLA.obj
 0001:00007410       ?TransformObjectToView@CDrObject@@UAEXPAUMATRIX@@@Z 10008410 f i Dlg_StLA.obj
 0001:00007430       ?TransformObjectToViewDirect@CDrObject@@UAEXPAUMATRIX@@00H@Z 10008430 f i Dlg_StLA.obj
 0001:00007450       ?RemoveHiddenObject@CDrObject@@UAEHPAUMATRIX@@UWORLD@@H@Z 10008450 f i Dlg_StLA.obj
 0001:00007470       ?ProjectObject@CDrObject@@UAEXPAUMATRIX@@NN@Z 10008470 f i Dlg_StLA.obj
 0001:00007490       ?Calc_2DBoundsScreen@CDrObject@@UAEHXZ 10008490 f i Dlg_StLA.obj
 0001:000074b0       ?Calc_3DBoundsLocal@CDrObject@@UAEHXZ 100084b0 f i Dlg_StLA.obj
 0001:000074d0       ?FinishObject@CDrObject@@UAEXPAVCClientDC@@H@Z 100084d0 f i Dlg_StLA.obj
 0001:000074f0       ?FinishObject@CDrObject@@UAEXH@Z 100084f0 f i Dlg_StLA.obj
 0001:00007510       ?FinishObject@CDrObject@@UAEXXZ 10008510 f i Dlg_StLA.obj
 0001:00007530       ?GetMaxCorners@CDrObject@@UAEHXZ 10008530 f i Dlg_StLA.obj
 0001:00007550       ?GetRawCoords@CDrObject@@UAEXPAJPAHH@Z 10008550 f i Dlg_StLA.obj
 0001:00007570       ?SetProjectedCoords@CDrObject@@UAEXUtagPOINT@@H@Z 10008570 f i Dlg_StLA.obj
 0001:00007590       ?RearrangeProjectedCoords@CDrObject@@UAEXXZ 10008590 f i Dlg_StLA.obj
 0001:000075b0       ?IsObjectHit@CDrObject@@UAEHNUWORLD@@@Z 100085b0 f i Dlg_StLA.obj
 0001:000075d0       ?IsObjectHit@CDrObject@@UAEHHUtagPOINT@@H@Z 100085d0 f i Dlg_StLA.obj
 0001:000075f0       ?IsObjectHit@CDrObject@@UAEHHUtagPOINT@@@Z 100085f0 f i Dlg_StLA.obj
 0001:00007610       ?IsObjectHit@CDrObject@@UAEHPAVCClientDC@@HUtagPOINT@@PAVCRect@@H@Z 10008610 f i Dlg_StLA.obj
 0001:00007630       ?IsKeyMatch@CDrObject@@UAEHPAV1@VCString@@I@Z 10008630 f i Dlg_StLA.obj
 0001:00007660       ?IsKeyMatch@CDrObject@@UAEHVCString@@I@Z 10008660 f i Dlg_StLA.obj
 0001:00007690       ?IsControlShapeNeeded@CDrObject@@UAEHXZ 10008690 f i Dlg_StLA.obj
 0001:000076b0       ?SetControlShapeNeed@CDrObject@@UAEXH@Z 100086b0 f i Dlg_StLA.obj
 0001:000076d0       ?IsNormalNeeded@CDrObject@@UAEHXZ 100086d0 f i Dlg_StLA.obj
 0001:000076f0       ?SetNormalNeed@CDrObject@@UAEXH@Z 100086f0 f i Dlg_StLA.obj
 0001:00007710       ?IsCulled@CDrObject@@UAEHXZ 10008710 f i Dlg_StLA.obj
 0001:00007730       ?SetCulled@CDrObject@@UAEXH@Z 10008730 f i Dlg_StLA.obj
 0001:00007750       ?IsSkewed@CDrObject@@UAEHXZ 10008750 f i Dlg_StLA.obj
 0001:00007770       ?SetSkewed@CDrObject@@UAEXH@Z 10008770 f i Dlg_StLA.obj
 0001:00007790       ?IsLinSpr@CDrObject@@UAEHXZ 10008790 f i Dlg_StLA.obj
 0001:000077b0       ?SetLinSpr@CDrObject@@UAEXH@Z 100087b0 f i Dlg_StLA.obj
 0001:000077d0       ?IsLinSnu@CDrObject@@UAEHXZ 100087d0 f i Dlg_StLA.obj
 0001:000077f0       ?SetLinSnu@CDrObject@@UAEXH@Z 100087f0 f i Dlg_StLA.obj
 0001:00007810       ?CullWorld@CDrObject@@UAEHUWORLD@@@Z 10008810 f i Dlg_StLA.obj
 0001:00007830       ?CullScreen@CDrObject@@UAEHPAUMATRIX@@@Z 10008830 f i Dlg_StLA.obj
 0001:00007850       ?Calc_CentroidWorld@CDrObject@@UAEXXZ 10008850 f i Dlg_StLA.obj
 0001:00007870       ?Calc_CentroidEye@CDrObject@@UAEXXZ 10008870 f i Dlg_StLA.obj
 0001:00007890       ?Calc_CentroidScreen3D@CDrObject@@UAEXNN@Z 10008890 f i Dlg_StLA.obj
 0001:000078b0       ?Calc_NormalWorld@CDrObject@@UAEXXZ 100088b0 f i Dlg_StLA.obj
 0001:000078d0       ?TransformNormalToEye@CDrObject@@UAEXPAUMATRIX@@@Z 100088d0 f i Dlg_StLA.obj
 0001:000078f0       ?ProjectNormalToScreen3D@CDrObject@@UAEXPAUMATRIX@@NN@Z 100088f0 f i Dlg_StLA.obj
 0001:00007910       ?GetNormalWorld@CDrObject@@UAEPAUWORLD@@XZ 10008910 f i Dlg_StLA.obj
 0001:00007930       ?SetNormalWorld@CDrObject@@UAEXUWORLD@@@Z 10008930 f i Dlg_StLA.obj
 0001:00007950       ?GetNormalEye@CDrObject@@UAEPAUWORLD@@XZ 10008950 f i Dlg_StLA.obj
 0001:00007970       ?SetNormalEye@CDrObject@@UAEXUWORLD@@@Z 10008970 f i Dlg_StLA.obj
 0001:00007990       ?GetNormalScreen3D@CDrObject@@UAEPAUWORLD@@XZ 10008990 f i Dlg_StLA.obj
 0001:000079b0       ?SetNormalScreen3D@CDrObject@@UAEXUWORLD@@@Z 100089b0 f i Dlg_StLA.obj
 0001:000079d0       ?GetNormalScreen2D@CDrObject@@UAEPAUtagPOINT@@XZ 100089d0 f i Dlg_StLA.obj
 0001:000079f0       ?SetNormalScreen2D@CDrObject@@UAEXUtagPOINT@@@Z 100089f0 f i Dlg_StLA.obj
 0001:00007a10       ?GetObjectList@CDrObject@@UAEPAVCDListMgr@@XZ 10008a10 f i Dlg_StLA.obj
 0001:00007a30       ?GetBoundingRect@CDrObject@@QAE?AVCRect@@XZ 10008a30 f i Dlg_StLA.obj
 0001:00007a80       ?GetRInfo@CDrObject@@QAEPAURENDINFO@@XZ 10008a80 f i Dlg_StLA.obj
 0001:00007aa0       ?IsParallel@CDrObject@@QAEHXZ 10008aa0 f i Dlg_StLA.obj
 0001:00007ad0       ?GetnView@CDrObject@@QAEHXZ 10008ad0 f i Dlg_StLA.obj
 0001:00007b00       ?GetdzMin@CDrObject@@QAENXZ 10008b00 f i Dlg_StLA.obj
 0001:00007b30       ?GetdScale_U@CDrObject@@QAENXZ 10008b30 f i Dlg_StLA.obj
 0001:00007b60       ?GetdScale_V@CDrObject@@QAENXZ 10008b60 f i Dlg_StLA.obj
 0001:00007b90       ?GetpViewM@CDrObject@@QAEPAUMATRIX@@XZ 10008b90 f i Dlg_StLA.obj
 0001:00007bc0       ?Getpvv3DM@CDrObject@@QAEPAUMATRIX@@XZ 10008bc0 f i Dlg_StLA.obj
 0001:00007bf0       ?GetpComposedM@CDrObject@@QAEPAUMATRIX@@XZ 10008bf0 f i Dlg_StLA.obj
 0001:00007c20       ?SetParallel@CDrObject@@QAEXH@Z 10008c20 f i Dlg_StLA.obj
 0001:00007c50       ?SetnView@CDrObject@@QAEXH@Z 10008c50 f i Dlg_StLA.obj
 0001:00007c80       ?SetdzMin@CDrObject@@QAEXN@Z 10008c80 f i Dlg_StLA.obj
 0001:00007cc0       ?SetdScale_U@CDrObject@@QAEXN@Z 10008cc0 f i Dlg_StLA.obj
 0001:00007d00       ?SetdScale_V@CDrObject@@QAEXN@Z 10008d00 f i Dlg_StLA.obj
 0001:00007d40       ?SetpViewM@CDrObject@@QAEXPAUMATRIX@@@Z 10008d40 f i Dlg_StLA.obj
 0001:00007d80       ?Setpvv3DM@CDrObject@@QAEXPAUMATRIX@@@Z 10008d80 f i Dlg_StLA.obj
 0001:00007dc0       ?SetpComposedM@CDrObject@@QAEXPAUMATRIX@@@Z 10008dc0 f i Dlg_StLA.obj
 0001:00007e00       ?GetLevelType@CDrObject@@QAEHXZ 10008e00 f i Dlg_StLA.obj
 0001:00007e30       ?SetLevelType@CDrObject@@QAEXH@Z 10008e30 f i Dlg_StLA.obj
 0001:00007e60       ?GetObjectID@CDrObject@@QAE?AVCString@@XZ 10008e60 f i Dlg_StLA.obj
 0001:00007eb0       ?SetObjectID@CDrObject@@QAEXVCString@@@Z 10008eb0 f i Dlg_StLA.obj
 0001:00007f30       ?GetObjectNo@CDrObject@@QAEJXZ 10008f30 f i Dlg_StLA.obj
 0001:00007f60       ?SetObjectNo@CDrObject@@QAEXJ@Z 10008f60 f i Dlg_StLA.obj
 0001:00007f90       ?GetObjectType@CDrObject@@QAEHXZ 10008f90 f i Dlg_StLA.obj
 0001:00007fc0       ?SetObjectType@CDrObject@@QAEXH@Z 10008fc0 f i Dlg_StLA.obj
 0001:00007ff0       ?GetElemType@CDrObject@@QAEHXZ 10008ff0 f i Dlg_StLA.obj
 0001:00008020       ?SetElemType@CDrObject@@QAEXH@Z 10009020 f i Dlg_StLA.obj
 0001:00008050       ?GetPenInfo@CDrObject@@QAEXAAIAAK0@Z 10009050 f i Dlg_StLA.obj
 0001:000080a0       ?SetPenInfo@CDrObject@@QAEXIKI@Z 100090a0 f i Dlg_StLA.obj
 0001:000080f0       ?GetPenInfoHi@CDrObject@@QAEXAAIAAK0@Z 100090f0 f i Dlg_StLA.obj
 0001:00008140       ?SetPenInfoHi@CDrObject@@QAEXIKI@Z 10009140 f i Dlg_StLA.obj
 0001:00008190       ?GetLayer@CDrObject@@QAEIXZ 10009190 f i Dlg_StLA.obj
 0001:000081c0       ?SetLayer@CDrObject@@QAEXI@Z 100091c0 f i Dlg_StLA.obj
 0001:000081f0       ?IsClipped@CDrObject@@QAEHXZ 100091f0 f i Dlg_StLA.obj
 0001:00008220       ?SetClipped@CDrObject@@QAEXH@Z 10009220 f i Dlg_StLA.obj
 0001:00008250       ?IsVirtual@CDrObject@@QAEHXZ 10009250 f i Dlg_StLA.obj
 0001:00008270       ?SetVirtual@CDrObject@@QAEXH@Z 10009270 f i Dlg_StLA.obj
 0001:000082a0       ?IsShow@CDrObject@@QAEHXZ  100092a0 f i Dlg_StLA.obj
 0001:000082d0       ?SetShow@CDrObject@@QAEXH@Z 100092d0 f i Dlg_StLA.obj
 0001:00008300       ?GetParentID@CDrObject@@QAEAAVCString@@XZ 10009300 f i Dlg_StLA.obj
 0001:00008320       ?SetParentID@CDrObject@@QAEXAAVCString@@@Z 10009320 f i Dlg_StLA.obj
 0001:00008350       ?GetParentType@CDrObject@@QAEIXZ 10009350 f i Dlg_StLA.obj
 0001:00008370       ?SetParentType@CDrObject@@QAEXI@Z 10009370 f i Dlg_StLA.obj
 0001:000083a0       ?IsInstanced@CDrObject@@QAEHXZ 100093a0 f i Dlg_StLA.obj
 0001:000083c0       ?SetInstanced@CDrObject@@QAEXH@Z 100093c0 f i Dlg_StLA.obj
 0001:000083f0       ?GetMatObj@CDrObject@@QAEPAVCMatObj@@XZ 100093f0 f i Dlg_StLA.obj
 0001:00008410       ?SetMatObj@CDrObject@@QAEXPAVCMatObj@@@Z 10009410 f i Dlg_StLA.obj
 0001:00008440       ?GetSpeLList@CDrObject@@QAEPAVCDListMgr@@XZ 10009440 f i Dlg_StLA.obj
 0001:00008470       ?GetDynLList@CDrObject@@QAEPAVCDListMgr@@XZ 10009470 f i Dlg_StLA.obj
 0001:000084a0       ?GetStaLList@CDrObject@@QAEPAVCDListMgr@@XZ 100094a0 f i Dlg_StLA.obj
 0001:000084d0       ?GetSuppList@CDrObject@@QAEPAVCDListMgr@@XZ 100094d0 f i Dlg_StLA.obj
 0001:00008500       ?GetElemList@CDrObject@@QAEPAVCDListMgr@@XZ 10009500 f i Dlg_StLA.obj
 0001:00008530       ?GetCurveList@CDrObject@@QAEPAVCDListMgr@@XZ 10009530 f i Dlg_StLA.obj
 0001:00008560       ?GetCProfList@CDrObject@@QAEPAVCDListMgr@@XZ 10009560 f i Dlg_StLA.obj
 0001:00008590       ?GetPatchList@CDrObject@@QAEPAVCDListMgr@@XZ 10009590 f i Dlg_StLA.obj
 0001:000085c0       ?GetSolidList@CDrObject@@QAEPAVCDListMgr@@XZ 100095c0 f i Dlg_StLA.obj
 0001:000085f0       ?GetObj3DList@CDrObject@@QAEPAVCDListMgr@@XZ 100095f0 f i Dlg_StLA.obj
 0001:00008620       ?GetCNodeList@CDrObject@@QAEPAVCDListMgr@@XZ 10009620 f i Dlg_StLA.obj
 0001:00008650       ?GetINodeList@CDrObject@@QAEPAVCDListMgr@@XZ 10009650 f i Dlg_StLA.obj
 0001:00008680       ?GetNodeList@CDrObject@@QAEPAVCDListMgr@@XZ 10009680 f i Dlg_StLA.obj
 0001:000086b0       ?GetLabelList@CDrObject@@QAEPAVCDListMgr@@XZ 100096b0 f i Dlg_StLA.obj
 0001:000086e0       ?GetFE0DList@CDrObject@@QAEPAVCDListMgr@@XZ 100096e0 f i Dlg_StLA.obj
 0001:00008710       ?GetFE1DList@CDrObject@@QAEPAVCDListMgr@@XZ 10009710 f i Dlg_StLA.obj
 0001:00008740       ?GetFE2DList@CDrObject@@QAEPAVCDListMgr@@XZ 10009740 f i Dlg_StLA.obj
 0001:00008770       ?GetFE3DList@CDrObject@@QAEPAVCDListMgr@@XZ 10009770 f i Dlg_StLA.obj
 0001:000087a0       ?GetMs0List@CDrObject@@QAEPAVCDListMgr@@XZ 100097a0 f i Dlg_StLA.obj
 0001:000087d0       ?GetMs1List@CDrObject@@QAEPAVCDListMgr@@XZ 100097d0 f i Dlg_StLA.obj
 0001:00008800       ?GetMs2List@CDrObject@@QAEPAVCDListMgr@@XZ 10009800 f i Dlg_StLA.obj
 0001:00008830       ?GetMs3List@CDrObject@@QAEPAVCDListMgr@@XZ 10009830 f i Dlg_StLA.obj
 0001:00008860       ?GetMbj3DList@CDrObject@@QAEPAVCDListMgr@@XZ 10009860 f i Dlg_StLA.obj
 0001:00008890       ?GetM2DProfList@CDrObject@@QAEPAVCDListMgr@@XZ 10009890 f i Dlg_StLA.obj
 0001:000088c0       ?GetM3DProfList@CDrObject@@QAEPAVCDListMgr@@XZ 100098c0 f i Dlg_StLA.obj
 0001:000088f0       ?GetMbjProfList@CDrObject@@QAEPAVCDListMgr@@XZ 100098f0 f i Dlg_StLA.obj
 0001:00008920       ?GetScreen2DCorner@CDrObject@@UAE?AUtagPOINT@@H@Z 10009920 f i Dlg_StLA.obj
 0001:00008970       ?SetScreen2DCorner@CDrObject@@UAEXUtagPOINT@@H@Z 10009970 f i Dlg_StLA.obj
 0001:000089b0       ?GetSpawnType@CDrObject@@QAE?AW4SPAWNTYPE@@XZ 100099b0 f i Dlg_StLA.obj
 0001:000089d0       ?SetSpawnType@CDrObject@@QAEXW4SPAWNTYPE@@@Z 100099d0 f i Dlg_StLA.obj
 0001:00008a00       ?GetCategory@CDrObject@@QAE?AW4CATEGORY@@XZ 10009a00 f i Dlg_StLA.obj
 0001:00008a20       ?SetCategory@CDrObject@@QAEXW4CATEGORY@@@Z 10009a20 f i Dlg_StLA.obj
 0001:00008a50       ?GetSubCat@CDrObject@@QAE?AW4SUBCAT@@XZ 10009a50 f i Dlg_StLA.obj
 0001:00008a70       ?SetSubCat@CDrObject@@QAEXW4SUBCAT@@@Z 10009a70 f i Dlg_StLA.obj
 0001:00008aa0       ?GetElemDimLim@CDrObject@@QAE?AW4ELEMDIMLIM@@XZ 10009aa0 f i Dlg_StLA.obj
 0001:00008ac0       ?SetElemDimLim@CDrObject@@QAEXW4ELEMDIMLIM@@@Z 10009ac0 f i Dlg_StLA.obj
 0001:00008af0       ?IsDirty@CDrObject@@QAEHXZ 10009af0 f i Dlg_StLA.obj
 0001:00008b20       ?SetDirty@CDrObject@@QAEXH@Z 10009b20 f i Dlg_StLA.obj
 0001:00008b50       ?IsMoved@CDrObject@@QAEHXZ 10009b50 f i Dlg_StLA.obj
 0001:00008b80       ?SetMoved@CDrObject@@QAEXH@Z 10009b80 f i Dlg_StLA.obj
 0001:00008bb0       ?IsEdited@CDrObject@@QAEHXZ 10009bb0 f i Dlg_StLA.obj
 0001:00008be0       ?SetEdited@CDrObject@@QAEXH@Z 10009be0 f i Dlg_StLA.obj
 0001:00008c10       ?IsPosted@CDrObject@@QAEHXZ 10009c10 f i Dlg_StLA.obj
 0001:00008c40       ?SetPosted@CDrObject@@QAEXH@Z 10009c40 f i Dlg_StLA.obj
 0001:00008c70       ?IsDeleted@CDrObject@@QAEHXZ 10009c70 f i Dlg_StLA.obj
 0001:00008ca0       ?SetDeleted@CDrObject@@QAEXH@Z 10009ca0 f i Dlg_StLA.obj
 0001:00008cd0       ?IsToBeMoved@CDrObject@@QAEHXZ 10009cd0 f i Dlg_StLA.obj
 0001:00008d00       ?SetToBeMoved@CDrObject@@QAEXH@Z 10009d00 f i Dlg_StLA.obj
 0001:00008d20       ?IsToBeEdited@CDrObject@@QAEHXZ 10009d20 f i Dlg_StLA.obj
 0001:00008d50       ?SetToBeEdited@CDrObject@@QAEXH@Z 10009d50 f i Dlg_StLA.obj
 0001:00008d70       ?IsToBePosted@CDrObject@@QAEHXZ 10009d70 f i Dlg_StLA.obj
 0001:00008da0       ?SetToBePosted@CDrObject@@QAEXH@Z 10009da0 f i Dlg_StLA.obj
 0001:00008dc0       ?IsToBeUnPosted@CDrObject@@QAEHXZ 10009dc0 f i Dlg_StLA.obj
 0001:00008df0       ?SetToBeUnPosted@CDrObject@@QAEXH@Z 10009df0 f i Dlg_StLA.obj
 0001:00008e10       ?IsToBeDeleted@CDrObject@@QAEHXZ 10009e10 f i Dlg_StLA.obj
 0001:00008e40       ?SetToBeDeleted@CDrObject@@QAEXH@Z 10009e40 f i Dlg_StLA.obj
 0001:00008e60       ?IsFormatted@CDrObject@@QAEHXZ 10009e60 f i Dlg_StLA.obj
 0001:00008e80       ?SetFormatted@CDrObject@@QAEXH@Z 10009e80 f i Dlg_StLA.obj
 0001:00008eb0       ?GetObjectType@CBooleans@@UAEHXZ 10009eb0 f i Dlg_StLA.obj
 0001:00008ee0       ?SetObjectType@CBooleans@@UAEXH@Z 10009ee0 f i Dlg_StLA.obj
 0001:00008f10       ?GetElemType@CBooleans@@UAEHXZ 10009f10 f i Dlg_StLA.obj
 0001:00008f40       ?SetElemType@CBooleans@@UAEXH@Z 10009f40 f i Dlg_StLA.obj
 0001:00008f70       ?GetObjectNo@CBooleans@@UAEJXZ 10009f70 f i Dlg_StLA.obj
 0001:00008fa0       ?SetObjectNo@CBooleans@@UAEXJ@Z 10009fa0 f i Dlg_StLA.obj
 0001:00008fd0       ?IsSoundOn@CBooleans@@UAEHXZ 10009fd0 f i Dlg_StLA.obj
 0001:00009000       ?ToggleSoundOn@CBooleans@@UAEXXZ 1000a000 f i Dlg_StLA.obj
 0001:00009040       ?IsCoonSocksOff@CBooleans@@UAEHXZ 1000a040 f i Dlg_StLA.obj
 0001:00009070       ?ToggleCoonSocksOff@CBooleans@@UAEXXZ 1000a070 f i Dlg_StLA.obj
 0001:000090b0       ?IsSnapOn@CBooleans@@UAEHXZ 1000a0b0 f i Dlg_StLA.obj
 0001:000090e0       ?ToggleSnapOn@CBooleans@@UAEXXZ 1000a0e0 f i Dlg_StLA.obj
 0001:00009120       ?IsHorSnapOn@CBooleans@@UAEHXZ 1000a120 f i Dlg_StLA.obj
 0001:00009150       ?ToggleHorSnapOn@CBooleans@@UAEXXZ 1000a150 f i Dlg_StLA.obj
 0001:00009190       ?IsVerSnapOn@CBooleans@@UAEHXZ 1000a190 f i Dlg_StLA.obj
 0001:000091c0       ?ToggleVerSnapOn@CBooleans@@UAEXXZ 1000a1c0 f i Dlg_StLA.obj
 0001:00009200       ?IsSpawnOn@CBooleans@@UAEHXZ 1000a200 f i Dlg_StLA.obj
 0001:00009230       ?ToggleSpawnOn@CBooleans@@UAEXXZ 1000a230 f i Dlg_StLA.obj
 0001:00009270       ?IsBLineOn@CBooleans@@UAEHXZ 1000a270 f i Dlg_StLA.obj
 0001:000092a0       ?ToggleBLineOn@CBooleans@@UAEXXZ 1000a2a0 f i Dlg_StLA.obj
 0001:000092e0       ?IsSingleSegOn@CBooleans@@UAEHXZ 1000a2e0 f i Dlg_StLA.obj
 0001:00009310       ?ToggleSingleSegOn@CBooleans@@UAEXXZ 1000a310 f i Dlg_StLA.obj
 0001:00009350       ?IsAutoAcceptOn@CBooleans@@UAEHXZ 1000a350 f i Dlg_StLA.obj
 0001:00009380       ?ToggleAutoAcceptOn@CBooleans@@UAEXXZ 1000a380 f i Dlg_StLA.obj
 0001:000093c0       ?IsDialogOn@CBooleans@@UAEHXZ 1000a3c0 f i Dlg_StLA.obj
 0001:000093f0       ?ToggleDialogOn@CBooleans@@UAEXXZ 1000a3f0 f i Dlg_StLA.obj
 0001:00009430       ?IsElementOn@CBooleans@@UAEHXZ 1000a430 f i Dlg_StLA.obj
 0001:00009460       ?ToggleElementOn@CBooleans@@UAEXXZ 1000a460 f i Dlg_StLA.obj
 0001:000094a0       ?IsDragOn@CBooleans@@UAEHXZ 1000a4a0 f i Dlg_StLA.obj
 0001:000094d0       ?ToggleDragOn@CBooleans@@UAEXXZ 1000a4d0 f i Dlg_StLA.obj
 0001:00009510       ?IsRefreshOn@CBooleans@@UAEHXZ 1000a510 f i Dlg_StLA.obj
 0001:00009540       ?ToggleRefreshOn@CBooleans@@UAEXXZ 1000a540 f i Dlg_StLA.obj
 0001:00009580       ?IsRubberBandOn@CBooleans@@UAEHXZ 1000a580 f i Dlg_StLA.obj
 0001:000095b0       ?ToggleRubberBandOn@CBooleans@@UAEXXZ 1000a5b0 f i Dlg_StLA.obj
 0001:000095f0       ?IsStViewActive@CBooleans@@UAEHXZ 1000a5f0 f i Dlg_StLA.obj
 0001:00009620       ?ToggleStViewActive@CBooleans@@UAEXXZ 1000a620 f i Dlg_StLA.obj
 0001:00009660       ?IsSpViewActive@CBooleans@@UAEHXZ 1000a660 f i Dlg_StLA.obj
 0001:00009690       ?ToggleSpViewActive@CBooleans@@UAEXXZ 1000a690 f i Dlg_StLA.obj
 0001:000096d0       ?IsHsViewActive@CBooleans@@UAEHXZ 1000a6d0 f i Dlg_StLA.obj
 0001:00009700       ?ToggleHsViewActive@CBooleans@@UAEXXZ 1000a700 f i Dlg_StLA.obj
 0001:00009740       ?Is12ViewActive@CBooleans@@UAEHXZ 1000a740 f i Dlg_StLA.obj
 0001:00009770       ?Toggle12ViewActive@CBooleans@@UAEXXZ 1000a770 f i Dlg_StLA.obj
 0001:000097b0       ?Is23ViewActive@CBooleans@@UAEHXZ 1000a7b0 f i Dlg_StLA.obj
 0001:000097e0       ?Toggle23ViewActive@CBooleans@@UAEXXZ 1000a7e0 f i Dlg_StLA.obj
 0001:00009820       ?Is31ViewActive@CBooleans@@UAEHXZ 1000a820 f i Dlg_StLA.obj
 0001:00009850       ?Toggle31ViewActive@CBooleans@@UAEXXZ 1000a850 f i Dlg_StLA.obj
 0001:00009890       ?IsIsoViewActive@CBooleans@@UAEHXZ 1000a890 f i Dlg_StLA.obj
 0001:000098c0       ?ToggleIsoViewActive@CBooleans@@UAEXXZ 1000a8c0 f i Dlg_StLA.obj
 0001:00009900       ?IsDataViewActive@CBooleans@@UAEHXZ 1000a900 f i Dlg_StLA.obj
 0001:00009930       ?ToggleDataViewActive@CBooleans@@UAEXXZ 1000a930 f i Dlg_StLA.obj
 0001:00009970       ?IsMeshDataViewActive@CBooleans@@UAEHXZ 1000a970 f i Dlg_StLA.obj
 0001:000099a0       ?ToggleMeshDataViewActive@CBooleans@@UAEXXZ 1000a9a0 f i Dlg_StLA.obj
 0001:000099e0       ?IsDeckViewActive@CBooleans@@UAEHXZ 1000a9e0 f i Dlg_StLA.obj
 0001:00009a10       ?ToggleDeckViewActive@CBooleans@@UAEXXZ 1000aa10 f i Dlg_StLA.obj
 0001:00009a50       ?IsFormDataViewActive@CBooleans@@UAEHXZ 1000aa50 f i Dlg_StLA.obj
 0001:00009a80       ?ToggleFormDataViewActive@CBooleans@@UAEXXZ 1000aa80 f i Dlg_StLA.obj
 0001:00009ac0       ?IsInputMode@CBooleans@@UAEHXZ 1000aac0 f i Dlg_StLA.obj
 0001:00009af0       ?SetInputMode@CBooleans@@UAEXH@Z 1000aaf0 f i Dlg_StLA.obj
 0001:00009b20       ?IsOutputMode@CBooleans@@UAEHXZ 1000ab20 f i Dlg_StLA.obj
 0001:00009b50       ?SetOutputMode@CBooleans@@UAEXH@Z 1000ab50 f i Dlg_StLA.obj
 0001:00009b80       ??1CBooleans@@UAE@XZ       1000ab80 f i Dlg_StLA.obj
 0001:00009bb0       ??_GCBooleans@@UAEPAXI@Z   1000abb0 f i Dlg_StLA.obj
 0001:00009bf0       ??_ECBooleans@@UAEPAXI@Z   1000abf0 f i Dlg_StLA.obj
 0001:00009c90       ?GetObjectType@CDataWindow@@UAEHXZ 1000ac90 f i Dlg_StLA.obj
 0001:00009cc0       ?SetObjectType@CDataWindow@@UAEXH@Z 1000acc0 f i Dlg_StLA.obj
 0001:00009cf0       ?GetElemType@CDataWindow@@UAEHXZ 1000acf0 f i Dlg_StLA.obj
 0001:00009d20       ?SetElemType@CDataWindow@@UAEXH@Z 1000ad20 f i Dlg_StLA.obj
 0001:00009d50       ?GetObjectNo@CDataWindow@@UAEJXZ 1000ad50 f i Dlg_StLA.obj
 0001:00009d80       ?SetObjectNo@CDataWindow@@UAEXJ@Z 1000ad80 f i Dlg_StLA.obj
 0001:00009db0       ?GetWinOrgWIC@CDataWindow@@UAE?AULPOINT3@@XZ 1000adb0 f i Dlg_StLA.obj
 0001:00009df0       ?GetWinMinWIC@CDataWindow@@UAE?AULPOINT3@@XZ 1000adf0 f i Dlg_StLA.obj
 0001:00009e30       ?GetWinMaxWIC@CDataWindow@@UAE?AULPOINT3@@XZ 1000ae30 f i Dlg_StLA.obj
 0001:00009e70       ?GetWinExtWIC@CDataWindow@@UAE?AULPOINT3@@XZ 1000ae70 f i Dlg_StLA.obj
 0001:00009eb0       ??1CDataWindow@@UAE@XZ     1000aeb0 f i Dlg_StLA.obj
 0001:00009ee0       ??_GCDataWindow@@UAEPAXI@Z 1000aee0 f i Dlg_StLA.obj
 0001:00009f20       ??_ECDataWindow@@UAEPAXI@Z 1000af20 f i Dlg_StLA.obj
 0001:00009fc0       ?GetObjectType@CDrFont@@UAEHXZ 1000afc0 f i Dlg_StLA.obj
 0001:00009ff0       ?SetObjectType@CDrFont@@UAEXH@Z 1000aff0 f i Dlg_StLA.obj
 0001:0000a020       ?GetElemType@CDrFont@@UAEHXZ 1000b020 f i Dlg_StLA.obj
 0001:0000a050       ?SetElemType@CDrFont@@UAEXH@Z 1000b050 f i Dlg_StLA.obj
 0001:0000a080       ?GetObjectNo@CDrFont@@UAEJXZ 1000b080 f i Dlg_StLA.obj
 0001:0000a0b0       ?SetObjectNo@CDrFont@@UAEXJ@Z 1000b0b0 f i Dlg_StLA.obj
 0001:0000a0e0       ?IsFontSelected@CDrFont@@UAEHXZ 1000b0e0 f i Dlg_StLA.obj
 0001:0000a110       ?GetTextColor@CDrFont@@UAEKXZ 1000b110 f i Dlg_StLA.obj
 0001:0000a140       ?SetTextColor@CDrFont@@UAEXK@Z 1000b140 f i Dlg_StLA.obj
 0001:0000a170       ?GetCurrentLogFont@CDrFont@@UAE?AUtagLOGFONTA@@XZ 1000b170 f i Dlg_StLA.obj
 0001:0000a1b0       ?SetCurrentLogFont@CDrFont@@UAEXUtagLOGFONTA@@@Z 1000b1b0 f i Dlg_StLA.obj
 0001:0000a1f0       ??1CDrFont@@UAE@XZ         1000b1f0 f i Dlg_StLA.obj
 0001:0000a220       ??_GCDrFont@@UAEPAXI@Z     1000b220 f i Dlg_StLA.obj
 0001:0000a260       ??_ECDrFont@@UAEPAXI@Z     1000b260 f i Dlg_StLA.obj
 0001:0000a300       ?GetObjectType@CDrPen@@UAEHXZ 1000b300 f i Dlg_StLA.obj
 0001:0000a330       ?SetObjectType@CDrPen@@UAEXH@Z 1000b330 f i Dlg_StLA.obj
 0001:0000a360       ?GetElemType@CDrPen@@UAEHXZ 1000b360 f i Dlg_StLA.obj
 0001:0000a390       ?SetElemType@CDrPen@@UAEXH@Z 1000b390 f i Dlg_StLA.obj
 0001:0000a3c0       ?GetObjectNo@CDrPen@@UAEJXZ 1000b3c0 f i Dlg_StLA.obj
 0001:0000a3f0       ?SetObjectNo@CDrPen@@UAEXJ@Z 1000b3f0 f i Dlg_StLA.obj
 0001:0000a420       ?GetCurrentPen@CDrPen@@UAEPAVCPen@@XZ 1000b420 f i Dlg_StLA.obj
 0001:0000a450       ?GetStyle@CDrPen@@UAEHXZ   1000b450 f i Dlg_StLA.obj
 0001:0000a480       ?SetStyle@CDrPen@@UAEXH@Z  1000b480 f i Dlg_StLA.obj
 0001:0000a4b0       ?GetStyleOld@CDrPen@@UAEHXZ 1000b4b0 f i Dlg_StLA.obj
 0001:0000a4e0       ?SetStyleOld@CDrPen@@UAEXH@Z 1000b4e0 f i Dlg_StLA.obj
 0001:0000a510       ?GetStyleDefault@CDrPen@@UAEHXZ 1000b510 f i Dlg_StLA.obj
 0001:0000a540       ?SetStyleDefault@CDrPen@@UAEXH@Z 1000b540 f i Dlg_StLA.obj
 0001:0000a570       ?GetWidth@CDrPen@@UAEHXZ   1000b570 f i Dlg_StLA.obj
 0001:0000a5a0       ?SetWidth@CDrPen@@UAEXH@Z  1000b5a0 f i Dlg_StLA.obj
 0001:0000a5d0       ?GetWidthOld@CDrPen@@UAEHXZ 1000b5d0 f i Dlg_StLA.obj
 0001:0000a600       ?SetWidthOld@CDrPen@@UAEXH@Z 1000b600 f i Dlg_StLA.obj
 0001:0000a630       ?GetWidthDefault@CDrPen@@UAEHXZ 1000b630 f i Dlg_StLA.obj
 0001:0000a660       ?SetWidthDefault@CDrPen@@UAEXH@Z 1000b660 f i Dlg_StLA.obj
 0001:0000a690       ?GetColor@CDrPen@@UAEKXZ   1000b690 f i Dlg_StLA.obj
 0001:0000a6c0       ?SetColor@CDrPen@@UAEXK@Z  1000b6c0 f i Dlg_StLA.obj
 0001:0000a6f0       ?GetColorOld@CDrPen@@UAEKXZ 1000b6f0 f i Dlg_StLA.obj
 0001:0000a720       ?SetColorOld@CDrPen@@UAEXK@Z 1000b720 f i Dlg_StLA.obj
 0001:0000a750       ?GetColorDefault@CDrPen@@UAEKXZ 1000b750 f i Dlg_StLA.obj
 0001:0000a780       ?SetColorDefault@CDrPen@@UAEXK@Z 1000b780 f i Dlg_StLA.obj
 0001:0000a7b0       ?GetIndex@CDrPen@@UAEIXZ   1000b7b0 f i Dlg_StLA.obj
 0001:0000a7e0       ?SetIndex@CDrPen@@UAEXI@Z  1000b7e0 f i Dlg_StLA.obj
 0001:0000a810       ?GetIndexOld@CDrPen@@UAEIXZ 1000b810 f i Dlg_StLA.obj
 0001:0000a840       ?SetIndexOld@CDrPen@@UAEXI@Z 1000b840 f i Dlg_StLA.obj
 0001:0000a870       ?GetIndexDefault@CDrPen@@UAEIXZ 1000b870 f i Dlg_StLA.obj
 0001:0000a8a0       ?SetIndexDefault@CDrPen@@UAEXI@Z 1000b8a0 f i Dlg_StLA.obj
 0001:0000a8d0       ?GetStyleNameCount@CDrPen@@UAEIXZ 1000b8d0 f i Dlg_StLA.obj
 0001:0000a900       ?SetStyleNameCount@CDrPen@@UAEXI@Z 1000b900 f i Dlg_StLA.obj
 0001:0000a930       ?GetStyleName@CDrPen@@UAE?AVCString@@I@Z 1000b930 f i Dlg_StLA.obj
 0001:0000a980       ?GetStyleConstant@CDrPen@@UAEII@Z 1000b980 f i Dlg_StLA.obj
 0001:0000a9b0       ??1CDrPen@@UAE@XZ          1000b9b0 f i Dlg_StLA.obj
 0001:0000aa50       ??_GCDrPen@@UAEPAXI@Z      1000ba50 f i Dlg_StLA.obj
 0001:0000aa90       ??_ECDrPen@@UAEPAXI@Z      1000ba90 f i Dlg_StLA.obj
 0001:0000ab30       ?GetObjectType@CHitNet@@UAEHXZ 1000bb30 f i Dlg_StLA.obj
 0001:0000ab60       ?SetObjectType@CHitNet@@UAEXH@Z 1000bb60 f i Dlg_StLA.obj
 0001:0000ab90       ?GetElemType@CHitNet@@UAEHXZ 1000bb90 f i Dlg_StLA.obj
 0001:0000abc0       ?SetElemType@CHitNet@@UAEXH@Z 1000bbc0 f i Dlg_StLA.obj
 0001:0000abf0       ?GetObjectNo@CHitNet@@UAEJXZ 1000bbf0 f i Dlg_StLA.obj
 0001:0000ac20       ?SetObjectNo@CHitNet@@UAEXJ@Z 1000bc20 f i Dlg_StLA.obj
 0001:0000ac50       ?GetSearchNet@CHitNet@@QAEHXZ 1000bc50 f i Dlg_StLA.obj
 0001:0000ac80       ?SetSearchNet@CHitNet@@QAEXH@Z 1000bc80 f i Dlg_StLA.obj
 0001:0000acb0       ?GetSearchNetOld@CHitNet@@QAEHXZ 1000bcb0 f i Dlg_StLA.obj
 0001:0000ace0       ?SetSearchNetOld@CHitNet@@QAEXH@Z 1000bce0 f i Dlg_StLA.obj
 0001:0000ad10       ?GetSearchNetDefault@CHitNet@@QAEHXZ 1000bd10 f i Dlg_StLA.obj
 0001:0000ad40       ?SetSearchNetDefault@CHitNet@@QAEXH@Z 1000bd40 f i Dlg_StLA.obj
 0001:0000ad70       ?GetSearchDet@CHitNet@@QAENXZ 1000bd70 f i Dlg_StLA.obj
 0001:0000ada0       ?SetSearchDet@CHitNet@@QAEXN@Z 1000bda0 f i Dlg_StLA.obj
 0001:0000ade0       ?GetSearchDetOld@CHitNet@@QAENXZ 1000bde0 f i Dlg_StLA.obj
 0001:0000ae10       ?SetSearchDetOld@CHitNet@@QAEXN@Z 1000be10 f i Dlg_StLA.obj
 0001:0000ae50       ?GetSearchDetDefault@CHitNet@@QAENXZ 1000be50 f i Dlg_StLA.obj
 0001:0000ae80       ?SetSearchDetDefault@CHitNet@@QAEXN@Z 1000be80 f i Dlg_StLA.obj
 0001:0000aec0       ?GetDblRatio@CHitNet@@QAENXZ 1000bec0 f i Dlg_StLA.obj
 0001:0000aef0       ?SetDblRatio@CHitNet@@QAEXN@Z 1000bef0 f i Dlg_StLA.obj
 0001:0000af30       ?GetDblRatioOld@CHitNet@@QAENXZ 1000bf30 f i Dlg_StLA.obj
 0001:0000af60       ?SetDblRatioOld@CHitNet@@QAEXN@Z 1000bf60 f i Dlg_StLA.obj
 0001:0000afa0       ?GetDblRatioDefault@CHitNet@@QAENXZ 1000bfa0 f i Dlg_StLA.obj
 0001:0000afd0       ?SetDblRatioDefault@CHitNet@@QAEXN@Z 1000bfd0 f i Dlg_StLA.obj
 0001:0000b010       ?GetCoLinear@CHitNet@@QAENXZ 1000c010 f i Dlg_StLA.obj
 0001:0000b040       ?SetCoLinear@CHitNet@@QAEXN@Z 1000c040 f i Dlg_StLA.obj
 0001:0000b080       ?GetCoLinearOld@CHitNet@@QAENXZ 1000c080 f i Dlg_StLA.obj
 0001:0000b0b0       ?SetCoLinearOld@CHitNet@@QAEXN@Z 1000c0b0 f i Dlg_StLA.obj
 0001:0000b0f0       ?GetCoLinearDefault@CHitNet@@QAENXZ 1000c0f0 f i Dlg_StLA.obj
 0001:0000b120       ?SetCoLinearDefault@CHitNet@@QAEXN@Z 1000c120 f i Dlg_StLA.obj
 0001:0000b160       ?GetCoPlanar@CHitNet@@QAENXZ 1000c160 f i Dlg_StLA.obj
 0001:0000b190       ?SetCoPlanar@CHitNet@@QAEXN@Z 1000c190 f i Dlg_StLA.obj
 0001:0000b1d0       ?GetCoPlanarOld@CHitNet@@QAENXZ 1000c1d0 f i Dlg_StLA.obj
 0001:0000b200       ?SetCoPlanarOld@CHitNet@@QAEXN@Z 1000c200 f i Dlg_StLA.obj
 0001:0000b240       ?GetCoPlanarDefault@CHitNet@@QAENXZ 1000c240 f i Dlg_StLA.obj
 0001:0000b270       ?SetCoPlanarDefault@CHitNet@@QAEXN@Z 1000c270 f i Dlg_StLA.obj
 0001:0000b2b0       ?GetMergeNode_X@CHitNet@@QAENXZ 1000c2b0 f i Dlg_StLA.obj
 0001:0000b2e0       ?SetMergeNode_X@CHitNet@@QAEXN@Z 1000c2e0 f i Dlg_StLA.obj
 0001:0000b320       ?GetMergeNode_XOld@CHitNet@@QAENXZ 1000c320 f i Dlg_StLA.obj
 0001:0000b350       ?SetMergeNode_XOld@CHitNet@@QAEXN@Z 1000c350 f i Dlg_StLA.obj
 0001:0000b390       ?GetMergeNode_XDefault@CHitNet@@QAENXZ 1000c390 f i Dlg_StLA.obj
 0001:0000b3c0       ?SetMergeNode_XDefault@CHitNet@@QAEXN@Z 1000c3c0 f i Dlg_StLA.obj
 0001:0000b400       ?GetMergeNode_Y@CHitNet@@QAENXZ 1000c400 f i Dlg_StLA.obj
 0001:0000b430       ?SetMergeNode_Y@CHitNet@@QAEXN@Z 1000c430 f i Dlg_StLA.obj
 0001:0000b470       ?GetMergeNode_YOld@CHitNet@@QAENXZ 1000c470 f i Dlg_StLA.obj
 0001:0000b4a0       ?SetMergeNode_YOld@CHitNet@@QAEXN@Z 1000c4a0 f i Dlg_StLA.obj
 0001:0000b4e0       ?GetMergeNode_YDefault@CHitNet@@QAENXZ 1000c4e0 f i Dlg_StLA.obj
 0001:0000b510       ?SetMergeNode_YDefault@CHitNet@@QAEXN@Z 1000c510 f i Dlg_StLA.obj
 0001:0000b550       ?GetMergeNode_Z@CHitNet@@QAENXZ 1000c550 f i Dlg_StLA.obj
 0001:0000b580       ?SetMergeNode_Z@CHitNet@@QAEXN@Z 1000c580 f i Dlg_StLA.obj
 0001:0000b5c0       ?GetMergeNode_ZOld@CHitNet@@QAENXZ 1000c5c0 f i Dlg_StLA.obj
 0001:0000b5f0       ?SetMergeNode_ZOld@CHitNet@@QAEXN@Z 1000c5f0 f i Dlg_StLA.obj
 0001:0000b630       ?GetMergeNode_ZDefault@CHitNet@@QAENXZ 1000c630 f i Dlg_StLA.obj
 0001:0000b660       ?SetMergeNode_ZDefault@CHitNet@@QAEXN@Z 1000c660 f i Dlg_StLA.obj
 0001:0000b6a0       ??1CHitNet@@UAE@XZ         1000c6a0 f i Dlg_StLA.obj
 0001:0000b6d0       ??_GCHitNet@@UAEPAXI@Z     1000c6d0 f i Dlg_StLA.obj
 0001:0000b710       ??_ECHitNet@@UAEPAXI@Z     1000c710 f i Dlg_StLA.obj
 0001:0000b7b0       ?GetObjectType@CLayer@@UAEHXZ 1000c7b0 f i Dlg_StLA.obj
 0001:0000b7e0       ?SetObjectType@CLayer@@UAEXH@Z 1000c7e0 f i Dlg_StLA.obj
 0001:0000b810       ?GetElemType@CLayer@@UAEHXZ 1000c810 f i Dlg_StLA.obj
 0001:0000b840       ?SetElemType@CLayer@@UAEXH@Z 1000c840 f i Dlg_StLA.obj
 0001:0000b870       ?GetObjectNo@CLayer@@UAEJXZ 1000c870 f i Dlg_StLA.obj
 0001:0000b8a0       ?SetObjectNo@CLayer@@UAEXJ@Z 1000c8a0 f i Dlg_StLA.obj
 0001:0000b8d0       ?GetCurrentLayer@CLayer@@UAEIXZ 1000c8d0 f i Dlg_StLA.obj
 0001:0000b900       ?SetCurrentLayer@CLayer@@UAEXI@Z 1000c900 f i Dlg_StLA.obj
 0001:0000b930       ?GetCurrentLayerOld@CLayer@@UAEIXZ 1000c930 f i Dlg_StLA.obj
 0001:0000b960       ?SetCurrentLayerOld@CLayer@@UAEXI@Z 1000c960 f i Dlg_StLA.obj
 0001:0000b990       ?GetCurrentLayerDefault@CLayer@@UAEIXZ 1000c990 f i Dlg_StLA.obj
 0001:0000b9c0       ?SetCurrentLayerDefault@CLayer@@UAEXI@Z 1000c9c0 f i Dlg_StLA.obj
 0001:0000b9f0       ??1CLayer@@UAE@XZ          1000c9f0 f i Dlg_StLA.obj
 0001:0000ba20       ??_GCLayer@@UAEPAXI@Z      1000ca20 f i Dlg_StLA.obj
 0001:0000ba60       ??_ECLayer@@UAEPAXI@Z      1000ca60 f i Dlg_StLA.obj
 0001:0000bb00       ?GetObjectType@CPatchMnu@@UAEHXZ 1000cb00 f i Dlg_StLA.obj
 0001:0000bb30       ?SetObjectType@CPatchMnu@@UAEXH@Z 1000cb30 f i Dlg_StLA.obj
 0001:0000bb60       ?GetElemType@CPatchMnu@@UAEHXZ 1000cb60 f i Dlg_StLA.obj
 0001:0000bb90       ?SetElemType@CPatchMnu@@UAEXH@Z 1000cb90 f i Dlg_StLA.obj
 0001:0000bbc0       ?GetObjectNo@CPatchMnu@@UAEJXZ 1000cbc0 f i Dlg_StLA.obj
 0001:0000bbf0       ?SetObjectNo@CPatchMnu@@UAEXJ@Z 1000cbf0 f i Dlg_StLA.obj
 0001:0000bc20       ?GetCurrentPatchMnu@CPatchMnu@@UAEIXZ 1000cc20 f i Dlg_StLA.obj
 0001:0000bc50       ?SetCurrentPatchMnu@CPatchMnu@@UAEXI@Z 1000cc50 f i Dlg_StLA.obj
 0001:0000bc80       ?GetCurrentPatchMnuOld@CPatchMnu@@UAEIXZ 1000cc80 f i Dlg_StLA.obj
 0001:0000bcb0       ?SetCurrentPatchMnuOld@CPatchMnu@@UAEXI@Z 1000ccb0 f i Dlg_StLA.obj
 0001:0000bce0       ?GetCurrentPatchMnuDefault@CPatchMnu@@UAEIXZ 1000cce0 f i Dlg_StLA.obj
 0001:0000bd10       ?SetCurrentPatchMnuDefault@CPatchMnu@@UAEXI@Z 1000cd10 f i Dlg_StLA.obj
 0001:0000bd40       ?GetPatchMnuID@CPatchMnu@@UAE?AVCString@@I@Z 1000cd40 f i Dlg_StLA.obj
 0001:0000bd90       ?SetPatchMnuID@CPatchMnu@@UAEXVCString@@I@Z 1000cd90 f i Dlg_StLA.obj
 0001:0000be10       ?GetCurrentID@CPatchMnu@@UAE?AVCString@@XZ 1000ce10 f i Dlg_StLA.obj
 0001:0000be60       ?SetCurrentID@CPatchMnu@@UAEXVCString@@@Z 1000ce60 f i Dlg_StLA.obj
 0001:0000bee0       ??1CPatchMnu@@UAE@XZ       1000cee0 f i Dlg_StLA.obj
 0001:0000bfa0       ??_GCPatchMnu@@UAEPAXI@Z   1000cfa0 f i Dlg_StLA.obj
 0001:0000bfe0       ??_ECPatchMnu@@UAEPAXI@Z   1000cfe0 f i Dlg_StLA.obj
 0001:0000c080       ?GetObjectType@CObj3DMnu@@UAEHXZ 1000d080 f i Dlg_StLA.obj
 0001:0000c0b0       ?SetObjectType@CObj3DMnu@@UAEXH@Z 1000d0b0 f i Dlg_StLA.obj
 0001:0000c0e0       ?GetElemType@CObj3DMnu@@UAEHXZ 1000d0e0 f i Dlg_StLA.obj
 0001:0000c110       ?SetElemType@CObj3DMnu@@UAEXH@Z 1000d110 f i Dlg_StLA.obj
 0001:0000c140       ?GetObjectNo@CObj3DMnu@@UAEJXZ 1000d140 f i Dlg_StLA.obj
 0001:0000c170       ?SetObjectNo@CObj3DMnu@@UAEXJ@Z 1000d170 f i Dlg_StLA.obj
 0001:0000c1a0       ?GetCurrentObj3DMnu@CObj3DMnu@@UAEIXZ 1000d1a0 f i Dlg_StLA.obj
 0001:0000c1d0       ?SetCurrentObj3DMnu@CObj3DMnu@@UAEXI@Z 1000d1d0 f i Dlg_StLA.obj
 0001:0000c200       ?GetCurrentObj3DMnuOld@CObj3DMnu@@UAEIXZ 1000d200 f i Dlg_StLA.obj
 0001:0000c230       ?SetCurrentObj3DMnuOld@CObj3DMnu@@UAEXI@Z 1000d230 f i Dlg_StLA.obj
 0001:0000c260       ?GetCurrentObj3DMnuDefault@CObj3DMnu@@UAEIXZ 1000d260 f i Dlg_StLA.obj
 0001:0000c290       ?SetCurrentObj3DMnuDefault@CObj3DMnu@@UAEXI@Z 1000d290 f i Dlg_StLA.obj
 0001:0000c2c0       ?GetObj3DMnuID@CObj3DMnu@@UAE?AVCString@@I@Z 1000d2c0 f i Dlg_StLA.obj
 0001:0000c310       ?SetObj3DMnuID@CObj3DMnu@@UAEXVCString@@I@Z 1000d310 f i Dlg_StLA.obj
 0001:0000c390       ?GetCurrentID@CObj3DMnu@@UAE?AVCString@@XZ 1000d390 f i Dlg_StLA.obj
 0001:0000c3e0       ?SetCurrentID@CObj3DMnu@@UAEXVCString@@@Z 1000d3e0 f i Dlg_StLA.obj
 0001:0000c460       ??1CObj3DMnu@@UAE@XZ       1000d460 f i Dlg_StLA.obj
 0001:0000c520       ??_GCObj3DMnu@@UAEPAXI@Z   1000d520 f i Dlg_StLA.obj
 0001:0000c560       ??_ECObj3DMnu@@UAEPAXI@Z   1000d560 f i Dlg_StLA.obj
 0001:0000c600       ?GetObjectType@CMapFactor@@UAEHXZ 1000d600 f i Dlg_StLA.obj
 0001:0000c630       ?SetObjectType@CMapFactor@@UAEXH@Z 1000d630 f i Dlg_StLA.obj
 0001:0000c660       ?GetElemType@CMapFactor@@UAEHXZ 1000d660 f i Dlg_StLA.obj
 0001:0000c690       ?SetElemType@CMapFactor@@UAEXH@Z 1000d690 f i Dlg_StLA.obj
 0001:0000c6c0       ?GetObjectNo@CMapFactor@@UAEJXZ 1000d6c0 f i Dlg_StLA.obj
 0001:0000c6f0       ?SetObjectNo@CMapFactor@@UAEXJ@Z 1000d6f0 f i Dlg_StLA.obj
 0001:0000c720       ?GetMapFactor@CMapFactor@@UAENXZ 1000d720 f i Dlg_StLA.obj
 0001:0000c750       ?SetMapFactor@CMapFactor@@UAEXN@Z 1000d750 f i Dlg_StLA.obj
 0001:0000c790       ?GetMapModeIndex@CMapFactor@@UAEHXZ 1000d790 f i Dlg_StLA.obj
 0001:0000c7c0       ?SetMapModeIndex@CMapFactor@@UAEXH@Z 1000d7c0 f i Dlg_StLA.obj
 0001:0000c7f0       ??1CMapFactor@@UAE@XZ      1000d7f0 f i Dlg_StLA.obj
 0001:0000c820       ??_GCMapFactor@@UAEPAXI@Z  1000d820 f i Dlg_StLA.obj
 0001:0000c860       ??_ECMapFactor@@UAEPAXI@Z  1000d860 f i Dlg_StLA.obj
 0001:0000c900       ?GetObjectType@CPrecision@@UAEHXZ 1000d900 f i Dlg_StLA.obj
 0001:0000c930       ?SetObjectType@CPrecision@@UAEXH@Z 1000d930 f i Dlg_StLA.obj
 0001:0000c960       ?GetElemType@CPrecision@@UAEHXZ 1000d960 f i Dlg_StLA.obj
 0001:0000c990       ?SetElemType@CPrecision@@UAEXH@Z 1000d990 f i Dlg_StLA.obj
 0001:0000c9c0       ?GetObjectNo@CPrecision@@UAEJXZ 1000d9c0 f i Dlg_StLA.obj
 0001:0000c9f0       ?SetObjectNo@CPrecision@@UAEXJ@Z 1000d9f0 f i Dlg_StLA.obj
 0001:0000ca20       ?GetPrecision@CPrecision@@UAEIXZ 1000da20 f i Dlg_StLA.obj
 0001:0000ca50       ?SetPrecision@CPrecision@@UAEXI@Z 1000da50 f i Dlg_StLA.obj
 0001:0000ca80       ?GetPrecisionOld@CPrecision@@UAEIXZ 1000da80 f i Dlg_StLA.obj
 0001:0000cab0       ?SetPrecisionOld@CPrecision@@UAEXI@Z 1000dab0 f i Dlg_StLA.obj
 0001:0000cae0       ?GetPrecisionDefault@CPrecision@@UAEIXZ 1000dae0 f i Dlg_StLA.obj
 0001:0000cb10       ?SetPrecisionDefault@CPrecision@@UAEXI@Z 1000db10 f i Dlg_StLA.obj
 0001:0000cb40       ?GetWorldBase@CPrecision@@UAEJXZ 1000db40 f i Dlg_StLA.obj
 0001:0000cb70       ?SetWorldBase@CPrecision@@UAEXJ@Z 1000db70 f i Dlg_StLA.obj
 0001:0000cba0       ?GetWorldBaseOld@CPrecision@@UAEJXZ 1000dba0 f i Dlg_StLA.obj
 0001:0000cbd0       ?SetWorldBaseOld@CPrecision@@UAEXJ@Z 1000dbd0 f i Dlg_StLA.obj
 0001:0000cc00       ?GetWorldBaseDefault@CPrecision@@UAEJXZ 1000dc00 f i Dlg_StLA.obj
 0001:0000cc30       ?SetWorldBaseDefault@CPrecision@@UAEXJ@Z 1000dc30 f i Dlg_StLA.obj
 0001:0000cc60       ??1CPrecision@@UAE@XZ      1000dc60 f i Dlg_StLA.obj
 0001:0000cc90       ??_GCPrecision@@UAEPAXI@Z  1000dc90 f i Dlg_StLA.obj
 0001:0000ccd0       ??_ECPrecision@@UAEPAXI@Z  1000dcd0 f i Dlg_StLA.obj
 0001:0000cd70       ?GetObjectType@CScaleFactor@@UAEHXZ 1000dd70 f i Dlg_StLA.obj
 0001:0000cda0       ?SetObjectType@CScaleFactor@@UAEXH@Z 1000dda0 f i Dlg_StLA.obj
 0001:0000cdd0       ?GetElemType@CScaleFactor@@UAEHXZ 1000ddd0 f i Dlg_StLA.obj
 0001:0000ce00       ?SetElemType@CScaleFactor@@UAEXH@Z 1000de00 f i Dlg_StLA.obj
 0001:0000ce30       ?GetObjectNo@CScaleFactor@@UAEJXZ 1000de30 f i Dlg_StLA.obj
 0001:0000ce60       ?SetObjectNo@CScaleFactor@@UAEXJ@Z 1000de60 f i Dlg_StLA.obj
 0001:0000ce90       ?GetScaleFactor@CScaleFactor@@UAENXZ 1000de90 f i Dlg_StLA.obj
 0001:0000cec0       ?SetScaleFactor@CScaleFactor@@UAEXN@Z 1000dec0 f i Dlg_StLA.obj
 0001:0000cf00       ?GetScaleFactorOld@CScaleFactor@@UAENXZ 1000df00 f i Dlg_StLA.obj
 0001:0000cf30       ?SetScaleFactorOld@CScaleFactor@@UAEXN@Z 1000df30 f i Dlg_StLA.obj
 0001:0000cf70       ?GetScaleFactorDefault@CScaleFactor@@UAENXZ 1000df70 f i Dlg_StLA.obj
 0001:0000cfa0       ?SetScaleFactorDefault@CScaleFactor@@UAEXN@Z 1000dfa0 f i Dlg_StLA.obj
 0001:0000cfe0       ??1CScaleFactor@@UAE@XZ    1000dfe0 f i Dlg_StLA.obj
 0001:0000d010       ??_GCScaleFactor@@UAEPAXI@Z 1000e010 f i Dlg_StLA.obj
 0001:0000d050       ??_ECScaleFactor@@UAEPAXI@Z 1000e050 f i Dlg_StLA.obj
 0001:0000d0f0       ?GetObjectType@CUnit@@UAEHXZ 1000e0f0 f i Dlg_StLA.obj
 0001:0000d120       ?SetObjectType@CUnit@@UAEXH@Z 1000e120 f i Dlg_StLA.obj
 0001:0000d150       ?GetElemType@CUnit@@UAEHXZ 1000e150 f i Dlg_StLA.obj
 0001:0000d180       ?SetElemType@CUnit@@UAEXH@Z 1000e180 f i Dlg_StLA.obj
 0001:0000d1b0       ?GetObjectNo@CUnit@@UAEJXZ 1000e1b0 f i Dlg_StLA.obj
 0001:0000d1e0       ?SetObjectNo@CUnit@@UAEXJ@Z 1000e1e0 f i Dlg_StLA.obj
 0001:0000d210       ?GetUnitName@CUnit@@UAE?AVCString@@I@Z 1000e210 f i Dlg_StLA.obj
 0001:0000d260       ?GetUnitIndex@CUnit@@UAEIXZ 1000e260 f i Dlg_StLA.obj
 0001:0000d290       ?SetUnitIndex@CUnit@@UAEXI@Z 1000e290 f i Dlg_StLA.obj
 0001:0000d2c0       ?GetUnitIndexOld@CUnit@@UAEIXZ 1000e2c0 f i Dlg_StLA.obj
 0001:0000d2f0       ?SetUnitIndexOld@CUnit@@UAEXI@Z 1000e2f0 f i Dlg_StLA.obj
 0001:0000d320       ?GetUnitIndexDefault@CUnit@@UAEIXZ 1000e320 f i Dlg_StLA.obj
 0001:0000d350       ?SetUnitIndexDefault@CUnit@@UAEXI@Z 1000e350 f i Dlg_StLA.obj
 0001:0000d380       ?GetUnitNameCount@CUnit@@UAEIXZ 1000e380 f i Dlg_StLA.obj
 0001:0000d3b0       ?SetUnitNameCount@CUnit@@UAEXI@Z 1000e3b0 f i Dlg_StLA.obj
 0001:0000d3e0       ??1CUnit@@UAE@XZ           1000e3e0 f i Dlg_StLA.obj
 0001:0000d470       ??_GCUnit@@UAEPAXI@Z       1000e470 f i Dlg_StLA.obj
 0001:0000d4b0       ??_ECUnit@@UAEPAXI@Z       1000e4b0 f i Dlg_StLA.obj
 0001:0000d550       ??1CDataRowHint@@UAE@XZ    1000e550 f i Dlg_StLA.obj
 0001:0000d580       ?GetMapFactor@CObjectMgr@@UAEPAVCMapFactor@@XZ 1000e580 f i Dlg_StLA.obj
 0001:0000d5b0       ?GetPrecision@CObjectMgr@@UAEPAVCPrecision@@XZ 1000e5b0 f i Dlg_StLA.obj
 0001:0000d5e0       ?GetScaleFactor@CObjectMgr@@UAEPAVCScaleFactor@@XZ 1000e5e0 f i Dlg_StLA.obj
 0001:0000d610       ?GetUnit@CObjectMgr@@UAEPAVCUnit@@XZ 1000e610 f i Dlg_StLA.obj
 0001:0000d640       ?GetObjectListFromIndex@CObjectMgr@@UAEPAVCDListMgr@@H@Z 1000e640 f i Dlg_StLA.obj
 0001:0000d690       ?IsSceneChanged@CObjectMgr@@UAEHXZ 1000e690 f i Dlg_StLA.obj
 0001:0000d6c0       ?SetSceneChanged@CObjectMgr@@UAEXH@Z 1000e6c0 f i Dlg_StLA.obj
 0001:0000d6f0       ?IsViewChanged@CObjectMgr@@UAEHXZ 1000e6f0 f i Dlg_StLA.obj
 0001:0000d720       ?SetViewChanged@CObjectMgr@@UAEXH@Z 1000e720 f i Dlg_StLA.obj
 0001:0000d750       ?GetMasterLastObjectNo@CObjectMgr@@UAEIXZ 1000e750 f i Dlg_StLA.obj
 0001:0000d780       ?SetMasterLastObjectNo@CObjectMgr@@UAEXI@Z 1000e780 f i Dlg_StLA.obj
 0001:0000d7b0       ?GetActiveObjectNo@CObjectMgr@@UAEIXZ 1000e7b0 f i Dlg_StLA.obj
 0001:0000d7e0       ?SetActiveObjectNo@CObjectMgr@@UAEXI@Z 1000e7e0 f i Dlg_StLA.obj
 0001:0000d810       ?GetActiveListIndex@CObjectMgr@@UAEHXZ 1000e810 f i Dlg_StLA.obj
 0001:0000d840       ?SetActiveListIndex@CObjectMgr@@UAEXH@Z 1000e840 f i Dlg_StLA.obj
 0001:0000d870       ?GetActiveObjectIndex@CObjectMgr@@UAEHXZ 1000e870 f i Dlg_StLA.obj
 0001:0000d8a0       ?SetActiveObjectIndex@CObjectMgr@@UAEXH@Z 1000e8a0 f i Dlg_StLA.obj
 0001:0000d8d0       ?GetActiveObjectType@CObjectMgr@@UAEHXZ 1000e8d0 f i Dlg_StLA.obj
 0001:0000d900       ?SetActiveObjectType@CObjectMgr@@UAEXH@Z 1000e900 f i Dlg_StLA.obj
 0001:0000d930       ?GetRowList@CObjectMgr@@QAEPAV?$CList@JJ@@XZ 1000e930 f i Dlg_StLA.obj
 0001:0000d960       ?GetRowCount@CObjectMgr@@QAEHXZ 1000e960 f i Dlg_StLA.obj
 0001:0000d990       ?GetActiveRowIndex@CObjectMgr@@QAEHXZ 1000e990 f i Dlg_StLA.obj
 0001:0000d9c0       ?SetActiveRowIndex@CObjectMgr@@QAEXH@Z 1000e9c0 f i Dlg_StLA.obj
 0001:0000d9f0       ?GetFormat@CObjectMgr@@UAE?AVCString@@XZ 1000e9f0 f i Dlg_StLA.obj
 0001:0000da40       ?IsMeshGenOn@CObjectMgr@@UAEHXZ 1000ea40 f i Dlg_StLA.obj
 0001:0000da70       ?SetMeshGenOn@CObjectMgr@@UAEXH@Z 1000ea70 f i Dlg_StLA.obj
 0001:0000daa0       ?GetMeshType@CObjectMgr@@UAEIXZ 1000eaa0 f i Dlg_StLA.obj
 0001:0000dad0       ?SetMeshType@CObjectMgr@@UAEXI@Z 1000ead0 f i Dlg_StLA.obj
 0001:0000db00       ?GetCurrentTopLevel@CObjectMgr@@UAEHXZ 1000eb00 f i Dlg_StLA.obj
 0001:0000db30       ?SetCurrentTopLevel@CObjectMgr@@UAEXH@Z 1000eb30 f i Dlg_StLA.obj
 0001:0000db60       ?GetObjectType@CElemInfo@@UAEHXZ 1000eb60 f i Dlg_StLA.obj
 0001:0000db90       ?SetObjectType@CElemInfo@@UAEXH@Z 1000eb90 f i Dlg_StLA.obj
 0001:0000dbc0       ?GetElemType@CElemInfo@@UAEHXZ 1000ebc0 f i Dlg_StLA.obj
 0001:0000dbf0       ?SetElemType@CElemInfo@@UAEXH@Z 1000ebf0 f i Dlg_StLA.obj
 0001:0000dc20       ?GetObjectNo@CElemInfo@@UAEJXZ 1000ec20 f i Dlg_StLA.obj
 0001:0000dc50       ?SetObjectNo@CElemInfo@@UAEXJ@Z 1000ec50 f i Dlg_StLA.obj
 0001:0000dc80       ?GetInfoList@CElemInfo@@UAEPAVCDListMgr@@H@Z 1000ec80 f i Dlg_StLA.obj
 0001:0000dcb0       ??1CElemInfo@@UAE@XZ       1000ecb0 f i Dlg_StLA.obj
 0001:0000dd40       ??_GCElemInfo@@UAEPAXI@Z   1000ed40 f i Dlg_StLA.obj
 0001:0000dd80       ??_ECElemInfo@@UAEPAXI@Z   1000ed80 f i Dlg_StLA.obj
 0001:0000de20       ??1CMeshRowHint@@UAE@XZ    1000ee20 f i Dlg_StLA.obj
 0001:0000de50       ?GetRowList@CMsObjMgr@@QAEPAV?$CList@JJ@@XZ 1000ee50 f i Dlg_StLA.obj
 0001:0000de80       ?GetRowCount@CMsObjMgr@@QAEHXZ 1000ee80 f i Dlg_StLA.obj
 0001:0000deb0       ?GetActiveRowIndex@CMsObjMgr@@QAEHXZ 1000eeb0 f i Dlg_StLA.obj
 0001:0000dee0       ?SetActiveRowIndex@CMsObjMgr@@QAEXH@Z 1000eee0 f i Dlg_StLA.obj
 0001:0000df10       ??1CBaseRowHint@@UAE@XZ    1000ef10 f i Dlg_StLA.obj
 0001:0000df40       ?GetCurrentItem@CDbObjMgr@@QAEAAVCString@@XZ 1000ef40 f i Dlg_StLA.obj
 0001:0000df60       ?SetCurrentItem@CDbObjMgr@@QAEXAAVCString@@@Z 1000ef60 f i Dlg_StLA.obj
 0001:0000df90       ?GetCurrentParent@CDbObjMgr@@QAEAAVCString@@XZ 1000ef90 f i Dlg_StLA.obj
 0001:0000dfb0       ?SetCurrentParent@CDbObjMgr@@QAEXAAVCString@@@Z 1000efb0 f i Dlg_StLA.obj
 0001:0000dfe0       ??1CAxDataRowHint@@UAE@XZ  1000efe0 f i Dlg_StLA.obj
 0001:0000e010       ?GetMapFactor@CAxObjMgr@@UAEPAVCMapFactor@@XZ 1000f010 f i Dlg_StLA.obj
 0001:0000e040       ?GetPrecision@CAxObjMgr@@UAEPAVCPrecision@@XZ 1000f040 f i Dlg_StLA.obj
 0001:0000e070       ?GetScaleFactor@CAxObjMgr@@UAEPAVCScaleFactor@@XZ 1000f070 f i Dlg_StLA.obj
 0001:0000e0a0       ?GetUnit@CAxObjMgr@@UAEPAVCUnit@@XZ 1000f0a0 f i Dlg_StLA.obj
 0001:0000e0d0       ?GetObjectListFromIndex@CAxObjMgr@@UAEPAVCDListMgr@@H@Z 1000f0d0 f i Dlg_StLA.obj
 0001:0000e120       ?IsSceneChanged@CAxObjMgr@@UAEHXZ 1000f120 f i Dlg_StLA.obj
 0001:0000e150       ?SetSceneChanged@CAxObjMgr@@UAEXH@Z 1000f150 f i Dlg_StLA.obj
 0001:0000e180       ?IsViewChanged@CAxObjMgr@@UAEHXZ 1000f180 f i Dlg_StLA.obj
 0001:0000e1b0       ?SetViewChanged@CAxObjMgr@@UAEXH@Z 1000f1b0 f i Dlg_StLA.obj
 0001:0000e1e0       ?GetMasterLastObjectNo@CAxObjMgr@@UAEIXZ 1000f1e0 f i Dlg_StLA.obj
 0001:0000e210       ?SetMasterLastObjectNo@CAxObjMgr@@UAEXI@Z 1000f210 f i Dlg_StLA.obj
 0001:0000e240       ?GetActiveObjectNo@CAxObjMgr@@UAEIXZ 1000f240 f i Dlg_StLA.obj
 0001:0000e270       ?SetActiveObjectNo@CAxObjMgr@@UAEXI@Z 1000f270 f i Dlg_StLA.obj
 0001:0000e2a0       ?GetActiveListIndex@CAxObjMgr@@UAEHXZ 1000f2a0 f i Dlg_StLA.obj
 0001:0000e2d0       ?SetActiveListIndex@CAxObjMgr@@UAEXH@Z 1000f2d0 f i Dlg_StLA.obj
 0001:0000e300       ?GetActiveObjectIndex@CAxObjMgr@@UAEHXZ 1000f300 f i Dlg_StLA.obj
 0001:0000e330       ?SetActiveObjectIndex@CAxObjMgr@@UAEXH@Z 1000f330 f i Dlg_StLA.obj
 0001:0000e360       ?GetActiveObjectType@CAxObjMgr@@UAEHXZ 1000f360 f i Dlg_StLA.obj
 0001:0000e390       ?SetActiveObjectType@CAxObjMgr@@UAEXH@Z 1000f390 f i Dlg_StLA.obj
 0001:0000e3c0       ?GetRowList@CAxObjMgr@@QAEPAV?$CList@JJ@@XZ 1000f3c0 f i Dlg_StLA.obj
 0001:0000e3f0       ?GetRowCount@CAxObjMgr@@QAEHXZ 1000f3f0 f i Dlg_StLA.obj
 0001:0000e420       ?GetActiveRowIndex@CAxObjMgr@@QAEHXZ 1000f420 f i Dlg_StLA.obj
 0001:0000e450       ?SetActiveRowIndex@CAxObjMgr@@QAEXH@Z 1000f450 f i Dlg_StLA.obj
 0001:0000e480       ?GetFormat@CAxObjMgr@@UAE?AVCString@@XZ 1000f480 f i Dlg_StLA.obj
 0001:0000e4d0       ?IsMeshGenOn@CAxObjMgr@@UAEHXZ 1000f4d0 f i Dlg_StLA.obj
 0001:0000e500       ?SetMeshGenOn@CAxObjMgr@@UAEXH@Z 1000f500 f i Dlg_StLA.obj
 0001:0000e530       ?GetMeshType@CAxObjMgr@@UAEIXZ 1000f530 f i Dlg_StLA.obj
 0001:0000e560       ?SetMeshType@CAxObjMgr@@UAEXI@Z 1000f560 f i Dlg_StLA.obj
 0001:0000e590       ?GetCurrentTopLevel@CAxObjMgr@@UAEHXZ 1000f590 f i Dlg_StLA.obj
 0001:0000e5c0       ?SetCurrentTopLevel@CAxObjMgr@@UAEXH@Z 1000f5c0 f i Dlg_StLA.obj
 0001:0000e5f0       ?Parse_drPipe@CDrNode@@UAEPAUnodecard@@PAVCString@@@Z 1000f5f0 f i Dlg_StLA.obj
 0001:0000e610       ?GetNodeCard@CDrNode@@UAEPAUnodecard@@XZ 1000f610 f i Dlg_StLA.obj
 0001:0000e640       ?GetCardNo@CDrNode@@UAEHXZ 1000f640 f i Dlg_StLA.obj
 0001:0000e670       ?SetCardNo@CDrNode@@UAEXH@Z 1000f670 f i Dlg_StLA.obj
 0001:0000e6a0       ?DoFormattedCardView@CDrNode@@UAEXPAVCString@@AAV2@@Z 1000f6a0 f i Dlg_StLA.obj
 0001:0000e6c0       ?DoUnFormattedCardView@CDrNode@@UAEXPAVCString@@@Z 1000f6c0 f i Dlg_StLA.obj
 0001:0000e6e0       ?GetMaxCorners@CDrNode@@UAEHXZ 1000f6e0 f i Dlg_StLA.obj
 0001:0000e700       ?GetCategory@CDrNode@@UAE?AW4CATEGORY@@XZ 1000f700 f i Dlg_StLA.obj
 0001:0000e720       ?SetCategory@CDrNode@@UAEXW4CATEGORY@@@Z 1000f720 f i Dlg_StLA.obj
 0001:0000e750       ?GetPrecision@CDrNode@@UAEHXZ 1000f750 f i Dlg_StLA.obj
 0001:0000e780       ?SetPrecision@CDrNode@@UAEXH@Z 1000f780 f i Dlg_StLA.obj
 0001:0000e7b0       ?GetFormat@CDrNode@@QAE?AVCString@@XZ 1000f7b0 f i Dlg_StLA.obj
 0001:0000e800       ?SetFormat@CDrNode@@QAEXVCString@@@Z 1000f800 f i Dlg_StLA.obj
 0001:0000e880       ?GetMapFactor@CDrNode@@QAENXZ 1000f880 f i Dlg_StLA.obj
 0001:0000e8b0       ?SetMapFactor@CDrNode@@QAEXN@Z 1000f8b0 f i Dlg_StLA.obj
 0001:0000e8f0       ?GetScaleFactor@CDrNode@@QAENXZ 1000f8f0 f i Dlg_StLA.obj
 0001:0000e920       ?SetScaleFactor@CDrNode@@QAEXN@Z 1000f920 f i Dlg_StLA.obj
 0001:0000e960       ?GetMasterMultFac@CDrNode@@QAEJXZ 1000f960 f i Dlg_StLA.obj
 0001:0000e990       ?SetMasterMultFac@CDrNode@@QAEXJ@Z 1000f990 f i Dlg_StLA.obj
 0001:0000e9c0       ?GetLocalPos@CDrNode@@UAEPAUWORLD@@XZ 1000f9c0 f i Dlg_StLA.obj
 0001:0000e9f0       ?SetLocalPos@CDrNode@@UAEXUWORLD@@@Z 1000f9f0 f i Dlg_StLA.obj
 0001:0000ea30       ?GetWorldPos@CDrNode@@UAEPAUWORLD@@XZ 1000fa30 f i Dlg_StLA.obj
 0001:0000ea60       ?SetWorldPos@CDrNode@@UAEXUWORLD@@@Z 1000fa60 f i Dlg_StLA.obj
 0001:0000eaa0       ?GetEyePos@CDrNode@@UAEPAUWORLD@@XZ 1000faa0 f i Dlg_StLA.obj
 0001:0000ead0       ?SetEyePos@CDrNode@@UAEXUWORLD@@@Z 1000fad0 f i Dlg_StLA.obj
 0001:0000eb10       ?GetScreenPos3D@CDrNode@@UAEPAUWORLD@@XZ 1000fb10 f i Dlg_StLA.obj
 0001:0000eb40       ?SetScreenPos3D@CDrNode@@UAEXUWORLD@@@Z 1000fb40 f i Dlg_StLA.obj
 0001:0000eb80       ?GetScreenPos2D@CDrNode@@UAEPAUtagPOINT@@XZ 1000fb80 f i Dlg_StLA.obj
 0001:0000ebb0       ?SetScreenPos2D@CDrNode@@UAEXUtagPOINT@@@Z 1000fbb0 f i Dlg_StLA.obj
 0001:0000ebf0       ?GetNormalWorld@CDrNode@@UAEPAUWORLD@@XZ 1000fbf0 f i Dlg_StLA.obj
 0001:0000ec20       ?SetNormalWorld@CDrNode@@UAEXUWORLD@@@Z 1000fc20 f i Dlg_StLA.obj
 0001:0000ec60       ?GetNormalEye@CDrNode@@UAEPAUWORLD@@XZ 1000fc60 f i Dlg_StLA.obj
 0001:0000ec90       ?SetNormalEye@CDrNode@@UAEXUWORLD@@@Z 1000fc90 f i Dlg_StLA.obj
 0001:0000ecd0       ?GetNormalScreen3D@CDrNode@@UAEPAUWORLD@@XZ 1000fcd0 f i Dlg_StLA.obj
 0001:0000ed00       ?SetNormalScreen3D@CDrNode@@UAEXUWORLD@@@Z 1000fd00 f i Dlg_StLA.obj
 0001:0000ed40       ?GetNormalScreen2D@CDrNode@@UAEPAUtagPOINT@@XZ 1000fd40 f i Dlg_StLA.obj
 0001:0000ed70       ?SetNormalScreen2D@CDrNode@@UAEXUtagPOINT@@@Z 1000fd70 f i Dlg_StLA.obj
 0001:0000edb0       ?GetLabelNo@CDrNode@@QAEJXZ 1000fdb0 f i Dlg_StLA.obj
 0001:0000ede0       ?SetLabelNo@CDrNode@@QAEXJ@Z 1000fde0 f i Dlg_StLA.obj
 0001:0000ee10       ?IsMeshNode@CDrNode@@QAEHXZ 1000fe10 f i Dlg_StLA.obj
 0001:0000ee40       ?SetMeshNode@CDrNode@@QAEXH@Z 1000fe40 f i Dlg_StLA.obj
 0001:0000ee70       ?IsGenerated@CDrNode@@QAEHXZ 1000fe70 f i Dlg_StLA.obj
 0001:0000eea0       ?SetGenerated@CDrNode@@QAEXH@Z 1000fea0 f i Dlg_StLA.obj
 0001:0000eed0       ?IsControlNode@CDrNode@@QAEHXZ 1000fed0 f i Dlg_StLA.obj
 0001:0000ef00       ?SetControlNode@CDrNode@@QAEXH@Z 1000ff00 f i Dlg_StLA.obj
 0001:0000ef40       ?GetInputMode@CDrNode@@QAEHXZ 1000ff40 f i Dlg_StLA.obj
 0001:0000ef70       ?SetInputMode@CDrNode@@QAEXH@Z 1000ff70 f i Dlg_StLA.obj
 0001:0000efa0       ?GetLength@CDrNode@@QAENXZ 1000ffa0 f i Dlg_StLA.obj
 0001:0000efd0       ?SetLength@CDrNode@@QAEXN@Z 1000ffd0 f i Dlg_StLA.obj
 0001:0000f010       ?GetDelta@CDrNode@@QAEPAUWORLD@@XZ 10010010 f i Dlg_StLA.obj
 0001:0000f040       ?SetDelta@CDrNode@@QAEXUWORLD@@@Z 10010040 f i Dlg_StLA.obj
 0001:0000f080       ?GetFromID@CDrNode@@QAE?AVCString@@XZ 10010080 f i Dlg_StLA.obj
 0001:0000f0d0       ?SetFromID@CDrNode@@QAEXVCString@@@Z 100100d0 f i Dlg_StLA.obj
 0001:0000f150       ?GetToID@CDrNode@@QAE?AVCString@@XZ 10010150 f i Dlg_StLA.obj
 0001:0000f1a0       ?SetToID@CDrNode@@QAEXVCString@@@Z 100101a0 f i Dlg_StLA.obj
 0001:0000f220       ?IsRefCN@CDrNode@@QAEHXZ   10010220 f i Dlg_StLA.obj
 0001:0000f250       ?SetRefCN@CDrNode@@QAEXH@Z 10010250 f i Dlg_StLA.obj
 0001:0000f280       ?IsFromCN@CDrNode@@QAEHXZ  10010280 f i Dlg_StLA.obj
 0001:0000f2b0       ?SetFromCN@CDrNode@@QAEXH@Z 100102b0 f i Dlg_StLA.obj
 0001:0000f2e0       ?IsToCN@CDrNode@@QAEHXZ    100102e0 f i Dlg_StLA.obj
 0001:0000f310       ?SetToCN@CDrNode@@QAEXH@Z  10010310 f i Dlg_StLA.obj
 0001:0000f340       ?IsSkewed@CDrNode@@UAEHXZ  10010340 f i Dlg_StLA.obj
 0001:0000f370       ?SetSkewed@CDrNode@@UAEXH@Z 10010370 f i Dlg_StLA.obj
 0001:0000f3a0       ?IsLinSpr@CDrNode@@UAEHXZ  100103a0 f i Dlg_StLA.obj
 0001:0000f3d0       ?SetLinSpr@CDrNode@@UAEXH@Z 100103d0 f i Dlg_StLA.obj
 0001:0000f400       ?IsLinSnu@CDrNode@@UAEHXZ  10010400 f i Dlg_StLA.obj
 0001:0000f430       ?SetLinSnu@CDrNode@@UAEXH@Z 10010430 f i Dlg_StLA.obj
 0001:0000f460       ?GetSuppCardList@CDrNode@@QAEPAV?$CList@Usupportcard@@U1@@@XZ 10010460 f i Dlg_StLA.obj
 0001:0000f490       ?GetStaLCardList@CDrNode@@QAEPAV?$CList@UstaLcard@@U1@@@XZ 10010490 f i Dlg_StLA.obj
 0001:0000f4c0       ??1CDlg_StLA@@UAE@XZ       100104c0 f i Dlg_StLA.obj
 0001:0000f570       ??_FCDlg_StLA@@QAEXXZ      10010570 f i Dlg_StLA.obj
 0001:0000f5a0       ??0CDlg_StLA@@QAE@PAVCWnd@@@Z 100105a0 f   Dlg_StLA.obj
 0001:0000f710       ??_GCDlg_StLA@@UAEPAXI@Z   10010710 f i Dlg_StLA.obj
 0001:0000f750       ??_ECDlg_StLA@@UAEPAXI@Z   10010750 f i Dlg_StLA.obj
 0001:0000f7f0       ?DoDataExchange@CDlg_StLA@@MAEXPAVCDataExchange@@@Z 100107f0 f   Dlg_StLA.obj
 0001:0000f880       ?_GetBaseMessageMap@CDlg_StLA@@KGPBUAFX_MSGMAP@@XZ 10010880 f   Dlg_StLA.obj
 0001:0000f8a0       ?GetMessageMap@CDlg_StLA@@MBEPBUAFX_MSGMAP@@XZ 100108a0 f   Dlg_StLA.obj
 0001:0000f8c0       ?OnInitDialog@CDlg_StLA@@MAEHXZ 100108c0 f   Dlg_StLA.obj
 0001:0000faf0       ?GetDocument@CDrGrafApp@@QAEPAVCDrGrafDoc@@XZ 10010af0 f i Dlg_StLA.obj
 0001:0000fb20       ?GetObjectMgr@CDrGrafDoc@@QAEPAVCObjectMgr@@XZ 10010b20 f i Dlg_StLA.obj
 0001:0000fb50       ?OnSelchangeNid@CDlg_StLA@@IAEXXZ 10010b50 f   Dlg_StLA.obj
 0001:0000fb70       ?OnTangent@CDlg_StLA@@IAEXXZ 10010b70 f   Dlg_StLA.obj
 0001:0000fcb0       ?OnOK@CDlg_StLA@@MAEXXZ    10010cb0 f   Dlg_StLA.obj
 0001:0000fce0       ?OnCancel@CDlg_StLA@@MAEXXZ 10010ce0 f   Dlg_StLA.obj
 0001:0000fd10       ?FillListAllNodeIDs@CDlg_StLA@@IAEXXZ 10010d10 f   Dlg_StLA.obj
 0001:0000fef0       ?GetCount@?$CList@JJ@@QBEHXZ 10010ef0 f i Dlg_StLA.obj
 0001:0000ff10       ?IsDirty@CDrCurve@@UAEHXZ  10010f10 f i Dlg_StLC.obj
 0001:0000ff40       ?SetDirty@CDrCurve@@UAEXH@Z 10010f40 f i Dlg_StLC.obj
 0001:0000ff70       ?IsControlShapeNeeded@CDrCurve@@UAEHXZ 10010f70 f i Dlg_StLC.obj
 0001:0000ffa0       ?SetControlShapeNeed@CDrCurve@@UAEXH@Z 10010fa0 f i Dlg_StLC.obj
 0001:0000ffd0       ?IsPosted@CDrCurve@@UAEHXZ 10010fd0 f i Dlg_StLC.obj
 0001:00010000       ?SetPosted@CDrCurve@@UAEXH@Z 10011000 f i Dlg_StLC.obj
 0001:00010030       ?GetCN_BSList@CDrCurve@@QAEPAVCDListMgr@@XZ 10011030 f i Dlg_StLC.obj
 0001:00010060       ?GetVNodeList@CDrCurve@@QAEPAVCDListMgr@@XZ 10011060 f i Dlg_StLC.obj
 0001:00010090       ?GetMeshElemDim@CDrCurve@@QAEHXZ 10011090 f i Dlg_StLC.obj
 0001:000100c0       ?SetMeshElemDim@CDrCurve@@QAEXH@Z 100110c0 f i Dlg_StLC.obj
 0001:000100f0       ?IsIso@CDrCurve@@QAEHXZ    100110f0 f i Dlg_StLC.obj
 0001:00010120       ?SetIso@CDrCurve@@QAEXH@Z  10011120 f i Dlg_StLC.obj
 0001:00010150       ?GetIsoToID@CDrCurve@@QAEAAVCString@@XZ 10011150 f i Dlg_StLC.obj
 0001:00010180       ?SetIsoToID@CDrCurve@@QAEXAAVCString@@@Z 10011180 f i Dlg_StLC.obj
 0001:000101b0       ?GetCompoType@CDrCurve@@QAEHXZ 100111b0 f i Dlg_StLC.obj
 0001:000101e0       ?SetCompoType@CDrCurve@@QAEXH@Z 100111e0 f i Dlg_StLC.obj
 0001:00010210       ?GetCompoID@CDrCurve@@QAEAAVCString@@XZ 10011210 f i Dlg_StLC.obj
 0001:00010240       ?SetCompoID@CDrCurve@@QAEXAAVCString@@@Z 10011240 f i Dlg_StLC.obj
 0001:00010270       ?GetClass_S@CDrCurve@@QAEHXZ 10011270 f i Dlg_StLC.obj
 0001:000102a0       ?SetClass_S@CDrCurve@@QAEXH@Z 100112a0 f i Dlg_StLC.obj
 0001:000102d0       ?GetOutSegUnif_S@CDrCurve@@QAEHXZ 100112d0 f i Dlg_StLC.obj
 0001:00010300       ?SetOutSegUnif_S@CDrCurve@@QAEXH@Z 10011300 f i Dlg_StLC.obj
 0001:00010330       ?IsClosed_S@CDrCurve@@QAEHXZ 10011330 f i Dlg_StLC.obj
 0001:00010360       ?SetClosed_S@CDrCurve@@QAEXH@Z 10011360 f i Dlg_StLC.obj
 0001:00010390       ?GetCurveObjectType@CDrCurve@@QAEHXZ 10011390 f i Dlg_StLC.obj
 0001:000103c0       ?SetCurveObjectType@CDrCurve@@QAEXH@Z 100113c0 f i Dlg_StLC.obj
 0001:000103f0       ?GetMaxINodes_S@CDrCurve@@QAEHXZ 100113f0 f i Dlg_StLC.obj
 0001:00010420       ?SetMaxINodes_S@CDrCurve@@QAEXH@Z 10011420 f i Dlg_StLC.obj
 0001:00010450       ?GetMaxCNodes_S@CDrCurve@@QAEHXZ 10011450 f i Dlg_StLC.obj
 0001:00010480       ?SetMaxCNodes_S@CDrCurve@@QAEXH@Z 10011480 f i Dlg_StLC.obj
 0001:000104b0       ?GetMaxBezSegments_S@CDrCurve@@QAEHXZ 100114b0 f i Dlg_StLC.obj
 0001:000104e0       ?SetMaxBezSegments_S@CDrCurve@@QAEXH@Z 100114e0 f i Dlg_StLC.obj
 0001:00010510       ?GetMaxOutPts_S@CDrCurve@@QAEHXZ 10011510 f i Dlg_StLC.obj
 0001:00010540       ?SetMaxOutPts_S@CDrCurve@@QAEXH@Z 10011540 f i Dlg_StLC.obj
 0001:00010570       ?GetLongOutPts@CDrCurve@@QAEJXZ 10011570 f i Dlg_StLC.obj
 0001:000105a0       ?SetLongOutPts@CDrCurve@@QAEXJ@Z 100115a0 f i Dlg_StLC.obj
 0001:000105d0       ?GetCurveType_S@CDrCurve@@QAE?AW4CURVEPROC@@XZ 100115d0 f i Dlg_StLC.obj
 0001:00010600       ?SetCurveType_S@CDrCurve@@QAEXW4CURVEPROC@@@Z 10011600 f i Dlg_StLC.obj
 0001:00010630       ?GetOutMethod@CDrCurve@@QAE?AW4CURVEOUTPUT@@XZ 10011630 f i Dlg_StLC.obj
 0001:00010660       ?GetAlfa@CDrCurve@@QAENXZ  10011660 f i Dlg_StLC.obj
 0001:00010690       ?GetBias@CDrCurve@@QAENXZ  10011690 f i Dlg_StLC.obj
 0001:000106c0       ?GetTension@CDrCurve@@QAENXZ 100116c0 f i Dlg_StLC.obj
 0001:000106f0       ?IsUniform_S@CDrCurve@@QAEHXZ 100116f0 f i Dlg_StLC.obj
 0001:00010720       ?SetUniform_S@CDrCurve@@QAEXH@Z 10011720 f i Dlg_StLC.obj
 0001:00010750       ?SetOutMethod_S@CDrCurve@@QAEXW4CURVEOUTPUT@@@Z 10011750 f i Dlg_StLC.obj
 0001:00010780       ?GetMaxOutSeg_S@CDrCurve@@QAEHXZ 10011780 f i Dlg_StLC.obj
 0001:000107b0       ?SetMaxOutSeg_S@CDrCurve@@QAEXH@Z 100117b0 f i Dlg_StLC.obj
 0001:000107e0       ?GetDis_AngPointer_S@CDrCurve@@QAEPANXZ 100117e0 f i Dlg_StLC.obj
 0001:00010810       ?SetDis_AngPointer_S@CDrCurve@@QAEXPAN@Z 10011810 f i Dlg_StLC.obj
 0001:00010840       ?GetNum_tPointer_S@CDrCurve@@QAEPAHXZ 10011840 f i Dlg_StLC.obj
 0001:00010870       ?SetNum_tPointer_S@CDrCurve@@QAEXPAH@Z 10011870 f i Dlg_StLC.obj
 0001:000108a0       ?GetDis_tPointer_S@CDrCurve@@QAEPANXZ 100118a0 f i Dlg_StLC.obj
 0001:000108d0       ?SetDis_tPointer_S@CDrCurve@@QAEXPAN@Z 100118d0 f i Dlg_StLC.obj
 0001:00010900       ?GetNum_tPointer_Ex_S@CDrCurve@@QAEPAHXZ 10011900 f i Dlg_StLC.obj
 0001:00010930       ?SetNum_tPointer_Ex_S@CDrCurve@@QAEXPAH@Z 10011930 f i Dlg_StLC.obj
 0001:00010960       ?GetnBSeg_Ex_S@CDrCurve@@QAEHXZ 10011960 f i Dlg_StLC.obj
 0001:00010990       ?SetnBSeg_Ex_S@CDrCurve@@QAEXH@Z 10011990 f i Dlg_StLC.obj
 0001:000109c0       ?GetBSegPointer_Ex_S@CDrCurve@@QAEPAHXZ 100119c0 f i Dlg_StLC.obj
 0001:000109f0       ?SetBSegPointer_Ex_S@CDrCurve@@QAEXPAH@Z 100119f0 f i Dlg_StLC.obj
 0001:00010a20       ?SetAlfa@CDrCurve@@QAEXN@Z 10011a20 f i Dlg_StLC.obj
 0001:00010a60       ?SetBias@CDrCurve@@QAEXN@Z 10011a60 f i Dlg_StLC.obj
 0001:00010aa0       ?SetTension@CDrCurve@@QAEXN@Z 10011aa0 f i Dlg_StLC.obj
 0001:00010ae0       ?GetMemIn@CDrCurve@@QAEPAUWORLD@@XZ 10011ae0 f i Dlg_StLC.obj
 0001:00010b10       ?GetMemInWts@CDrCurve@@QAEPANXZ 10011b10 f i Dlg_StLC.obj
 0001:00010b40       ?GetMemInDP@CDrCurve@@QAEPAUtagPOINT@@XZ 10011b40 f i Dlg_StLC.obj
 0001:00010b70       ?GetMemOut@CDrCurve@@QAEPAUWORLD@@XZ 10011b70 f i Dlg_StLC.obj
 0001:00010ba0       ?GetMemOutWts@CDrCurve@@QAEPANXZ 10011ba0 f i Dlg_StLC.obj
 0001:00010bd0       ?GetMemOutDP@CDrCurve@@QAEPAUtagPOINT@@XZ 10011bd0 f i Dlg_StLC.obj
 0001:00010c00       ?SetMemIn@CDrCurve@@QAEXPAUWORLD@@@Z 10011c00 f i Dlg_StLC.obj
 0001:00010c30       ?SetMemInWts@CDrCurve@@QAEXPAN@Z 10011c30 f i Dlg_StLC.obj
 0001:00010c60       ?SetMemInDP@CDrCurve@@QAEXPAUtagPOINT@@@Z 10011c60 f i Dlg_StLC.obj
 0001:00010c90       ?SetMemOut@CDrCurve@@QAEXPAUWORLD@@@Z 10011c90 f i Dlg_StLC.obj
 0001:00010cc0       ?SetMemOutWts@CDrCurve@@QAEXPAN@Z 10011cc0 f i Dlg_StLC.obj
 0001:00010cf0       ?SetMemOutDP@CDrCurve@@QAEXPAUtagPOINT@@@Z 10011cf0 f i Dlg_StLC.obj
 0001:00010d20       ?FixMemD@CDrCurve@@QAEPANJ@Z 10011d20 f i Dlg_StLC.obj
 0001:00010d70       ?FreeMemD@CDrCurve@@QAEXPAN@Z 10011d70 f i Dlg_StLC.obj
 0001:00010da0       ?FixMem@CDrCurve@@QAEPAUWORLD@@J@Z 10011da0 f i Dlg_StLC.obj
 0001:00010df0       ?FreeMem@CDrCurve@@QAEXPAUWORLD@@@Z 10011df0 f i Dlg_StLC.obj
 0001:00010e20       ?FixMemDP@CDrCurve@@QAEPAUtagPOINT@@J@Z 10011e20 f i Dlg_StLC.obj
 0001:00010e70       ?FreeMemDP@CDrCurve@@QAEXPAUtagPOINT@@@Z 10011e70 f i Dlg_StLC.obj
 0001:00010ea0       ?GetData_S@CDrCurve@@QAEHXZ 10011ea0 f i Dlg_StLC.obj
 0001:00010ed0       ?SetData_S@CDrCurve@@QAEXH@Z 10011ed0 f i Dlg_StLC.obj
 0001:00010f00       ?GetOrder_S@CDrCurve@@QAEHXZ 10011f00 f i Dlg_StLC.obj
 0001:00010f30       ?SetOrder_S@CDrCurve@@QAEXH@Z 10011f30 f i Dlg_StLC.obj
 0001:00010f60       ?GetKnotType_S@CDrCurve@@QAE?AW4KNOT@@XZ 10011f60 f i Dlg_StLC.obj
 0001:00010f90       ?SetKnotType_S@CDrCurve@@QAEXW4KNOT@@@Z 10011f90 f i Dlg_StLC.obj
 0001:00010fc0       ?GetWtType_S@CDrCurve@@QAE?AW4WEIGHT@@XZ 10011fc0 f i Dlg_StLC.obj
 0001:00010ff0       ?SetWtType_S@CDrCurve@@QAEXW4WEIGHT@@@Z 10011ff0 f i Dlg_StLC.obj
 0001:00011020       ?GetBCL_S@CDrCurve@@QAE?AW4BOUNDARY@@XZ 10012020 f i Dlg_StLC.obj
 0001:00011050       ?SetBCL_S@CDrCurve@@QAEXW4BOUNDARY@@@Z 10012050 f i Dlg_StLC.obj
 0001:00011080       ?GetBCR_S@CDrCurve@@QAE?AW4BOUNDARY@@XZ 10012080 f i Dlg_StLC.obj
 0001:000110b0       ?SetBCR_S@CDrCurve@@QAEXW4BOUNDARY@@@Z 100120b0 f i Dlg_StLC.obj
 0001:000110e0       ?GetTanL_S@CDrCurve@@QAE?AUVECTOR@@XZ 100120e0 f i Dlg_StLC.obj
 0001:00011120       ?SetTanL_S@CDrCurve@@QAEXUVECTOR@@@Z 10012120 f i Dlg_StLC.obj
 0001:00011160       ?GetTanR_S@CDrCurve@@QAE?AUVECTOR@@XZ 10012160 f i Dlg_StLC.obj
 0001:000111a0       ?SetTanR_S@CDrCurve@@QAEXUVECTOR@@@Z 100121a0 f i Dlg_StLC.obj
 0001:000111e0       ?GetnCon_BS_S@CDrCurve@@QAEHXZ 100121e0 f i Dlg_StLC.obj
 0001:00011210       ?SetnCon_BS_S@CDrCurve@@QAEXH@Z 10012210 f i Dlg_StLC.obj
 0001:00011240       ?GetnCon_BZ_S@CDrCurve@@QAEHXZ 10012240 f i Dlg_StLC.obj
 0001:00011270       ?SetnCon_BZ_S@CDrCurve@@QAEXH@Z 10012270 f i Dlg_StLC.obj
 0001:000112a0       ?GetnMKnots_S@CDrCurve@@QAEHXZ 100122a0 f i Dlg_StLC.obj
 0001:000112d0       ?SetnMKnots_S@CDrCurve@@QAEXH@Z 100122d0 f i Dlg_StLC.obj
 0001:00011300       ?GetnKnots_S@CDrCurve@@QAEHXZ 10012300 f i Dlg_StLC.obj
 0001:00011330       ?SetnKnots_S@CDrCurve@@QAEXH@Z 10012330 f i Dlg_StLC.obj
 0001:00011360       ?GetnDim_S@CDrCurve@@QAEHXZ 10012360 f i Dlg_StLC.obj
 0001:00011390       ?SetnDim_S@CDrCurve@@QAEXH@Z 10012390 f i Dlg_StLC.obj
 0001:000113c0       ?GetpMKnots_S@CDrCurve@@QAEPANXZ 100123c0 f i Dlg_StLC.obj
 0001:000113f0       ?SetpMKnots_S@CDrCurve@@QAEXPAN@Z 100123f0 f i Dlg_StLC.obj
 0001:00011420       ?GetpWts_BS_S@CDrCurve@@QAEPANXZ 10012420 f i Dlg_StLC.obj
 0001:00011450       ?SetpWts_BS_S@CDrCurve@@QAEXPAN@Z 10012450 f i Dlg_StLC.obj
 0001:00011480       ?GetpKnots_S@CDrCurve@@QAEPANXZ 10012480 f i Dlg_StLC.obj
 0001:000114b0       ?SetpKnots_S@CDrCurve@@QAEXPAN@Z 100124b0 f i Dlg_StLC.obj
 0001:000114e0       ?GetpWts_DT_S@CDrCurve@@QAEPANXZ 100124e0 f i Dlg_StLC.obj
 0001:00011510       ?SetpWts_DT_S@CDrCurve@@QAEXPAN@Z 10012510 f i Dlg_StLC.obj
 0001:00011540       ?GetpWts_BZ_S@CDrCurve@@QAEPANXZ 10012540 f i Dlg_StLC.obj
 0001:00011570       ?SetpWts_BZ_S@CDrCurve@@QAEXPAN@Z 10012570 f i Dlg_StLC.obj
 0001:000115a0       ?GetFromIDNode_S@CDrCurve@@QAEPAVCDrNode@@XZ 100125a0 f i Dlg_StLC.obj
 0001:000115d0       ?SetFromIDNode_S@CDrCurve@@QAEXPAVCDrNode@@@Z 100125d0 f i Dlg_StLC.obj
 0001:00011600       ?GetToIDNode_S@CDrCurve@@QAEPAVCDrNode@@XZ 10012600 f i Dlg_StLC.obj
 0001:00011630       ?SetToIDNode_S@CDrCurve@@QAEXPAVCDrNode@@@Z 10012630 f i Dlg_StLC.obj
 0001:00011660       ?GetData_Ex_S@CDrCurve@@QAEHXZ 10012660 f i Dlg_StLC.obj
 0001:00011690       ?SetData_Ex_S@CDrCurve@@QAEXH@Z 10012690 f i Dlg_StLC.obj
 0001:000116c0       ?IsExpanded_S@CDrCurve@@QAEHXZ 100126c0 f i Dlg_StLC.obj
 0001:000116f0       ?SetExpanded_S@CDrCurve@@QAEXH@Z 100126f0 f i Dlg_StLC.obj
 0001:00011720       ?GetMaxENodes_S@CDrCurve@@QAEHXZ 10012720 f i Dlg_StLC.obj
 0001:00011750       ?SetMaxENodes_S@CDrCurve@@QAEXH@Z 10012750 f i Dlg_StLC.obj
 0001:00011780       ?GetRadius_S@CDrCurve@@QAENXZ 10012780 f i Dlg_StLC.obj
 0001:000117b0       ?SetRadius_S@CDrCurve@@QAEXN@Z 100127b0 f i Dlg_StLC.obj
 0001:000117f0       ?GetTheta_S@CDrCurve@@QAENXZ 100127f0 f i Dlg_StLC.obj
 0001:00011820       ?SetTheta_S@CDrCurve@@QAEXN@Z 10012820 f i Dlg_StLC.obj
 0001:00011860       ?GetCenter_S@CDrCurve@@QAE?AUWORLD@@XZ 10012860 f i Dlg_StLC.obj
 0001:000118a0       ?SetCenter_S@CDrCurve@@QAEXUWORLD@@@Z 100128a0 f i Dlg_StLC.obj
 0001:00011910       ?GetNormal_S@CDrCurve@@QAE?AUWORLD@@XZ 10012910 f i Dlg_StLC.obj
 0001:00011950       ?SetNormal_S@CDrCurve@@QAEXUWORLD@@@Z 10012950 f i Dlg_StLC.obj
 0001:000119c0       ?GetSegAngle_S@CDrCurve@@QAENXZ 100129c0 f i Dlg_StLC.obj
 0001:000119f0       ?SetSegAngle_S@CDrCurve@@QAEXN@Z 100129f0 f i Dlg_StLC.obj
 0001:00011a30       ?GetCNode_CC@CDrCurve@@QAEPAVCDrNode@@XZ 10012a30 f i Dlg_StLC.obj
 0001:00011a60       ?SetCNode_CC@CDrCurve@@QAEXPAVCDrNode@@@Z 10012a60 f i Dlg_StLC.obj
 0001:00011a90       ?GetCNode_TI@CDrCurve@@QAEPAVCDrNode@@XZ 10012a90 f i Dlg_StLC.obj
 0001:00011ac0       ?SetCNode_TI@CDrCurve@@QAEXPAVCDrNode@@@Z 10012ac0 f i Dlg_StLC.obj
 0001:00011af0       ?GetCNode_CA@CDrCurve@@QAEPAVCDrNode@@XZ 10012af0 f i Dlg_StLC.obj
 0001:00011b20       ?SetCNode_CA@CDrCurve@@QAEXPAVCDrNode@@@Z 10012b20 f i Dlg_StLC.obj
 0001:00011b50       ?GetCNode_CB@CDrCurve@@QAEPAVCDrNode@@XZ 10012b50 f i Dlg_StLC.obj
 0001:00011b80       ?SetCNode_CB@CDrCurve@@QAEXPAVCDrNode@@@Z 10012b80 f i Dlg_StLC.obj
 0001:00011bb0       ?IsHole_S@CDrCurve@@QAEHXZ 10012bb0 f i Dlg_StLC.obj
 0001:00011be0       ?SetHole_S@CDrCurve@@QAEXH@Z 10012be0 f i Dlg_StLC.obj
 0001:00011c10       ?GetpTangents_S@CDrCurve@@QAEPAUWORLD@@XZ 10012c10 f i Dlg_StLC.obj
 0001:00011c40       ?SetpTangents_S@CDrCurve@@QAEXPAUWORLD@@@Z 10012c40 f i Dlg_StLC.obj
 0001:00011c70       ?GetpCurvatures_S@CDrCurve@@QAEPANXZ 10012c70 f i Dlg_StLC.obj
 0001:00011ca0       ?SetpCurvatures_S@CDrCurve@@QAEXPAN@Z 10012ca0 f i Dlg_StLC.obj
 0001:00011cd0       ?GetRatio_S@CDrCurve@@QAENXZ 10012cd0 f i Dlg_StLC.obj
 0001:00011d00       ?SetRatio_S@CDrCurve@@QAEXN@Z 10012d00 f i Dlg_StLC.obj
 0001:00011d40       ?IsAxisInput@CDrCurve@@QAEHXZ 10012d40 f i Dlg_StLC.obj
 0001:00011d70       ?SetAxisInput@CDrCurve@@QAEXH@Z 10012d70 f i Dlg_StLC.obj
 0001:00011da0       ?GetAxis@CDrCurve@@QAEHXZ  10012da0 f i Dlg_StLC.obj
 0001:00011dd0       ?SetAxis@CDrCurve@@QAEXH@Z 10012dd0 f i Dlg_StLC.obj
 0001:00011e00       ?IsNegative@CDrCurve@@QAEHXZ 10012e00 f i Dlg_StLC.obj
 0001:00011e30       ?SetNegative@CDrCurve@@QAEXH@Z 10012e30 f i Dlg_StLC.obj
 0001:00011e60       ?GetCircleType@CDrCurve@@QAE?AW4CIRCLETYPE@@XZ 10012e60 f i Dlg_StLC.obj
 0001:00011e90       ?SetCircleType@CDrCurve@@QAEXW4CIRCLETYPE@@@Z 10012e90 f i Dlg_StLC.obj
 0001:00011ec0       ?GetInputType@CDrCurve@@QAEHXZ 10012ec0 f i Dlg_StLC.obj
 0001:00011ef0       ?SetInputType@CDrCurve@@QAEXH@Z 10012ef0 f i Dlg_StLC.obj
 0001:00011f20       ?IsArcType@CDrCurve@@QAEHXZ 10012f20 f i Dlg_StLC.obj
 0001:00011f50       ?SetArcType@CDrCurve@@QAEXH@Z 10012f50 f i Dlg_StLC.obj
 0001:00011f80       ?GetElperSegList_S@CDrCurve@@QAEPAV?$CList@HH@@XZ 10012f80 f i Dlg_StLC.obj
 0001:00011fb0       ?IsSkewed@CDrCurve@@UAEHXZ 10012fb0 f i Dlg_StLC.obj
 0001:00011fe0       ?SetSkewed@CDrCurve@@UAEXH@Z 10012fe0 f i Dlg_StLC.obj
 0001:00012010       ?IsLinSpr@CDrCurve@@UAEHXZ 10013010 f i Dlg_StLC.obj
 0001:00012040       ?SetLinSpr@CDrCurve@@UAEXH@Z 10013040 f i Dlg_StLC.obj
 0001:00012070       ?IsLinSnu@CDrCurve@@UAEHXZ 10013070 f i Dlg_StLC.obj
 0001:000120a0       ?SetLinSnu@CDrCurve@@UAEXH@Z 100130a0 f i Dlg_StLC.obj
 0001:000120d0       ?CullWorld@CDrCurve@@UAEHUWORLD@@@Z 100130d0 f i Dlg_StLC.obj
 0001:000120f0       ?CullScreen@CDrCurve@@UAEHPAUMATRIX@@@Z 100130f0 f i Dlg_StLC.obj
 0001:00012110       ?Calc_CentroidWorld@CDrCurve@@UAEXXZ 10013110 f i Dlg_StLC.obj
 0001:00012130       ?Calc_CentroidEye@CDrCurve@@UAEXXZ 10013130 f i Dlg_StLC.obj
 0001:00012150       ?Calc_CentroidScreen3D@CDrCurve@@UAEXNN@Z 10013150 f i Dlg_StLC.obj
 0001:00012170       ?Calc_NormalWorld@CDrCurve@@UAEXXZ 10013170 f i Dlg_StLC.obj
 0001:00012190       ?TransformNormalToEye@CDrCurve@@UAEXPAUMATRIX@@@Z 10013190 f i Dlg_StLC.obj
 0001:000121b0       ?ProjectNormalToScreen3D@CDrCurve@@UAEXPAUMATRIX@@NN@Z 100131b0 f i Dlg_StLC.obj
 0001:000121d0       ?GetNormalWorld@CDrCurve@@UAEPAUWORLD@@XZ 100131d0 f i Dlg_StLC.obj
 0001:000121f0       ?SetNormalWorld@CDrCurve@@UAEXUWORLD@@@Z 100131f0 f i Dlg_StLC.obj
 0001:00012210       ?GetNormalEye@CDrCurve@@UAEPAUWORLD@@XZ 10013210 f i Dlg_StLC.obj
 0001:00012230       ?SetNormalEye@CDrCurve@@UAEXUWORLD@@@Z 10013230 f i Dlg_StLC.obj
 0001:00012250       ?GetNormalScreen3D@CDrCurve@@UAEPAUWORLD@@XZ 10013250 f i Dlg_StLC.obj
 0001:00012270       ?SetNormalScreen3D@CDrCurve@@UAEXUWORLD@@@Z 10013270 f i Dlg_StLC.obj
 0001:00012290       ?GetNormalScreen2D@CDrCurve@@UAEPAUtagPOINT@@XZ 10013290 f i Dlg_StLC.obj
 0001:000122b0       ?SetNormalScreen2D@CDrCurve@@UAEXUtagPOINT@@@Z 100132b0 f i Dlg_StLC.obj
 0001:000122d0       ?GetNodTopoList@CDrCurve@@QAEPAVCDListMgr@@XZ 100132d0 f i Dlg_StLC.obj
 0001:00012300       ?GetSuppCardList@CDrCurve@@QAEPAV?$CList@Usupportcard@@U1@@@XZ 10013300 f i Dlg_StLC.obj
 0001:00012330       ?GetStaLCardList@CDrCurve@@QAEPAV?$CList@UstaLcard@@U1@@@XZ 10013330 f i Dlg_StLC.obj
 0001:00012360       ?GetBndryPtList@CDrCurve@@QAEPAV?$CList@UWORLD@@U1@@@XZ 10013360 f i Dlg_StLC.obj
 0001:00012390       ?GetBezierType@CDrCurve@@QAE?AW4BEZIERTYPE@@XZ 10013390 f i Dlg_StLC.obj
 0001:000123c0       ?SetBezierType@CDrCurve@@QAEXW4BEZIERTYPE@@@Z 100133c0 f i Dlg_StLC.obj
 0001:000123f0       ??1CDlg_StLC@@UAE@XZ       100133f0 f i Dlg_StLC.obj
 0001:000124a0       ??_FCDlg_StLC@@QAEXXZ      100134a0 f i Dlg_StLC.obj
 0001:000124d0       ??0CDlg_StLC@@QAE@PAVCWnd@@@Z 100134d0 f   Dlg_StLC.obj
 0001:00012680       ??_GCDlg_StLC@@UAEPAXI@Z   10013680 f i Dlg_StLC.obj
 0001:000126c0       ??_ECDlg_StLC@@UAEPAXI@Z   100136c0 f i Dlg_StLC.obj
 0001:00012760       ?DoDataExchange@CDlg_StLC@@MAEXPAVCDataExchange@@@Z 10013760 f   Dlg_StLC.obj
 0001:00012840       ?_GetBaseMessageMap@CDlg_StLC@@KGPBUAFX_MSGMAP@@XZ 10013840 f   Dlg_StLC.obj
 0001:00012860       ?GetMessageMap@CDlg_StLC@@MBEPBUAFX_MSGMAP@@XZ 10013860 f   Dlg_StLC.obj
 0001:00012880       ?OnInitDialog@CDlg_StLC@@MAEHXZ 10013880 f   Dlg_StLC.obj
 0001:00012990       ?EnableControls@CDlg_StLC@@IAEXXZ 10013990 f   Dlg_StLC.obj
 0001:00012bd0       ?OnIncrement@CDlg_StLC@@IAEXXZ 10013bd0 f   Dlg_StLC.obj
 0001:00012c30       ?OnOK@CDlg_StLC@@MAEXXZ    10013c30 f   Dlg_StLC.obj
 0001:00012cf0       ?OnCancel@CDlg_StLC@@MAEXXZ 10013cf0 f   Dlg_StLC.obj
 0001:00012d20       ?FillListAllCurveIDs@CDlg_StLC@@IAEXXZ 10013d20 f   Dlg_StLC.obj
 0001:00012ed0       ?IsSubDivided@CTriangle@@UAEHXZ 10013ed0 f i dlg_StLI.obj
 0001:00012ef0       ?SetSubDivided@CTriangle@@UAEXH@Z 10013ef0 f i dlg_StLI.obj
 0001:00012f20       ?GetSubTriangleIndex@CTriangle@@UAEHH@Z 10013f20 f i dlg_StLI.obj
 0001:00012f50       ?SetSubTriangleIndex@CTriangle@@UAEXHH@Z 10013f50 f i dlg_StLI.obj
 0001:00012f80       ?GetType@CTriangle@@UAEHXZ 10013f80 f i dlg_StLI.obj
 0001:00012fa0       ?SetType@CTriangle@@UAEXH@Z 10013fa0 f i dlg_StLI.obj
 0001:00012fd0       ?GetCNIndexList@CTriangle@@UAEPAV?$CList@HH@@XZ 10013fd0 f i dlg_StLI.obj
 0001:00012ff0       ?GetPatIndex@CTriangle@@UAEHXZ 10013ff0 f i dlg_StLI.obj
 0001:00013010       ?SetPatIndex@CTriangle@@UAEXH@Z 10014010 f i dlg_StLI.obj
 0001:00013040       ?GetDegree@CTriangle@@UAEHXZ 10014040 f i dlg_StLI.obj
 0001:00013060       ?SetDegree@CTriangle@@UAEXH@Z 10014060 f i dlg_StLI.obj
 0001:00013090       ?GetVertexIndex@CTriangle@@UAEHH@Z 10014090 f i dlg_StLI.obj
 0001:000130c0       ?SetVertexIndex@CTriangle@@UAEXHH@Z 100140c0 f i dlg_StLI.obj
 0001:000130f0       ?GetVertexIndex@CTriangle@@UAEPAHXZ 100140f0 f i dlg_StLI.obj
 0001:00013110       ?GetNebrVertexIndex@CTriangle@@UAEHH@Z 10014110 f i dlg_StLI.obj
 0001:00013140       ?SetNebrVertexIndex@CTriangle@@UAEXHH@Z 10014140 f i dlg_StLI.obj
 0001:00013170       ?GetNebrVertexIndex@CTriangle@@UAEPAHXZ 10014170 f i dlg_StLI.obj
 0001:00013190       ?GetNebrTriangleIndex@CTriangle@@UAEHH@Z 10014190 f i dlg_StLI.obj
 0001:000131c0       ?SetNebrTriangleIndex@CTriangle@@UAEXHH@Z 100141c0 f i dlg_StLI.obj
 0001:000131f0       ?GetNebrTriangleIndex@CTriangle@@UAEPAHXZ 100141f0 f i dlg_StLI.obj
 0001:00013210       ?GetOutSeg@CTriangle@@UAEHXZ 10014210 f i dlg_StLI.obj
 0001:00013230       ?SetOutSeg@CTriangle@@UAEXH@Z 10014230 f i dlg_StLI.obj
 0001:00013260       ?GetiOutGlo@CTriangle@@UAEHXZ 10014260 f i dlg_StLI.obj
 0001:00013290       ?SetiOutGlo@CTriangle@@UAEXH@Z 10014290 f i dlg_StLI.obj
 0001:000132c0       ?GetjOutGlo@CTriangle@@UAEHXZ 100142c0 f i dlg_StLI.obj
 0001:000132f0       ?SetjOutGlo@CTriangle@@UAEXH@Z 100142f0 f i dlg_StLI.obj
 0001:00013320       ??1CTriangle@@UAE@XZ       10014320 f i dlg_StLI.obj
 0001:000133a0       ??_GCTriangle@@UAEPAXI@Z   100143a0 f i dlg_StLI.obj
 0001:000133e0       ??_ECTriangle@@UAEPAXI@Z   100143e0 f i dlg_StLI.obj
 0001:00013480       ?GetCategory@CDrPatch@@UAE?AW4CATEGORY@@XZ 10014480 f i dlg_StLI.obj
 0001:000134a0       ?SetCategory@CDrPatch@@UAEXW4CATEGORY@@@Z 100144a0 f i dlg_StLI.obj
 0001:000134d0       ?IsNormalNeeded@CDrPatch@@UAEHXZ 100144d0 f i dlg_StLI.obj
 0001:00013500       ?SetNormalNeed@CDrPatch@@UAEXH@Z 10014500 f i dlg_StLI.obj
 0001:00013530       ?GetCurveType_T@CDrPatch@@QAE?AW4CURVEPROC@@XZ 10014530 f i dlg_StLI.obj
 0001:00013560       ?SetCurveType_T@CDrPatch@@QAEXW4CURVEPROC@@@Z 10014560 f i dlg_StLI.obj
 0001:00013590       ?GetOutSegUnif_T@CDrPatch@@QAEHXZ 10014590 f i dlg_StLI.obj
 0001:000135c0       ?SetOutSegUnif_T@CDrPatch@@QAEXH@Z 100145c0 f i dlg_StLI.obj
 0001:000135f0       ?IsClosed_T@CDrPatch@@QAEHXZ 100145f0 f i dlg_StLI.obj
 0001:00013620       ?SetClosed_T@CDrPatch@@QAEXH@Z 10014620 f i dlg_StLI.obj
 0001:00013650       ?GetMaxBezSegments_T@CDrPatch@@QAEHXZ 10014650 f i dlg_StLI.obj
 0001:00013680       ?SetMaxBezSegments_T@CDrPatch@@QAEXH@Z 10014680 f i dlg_StLI.obj
 0001:000136b0       ?GetMaxCNodes_T@CDrPatch@@QAEHXZ 100146b0 f i dlg_StLI.obj
 0001:000136e0       ?SetMaxCNodes_T@CDrPatch@@QAEXH@Z 100146e0 f i dlg_StLI.obj
 0001:00013710       ?GetMaxOutPts_T@CDrPatch@@QAEHXZ 10014710 f i dlg_StLI.obj
 0001:00013740       ?SetMaxOutPts_T@CDrPatch@@QAEXH@Z 10014740 f i dlg_StLI.obj
 0001:00013770       ?GetNodes_S@CDrPatch@@QAEHXZ 10014770 f i dlg_StLI.obj
 0001:000137a0       ?SetNodes_S@CDrPatch@@QAEXH@Z 100147a0 f i dlg_StLI.obj
 0001:000137d0       ?GetNodes_T@CDrPatch@@QAEHXZ 100147d0 f i dlg_StLI.obj
 0001:00013800       ?SetNodes_T@CDrPatch@@QAEXH@Z 10014800 f i dlg_StLI.obj
 0001:00013830       ?GetPrimaryDir@CDrPatch@@QAEHXZ 10014830 f i dlg_StLI.obj
 0001:00013860       ?SetPrimaryDir@CDrPatch@@QAEXH@Z 10014860 f i dlg_StLI.obj
 0001:00013890       ?GetBlendCurve@CDrPatch@@QAEPAVCDrCurve@@XZ 10014890 f i dlg_StLI.obj
 0001:000138c0       ?SetBlendCurve@CDrPatch@@QAEXPAVCDrCurve@@@Z 100148c0 f i dlg_StLI.obj
 0001:000138f0       ?GetBlendCurve_U@CDrPatch@@QAEPAVCDrCurve@@XZ 100148f0 f i dlg_StLI.obj
 0001:00013920       ?SetBlendCurve_U@CDrPatch@@QAEXPAVCDrCurve@@@Z 10014920 f i dlg_StLI.obj
 0001:00013950       ?GetBlendCurve_V@CDrPatch@@QAEPAVCDrCurve@@XZ 10014950 f i dlg_StLI.obj
 0001:00013980       ?SetBlendCurve_V@CDrPatch@@QAEXPAVCDrCurve@@@Z 10014980 f i dlg_StLI.obj
 0001:000139b0       ?GetBlendCurve_W@CDrPatch@@QAEPAVCDrCurve@@XZ 100149b0 f i dlg_StLI.obj
 0001:000139e0       ?SetBlendCurve_W@CDrPatch@@QAEXPAVCDrCurve@@@Z 100149e0 f i dlg_StLI.obj
 0001:00013a10       ?GetVCurveList@CDrPatch@@QAEPAVCDListMgr@@XZ 10014a10 f i dlg_StLI.obj
 0001:00013a40       ?GetCurveList_U@CDrPatch@@QAEPAVCDListMgr@@XZ 10014a40 f i dlg_StLI.obj
 0001:00013a70       ?GetCurveList_V@CDrPatch@@QAEPAVCDListMgr@@XZ 10014a70 f i dlg_StLI.obj
 0001:00013aa0       ?GetCurveList_W@CDrPatch@@QAEPAVCDListMgr@@XZ 10014aa0 f i dlg_StLI.obj
 0001:00013ad0       ?GetCurveLatchList_U@CDrPatch@@QAEPAV?$CList@W4CURVELATCH@@W41@@@XZ 10014ad0 f i dlg_StLI.obj
 0001:00013b00       ?GetCurveLatchList_V@CDrPatch@@QAEPAV?$CList@W4CURVELATCH@@W41@@@XZ 10014b00 f i dlg_StLI.obj
 0001:00013b30       ?GetCurveLatchList_W@CDrPatch@@QAEPAV?$CList@W4CURVELATCH@@W41@@@XZ 10014b30 f i dlg_StLI.obj
 0001:00013b60       ?IsAdvancedEnd_U@CDrPatch@@QAEHXZ 10014b60 f i dlg_StLI.obj
 0001:00013b90       ?SetAdvancedEnd_U@CDrPatch@@QAEXH@Z 10014b90 f i dlg_StLI.obj
 0001:00013bc0       ?GetCornerTwist_U@CDrPatch@@QAEPAY01UWORLD@@XZ 10014bc0 f i dlg_StLI.obj
 0001:00013bf0       ?SetCornerTwist_U@CDrPatch@@QAEXPAY01UWORLD@@@Z 10014bf0 f i dlg_StLI.obj
 0001:00013c20       ?GetTwistMethod_U@CDrPatch@@QAE?AW4TWIST@@XZ 10014c20 f i dlg_StLI.obj
 0001:00013c50       ?SetTwistMethod_U@CDrPatch@@QAEXW4TWIST@@@Z 10014c50 f i dlg_StLI.obj
 0001:00013c80       ?IsAdvancedEnd_V@CDrPatch@@QAEHXZ 10014c80 f i dlg_StLI.obj
 0001:00013cb0       ?SetAdvancedEnd_V@CDrPatch@@QAEXH@Z 10014cb0 f i dlg_StLI.obj
 0001:00013ce0       ?GetCornerTwist_V@CDrPatch@@QAEPAY01UWORLD@@XZ 10014ce0 f i dlg_StLI.obj
 0001:00013d10       ?SetCornerTwist_V@CDrPatch@@QAEXPAY01UWORLD@@@Z 10014d10 f i dlg_StLI.obj
 0001:00013d40       ?GetTwistMethod_V@CDrPatch@@QAE?AW4TWIST@@XZ 10014d40 f i dlg_StLI.obj
 0001:00013d70       ?SetTwistMethod_V@CDrPatch@@QAEXW4TWIST@@@Z 10014d70 f i dlg_StLI.obj
 0001:00013da0       ?GetEndList_U@CDrPatch@@QAEPAV?$CList@Ublendend@@U1@@@XZ 10014da0 f i dlg_StLI.obj
 0001:00013dd0       ?GetEndList_V@CDrPatch@@QAEPAV?$CList@Ublendend@@U1@@@XZ 10014dd0 f i dlg_StLI.obj
 0001:00013e00       ?GetElperSegList_T@CDrPatch@@QAEPAV?$CList@HH@@XZ 10014e00 f i dlg_StLI.obj
 0001:00013e30       ?GetCurveID@CDrPatch@@QAE?AVCString@@H@Z 10014e30 f i dlg_StLI.obj
 0001:00013e80       ?SetCurveID@CDrPatch@@QAEXVCString@@H@Z 10014e80 f i dlg_StLI.obj
 0001:00013f00       ?GetBndryCurve@CDrPatch@@QAEPAVCDrCurve@@H@Z 10014f00 f i dlg_StLI.obj
 0001:00013f30       ?SetCurve@CDrPatch@@QAEXPAVCDrCurve@@H@Z 10014f30 f i dlg_StLI.obj
 0001:00013f60       ?GetCurveLatch@CDrPatch@@QAE?AW4CURVELATCH@@H@Z 10014f60 f i dlg_StLI.obj
 0001:00013f90       ?SetCurveLatch@CDrPatch@@QAEXW4CURVELATCH@@H@Z 10014f90 f i dlg_StLI.obj
 0001:00013fc0       ?GetFromIDNode_T@CDrPatch@@QAEPAVCDrNode@@XZ 10014fc0 f i dlg_StLI.obj
 0001:00013ff0       ?SetFromIDNode_T@CDrPatch@@QAEXPAVCDrNode@@@Z 10014ff0 f i dlg_StLI.obj
 0001:00014020       ?GetToIDNode_T@CDrPatch@@QAEPAVCDrNode@@XZ 10015020 f i dlg_StLI.obj
 0001:00014050       ?SetToIDNode_T@CDrPatch@@QAEXPAVCDrNode@@@Z 10015050 f i dlg_StLI.obj
 0001:00014080       ?GetFromPtLocal_T@CDrPatch@@QAEPAUWORLD@@XZ 10015080 f i dlg_StLI.obj
 0001:000140b0       ?SetFromPtLocal_T@CDrPatch@@QAEXUWORLD@@@Z 100150b0 f i dlg_StLI.obj
 0001:000140f0       ?GetToPtLocal_T@CDrPatch@@QAEPAUWORLD@@XZ 100150f0 f i dlg_StLI.obj
 0001:00014120       ?SetToPtLocal_T@CDrPatch@@QAEXUWORLD@@@Z 10015120 f i dlg_StLI.obj
 0001:00014160       ?GetFromPtWorld_T@CDrPatch@@QAEPAUWORLD@@XZ 10015160 f i dlg_StLI.obj
 0001:00014190       ?SetFromPtWorld_T@CDrPatch@@QAEXUWORLD@@@Z 10015190 f i dlg_StLI.obj
 0001:000141d0       ?GetToPtWorld_T@CDrPatch@@QAEPAUWORLD@@XZ 100151d0 f i dlg_StLI.obj
 0001:00014200       ?SetToPtWorld_T@CDrPatch@@QAEXUWORLD@@@Z 10015200 f i dlg_StLI.obj
 0001:00014240       ?GetFromPtEye_T@CDrPatch@@QAEPAUWORLD@@XZ 10015240 f i dlg_StLI.obj
 0001:00014270       ?SetFromPtEye_T@CDrPatch@@QAEXUWORLD@@@Z 10015270 f i dlg_StLI.obj
 0001:000142b0       ?GetToPtEye_T@CDrPatch@@QAEPAUWORLD@@XZ 100152b0 f i dlg_StLI.obj
 0001:000142e0       ?SetToPtEye_T@CDrPatch@@QAEXUWORLD@@@Z 100152e0 f i dlg_StLI.obj
 0001:00014320       ?GetAxis_T@CDrPatch@@QAEPAUWORLD@@XZ 10015320 f i dlg_StLI.obj
 0001:00014350       ?SetAxis_T@CDrPatch@@QAEXUWORLD@@@Z 10015350 f i dlg_StLI.obj
 0001:00014390       ?GetExtruType_T@CDrPatch@@QAEHXZ 10015390 f i dlg_StLI.obj
 0001:000143c0       ?SetExtruType_T@CDrPatch@@QAEXH@Z 100153c0 f i dlg_StLI.obj
 0001:000143f0       ?GetLength_T@CDrPatch@@QAENXZ 100153f0 f i dlg_StLI.obj
 0001:00014420       ?SetLength_T@CDrPatch@@QAEXN@Z 10015420 f i dlg_StLI.obj
 0001:00014460       ?GetWorldLength_T@CDrPatch@@QAE?AUWORLD@@XZ 10015460 f i dlg_StLI.obj
 0001:000144a0       ?SetWorldLength_T@CDrPatch@@QAEXUWORLD@@@Z 100154a0 f i dlg_StLI.obj
 0001:000144e0       ?GetSegs_T@CDrPatch@@QAEHXZ 100154e0 f i dlg_StLI.obj
 0001:00014510       ?SetSegs_T@CDrPatch@@QAEXH@Z 10015510 f i dlg_StLI.obj
 0001:00014540       ?IsAxisInput_T@CDrPatch@@QAEHXZ 10015540 f i dlg_StLI.obj
 0001:00014570       ?SetAxisInput_T@CDrPatch@@QAEXH@Z 10015570 f i dlg_StLI.obj
 0001:000145a0       ?GetAxisType_T@CDrPatch@@QAEHXZ 100155a0 f i dlg_StLI.obj
 0001:000145d0       ?SetAxisType_T@CDrPatch@@QAEXH@Z 100155d0 f i dlg_StLI.obj
 0001:00014600       ?IsNegative_T@CDrPatch@@QAEHXZ 10015600 f i dlg_StLI.obj
 0001:00014630       ?SetNegative_T@CDrPatch@@QAEXH@Z 10015630 f i dlg_StLI.obj
 0001:00014660       ?GetCircleType_T@CDrPatch@@QAE?AW4CIRCLETYPE@@XZ 10015660 f i dlg_StLI.obj
 0001:00014690       ?SetCircleType_T@CDrPatch@@QAEXW4CIRCLETYPE@@@Z 10015690 f i dlg_StLI.obj
 0001:000146c0       ?GetAng_1_T@CDrPatch@@QAENXZ 100156c0 f i dlg_StLI.obj
 0001:000146f0       ?SetAng_1_T@CDrPatch@@QAEXN@Z 100156f0 f i dlg_StLI.obj
 0001:00014730       ?GetAng_2_T@CDrPatch@@QAENXZ 10015730 f i dlg_StLI.obj
 0001:00014760       ?SetAng_2_T@CDrPatch@@QAEXN@Z 10015760 f i dlg_StLI.obj
 0001:000147a0       ?GetPatchProc@CDrPatch@@QAE?AW4PATCHPROC@@XZ 100157a0 f i dlg_StLI.obj
 0001:000147d0       ?SetPatchProc@CDrPatch@@QAEXW4PATCHPROC@@@Z 100157d0 f i dlg_StLI.obj
 0001:00014800       ?GetPatchType@CDrPatch@@QAE?AW4PATCHTYPE@@XZ 10015800 f i dlg_StLI.obj
 0001:00014830       ?SetPatchType@CDrPatch@@QAEXW4PATCHTYPE@@@Z 10015830 f i dlg_StLI.obj
 0001:00014860       ?GetPatSubType@CDrPatch@@QAE?AW4PATSUBTYPE@@XZ 10015860 f i dlg_StLI.obj
 0001:00014890       ?SetPatSubType@CDrPatch@@QAEXW4PATSUBTYPE@@@Z 10015890 f i dlg_StLI.obj
 0001:000148c0       ?GetOut_S@CDrPatch@@QAEHXZ 100158c0 f i dlg_StLI.obj
 0001:000148f0       ?SetOut_S@CDrPatch@@QAEXH@Z 100158f0 f i dlg_StLI.obj
 0001:00014920       ?GetOut_T@CDrPatch@@QAEHXZ 10015920 f i dlg_StLI.obj
 0001:00014950       ?SetOut_T@CDrPatch@@QAEXH@Z 10015950 f i dlg_StLI.obj
 0001:00014980       ?GetTotalElems@CDrPatch@@QAEJXZ 10015980 f i dlg_StLI.obj
 0001:000149b0       ?SetTotalElems@CDrPatch@@QAEXJ@Z 100159b0 f i dlg_StLI.obj
 0001:000149e0       ?GetPtrTangents_S@CDrPatch@@QAEPAUWORLD@@XZ 100159e0 f i dlg_StLI.obj
 0001:00014a10       ?GetPtrTangents_T@CDrPatch@@QAEPAUWORLD@@XZ 10015a10 f i dlg_StLI.obj
 0001:00014a40       ?GetPtrNormals@CDrPatch@@QAEPAUWORLD@@XZ 10015a40 f i dlg_StLI.obj
 0001:00014a70       ?GetPtrTwists@CDrPatch@@QAEPAUWORLD@@XZ 10015a70 f i dlg_StLI.obj
 0001:00014aa0       ?GetMemIn@CDrPatch@@UAEPAUWORLD@@H@Z 10015aa0 f i dlg_StLI.obj
 0001:00014ad0       ?SetMemIn@CDrPatch@@UAEXPAUWORLD@@H@Z 10015ad0 f i dlg_StLI.obj
 0001:00014b00       ?SetMemIn@CDrPatch@@UAEXPAUWORLD@@@Z 10015b00 f i dlg_StLI.obj
 0001:00014b30       ?SetMemInDP@CDrPatch@@UAEXPAUtagPOINT@@@Z 10015b30 f i dlg_StLI.obj
 0001:00014b60       ?SetMemOut@CDrPatch@@UAEXPAUWORLD@@@Z 10015b60 f i dlg_StLI.obj
 0001:00014b90       ?SetMemOutDP@CDrPatch@@UAEXPAUtagPOINT@@@Z 10015b90 f i dlg_StLI.obj
 0001:00014bc0       ?IsUniform_T@CDrPatch@@QAEHXZ 10015bc0 f i dlg_StLI.obj
 0001:00014bf0       ?SetUniform_T@CDrPatch@@QAEXH@Z 10015bf0 f i dlg_StLI.obj
 0001:00014c20       ?GetClass_T@CDrPatch@@QAEHXZ 10015c20 f i dlg_StLI.obj
 0001:00014c50       ?SetClass_T@CDrPatch@@QAEXH@Z 10015c50 f i dlg_StLI.obj
 0001:00014c80       ?GetOrder_T@CDrPatch@@QAEHXZ 10015c80 f i dlg_StLI.obj
 0001:00014cb0       ?SetOrder_T@CDrPatch@@QAEXH@Z 10015cb0 f i dlg_StLI.obj
 0001:00014ce0       ?GetnDim_T@CDrPatch@@QAEHXZ 10015ce0 f i dlg_StLI.obj
 0001:00014d10       ?SetnDim_T@CDrPatch@@QAEXH@Z 10015d10 f i dlg_StLI.obj
 0001:00014d40       ?GetOutMethod_T@CDrPatch@@QAE?AW4PATCHOUTPUT@@XZ 10015d40 f i dlg_StLI.obj
 0001:00014d70       ?SetOutMethod_T@CDrPatch@@QAEXW4PATCHOUTPUT@@@Z 10015d70 f i dlg_StLI.obj
 0001:00014da0       ?GetMaxOutSeg_T@CDrPatch@@QAEHXZ 10015da0 f i dlg_StLI.obj
 0001:00014dd0       ?SetMaxOutSeg_T@CDrPatch@@QAEXH@Z 10015dd0 f i dlg_StLI.obj
 0001:00014e00       ?GetNum_tPointer_T@CDrPatch@@QAEPAHXZ 10015e00 f i dlg_StLI.obj
 0001:00014e30       ?SetNum_tPointer_T@CDrPatch@@QAEXPAH@Z 10015e30 f i dlg_StLI.obj
 0001:00014e60       ?GetDis_tPointer_T@CDrPatch@@QAEPANXZ 10015e60 f i dlg_StLI.obj
 0001:00014e90       ?SetDis_tPointer_T@CDrPatch@@QAEXPAN@Z 10015e90 f i dlg_StLI.obj
 0001:00014ec0       ?GetNum_tPointer_Ex_T@CDrPatch@@QAEPAHXZ 10015ec0 f i dlg_StLI.obj
 0001:00014ef0       ?SetNum_tPointer_Ex_T@CDrPatch@@QAEXPAH@Z 10015ef0 f i dlg_StLI.obj
 0001:00014f20       ?GetDis_AngPointer_T@CDrPatch@@QAEPANXZ 10015f20 f i dlg_StLI.obj
 0001:00014f50       ?SetDis_AngPointer_T@CDrPatch@@QAEXPAN@Z 10015f50 f i dlg_StLI.obj
 0001:00014f80       ?GetData_Ex_T@CDrPatch@@QAEHXZ 10015f80 f i dlg_StLI.obj
 0001:00014fb0       ?SetData_Ex_T@CDrPatch@@QAEXH@Z 10015fb0 f i dlg_StLI.obj
 0001:00014fe0       ?IsExpanded_T@CDrPatch@@QAEHXZ 10015fe0 f i dlg_StLI.obj
 0001:00015010       ?SetExpanded_T@CDrPatch@@QAEXH@Z 10016010 f i dlg_StLI.obj
 0001:00015040       ?GetMaxENodes_T@CDrPatch@@QAEHXZ 10016040 f i dlg_StLI.obj
 0001:00015070       ?SetMaxENodes_T@CDrPatch@@QAEXH@Z 10016070 f i dlg_StLI.obj
 0001:000150a0       ?GetRadius_T@CDrPatch@@QAENXZ 100160a0 f i dlg_StLI.obj
 0001:000150d0       ?SetRadius_T@CDrPatch@@QAEXN@Z 100160d0 f i dlg_StLI.obj
 0001:00015110       ?GetTheta_T@CDrPatch@@QAENXZ 10016110 f i dlg_StLI.obj
 0001:00015140       ?SetTheta_T@CDrPatch@@QAEXN@Z 10016140 f i dlg_StLI.obj
 0001:00015180       ?GetCenter_T@CDrPatch@@QAE?AUWORLD@@XZ 10016180 f i dlg_StLI.obj
 0001:000151c0       ?SetCenter_T@CDrPatch@@QAEXUWORLD@@@Z 100161c0 f i dlg_StLI.obj
 0001:00015230       ?GetNormal_T@CDrPatch@@QAE?AUWORLD@@XZ 10016230 f i dlg_StLI.obj
 0001:00015270       ?SetNormal_T@CDrPatch@@QAEXUWORLD@@@Z 10016270 f i dlg_StLI.obj
 0001:000152e0       ?GetSegAngle_T@CDrPatch@@QAENXZ 100162e0 f i dlg_StLI.obj
 0001:00015310       ?SetSegAngle_T@CDrPatch@@QAEXN@Z 10016310 f i dlg_StLI.obj
 0001:00015350       ?IsHole_T@CDrPatch@@QAEHXZ 10016350 f i dlg_StLI.obj
 0001:00015380       ?SetHole_T@CDrPatch@@QAEXH@Z 10016380 f i dlg_StLI.obj
 0001:000153b0       ?GetpTangents_T@CDrPatch@@QAEPAUWORLD@@XZ 100163b0 f i dlg_StLI.obj
 0001:000153e0       ?SetpTangents_T@CDrPatch@@QAEXPAUWORLD@@@Z 100163e0 f i dlg_StLI.obj
 0001:00015410       ?GetpCurvatures_T@CDrPatch@@QAEPANXZ 10016410 f i dlg_StLI.obj
 0001:00015440       ?SetpCurvatures_T@CDrPatch@@QAEXPAN@Z 10016440 f i dlg_StLI.obj
 0001:00015470       ?GetRatio_T@CDrPatch@@QAENXZ 10016470 f i dlg_StLI.obj
 0001:000154a0       ?SetRatio_T@CDrPatch@@QAEXN@Z 100164a0 f i dlg_StLI.obj
 0001:000154e0       ?GetTwistType_T@CDrPatch@@QAEHXZ 100164e0 f i dlg_StLI.obj
 0001:00015510       ?SetTwistType_T@CDrPatch@@QAEXH@Z 10016510 f i dlg_StLI.obj
 0001:00015540       ?GetTwistList_T@CDrPatch@@QAEPAV?$CList@NN@@XZ 10016540 f i dlg_StLI.obj
 0001:00015570       ?GetScaleType_T@CDrPatch@@QAEHXZ 10016570 f i dlg_StLI.obj
 0001:000155a0       ?SetScaleType_T@CDrPatch@@QAEXH@Z 100165a0 f i dlg_StLI.obj
 0001:000155d0       ?GetScaleList_T@CDrPatch@@QAEPAV?$CList@NN@@XZ 100165d0 f i dlg_StLI.obj
 0001:00015600       ?IsIncTwist_T@CDrPatch@@QAEHXZ 10016600 f i dlg_StLI.obj
 0001:00015630       ?SetIncTwist_T@CDrPatch@@QAEXH@Z 10016630 f i dlg_StLI.obj
 0001:00015660       ?GetTwistMult_T@CDrPatch@@QAENXZ 10016660 f i dlg_StLI.obj
 0001:00015690       ?SetTwistMult_T@CDrPatch@@QAEXN@Z 10016690 f i dlg_StLI.obj
 0001:000156d0       ?GetTwistStart_T@CDrPatch@@QAENXZ 100166d0 f i dlg_StLI.obj
 0001:00015700       ?SetTwistStart_T@CDrPatch@@QAEXN@Z 10016700 f i dlg_StLI.obj
 0001:00015740       ?IsIncScale_T@CDrPatch@@QAEHXZ 10016740 f i dlg_StLI.obj
 0001:00015770       ?SetIncScale_T@CDrPatch@@QAEXH@Z 10016770 f i dlg_StLI.obj
 0001:000157a0       ?GetScaleMult_T@CDrPatch@@QAENXZ 100167a0 f i dlg_StLI.obj
 0001:000157d0       ?SetScaleMult_T@CDrPatch@@QAEXN@Z 100167d0 f i dlg_StLI.obj
 0001:00015810       ?GetScaleStart_T@CDrPatch@@QAENXZ 10016810 f i dlg_StLI.obj
 0001:00015840       ?SetScaleStart_T@CDrPatch@@QAEXN@Z 10016840 f i dlg_StLI.obj
 0001:00015880       ?GetWorldTwistMult_T@CDrPatch@@QAE?AUWORLD@@XZ 10016880 f i dlg_StLI.obj
 0001:000158c0       ?SetWorldTwistMult_T@CDrPatch@@QAEXUWORLD@@@Z 100168c0 f i dlg_StLI.obj
 0001:00015900       ?GetWorldTwistStart_T@CDrPatch@@QAE?AUWORLD@@XZ 10016900 f i dlg_StLI.obj
 0001:00015940       ?SetWorldTwistStart_T@CDrPatch@@QAEXUWORLD@@@Z 10016940 f i dlg_StLI.obj
 0001:00015980       ?GetWorldScaleMult_T@CDrPatch@@QAE?AUWORLD@@XZ 10016980 f i dlg_StLI.obj
 0001:000159c0       ?SetWorldScaleMult_T@CDrPatch@@QAEXUWORLD@@@Z 100169c0 f i dlg_StLI.obj
 0001:00015a00       ?GetWorldScaleStart_T@CDrPatch@@QAE?AUWORLD@@XZ 10016a00 f i dlg_StLI.obj
 0001:00015a40       ?SetWorldScaleStart_T@CDrPatch@@QAEXUWORLD@@@Z 10016a40 f i dlg_StLI.obj
 0001:00015a80       ?GetTriangleList@CDrPatch@@UAEPAVCDListMgr@@XZ 10016a80 f i dlg_StLI.obj
 0001:00015ab0       ?GetnOutGlo_S@CDrPatch@@QAEHXZ 10016ab0 f i dlg_StLI.obj
 0001:00015ae0       ?SetnOutGlo_S@CDrPatch@@QAEXH@Z 10016ae0 f i dlg_StLI.obj
 0001:00015b10       ?IsGenBCurve@CDrPatch@@QAEHXZ 10016b10 f i dlg_StLI.obj
 0001:00015b40       ?SetGenBCurve@CDrPatch@@QAEXH@Z 10016b40 f i dlg_StLI.obj
 0001:00015b70       ?IsNormalNeeded@CDrSolid@@UAEHXZ 10016b70 f i dlg_StLI.obj
 0001:00015ba0       ?SetNormalNeed@CDrSolid@@UAEXH@Z 10016ba0 f i dlg_StLI.obj
 0001:00015bd0       ?GetCurveType_R@CDrSolid@@QAE?AW4CURVEPROC@@XZ 10016bd0 f i dlg_StLI.obj
 0001:00015c00       ?SetCurveType_R@CDrSolid@@QAEXW4CURVEPROC@@@Z 10016c00 f i dlg_StLI.obj
 0001:00015c30       ?GetOutSegUnif_R@CDrSolid@@QAEHXZ 10016c30 f i dlg_StLI.obj
 0001:00015c60       ?SetOutSegUnif_R@CDrSolid@@QAEXH@Z 10016c60 f i dlg_StLI.obj
 0001:00015c90       ?IsClosed_R@CDrSolid@@QAEHXZ 10016c90 f i dlg_StLI.obj
 0001:00015cc0       ?SetClosed_R@CDrSolid@@QAEXH@Z 10016cc0 f i dlg_StLI.obj
 0001:00015cf0       ?GetSolidObjectType@CDrSolid@@QAEHXZ 10016cf0 f i dlg_StLI.obj
 0001:00015d20       ?SetSolidObjectType@CDrSolid@@QAEXH@Z 10016d20 f i dlg_StLI.obj
 0001:00015d50       ?GetMaxBezSegments_R@CDrSolid@@QAEHXZ 10016d50 f i dlg_StLI.obj
 0001:00015d80       ?SetMaxBezSegments_R@CDrSolid@@QAEXH@Z 10016d80 f i dlg_StLI.obj
 0001:00015db0       ?GetMaxCNodes_R@CDrSolid@@QAEHXZ 10016db0 f i dlg_StLI.obj
 0001:00015de0       ?SetMaxCNodes_R@CDrSolid@@QAEXH@Z 10016de0 f i dlg_StLI.obj
 0001:00015e10       ?GetMaxOutPts_R@CDrSolid@@QAEHXZ 10016e10 f i dlg_StLI.obj
 0001:00015e40       ?SetMaxOutPts_R@CDrSolid@@QAEXH@Z 10016e40 f i dlg_StLI.obj
 0001:00015e70       ?GetPatchID@CDrSolid@@QAE?AVCString@@H@Z 10016e70 f i dlg_StLI.obj
 0001:00015ec0       ?SetPatchID@CDrSolid@@QAEXVCString@@H@Z 10016ec0 f i dlg_StLI.obj
 0001:00015f40       ?GetFromIDNode_R@CDrSolid@@QAEPAVCDrNode@@XZ 10016f40 f i dlg_StLI.obj
 0001:00015f70       ?SetFromIDNode_R@CDrSolid@@QAEXPAVCDrNode@@@Z 10016f70 f i dlg_StLI.obj
 0001:00015fa0       ?GetToIDNode_R@CDrSolid@@QAEPAVCDrNode@@XZ 10016fa0 f i dlg_StLI.obj
 0001:00015fd0       ?SetToIDNode_R@CDrSolid@@QAEXPAVCDrNode@@@Z 10016fd0 f i dlg_StLI.obj
 0001:00016000       ?GetFromPtLocal_R@CDrSolid@@QAEPAUWORLD@@XZ 10017000 f i dlg_StLI.obj
 0001:00016030       ?SetFromPtLocal_R@CDrSolid@@QAEXUWORLD@@@Z 10017030 f i dlg_StLI.obj
 0001:00016070       ?GetToPtLocal_R@CDrSolid@@QAEPAUWORLD@@XZ 10017070 f i dlg_StLI.obj
 0001:000160a0       ?SetToPtLocal_R@CDrSolid@@QAEXUWORLD@@@Z 100170a0 f i dlg_StLI.obj
 0001:000160e0       ?GetFromPtWorld_R@CDrSolid@@QAEPAUWORLD@@XZ 100170e0 f i dlg_StLI.obj
 0001:00016110       ?SetFromPtWorld_R@CDrSolid@@QAEXUWORLD@@@Z 10017110 f i dlg_StLI.obj
 0001:00016150       ?GetToPtWorld_R@CDrSolid@@QAEPAUWORLD@@XZ 10017150 f i dlg_StLI.obj
 0001:00016180       ?SetToPtWorld_R@CDrSolid@@QAEXUWORLD@@@Z 10017180 f i dlg_StLI.obj
 0001:000161c0       ?GetFromPtEye_R@CDrSolid@@QAEPAUWORLD@@XZ 100171c0 f i dlg_StLI.obj
 0001:000161f0       ?SetFromPtEye_R@CDrSolid@@QAEXUWORLD@@@Z 100171f0 f i dlg_StLI.obj
 0001:00016230       ?GetToPtEye_R@CDrSolid@@QAEPAUWORLD@@XZ 10017230 f i dlg_StLI.obj
 0001:00016260       ?SetToPtEye_R@CDrSolid@@QAEXUWORLD@@@Z 10017260 f i dlg_StLI.obj
 0001:000162a0       ?GetAxis_R@CDrSolid@@QAEPAUWORLD@@XZ 100172a0 f i dlg_StLI.obj
 0001:000162d0       ?SetAxis_R@CDrSolid@@QAEXUWORLD@@@Z 100172d0 f i dlg_StLI.obj
 0001:00016310       ?GetExtruType_R@CDrSolid@@QAEHXZ 10017310 f i dlg_StLI.obj
 0001:00016340       ?SetExtruType_R@CDrSolid@@QAEXH@Z 10017340 f i dlg_StLI.obj
 0001:00016370       ?GetLength_R@CDrSolid@@QAENXZ 10017370 f i dlg_StLI.obj
 0001:000163a0       ?SetLength_R@CDrSolid@@QAEXN@Z 100173a0 f i dlg_StLI.obj
 0001:000163e0       ?GetWorldLength_R@CDrSolid@@QAE?AUWORLD@@XZ 100173e0 f i dlg_StLI.obj
 0001:00016420       ?SetWorldLength_R@CDrSolid@@QAEXUWORLD@@@Z 10017420 f i dlg_StLI.obj
 0001:00016460       ?GetSegs_R@CDrSolid@@QAEHXZ 10017460 f i dlg_StLI.obj
 0001:00016490       ?SetSegs_R@CDrSolid@@QAEXH@Z 10017490 f i dlg_StLI.obj
 0001:000164c0       ?GetSolidProc@CDrSolid@@QAE?AW4SOLIDPROC@@XZ 100174c0 f i dlg_StLI.obj
 0001:000164f0       ?SetSolidProc@CDrSolid@@QAEXW4SOLIDPROC@@@Z 100174f0 f i dlg_StLI.obj
 0001:00016520       ?GetSolidType@CDrSolid@@QAE?AW4SOLIDTYPE@@XZ 10017520 f i dlg_StLI.obj
 0001:00016550       ?SetSolidType@CDrSolid@@QAEXW4SOLIDTYPE@@@Z 10017550 f i dlg_StLI.obj
 0001:00016580       ?GetSolSubType@CDrSolid@@QAE?AW4SOLSUBTYPE@@XZ 10017580 f i dlg_StLI.obj
 0001:000165b0       ?SetSolSubType@CDrSolid@@QAEXW4SOLSUBTYPE@@@Z 100175b0 f i dlg_StLI.obj
 0001:000165e0       ?GetOut_R@CDrSolid@@QAEHXZ 100175e0 f i dlg_StLI.obj
 0001:00016610       ?SetOut_R@CDrSolid@@QAEXH@Z 10017610 f i dlg_StLI.obj
 0001:00016640       ?IsUniform_R@CDrSolid@@QAEHXZ 10017640 f i dlg_StLI.obj
 0001:00016670       ?SetUniform_R@CDrSolid@@QAEXH@Z 10017670 f i dlg_StLI.obj
 0001:000166a0       ?GetOrder_R@CDrSolid@@QAEHXZ 100176a0 f i dlg_StLI.obj
 0001:000166d0       ?SetOrder_R@CDrSolid@@QAEXH@Z 100176d0 f i dlg_StLI.obj
 0001:00016700       ?GetnDim_R@CDrSolid@@QAEHXZ 10017700 f i dlg_StLI.obj
 0001:00016730       ?SetnDim_R@CDrSolid@@QAEXH@Z 10017730 f i dlg_StLI.obj
 0001:00016760       ?GetOutMethod_R@CDrSolid@@QAE?AW4SOLIDOUTPUT@@XZ 10017760 f i dlg_StLI.obj
 0001:00016790       ?SetOutMethod_R@CDrSolid@@QAEXW4SOLIDOUTPUT@@@Z 10017790 f i dlg_StLI.obj
 0001:000167c0       ?GetMaxOutSeg_R@CDrSolid@@QAEHXZ 100177c0 f i dlg_StLI.obj
 0001:000167f0       ?SetMaxOutSeg_R@CDrSolid@@QAEXH@Z 100177f0 f i dlg_StLI.obj
 0001:00016820       ?GetNum_tPointer_R@CDrSolid@@QAEPAHXZ 10017820 f i dlg_StLI.obj
 0001:00016850       ?SetNum_tPointer_R@CDrSolid@@QAEXPAH@Z 10017850 f i dlg_StLI.obj
 0001:00016880       ?GetDis_tPointer_R@CDrSolid@@QAEPANXZ 10017880 f i dlg_StLI.obj
 0001:000168b0       ?SetDis_tPointer_R@CDrSolid@@QAEXPAN@Z 100178b0 f i dlg_StLI.obj
 0001:000168e0       ?GetNum_tPointer_Ex_R@CDrSolid@@QAEPAHXZ 100178e0 f i dlg_StLI.obj
 0001:00016910       ?SetNum_tPointer_Ex_R@CDrSolid@@QAEXPAH@Z 10017910 f i dlg_StLI.obj
 0001:00016940       ?GetDis_AngPointer_R@CDrSolid@@QAEPANXZ 10017940 f i dlg_StLI.obj
 0001:00016970       ?SetDis_AngPointer_R@CDrSolid@@QAEXPAN@Z 10017970 f i dlg_StLI.obj
 0001:000169a0       ?GetNum_tPointer_ST@CDrSolid@@QAEPAHXZ 100179a0 f i dlg_StLI.obj
 0001:000169d0       ?SetNum_tPointer_ST@CDrSolid@@QAEXPAH@Z 100179d0 f i dlg_StLI.obj
 0001:00016a00       ?GetDis_tPointer_ST@CDrSolid@@QAEPANXZ 10017a00 f i dlg_StLI.obj
 0001:00016a30       ?SetDis_tPointer_ST@CDrSolid@@QAEXPAN@Z 10017a30 f i dlg_StLI.obj
 0001:00016a60       ?GetNum_tPointer_Ex_ST@CDrSolid@@QAEPAHXZ 10017a60 f i dlg_StLI.obj
 0001:00016a90       ?SetNum_tPointer_Ex_ST@CDrSolid@@QAEXPAH@Z 10017a90 f i dlg_StLI.obj
 0001:00016ac0       ?GetDis_AngPointer_ST@CDrSolid@@QAEPANXZ 10017ac0 f i dlg_StLI.obj
 0001:00016af0       ?SetDis_AngPointer_ST@CDrSolid@@QAEXPAN@Z 10017af0 f i dlg_StLI.obj
 0001:00016b20       ?GetData_Ex_R@CDrSolid@@QAEHXZ 10017b20 f i dlg_StLI.obj
 0001:00016b50       ?SetData_Ex_R@CDrSolid@@QAEXH@Z 10017b50 f i dlg_StLI.obj
 0001:00016b80       ?IsExpanded_R@CDrSolid@@QAEHXZ 10017b80 f i dlg_StLI.obj
 0001:00016bb0       ?SetExpanded_R@CDrSolid@@QAEXH@Z 10017bb0 f i dlg_StLI.obj
 0001:00016be0       ?GetMaxENodes_R@CDrSolid@@QAEHXZ 10017be0 f i dlg_StLI.obj
 0001:00016c10       ?SetMaxENodes_R@CDrSolid@@QAEXH@Z 10017c10 f i dlg_StLI.obj
 0001:00016c40       ?GetRadius_R@CDrSolid@@QAENXZ 10017c40 f i dlg_StLI.obj
 0001:00016c70       ?SetRadius_R@CDrSolid@@QAEXN@Z 10017c70 f i dlg_StLI.obj
 0001:00016cb0       ?GetTheta_R@CDrSolid@@QAENXZ 10017cb0 f i dlg_StLI.obj
 0001:00016ce0       ?SetTheta_R@CDrSolid@@QAEXN@Z 10017ce0 f i dlg_StLI.obj
 0001:00016d20       ?GetCenter_R@CDrSolid@@QAE?AUWORLD@@XZ 10017d20 f i dlg_StLI.obj
 0001:00016d60       ?SetCenter_R@CDrSolid@@QAEXUWORLD@@@Z 10017d60 f i dlg_StLI.obj
 0001:00016dd0       ?GetNormal_R@CDrSolid@@QAE?AUWORLD@@XZ 10017dd0 f i dlg_StLI.obj
 0001:00016e10       ?SetNormal_R@CDrSolid@@QAEXUWORLD@@@Z 10017e10 f i dlg_StLI.obj
 0001:00016e80       ?GetSegAngle_R@CDrSolid@@QAENXZ 10017e80 f i dlg_StLI.obj
 0001:00016eb0       ?SetSegAngle_R@CDrSolid@@QAEXN@Z 10017eb0 f i dlg_StLI.obj
 0001:00016ef0       ?IsHole_R@CDrSolid@@QAEHXZ 10017ef0 f i dlg_StLI.obj
 0001:00016f20       ?SetHole_R@CDrSolid@@QAEXH@Z 10017f20 f i dlg_StLI.obj
 0001:00016f50       ?GetpTangents_R@CDrSolid@@QAEPAUWORLD@@XZ 10017f50 f i dlg_StLI.obj
 0001:00016f80       ?SetpTangents_R@CDrSolid@@QAEXPAUWORLD@@@Z 10017f80 f i dlg_StLI.obj
 0001:00016fb0       ?GetpCurvatures_R@CDrSolid@@QAEPANXZ 10017fb0 f i dlg_StLI.obj
 0001:00016fe0       ?SetpCurvatures_R@CDrSolid@@QAEXPAN@Z 10017fe0 f i dlg_StLI.obj
 0001:00017010       ?GetRatio_R@CDrSolid@@QAENXZ 10018010 f i dlg_StLI.obj
 0001:00017040       ?SetRatio_R@CDrSolid@@QAEXN@Z 10018040 f i dlg_StLI.obj
 0001:00017080       ?GetTwistType_R@CDrSolid@@QAEHXZ 10018080 f i dlg_StLI.obj
 0001:000170b0       ?SetTwistType_R@CDrSolid@@QAEXH@Z 100180b0 f i dlg_StLI.obj
 0001:000170e0       ?GetTwistList_R@CDrSolid@@QAEPAV?$CList@NN@@XZ 100180e0 f i dlg_StLI.obj
 0001:00017110       ?GetScaleType_R@CDrSolid@@QAEHXZ 10018110 f i dlg_StLI.obj
 0001:00017140       ?SetScaleType_R@CDrSolid@@QAEXH@Z 10018140 f i dlg_StLI.obj
 0001:00017170       ?GetScaleList_R@CDrSolid@@QAEPAV?$CList@NN@@XZ 10018170 f i dlg_StLI.obj
 0001:000171a0       ?IsIncTwist_R@CDrSolid@@QAEHXZ 100181a0 f i dlg_StLI.obj
 0001:000171d0       ?SetIncTwist_R@CDrSolid@@QAEXH@Z 100181d0 f i dlg_StLI.obj
 0001:00017200       ?GetTwistMult_R@CDrSolid@@QAENXZ 10018200 f i dlg_StLI.obj
 0001:00017230       ?SetTwistMult_R@CDrSolid@@QAEXN@Z 10018230 f i dlg_StLI.obj
 0001:00017270       ?GetTwistStart_R@CDrSolid@@QAENXZ 10018270 f i dlg_StLI.obj
 0001:000172a0       ?SetTwistStart_R@CDrSolid@@QAEXN@Z 100182a0 f i dlg_StLI.obj
 0001:000172e0       ?IsIncScale_R@CDrSolid@@QAEHXZ 100182e0 f i dlg_StLI.obj
 0001:00017310       ?SetIncScale_R@CDrSolid@@QAEXH@Z 10018310 f i dlg_StLI.obj
 0001:00017340       ?GetScaleMult_R@CDrSolid@@QAENXZ 10018340 f i dlg_StLI.obj
 0001:00017370       ?SetScaleMult_R@CDrSolid@@QAEXN@Z 10018370 f i dlg_StLI.obj
 0001:000173b0       ?GetScaleStart_R@CDrSolid@@QAENXZ 100183b0 f i dlg_StLI.obj
 0001:000173e0       ?SetScaleStart_R@CDrSolid@@QAEXN@Z 100183e0 f i dlg_StLI.obj
 0001:00017420       ?GetPentaList@CDrSolid@@QAEPAVCDListMgr@@XZ 10018420 f i dlg_StLI.obj
 0001:00017450       ?GetnTriangles_ST@CDrSolid@@QAEHXZ 10018450 f i dlg_StLI.obj
 0001:00017480       ?SetnTriangles_ST@CDrSolid@@QAEXH@Z 10018480 f i dlg_StLI.obj
 0001:000174b0       ?GetElperSegList_R@CDrSolid@@QAEPAV?$CList@HH@@XZ 100184b0 f i dlg_StLI.obj
 0001:000174e0       ?IsGenBPatch@CDrSolid@@QAEHXZ 100184e0 f i dlg_StLI.obj
 0001:00017510       ?SetGenBPatch@CDrSolid@@QAEXH@Z 10018510 f i dlg_StLI.obj
 0001:00017540       ?GetVPatchList@CDrSolid@@QAEPAVCDListMgr@@XZ 10018540 f i dlg_StLI.obj
 0001:00017570       ?GetPatchList_U@CDrSolid@@QAEPAVCDListMgr@@XZ 10018570 f i dlg_StLI.obj
 0001:000175a0       ?GetPatchList_V@CDrSolid@@QAEPAVCDListMgr@@XZ 100185a0 f i dlg_StLI.obj
 0001:000175d0       ?GetPatchList_W@CDrSolid@@QAEPAVCDListMgr@@XZ 100185d0 f i dlg_StLI.obj
 0001:00017600       ?GetPatchLatchList_U@CDrSolid@@QAEPAV?$CList@W4PATCHLATCH@@W41@@@XZ 10018600 f i dlg_StLI.obj
 0001:00017630       ?GetPatchLatchList_V@CDrSolid@@QAEPAV?$CList@W4PATCHLATCH@@W41@@@XZ 10018630 f i dlg_StLI.obj
 0001:00017660       ?GetPatchLatchList_W@CDrSolid@@QAEPAV?$CList@W4PATCHLATCH@@W41@@@XZ 10018660 f i dlg_StLI.obj
 0001:00017690       ?IsAxisInput_R@CDrSolid@@QAEHXZ 10018690 f i dlg_StLI.obj
 0001:000176c0       ?SetAxisInput_R@CDrSolid@@QAEXH@Z 100186c0 f i dlg_StLI.obj
 0001:000176f0       ?GetAxisType_R@CDrSolid@@QAEHXZ 100186f0 f i dlg_StLI.obj
 0001:00017720       ?SetAxisType_R@CDrSolid@@QAEXH@Z 10018720 f i dlg_StLI.obj
 0001:00017750       ?IsNegative_R@CDrSolid@@QAEHXZ 10018750 f i dlg_StLI.obj
 0001:00017780       ?SetNegative_R@CDrSolid@@QAEXH@Z 10018780 f i dlg_StLI.obj
 0001:000177b0       ?GetCircleType_R@CDrSolid@@QAE?AW4CIRCLETYPE@@XZ 100187b0 f i dlg_StLI.obj
 0001:000177e0       ?SetCircleType_R@CDrSolid@@QAEXW4CIRCLETYPE@@@Z 100187e0 f i dlg_StLI.obj
 0001:00017810       ?GetAng_1_R@CDrSolid@@QAENXZ 10018810 f i dlg_StLI.obj
 0001:00017840       ?SetAng_1_R@CDrSolid@@QAEXN@Z 10018840 f i dlg_StLI.obj
 0001:00017880       ?GetAng_2_R@CDrSolid@@QAENXZ 10018880 f i dlg_StLI.obj
 0001:000178b0       ?SetAng_2_R@CDrSolid@@QAEXN@Z 100188b0 f i dlg_StLI.obj
 0001:000178f0       ??1CDlg_StLI@@UAE@XZ       100188f0 f i dlg_StLI.obj
 0001:00017990       ??0CDlg_StLI@@QAE@PAVCWnd@@@Z 10018990 f   dlg_StLI.obj
 0001:00017b00       ??_GCDlg_StLI@@UAEPAXI@Z   10018b00 f i dlg_StLI.obj
 0001:00017b40       ??_ECDlg_StLI@@UAEPAXI@Z   10018b40 f i dlg_StLI.obj
 0001:00017be0       ?DoDataExchange@CDlg_StLI@@MAEXPAVCDataExchange@@@Z 10018be0 f   dlg_StLI.obj
 0001:00017ce0       ?_GetBaseMessageMap@CDlg_StLI@@KGPBUAFX_MSGMAP@@XZ 10018ce0 f   dlg_StLI.obj
 0001:00017d00       ?GetMessageMap@CDlg_StLI@@MBEPBUAFX_MSGMAP@@XZ 10018d00 f   dlg_StLI.obj
 0001:00017d20       ?OnInitDialog@CDlg_StLI@@MAEHXZ 10018d20 f   dlg_StLI.obj
 0001:00017e80       ?Create@CDlg_StLI@@QAEHXZ  10018e80 f   dlg_StLI.obj
 0001:00017fa0       ?OnCancel@CDlg_StLI@@MAEXXZ 10018fa0 f   dlg_StLI.obj
 0001:000180b0       ?OnUpdate@CDlg_StLI@@IAEXXZ 100190b0 f   dlg_StLI.obj
 0001:000181e0       ?OnSelchangeLoadid@CDlg_StLI@@IAEXXZ 100191e0 f   dlg_StLI.obj
 0001:00018210       ?Get_Values_Uniform@CDlg_StLI@@QAEXXZ 10019210 f   dlg_StLI.obj
 0001:00018240       ?OnUniform@CDlg_StLI@@IAEXXZ 10019240 f   dlg_StLI.obj
 0001:00018510       ??1CDlg_Uniform@@UAE@XZ    10019510 f i dlg_StLI.obj
 0001:00018590       ?OnSelchangeComboJctype@CDlg_StLI@@IAEXXZ 10019590 f   dlg_StLI.obj
 0001:00018660       ?OnIsoparConc@CDlg_StLI@@IAEXXZ 10019660 f   dlg_StLI.obj
 0001:000186c0       ?OnIsoparDistrib@CDlg_StLI@@IAEXXZ 100196c0 f   dlg_StLI.obj
 0001:00018720       ?OnNonIso@CDlg_StLI@@IAEXXZ 10019720 f   dlg_StLI.obj
 0001:00018970       ??1?$CList@HH@@UAE@XZ      10019970 f i dlg_StLI.obj
 0001:00018a10       ?Serialize@?$CList@HH@@UAEXAAVCArchive@@@Z 10019a10 f i dlg_StLI.obj
 0001:00018b30       ?Dump@?$CList@HH@@UBEXAAVCDumpContext@@@Z 10019b30 f i dlg_StLI.obj
 0001:00018bf0       ?AssertValid@?$CList@HH@@UBEXXZ 10019bf0 f i dlg_StLI.obj
 0001:00018cf0       ??_E?$CList@HH@@UAEPAXI@Z  10019cf0 f i dlg_StLI.obj
 0001:00018cf0       ??_G?$CList@HH@@UAEPAXI@Z  10019cf0 f i dlg_StLI.obj
 0001:00018d30       ?AddTail@?$CList@HH@@QAEPAU__POSITION@@H@Z 10019d30 f i dlg_StLI.obj
 0001:00018dc0       ?RemoveAll@?$CList@HH@@QAEXXZ 10019dc0 f i dlg_StLI.obj
 0001:00018e70       ?GetHeadPosition@?$CList@HH@@QBEPAU__POSITION@@XZ 10019e70 f i dlg_StLI.obj
 0001:00018e90       ?GetNext@?$CList@HH@@QAEAAHAAPAU__POSITION@@@Z 10019e90 f i dlg_StLI.obj
 0001:00018f00       ?SerializeElements@@YGXAAVCArchive@@PAHH@Z 10019f00 f i dlg_StLI.obj
 0001:00018fa0       ?DumpElements@@YGXAAVCDumpContext@@PBHH@Z 10019fa0 f i dlg_StLI.obj
 0001:00019000       ?NewNode@?$CList@HH@@IAEPAUCNode@1@PAU21@0@Z 1001a000 f i dlg_StLI.obj
 0001:00019170       ?DestructElements@@YGXPAHH@Z 1001a170 f i dlg_StLI.obj
 0001:000191f0       ?ConstructElements@@YGXPAHH@Z 1001a1f0 f i dlg_StLI.obj
 0001:000192a0       ??2@YAPAXIPAX@Z            1001a2a0 f i dlg_StLI.obj
 0001:00019650       ??0CDlg_Uniform@@QAE@PAVCWnd@@@Z 1001a650 f   Dlg_Uniform.obj
 0001:00019740       ??_ECDlg_Uniform@@UAEPAXI@Z 1001a740 f i Dlg_Uniform.obj
 0001:00019740       ??_GCDlg_Uniform@@UAEPAXI@Z 1001a740 f i Dlg_Uniform.obj
 0001:00019780       ?DoDataExchange@CDlg_Uniform@@MAEXPAVCDataExchange@@@Z 1001a780 f   Dlg_Uniform.obj
 0001:00019860       ?_GetBaseMessageMap@CDlg_Uniform@@KGPBUAFX_MSGMAP@@XZ 1001a860 f   Dlg_Uniform.obj
 0001:00019880       ?GetMessageMap@CDlg_Uniform@@MBEPBUAFX_MSGMAP@@XZ 1001a880 f   Dlg_Uniform.obj
 0001:000198a0       ?OnInitDialog@CDlg_Uniform@@MAEHXZ 1001a8a0 f   Dlg_Uniform.obj
 0001:00019e10       ?OnOK@CDlg_Uniform@@MAEXXZ 1001ae10 f   Dlg_Uniform.obj
 0001:00019f20       ?OnCancel@CDlg_Uniform@@MAEXXZ 1001af20 f   Dlg_Uniform.obj
 0001:00019f50       ?SetParallel@CXForm@@UAEXH@Z 1001af50 f i Mi_StaL.obj
 0001:00019f80       ?GetParallel@CXForm@@UAEHXZ 1001af80 f i Mi_StaL.obj
 0001:00019fa0       ??1CXForm@@UAE@XZ          1001afa0 f i Mi_StaL.obj
 0001:00019fd0       ??_GCXForm@@UAEPAXI@Z      1001afd0 f i Mi_StaL.obj
 0001:0001a010       ??_ECXForm@@UAEPAXI@Z      1001b010 f i Mi_StaL.obj
 0001:0001a0b0       ?GetMaxCorners@CDrLabel@@UAEHXZ 1001b0b0 f i Mi_StaL.obj
 0001:0001a0d0       ?SetProjectedCoords@CDrLabel@@UAEXUtagPOINT@@H@Z 1001b0d0 f i Mi_StaL.obj
 0001:0001a110       ?IsMoved@CDrLabel@@UAEHXZ  1001b110 f i Mi_StaL.obj
 0001:0001a140       ?SetMoved@CDrLabel@@UAEXH@Z 1001b140 f i Mi_StaL.obj
 0001:0001a170       ?GetNodePtr@CDrLabel@@UAEPAVCDrNode@@XZ 1001b170 f i Mi_StaL.obj
 0001:0001a1a0       ?SetNodePtr@CDrLabel@@UAEXPAVCDrNode@@@Z 1001b1a0 f i Mi_StaL.obj
 0001:0001a1d0       ?GetContextObj@CDrLabel@@UAE?AW4CONTEXTOBJ@@XZ 1001b1d0 f i Mi_StaL.obj
 0001:0001a200       ?SetContextObj@CDrLabel@@UAEXW4CONTEXTOBJ@@@Z 1001b200 f i Mi_StaL.obj
 0001:0001a230       ?GetMeshElemType@CDrLabel@@UAEIXZ 1001b230 f i Mi_StaL.obj
 0001:0001a260       ?SetMeshElemType@CDrLabel@@UAEXI@Z 1001b260 f i Mi_StaL.obj
 0001:0001a290       ?GetColor@CDrLabel@@UAEKXZ 1001b290 f i Mi_StaL.obj
 0001:0001a2c0       ?SetColor@CDrLabel@@UAEXK@Z 1001b2c0 f i Mi_StaL.obj
 0001:0001a2f0       ?GetViewNum@CDrLabel@@UAEHXZ 1001b2f0 f i Mi_StaL.obj
 0001:0001a320       ?SetViewNum@CDrLabel@@UAEXH@Z 1001b320 f i Mi_StaL.obj
 0001:0001a350       ?GetType@CDrLabel@@UAEHXZ  1001b350 f i Mi_StaL.obj
 0001:0001a380       ?SetType@CDrLabel@@UAEXH@Z 1001b380 f i Mi_StaL.obj
 0001:0001a3b0       ?GetText@CDrLabel@@UAE?AVCString@@XZ 1001b3b0 f i Mi_StaL.obj
 0001:0001a400       ?SetText@CDrLabel@@UAEXVCString@@@Z 1001b400 f i Mi_StaL.obj
 0001:0001a480       ?SetLogFont@CDrLabel@@UAEXUtagLOGFONTA@@@Z 1001b480 f i Mi_StaL.obj
 0001:0001a4c0       ?GetLogFont@CDrLabel@@UAE?AUtagLOGFONTA@@XZ 1001b4c0 f i Mi_StaL.obj
 0001:0001a500       ?GetOtherCorner@CDrLabel@@UAE?AUtagPOINT@@XZ 1001b500 f i Mi_StaL.obj
 0001:0001a540       ?SetOtherCorner@CDrLabel@@UAEXUtagPOINT@@@Z 1001b540 f i Mi_StaL.obj
 0001:0001a580       ?GetAngle@CDrLabel@@UAEHXZ 1001b580 f i Mi_StaL.obj
 0001:0001a5b0       ?SetAngle@CDrLabel@@UAEXH@Z 1001b5b0 f i Mi_StaL.obj
 0001:0001a5e0       ??1CDrLabel@@UAE@XZ        1001b5e0 f i Mi_StaL.obj
 0001:0001a660       ??_GCDrLabel@@UAEPAXI@Z    1001b660 f i Mi_StaL.obj
 0001:0001a6a0       ??_ECDrLabel@@UAEPAXI@Z    1001b6a0 f i Mi_StaL.obj
 0001:0001a740       ?Parse_drPipe@CDrStatic@@UAEPAUstaLcard@@PAVCString@@@Z 1001b740 f i Mi_StaL.obj
 0001:0001a760       ?GetCardNo@CDrStatic@@QAEHXZ 1001b760 f i Mi_StaL.obj
 0001:0001a790       ?SetCardNo@CDrStatic@@QAEXH@Z 1001b790 f i Mi_StaL.obj
 0001:0001a7c0       ?GetStaLCard@CDrStatic@@QAEPAUstaLcard@@XZ 1001b7c0 f i Mi_StaL.obj
 0001:0001a7f0       ?GetNodeList@CDrStatic@@QAEPAVCDListMgr@@XZ 1001b7f0 f i Mi_StaL.obj
 0001:0001a820       ?GetCurveList@CDrStatic@@QAEPAVCDListMgr@@XZ 1001b820 f i Mi_StaL.obj
 0001:0001a850       ?GetPatchList@CDrStatic@@QAEPAVCDListMgr@@XZ 1001b850 f i Mi_StaL.obj
 0001:0001a880       ?GetSolidList@CDrStatic@@QAEPAVCDListMgr@@XZ 1001b880 f i Mi_StaL.obj
 0001:0001a8b0       ?GetLabelNode@CDrStatic@@QAEPAVCDrNode@@XZ 1001b8b0 f i Mi_StaL.obj
 0001:0001a8e0       ?SetLabelNode@CDrStatic@@QAEXPAVCDrNode@@@Z 1001b8e0 f i Mi_StaL.obj
 0001:0001a910       ?GetLabelPtr@CDrStatic@@QAEPAVCDrLabel@@XZ 1001b910 f i Mi_StaL.obj
 0001:0001a940       ?SetLabelPtr@CDrStatic@@QAEXPAVCDrLabel@@@Z 1001b940 f i Mi_StaL.obj
 0001:0001a970       ?GetLabelNo@CDrStatic@@QAEJXZ 1001b970 f i Mi_StaL.obj
 0001:0001a9a0       ?SetLabelNo@CDrStatic@@QAEXJ@Z 1001b9a0 f i Mi_StaL.obj
 0001:0001a9d0       ?GetLocalM@CDrStatic@@QAEPAUMATRIX@@XZ 1001b9d0 f i Mi_StaL.obj
 0001:0001aa00       ?SetLocalM@CDrStatic@@QAEXPAUMATRIX@@@Z 1001ba00 f i Mi_StaL.obj
 0001:0001aa40       ?GetnPts@CDrStatic@@QAEHH@Z 1001ba40 f i Mi_StaL.obj
 0001:0001aa70       ?GetpLoc@CDrStatic@@QAEPAUWORLD@@H@Z 1001ba70 f i Mi_StaL.obj
 0001:0001aaa0       ?IsSkewed@CDrStatic@@UAEHXZ 1001baa0 f i Mi_StaL.obj
 0001:0001aad0       ?SetSkewed@CDrStatic@@UAEXH@Z 1001bad0 f i Mi_StaL.obj
 0001:0001ab00       ?GetSkewMat@CDrStatic@@QAEPAUMATRIX@@XZ 1001bb00 f i Mi_StaL.obj
 0001:0001ab30       ?SetSkewMat@CDrStatic@@QAEXPAUMATRIX@@@Z 1001bb30 f i Mi_StaL.obj
 0001:0001ab70       ?GetCreateBase@CDrStatic@@QAEIXZ 1001bb70 f i Mi_StaL.obj
 0001:0001aba0       ?SetCreateBase@CDrStatic@@QAEXI@Z 1001bba0 f i Mi_StaL.obj
 0001:0001abd0       ?IsTriangle@CDrStatic@@QAEHXZ 1001bbd0 f i Mi_StaL.obj
 0001:0001ac00       ?SetTriangle@CDrStatic@@QAEXH@Z 1001bc00 f i Mi_StaL.obj
 0001:0001ac30       ?IsPentaHed@CDrStatic@@QAEHXZ 1001bc30 f i Mi_StaL.obj
 0001:0001ac60       ?SetPentaHed@CDrStatic@@QAEXH@Z 1001bc60 f i Mi_StaL.obj
 0001:0001ac90       ?GetCreate_i@CDrStatic@@QAEHXZ 1001bc90 f i Mi_StaL.obj
 0001:0001acc0       ?SetCreate_i@CDrStatic@@QAEXH@Z 1001bcc0 f i Mi_StaL.obj
 0001:0001acf0       ?GetCreate_j@CDrStatic@@QAEHXZ 1001bcf0 f i Mi_StaL.obj
 0001:0001ad20       ?SetCreate_j@CDrStatic@@QAEXH@Z 1001bd20 f i Mi_StaL.obj
 0001:0001ad50       ?GetCreate_k@CDrStatic@@QAEHXZ 1001bd50 f i Mi_StaL.obj
 0001:0001ad80       ?SetCreate_k@CDrStatic@@QAEXH@Z 1001bd80 f i Mi_StaL.obj
 0001:0001adb0       ?GetNodPos@CDrStatic@@QAEPAUWORLD@@XZ 1001bdb0 f i Mi_StaL.obj
 0001:0001ade0       ?SetNodPos@CDrStatic@@QAEXAAUWORLD@@@Z 1001bde0 f i Mi_StaL.obj
 0001:0001ae20       ?Setid@CMI_GangN@@QAEXVCString@@@Z 1001be20 f i Mi_StaL.obj
 0001:0001ae90       ?FixMemD@CMI_GangN@@QAEPANJ@Z 1001be90 f i Mi_StaL.obj
 0001:0001aee0       ?FreeMemD@CMI_GangN@@QAEXPAN@Z 1001bee0 f i Mi_StaL.obj
 0001:0001af10       ?FixMem@CMI_GangN@@QAEPAUWORLD@@J@Z 1001bf10 f i Mi_StaL.obj
 0001:0001af60       ?FreeMem@CMI_GangN@@QAEXPAUWORLD@@@Z 1001bf60 f i Mi_StaL.obj
 0001:0001afa0       ?IsNoDefault@CMI_GangC@@QAEHXZ 1001bfa0 f i Mi_StaL.obj
 0001:0001afc0       ?SetNoDefault@CMI_GangC@@QAEXH@Z 1001bfc0 f i Mi_StaL.obj
 0001:0001aff0       ?IsAxisInput@CMI_GangC@@QAEHXZ 1001bff0 f i Mi_StaL.obj
 0001:0001b020       ?SetAxisInput@CMI_GangC@@QAEXH@Z 1001c020 f i Mi_StaL.obj
 0001:0001b050       ?GetAxis@CMI_GangC@@QAEHXZ 1001c050 f i Mi_StaL.obj
 0001:0001b080       ?SetAxis@CMI_GangC@@QAEXH@Z 1001c080 f i Mi_StaL.obj
 0001:0001b0b0       ?IsNegative@CMI_GangC@@QAEHXZ 1001c0b0 f i Mi_StaL.obj
 0001:0001b0e0       ?SetNegative@CMI_GangC@@QAEXH@Z 1001c0e0 f i Mi_StaL.obj
 0001:0001b110       ?GetbBack@CMI_GangC@@QAEHXZ 1001c110 f i Mi_StaL.obj
 0001:0001b140       ?SetbBack@CMI_GangC@@QAEXH@Z 1001c140 f i Mi_StaL.obj
 0001:0001b170       ?GetBezierType@CMI_GangC@@QAE?AW4BEZIERTYPE@@XZ 1001c170 f i Mi_StaL.obj
 0001:0001b190       ?SetBezierType@CMI_GangC@@QAEXW4BEZIERTYPE@@@Z 1001c190 f i Mi_StaL.obj
 0001:0001b1c0       ?CreateObject@CMI_StaL@@SGPAVCObject@@XZ 1001c1c0 f   Mi_StaL.obj
 0001:0001b250       ?_GetBaseClass@CMI_StaL@@KGPAUCRuntimeClass@@XZ 1001c250 f   Mi_StaL.obj
 0001:0001b270       ?GetRuntimeClass@CMI_StaL@@UBEPAUCRuntimeClass@@XZ 1001c270 f   Mi_StaL.obj
 0001:0001b2e0       ??0AFX_CLASSINIT@@QAE@PAUCRuntimeClass@@@Z 1001c2e0 f i Mi_StaL.obj
 0001:0001b310       ??5@YGAAVCArchive@@AAV0@AAPAVCMI_StaL@@@Z 1001c310 f   Mi_StaL.obj
 0001:0001b340       ??0CMI_StaL@@QAE@XZ        1001c340 f   Mi_StaL.obj
 0001:0001b430       ??_GCMI_StaL@@UAEPAXI@Z    1001c430 f i Mi_StaL.obj
 0001:0001b470       ??_ECMI_StaL@@UAEPAXI@Z    1001c470 f i Mi_StaL.obj
 0001:0001b510       ??0staLcard@@QAE@XZ        1001c510 f i Mi_StaL.obj
 0001:0001b610       ??1CMI_StaL@@UAE@XZ        1001c610 f   Mi_StaL.obj
 0001:0001b6f0       ??1staLcard@@QAE@XZ        1001c6f0 f i Mi_StaL.obj
 0001:0001b7e0       ?CreatePatchBased_3@CMI_StaL@@QAEHPAVCDrPatch@@PAV?$CList@UstaLcard@@U1@@@@Z 1001c7e0 f   Mi_StaL.obj
 0001:0001bfa0       ??0staLcard@@QAE@ABU0@@Z   1001cfa0 f i Mi_StaL.obj
 0001:0001c350       ??4staLcard@@QAEAAU0@ABU0@@Z 1001d350 f i Mi_StaL.obj
 0001:0001c6f0       ?FillUp_Val_Pat_3@CMI_StaL@@IAEHPAVCDrPatch@@AAUstaLcard@@PAH2@Z 1001d6f0 f   Mi_StaL.obj
 0001:0001ce70       ?TRIANGLE_1@CMI_StaL@@IAEPAVCDrStatic@@PAUWORLD@@000AAUstaLcard@@HHHH@Z 1001de70 f   Mi_StaL.obj
 0001:0001d2c0       ?TRIANGLE_2@CMI_StaL@@IAEPAVCDrStatic@@PAUWORLD@@000AAUstaLcard@@HHHH@Z 1001e2c0 f   Mi_StaL.obj
 0001:0001d710       ?UpdateFixedDirSkewMatrix@CMI_StaL@@IAEHAAUstaLcard@@@Z 1001e710 f   Mi_StaL.obj
 0001:0001d820       ?IsPatchTangentNeeded@CMI_StaL@@IAEHPAV?$CList@UstaLcard@@U1@@@@Z 1001e820 f   Mi_StaL.obj
 0001:0001d8f0       ?CreatePatchBased_4@CMI_StaL@@QAEHPAVCDrPatch@@PAV?$CList@UstaLcard@@U1@@@@Z 1001e8f0 f   Mi_StaL.obj
 0001:0001de10       ?LoopOver_Patch_4_Pts@CMI_StaL@@IAEHPAVCDrPatch@@AAUstaLcard@@PAUWORLD@@222H@Z 1001ee10 f   Mi_StaL.obj
 0001:0001e290       ?GetNonUniformLoadPatch@CMI_StaL@@IAEPAVCDrPatch@@AAVCString@@@Z 1001f290 f   Mi_StaL.obj
 0001:0001e350       ?FillUp_ValList_Pat_4@CMI_StaL@@IAEHPAVCDrPatch@@AAUstaLcard@@@Z 1001f350 f   Mi_StaL.obj
 0001:0001eb90       ?IsTangentNeeded@CMI_StaL@@IAEHPAV?$CList@UstaLcard@@U1@@@@Z 1001fb90 f   Mi_StaL.obj
 0001:0001ec60       ?IsNormalNeeded@CMI_StaL@@IAEHPAV?$CList@UstaLcard@@U1@@@@Z 1001fc60 f   Mi_StaL.obj
 0001:0001ed30       ?LoopOver_CurvePts@CMI_StaL@@IAEHPAVCDrCurve@@AAUstaLcard@@PAUWORLD@@2H@Z 1001fd30 f   Mi_StaL.obj
 0001:0001f040       ?GetNonUniformLoadCurve@CMI_StaL@@IAEPAVCDrCurve@@AAVCString@@@Z 10020040 f   Mi_StaL.obj
 0001:0001f100       ?CreateCurveBased@CMI_StaL@@QAEHPAVCDrCurve@@PAV?$CList@UstaLcard@@U1@@@@Z 10020100 f   Mi_StaL.obj
 0001:0001f570       ?FillUp_ValList_Cur@CMI_StaL@@IAEHPAVCDrCurve@@AAUstaLcard@@@Z 10020570 f   Mi_StaL.obj
 0001:0001fce0       ?CreateNodeBased@CMI_StaL@@QAEHPAVCDrNode@@PAV?$CList@UstaLcard@@U1@@@@Z 10020ce0 f   Mi_StaL.obj
 0001:00020b60       ?IsDuplicated@CMI_StaL@@IAEHAAUWORLD@@W4STALPROC@@@Z 10021b60 f   Mi_StaL.obj
 0001:00020e70       ?SetStaticID@CMI_StaL@@IAEXPAVCDrStatic@@PADH@Z 10021e70 f   Mi_StaL.obj
 0001:00021080       ?SetInfoForStaticBase@CMI_StaL@@IAEXPAVCDrStatic@@UstaLcard@@@Z 10022080 f   Mi_StaL.obj
 0001:00021fd0       ??_GCString@@QAEPAXI@Z     10022fd0 f i Mi_StaL.obj
 0001:00022020       ?RemoveOldStatic@CMI_StaL@@IAEHUstaLcard@@PAVCDListMgr@@@Z 10023020 f   Mi_StaL.obj
 0001:00022310       ?RegenNodeBased@CMI_StaL@@QAEHPAVCDrNode@@@Z 10023310 f   Mi_StaL.obj
 0001:00022540       ?RegenNodeBased_DoIt@CMI_StaL@@IAEHPAVCDrNode@@AAUstaLcard@@PAVCDListMgr@@@Z 10023540 f   Mi_StaL.obj
 0001:00022f40       ?RegenCurveBased@CMI_StaL@@QAEHPAVCDrCurve@@@Z 10023f40 f   Mi_StaL.obj
 0001:00023100       ?SetMaxVal_Cur@CMI_StaL@@IAEHPAVCDrCurve@@AAUstaLcard@@@Z 10024100 f   Mi_StaL.obj
 0001:00023440       ?RegenCurveBased_DoIt@CMI_StaL@@IAEHPAVCDrCurve@@PAUWORLD@@1H@Z 10024440 f   Mi_StaL.obj
 0001:00023730       ?RegenPatchBased_3@CMI_StaL@@QAEHPAVCDrPatch@@@Z 10024730 f   Mi_StaL.obj
 0001:00023960       ?RegenPatchBased_3_DoIt@CMI_StaL@@IAEHPAVCDrPatch@@AAUstaLcard@@PAVCDListMgr@@@Z 10024960 f   Mi_StaL.obj
 0001:00023d20       ?RegenTRIANGLE_1@CMI_StaL@@IAEHPAUWORLD@@0PAVCDListMgr@@00HHHH@Z 10024d20 f   Mi_StaL.obj
 0001:00023f50       ?RegenTRIANGLE_2@CMI_StaL@@IAEHPAUWORLD@@0PAVCDListMgr@@00HHHH@Z 10024f50 f   Mi_StaL.obj
 0001:00024180       ?RegenPatchBased_4@CMI_StaL@@QAEHPAVCDrPatch@@@Z 10025180 f   Mi_StaL.obj
 0001:000243b0       ?RegenPatchBased_4_DoIt@CMI_StaL@@IAEHPAVCDrPatch@@AAUstaLcard@@PAVCDListMgr@@@Z 100253b0 f   Mi_StaL.obj
 0001:00024820       ?RegenInfoForStaticBase@CMI_StaL@@IAEXPAVCDrStatic@@UstaLcard@@@Z 10025820 f   Mi_StaL.obj
 0001:00025430       ?Serialize@CMI_StaL@@UAEXAAVCArchive@@@Z 10026430 f   Mi_StaL.obj
 0001:00025490       ??0?$CList@UstaLcard@@U1@@@QAE@H@Z 10026490 f i Mi_StaL.obj
 0001:00025570       ?IsEmpty@?$CList@UstaLcard@@U1@@@QBEHXZ 10026570 f i Mi_StaL.obj
 0001:000255a0       ?AddTail@?$CList@UstaLcard@@U1@@@QAEXPAV1@@Z 100265a0 f i Mi_StaL.obj
 0001:00025660       ?AddTail@?$CList@UstaLcard@@U1@@@QAEPAU__POSITION@@UstaLcard@@@Z 10026660 f i Mi_StaL.obj
 0001:00025740       ?RemoveAll@?$CList@UstaLcard@@U1@@@QAEXXZ 10026740 f i Mi_StaL.obj
 0001:000257f0       ?GetHeadPosition@?$CList@UstaLcard@@U1@@@QBEPAU__POSITION@@XZ 100267f0 f i Mi_StaL.obj
 0001:00025810       ?GetNext@?$CList@UstaLcard@@U1@@@QAEAAUstaLcard@@AAPAU__POSITION@@@Z 10026810 f i Mi_StaL.obj
 0001:00025890       ??1?$CList@UstaLcard@@U1@@@UAE@XZ 10026890 f i Mi_StaL.obj
 0001:00025930       ?Serialize@?$CList@UstaLcard@@U1@@@UAEXAAVCArchive@@@Z 10026930 f i Mi_StaL.obj
 0001:00025ad0       ?Dump@?$CList@UstaLcard@@U1@@@UBEXAAVCDumpContext@@@Z 10026ad0 f i Mi_StaL.obj
 0001:00025b90       ?AssertValid@?$CList@UstaLcard@@U1@@@UBEXXZ 10026b90 f i Mi_StaL.obj
 0001:00025ca0       ??0?$CList@NN@@QAE@H@Z     10026ca0 f i Mi_StaL.obj
 0001:00025d80       ?AddTail@?$CList@NN@@QAEPAU__POSITION@@N@Z 10026d80 f i Mi_StaL.obj
 0001:00025e20       ?RemoveAll@?$CList@NN@@QAEXXZ 10026e20 f i Mi_StaL.obj
 0001:00025ed0       ?GetAt@?$CList@NN@@QAEAANPAU__POSITION@@@Z 10026ed0 f i Mi_StaL.obj
 0001:00025f30       ?FindIndex@?$CList@NN@@QBEPAU__POSITION@@H@Z 10026f30 f i Mi_StaL.obj
 0001:00025ff0       ??1?$CList@NN@@UAE@XZ      10026ff0 f i Mi_StaL.obj
 0001:00026090       ?Serialize@?$CList@NN@@UAEXAAVCArchive@@@Z 10027090 f i Mi_StaL.obj
 0001:000261b0       ?Dump@?$CList@NN@@UBEXAAVCDumpContext@@@Z 100271b0 f i Mi_StaL.obj
 0001:00026270       ?AssertValid@?$CList@NN@@UBEXXZ 10027270 f i Mi_StaL.obj
 0001:00026370       ??_G?$CList@UstaLcard@@U1@@@UAEPAXI@Z 10027370 f i Mi_StaL.obj
 0001:00026370       ??_E?$CList@UstaLcard@@U1@@@UAEPAXI@Z 10027370 f i Mi_StaL.obj
 0001:000263b0       ??_E?$CList@NN@@UAEPAXI@Z  100273b0 f i Mi_StaL.obj
 0001:000263b0       ??_G?$CList@NN@@UAEPAXI@Z  100273b0 f i Mi_StaL.obj
 0001:000263f0       ?NewNode@?$CList@UstaLcard@@U1@@@IAEPAUCNode@1@PAU21@0@Z 100273f0 f i Mi_StaL.obj
 0001:00026570       ?DestructElements@@YGXPAUstaLcard@@H@Z 10027570 f i Mi_StaL.obj
 0001:00026600       ?SerializeElements@@YGXAAVCArchive@@PAUstaLcard@@H@Z 10027600 f i Mi_StaL.obj
 0001:000266b0       ?DumpElements@@YGXAAVCDumpContext@@PBUstaLcard@@H@Z 100276b0 f i Mi_StaL.obj
 0001:00026710       ?GetHeadPosition@?$CList@NN@@QBEPAU__POSITION@@XZ 10027710 f i Mi_StaL.obj
 0001:00026730       ?GetNext@?$CList@NN@@QAEAANAAPAU__POSITION@@@Z 10027730 f i Mi_StaL.obj
 0001:000267a0       ?NewNode@?$CList@NN@@IAEPAUCNode@1@PAU21@0@Z 100277a0 f i Mi_StaL.obj
 0001:00026910       ?DestructElements@@YGXPANH@Z 10027910 f i Mi_StaL.obj
 0001:00026990       ?SerializeElements@@YGXAAVCArchive@@PANH@Z 10027990 f i Mi_StaL.obj
 0001:00026a30       ?DumpElements@@YGXAAVCDumpContext@@PBNH@Z 10027a30 f i Mi_StaL.obj
 0001:00026a90       ??_GstaLcard@@QAEPAXI@Z    10027a90 f i Mi_StaL.obj
 0001:00026ae0       ?ConstructElements@@YGXPAUstaLcard@@H@Z 10027ae0 f i Mi_StaL.obj
 0001:00026c00       ??3@YAXPAX0@Z              10027c00 f i Mi_StaL.obj
 0001:00026c20       ?ConstructElements@@YGXPANH@Z 10027c20 f i Mi_StaL.obj
 0001:00026cd0       _ExtRawDllMain@12          10027cd0 f   MSTLdll.obj
 0001:00026d50       _InitMStLDLL@0             10027d50 f   MSTLdll.obj
 0001:00026db0       _DllMain@12                10027db0 f   MSTLdll.obj
 0001:00026e30       ??B?$CTypedSimpleList@PAUCRuntimeClass@@@@QAEPAUCRuntimeClass@@XZ 10027e30 f i MSTLdll.obj
 0001:00026e60       ??B?$CTypedSimpleList@PAVCOleObjectFactory@@@@QAEPAVCOleObjectFactory@@XZ 10027e60 f i MSTLdll.obj
 0001:00026e90       ?GetHead@CSimpleList@@QBEPAXXZ 10027e90 f i MSTLdll.obj
 0001:00026eb0       ?CreateObject@CMStLMgr@@SGPAVCObject@@XZ 10027eb0 f   MSTLMgr.obj
 0001:00026f40       ?_GetBaseClass@CMStLMgr@@KGPAUCRuntimeClass@@XZ 10027f40 f   MSTLMgr.obj
 0001:00026f60       ?GetRuntimeClass@CMStLMgr@@UBEPAUCRuntimeClass@@XZ 10027f60 f   MSTLMgr.obj
 0001:00026fd0       ??5@YGAAVCArchive@@AAV0@AAPAVCMStLMgr@@@Z 10027fd0 f   MSTLMgr.obj
 0001:00027000       ??0CMStLMgr@@QAE@XZ        10028000 f   MSTLMgr.obj
 0001:00027030       ??_GCMStLMgr@@UAEPAXI@Z    10028030 f i MSTLMgr.obj
 0001:00027070       ??_ECMStLMgr@@UAEPAXI@Z    10028070 f i MSTLMgr.obj
 0001:00027110       ??1CMStLMgr@@UAE@XZ        10028110 f   MSTLMgr.obj
 0001:00027140       ?SetResource@CMStLMgr@@IAEPAUHINSTANCE__@@XZ 10028140 f   MSTLMgr.obj
 0001:00027220       ?RestoreResource@CMStLMgr@@IAEXPAUHINSTANCE__@@@Z 10028220 f   MSTLMgr.obj
 0001:000272c0       ?DoModal_Value_In@CMStLMgr@@QAEIAAVCString@@PANHW4STALPROC@@@Z 100282c0 f   MSTLMgr.obj
 0001:000273b0       ?DoModal_ManyValue_In@CMStLMgr@@QAEIAAVCString@@PANPAHW4STALPROC@@@Z 100283b0 f   MSTLMgr.obj
 0001:00027540       ?Serialize@CMStLMgr@@UAEXAAVCArchive@@@Z 10028540 f   MSTLMgr.obj
 0001:000275a0       ?GetCurveList@CDrProf_C@@QAEPAVCDListMgr@@XZ 100285a0 f i SLDCur.obj
 0001:000275d0       ?GetLMList@CDrProf_C@@QAEPAVCDListMgr@@XZ 100285d0 f i SLDCur.obj
 0001:00027600       ?GetCurve@CDrProf_C@@QAEPAVCDrCurve@@XZ 10028600 f i SLDCur.obj
 0001:00027630       ?SetCurve@CDrProf_C@@QAEXPAVCDrCurve@@@Z 10028630 f i SLDCur.obj
 0001:00027660       ?GetProfileType@CDrProf_C@@QAE?AW4PROFILETYPE@@XZ 10028660 f i SLDCur.obj
 0001:00027690       ?SetProfileType@CDrProf_C@@QAEXW4PROFILETYPE@@@Z 10028690 f i SLDCur.obj
 0001:000276c0       ?GetDrProf@CMI_CProf@@QAEPAVCDrProf_C@@XZ 100286c0 f i SLDCur.obj
 0001:000276f0       ?SetDrProf@CMI_CProf@@QAEXPAVCDrProf_C@@@Z 100286f0 f i SLDCur.obj
 0001:00027720       ?GetProfCurve@CMI_CProf@@QAEPAVCDrCurve@@XZ 10028720 f i SLDCur.obj
 0001:00027750       ?SetProfCurve@CMI_CProf@@QAEXPAVCDrCurve@@@Z 10028750 f i SLDCur.obj
 0001:00027780       ?SetCurrentNode@CSLDNod@@QAEXPAVCDrNode@@@Z 10028780 f i SLDCur.obj
 0001:000277b0       ?SetCurrentLabel@CSLDNod@@QAEXPAVCDrLabel@@@Z 100287b0 f i SLDCur.obj
 0001:000277e0       ?CreateObject@CSLDCur@@SGPAVCObject@@XZ 100287e0 f   SLDCur.obj
 0001:00027880       ?_GetBaseClass@CSLDCur@@KGPAUCRuntimeClass@@XZ 10028880 f   SLDCur.obj
 0001:000278a0       ?GetRuntimeClass@CSLDCur@@UBEPAUCRuntimeClass@@XZ 100288a0 f   SLDCur.obj
 0001:00027910       ??5@YGAAVCArchive@@AAV0@AAPAVCSLDCur@@@Z 10028910 f   SLDCur.obj
 0001:00027940       ??0CSLDCur@@QAE@XZ         10028940 f   SLDCur.obj
 0001:00027b80       ??_GCSLDCur@@UAEPAXI@Z     10028b80 f i SLDCur.obj
 0001:00027bc0       ??_ECSLDCur@@UAEPAXI@Z     10028bc0 f i SLDCur.obj
 0001:00027c60       ??1CSLDCur@@UAE@XZ         10028c60 f   SLDCur.obj
 0001:00027db0       ?GetObjectInfo@CSLDCur@@UAEXPAVCSLDObj@@@Z 10028db0 f   SLDCur.obj
 0001:00028110       ?SetObjectInfo@CSLDCur@@UAEXPAVCSLDObj@@@Z 10029110 f   SLDCur.obj
 0001:00028490       ?Get_Values_Iso_Node@CSLDCur@@QAEHPAVCDrNode@@W4STALPROC@@AAVCString@@@Z 10029490 f   SLDCur.obj
 0001:00028a10       ?ShowCurveStaticLoad@CSLDCur@@QAEHPAVCDrCurve@@PAVCString@@@Z 10029a10 f   SLDCur.obj
 0001:00028e60       ?Get_Values_Iso_Cur@CSLDCur@@QAEHPAVCDrCurve@@W4STALPROC@@HH@Z 10029e60 f   SLDCur.obj
 0001:00029230       ?RemoveMostListsFromCurve@CSLDCur@@IAEXPAVCDrCurve@@@Z 1002a230 f   SLDCur.obj
 0001:00029420       ?Generate_IsoCurveControls@CSLDCur@@QAEHPAVCDrCurve@@HPAVCString@@H@Z 1002a420 f   SLDCur.obj
 0001:00029f70       ?Get_Values_NonIso_Cur@CSLDCur@@QAEHW4STALPROC@@@Z 1002af70 f   SLDCur.obj
 0001:00029fa0       ?ShowInfo_CurveStaticLoad@CSLDCur@@QAEHPAVCDrCurve@@PADHAAVCString@@@Z 1002afa0 f   SLDCur.obj
 0001:0002a2a0       ?Serialize@CSLDCur@@UAEXAAVCArchive@@@Z 1002b2a0 f   SLDCur.obj
 0001:0002a300       ?GetTail@?$CList@UstaLcard@@U1@@@QAEAAUstaLcard@@XZ 1002b300 f i SLDCur.obj
 0001:0002a350       ??0?$CList@HH@@QAE@H@Z     1002b350 f i SLDCur.obj
 0001:0002a430       ?IsEmpty@?$CList@HH@@QBEHXZ 1002b430 f i SLDCur.obj
 0001:0002a460       ?AddTail@?$CList@HH@@QAEXPAV1@@Z 1002b460 f i SLDCur.obj
 0001:0002a510       ?CreateObject@CSLDNod@@SGPAVCObject@@XZ 1002b510 f   SLDNod.obj
 0001:0002a5b0       ?_GetBaseClass@CSLDNod@@KGPAUCRuntimeClass@@XZ 1002b5b0 f   SLDNod.obj
 0001:0002a5d0       ?GetRuntimeClass@CSLDNod@@UBEPAUCRuntimeClass@@XZ 1002b5d0 f   SLDNod.obj
 0001:0002a640       ??5@YGAAVCArchive@@AAV0@AAPAVCSLDNod@@@Z 1002b640 f   SLDNod.obj
 0001:0002a670       ??0CSLDNod@@QAE@XZ         1002b670 f   SLDNod.obj
 0001:0002a6a0       ??_GCSLDNod@@UAEPAXI@Z     1002b6a0 f i SLDNod.obj
 0001:0002a6e0       ??_ECSLDNod@@UAEPAXI@Z     1002b6e0 f i SLDNod.obj
 0001:0002a780       ??1CSLDNod@@UAE@XZ         1002b780 f   SLDNod.obj
 0001:0002a7b0       ?GetObjectInfo@CSLDNod@@UAEXPAVCSLDObj@@@Z 1002b7b0 f   SLDNod.obj
 0001:0002a810       ?SetObjectInfo@CSLDNod@@UAEXPAVCSLDObj@@@Z 1002b810 f   SLDNod.obj
 0001:0002a870       ?ShowNodeStaticLoad@CSLDNod@@QAEHPAVCDrNode@@PAVCString@@@Z 1002b870 f   SLDNod.obj
 0001:0002abb0       ?ShowInfo_NodeStaticLoad@CSLDNod@@QAEHPAVCDrNode@@PADHAAVCString@@@Z 1002bbb0 f   SLDNod.obj
 0001:0002aeb0       ?Serialize@CSLDNod@@UAEXAAVCArchive@@@Z 1002beb0 f   SLDNod.obj
 0001:0002af10       ?CreateObject@CSLDObj@@SGPAVCObject@@XZ 1002bf10 f   SLDObj.obj
 0001:0002afb0       ?_GetBaseClass@CSLDObj@@KGPAUCRuntimeClass@@XZ 1002bfb0 f   SLDObj.obj
 0001:0002afd0       ?GetRuntimeClass@CSLDObj@@UBEPAUCRuntimeClass@@XZ 1002bfd0 f   SLDObj.obj
 0001:0002b040       ??5@YGAAVCArchive@@AAV0@AAPAVCSLDObj@@@Z 1002c040 f   SLDObj.obj
 0001:0002b070       ??0CSLDObj@@QAE@XZ         1002c070 f   SLDObj.obj
 0001:0002b490       ??_GCSLDObj@@UAEPAXI@Z     1002c490 f i SLDObj.obj
 0001:0002b4d0       ??_ECSLDObj@@UAEPAXI@Z     1002c4d0 f i SLDObj.obj
 0001:0002b570       ??1CSLDObj@@UAE@XZ         1002c570 f   SLDObj.obj
 0001:0002b680       ?GetObjectInfo@CSLDObj@@UAEXPAV1@@Z 1002c680 f   SLDObj.obj
 0001:0002ba50       ?SetObjectInfo@CSLDObj@@UAEXPAV1@@Z 1002ca50 f   SLDObj.obj
 0001:0002be20       ?FillStLCard@CSLDObj@@IAEHAAUstaLcard@@PAVCString@@@Z 1002ce20 f   SLDObj.obj
 0001:0002c420       ?FillInfo_3@CSLDObj@@IAEHAAVCString@@UstaLcard@@PADH@Z 1002d420 f   SLDObj.obj
 0001:0002cab0       ?FillInfo_6@CSLDObj@@IAEHAAVCString@@UstaLcard@@PADH@Z 1002dab0 f   SLDObj.obj
 0001:0002d1e0       ?Get_Values@CSLDObj@@QAEHW4STALPROC@@AAVCString@@@Z 1002e1e0 f   SLDObj.obj
 0001:0002d4a0       ?Get_Values_ManyDirections@CSLDObj@@IAEHAAVCString@@W4STALPROC@@@Z 1002e4a0 f   SLDObj.obj
 0001:0002d690       ?Get_Values_Iso_WORLD@CSLDObj@@IAEHAAVCString@@AAUWORLD@@1W4STALPROC@@@Z 1002e690 f   SLDObj.obj
 0001:0002d760       ?Serialize@CSLDObj@@UAEXAAVCArchive@@@Z 1002e760 f   SLDObj.obj
 0001:0002d7c0       ?GetProbLim@CMouse@@QAE?AW4PROBDIMLIM@@XZ 1002e7c0 f i SLDPat.obj
 0001:0002d7e0       ?SetProbLim@CMouse@@QAEXW4PROBDIMLIM@@@Z 1002e7e0 f i SLDPat.obj
 0001:0002d810       ?GetElemLim@CMouse@@QAE?AW4ELEMDIMLIM@@XZ 1002e810 f i SLDPat.obj
 0001:0002d830       ?SetElemLim@CMouse@@QAEXW4ELEMDIMLIM@@@Z 1002e830 f i SLDPat.obj
 0001:0002d860       ?GetCurrentThirdCoord@CMouse@@QAENXZ 1002e860 f i SLDPat.obj
 0001:0002d880       ?SetCurrentThirdCoord@CMouse@@QAEXN@Z 1002e880 f i SLDPat.obj
 0001:0002d8b0       ?GetMouseWIC@CMouse@@QAE?AULPOINT3@@XZ 1002e8b0 f i SLDPat.obj
 0001:0002d8f0       ?GetMouseOldWIC@CMouse@@QAE?AULPOINT3@@XZ 1002e8f0 f i SLDPat.obj
 0001:0002d930       ?GetScrolledMouseWIC2D@CMouse@@IAE?AULPOINT@@XZ 1002e930 f i SLDPat.obj
 0001:0002d970       ?SetScrolledMouseWIC2D@CMouse@@IAEXULPOINT@@@Z 1002e970 f i SLDPat.obj
 0001:0002d9a0       ??1CDlg_NodI@@UAE@XZ       1002e9a0 f i SLDPat.obj
 0001:0002da20       ??1CDlg_LQCI@@UAE@XZ       1002ea20 f i SLDPat.obj
 0001:0002daa0       ??1CDlg_CrcI@@UAE@XZ       1002eaa0 f i SLDPat.obj
 0001:0002db20       ?IsEndCondMode@CSheet_PATI@@QAEHXZ 1002eb20 f i SLDPat.obj
 0001:0002db50       ?SetEndCondMode@CSheet_PATI@@QAEXH@Z 1002eb50 f i SLDPat.obj
 0001:0002db80       ?Parse_drPipe@CDrFE1D@@UAEXPAVCString@@@Z 1002eb80 f i SLDPat.obj
 0001:0002dba0       ?DoFormattedCardView@CDrFE1D@@UAEXPAVCString@@AAV2@@Z 1002eba0 f i SLDPat.obj
 0001:0002dbc0       ?DoUnFormattedCardView@CDrFE1D@@UAEXPAVCString@@@Z 1002ebc0 f i SLDPat.obj
 0001:0002dbe0       ?GetMaxCorners@CDrFE1D@@UAEHXZ 1002ebe0 f i SLDPat.obj
 0001:0002dc00       ?GetMemIn@CDrFE1D@@UAEPAUWORLD@@XZ 1002ec00 f i SLDPat.obj
 0001:0002dc30       ?GetMemInWts@CDrFE1D@@UAEPANXZ 1002ec30 f i SLDPat.obj
 0001:0002dc60       ?GetMemInDP@CDrFE1D@@UAEPAUtagPOINT@@XZ 1002ec60 f i SLDPat.obj
 0001:0002dc90       ?GetMemOut@CDrFE1D@@UAEPAUWORLD@@XZ 1002ec90 f i SLDPat.obj
 0001:0002dcc0       ?GetMemOutWts@CDrFE1D@@UAEPANXZ 1002ecc0 f i SLDPat.obj
 0001:0002dcf0       ?GetMemOutDP@CDrFE1D@@UAEPAUtagPOINT@@XZ 1002ecf0 f i SLDPat.obj
 0001:0002dd20       ?SetMemIn@CDrFE1D@@UAEXPAUWORLD@@@Z 1002ed20 f i SLDPat.obj
 0001:0002dd50       ?SetMemInWts@CDrFE1D@@UAEXPAN@Z 1002ed50 f i SLDPat.obj
 0001:0002dd80       ?SetMemInDP@CDrFE1D@@UAEXPAUtagPOINT@@@Z 1002ed80 f i SLDPat.obj
 0001:0002ddb0       ?SetMemOut@CDrFE1D@@UAEXPAUWORLD@@@Z 1002edb0 f i SLDPat.obj
 0001:0002dde0       ?SetMemOutWts@CDrFE1D@@UAEXPAN@Z 1002ede0 f i SLDPat.obj
 0001:0002de10       ?SetMemOutDP@CDrFE1D@@UAEXPAUtagPOINT@@@Z 1002ee10 f i SLDPat.obj
 0001:0002de40       ?FixMemD@CDrFE1D@@UAEPANJ@Z 1002ee40 f i SLDPat.obj
 0001:0002de90       ?FreeMemD@CDrFE1D@@UAEXPAN@Z 1002ee90 f i SLDPat.obj
 0001:0002dec0       ?FixMem@CDrFE1D@@UAEPAUWORLD@@J@Z 1002eec0 f i SLDPat.obj
 0001:0002df10       ?FreeMem@CDrFE1D@@UAEXPAUWORLD@@@Z 1002ef10 f i SLDPat.obj
 0001:0002df40       ?FixMemDP@CDrFE1D@@UAEPAUtagPOINT@@J@Z 1002ef40 f i SLDPat.obj
 0001:0002df90       ?FreeMemDP@CDrFE1D@@UAEXPAUtagPOINT@@@Z 1002ef90 f i SLDPat.obj
 0001:0002dfc0       ?GetnNodes@CDrFE1D@@QAEFXZ 1002efc0 f i SLDPat.obj
 0001:0002dff0       ?SetnNodes@CDrFE1D@@QAEXF@Z 1002eff0 f i SLDPat.obj
 0001:0002e020       ?GetEdgeDegree@CDrFE1D@@QAEFXZ 1002f020 f i SLDPat.obj
 0001:0002e050       ?SetEdgeDegree@CDrFE1D@@QAEXF@Z 1002f050 f i SLDPat.obj
 0001:0002e080       ?GetElNumID@CDrFE1D@@QAEAAVCString@@XZ 1002f080 f i SLDPat.obj
 0001:0002e0b0       ?SetElNumID@CDrFE1D@@QAEXVCString@@@Z 1002f0b0 f i SLDPat.obj
 0001:0002e130       ?GetElTypeID@CDrFE1D@@QAEAAVCString@@XZ 1002f130 f i SLDPat.obj
 0001:0002e160       ?SetElTypeID@CDrFE1D@@QAEXVCString@@@Z 1002f160 f i SLDPat.obj
 0001:0002e1e0       ?Getline_id@CDrFE1D@@QAEAAVCString@@XZ 1002f1e0 f i SLDPat.obj
 0001:0002e210       ?Setline_id@CDrFE1D@@QAEXVCString@@@Z 1002f210 f i SLDPat.obj
 0001:0002e290       ?Getrid@CDrFE1D@@UAEAAVCString@@H@Z 1002f290 f i SLDPat.obj
 0001:0002e2c0       ?Setrid@CDrFE1D@@UAEXVCString@@H@Z 1002f2c0 f i SLDPat.obj
 0001:0002e340       ?Getpid@CDrFE1D@@QAEAAVCString@@XZ 1002f340 f i SLDPat.obj
 0001:0002e370       ?Setpid@CDrFE1D@@QAEXVCString@@@Z 1002f370 f i SLDPat.obj
 0001:0002e3f0       ?Getmid@CDrFE1D@@QAEAAVCString@@XZ 1002f3f0 f i SLDPat.obj
 0001:0002e420       ?Setmid@CDrFE1D@@QAEXVCString@@@Z 1002f420 f i SLDPat.obj
 0001:0002e4a0       ?GetElNum@CDrFE1D@@QAEIXZ  1002f4a0 f i SLDPat.obj
 0001:0002e4d0       ?SetElNum@CDrFE1D@@QAEXI@Z 1002f4d0 f i SLDPat.obj
 0001:0002e500       ?GetElTypeNum@CDrFE1D@@QAEIXZ 1002f500 f i SLDPat.obj
 0001:0002e530       ?SetElTypeNum@CDrFE1D@@QAEXI@Z 1002f530 f i SLDPat.obj
 0001:0002e560       ?Getline_no@CDrFE1D@@QAEIXZ 1002f560 f i SLDPat.obj
 0001:0002e590       ?Setline_no@CDrFE1D@@QAEXI@Z 1002f590 f i SLDPat.obj
 0001:0002e5c0       ?Getrel@CDrFE1D@@UAEIH@Z   1002f5c0 f i SLDPat.obj
 0001:0002e5f0       ?Setrel@CDrFE1D@@UAEXIH@Z  1002f5f0 f i SLDPat.obj
 0001:0002e620       ?Getprop@CDrFE1D@@QAEIXZ   1002f620 f i SLDPat.obj
 0001:0002e650       ?Setprop@CDrFE1D@@QAEXI@Z  1002f650 f i SLDPat.obj
 0001:0002e680       ?Getmat@CDrFE1D@@QAEIXZ    1002f680 f i SLDPat.obj
 0001:0002e6b0       ?Setmat@CDrFE1D@@QAEXI@Z   1002f6b0 f i SLDPat.obj
 0001:0002e6e0       ?Getnumseg@CDrFE1D@@QAEIXZ 1002f6e0 f i SLDPat.obj
 0001:0002e710       ?Setnumseg@CDrFE1D@@QAEXI@Z 1002f710 f i SLDPat.obj
 0001:0002e740       ?GetRefTemp@CDrFE1D@@QAENXZ 1002f740 f i SLDPat.obj
 0001:0002e770       ?SetRefTemp@CDrFE1D@@QAEXN@Z 1002f770 f i SLDPat.obj
 0001:0002e7b0       ?GetCardNo@CDrFE1D@@QAEIXZ 1002f7b0 f i SLDPat.obj
 0001:0002e7e0       ?SetCardNo@CDrFE1D@@QAEXI@Z 1002f7e0 f i SLDPat.obj
 0001:0002e810       ?GetCenter@CDrFE1D@@UAE?AUtagPOINT@@XZ 1002f810 f i SLDPat.obj
 0001:0002e850       ?SetCenter@CDrFE1D@@UAEXUtagPOINT@@@Z 1002f850 f i SLDPat.obj
 0001:0002e890       ?Parse_drPipe@CDrFE2D@@UAEXPAVCString@@@Z 1002f890 f i SLDPat.obj
 0001:0002e8b0       ?DoFormattedCardView@CDrFE2D@@UAEXPAVCString@@AAV2@@Z 1002f8b0 f i SLDPat.obj
 0001:0002e8d0       ?DoUnFormattedCardView@CDrFE2D@@UAEXPAVCString@@@Z 1002f8d0 f i SLDPat.obj
 0001:0002e8f0       ?GetMaxCorners@CDrFE2D@@UAEHXZ 1002f8f0 f i SLDPat.obj
 0001:0002e920       ?GetCentroidScreen2D@CDrFE2D@@UAEPAUtagPOINT@@XZ 1002f920 f i SLDPat.obj
 0001:0002e950       ?SetCentroidScreen2D@CDrFE2D@@UAEXUtagPOINT@@@Z 1002f950 f i SLDPat.obj
 0001:0002e990       ?GetCentroidScreen3D@CDrFE2D@@UAEPAUWORLD@@XZ 1002f990 f i SLDPat.obj
 0001:0002e9c0       ?SetCentroidScreen3D@CDrFE2D@@UAEXUWORLD@@@Z 1002f9c0 f i SLDPat.obj
 0001:0002ea00       ?GetCentroidEye@CDrFE2D@@UAEPAUWORLD@@XZ 1002fa00 f i SLDPat.obj
 0001:0002ea30       ?SetCentroidEye@CDrFE2D@@UAEXUWORLD@@@Z 1002fa30 f i SLDPat.obj
 0001:0002ea70       ?GetCentroidWorld@CDrFE2D@@UAEPAUWORLD@@XZ 1002fa70 f i SLDPat.obj
 0001:0002eaa0       ?SetCentroidWorld@CDrFE2D@@UAEXUWORLD@@@Z 1002faa0 f i SLDPat.obj
 0001:0002eae0       ?GetCentroidZdepth@CDrFE2D@@UAENXZ 1002fae0 f i SLDPat.obj
 0001:0002eb10       ?SetCentroidZdepth@CDrFE2D@@UAEXN@Z 1002fb10 f i SLDPat.obj
 0001:0002eb50       ?GetNormalWorld@CDrFE2D@@UAEPAUWORLD@@XZ 1002fb50 f i SLDPat.obj
 0001:0002eb80       ?SetNormalWorld@CDrFE2D@@UAEXUWORLD@@@Z 1002fb80 f i SLDPat.obj
 0001:0002ebc0       ?GetNormalEye@CDrFE2D@@UAEPAUWORLD@@XZ 1002fbc0 f i SLDPat.obj
 0001:0002ebf0       ?SetNormalEye@CDrFE2D@@UAEXUWORLD@@@Z 1002fbf0 f i SLDPat.obj
 0001:0002ec30       ?GetNormalScreen3D@CDrFE2D@@UAEPAUWORLD@@XZ 1002fc30 f i SLDPat.obj
 0001:0002ec60       ?SetNormalScreen3D@CDrFE2D@@UAEXUWORLD@@@Z 1002fc60 f i SLDPat.obj
 0001:0002eca0       ?GetNormalScreen2D@CDrFE2D@@UAEPAUtagPOINT@@XZ 1002fca0 f i SLDPat.obj
 0001:0002ecd0       ?SetNormalScreen2D@CDrFE2D@@UAEXUtagPOINT@@@Z 1002fcd0 f i SLDPat.obj
 0001:0002ed10       ?IsCulled@CDrFE2D@@UAEHXZ  1002fd10 f i SLDPat.obj
 0001:0002ed40       ?SetCulled@CDrFE2D@@UAEXH@Z 1002fd40 f i SLDPat.obj
 0001:0002ed70       ?GetnNodes@CDrFE2D@@QAEFXZ 1002fd70 f i SLDPat.obj
 0001:0002eda0       ?SetnNodes@CDrFE2D@@QAEXF@Z 1002fda0 f i SLDPat.obj
 0001:0002edd0       ?GetnEdgeNodes@CDrFE2D@@QAEFXZ 1002fdd0 f i SLDPat.obj
 0001:0002ee00       ?SetnEdgeNodes@CDrFE2D@@QAEXF@Z 1002fe00 f i SLDPat.obj
 0001:0002ee30       ?GetElNumID@CDrFE2D@@QAEAAVCString@@XZ 1002fe30 f i SLDPat.obj
 0001:0002ee60       ?SetElNumID@CDrFE2D@@QAEXVCString@@@Z 1002fe60 f i SLDPat.obj
 0001:0002eee0       ?GetElTypeID@CDrFE2D@@QAEAAVCString@@XZ 1002fee0 f i SLDPat.obj
 0001:0002ef10       ?SetElTypeID@CDrFE2D@@QAEXVCString@@@Z 1002ff10 f i SLDPat.obj
 0001:0002ef90       ?Getline_id@CDrFE2D@@QAEAAVCString@@XZ 1002ff90 f i SLDPat.obj
 0001:0002efc0       ?Setline_id@CDrFE2D@@QAEXVCString@@@Z 1002ffc0 f i SLDPat.obj
 0001:0002f040       ?Getpid@CDrFE2D@@QAEAAVCString@@XZ 10030040 f i SLDPat.obj
 0001:0002f070       ?Setpid@CDrFE2D@@QAEXVCString@@@Z 10030070 f i SLDPat.obj
 0001:0002f0f0       ?Getmid@CDrFE2D@@QAEAAVCString@@XZ 100300f0 f i SLDPat.obj
 0001:0002f120       ?Setmid@CDrFE2D@@QAEXVCString@@@Z 10030120 f i SLDPat.obj
 0001:0002f1a0       ?GetElNum@CDrFE2D@@QAEIXZ  100301a0 f i SLDPat.obj
 0001:0002f1d0       ?SetElNum@CDrFE2D@@QAEXI@Z 100301d0 f i SLDPat.obj
 0001:0002f200       ?GetElTypeNum@CDrFE2D@@QAEIXZ 10030200 f i SLDPat.obj
 0001:0002f230       ?SetElTypeNum@CDrFE2D@@QAEXI@Z 10030230 f i SLDPat.obj
 0001:0002f260       ?Getline_no@CDrFE2D@@QAEIXZ 10030260 f i SLDPat.obj
 0001:0002f290       ?Setline_no@CDrFE2D@@QAEXI@Z 10030290 f i SLDPat.obj
 0001:0002f2c0       ?Getprop@CDrFE2D@@QAEIXZ   100302c0 f i SLDPat.obj
 0001:0002f2f0       ?Setprop@CDrFE2D@@QAEXI@Z  100302f0 f i SLDPat.obj
 0001:0002f320       ?Getmat@CDrFE2D@@QAEIXZ    10030320 f i SLDPat.obj
 0001:0002f350       ?Setmat@CDrFE2D@@QAEXI@Z   10030350 f i SLDPat.obj
 0001:0002f380       ?Getnumseg@CDrFE2D@@QAEIXZ 10030380 f i SLDPat.obj
 0001:0002f3b0       ?Setnumseg@CDrFE2D@@QAEXI@Z 100303b0 f i SLDPat.obj
 0001:0002f3e0       ?GetRefTemp@CDrFE2D@@QAENXZ 100303e0 f i SLDPat.obj
 0001:0002f410       ?SetRefTemp@CDrFE2D@@QAEXN@Z 10030410 f i SLDPat.obj
 0001:0002f450       ?GetCardNo@CDrFE2D@@QAEIXZ 10030450 f i SLDPat.obj
 0001:0002f480       ?SetCardNo@CDrFE2D@@QAEXI@Z 10030480 f i SLDPat.obj
 0001:0002f4b0       ?GetCenter@CDrFE2D@@UAE?AUtagPOINT@@XZ 100304b0 f i SLDPat.obj
 0001:0002f4f0       ?SetCenter@CDrFE2D@@UAEXUtagPOINT@@@Z 100304f0 f i SLDPat.obj
 0001:0002f530       ?IsPosiEdge@CDrFE2D@@QAEHH@Z 10030530 f i SLDPat.obj
 0001:0002f560       ?SetPosiEdge@CDrFE2D@@QAEXHH@Z 10030560 f i SLDPat.obj
 0001:0002f590       ?Getrid@CDrFE2D@@UAEAAVCString@@H@Z 10030590 f i SLDPat.obj
 0001:0002f5c0       ?Setrid@CDrFE2D@@UAEXVCString@@H@Z 100305c0 f i SLDPat.obj
 0001:0002f640       ?Getrel@CDrFE2D@@UAEIH@Z   10030640 f i SLDPat.obj
 0001:0002f670       ?Setrel@CDrFE2D@@UAEXIH@Z  10030670 f i SLDPat.obj
 0001:0002f6a0       ?GetnCorners@CDrFE2D@@UAEFXZ 100306a0 f i SLDPat.obj
 0001:0002f6d0       ?SetnCorners@CDrFE2D@@UAEXF@Z 100306d0 f i SLDPat.obj
 0001:0002f700       ?GetnEdges@CDrFE2D@@UAEFXZ 10030700 f i SLDPat.obj
 0001:0002f730       ?SetnEdges@CDrFE2D@@UAEXF@Z 10030730 f i SLDPat.obj
 0001:0002f760       ?GetElDegree@CDrFE2D@@UAE?AW4ELEM_DEGREE@@XZ 10030760 f i SLDPat.obj
 0001:0002f790       ?SetElDegree@CDrFE2D@@UAEXW4ELEM_DEGREE@@@Z 10030790 f i SLDPat.obj
 0001:0002f7c0       ?GetEdgeDegrees@CDrFE2D@@UAEFH@Z 100307c0 f i SLDPat.obj
 0001:0002f7f0       ?SetEdgeDegrees@CDrFE2D@@UAEXFH@Z 100307f0 f i SLDPat.obj
 0001:0002f820       ?GetThkness@CDrFE2D@@UAENXZ 10030820 f i SLDPat.obj
 0001:0002f850       ?SetThkness@CDrFE2D@@UAEXN@Z 10030850 f i SLDPat.obj
 0001:0002f890       ?IsEndCondMode@CSheet_SOLI@@QAEHXZ 10030890 f i SLDPat.obj
 0001:0002f8c0       ?SetEndCondMode@CSheet_SOLI@@QAEXH@Z 100308c0 f i SLDPat.obj
 0001:0002f8f0       ?IsTackled@CDrObj3D@@QAEHXZ 100308f0 f i SLDPat.obj
 0001:0002f920       ?SetTackled@CDrObj3D@@QAEXH@Z 10030920 f i SLDPat.obj
 0001:0002f950       ??1CDlg_O3DI@@UAE@XZ       10030950 f i SLDPat.obj
 0001:0002f9c0       ??1CDlg_SupI@@UAE@XZ       100309c0 f i SLDPat.obj
 0001:0002fa30       ?Parse_drPipe@CDrLinSup@@UAEPAUsupportcard@@PAVCString@@@Z 10030a30 f i SLDPat.obj
 0001:0002fa50       ?GetSuppCard@CDrLinSup@@UAEPAUsupportcard@@XZ 10030a50 f i SLDPat.obj
 0001:0002fa80       ?GetCardNo@CDrLinSup@@UAEHXZ 10030a80 f i SLDPat.obj
 0001:0002fab0       ?SetCardNo@CDrLinSup@@UAEXH@Z 10030ab0 f i SLDPat.obj
 0001:0002fae0       ?GetLabelNo@CDrLinSup@@QAEJXZ 10030ae0 f i SLDPat.obj
 0001:0002fb10       ?SetLabelNo@CDrLinSup@@QAEXJ@Z 10030b10 f i SLDPat.obj
 0001:0002fb40       ?GetnPts@CDrLinSup@@QAEHH@Z 10030b40 f i SLDPat.obj
 0001:0002fb70       ?GetpLoc@CDrLinSup@@QAEPAUWORLD@@H@Z 10030b70 f i SLDPat.obj
 0001:0002fba0       ?IsSkewed@CDrLinSup@@UAEHXZ 10030ba0 f i SLDPat.obj
 0001:0002fbd0       ?SetSkewed@CDrLinSup@@UAEXH@Z 10030bd0 f i SLDPat.obj
 0001:0002fc00       ?GetSkewMat@CDrLinSup@@QAEPAUMATRIX@@XZ 10030c00 f i SLDPat.obj
 0001:0002fc30       ?SetSkewMat@CDrLinSup@@QAEXPAUMATRIX@@@Z 10030c30 f i SLDPat.obj
 0001:0002fc70       ?GetCreateBase@CDrLinSup@@QAEIXZ 10030c70 f i SLDPat.obj
 0001:0002fca0       ?SetCreateBase@CDrLinSup@@QAEXI@Z 10030ca0 f i SLDPat.obj
 0001:0002fcd0       ?IsTriangle@CDrLinSup@@QAEHXZ 10030cd0 f i SLDPat.obj
 0001:0002fd00       ?SetTriangle@CDrLinSup@@QAEXH@Z 10030d00 f i SLDPat.obj
 0001:0002fd30       ?IsPentaHed@CDrLinSup@@QAEHXZ 10030d30 f i SLDPat.obj
 0001:0002fd60       ?SetPentaHed@CDrLinSup@@QAEXH@Z 10030d60 f i SLDPat.obj
 0001:0002fd90       ?GetCreate_i@CDrLinSup@@QAEHXZ 10030d90 f i SLDPat.obj
 0001:0002fdc0       ?SetCreate_i@CDrLinSup@@QAEXH@Z 10030dc0 f i SLDPat.obj
 0001:0002fdf0       ?GetCreate_j@CDrLinSup@@QAEHXZ 10030df0 f i SLDPat.obj
 0001:0002fe20       ?SetCreate_j@CDrLinSup@@QAEXH@Z 10030e20 f i SLDPat.obj
 0001:0002fe50       ?GetCreate_k@CDrLinSup@@QAEHXZ 10030e50 f i SLDPat.obj
 0001:0002fe80       ?SetCreate_k@CDrLinSup@@QAEXH@Z 10030e80 f i SLDPat.obj
 0001:0002feb0       ?GetNodPos@CDrLinSup@@QAEPAUWORLD@@XZ 10030eb0 f i SLDPat.obj
 0001:0002fee0       ?SetNodPos@CDrLinSup@@QAEXAAUWORLD@@@Z 10030ee0 f i SLDPat.obj
 0001:0002ff20       ??1CDlg_CrOI@@UAE@XZ       10030f20 f i SLDPat.obj
 0001:0002ffa0       ?GetElNumID@CDrFE0D@@QAEAAVCString@@XZ 10030fa0 f i SLDPat.obj
 0001:0002ffd0       ?SetElNumID@CDrFE0D@@QAEXVCString@@@Z 10030fd0 f i SLDPat.obj
 0001:00030050       ?GetElTypeID@CDrFE0D@@QAEAAVCString@@XZ 10031050 f i SLDPat.obj
 0001:00030080       ?SetElTypeID@CDrFE0D@@QAEXVCString@@@Z 10031080 f i SLDPat.obj
 0001:00030100       ?Getrid@CDrFE0D@@QAEAAVCString@@XZ 10031100 f i SLDPat.obj
 0001:00030130       ?Setrid@CDrFE0D@@QAEXVCString@@@Z 10031130 f i SLDPat.obj
 0001:000301b0       ?Getpid@CDrFE0D@@QAEAAVCString@@XZ 100311b0 f i SLDPat.obj
 0001:000301e0       ?Setpid@CDrFE0D@@QAEXVCString@@@Z 100311e0 f i SLDPat.obj
 0001:00030260       ?Getmid@CDrFE0D@@QAEAAVCString@@XZ 10031260 f i SLDPat.obj
 0001:00030290       ?Setmid@CDrFE0D@@QAEXVCString@@@Z 10031290 f i SLDPat.obj
 0001:00030310       ?GetElNum@CDrFE0D@@QAEIXZ  10031310 f i SLDPat.obj
 0001:00030340       ?SetElNum@CDrFE0D@@QAEXI@Z 10031340 f i SLDPat.obj
 0001:00030370       ?GetElTypeNum@CDrFE0D@@QAEIXZ 10031370 f i SLDPat.obj
 0001:000303a0       ?SetElTypeNum@CDrFE0D@@QAEXI@Z 100313a0 f i SLDPat.obj
 0001:000303d0       ?Getrel@CDrFE0D@@QAEIXZ    100313d0 f i SLDPat.obj
 0001:00030400       ?Setrel@CDrFE0D@@QAEXI@Z   10031400 f i SLDPat.obj
 0001:00030430       ?Getprop@CDrFE0D@@QAEIXZ   10031430 f i SLDPat.obj
 0001:00030460       ?Setprop@CDrFE0D@@QAEXI@Z  10031460 f i SLDPat.obj
 0001:00030490       ?Getmat@CDrFE0D@@QAEIXZ    10031490 f i SLDPat.obj
 0001:000304c0       ?Setmat@CDrFE0D@@QAEXI@Z   100314c0 f i SLDPat.obj
 0001:000304f0       ?GetRefTemp@CDrFE0D@@QAENXZ 100314f0 f i SLDPat.obj
 0001:00030520       ?SetRefTemp@CDrFE0D@@QAEXN@Z 10031520 f i SLDPat.obj
 0001:00030560       ?GetNormalWorld@CDrFE0D@@UAEPAUWORLD@@XZ 10031560 f i SLDPat.obj
 0001:00030590       ?SetNormalWorld@CDrFE0D@@UAEXUWORLD@@@Z 10031590 f i SLDPat.obj
 0001:000305d0       ?GetNormalEye@CDrFE0D@@UAEPAUWORLD@@XZ 100315d0 f i SLDPat.obj
 0001:00030600       ?SetNormalEye@CDrFE0D@@UAEXUWORLD@@@Z 10031600 f i SLDPat.obj
 0001:00030640       ?GetNormalScreen3D@CDrFE0D@@UAEPAUWORLD@@XZ 10031640 f i SLDPat.obj
 0001:00030670       ?SetNormalScreen3D@CDrFE0D@@UAEXUWORLD@@@Z 10031670 f i SLDPat.obj
 0001:000306b0       ?GetNormalScreen2D@CDrFE0D@@UAEPAUtagPOINT@@XZ 100316b0 f i SLDPat.obj
 0001:000306e0       ?SetNormalScreen2D@CDrFE0D@@UAEXUtagPOINT@@@Z 100316e0 f i SLDPat.obj
 0001:00030720       ?IsMeshNode@CDrFE0D@@UAEHXZ 10031720 f i SLDPat.obj
 0001:00030750       ?SetMeshNode@CDrFE0D@@UAEXH@Z 10031750 f i SLDPat.obj
 0001:00030780       ?GetHist_S@CDrFE0D@@QAEHXZ 10031780 f i SLDPat.obj
 0001:000307b0       ?SetHist_S@CDrFE0D@@QAEXH@Z 100317b0 f i SLDPat.obj
 0001:000307e0       ?GetHist_T@CDrFE0D@@QAEHXZ 100317e0 f i SLDPat.obj
 0001:00030810       ?SetHist_T@CDrFE0D@@QAEXH@Z 10031810 f i SLDPat.obj
 0001:00030840       ?GetHist_R@CDrFE0D@@QAEHXZ 10031840 f i SLDPat.obj
 0001:00030870       ?SetHist_R@CDrFE0D@@QAEXH@Z 10031870 f i SLDPat.obj
 0001:000308a0       ??1CMlg_CrOI@@UAE@XZ       100318a0 f i SLDPat.obj
 0001:00030920       ?GetGenObj@CDrMesh1D@@QAEPAVCDrCurve@@XZ 10031920 f i SLDPat.obj
 0001:00030950       ?SetGenObj@CDrMesh1D@@QAEXPAVCDrCurve@@@Z 10031950 f i SLDPat.obj
 0001:00030980       ?GetRefQuad@CDrMesh2D@@UAE?AW4REF_QUAD@@XZ 10031980 f i SLDPat.obj
 0001:000309b0       ?SetRefQuad@CDrMesh2D@@UAEXW4REF_QUAD@@@Z 100319b0 f i SLDPat.obj
 0001:000309e0       ?GetRefTri@CDrMesh2D@@UAE?AW4REF_TRI@@XZ 100319e0 f i SLDPat.obj
 0001:00030a10       ?SetRefTri@CDrMesh2D@@UAEXW4REF_TRI@@@Z 10031a10 f i SLDPat.obj
 0001:00030a40       ?GetOrient@CDrMesh2D@@UAE?AW4ORIENT@@XZ 10031a40 f i SLDPat.obj
 0001:00030a70       ?SetOrient@CDrMesh2D@@UAEXW4ORIENT@@@Z 10031a70 f i SLDPat.obj
 0001:00030aa0       ?GetGenObj@CDrMesh2D@@QAEPAVCDrPatch@@XZ 10031aa0 f i SLDPat.obj
 0001:00030ad0       ?SetGenObj@CDrMesh2D@@QAEXPAVCDrPatch@@@Z 10031ad0 f i SLDPat.obj
 0001:00030b00       ?IsReversed_ST@CDrMesh2D@@QAEHXZ 10031b00 f i SLDPat.obj
 0001:00030b30       ?SetReversed_ST@CDrMesh2D@@QAEXH@Z 10031b30 f i SLDPat.obj
 0001:00030b60       ?GetEdgeList@CDrMesh2D@@QAEPAVCDListMgr@@XZ 10031b60 f i SLDPat.obj
 0001:00030b90       ?GetEdgeList@CDrMesh3D@@QAEPAVCDListMgr@@XZ 10031b90 f i SLDPat.obj
 0001:00030bc0       ?GetFaceList@CDrMesh3D@@QAEPAVCDListMgr@@XZ 10031bc0 f i SLDPat.obj
 0001:00030bf0       ?GetGenObj@CDrMesh3D@@QAEPAVCDrSolid@@XZ 10031bf0 f i SLDPat.obj
 0001:00030c20       ?SetGenObj@CDrMesh3D@@QAEXPAVCDrSolid@@@Z 10031c20 f i SLDPat.obj
 0001:00030c50       ??1CDlg_FE0I@@UAE@XZ       10031c50 f i SLDPat.obj
 0001:00030cd0       ?Parse_drPipe@CDrPipe@@UAEXPAVCString@@@Z 10031cd0 f i SLDPat.obj
 0001:00030cf0       ?GetMaxCorners@CDrPipe@@UAEHXZ 10031cf0 f i SLDPat.obj
 0001:00030d10       ?GetSIid@CDrPipe@@QAEAAVCString@@H@Z 10031d10 f i SLDPat.obj
 0001:00030d40       ?SetSIid@CDrPipe@@QAEXVCString@@H@Z 10031d40 f i SLDPat.obj
 0001:00030dc0       ?IsValve@CDrPipe@@QAEHXZ   10031dc0 f i SLDPat.obj
 0001:00030df0       ?SetValve@CDrPipe@@QAEXH@Z 10031df0 f i SLDPat.obj
 0001:00030e20       ?Parse_drPipe@CDrBeam@@UAEXPAVCString@@@Z 10031e20 f i SLDPat.obj
 0001:00030e40       ?GetMaxCorners@CDrBeam@@UAEHXZ 10031e40 f i SLDPat.obj
 0001:00030e60       ?GetKNodeID@CDrBeam@@UAEAAVCString@@XZ 10031e60 f i SLDPat.obj
 0001:00030e90       ?SetKNodeID@CDrBeam@@UAEXAAVCString@@@Z 10031e90 f i SLDPat.obj
 0001:00030ec0       ?Parse_drPipe@CDrTruss@@UAEXPAVCString@@@Z 10031ec0 f i SLDPat.obj
 0001:00030ee0       ?GetMaxCorners@CDrTruss@@UAEHXZ 10031ee0 f i SLDPat.obj
 0001:00030f00       ?Parse_drPipe@CDrElbow@@UAEXPAVCString@@@Z 10031f00 f i SLDPat.obj
 0001:00030f20       ?GetMaxCorners@CDrElbow@@UAEHXZ 10031f20 f i SLDPat.obj
 0001:00030f40       ?GetSIid@CDrElbow@@QAEAAVCString@@H@Z 10031f40 f i SLDPat.obj
 0001:00030f70       ?SetSIid@CDrElbow@@QAEXVCString@@H@Z 10031f70 f i SLDPat.obj
 0001:00030ff0       ?GetCCID@CDrElbow@@QAEAAVCString@@H@Z 10031ff0 f i SLDPat.obj
 0001:00031020       ?SetCCID@CDrElbow@@QAEXVCString@@@Z 10032020 f i SLDPat.obj
 0001:000310a0       ?GetTIID@CDrElbow@@QAEAAVCString@@H@Z 100320a0 f i SLDPat.obj
 0001:000310d0       ?SetTIID@CDrElbow@@QAEXVCString@@@Z 100320d0 f i SLDPat.obj
 0001:00031150       ?GetCAID@CDrElbow@@QAEAAVCString@@H@Z 10032150 f i SLDPat.obj
 0001:00031180       ?SetCAID@CDrElbow@@QAEXVCString@@@Z 10032180 f i SLDPat.obj
 0001:00031200       ?GetCBID@CDrElbow@@QAEAAVCString@@H@Z 10032200 f i SLDPat.obj
 0001:00031230       ?SetCBID@CDrElbow@@QAEXVCString@@@Z 10032230 f i SLDPat.obj
 0001:000312b0       ??1CDlg_FE1I@@UAE@XZ       100322b0 f i SLDPat.obj
 0001:00031390       ?GetDrFace@CFaceInfo@@QAEPAVCObject@@XZ 10032390 f i SLDPat.obj
 0001:000313b0       ?SetDrFace@CFaceInfo@@QAEXPAVCObject@@@Z 100323b0 f i SLDPat.obj
 0001:000313e0       ?GetFaceType@CFaceInfo@@QAEIXZ 100323e0 f i SLDPat.obj
 0001:00031400       ?SetFaceType@CFaceInfo@@QAEXI@Z 10032400 f i SLDPat.obj
 0001:00031430       ?GetGenObj@CFaceInfo@@QAEPAVCObject@@XZ 10032430 f i SLDPat.obj
 0001:00031450       ?SetGenObj@CFaceInfo@@QAEXPAVCObject@@@Z 10032450 f i SLDPat.obj
 0001:00031480       ?GetGenType@CFaceInfo@@QAEIXZ 10032480 f i SLDPat.obj
 0001:000314a0       ?SetGenType@CFaceInfo@@QAEXI@Z 100324a0 f i SLDPat.obj
 0001:000314d0       ?GetFaceDim@CFaceInfo@@QAEIXZ 100324d0 f i SLDPat.obj
 0001:000314f0       ?SetFaceDim@CFaceInfo@@QAEXI@Z 100324f0 f i SLDPat.obj
 0001:00031520       ?GetObjectID@CDrEdge@@QAEAAVCString@@XZ 10032520 f i SLDPat.obj
 0001:00031540       ?SetObjectID@CDrEdge@@QAEXAAVCString@@@Z 10032540 f i SLDPat.obj
 0001:00031570       ?GetVrtxIndex@CDrEdge@@QAEHH@Z 10032570 f i SLDPat.obj
 0001:000315a0       ?SetVrtxIndex@CDrEdge@@QAEXHH@Z 100325a0 f i SLDPat.obj
 0001:000315d0       ?GetFaceInfoList@CDrEdge@@QAEPAVCDListMgr@@XZ 100325d0 f i SLDPat.obj
 0001:000315f0       ?GetHist_RCH@CDrEdge@@QAEHXZ 100325f0 f i SLDPat.obj
 0001:00031610       ?SetHist_RCH@CDrEdge@@QAEXH@Z 10032610 f i SLDPat.obj
 0001:00031640       ?GetHistType@CDrEdge@@QAEHXZ 10032640 f i SLDPat.obj
 0001:00031660       ?SetHistType@CDrEdge@@QAEXH@Z 10032660 f i SLDPat.obj
 0001:00031690       ?GetMesh@CDrEdge@@QAEPAVCDrObject@@XZ 10032690 f i SLDPat.obj
 0001:000316b0       ?SetMesh@CDrEdge@@QAEXPAVCDrObject@@@Z 100326b0 f i SLDPat.obj
 0001:000316e0       ?GetMeshType@CDrEdge@@QAEIXZ 100326e0 f i SLDPat.obj
 0001:00031700       ?SetMeshType@CDrEdge@@QAEXI@Z 10032700 f i SLDPat.obj
 0001:00031730       ?IsOnBndry@CDrEdge@@QAEHXZ 10032730 f i SLDPat.obj
 0001:00031750       ?SetOnBndry@CDrEdge@@QAEXH@Z 10032750 f i SLDPat.obj
 0001:00031780       ??1CDlg_FE2I@@UAE@XZ       10032780 f i SLDPat.obj
 0001:00031860       ?GetMesh1DList@CDrProf_1@@UAEPAVCDListMgr@@XZ 10032860 f i SLDPat.obj
 0001:00031890       ?GetLMList@CDrProf_1@@UAEPAVCDListMgr@@XZ 10032890 f i SLDPat.obj
 0001:000318c0       ?GetMesh1D@CDrProf_1@@UAEPAVCDrMesh1D@@XZ 100328c0 f i SLDPat.obj
 0001:000318f0       ?SetMesh1D@CDrProf_1@@UAEXPAVCDrMesh1D@@@Z 100328f0 f i SLDPat.obj
 0001:00031920       ?CreateObject@CSLDPat@@SGPAVCObject@@XZ 10032920 f   SLDPat.obj
 0001:000319c0       ?_GetBaseClass@CSLDPat@@KGPAUCRuntimeClass@@XZ 100329c0 f   SLDPat.obj
 0001:000319e0       ?GetRuntimeClass@CSLDPat@@UBEPAUCRuntimeClass@@XZ 100329e0 f   SLDPat.obj
 0001:00031a50       ??5@YGAAVCArchive@@AAV0@AAPAVCSLDPat@@@Z 10032a50 f   SLDPat.obj
 0001:00031a80       ??0CSLDPat@@QAE@XZ         10032a80 f   SLDPat.obj
 0001:00031bc0       ??_GCSLDPat@@UAEPAXI@Z     10032bc0 f i SLDPat.obj
 0001:00031c00       ??_ECSLDPat@@UAEPAXI@Z     10032c00 f i SLDPat.obj
 0001:00031ca0       ??1CSLDPat@@UAE@XZ         10032ca0 f   SLDPat.obj
 0001:00031dd0       ?GetObjectInfo@CSLDPat@@UAEXPAVCSLDObj@@@Z 10032dd0 f   SLDPat.obj
 0001:00032000       ?SetObjectInfo@CSLDPat@@UAEXPAVCSLDObj@@@Z 10033000 f   SLDPat.obj
 0001:00032230       ?ShowPatchStaticLoad@CSLDPat@@QAEHPAVCDrPatch@@PAVCString@@@Z 10033230 f   SLDPat.obj
 0001:000326a0       ?RemoveMostListsFromPatch@CSLDPat@@IAEXPAVCDrPatch@@@Z 100336a0 f   SLDPat.obj
 0001:00032870       ?ShowInfo_PatchStaticLoad@CSLDPat@@QAEHPAVCDrPatch@@PADHAAVCString@@@Z 10033870 f   SLDPat.obj
 0001:00032b70       ?Get_Values_Iso_Pat_Curve@CSLDPat@@IAEHPAVCDrCurve@@HHHW4STALPROC@@AAVCString@@H@Z 10033b70 f   SLDPat.obj
 0001:00032cf0       ?Get_Values_NonIso_Pat@CSLDPat@@QAEHW4STALPROC@@@Z 10033cf0 f   SLDPat.obj
 0001:00032d20       ?Get_Values_Iso_Pat@CSLDPat@@QAEHPAVCDrPatch@@W4STALPROC@@AAVCString@@@Z 10033d20 f   SLDPat.obj
 0001:00033240       ?Get_Values_IsoNod_AnyProc@CSLDPat@@IAEHAAVCString@@W4STALPROC@@00@Z 10034240 f   SLDPat.obj
 0001:00033630       ?Get_Values_IsoCur_AnyProc@CSLDPat@@IAEHAAVCString@@HHHW4STALPROC@@00H@Z 10034630 f   SLDPat.obj
 0001:000339c0       ?Get_Values_Iso_EXTRUDE_Type1@CSLDPat@@IAEHPAVCDrPatch@@W4STALPROC@@AAVCString@@@Z 100349c0 f   SLDPat.obj
 0001:000340f0       ?UpdateCurrStat@CDrGrafFrame@@QAEXAAVCString@@@Z 100350f0 f i SLDPat.obj
 0001:00034150       ?SetText@CStatCntl@@QAEXAAVCString@@@Z 10035150 f i SLDPat.obj
 0001:00034180       ?SetstrCurrID@CDrGrafFrame@@QAEXAAVCString@@@Z 10035180 f i SLDPat.obj
 0001:000341b0       ?Get_Values_Iso_EXTRUDE_Type2@CSLDPat@@IAEHPAVCDrPatch@@W4STALPROC@@AAVCString@@@Z 100351b0 f   SLDPat.obj
 0001:000345b0       ?Get_Values_Iso_ROTATE@CSLDPat@@IAEHPAVCDrPatch@@W4STALPROC@@AAVCString@@@Z 100355b0 f   SLDPat.obj
 0001:00034ce0       ?Get_Values_Iso_LOFT2@CSLDPat@@IAEHPAVCDrPatch@@W4STALPROC@@AAVCString@@@Z 10035ce0 f   SLDPat.obj
 0001:00035120       ?Get_Values_Iso_COONS@CSLDPat@@IAEHPAVCDrPatch@@W4STALPROC@@AAVCString@@@Z 10036120 f   SLDPat.obj
 0001:00035520       ?Get_Values_Iso_DUCT@CSLDPat@@IAEHPAVCDrPatch@@W4STALPROC@@AAVCString@@@Z 10036520 f   SLDPat.obj
 0001:00035ad0       ?Get_Values_Iso_SWEEP@CSLDPat@@IAEHPAVCDrPatch@@W4STALPROC@@AAVCString@@@Z 10036ad0 f   SLDPat.obj
 0001:00036080       ?Generate_IsoPatchControls@CSLDPat@@QAEHPAVCDrPatch@@PAVCString@@H@Z 10037080 f   SLDPat.obj
 0001:000366f0       ?SetUp_IsoPatchControls@CSLDPat@@IAEHPAVCDrPatch@@HPAVCString@@H@Z 100376f0 f   SLDPat.obj
 0001:00036a80       ?Generate_IsoControls_EXTRUDE@CSLDPat@@IAEHPAVCDrPatch@@PAVCString@@@Z 10037a80 f   SLDPat.obj
 0001:00036c90       ?Generate_IsoControls_ROTATE@CSLDPat@@IAEHPAVCDrPatch@@PAVCString@@@Z 10037c90 f   SLDPat.obj
 0001:00036cc0       ?Generate_IsoControls_LOFT2@CSLDPat@@IAEHPAVCDrPatch@@PAVCString@@@Z 10037cc0 f   SLDPat.obj
 0001:00036db0       ?Generate_IsoControls_DUCT@CSLDPat@@IAEHPAVCDrPatch@@PAVCString@@@Z 10037db0 f   SLDPat.obj
 0001:00036fa0       ?Generate_IsoControls_SWEEP@CSLDPat@@IAEHPAVCDrPatch@@PAVCString@@@Z 10037fa0 f   SLDPat.obj
 0001:000371f0       ?Generate_IsoControls_COONS@CSLDPat@@IAEHPAVCDrPatch@@PAVCString@@@Z 100381f0 f   SLDPat.obj
 0001:000375a0       ?Serialize@CSLDPat@@UAEXAAVCArchive@@@Z 100385a0 f   SLDPat.obj
 0001:00037600       ??0?$CList@W4CURVELATCH@@W41@@@QAE@H@Z 10038600 f i SLDPat.obj
 0001:000376e0       ?IsEmpty@?$CList@W4CURVELATCH@@W41@@@QBEHXZ 100386e0 f i SLDPat.obj
 0001:00037710       ?AddTail@?$CList@W4CURVELATCH@@W41@@@QAEXPAV1@@Z 10038710 f i SLDPat.obj
 0001:000377c0       ?AddTail@?$CList@W4CURVELATCH@@W41@@@QAEPAU__POSITION@@W4CURVELATCH@@@Z 100387c0 f i SLDPat.obj
 0001:00037850       ?RemoveAll@?$CList@W4CURVELATCH@@W41@@@QAEXXZ 10038850 f i SLDPat.obj
 0001:00037900       ?GetAt@?$CList@W4CURVELATCH@@W41@@@QAEAAW4CURVELATCH@@PAU__POSITION@@@Z 10038900 f i SLDPat.obj
 0001:00037960       ?FindIndex@?$CList@W4CURVELATCH@@W41@@@QBEPAU__POSITION@@H@Z 10038960 f i SLDPat.obj
 0001:00037a20       ??1?$CList@W4CURVELATCH@@W41@@@UAE@XZ 10038a20 f i SLDPat.obj
 0001:00037ac0       ?Serialize@?$CList@W4CURVELATCH@@W41@@@UAEXAAVCArchive@@@Z 10038ac0 f i SLDPat.obj
 0001:00037be0       ?Dump@?$CList@W4CURVELATCH@@W41@@@UBEXAAVCDumpContext@@@Z 10038be0 f i SLDPat.obj
 0001:00037ca0       ?AssertValid@?$CList@W4CURVELATCH@@W41@@@UBEXXZ 10038ca0 f i SLDPat.obj
 0001:00037da0       ??_E?$CList@W4CURVELATCH@@W41@@@UAEPAXI@Z 10038da0 f i SLDPat.obj
 0001:00037da0       ??_G?$CList@W4CURVELATCH@@W41@@@UAEPAXI@Z 10038da0 f i SLDPat.obj
 0001:00037de0       ?GetHeadPosition@?$CList@W4CURVELATCH@@W41@@@QBEPAU__POSITION@@XZ 10038de0 f i SLDPat.obj
 0001:00037e00       ?GetNext@?$CList@W4CURVELATCH@@W41@@@QAEAAW4CURVELATCH@@AAPAU__POSITION@@@Z 10038e00 f i SLDPat.obj
 0001:00037e70       ?NewNode@?$CList@W4CURVELATCH@@W41@@@IAEPAUCNode@1@PAU21@0@Z 10038e70 f i SLDPat.obj
 0001:00037fe0       ?DestructElements@@YGXPAW4CURVELATCH@@H@Z 10038fe0 f i SLDPat.obj
 0001:00038060       ?SerializeElements@@YGXAAVCArchive@@PAW4CURVELATCH@@H@Z 10039060 f i SLDPat.obj
 0001:00038100       ?DumpElements@@YGXAAVCDumpContext@@PBW4CURVELATCH@@H@Z 10039100 f i SLDPat.obj
 0001:00038160       ?ConstructElements@@YGXPAW4CURVELATCH@@H@Z 10039160 f i SLDPat.obj
 0001:0003820a       ?GetObjectIndexfromKey@CObjectMgr@@QAEHHVCString@@I@Z 1003920a f   OMgr_D32:OMgr_D32.dll
 0001:00038210       ?GetSpecObject@CObjectMgr@@QAEPAVCDrObject@@H@Z 10039210 f   OMgr_D32:OMgr_D32.dll
 0001:00038216       ?ShowObject_On_Off@CObjectMgr@@QAEHPAVCDrObject@@IH@Z 10039216 f   OMgr_D32:OMgr_D32.dll
 0001:0003821c       ?GetRuntimeClass@CMatObj@@UBEPAUCRuntimeClass@@XZ 1003921c f   Spec_d32:Spec_D32.dll
 0001:00038222       ?InitBooleans@CBooleans@@UAEXXZ 10039222 f   Spec_d32:Spec_D32.dll
 0001:00038228       ?ReadDefaultBooleans@CBooleans@@UAEXXZ 10039228 f   Spec_d32:Spec_D32.dll
 0001:0003822e       ?ToggleZoom@CBooleans@@UAEHHH@Z 1003922e f   Spec_d32:Spec_D32.dll
 0001:00038234       ?IsZoomOn@CBooleans@@UAEHHH@Z 10039234 f   Spec_d32:Spec_D32.dll
 0001:0003823a       ?SetZoomEnabled@CBooleans@@UAEXHH@Z 1003923a f   Spec_d32:Spec_D32.dll
 0001:00038240       ?IsZoomEnabled@CBooleans@@UAEHH@Z 10039240 f   Spec_d32:Spec_D32.dll
 0001:00038246       ?SetObjectInfo@CBooleans@@UAEXPAVCDrObject@@@Z 10039246 f   Spec_d32:Spec_D32.dll
 0001:0003824c       ?GetObjectInfo@CBooleans@@UAEXPAVCDrObject@@@Z 1003924c f   Spec_d32:Spec_D32.dll
 0001:00038252       ?Pack_drPipe@CBooleans@@UAEXPAVCString@@@Z 10039252 f   Spec_d32:Spec_D32.dll
 0001:00038258       ?SetScreen3DCorner@CDrObject@@UAEXPAUWORLD@@H@Z 10039258 f   Spec_d32:Spec_D32.dll
 0001:0003825e       ?GetScreen3DCorner@CDrObject@@UAEXPAUWORLD@@H@Z 1003925e f   Spec_d32:Spec_D32.dll
 0001:00038264       ?SetEyeCorner@CDrObject@@UAEXPAUWORLD@@H@Z 10039264 f   Spec_d32:Spec_D32.dll
 0001:0003826a       ?GetEyeCorner@CDrObject@@UAEXPAUWORLD@@H@Z 1003926a f   Spec_d32:Spec_D32.dll
 0001:00038270       ?SetWorldCorner@CDrObject@@UAEXPAUWORLD@@H@Z 10039270 f   Spec_d32:Spec_D32.dll
 0001:00038276       ?GetWorldCorner@CDrObject@@UAEXPAUWORLD@@H@Z 10039276 f   Spec_d32:Spec_D32.dll
 0001:0003827c       ?SetLocalCorner@CDrObject@@UAEXPAUWORLD@@H@Z 1003927c f   Spec_d32:Spec_D32.dll
 0001:00038282       ?GetLocalCorner@CDrObject@@UAEXPAUWORLD@@H@Z 10039282 f   Spec_d32:Spec_D32.dll
 0001:00038288       ?DoDataView@CBooleans@@UAEXPAVCDC@@H@Z 10039288 f   Spec_d32:Spec_D32.dll
 0001:0003828e       ?Serialize@CBooleans@@UAEXAAVCArchive@@@Z 1003928e f   Spec_d32:Spec_D32.dll
 0001:00038294       ?GetRuntimeClass@CBooleans@@UBEPAUCRuntimeClass@@XZ 10039294 f   Spec_d32:Spec_D32.dll
 0001:0003829a       ??1CDrObject@@UAE@XZ       1003929a f   Spec_d32:Spec_D32.dll
 0001:000382a0       ?InitDataWindow@CDataWindow@@UAEXXZ 100392a0 f   Spec_d32:Spec_D32.dll
 0001:000382a6       ?ReadDefaultDataWindow@CDataWindow@@UAEXXZ 100392a6 f   Spec_d32:Spec_D32.dll
 0001:000382ac       ?SetWinExtWIC@CDataWindow@@UAEXXZ 100392ac f   Spec_d32:Spec_D32.dll
 0001:000382b2       ?SetWinMinMaxWIC@CDataWindow@@UAEXULPOINT3@@@Z 100392b2 f   Spec_d32:Spec_D32.dll
 0001:000382b8       ?SetObjectInfo@CDataWindow@@UAEXPAVCDrObject@@@Z 100392b8 f   Spec_d32:Spec_D32.dll
 0001:000382be       ?GetObjectInfo@CDataWindow@@UAEXPAVCDrObject@@@Z 100392be f   Spec_d32:Spec_D32.dll
 0001:000382c4       ?Pack_drPipe@CDataWindow@@UAEXPAVCString@@@Z 100392c4 f   Spec_d32:Spec_D32.dll
 0001:000382ca       ?DoDataView@CDataWindow@@UAEXPAVCDC@@H@Z 100392ca f   Spec_d32:Spec_D32.dll
 0001:000382d0       ?Serialize@CDataWindow@@UAEXAAVCArchive@@@Z 100392d0 f   Spec_d32:Spec_D32.dll
 0001:000382d6       ?GetRuntimeClass@CDataWindow@@UBEPAUCRuntimeClass@@XZ 100392d6 f   Spec_d32:Spec_D32.dll
 0001:000382dc       ?InitDrFont@CDrFont@@UAEXXZ 100392dc f   Spec_d32:Spec_D32.dll
 0001:000382e2       ?ReadDefaultDrFont@CDrFont@@UAEXXZ 100392e2 f   Spec_d32:Spec_D32.dll
 0001:000382e8       ?DoTextFont@CDrFont@@UAEXXZ 100392e8 f   Spec_d32:Spec_D32.dll
 0001:000382ee       ?SetObjectInfo@CDrFont@@UAEXPAVCDrObject@@@Z 100392ee f   Spec_d32:Spec_D32.dll
 0001:000382f4       ?GetObjectInfo@CDrFont@@UAEXPAVCDrObject@@@Z 100392f4 f   Spec_d32:Spec_D32.dll
 0001:000382fa       ?Pack_drPipe@CDrFont@@UAEXPAVCString@@@Z 100392fa f   Spec_d32:Spec_D32.dll
 0001:00038300       ?DoDataView@CDrFont@@UAEXPAVCDC@@H@Z 10039300 f   Spec_d32:Spec_D32.dll
 0001:00038306       ?Serialize@CDrFont@@UAEXAAVCArchive@@@Z 10039306 f   Spec_d32:Spec_D32.dll
 0001:0003830c       ?GetRuntimeClass@CDrFont@@UBEPAUCRuntimeClass@@XZ 1003930c f   Spec_d32:Spec_D32.dll
 0001:00038312       ?InitDrPen@CDrPen@@UAEXXZ  10039312 f   Spec_d32:Spec_D32.dll
 0001:00038318       ?ReadDefaultDrPen@CDrPen@@UAEXXZ 10039318 f   Spec_d32:Spec_D32.dll
 0001:0003831e       ?ReplacePen@CDrPen@@UAEXXZ 1003931e f   Spec_d32:Spec_D32.dll
 0001:00038324       ?SetObjectInfo@CDrPen@@UAEXPAVCDrObject@@@Z 10039324 f   Spec_d32:Spec_D32.dll
 0001:0003832a       ?GetObjectInfo@CDrPen@@UAEXPAVCDrObject@@@Z 1003932a f   Spec_d32:Spec_D32.dll
 0001:00038330       ?Pack_drPipe@CDrPen@@UAEXPAVCString@@@Z 10039330 f   Spec_d32:Spec_D32.dll
 0001:00038336       ?DoDataView@CDrPen@@UAEXPAVCDC@@H@Z 10039336 f   Spec_d32:Spec_D32.dll
 0001:0003833c       ?Serialize@CDrPen@@UAEXAAVCArchive@@@Z 1003933c f   Spec_d32:Spec_D32.dll
 0001:00038342       ?GetRuntimeClass@CDrPen@@UBEPAUCRuntimeClass@@XZ 10039342 f   Spec_d32:Spec_D32.dll
 0001:00038348       ?SetObjectInfo@CHitNet@@UAEXPAVCDrObject@@@Z 10039348 f   Spec_d32:Spec_D32.dll
 0001:0003834e       ?GetObjectInfo@CHitNet@@UAEXPAVCDrObject@@@Z 1003934e f   Spec_d32:Spec_D32.dll
 0001:00038354       ?Pack_drPipe@CHitNet@@UAEXPAVCString@@@Z 10039354 f   Spec_d32:Spec_D32.dll
 0001:0003835a       ?DoDataView@CHitNet@@UAEXPAVCDC@@H@Z 1003935a f   Spec_d32:Spec_D32.dll
 0001:00038360       ?Serialize@CHitNet@@UAEXAAVCArchive@@@Z 10039360 f   Spec_d32:Spec_D32.dll
 0001:00038366       ?GetRuntimeClass@CHitNet@@UBEPAUCRuntimeClass@@XZ 10039366 f   Spec_d32:Spec_D32.dll
 0001:0003836c       ?InitLayer@CLayer@@UAEXXZ  1003936c f   Spec_d32:Spec_D32.dll
 0001:00038372       ?ReadDefaultLayer@CLayer@@UAEXXZ 10039372 f   Spec_d32:Spec_D32.dll
 0001:00038378       ?SetLayerDefaultArray@CLayer@@UAEXQAY01I@Z 10039378 f   Spec_d32:Spec_D32.dll
 0001:0003837e       ?GetLayerDefaultArray@CLayer@@UAEXQAY01I@Z 1003937e f   Spec_d32:Spec_D32.dll
 0001:00038384       ?SetLayerOldArray@CLayer@@UAEXQAY01I@Z 10039384 f   Spec_d32:Spec_D32.dll
 0001:0003838a       ?GetLayerOldArray@CLayer@@UAEXQAY01I@Z 1003938a f   Spec_d32:Spec_D32.dll
 0001:00038390       ?SetLayerArray@CLayer@@UAEXQAY01I@Z 10039390 f   Spec_d32:Spec_D32.dll
 0001:00038396       ?GetLayerArray@CLayer@@UAEXQAY01I@Z 10039396 f   Spec_d32:Spec_D32.dll
 0001:0003839c       ?SetLayerInfo@CLayer@@UAEXII@Z 1003939c f   Spec_d32:Spec_D32.dll
 0001:000383a2       ?GetLayerInfo@CLayer@@UAE?AVCString@@I@Z 100393a2 f   Spec_d32:Spec_D32.dll
 0001:000383a8       ?SetObjectInfo@CLayer@@UAEXPAVCDrObject@@@Z 100393a8 f   Spec_d32:Spec_D32.dll
 0001:000383ae       ?GetObjectInfo@CLayer@@UAEXPAVCDrObject@@@Z 100393ae f   Spec_d32:Spec_D32.dll
 0001:000383b4       ?Pack_drPipe@CLayer@@UAEXPAVCString@@@Z 100393b4 f   Spec_d32:Spec_D32.dll
 0001:000383ba       ?DoDataView@CLayer@@UAEXPAVCDC@@H@Z 100393ba f   Spec_d32:Spec_D32.dll
 0001:000383c0       ?Serialize@CLayer@@UAEXAAVCArchive@@@Z 100393c0 f   Spec_d32:Spec_D32.dll
 0001:000383c6       ?GetRuntimeClass@CLayer@@UBEPAUCRuntimeClass@@XZ 100393c6 f   Spec_d32:Spec_D32.dll
 0001:000383cc       ?InitPatchMnu@CPatchMnu@@UAEXXZ 100393cc f   Spec_d32:Spec_D32.dll
 0001:000383d2       ?ReadDefaultPatchMnu@CPatchMnu@@UAEXXZ 100393d2 f   Spec_d32:Spec_D32.dll
 0001:000383d8       ?SetPatchMnuDefaultArray@CPatchMnu@@UAEXQAY01I@Z 100393d8 f   Spec_d32:Spec_D32.dll
 0001:000383de       ?GetPatchMnuDefaultArray@CPatchMnu@@UAEXQAY01I@Z 100393de f   Spec_d32:Spec_D32.dll
 0001:000383e4       ?SetPatchMnuOldArray@CPatchMnu@@UAEXQAY01I@Z 100393e4 f   Spec_d32:Spec_D32.dll
 0001:000383ea       ?GetPatchMnuOldArray@CPatchMnu@@UAEXQAY01I@Z 100393ea f   Spec_d32:Spec_D32.dll
 0001:000383f0       ?SetPatchMnuArray@CPatchMnu@@UAEXQAY01I@Z 100393f0 f   Spec_d32:Spec_D32.dll
 0001:000383f6       ?GetPatchMnuArray@CPatchMnu@@UAEXQAY01I@Z 100393f6 f   Spec_d32:Spec_D32.dll
 0001:000383fc       ?SetPatchMnuIDArray@CPatchMnu@@UAEXQAVCString@@@Z 100393fc f   Spec_d32:Spec_D32.dll
 0001:00038402       ?GetPatchMnuIDArray@CPatchMnu@@UAEXQAVCString@@@Z 10039402 f   Spec_d32:Spec_D32.dll
 0001:00038408       ?SetPatchMnuInfo@CPatchMnu@@UAEXII@Z 10039408 f   Spec_d32:Spec_D32.dll
 0001:0003840e       ?GetPatchMnuInfo@CPatchMnu@@UAE?AVCString@@I@Z 1003940e f   Spec_d32:Spec_D32.dll
 0001:00038414       ?SetObjectInfo@CPatchMnu@@UAEXPAVCDrObject@@@Z 10039414 f   Spec_d32:Spec_D32.dll
 0001:0003841a       ?GetObjectInfo@CPatchMnu@@UAEXPAVCDrObject@@@Z 1003941a f   Spec_d32:Spec_D32.dll
 0001:00038420       ?Pack_drPipe@CPatchMnu@@UAEXPAVCString@@@Z 10039420 f   Spec_d32:Spec_D32.dll
 0001:00038426       ?DoDataView@CPatchMnu@@UAEXPAVCDC@@H@Z 10039426 f   Spec_d32:Spec_D32.dll
 0001:0003842c       ?Serialize@CPatchMnu@@UAEXAAVCArchive@@@Z 1003942c f   Spec_d32:Spec_D32.dll
 0001:00038432       ?GetRuntimeClass@CPatchMnu@@UBEPAUCRuntimeClass@@XZ 10039432 f   Spec_d32:Spec_D32.dll
 0001:00038438       ?InitObj3DMnu@CObj3DMnu@@UAEXXZ 10039438 f   Spec_d32:Spec_D32.dll
 0001:0003843e       ?ReadDefaultObj3DMnu@CObj3DMnu@@UAEXXZ 1003943e f   Spec_d32:Spec_D32.dll
 0001:00038444       ?SetObj3DMnuDefaultArray@CObj3DMnu@@UAEXQAY01I@Z 10039444 f   Spec_d32:Spec_D32.dll
 0001:0003844a       ?GetObj3DMnuDefaultArray@CObj3DMnu@@UAEXQAY01I@Z 1003944a f   Spec_d32:Spec_D32.dll
 0001:00038450       ?SetObj3DMnuOldArray@CObj3DMnu@@UAEXQAY01I@Z 10039450 f   Spec_d32:Spec_D32.dll
 0001:00038456       ?GetObj3DMnuOldArray@CObj3DMnu@@UAEXQAY01I@Z 10039456 f   Spec_d32:Spec_D32.dll
 0001:0003845c       ?SetObj3DMnuArray@CObj3DMnu@@UAEXQAY01I@Z 1003945c f   Spec_d32:Spec_D32.dll
 0001:00038462       ?GetObj3DMnuArray@CObj3DMnu@@UAEXQAY01I@Z 10039462 f   Spec_d32:Spec_D32.dll
 0001:00038468       ?SetObj3DMnuIDArray@CObj3DMnu@@UAEXQAVCString@@@Z 10039468 f   Spec_d32:Spec_D32.dll
 0001:0003846e       ?GetObj3DMnuIDArray@CObj3DMnu@@UAEXQAVCString@@@Z 1003946e f   Spec_d32:Spec_D32.dll
 0001:00038474       ?SetObj3DMnuInfo@CObj3DMnu@@UAEXII@Z 10039474 f   Spec_d32:Spec_D32.dll
 0001:0003847a       ?GetObj3DMnuInfo@CObj3DMnu@@UAE?AVCString@@I@Z 1003947a f   Spec_d32:Spec_D32.dll
 0001:00038480       ?SetObjectInfo@CObj3DMnu@@UAEXPAVCDrObject@@@Z 10039480 f   Spec_d32:Spec_D32.dll
 0001:00038486       ?GetObjectInfo@CObj3DMnu@@UAEXPAVCDrObject@@@Z 10039486 f   Spec_d32:Spec_D32.dll
 0001:0003848c       ?Pack_drPipe@CObj3DMnu@@UAEXPAVCString@@@Z 1003948c f   Spec_d32:Spec_D32.dll
 0001:00038492       ?DoDataView@CObj3DMnu@@UAEXPAVCDC@@H@Z 10039492 f   Spec_d32:Spec_D32.dll
 0001:00038498       ?Serialize@CObj3DMnu@@UAEXAAVCArchive@@@Z 10039498 f   Spec_d32:Spec_D32.dll
 0001:0003849e       ?GetRuntimeClass@CObj3DMnu@@UBEPAUCRuntimeClass@@XZ 1003949e f   Spec_d32:Spec_D32.dll
 0001:000384a4       ?InitMapFactor@CMapFactor@@UAEXXZ 100394a4 f   Spec_d32:Spec_D32.dll
 0001:000384aa       ?ReadDefaultMapFactor@CMapFactor@@UAEXXZ 100394aa f   Spec_d32:Spec_D32.dll
 0001:000384b0       ?SetObjectInfo@CMapFactor@@UAEXPAVCDrObject@@@Z 100394b0 f   Spec_d32:Spec_D32.dll
 0001:000384b6       ?GetObjectInfo@CMapFactor@@UAEXPAVCDrObject@@@Z 100394b6 f   Spec_d32:Spec_D32.dll
 0001:000384bc       ?Pack_drPipe@CMapFactor@@UAEXPAVCString@@@Z 100394bc f   Spec_d32:Spec_D32.dll
 0001:000384c2       ?DoDataView@CMapFactor@@UAEXPAVCDC@@H@Z 100394c2 f   Spec_d32:Spec_D32.dll
 0001:000384c8       ?Serialize@CMapFactor@@UAEXAAVCArchive@@@Z 100394c8 f   Spec_d32:Spec_D32.dll
 0001:000384ce       ?GetRuntimeClass@CMapFactor@@UBEPAUCRuntimeClass@@XZ 100394ce f   Spec_d32:Spec_D32.dll
 0001:000384d4       ?InitPrecision@CPrecision@@UAEXXZ 100394d4 f   Spec_d32:Spec_D32.dll
 0001:000384da       ?ReadDefaultPrecision@CPrecision@@UAEXXZ 100394da f   Spec_d32:Spec_D32.dll
 0001:000384e0       ?SetObjectInfo@CPrecision@@UAEXPAVCDrObject@@@Z 100394e0 f   Spec_d32:Spec_D32.dll
 0001:000384e6       ?GetObjectInfo@CPrecision@@UAEXPAVCDrObject@@@Z 100394e6 f   Spec_d32:Spec_D32.dll
 0001:000384ec       ?Pack_drPipe@CPrecision@@UAEXPAVCString@@@Z 100394ec f   Spec_d32:Spec_D32.dll
 0001:000384f2       ?DoDataView@CPrecision@@UAEXPAVCDC@@H@Z 100394f2 f   Spec_d32:Spec_D32.dll
 0001:000384f8       ?Serialize@CPrecision@@UAEXAAVCArchive@@@Z 100394f8 f   Spec_d32:Spec_D32.dll
 0001:000384fe       ?GetRuntimeClass@CPrecision@@UBEPAUCRuntimeClass@@XZ 100394fe f   Spec_d32:Spec_D32.dll
 0001:00038504       ?InitScaleFactor@CScaleFactor@@UAEXXZ 10039504 f   Spec_d32:Spec_D32.dll
 0001:0003850a       ?ReadDefaultScaleFactor@CScaleFactor@@UAEXXZ 1003950a f   Spec_d32:Spec_D32.dll
 0001:00038510       ?SetObjectInfo@CScaleFactor@@UAEXPAVCDrObject@@@Z 10039510 f   Spec_d32:Spec_D32.dll
 0001:00038516       ?GetObjectInfo@CScaleFactor@@UAEXPAVCDrObject@@@Z 10039516 f   Spec_d32:Spec_D32.dll
 0001:0003851c       ?Pack_drPipe@CScaleFactor@@UAEXPAVCString@@@Z 1003951c f   Spec_d32:Spec_D32.dll
 0001:00038522       ?DoDataView@CScaleFactor@@UAEXPAVCDC@@H@Z 10039522 f   Spec_d32:Spec_D32.dll
 0001:00038528       ?Serialize@CScaleFactor@@UAEXAAVCArchive@@@Z 10039528 f   Spec_d32:Spec_D32.dll
 0001:0003852e       ?GetRuntimeClass@CScaleFactor@@UBEPAUCRuntimeClass@@XZ 1003952e f   Spec_d32:Spec_D32.dll
 0001:00038534       ?InitUnit@CUnit@@UAEXXZ    10039534 f   Spec_d32:Spec_D32.dll
 0001:0003853a       ?ReadDefaultUnit@CUnit@@UAEXXZ 1003953a f   Spec_d32:Spec_D32.dll
 0001:00038540       ?SetObjectInfo@CUnit@@UAEXPAVCDrObject@@@Z 10039540 f   Spec_d32:Spec_D32.dll
 0001:00038546       ?GetObjectInfo@CUnit@@UAEXPAVCDrObject@@@Z 10039546 f   Spec_d32:Spec_D32.dll
 0001:0003854c       ?Pack_drPipe@CUnit@@UAEXPAVCString@@@Z 1003954c f   Spec_d32:Spec_D32.dll
 0001:00038552       ?DoDataView@CUnit@@UAEXPAVCDC@@H@Z 10039552 f   Spec_d32:Spec_D32.dll
 0001:00038558       ?Serialize@CUnit@@UAEXAAVCArchive@@@Z 10039558 f   Spec_d32:Spec_D32.dll
 0001:0003855e       ?GetRuntimeClass@CUnit@@UBEPAUCRuntimeClass@@XZ 1003955e f   Spec_d32:Spec_D32.dll
 0001:00038564       ??1CDListMgr@@UAE@XZ       10039564 f   Spec_d32:Spec_D32.dll
 0001:0003856a       ?GetSpecificObjectCount@CDListMgr@@QAEHH@Z 1003956a f   Spec_d32:Spec_D32.dll
 0001:00038570       ?GetNextObject@CDListMgr@@QAEPAVCObject@@AAPAU__POSITION@@@Z 10039570 f   Spec_d32:Spec_D32.dll
 0001:00038576       ?GetFirstObjectPos@CDListMgr@@QAEPAU__POSITION@@XZ 10039576 f   Spec_d32:Spec_D32.dll
 0001:0003857c       ?InsertObject@CDListMgr@@QAEHPAVCObject@@@Z 1003957c f   Spec_d32:Spec_D32.dll
 0001:00038582       ?GetObjectA@CDListMgr@@QAEPAVCObject@@H@Z 10039582 f   Spec_d32:Spec_D32.dll
 0001:00038588       ?GetObjectIndex@CDListMgr@@QAEHIVCString@@@Z 10039588 f   Spec_d32:Spec_D32.dll
 0001:0003858e       ?GetObjectIndex@CDListMgr@@QAEHPAVCObject@@@Z 1003958e f   Spec_d32:Spec_D32.dll
 0001:00038594       ??0CDListMgr@@QAE@XZ       10039594 f   Spec_d32:Spec_D32.dll
 0001:0003859a       ?Init@CElemInfo@@UAEXXZ    1003959a f   Elem_D32:Elem_D32.dll
 0001:000385a0       ?ReadDefault@CElemInfo@@UAEXXZ 100395a0 f   Elem_D32:Elem_D32.dll
 0001:000385a6       ?SetObjectInfo@CElemInfo@@UAEXPAVCDrObject@@@Z 100395a6 f   Elem_D32:Elem_D32.dll
 0001:000385ac       ?GetObjectInfo@CElemInfo@@UAEXPAVCDrObject@@@Z 100395ac f   Elem_D32:Elem_D32.dll
 0001:000385b2       ?Pack_drPipe@CElemInfo@@UAEXPAVCString@@@Z 100395b2 f   Elem_D32:Elem_D32.dll
 0001:000385b8       ?DoDataView@CElemInfo@@UAEXPAVCDC@@H@Z 100395b8 f   Elem_D32:Elem_D32.dll
 0001:000385be       ?Serialize@CElemInfo@@UAEXAAVCArchive@@@Z 100395be f   Elem_D32:Elem_D32.dll
 0001:000385c4       ?GetRuntimeClass@CElemInfo@@UBEPAUCRuntimeClass@@XZ 100395c4 f   Elem_D32:Elem_D32.dll
 0001:000385ca       ?SetCorner@CDrLabel@@UAEXUtagPOINT@@H@Z 100395ca f   Draw_D32:Draw_D32.dll
 0001:000385d0       ?GetCorner@CDrLabel@@UAE?AUtagPOINT@@H@Z 100395d0 f   Draw_D32:Draw_D32.dll
 0001:000385d6       ?GetObjectInfo@CDrLabel@@UAEXPAVCDrObject@@@Z 100395d6 f   Draw_D32:Draw_D32.dll
 0001:000385dc       ?SetObjectInfo@CDrLabel@@UAEXPAVCDrObject@@@Z 100395dc f   Draw_D32:Draw_D32.dll
 0001:000385e2       ?Pack_drPipe@CDrLabel@@UAEXPAVCString@@@Z 100395e2 f   Draw_D32:Draw_D32.dll
 0001:000385e8       ?IsKeyMatch@CDrLabel@@UAEHPAVCDrObject@@VCString@@I@Z 100395e8 f   Draw_D32:Draw_D32.dll
 0001:000385ee       ?IsObjectHit@CDrLabel@@UAEHPAVCClientDC@@HUtagPOINT@@PAVCRect@@H@Z 100395ee f   Draw_D32:Draw_D32.dll
 0001:000385f4       ?GetRawCoords@CDrLabel@@UAEXPAJPAHH@Z 100395f4 f   Draw_D32:Draw_D32.dll
 0001:000385fa       ?FinishObject@CDrLabel@@UAEXPAVCClientDC@@H@Z 100395fa f   Draw_D32:Draw_D32.dll
 0001:00038600       ?DealObjectDialog@CDrLabel@@UAEHXZ 10039600 f   Draw_D32:Draw_D32.dll
 0001:00038606       ?DoDrawView@CDrLabel@@UAEXPAVCDC@@HH@Z 10039606 f   Draw_D32:Draw_D32.dll
 0001:0003860c       ?Corner_3Dto2D@CDrLabel@@UAEXXZ 1003960c f   Draw_D32:Draw_D32.dll
 0001:00038612       ?InitDraw@CDrLabel@@UAEXPAVCDC@@HHPAUMATRIX@@1NNN@Z 10039612 f   Draw_D32:Draw_D32.dll
 0001:00038618       ?DoDataView@CDrLabel@@UAEXPAVCDC@@H@Z 10039618 f   Draw_D32:Draw_D32.dll
 0001:0003861e       ?Serialize@CDrLabel@@UAEXAAVCArchive@@@Z 1003961e f   Draw_D32:Draw_D32.dll
 0001:00038624       ?GetRuntimeClass@CDrLabel@@UBEPAUCRuntimeClass@@XZ 10039624 f   Draw_D32:Draw_D32.dll
 0001:0003862a       ?GetRuntimeClass@CTriangle@@UBEPAUCRuntimeClass@@XZ 1003962a f   OGen_D32:OGEN_D32.dll
 0001:00038630       ?Get_Tan_N_NorAtaNode_3@CDrPatch@@QAEHUWORLD@@AAU2@11N@Z 10039630 f   OGen_D32:OGEN_D32.dll
 0001:00038636       ?Get_Tan_N_NorAtaNode_4@CDrPatch@@QAEHUWORLD@@AAU2@11N@Z 10039636 f   OGen_D32:OGEN_D32.dll
 0001:0003863c       ?Get_TangentAtaNode@CDrCurve@@QAEHUWORLD@@AAU2@N@Z 1003963c f   OGen_D32:OGEN_D32.dll
 0001:00038642       ?InitRawData@CDrStatic@@QAEXW4STALPROC@@@Z 10039642 f   StaL_D32:StaL_D32.dll
 0001:00038648       ??0CDrStatic@@QAE@XZ       10039648 f   StaL_D32:StaL_D32.dll
 0001:0003864e       ?SetStaLCard@CDrStatic@@QAEXUstaLcard@@@Z 1003964e f   StaL_D32:StaL_D32.dll
 0001:00038654       ?Serialize@C3DMath@@UAEXAAVCArchive@@@Z 10039654 f   Dr3D_D32:Dr3D_D32.dll
 0001:0003865a       ?GetRuntimeClass@C3DMath@@UBEPAUCRuntimeClass@@XZ 1003965a f   Dr3D_D32:Dr3D_D32.dll
 0001:00038660       ?BlockCopy@C3DMath@@QAEXPAD0K@Z 10039660 f   Dr3D_D32:Dr3D_D32.dll
 0001:00038666       ??0C3DMath@@QAE@XZ         10039666 f   Dr3D_D32:Dr3D_D32.dll
 0001:0003866c       ?Project@CXForm@@UAEXPAUMATRIX@@PAUWORLD@@1@Z 1003966c f   Dr3D_D32:Dr3D_D32.dll
 0001:00038672       ?ComposeWin3DtoScreen3DMATRIX@CXForm@@UAEXPAUMATRIX@@UWORLD@@1@Z 10039672 f   Dr3D_D32:Dr3D_D32.dll
 0001:00038678       ?TransformPerToParCVV@CXForm@@UAEXNPAUWORLD@@0@Z 10039678 f   Dr3D_D32:Dr3D_D32.dll
 0001:0003867e       ?Transform@CXForm@@UAEXPAUWORLD@@0PAUMATRIX@@@Z 1003967e f   Dr3D_D32:Dr3D_D32.dll
 0001:00038684       ?ComposeCombineMATRIX@CXForm@@UAEXPAUMATRIX@@00@Z 10039684 f   Dr3D_D32:Dr3D_D32.dll
 0001:0003868a       ?Per_SetVMMATRIX@CXForm@@UAENPAUMATRIX@@UWORLD@@1NNNN@Z 1003968a f   Dr3D_D32:Dr3D_D32.dll
 0001:00038690       ?Par_SetVMMATRIX@CXForm@@UAEXPAUMATRIX@@UWORLD@@1NNNN@Z 10039690 f   Dr3D_D32:Dr3D_D32.dll
 0001:00038696       ?SetVOMATRIX@CXForm@@UAEXPAUMATRIX@@UWORLD@@11@Z 10039696 f   Dr3D_D32:Dr3D_D32.dll
 0001:0003869c       ?ALT_ComposeViewMATRIX@CXForm@@UAEHPAUMATRIX@@UWORLD@@1111NNNN@Z 1003969c f   Dr3D_D32:Dr3D_D32.dll
 0001:000386a2       ?PerToParCVVMATRIX@CXForm@@UAEXPAUMATRIX@@N@Z 100396a2 f   Dr3D_D32:Dr3D_D32.dll
 0001:000386a8       ?ComposeViewMATRIX@CXForm@@UAENPAUMATRIX@@UWORLD@@1111NNNN@Z 100396a8 f   Dr3D_D32:Dr3D_D32.dll
 0001:000386ae       ?ComposeLocalMATRIX@CXForm@@UAEXPAUMATRIX@@NNNNNNNNNNNN@Z 100396ae f   Dr3D_D32:Dr3D_D32.dll
 0001:000386b4       ?VRCtoWORLDRotationMATRIX@CXForm@@UAEXPAUMATRIX@@PAUWORLD@@1@Z 100396b4 f   Dr3D_D32:Dr3D_D32.dll
 0001:000386ba       ?RotateToNewXMATRIX@CXForm@@UAEXPAUWORLD@@PAUMATRIX@@W4XFMODE@@@Z 100396ba f   Dr3D_D32:Dr3D_D32.dll
 0001:000386c0       ?HeadToNewXLocMATRIX@CXForm@@UAEXPAUWORLD@@0PAUMATRIX@@W4XFMODE@@@Z 100396c0 f   Dr3D_D32:Dr3D_D32.dll
 0001:000386c6       ?RotateToNewYMATRIX@CXForm@@UAEXPAUWORLD@@PAUMATRIX@@W4XFMODE@@@Z 100396c6 f   Dr3D_D32:Dr3D_D32.dll
 0001:000386cc       ?HeadToNewYLocMATRIX@CXForm@@UAEXPAUWORLD@@0PAUMATRIX@@W4XFMODE@@@Z 100396cc f   Dr3D_D32:Dr3D_D32.dll
 0001:000386d2       ?RotateToNewZMATRIX@CXForm@@UAEXPAUWORLD@@PAUMATRIX@@W4XFMODE@@@Z 100396d2 f   Dr3D_D32:Dr3D_D32.dll
 0001:000386d8       ?HeadToNewZLocMATRIX@CXForm@@UAEXPAUWORLD@@0PAUMATRIX@@W4XFMODE@@@Z 100396d8 f   Dr3D_D32:Dr3D_D32.dll
 0001:000386de       ?RotateAboutLineMATRIX@CXForm@@UAEXPAUMATRIX@@PAUWORLD@@1NW4XFMODE@@@Z 100396de f   Dr3D_D32:Dr3D_D32.dll
 0001:000386e4       ?Translate@CXForm@@UAEXPAUMATRIX@@NNNW4XFMODE@@@Z 100396e4 f   Dr3D_D32:Dr3D_D32.dll
 0001:000386ea       ?Rotate_Z@CXForm@@UAEXPAUMATRIX@@NW4XFMODE@@@Z 100396ea f   Dr3D_D32:Dr3D_D32.dll
 0001:000386f0       ?Rotate_Y@CXForm@@UAEXPAUMATRIX@@NW4XFMODE@@@Z 100396f0 f   Dr3D_D32:Dr3D_D32.dll
 0001:000386f6       ?Rotate_X@CXForm@@UAEXPAUMATRIX@@NW4XFMODE@@@Z 100396f6 f   Dr3D_D32:Dr3D_D32.dll
 0001:000386fc       ?Shear_Z@CXForm@@UAEXPAUMATRIX@@NNW4XFMODE@@@Z 100396fc f   Dr3D_D32:Dr3D_D32.dll
 0001:00038702       ?Shear_Y@CXForm@@UAEXPAUMATRIX@@NNW4XFMODE@@@Z 10039702 f   Dr3D_D32:Dr3D_D32.dll
 0001:00038708       ?Shear_X@CXForm@@UAEXPAUMATRIX@@NNW4XFMODE@@@Z 10039708 f   Dr3D_D32:Dr3D_D32.dll
 0001:0003870e       ?Scale@CXForm@@UAEXPAUMATRIX@@NNNW4XFMODE@@@Z 1003970e f   Dr3D_D32:Dr3D_D32.dll
 0001:00038714       ?Reflect@CXForm@@UAEXPAUMATRIX@@UWORLD@@N@Z 10039714 f   Dr3D_D32:Dr3D_D32.dll
 0001:0003871a       ?Serialize@CXForm@@UAEXAAVCArchive@@@Z 1003971a f   Dr3D_D32:Dr3D_D32.dll
 0001:00038720       ?GetRuntimeClass@CXForm@@UBEPAUCRuntimeClass@@XZ 10039720 f   Dr3D_D32:Dr3D_D32.dll
 0001:00038726       ??0CXForm@@QAE@XZ          10039726 f   Dr3D_D32:Dr3D_D32.dll
 0001:0003872c       ?Normalize@C3DMath@@QAEXPAUWORLD@@0@Z 1003972c f   Dr3D_D32:Dr3D_D32.dll
 0001:00038732       ?AreSame_WORLD@C3DMath@@QAEHPAUWORLD@@0N@Z 10039732 f   Dr3D_D32:Dr3D_D32.dll
 0001:00038738       ?SetMATRIX@C3DMath@@QAEXPAUMATRIX@@PAUWORLD@@111@Z 10039738 f   Dr3D_D32:Dr3D_D32.dll
 0001:0003873e       ?Cross3DPts@C3DMath@@QAEXPAUWORLD@@00@Z 1003973e f   Dr3D_D32:Dr3D_D32.dll
 0001:00038744       ?GetIdentityMATRIX@C3DMath@@QAEXPAUMATRIX@@@Z 10039744 f   Dr3D_D32:Dr3D_D32.dll
 0001:0003874a       ?Sub3DPts@C3DMath@@QAEXPAUWORLD@@00@Z 1003974a f   Dr3D_D32:Dr3D_D32.dll
 0001:00038750       ?CreateNode@CMI_GangN@@QAEPAVCDrNode@@AAVCString@@PAVCDrLabel@@UWORLD@@HHAAH3I@Z 10039750 f   MNod_D32:MNod_D32.dll
 0001:00038756       ??1CMI_GangN@@UAE@XZ       10039756 f   MNod_D32:MNod_D32.dll
 0001:0003875c       ??0CMI_GangN@@QAE@XZ       1003975c f   MNod_D32:MNod_D32.dll
 0001:00038762       ?FillMeshTangentsCurve@CMI_GangC@@QAEHPAVCDrCurve@@PAUWORLD@@H@Z 10039762 f   MCur_D32:MCur_D32.dll
 0001:00038768       ?FillMeshNodesCurve@CMI_GangC@@QAEHPAVCDrCurve@@PAUWORLD@@PANH@Z 10039768 f   MCur_D32:MCur_D32.dll
 0001:0003876e       ??1CMI_GangC@@UAE@XZ       1003976e f   MCur_D32:MCur_D32.dll
 0001:00038774       ??1CMC_Circle@@UAE@XZ      10039774 f   MCur_D32:MCur_D32.dll
 0001:0003877a       ??1CMC_Parab@@UAE@XZ       1003977a f   MCur_D32:MCur_D32.dll
 0001:00038780       ?CreateCurve@CMI_GangC@@QAEPAVCDrCurve@@AAVCString@@PAV2@PAVCDListMgr@@W4CURVEPROC@@PAV?$CList@HH@@HH@Z 10039780 f   MCur_D32:MCur_D32.dll
 0001:00038786       ?CreateParabola@CMC_Parab@@QAEPAVCDrCurve@@AAVCString@@PAV2@PAVCDListMgr@@W4CURVEPROC@@PAV?$CList@HH@@HH@Z 10039786 f   MCur_D32:MCur_D32.dll
 0001:0003878c       ?CreateCircle@CMC_Circle@@QAEPAVCDrCurve@@AAVCString@@PAV2@PAVCDListMgr@@W4CURVEPROC@@PAV?$CList@HH@@W4CIRCLETYPE@@NNNHPAVCDrNode@@6H@Z 1003978c f   MCur_D32:MCur_D32.dll
 0001:00038792       ??0CMC_Parab@@QAE@XZ       10039792 f   MCur_D32:MCur_D32.dll
 0001:00038798       ??0CMC_Circle@@QAE@XZ      10039798 f   MCur_D32:MCur_D32.dll
 0001:0003879e       ??0CMI_GangC@@QAE@XZ       1003979e f   MCur_D32:MCur_D32.dll
 0001:000387a4       ?FillMeshNormalsPatch@CMI_GangP@@QAEHPAVCDrPatch@@PAUWORLD@@@Z 100397a4 f   MPat_D32:MPat_D32.dll
 0001:000387aa       ?FillMeshTangentsPatch@CMI_GangP@@QAEHPAVCDrPatch@@PAUWORLD@@1@Z 100397aa f   MPat_D32:MPat_D32.dll
 0001:000387b0       ?FillMeshNodesPatch@CMI_GangP@@QAEHPAVCDrPatch@@PAUWORLD@@PAN@Z 100397b0 f   MPat_D32:MPat_D32.dll
 0001:000387b6       ??1CMP_Xtrud@@UAE@XZ       100397b6 f   MPat_D32:MPat_D32.dll
 0001:000387bc       ?GoDoIt@CMP_Xtrud@@QAEHHHAAVCString@@PAVCDrPatch@@PAVCDListMgr@@2PAV?$CList@W4CURVELATCH@@W41@@@AAV?$CList@HH@@UWORLD@@NNPAVCView@@@Z 100397bc f   MPat_D32:MPat_D32.dll
 0001:000387c2       ??0CMP_Xtrud@@QAE@XZ       100397c2 f   MPat_D32:MPat_D32.dll
 0001:000387c8       ??1CMP_Duct@@UAE@XZ        100397c8 f   MPat_D32:MPat_D32.dll
 0001:000387ce       ?GoDoIt@CMP_Duct@@QAEHHHAAVCString@@PAVCDrPatch@@PAVCDListMgr@@2PAV?$CList@W4CURVELATCH@@W41@@@PAV?$CList@NN@@NHNPAVCView@@@Z 100397ce f   MPat_D32:MPat_D32.dll
 0001:000387d4       ??0CMP_Duct@@QAE@XZ        100397d4 f   MPat_D32:MPat_D32.dll
 0001:000387da       ??1CMP_Sweep@@UAE@XZ       100397da f   MPat_D32:MPat_D32.dll
 0001:000387e0       ?GoDoIt@CMP_Sweep@@QAEHHHHAAVCString@@PAVCDrPatch@@PAVCDListMgr@@2PAV?$CList@W4CURVELATCH@@W41@@@PAV?$CList@NN@@NHN4NHNPAVCView@@@Z 100397e0 f   MPat_D32:MPat_D32.dll
 0001:000387e6       ??0CMP_Sweep@@QAE@XZ       100397e6 f   MPat_D32:MPat_D32.dll
 0001:000387ec       ??1CMP_CooP4@@UAE@XZ       100397ec f   MPat_D32:MPat_D32.dll
 0001:000387f2       ?GoDoIt@CMP_CooP4@@QAEHHAAVCString@@PAVCDrPatch@@PAVCDListMgr@@PAV?$CList@W4CURVELATCH@@W41@@@@Z 100397f2 f   MPat_D32:MPat_D32.dll
 0001:000387f8       ??0CMP_CooP4@@QAE@XZ       100397f8 f   MPat_D32:MPat_D32.dll
 0001:000387fe       ??1CMP_CooP3@@UAE@XZ       100397fe f   MPat_D32:MPat_D32.dll
 0001:00038804       ?GoDoIt@CMP_CooP3@@QAEHHAAVCString@@PAVCDrPatch@@PAVCDListMgr@@PAV?$CList@W4CURVELATCH@@W41@@@@Z 10039804 f   MPat_D32:MPat_D32.dll
 0001:0003880a       ??0CMP_CooP3@@QAE@XZ       1003980a f   MPat_D32:MPat_D32.dll
 0001:00038810       ?classCMI_GangS@CMI_GangS@@2UCRuntimeClass@@A 10039810 f   MSol_d32:MSol_D32.dll
 0001:00038816       ??1CMI_GangS@@UAE@XZ       10039816 f   MSol_d32:MSol_D32.dll
 0001:0003881c       ??0CMI_GangS@@QAE@XZ       1003981c f   MSol_d32:MSol_D32.dll
 0001:00038822       ?Serialize@CMI_GangS@@UAEXAAVCArchive@@@Z 10039822 f   MSol_d32:MSol_D32.dll
 0001:00038828       ??1CDialog@@UAE@XZ         10039828 f   mfc42d:MFC42D.DLL
 0001:0003882e       ??1CString@@QAE@XZ         1003982e f   mfc42d:MFC42D.DLL
 0001:00038834       ??0CString@@QAE@PBD@Z      10039834 f   mfc42d:MFC42D.DLL
 0001:0003883a       ?PreInitDialog@CDialog@@MAEXXZ 1003983a f   mfc42d:MFC42D.DLL
 0001:00038840       ?OnOK@CDialog@@MAEXXZ      10039840 f   mfc42d:MFC42D.DLL
 0001:00038846       ?OnSetFont@CDialog@@UAEXPAVCFont@@@Z 10039846 f   mfc42d:MFC42D.DLL
 0001:0003884c       ?DoModal@CDialog@@UAEHXZ   1003984c f   mfc42d:MFC42D.DLL
 0001:00038852       ?SetOccDialogInfo@CDialog@@MAEHPAU_AFX_OCC_DIALOG_INFO@@@Z 10039852 f   mfc42d:MFC42D.DLL
 0001:00038858       ?IsFrameWnd@CWnd@@UBEHXZ   10039858 f   mfc42d:MFC42D.DLL
 0001:0003885e       ?CheckAutoCenter@CDialog@@UAEHXZ 1003985e f   mfc42d:MFC42D.DLL
 0001:00038864       ?OnChildNotify@CWnd@@MAEHIIJPAJ@Z 10039864 f   mfc42d:MFC42D.DLL
 0001:0003886a       ?PostNcDestroy@CWnd@@MAEXXZ 1003986a f   mfc42d:MFC42D.DLL
 0001:00038870       ?DefWindowProcA@CWnd@@MAEJIIJ@Z 10039870 f   mfc42d:MFC42D.DLL
 0001:00038876       ?OnWndMsg@CWnd@@MAEHIIJPAJ@Z 10039876 f   mfc42d:MFC42D.DLL
 0001:0003887c       ?WindowProc@CWnd@@MAEJIIJ@Z 1003987c f   mfc42d:MFC42D.DLL
 0001:00038882       ?OnAmbientProperty@CWnd@@UAEHPAVCOleControlSite@@JPAUtagVARIANT@@@Z 10039882 f   mfc42d:MFC42D.DLL
 0001:00038888       ?PreTranslateMessage@CDialog@@UAEHPAUtagMSG@@@Z 10039888 f   mfc42d:MFC42D.DLL
 0001:0003888e       ?EndModalState@CWnd@@UAEXXZ 1003988e f   mfc42d:MFC42D.DLL
 0001:00038894       ?BeginModalState@CWnd@@UAEXXZ 10039894 f   mfc42d:MFC42D.DLL
 0001:0003889a       ?GetSuperWndProcAddr@CWnd@@MAEPAP6GJPAUHWND__@@IIJ@ZXZ 1003989a f   mfc42d:MFC42D.DLL
 0001:000388a0       ?OnNotify@CWnd@@MAEHIJPAJ@Z 100398a0 f   mfc42d:MFC42D.DLL
 0001:000388a6       ?OnCommand@CWnd@@MAEHIJ@Z  100398a6 f   mfc42d:MFC42D.DLL
 0001:000388ac       ?EndModalLoop@CWnd@@UAEXH@Z 100398ac f   mfc42d:MFC42D.DLL
 0001:000388b2       ?ContinueModal@CWnd@@UAEHXZ 100398b2 f   mfc42d:MFC42D.DLL
 0001:000388b8       ?WinHelpA@CWnd@@UAEXKI@Z   100398b8 f   mfc42d:MFC42D.DLL
 0001:000388be       ?GetScrollBarCtrl@CWnd@@UBEPAVCScrollBar@@H@Z 100398be f   mfc42d:MFC42D.DLL
 0001:000388c4       ?OnToolHitTest@CWnd@@UBEHVCPoint@@PAUtagTOOLINFOA@@@Z 100398c4 f   mfc42d:MFC42D.DLL
 0001:000388ca       ?CalcWindowRect@CWnd@@UAEXPAUtagRECT@@I@Z 100398ca f   mfc42d:MFC42D.DLL
 0001:000388d0       ?PreCreateWindow@CWnd@@UAEHAAUtagCREATESTRUCTA@@@Z 100398d0 f   mfc42d:MFC42D.DLL
 0001:000388d6       ?DestroyWindow@CWnd@@UAEHXZ 100398d6 f   mfc42d:MFC42D.DLL
 0001:000388dc       ?Create@CWnd@@UAEHPBD0KABUtagRECT@@PAV1@IPAUCCreateContext@@@Z 100398dc f   mfc42d:MFC42D.DLL
 0001:000388e2       ?PreSubclassWindow@CWnd@@UAEXXZ 100398e2 f   mfc42d:MFC42D.DLL
 0001:000388e8       ?GetConnectionHook@CCmdTarget@@MAEPAUIConnectionPoint@@ABU_GUID@@@Z 100398e8 f   mfc42d:MFC42D.DLL
 0001:000388ee       ?GetExtraConnectionPoints@CCmdTarget@@MAEHPAVCPtrArray@@@Z 100398ee f   mfc42d:MFC42D.DLL
 0001:000388f4       ?GetInterfaceHook@CCmdTarget@@UAEPAUIUnknown@@PBX@Z 100398f4 f   mfc42d:MFC42D.DLL
 0001:000388fa       ?OnCreateAggregates@CCmdTarget@@UAEHXZ 100398fa f   mfc42d:MFC42D.DLL
 0001:00038900       ?GetEventSinkMap@CCmdTarget@@MBEPBUAFX_EVENTSINKMAP@@XZ 10039900 f   mfc42d:MFC42D.DLL
 0001:00038906       ?GetInterfaceMap@CCmdTarget@@MBEPBUAFX_INTERFACEMAP@@XZ 10039906 f   mfc42d:MFC42D.DLL
 0001:0003890c       ?GetConnectionMap@CCmdTarget@@MBEPBUAFX_CONNECTIONMAP@@XZ 1003990c f   mfc42d:MFC42D.DLL
 0001:00038912       ?GetDispatchMap@CCmdTarget@@MBEPBUAFX_DISPMAP@@XZ 10039912 f   mfc42d:MFC42D.DLL
 0001:00038918       ?GetCommandMap@CCmdTarget@@MBEPBUAFX_OLECMDMAP@@XZ 10039918 f   mfc42d:MFC42D.DLL
 0001:0003891e       ?GetTypeLib@CCmdTarget@@UAEJKPAPAUITypeLib@@@Z 1003991e f   mfc42d:MFC42D.DLL
 0001:00038924       ?GetTypeLibCache@CCmdTarget@@UAEPAVCTypeLibCache@@XZ 10039924 f   mfc42d:MFC42D.DLL
 0001:0003892a       ?GetTypeInfoCount@CCmdTarget@@UAEIXZ 1003992a f   mfc42d:MFC42D.DLL
 0001:00038930       ?GetDispatchIID@CCmdTarget@@UAEHPAU_GUID@@@Z 10039930 f   mfc42d:MFC42D.DLL
 0001:00038936       ?IsInvokeAllowed@CCmdTarget@@UAEHJ@Z 10039936 f   mfc42d:MFC42D.DLL
 0001:0003893c       ?OnFinalRelease@CWnd@@UAEXXZ 1003993c f   mfc42d:MFC42D.DLL
 0001:00038942       ?OnCmdMsg@CDialog@@UAEHIHPAXPAUAFX_CMDHANDLERINFO@@@Z 10039942 f   mfc42d:MFC42D.DLL
 0001:00038948       ?Dump@CDialog@@UBEXAAVCDumpContext@@@Z 10039948 f   mfc42d:MFC42D.DLL
 0001:0003894e       ?AssertValid@CDialog@@UBEXXZ 1003994e f   mfc42d:MFC42D.DLL
 0001:00038954       ?Serialize@CObject@@UAEXAAVCArchive@@@Z 10039954 f   mfc42d:MFC42D.DLL
 0001:0003895a       ?GetRuntimeClass@CDialog@@UBEPAUCRuntimeClass@@XZ 1003995a f   mfc42d:MFC42D.DLL
 0001:00038960       ??0CString@@QAE@XZ         10039960 f   mfc42d:MFC42D.DLL
 0001:00038966       ??0CDialog@@QAE@IPAVCWnd@@@Z 10039966 f   mfc42d:MFC42D.DLL
 0001:0003896c       ??3CObject@@SGXPAX@Z       1003996c f   mfc42d:MFC42D.DLL
 0001:00038972       ??3@YAXPAX@Z               10039972 f   mfc42d:MFC42D.DLL
 0001:00038978       ?DDX_Text@@YGXPAVCDataExchange@@HAAN@Z 10039978 f   mfc42d:MFC42D.DLL
 0001:0003897e       ?DoDataExchange@CWnd@@MAEXPAVCDataExchange@@@Z 1003997e f   mfc42d:MFC42D.DLL
 0001:00038984       ?UpdateData@CWnd@@QAEHH@Z  10039984 f   mfc42d:MFC42D.DLL
 0001:0003898a       ?OnCancel@CDialog@@MAEXXZ  1003998a f   mfc42d:MFC42D.DLL
 0001:00038990       ?SetWindowTextA@CWnd@@QAEXPBD@Z 10039990 f   mfc42d:MFC42D.DLL
 0001:00038996       ?GetDlgItem@CWnd@@QBEPAV1@H@Z 10039996 f   mfc42d:MFC42D.DLL
 0001:0003899c       ??BCString@@QBEPBDXZ       1003999c f   mfc42d:MFC42D.DLL
 0001:000389a2       ??YCString@@QAEABV0@ABV0@@Z 100399a2 f   mfc42d:MFC42D.DLL
 0001:000389a8       ??H@YG?AVCString@@PBDABV0@@Z 100399a8 f   mfc42d:MFC42D.DLL
 0001:000389ae       ??4CString@@QAEABV0@ABV0@@Z 100399ae f   mfc42d:MFC42D.DLL
 0001:000389b4       ?OnInitDialog@CDialog@@UAEHXZ 100399b4 f   mfc42d:MFC42D.DLL
 0001:000389ba       ??1CButton@@UAE@XZ         100399ba f   mfc42d:MFC42D.DLL
 0001:000389c0       ??1CBitmap@@UAE@XZ         100399c0 f   mfc42d:MFC42D.DLL
 0001:000389c6       ?LoadBitmaps@CBitmapButton@@QAEHPBD000@Z 100399c6 f   mfc42d:MFC42D.DLL
 0001:000389cc       ??0CBitmapButton@@QAE@XZ   100399cc f   mfc42d:MFC42D.DLL
 0001:000389d2       ?EnableWindow@CWnd@@QAEHH@Z 100399d2 f   mfc42d:MFC42D.DLL
 0001:000389d8       ?SizeToContent@CBitmapButton@@QAEXXZ 100399d8 f   mfc42d:MFC42D.DLL
 0001:000389de       ?SubclassDlgItem@CWnd@@QAEHIPAV1@@Z 100399de f   mfc42d:MFC42D.DLL
 0001:000389e4       ?Dump@CObject@@UBEXAAVCDumpContext@@@Z 100399e4 f   mfc42d:MFC42D.DLL
 0001:000389ea       ?AssertValid@CObject@@UBEXXZ 100399ea f   mfc42d:MFC42D.DLL
 0001:000389f0       ??1CObject@@UAE@XZ         100399f0 f   mfc42d:MFC42D.DLL
 0001:000389f6       ??0CString@@QAE@ABV0@@Z    100399f6 f   mfc42d:MFC42D.DLL
 0001:000389fc       ??1CPen@@UAE@XZ            100399fc f   mfc42d:MFC42D.DLL
 0001:00038a02       ??4CString@@QAEABV0@PBD@Z  10039a02 f   mfc42d:MFC42D.DLL
 0001:00038a08       ?DDX_Check@@YGXPAVCDataExchange@@HAAH@Z 10039a08 f   mfc42d:MFC42D.DLL
 0001:00038a0e       ?DDX_CBString@@YGXPAVCDataExchange@@HAAVCString@@@Z 10039a0e f   mfc42d:MFC42D.DLL
 0001:00038a14       ?AfxGetApp@@YGPAVCWinApp@@XZ 10039a14 f   mfc42d:MFC42D.DLL
 0001:00038a1a       ?AddString@CComboBox@@QAEHPBD@Z 10039a1a f   mfc42d:MFC42D.DLL
 0001:00038a20       ?ResetContent@CComboBox@@QAEXXZ 10039a20 f   mfc42d:MFC42D.DLL
 0001:00038a26       ??2@YAPAXI@Z               10039a26 f   mfc42d:MFC42D.DLL
 0001:00038a2c       ?SetCurSel@CComboBox@@QAEHH@Z 10039a2c f   mfc42d:MFC42D.DLL
 0001:00038a32       ?AfxMessageBox@@YGHPBDII@Z 10039a32 f   mfc42d:MFC42D.DLL
 0001:00038a38       ??0CDialog@@QAE@XZ         10039a38 f   mfc42d:MFC42D.DLL
 0001:00038a3e       ?SetCheck@CButton@@QAEXH@Z 10039a3e f   mfc42d:MFC42D.DLL
 0001:00038a44       ?Create@CDialog@@QAEHIPAVCWnd@@@Z 10039a44 f   mfc42d:MFC42D.DLL
 0001:00038a4a       ?AfxSetResourceHandle@@YGXPAUHINSTANCE__@@@Z 10039a4a f   mfc42d:MFC42D.DLL
 0001:00038a50       ?AfxGetResourceHandle@@YGPAUHINSTANCE__@@XZ 10039a50 f   mfc42d:MFC42D.DLL
 0001:00038a56       ?AfxTrace@@YAXPBDZZ        10039a56 f   mfc42d:MFC42D.DLL
 0001:00038a5c       ?LoadStringA@CString@@QAEHI@Z 10039a5c f   mfc42d:MFC42D.DLL
 0001:00038a62       ?SendMessageA@CWnd@@QAEJIIJ@Z 10039a62 f   mfc42d:MFC42D.DLL
 0001:00038a68       ?GetCurSel@CComboBox@@QBEHXZ 10039a68 f   mfc42d:MFC42D.DLL
 0001:00038a6e       ?GetRuntimeClass@CObject@@UBEPAUCRuntimeClass@@XZ 10039a6e f   mfc42d:MFC42D.DLL
 0001:00038a74       ?AfxAssertFailedLine@@YGHPBDH@Z 10039a74 f   mfc42d:MFC42D.DLL
 0001:00038a7a       ?ReadCount@CArchive@@QAEKXZ 10039a7a f   mfc42d:MFC42D.DLL
 0001:00038a80       ?AfxIsValidAddress@@YGHPBXIH@Z 10039a80 f   mfc42d:MFC42D.DLL
 0001:00038a86       ?WriteCount@CArchive@@QAEXK@Z 10039a86 f   mfc42d:MFC42D.DLL
 0001:00038a8c       ?IsStoring@CArchive@@QBEHXZ 10039a8c f   mfc42d:MFC42D.DLL
 0001:00038a92       ?AfxAssertValidObject@@YGXPBVCObject@@PBDH@Z 10039a92 f   mfc42d:MFC42D.DLL
 0001:00038a98       ?GetDepth@CDumpContext@@QBEHXZ 10039a98 f   mfc42d:MFC42D.DLL
 0001:00038a9e       ??6CDumpContext@@QAEAAV0@H@Z 10039a9e f   mfc42d:MFC42D.DLL
 0001:00038aa4       ??6CDumpContext@@QAEAAV0@PBD@Z 10039aa4 f   mfc42d:MFC42D.DLL
 0001:00038aaa       ?FreeDataChain@CPlex@@QAEXXZ 10039aaa f   mfc42d:MFC42D.DLL
 0001:00038ab0       ?Read@CArchive@@QAEIPAXI@Z 10039ab0 f   mfc42d:MFC42D.DLL
 0001:00038ab6       ?Write@CArchive@@QAEXPBXI@Z 10039ab6 f   mfc42d:MFC42D.DLL
 0001:00038abc       ?Create@CPlex@@SGPAU1@AAPAU1@II@Z 10039abc f   mfc42d:MFC42D.DLL
 0001:00038ac2       ??2CObject@@SGPAXI@Z       10039ac2 f   mfc42d:MFC42D.DLL
 0001:00038ac8       ?AfxClassInit@@YGXPAUCRuntimeClass@@@Z 10039ac8 f   mfc42d:MFC42D.DLL
 0001:00038ace       ?ReadObject@CArchive@@QAEPAVCObject@@PBUCRuntimeClass@@@Z 10039ace f   mfc42d:MFC42D.DLL
 0001:00038ad4       ?GetCount@CObList@@QBEHXZ  10039ad4 f   mfc42d:MFC42D.DLL
 0001:00038ada       ?IsEmpty@CObList@@QBEHXZ   10039ada f   mfc42d:MFC42D.DLL
 0001:00038ae0       ??3CObject@@SGXPAXPBDH@Z   10039ae0 f   mfc42d:MFC42D.DLL
 0001:00038ae6       ??2CObject@@SGPAXIPBDH@Z   10039ae6 f   mfc42d:MFC42D.DLL
 0001:00038aec       ??9@YG_NABVCString@@PBD@Z  10039aec f   mfc42d:MFC42D.DLL
 0001:00038af2       ??9@YG_NABVCString@@0@Z    10039af2 f   mfc42d:MFC42D.DLL
 0001:00038af8       ??3@YAXPAXPBDH@Z           10039af8 f   mfc42d:MFC42D.DLL
 0001:00038afe       ?GetTail@CObList@@QAEAAPAVCObject@@XZ 10039afe f   mfc42d:MFC42D.DLL
 0001:00038b04       ?ReleaseBuffer@CString@@QAEXH@Z 10039b04 f   mfc42d:MFC42D.DLL
 0001:00038b0a       ?GetBuffer@CString@@QAEPADH@Z 10039b0a f   mfc42d:MFC42D.DLL
 0001:00038b10       ??2@YAPAXIPBDH@Z           10039b10 f   mfc42d:MFC42D.DLL
 0001:00038b16       ??8@YG_NABVCString@@0@Z    10039b16 f   mfc42d:MFC42D.DLL
 0001:00038b1c       ?RemoveAt@CObList@@QAEXPAU__POSITION@@@Z 10039b1c f   mfc42d:MFC42D.DLL
 0001:00038b22       ?GetAt@CObList@@QAEAAPAVCObject@@PAU__POSITION@@@Z 10039b22 f   mfc42d:MFC42D.DLL
 0001:00038b28       ?FindIndex@CObList@@QBEPAU__POSITION@@H@Z 10039b28 f   mfc42d:MFC42D.DLL
 0001:00038b2e       ?RemoveAll@CObList@@QAEXXZ 10039b2e f   mfc42d:MFC42D.DLL
 0001:00038b34       ??0CObject@@IAE@XZ         10039b34 f   mfc42d:MFC42D.DLL
 0001:00038b3a       ?AfxGetModuleState@@YGPAVAFX_MODULE_STATE@@XZ 10039b3a f   mfc42d:MFC42D.DLL
 0001:00038b40       ??0CDynLinkLibrary@@QAE@AAUAFX_EXTENSION_MODULE@@H@Z 10039b40 f   mfc42d:MFC42D.DLL
 0001:00038b46       ?AfxInitExtensionModule@@YGHAAUAFX_EXTENSION_MODULE@@PAUHINSTANCE__@@@Z 10039b46 f   mfc42d:MFC42D.DLL
 0001:00038b4c       ?AddTail@CObList@@QAEXPAV1@@Z 10039b4c f   mfc42d:MFC42D.DLL
 0001:00038b52       ??YCString@@QAEABV0@PBD@Z  10039b52 f   mfc42d:MFC42D.DLL
 0001:00038b58       ?GetHead@CObList@@QAEAAPAVCObject@@XZ 10039b58 f   mfc42d:MFC42D.DLL
 0001:00038b5e       ?AddTail@CObList@@QAEPAU__POSITION@@PAVCObject@@@Z 10039b5e f   mfc42d:MFC42D.DLL
 0001:00038b64       ?RemoveTail@CObList@@QAEPAVCObject@@XZ 10039b64 f   mfc42d:MFC42D.DLL
 0001:00038b6a       ??H@YG?AVCString@@ABV0@0@Z 10039b6a f   mfc42d:MFC42D.DLL
 0001:00038b70       ??H@YG?AVCString@@ABV0@PBD@Z 10039b70 f   mfc42d:MFC42D.DLL
 0001:00038b76       ?GetNext@CObList@@QAEAAPAVCObject@@AAPAU__POSITION@@@Z 10039b76 f   mfc42d:MFC42D.DLL
 0001:00038b7c       ?AfxGetMainWnd@@YGPAVCWnd@@XZ 10039b7c f   mfc42d:MFC42D.DLL
 0001:00038b82       ?UpdateWindow@CWnd@@QAEXXZ 10039b82 f   mfc42d:MFC42D.DLL
 0001:00038b88       ?Invalidate@CWnd@@QAEXH@Z  10039b88 f   mfc42d:MFC42D.DLL
 0001:00038b8e       ___CxxFrameHandler         10039b8e f   msvcrtd:MSVCRTD.dll
 0001:00038ba0       __onexit                   10039ba0 f   msvcrtd:atonexit.obj
 0001:00038be0       _atexit                    10039be0 f   msvcrtd:atonexit.obj
 0001:00038c00       ??_M@YGXPAXIHP6EX0@Z@Z     10039c00 f   msvcrtd:ehvecdtr.obj
 0001:00038cb0       ?__ArrayUnwind@@YGXPAXIHP6EX0@Z@Z 10039cb0 f   msvcrtd:ehvecdtr.obj
 0001:00038d5c       _sqrt                      10039d5c f   msvcrtd:MSVCRTD.dll
 0001:00038d62       _memset                    10039d62 f   msvcrtd:MSVCRTD.dll
 0001:00038d68       _fabs                      10039d68 f   msvcrtd:MSVCRTD.dll
 0001:00038d6e       _sprintf                   10039d6e f   msvcrtd:MSVCRTD.dll
 0001:00038d74       __ftol                     10039d74 f   msvcrtd:MSVCRTD.dll
 0001:00038d80       ??_L@YGXPAXIHP6EX0@Z1@Z    10039d80 f   msvcrtd:ehvecctr.obj
 0001:00038e20       __CRT_INIT@12              10039e20 f   msvcrtd:crtdll.obj
 0001:00038f30       __DllMainCRTStartup@12     10039f30 f   msvcrtd:crtdll.obj
 0001:00039024       ___dllonexit               1003a024 f   msvcrtd:MSVCRTD.dll
 0001:0003902a       __except_handler3          1003a02a f   msvcrtd:MSVCRTD.dll
 0001:00039030       ?terminate@@YAXXZ          1003a030 f   msvcrtd:MSVCRTD.dll
 0001:00039036       __free_dbg                 1003a036 f   msvcrtd:MSVCRTD.dll
 0001:0003903c       __initterm                 1003a03c f   msvcrtd:MSVCRTD.dll
 0001:00039042       __malloc_dbg               1003a042 f   msvcrtd:MSVCRTD.dll
 0001:00039bf0       ?data@CPlex@@QAEPAXXZ      1003abf0 f i dlg_StLI.obj
 0001:0003e410       __enc$textbss$begin        1003f410     <linker-defined>
 0001:00088410       __enc$textbss$end          10089410     <linker-defined>
 0002:00000020       ?messageMap@CDlg_IsoP@@1UAFX_MSGMAP@@B 1008a020     Dlg_IsoP.obj
 0002:00000028       ?_messageEntries@CDlg_IsoP@@0QBUAFX_MSGMAP_ENTRY@@B 1008a028     Dlg_IsoP.obj
 0002:0000009c       ??_C@_02MDH@Mz?$AA@        1008a09c     Dlg_IsoP.obj
 0002:000000a0       ??_C@_02PDIO@My?$AA@       1008a0a0     Dlg_IsoP.obj
 0002:000000a4       ??_C@_02FJBJ@Mx?$AA@       1008a0a4     Dlg_IsoP.obj
 0002:000000a8       ??_C@_02ICJM@Fz?$AA@       1008a0a8     Dlg_IsoP.obj
 0002:000000ac       ??_C@_02HNCF@Fy?$AA@       1008a0ac     Dlg_IsoP.obj
 0002:000000b0       ??_C@_02NHLC@Fx?$AA@       1008a0b0     Dlg_IsoP.obj
 0002:000000b4       ??_C@_02LCJP@Rz?$AA@       1008a0b4     Dlg_IsoP.obj
 0002:000000b8       ??_C@_02ENCG@Ry?$AA@       1008a0b8     Dlg_IsoP.obj
 0002:000000bc       ??_C@_02OHLB@Rx?$AA@       1008a0bc     Dlg_IsoP.obj
 0002:000000c0       ??_C@_02KPMJ@Dz?$AA@       1008a0c0     Dlg_IsoP.obj
 0002:000000c4       ??_C@_02FAHA@Dy?$AA@       1008a0c4     Dlg_IsoP.obj
 0002:000000c8       ??_C@_02PKOH@Dx?$AA@       1008a0c8     Dlg_IsoP.obj
 0002:000000cc       ??_C@_02JPMK@Pz?$AA@       1008a0cc     Dlg_IsoP.obj
 0002:000000d0       ??_C@_02GAHD@Py?$AA@       1008a0d0     Dlg_IsoP.obj
 0002:000000d4       ??_C@_02MKOE@Px?$AA@       1008a0d4     Dlg_IsoP.obj
 0002:000000d8       ??_C@_02MFGA@Tz?$AA@       1008a0d8     Dlg_IsoP.obj
 0002:000000dc       ??_C@_02DKNJ@Ty?$AA@       1008a0dc     Dlg_IsoP.obj
 0002:000000e0       ??_C@_02JAEO@Tx?$AA@       1008a0e0     Dlg_IsoP.obj
 0002:000000e4       ??_C@_02POJP@Wz?$AA@       1008a0e4     Dlg_IsoP.obj
 0002:000000e8       ??_C@_02BCG@Wy?$AA@        1008a0e8     Dlg_IsoP.obj
 0002:000000ec       ??_C@_02KLLB@Wx?$AA@       1008a0ec     Dlg_IsoP.obj
 0002:000000f0       ??_7CDlg_IsoP@@6B@         1008a0f0     Dlg_IsoP.obj
 0002:000001f4       ??_C@_01KFMA@?$EA?$AA@     1008a1f4     Dlg_IsoP.obj
 0002:000001f8       ?messageMap@CDlg_Many@@1UAFX_MSGMAP@@B 1008a1f8     dlg_Many.obj
 0002:00000200       ?_messageEntries@CDlg_Many@@0QBUAFX_MSGMAP_ENTRY@@B 1008a200     dlg_Many.obj
 0002:00000258       ??_C@_06JKCI@Moment?$AA@   1008a258     dlg_Many.obj
 0002:00000260       ??_C@_05BGLJ@Force?$AA@    1008a260     dlg_Many.obj
 0002:00000268       ??_C@_08GCLC@Rotation?$AA@ 1008a268     dlg_Many.obj
 0002:00000274       ??_C@_08FGCK@Displace?$AA@ 1008a274     dlg_Many.obj
 0002:00000280       ??_C@_08ENKB@Pressure?$AA@ 1008a280     dlg_Many.obj
 0002:0000028c       ??_C@_0M@HJAG@Temperature?$AA@ 1008a28c     dlg_Many.obj
 0002:0000029c       ??_C@_06EBJB@Weight?$AA@   1008a29c     dlg_Many.obj
 0002:000002a4       ??_C@_08OKPH@Image2Up?$AA@ 1008a2a4     dlg_Many.obj
 0002:000002b0       ??_C@_0L@KCBH@Image2Down?$AA@ 1008a2b0     dlg_Many.obj
 0002:000002c0       ??_C@_0M@DMDD@Image2Focus?$AA@ 1008a2c0     dlg_Many.obj
 0002:000002d0       ??_C@_08BMMM@Image1Up?$AA@ 1008a2d0     dlg_Many.obj
 0002:000002dc       ??_C@_0L@ECHI@Image1Down?$AA@ 1008a2dc     dlg_Many.obj
 0002:000002ec       ??_C@_0M@ICND@Image1Focus?$AA@ 1008a2ec     dlg_Many.obj
 0002:000002fc       ??_7CDlg_Many@@6B@         1008a2fc     dlg_Many.obj
 0002:00000400       ??_C@_0BF@JPMB@Static?5Info?4?5?$EA?5Node?5?$AA@ 1008a400     dlg_Many.obj
 0002:00000420       ?messageMap@CDlg_StLA@@1UAFX_MSGMAP@@B 1008a420     Dlg_StLA.obj
 0002:00000428       ?_messageEntries@CDlg_StLA@@0QBUAFX_MSGMAP_ENTRY@@B 1008a428     Dlg_StLA.obj
 0002:000004d8       ??_7C3DMath@@6B@           1008a4d8     Dlg_StLA.obj
 0002:000004f0       ??_7CMatObj@@6B@           1008a4f0     Dlg_StLA.obj
 0002:000005f8       ??_7CBooleans@@6B@         1008a5f8     Dlg_StLA.obj
 0002:000008ac       ??_7CDataWindow@@6B@       1008a8ac     Dlg_StLA.obj
 0002:00000a68       ??_7CDrFont@@6B@           1008aa68     Dlg_StLA.obj
 0002:00000c24       ??_7CDrPen@@6B@            1008ac24     Dlg_StLA.obj
 0002:00000e50       ??_7CHitNet@@6B@           1008ae50     Dlg_StLA.obj
 0002:00000fe4       ??_7CLayer@@6B@            1008afe4     Dlg_StLA.obj
 0002:000011c4       ??_7CPatchMnu@@6B@         1008b1c4     Dlg_StLA.obj
 0002:000013c0       ??_7CObj3DMnu@@6B@         1008b3c0     Dlg_StLA.obj
 0002:000015bc       ??_7CMapFactor@@6B@        1008b5bc     Dlg_StLA.obj
 0002:0000176c       ??_7CPrecision@@6B@        1008b76c     Dlg_StLA.obj
 0002:00001944       ??_7CScaleFactor@@6B@      1008b944     Dlg_StLA.obj
 0002:00001b00       ??_7CUnit@@6B@             1008bb00     Dlg_StLA.obj
 0002:00001cc8       ??_7CElemInfo@@6B@         1008bcc8     Dlg_StLA.obj
 0002:00001e6c       ??_C@_00A@?$AA@            1008be6c     Dlg_StLA.obj
 0002:00001e70       ??_7CDlg_StLA@@6B@         1008be70     Dlg_StLA.obj
 0002:00001f74       ??_C@_0N@ECJH@Skew?5Joint?5Z?$AA@ 1008bf74     Dlg_StLA.obj
 0002:00001f84       ??_C@_06BILL@Normal?$AA@   1008bf84     Dlg_StLA.obj
 0002:00001f8c       ??_C@_0N@BHLJ@Skew?5Joint?5X?$AA@ 1008bf8c     Dlg_StLA.obj
 0002:00001f9c       ??_C@_0L@ODOE@Tangential?$AA@ 1008bf9c     Dlg_StLA.obj
 0002:00001fac       ??_C@_06GMBM@CNID_B?$AA@   1008bfac     Dlg_StLA.obj
 0002:00001fb4       ??_C@_06JDKF@CNID_A?$AA@   1008bfb4     Dlg_StLA.obj
 0002:00001fc0       ?messageMap@CDlg_StLC@@1UAFX_MSGMAP@@B 1008bfc0     Dlg_StLC.obj
 0002:00001fc8       ?_messageEntries@CDlg_StLC@@0QBUAFX_MSGMAP_ENTRY@@B 1008bfc8     Dlg_StLC.obj
 0002:0000205c       ??_7CDlg_StLC@@6B@         1008c05c     Dlg_StLC.obj
 0002:00002160       ??_C@_05IINE@Scale?$AA@    1008c160     Dlg_StLC.obj
 0002:00002168       ??_C@_0O@LMKD@Staring?5Value?$AA@ 1008c168     Dlg_StLC.obj
 0002:00002178       ??_C@_04KNLK@Step?$AA@     1008c178     Dlg_StLC.obj
 0002:00002180       ??_C@_06ILNC@Linear?$AA@   1008c180     Dlg_StLC.obj
 0002:00002188       ??_C@_0DH@GILF@No?5Distribution?5Curve?$CB?6Please?5Se@ 1008c188     Dlg_StLC.obj
 0002:000021d0       ?messageMap@CDlg_StLI@@1UAFX_MSGMAP@@B 1008c1d0     dlg_StLI.obj
 0002:000021d8       ?_messageEntries@CDlg_StLI@@0QBUAFX_MSGMAP_ENTRY@@B 1008c1d8     dlg_StLI.obj
 0002:0000236c       ??_7CTriangle@@6B@         1008c36c     dlg_StLI.obj
 0002:00002400       ??_7CDlg_StLI@@6B@         1008c400     dlg_StLI.obj
 0002:00002504       ??_C@_0BG@LFDF@resource?5string?5?$DN?5?$CFs?6?$AA@ 1008c504     dlg_StLI.obj
 0002:00002520       ??_7?$CList@HH@@6B@        1008c520     dlg_StLI.obj
 0002:00002538       ??_C@_01BJG@?6?$AA@        1008c538     dlg_StLI.obj
 0002:0000253c       ??_C@_05KIFI@with?5?$AA@   1008c53c     dlg_StLI.obj
 0002:00002544       ??_C@_09LOPF@?5elements?$AA@ 1008c544     dlg_StLI.obj
 0002:00002550       ?messageMap@CDlg_Uniform@@1UAFX_MSGMAP@@B 1008c550     Dlg_Uniform.obj
 0002:00002558       ?_messageEntries@CDlg_Uniform@@0QBUAFX_MSGMAP_ENTRY@@B 1008c558     Dlg_Uniform.obj
 0002:000025b0       ??_7CDlg_Uniform@@6B@      1008c5b0     Dlg_Uniform.obj
 0002:000026b4       ??_C@_0BE@IIOE@Uniform?5Lump?5Weight?$AA@ 1008c6b4     Dlg_Uniform.obj
 0002:000026cc       ??_C@_0BC@HLPB@Nodal?5Lump?5Weight?$AA@ 1008c6cc     Dlg_Uniform.obj
 0002:000026e4       ??_C@_0BA@CJEO@Uniform?5Thermal?$AA@ 1008c6e4     Dlg_Uniform.obj
 0002:000026f8       ??_C@_0O@OCKC@Nodal?5Thermal?$AA@ 1008c6f8     Dlg_Uniform.obj
 0002:00002708       ??_C@_0BB@GFOO@Uniform?5Pressure?$AA@ 1008c708     Dlg_Uniform.obj
 0002:0000271c       ??_C@_0P@LJCF@Nodal?5Pressure?$AA@ 1008c71c     Dlg_Uniform.obj
 0002:00002730       ??_C@_0BF@IBDE@Uniform?5Displacement?$AA@ 1008c730     Dlg_Uniform.obj
 0002:0000274c       ??_C@_0BD@JNMH@Nodal?5Displacement?$AA@ 1008c74c     Dlg_Uniform.obj
 0002:00002764       ??_C@_0BA@GBNL@Uniform?5Loading?$AA@ 1008c764     Dlg_Uniform.obj
 0002:00002778       ??_C@_0O@KKDH@Nodal?5Loading?$AA@ 1008c778     Dlg_Uniform.obj
 0002:00002788       ??_C@_08FOMN@CMI_StaL?$AA@ 1008c788     Mi_StaL.obj
 0002:00002794       ??_7CXForm@@6B@            1008c794     Mi_StaL.obj
 0002:00002840       ??_7CDrLabel@@6B@          1008c840     Mi_StaL.obj
 0002:00002a2c       ??_7CMI_StaL@@6B@          1008ca2c     Mi_StaL.obj
 0002:00002a44       ??_C@_0CN@FJD@CMI_StaL?3?3CreatePatchBased_3?6nTy@ 1008ca44     Mi_StaL.obj
 0002:00002a7c       ??_C@_0DM@OCKH@Internal?5ERROR?3?6CMI_StaL?3?3FillUp@ 1008ca7c     Mi_StaL.obj
 0002:00002ac4       ??_C@_0DN@PJND@Internal?5ERROR?3?6CMI_StaL?3?3FillUp@ 1008cac4     Mi_StaL.obj
 0002:00002b10       ??_C@_0DM@GIFL@Internal?5ERROR?3?6CMI_StaL?3?3FillUp@ 1008cb10     Mi_StaL.obj
 0002:00002b58       ??_C@_0DL@JANP@Internal?5ERROR?3?6CMI_StaL?3?3FillUp@ 1008cb58     Mi_StaL.obj
 0002:00002ba0       ??_C@_0DL@GPKN@Internal?5ERROR?3?6CMI_StaL?3?3FillUp@ 1008cba0     Mi_StaL.obj
 0002:00002be8       ??_C@_09DNDJ@_?$CFd_?$CFd_?$CFd?$AA@ 1008cbe8     Mi_StaL.obj
 0002:00002bf4       ??_C@_06HGMF@_?$CFd_?$CFd?$AA@ 1008cbf4     Mi_StaL.obj
 0002:00002bfc       ??_C@_03EODK@_?$CFd?$AA@   1008cbfc     Mi_StaL.obj
 0002:00002c00       ??_C@_02DILL@?$CFs?$AA@    1008cc00     Mi_StaL.obj
 0002:00002c04       ??_C@_07BCII@?$CFsz?$DN?$CF?4f?$AA@ 1008cc04     Mi_StaL.obj
 0002:00002c10       ??_C@_07PCOH@?$CFsy?$DN?$CF?4f?$AA@ 1008cc10     Mi_StaL.obj
 0002:00002c1c       ??_C@_07FCMC@?$CFsx?$DN?$CF?4f?$AA@ 1008cc1c     Mi_StaL.obj
 0002:00002c28       __real@8@00000000000000000000 1008cc28     Mi_StaL.obj
 0002:00002c34       ??_C@_01FJFF@W?$AA@        1008cc34     Mi_StaL.obj
 0002:00002c38       ??_C@_01KGOM@T?$AA@        1008cc38     Mi_StaL.obj
 0002:00002c3c       ??_C@_01FIAI@X?$AA@        1008cc3c     Mi_StaL.obj
 0002:00002c40       ??_C@_01MLA@P?$AA@         1008cc40     Mi_StaL.obj
 0002:00002c44       ??_C@_01FJJO@R?$AA@        1008cc44     Mi_StaL.obj
 0002:00002c48       ??_C@_01PJM@D?$AA@         1008cc48     Mi_StaL.obj
 0002:00002c4c       ??_C@_01PBLD@M?$AA@        1008cc4c     Mi_StaL.obj
 0002:00002c50       ??_C@_01FKLC@F?$AA@        1008cc50     Mi_StaL.obj
 0002:00002c54       ??_C@_0DJ@EEAP@Internal?5ERROR?3?6CMI_StaL?3?3Remove@ 1008cc54     Mi_StaL.obj
 0002:00002c98       ??_C@_0CM@MFBB@CMI_StaL?3?3RegenPatchBased_3?6nTyp@ 1008cc98     Mi_StaL.obj
 0002:00002ccc       ??_C@_0BH@GDND@?5CMI_StaL?3?5?5?5?5Loading?6?$AA@ 1008cccc     Mi_StaL.obj
 0002:00002ce8       ??_C@_0BH@KEIF@?5CMI_StaL?3?5?5?5?5Storing?6?$AA@ 1008cce8     Mi_StaL.obj
 0002:00002d04       ??_7?$CList@UstaLcard@@U1@@@6B@ 1008cd04     Mi_StaL.obj
 0002:00002d1c       ??_7?$CList@NN@@6B@        1008cd1c     Mi_StaL.obj
 0002:00002d34       ??_C@_09PKKJ@Lump?5Wts?4?$AA@ 1008cd34     MSTLdll.obj
 0002:00002d40       ??_C@_0N@BNPE@Thermal?5Load?$AA@ 1008cd40     MSTLdll.obj
 0002:00002d50       ??_C@_0O@OKIJ@Pressure?5Load?$AA@ 1008cd50     MSTLdll.obj
 0002:00002d60       ??_C@_0BC@NLEK@Displace_Rotation?$AA@ 1008cd60     MSTLdll.obj
 0002:00002d78       ??_C@_0N@FOBE@Force_Moment?$AA@ 1008cd78     MSTLdll.obj
 0002:00002d88       ??_C@_0BD@PLDA@Solid?5Force_Moment?$AA@ 1008cd88     MSTLdll.obj
 0002:00002da0       ??_C@_0BD@FNFF@Patch?5Force_Moment?$AA@ 1008cda0     MSTLdll.obj
 0002:00002db8       ??_C@_0BD@KLKE@Curve?5Force_Moment?$AA@ 1008cdb8     MSTLdll.obj
 0002:00002dd0       ??_C@_0BH@JFCM@MStL?4DLL?5Terminating?$CB?6?$AA@ 1008cdd0     MSTLdll.obj
 0002:00002dec       ??_C@_0BI@LLAO@MStL?4DLL?5Initializing?$CB?6?$AA@ 1008cdec     MSTLdll.obj
 0002:00002e08       ??_C@_08GENH@CMStLMgr?$AA@ 1008ce08     MSTLMgr.obj
 0002:00002e14       ??_7CMStLMgr@@6B@          1008ce14     MSTLMgr.obj
 0002:00002e2c       ??_C@_0BD@MAOL@?5MStLMgr?7?3Loading?6?$AA@ 1008ce2c     MSTLMgr.obj
 0002:00002e44       ??_C@_0BD@HLN@?5MStLMgr?7?3Storing?6?$AA@ 1008ce44     MSTLMgr.obj
 0002:00002e5c       ??_C@_07DCKK@CSLDCur?$AA@  1008ce5c     SLDCur.obj
 0002:00002e68       ??_C@_07OKFF@FORWARD?$AA@  1008ce68     SLDCur.obj
 0002:00002e74       ??_7CSLDCur@@6B@           1008ce74     SLDCur.obj
 0002:00002e98       ??_C@_03GKKA@_R_?$AA@      1008ce98     SLDCur.obj
 0002:00002e9c       ??_C@_03BNFP@_T_?$AA@      1008ce9c     SLDCur.obj
 0002:00002ea0       ??_C@_03LIGD@_NC?$AA@      1008cea0     SLDCur.obj
 0002:00002ea4       ??_C@_01NON@_?$AA@         1008cea4     SLDCur.obj
 0002:00002ea8       ??_C@_0CK@GKJH@Get_Values_NonIso_Cur?6NOT?5IMPLEM@ 1008cea8     SLDCur.obj
 0002:00002edc       ??_C@_0EB@HLDA@Internal?5ERROR?3?6CSLDCur?3?3FillInf@ 1008cedc     SLDCur.obj
 0002:00002f2c       ??_C@_0BH@PMEC@?5SLDMousC?3?5?5?5?5Loading?6?$AA@ 1008cf2c     SLDCur.obj
 0002:00002f48       ??_C@_0BH@DLBE@?5SLDMousC?3?5?5?5?5Storing?6?$AA@ 1008cf48     SLDCur.obj
 0002:00002f64       ??_C@_07BMPJ@CSLDNod?$AA@  1008cf64     SLDNod.obj
 0002:00002f70       ??_7CSLDNod@@6B@           1008cf70     SLDNod.obj
 0002:00002f94       ??_C@_0EA@KJJK@Internal?5ERROR?3?6CSLDNod?3?3FillInf@ 1008cf94     SLDNod.obj
 0002:00002fe0       ??_C@_0BH@NPNN@?5SLDMousN?3?5?5?5?5Loading?6?$AA@ 1008cfe0     SLDNod.obj
 0002:00002ffc       ??_C@_0BH@BIIL@?5SLDMousN?3?5?5?5?5Storing?6?$AA@ 1008cffc     SLDNod.obj
 0002:00003018       ??_C@_07BMHB@CSLDObj?$AA@  1008d018     SLDObj.obj
 0002:00003024       ??_7CSLDObj@@6B@           1008d024     SLDObj.obj
 0002:00003048       ??_C@_0CL@IDKD@?6Loading?5Input?3?6Distributed?5over@ 1008d048     SLDObj.obj
 0002:0000307c       ??_C@_0CM@MNCO@?6Loading?5Input?3?6Concentrated?5ove@ 1008d07c     SLDObj.obj
 0002:000030b0       ??_C@_0CH@LMPF@?6Loading?5Input?3?6Uniform?5over?6?$CFs?5@ 1008d0b0     SLDObj.obj
 0002:000030e0       ??_C@_0CP@NGCF@?6Loading?5Input?3?6Non?9IsoParametri@ 1008d0e0     SLDObj.obj
 0002:00003118       ??_C@_0CL@ECOB@?6Loading?5Input?3?6IsoParametric?6to@ 1008d118     SLDObj.obj
 0002:0000314c       ??_C@_0BI@FJAL@Z?9axis?5Normal?5to?5Patch?6?$AA@ 1008d14c     SLDObj.obj
 0002:00003168       ??_C@_0CL@PIBP@?6Loading?5Input?3?6Distributed?5over@ 1008d168     SLDObj.obj
 0002:0000319c       ??_C@_0CM@LGJC@?6Loading?5Input?3?6Concentrated?5ove@ 1008d19c     SLDObj.obj
 0002:000031d0       ??_C@_0CH@MHEJ@?6Loading?5Input?3?6Uniform?5over?6?$CFs?5@ 1008d1d0     SLDObj.obj
 0002:00003200       ??_C@_0CP@KNJJ@?6Loading?5Input?3?6Non?9IsoParametri@ 1008d200     SLDObj.obj
 0002:00003238       ??_C@_0CL@DJFN@?6Loading?5Input?3?6IsoParametric?6to@ 1008d238     SLDObj.obj
 0002:0000326c       ??_C@_0BJ@ILEL@X?9axis?5Tangent?5to?5Curve?6?$AA@ 1008d26c     SLDObj.obj
 0002:0000328c       ??_C@_0BP@MEMK@?6Loading?5Input?5is?5Skewed?5with?6?$AA@ 1008d28c     SLDObj.obj
 0002:000032b4       ??_C@_0M@EPPH@?7?$CFs?5and?5?$CFs?6?$AA@ 1008d2b4     SLDObj.obj
 0002:000032c4       ??_C@_0BE@NNGA@X?9axis?5defined?5by?3?6?$AA@ 1008d2c4     SLDObj.obj
 0002:000032dc       ??_C@_0CE@EOFM@?6Loading?5Coordinate?5is?5Skewed?5wi@ 1008d2dc     SLDObj.obj
 0002:00003308       ??_C@_0BI@OKBP@?7Direction?5?$CFs?5?$DN?5NOLOAD?6?$AA@ 1008d308     SLDObj.obj
 0002:00003324       ??_C@_0BF@PAMB@?7Direction?5?$CFs?5?$DN?5?$CFf?5?6?$AA@ 1008d324     SLDObj.obj
 0002:00003340       ??_C@_0BB@HOJN@?6Translational?3?6?$AA@ 1008d340     SLDObj.obj
 0002:00003354       ??_C@_0O@LOEL@?6LoadID?5?$DN?5?$CFs?6?$AA@ 1008d354     SLDObj.obj
 0002:00003364       ??_C@_0BF@JFHE@?6?6LoadType?5?$DN?5LUMPWT?6?$AA@ 1008d364     SLDObj.obj
 0002:00003380       ??_C@_0CG@FGH@?6?6LoadType?5?$DN?5PRESSURE?5?$CINormal?1Sh@ 1008d380     SLDObj.obj
 0002:000033b0       ??_C@_0BG@FOII@?6?6LoadType?5?$DN?5THERMAL?6?$AA@ 1008d3b0     SLDObj.obj
 0002:000033cc       ??_C@_01NCG@Z?$AA@         1008d3cc     SLDObj.obj
 0002:000033d0       ??_C@_01PCJP@Y?$AA@        1008d3d0     SLDObj.obj
 0002:000033d4       ??_C@_0O@IBMN@?6Rotational?3?6?$AA@ 1008d3d4     SLDObj.obj
 0002:000033e4       ??_C@_0BL@HKL@?6?6LoadType?5?$DN?5FORCE?1MOMENT?6?$AA@ 1008d3e4     SLDObj.obj
 0002:00003404       ??_C@_0CE@OPOL@?6?6LoadType?5?$DN?5DISPLACEMENT?1ROTATI@ 1008d404     SLDObj.obj
 0002:00003430       ??_C@_0BH@HPIM@?5SLDMousO?3?5?5?5?5Loading?6?$AA@ 1008d430     SLDObj.obj
 0002:0000344c       ??_C@_0BH@LINK@?5SLDMousO?3?5?5?5?5Storing?6?$AA@ 1008d44c     SLDObj.obj
 0002:00003468       ??_C@_07CKIK@CSLDPat?$AA@  1008d468     SLDPat.obj
 0002:00003474       ??_7CSLDPat@@6B@           1008d474     SLDPat.obj
 0002:00003498       ??_C@_0EB@PLMN@Internal?5ERROR?3?6CSLDPat?3?3FillInf@ 1008d498     SLDPat.obj
 0002:000034e8       ??_C@_02ENJD@_R?$AA@       1008d4e8     SLDPat.obj
 0002:000034ec       ??_C@_02LCOB@_T?$AA@       1008d4ec     SLDPat.obj
 0002:000034f0       ??_C@_03BAGB@_PC?$AA@      1008d4f0     SLDPat.obj
 0002:000034f4       ??_C@_0CK@NBJM@Get_Values_NonIso_Pat?6NOT?5IMPLEM@ 1008d4f4     SLDPat.obj
 0002:00003528       ??_C@_03OOKK@_NP?$AA@      1008d528     SLDPat.obj
 0002:0000352c       ??_C@_0DJ@DLKM@CSLDPat?3?3Get_Values_IsoNod_AnyPr@ 1008d52c     SLDPat.obj
 0002:00003570       ??_C@_0DG@KBCO@CSLDPat?3?3Get_Values_IsoNod_AnyPr@ 1008d570     SLDPat.obj
 0002:000035b0       ??_C@_0DK@JKHK@CSLDPat?3?3Get_Values_IsoCur_AnyPr@ 1008d5b0     SLDPat.obj
 0002:000035f8       ??_C@_0DH@LJNC@CSLDPat?3?3Get_Values_IsoCur_AnyPr@ 1008d5f8     SLDPat.obj
 0002:0000363c       ??_C@_0BC@FMNN@Generate?3?5To?5Node?$AA@ 1008d63c     SLDPat.obj
 0002:00003654       ??_C@_0BE@LFMF@Generate?3?5From?5Node?$AA@ 1008d654     SLDPat.obj
 0002:0000366c       ??_C@_0O@DBKE@Curve?5Iso?5To?5?$AA@ 1008d66c     SLDPat.obj
 0002:0000367c       ??_C@_0BF@MMCO@Ready?5for?5Extrusion?$EA?$AA@ 1008d67c     SLDPat.obj
 0002:00003698       ??_C@_0BN@GPBK@Get_Values_Iso_EXTRUDE_Type1?$AA@ 1008d698     SLDPat.obj
 0002:000036bc       ??_C@_0BC@OJKN@Extrusion?5Vectors?$AA@ 1008d6bc     SLDPat.obj
 0002:000036d4       ??_C@_0BG@FPBD@Ready?5for?5Generating?$EA?$AA@ 1008d6d4     SLDPat.obj
 0002:000036f0       ??_C@_09FPGL@Extru?4Len?$AA@ 1008d6f0     SLDPat.obj
 0002:000036fc       ??_C@_0BN@JAKD@Get_Values_Iso_EXTRUDE_Type2?$AA@ 1008d6fc     SLDPat.obj
 0002:00003720       ??_C@_0BF@MOJB@Ready?5for?5Rot?4?5Axis?$EA?$AA@ 1008d720     SLDPat.obj
 0002:0000373c       ??_C@_0BE@INDC@Ready?5for?5Rotation?$EA?$AA@ 1008d73c     SLDPat.obj
 0002:00003754       ??_C@_0BM@ELKL@Get_Values_Iso_ROTATE_Type2?$AA@ 1008d754     SLDPat.obj
 0002:00003778       ??_C@_0BG@HNML@Ready?5for?5Lofting?5To?$EA?$AA@ 1008d778     SLDPat.obj
 0002:00003794       ??_C@_0BI@HDGM@Ready?5for?5Lofting?5From?$EA?$AA@ 1008d794     SLDPat.obj
 0002:000037b0       ??_C@_0BF@LJAL@Get_Values_Iso_LOFT2?$AA@ 1008d7b0     SLDPat.obj
 0002:000037cc       ??_C@_0BH@OKDL@Ready?5for?5Coons?5Patch?$EA?$AA@ 1008d7cc     SLDPat.obj
 0002:000037e8       ??_C@_0BF@LFGH@Get_Values_Iso_COONS?$AA@ 1008d7e8     SLDPat.obj
 0002:00003804       ??_C@_0BH@DLHP@Anchor?5Vector?5at?5Node?5?$AA@ 1008d804     SLDPat.obj
 0002:00003820       ??_C@_0M@DEHG@Anchor?5Node?$AA@ 1008d820     SLDPat.obj
 0002:00003830       ??_C@_0BD@KNJD@Ready?5for?5Ducting?$EA?$AA@ 1008d830     SLDPat.obj
 0002:00003848       ??_C@_0BE@MGPL@Get_Values_Iso_DUCT?$AA@ 1008d848     SLDPat.obj
 0002:00003860       ??_C@_0BE@GMNF@Ready?5for?5Sweeping?$EA?$AA@ 1008d860     SLDPat.obj
 0002:00003878       ??_C@_0BF@INAJ@Get_Values_Iso_SWEEP?$AA@ 1008d878     SLDPat.obj
 0002:00003894       ??_C@_0DJ@LNAN@CSLDPat?3?3Generate_IsoControls_RO@ 1008d894     SLDPat.obj
 0002:000038d8       ??_C@_0BF@PCMD@?5SLDPat?3?5?5?5?5Loading?6?$AA@ 1008d8d8     SLDPat.obj
 0002:000038f4       ??_C@_0BF@DFJF@?5SLDPat?3?5?5?5?5Storing?6?$AA@ 1008d8f4     SLDPat.obj
 0002:00003910       ??_7?$CList@W4CURVELATCH@@W41@@@6B@ 1008d910     SLDPat.obj
 0002:00003928       _IID_IDocHostUIHandlerDispatch 1008d928     mfcs42d:stdafx.obj
 0002:00003938       _IID_IInternalConnection   1008d938     mfcs42d:stdafx.obj
 0002:00003948       _IID_IAxWinAmbientDispatch 1008d948     mfcs42d:stdafx.obj
 0002:00003958       _IID_IAxWinHostWindow      1008d958     mfcs42d:stdafx.obj
 0002:00003968       _IID_IRegistrar            1008d968     mfcs42d:stdafx.obj
 0002:00003978       _CLSID_Registrar           1008d978     mfcs42d:stdafx.obj
 0002:00003988       _LIBID_ATLLib              1008d988     mfcs42d:stdafx.obj
 0002:000039c4       ??_C@_08JKC@crtdll?4c?$AA@ 1008d9c4     msvcrtd:crtdll.obj
 0003:00000000       ___xc_a                    100aa000     msvcrtd:cinitexe.obj
 0003:00000268       ___xc_z                    100aa268     msvcrtd:cinitexe.obj
 0003:0000036c       ___xi_a                    100aa36c     msvcrtd:cinitexe.obj
 0003:00000470       ___xi_z                    100aa470     msvcrtd:cinitexe.obj
 0003:000006e0       ?classCMI_StaL@CMI_StaL@@2UCRuntimeClass@@A 100aa6e0     Mi_StaL.obj
 0003:00000708       ?__LINE__Var@?1??TRIANGLE_1@CMI_StaL@@IAEPAVCDrStatic@@PAUWORLD@@000AAUstaLcard@@HHHH@Z@4FA 100aa708     Mi_StaL.obj
 0003:0000070c       ?__LINE__Var@?1??TRIANGLE_2@CMI_StaL@@IAEPAVCDrStatic@@PAUWORLD@@000AAUstaLcard@@HHHH@Z@4FA 100aa70c     Mi_StaL.obj
 0003:00000710       ?__LINE__Var@?1??LoopOver_Patch_4_Pts@CMI_StaL@@IAEHPAVCDrPatch@@AAUstaLcard@@PAUWORLD@@222H@Z@4FA 100aa710     Mi_StaL.obj
 0003:00000714       ?__LINE__Var@?1??LoopOver_CurvePts@CMI_StaL@@IAEHPAVCDrCurve@@AAUstaLcard@@PAUWORLD@@2H@Z@4FA 100aa714     Mi_StaL.obj
 0003:00000718       ?__LINE__Var@?1??CreateNodeBased@CMI_StaL@@QAEHPAVCDrNode@@PAV?$CList@UstaLcard@@U1@@@@Z@4FA 100aa718     Mi_StaL.obj
 0003:0000071c       ?__LINE__Var@?1??SetInfoForStaticBase@CMI_StaL@@IAEXPAVCDrStatic@@UstaLcard@@@Z@4FA 100aa71c     Mi_StaL.obj
 0003:00000720       ?StaLTypes@@3PAUstaLtypes@@A 100aa720     MSTLdll.obj
 0003:0000078c       ?nMax_StaLTypes@@3HA       100aa78c     MSTLdll.obj
 0003:000007b4       __pRawDllMain              100aa7b4     MSTLdll.obj
 0003:00000800       ?classCMStLMgr@CMStLMgr@@2UCRuntimeClass@@A 100aa800     MSTLMgr.obj
 0003:00000858       ?classCSLDCur@CSLDCur@@2UCRuntimeClass@@A 100aa858     SLDCur.obj
 0003:000008b0       ?classCSLDNod@CSLDNod@@2UCRuntimeClass@@A 100aa8b0     SLDNod.obj
 0003:00000908       ?classCSLDObj@CSLDObj@@2UCRuntimeClass@@A 100aa908     SLDObj.obj
 0003:00000960       ?classCSLDPat@CSLDPat@@2UCRuntimeClass@@A 100aa960     SLDPat.obj
 0003:00000988       ?__LINE__Var@?1??Get_Values_IsoNod_AnyProc@CSLDPat@@IAEHAAVCString@@W4STALPROC@@00@Z@4FA 100aa988     SLDPat.obj
 0003:0000098c       ?__LINE__Var@?1??Get_Values_IsoCur_AnyProc@CSLDPat@@IAEHAAVCString@@HHHW4STALPROC@@00H@Z@4FA 100aa98c     SLDPat.obj
 0003:00000990       ?GUID_ATLVer30@ATL@@3U_GUID@@A 100aa990     mfcs42d:stdafx.obj
 0003:00000b64       ?_init_CMI_StaL@@3UAFX_CLASSINIT@@A 100aab64     Mi_StaL.obj
 0003:00000b68       __afxForceEXTDLL           100aab68     MSTLdll.obj
 0003:00000b70       ?extensionMStL_DLL@@3UAFX_EXTENSION_MODULE@@A 100aab70     MSTLdll.obj
 0003:00000b8c       ?_init_CMStLMgr@@3UAFX_CLASSINIT@@A 100aab8c     MSTLMgr.obj
 0003:00000b90       ?_init_CSLDCur@@3UAFX_CLASSINIT@@A 100aab90     SLDCur.obj
 0003:00000b94       ?_init_CSLDNod@@3UAFX_CLASSINIT@@A 100aab94     SLDNod.obj
 0003:00000b98       ?_init_CSLDObj@@3UAFX_CLASSINIT@@A 100aab98     SLDObj.obj
 0003:00000b9c       ?_init_CSLDPat@@3UAFX_CLASSINIT@@A 100aab9c     SLDPat.obj
 0003:00000ba0       __afxForceEXCLUDE          100aaba0     mfcs42d:nolib.obj
 0003:00000ba4       ?ATL_CREATE_OBJECT@CComApartment@ATL@@2IA 100aaba4     mfcs42d:stdafx.obj
 0003:00000ba8       ?m_libid@CComModule@ATL@@2U_GUID@@A 100aaba8     mfcs42d:stdafx.obj
 0003:00000bb8       ?_pModule@ATL@@3PAVCComModule@1@A 100aabb8     mfcs42d:stdafx.obj
 0003:00000bbc       __afxForceSTDAFX           100aabbc     mfcs42d:stdafx.obj
 0003:00000bc4       __adjust_fdiv              100aabc4     <common>
 0003:00000bd0       ___onexitend               100aabd0     <common>
 0003:00000be0       ___onexitbegin             100aabe0     <common>
 0004:00000000       __IMPORT_DESCRIPTOR_OMgr_D32 100ab000     OMgr_D32:OMgr_D32.dll
 0004:00000014       __IMPORT_DESCRIPTOR_Spec_D32 100ab014     Spec_d32:Spec_D32.dll
 0004:00000028       __IMPORT_DESCRIPTOR_Elem_D32 100ab028     Elem_D32:Elem_D32.dll
 0004:0000003c       __IMPORT_DESCRIPTOR_Draw_D32 100ab03c     Draw_D32:Draw_D32.dll
 0004:00000050       __IMPORT_DESCRIPTOR_OGEN_D32 100ab050     OGen_D32:OGEN_D32.dll
 0004:00000064       __IMPORT_DESCRIPTOR_StaL_D32 100ab064     StaL_D32:StaL_D32.dll
 0004:00000078       __IMPORT_DESCRIPTOR_Dr3D_D32 100ab078     Dr3D_D32:Dr3D_D32.dll
 0004:0000008c       __IMPORT_DESCRIPTOR_MNod_D32 100ab08c     MNod_D32:MNod_D32.dll
 0004:000000a0       __IMPORT_DESCRIPTOR_MCur_D32 100ab0a0     MCur_D32:MCur_D32.dll
 0004:000000b4       __IMPORT_DESCRIPTOR_MPat_D32 100ab0b4     MPat_D32:MPat_D32.dll
 0004:000000c8       __IMPORT_DESCRIPTOR_MSol_D32 100ab0c8     MSol_d32:MSol_D32.dll
 0004:000000dc       __IMPORT_DESCRIPTOR_MFC42D 100ab0dc     mfc42d:MFC42D.DLL
 0004:000000f0       __IMPORT_DESCRIPTOR_MSVCRTD 100ab0f0     msvcrtd:MSVCRTD.dll
 0004:00000104       __NULL_IMPORT_DESCRIPTOR   100ab104     OMgr_D32:OMgr_D32.dll
 0004:00000b20       __imp_?Shear_Z@CXForm@@UAEXPAUMATRIX@@NNW4XFMODE@@@Z 100abb20     Dr3D_D32:Dr3D_D32.dll
 0004:00000b24       __imp_?SetMATRIX@C3DMath@@QAEXPAUMATRIX@@PAUWORLD@@111@Z 100abb24     Dr3D_D32:Dr3D_D32.dll
 0004:00000b28       __imp_?AreSame_WORLD@C3DMath@@QAEHPAUWORLD@@0N@Z 100abb28     Dr3D_D32:Dr3D_D32.dll
 0004:00000b2c       __imp_?Normalize@C3DMath@@QAEXPAUWORLD@@0@Z 100abb2c     Dr3D_D32:Dr3D_D32.dll
 0004:00000b30       __imp_??0CXForm@@QAE@XZ    100abb30     Dr3D_D32:Dr3D_D32.dll
 0004:00000b34       __imp_?GetRuntimeClass@CXForm@@UBEPAUCRuntimeClass@@XZ 100abb34     Dr3D_D32:Dr3D_D32.dll
 0004:00000b38       __imp_?Serialize@CXForm@@UAEXAAVCArchive@@@Z 100abb38     Dr3D_D32:Dr3D_D32.dll
 0004:00000b3c       __imp_?Reflect@CXForm@@UAEXPAUMATRIX@@UWORLD@@N@Z 100abb3c     Dr3D_D32:Dr3D_D32.dll
 0004:00000b40       __imp_?Scale@CXForm@@UAEXPAUMATRIX@@NNNW4XFMODE@@@Z 100abb40     Dr3D_D32:Dr3D_D32.dll
 0004:00000b44       __imp_?Shear_X@CXForm@@UAEXPAUMATRIX@@NNW4XFMODE@@@Z 100abb44     Dr3D_D32:Dr3D_D32.dll
 0004:00000b48       __imp_?Shear_Y@CXForm@@UAEXPAUMATRIX@@NNW4XFMODE@@@Z 100abb48     Dr3D_D32:Dr3D_D32.dll
 0004:00000b4c       __imp_?GetIdentityMATRIX@C3DMath@@QAEXPAUMATRIX@@@Z 100abb4c     Dr3D_D32:Dr3D_D32.dll
 0004:00000b50       __imp_?Rotate_X@CXForm@@UAEXPAUMATRIX@@NW4XFMODE@@@Z 100abb50     Dr3D_D32:Dr3D_D32.dll
 0004:00000b54       __imp_?Sub3DPts@C3DMath@@QAEXPAUWORLD@@00@Z 100abb54     Dr3D_D32:Dr3D_D32.dll
 0004:00000b58       __imp_?Rotate_Y@CXForm@@UAEXPAUMATRIX@@NW4XFMODE@@@Z 100abb58     Dr3D_D32:Dr3D_D32.dll
 0004:00000b5c       __imp_?Rotate_Z@CXForm@@UAEXPAUMATRIX@@NW4XFMODE@@@Z 100abb5c     Dr3D_D32:Dr3D_D32.dll
 0004:00000b60       __imp_?Translate@CXForm@@UAEXPAUMATRIX@@NNNW4XFMODE@@@Z 100abb60     Dr3D_D32:Dr3D_D32.dll
 0004:00000b64       __imp_?RotateAboutLineMATRIX@CXForm@@UAEXPAUMATRIX@@PAUWORLD@@1NW4XFMODE@@@Z 100abb64     Dr3D_D32:Dr3D_D32.dll
 0004:00000b68       __imp_?HeadToNewZLocMATRIX@CXForm@@UAEXPAUWORLD@@0PAUMATRIX@@W4XFMODE@@@Z 100abb68     Dr3D_D32:Dr3D_D32.dll
 0004:00000b6c       __imp_?RotateToNewZMATRIX@CXForm@@UAEXPAUWORLD@@PAUMATRIX@@W4XFMODE@@@Z 100abb6c     Dr3D_D32:Dr3D_D32.dll
 0004:00000b70       __imp_?HeadToNewYLocMATRIX@CXForm@@UAEXPAUWORLD@@0PAUMATRIX@@W4XFMODE@@@Z 100abb70     Dr3D_D32:Dr3D_D32.dll
 0004:00000b74       __imp_?RotateToNewYMATRIX@CXForm@@UAEXPAUWORLD@@PAUMATRIX@@W4XFMODE@@@Z 100abb74     Dr3D_D32:Dr3D_D32.dll
 0004:00000b78       __imp_?HeadToNewXLocMATRIX@CXForm@@UAEXPAUWORLD@@0PAUMATRIX@@W4XFMODE@@@Z 100abb78     Dr3D_D32:Dr3D_D32.dll
 0004:00000b7c       __imp_?RotateToNewXMATRIX@CXForm@@UAEXPAUWORLD@@PAUMATRIX@@W4XFMODE@@@Z 100abb7c     Dr3D_D32:Dr3D_D32.dll
 0004:00000b80       __imp_?VRCtoWORLDRotationMATRIX@CXForm@@UAEXPAUMATRIX@@PAUWORLD@@1@Z 100abb80     Dr3D_D32:Dr3D_D32.dll
 0004:00000b84       __imp_?ComposeLocalMATRIX@CXForm@@UAEXPAUMATRIX@@NNNNNNNNNNNN@Z 100abb84     Dr3D_D32:Dr3D_D32.dll
 0004:00000b88       __imp_?ComposeViewMATRIX@CXForm@@UAENPAUMATRIX@@UWORLD@@1111NNNN@Z 100abb88     Dr3D_D32:Dr3D_D32.dll
 0004:00000b8c       __imp_?PerToParCVVMATRIX@CXForm@@UAEXPAUMATRIX@@N@Z 100abb8c     Dr3D_D32:Dr3D_D32.dll
 0004:00000b90       __imp_?ALT_ComposeViewMATRIX@CXForm@@UAEHPAUMATRIX@@UWORLD@@1111NNNN@Z 100abb90     Dr3D_D32:Dr3D_D32.dll
 0004:00000b94       __imp_?SetVOMATRIX@CXForm@@UAEXPAUMATRIX@@UWORLD@@11@Z 100abb94     Dr3D_D32:Dr3D_D32.dll
 0004:00000b98       __imp_?Par_SetVMMATRIX@CXForm@@UAEXPAUMATRIX@@UWORLD@@1NNNN@Z 100abb98     Dr3D_D32:Dr3D_D32.dll
 0004:00000b9c       __imp_?Per_SetVMMATRIX@CXForm@@UAENPAUMATRIX@@UWORLD@@1NNNN@Z 100abb9c     Dr3D_D32:Dr3D_D32.dll
 0004:00000ba0       __imp_?ComposeCombineMATRIX@CXForm@@UAEXPAUMATRIX@@00@Z 100abba0     Dr3D_D32:Dr3D_D32.dll
 0004:00000ba4       __imp_?Transform@CXForm@@UAEXPAUWORLD@@0PAUMATRIX@@@Z 100abba4     Dr3D_D32:Dr3D_D32.dll
 0004:00000ba8       __imp_?TransformPerToParCVV@CXForm@@UAEXNPAUWORLD@@0@Z 100abba8     Dr3D_D32:Dr3D_D32.dll
 0004:00000bac       __imp_?ComposeWin3DtoScreen3DMATRIX@CXForm@@UAEXPAUMATRIX@@UWORLD@@1@Z 100abbac     Dr3D_D32:Dr3D_D32.dll
 0004:00000bb0       __imp_?Project@CXForm@@UAEXPAUMATRIX@@PAUWORLD@@1@Z 100abbb0     Dr3D_D32:Dr3D_D32.dll
 0004:00000bb4       __imp_??0C3DMath@@QAE@XZ   100abbb4     Dr3D_D32:Dr3D_D32.dll
 0004:00000bb8       __imp_?BlockCopy@C3DMath@@QAEXPAD0K@Z 100abbb8     Dr3D_D32:Dr3D_D32.dll
 0004:00000bbc       __imp_?GetRuntimeClass@C3DMath@@UBEPAUCRuntimeClass@@XZ 100abbbc     Dr3D_D32:Dr3D_D32.dll
 0004:00000bc0       __imp_?Serialize@C3DMath@@UAEXAAVCArchive@@@Z 100abbc0     Dr3D_D32:Dr3D_D32.dll
 0004:00000bc4       __imp_?Cross3DPts@C3DMath@@QAEXPAUWORLD@@00@Z 100abbc4     Dr3D_D32:Dr3D_D32.dll
 0004:00000bc8       \177Dr3D_D32_NULL_THUNK_DATA 100abbc8     Dr3D_D32:Dr3D_D32.dll
 0004:00000c14       __imp_?DealObjectDialog@CDrLabel@@UAEHXZ 100abc14     Draw_D32:Draw_D32.dll
 0004:00000c18       __imp_?SetObjectInfo@CDrLabel@@UAEXPAVCDrObject@@@Z 100abc18     Draw_D32:Draw_D32.dll
 0004:00000c1c       __imp_?Pack_drPipe@CDrLabel@@UAEXPAVCString@@@Z 100abc1c     Draw_D32:Draw_D32.dll
 0004:00000c20       __imp_?IsKeyMatch@CDrLabel@@UAEHPAVCDrObject@@VCString@@I@Z 100abc20     Draw_D32:Draw_D32.dll
 0004:00000c24       __imp_?IsObjectHit@CDrLabel@@UAEHPAVCClientDC@@HUtagPOINT@@PAVCRect@@H@Z 100abc24     Draw_D32:Draw_D32.dll
 0004:00000c28       __imp_?GetRawCoords@CDrLabel@@UAEXPAJPAHH@Z 100abc28     Draw_D32:Draw_D32.dll
 0004:00000c2c       __imp_?FinishObject@CDrLabel@@UAEXPAVCClientDC@@H@Z 100abc2c     Draw_D32:Draw_D32.dll
 0004:00000c30       __imp_?DoDrawView@CDrLabel@@UAEXPAVCDC@@HH@Z 100abc30     Draw_D32:Draw_D32.dll
 0004:00000c34       __imp_?Corner_3Dto2D@CDrLabel@@UAEXXZ 100abc34     Draw_D32:Draw_D32.dll
 0004:00000c38       __imp_?SetCorner@CDrLabel@@UAEXUtagPOINT@@H@Z 100abc38     Draw_D32:Draw_D32.dll
 0004:00000c3c       __imp_?GetCorner@CDrLabel@@UAE?AUtagPOINT@@H@Z 100abc3c     Draw_D32:Draw_D32.dll
 0004:00000c40       __imp_?GetRuntimeClass@CDrLabel@@UBEPAUCRuntimeClass@@XZ 100abc40     Draw_D32:Draw_D32.dll
 0004:00000c44       __imp_?Serialize@CDrLabel@@UAEXAAVCArchive@@@Z 100abc44     Draw_D32:Draw_D32.dll
 0004:00000c48       __imp_?DoDataView@CDrLabel@@UAEXPAVCDC@@H@Z 100abc48     Draw_D32:Draw_D32.dll
 0004:00000c4c       __imp_?InitDraw@CDrLabel@@UAEXPAVCDC@@HHPAUMATRIX@@1NNN@Z 100abc4c     Draw_D32:Draw_D32.dll
 0004:00000c50       __imp_?GetObjectInfo@CDrLabel@@UAEXPAVCDrObject@@@Z 100abc50     Draw_D32:Draw_D32.dll
 0004:00000c54       \177Draw_D32_NULL_THUNK_DATA 100abc54     Draw_D32:Draw_D32.dll
 0004:00000c8c       __imp_?GetRuntimeClass@CElemInfo@@UBEPAUCRuntimeClass@@XZ 100abc8c     Elem_D32:Elem_D32.dll
 0004:00000c90       __imp_?Init@CElemInfo@@UAEXXZ 100abc90     Elem_D32:Elem_D32.dll
 0004:00000c94       __imp_?Serialize@CElemInfo@@UAEXAAVCArchive@@@Z 100abc94     Elem_D32:Elem_D32.dll
 0004:00000c98       __imp_?DoDataView@CElemInfo@@UAEXPAVCDC@@H@Z 100abc98     Elem_D32:Elem_D32.dll
 0004:00000c9c       __imp_?Pack_drPipe@CElemInfo@@UAEXPAVCString@@@Z 100abc9c     Elem_D32:Elem_D32.dll
 0004:00000ca0       __imp_?GetObjectInfo@CElemInfo@@UAEXPAVCDrObject@@@Z 100abca0     Elem_D32:Elem_D32.dll
 0004:00000ca4       __imp_?SetObjectInfo@CElemInfo@@UAEXPAVCDrObject@@@Z 100abca4     Elem_D32:Elem_D32.dll
 0004:00000ca8       __imp_?ReadDefault@CElemInfo@@UAEXXZ 100abca8     Elem_D32:Elem_D32.dll
 0004:00000cac       \177Elem_D32_NULL_THUNK_DATA 100abcac     Elem_D32:Elem_D32.dll
 0004:00000cdc       __imp_?FillMeshTangentsCurve@CMI_GangC@@QAEHPAVCDrCurve@@PAUWORLD@@H@Z 100abcdc     MCur_D32:MCur_D32.dll
 0004:00000ce0       __imp_?FillMeshNodesCurve@CMI_GangC@@QAEHPAVCDrCurve@@PAUWORLD@@PANH@Z 100abce0     MCur_D32:MCur_D32.dll
 0004:00000ce4       __imp_??1CMI_GangC@@UAE@XZ 100abce4     MCur_D32:MCur_D32.dll
 0004:00000ce8       __imp_??1CMC_Circle@@UAE@XZ 100abce8     MCur_D32:MCur_D32.dll
 0004:00000cec       __imp_??1CMC_Parab@@UAE@XZ 100abcec     MCur_D32:MCur_D32.dll
 0004:00000cf0       __imp_?CreateCurve@CMI_GangC@@QAEPAVCDrCurve@@AAVCString@@PAV2@PAVCDListMgr@@W4CURVEPROC@@PAV?$CList@HH@@HH@Z 100abcf0     MCur_D32:MCur_D32.dll
 0004:00000cf4       __imp_?CreateParabola@CMC_Parab@@QAEPAVCDrCurve@@AAVCString@@PAV2@PAVCDListMgr@@W4CURVEPROC@@PAV?$CList@HH@@HH@Z 100abcf4     MCur_D32:MCur_D32.dll
 0004:00000cf8       __imp_?CreateCircle@CMC_Circle@@QAEPAVCDrCurve@@AAVCString@@PAV2@PAVCDListMgr@@W4CURVEPROC@@PAV?$CList@HH@@W4CIRCLETYPE@@NNNHPAVCDrNode@@6H@Z 100abcf8     MCur_D32:MCur_D32.dll
 0004:00000cfc       __imp_??0CMC_Parab@@QAE@XZ 100abcfc     MCur_D32:MCur_D32.dll
 0004:00000d00       __imp_??0CMC_Circle@@QAE@XZ 100abd00     MCur_D32:MCur_D32.dll
 0004:00000d04       __imp_??0CMI_GangC@@QAE@XZ 100abd04     MCur_D32:MCur_D32.dll
 0004:00000d08       \177MCur_D32_NULL_THUNK_DATA 100abd08     MCur_D32:MCur_D32.dll
 0004:00000d3c       __imp_?DDX_Check@@YGXPAVCDataExchange@@HAAH@Z 100abd3c     mfc42d:MFC42D.DLL
 0004:00000d40       __imp_??4CString@@QAEABV0@PBD@Z 100abd40     mfc42d:MFC42D.DLL
 0004:00000d44       __imp_??1CPen@@UAE@XZ      100abd44     mfc42d:MFC42D.DLL
 0004:00000d48       __imp_??0CString@@QAE@ABV0@@Z 100abd48     mfc42d:MFC42D.DLL
 0004:00000d4c       __imp_??1CObject@@UAE@XZ   100abd4c     mfc42d:MFC42D.DLL
 0004:00000d50       __imp_?AssertValid@CObject@@UBEXXZ 100abd50     mfc42d:MFC42D.DLL
 0004:00000d54       __imp_?Dump@CObject@@UBEXAAVCDumpContext@@@Z 100abd54     mfc42d:MFC42D.DLL
 0004:00000d58       __imp_?SubclassDlgItem@CWnd@@QAEHIPAV1@@Z 100abd58     mfc42d:MFC42D.DLL
 0004:00000d5c       __imp_?SizeToContent@CBitmapButton@@QAEXXZ 100abd5c     mfc42d:MFC42D.DLL
 0004:00000d60       __imp_?EnableWindow@CWnd@@QAEHH@Z 100abd60     mfc42d:MFC42D.DLL
 0004:00000d64       __imp_??0CBitmapButton@@QAE@XZ 100abd64     mfc42d:MFC42D.DLL
 0004:00000d68       __imp_?LoadBitmaps@CBitmapButton@@QAEHPBD000@Z 100abd68     mfc42d:MFC42D.DLL
 0004:00000d6c       __imp_??1CBitmap@@UAE@XZ   100abd6c     mfc42d:MFC42D.DLL
 0004:00000d70       __imp_??1CButton@@UAE@XZ   100abd70     mfc42d:MFC42D.DLL
 0004:00000d74       __imp_?OnInitDialog@CDialog@@UAEHXZ 100abd74     mfc42d:MFC42D.DLL
 0004:00000d78       __imp_??4CString@@QAEABV0@ABV0@@Z 100abd78     mfc42d:MFC42D.DLL
 0004:00000d7c       __imp_??H@YG?AVCString@@PBDABV0@@Z 100abd7c     mfc42d:MFC42D.DLL
 0004:00000d80       __imp_??YCString@@QAEABV0@ABV0@@Z 100abd80     mfc42d:MFC42D.DLL
 0004:00000d84       __imp_??BCString@@QBEPBDXZ 100abd84     mfc42d:MFC42D.DLL
 0004:00000d88       __imp_?GetDlgItem@CWnd@@QBEPAV1@H@Z 100abd88     mfc42d:MFC42D.DLL
 0004:00000d8c       __imp_?SetWindowTextA@CWnd@@QAEXPBD@Z 100abd8c     mfc42d:MFC42D.DLL
 0004:00000d90       __imp_?OnCancel@CDialog@@MAEXXZ 100abd90     mfc42d:MFC42D.DLL
 0004:00000d94       __imp_?UpdateData@CWnd@@QAEHH@Z 100abd94     mfc42d:MFC42D.DLL
 0004:00000d98       __imp_?messageMap@CDialog@@1UAFX_MSGMAP@@B 100abd98     mfc42d:MFC42D.DLL
 0004:00000d9c       __imp_?DoDataExchange@CWnd@@MAEXPAVCDataExchange@@@Z 100abd9c     mfc42d:MFC42D.DLL
 0004:00000da0       __imp_?DDX_Text@@YGXPAVCDataExchange@@HAAN@Z 100abda0     mfc42d:MFC42D.DLL
 0004:00000da4       __imp_??3@YAXPAX@Z         100abda4     mfc42d:MFC42D.DLL
 0004:00000da8       __imp_??3CObject@@SGXPAX@Z 100abda8     mfc42d:MFC42D.DLL
 0004:00000dac       __imp_??0CDialog@@QAE@IPAVCWnd@@@Z 100abdac     mfc42d:MFC42D.DLL
 0004:00000db0       __imp_??0CString@@QAE@XZ   100abdb0     mfc42d:MFC42D.DLL
 0004:00000db4       __imp_?GetRuntimeClass@CDialog@@UBEPAUCRuntimeClass@@XZ 100abdb4     mfc42d:MFC42D.DLL
 0004:00000db8       __imp_?Serialize@CObject@@UAEXAAVCArchive@@@Z 100abdb8     mfc42d:MFC42D.DLL
 0004:00000dbc       __imp_?AssertValid@CDialog@@UBEXXZ 100abdbc     mfc42d:MFC42D.DLL
 0004:00000dc0       __imp_??9@YG_NABVCString@@0@Z 100abdc0     mfc42d:MFC42D.DLL
 0004:00000dc4       __imp_?OnCmdMsg@CDialog@@UAEHIHPAXPAUAFX_CMDHANDLERINFO@@@Z 100abdc4     mfc42d:MFC42D.DLL
 0004:00000dc8       __imp_?OnFinalRelease@CWnd@@UAEXXZ 100abdc8     mfc42d:MFC42D.DLL
 0004:00000dcc       __imp_?IsInvokeAllowed@CCmdTarget@@UAEHJ@Z 100abdcc     mfc42d:MFC42D.DLL
 0004:00000dd0       __imp_?GetDispatchIID@CCmdTarget@@UAEHPAU_GUID@@@Z 100abdd0     mfc42d:MFC42D.DLL
 0004:00000dd4       __imp_?GetTypeInfoCount@CCmdTarget@@UAEIXZ 100abdd4     mfc42d:MFC42D.DLL
 0004:00000dd8       __imp_?GetTypeLibCache@CCmdTarget@@UAEPAVCTypeLibCache@@XZ 100abdd8     mfc42d:MFC42D.DLL
 0004:00000ddc       __imp_?GetTypeLib@CCmdTarget@@UAEJKPAPAUITypeLib@@@Z 100abddc     mfc42d:MFC42D.DLL
 0004:00000de0       __imp_?GetCommandMap@CCmdTarget@@MBEPBUAFX_OLECMDMAP@@XZ 100abde0     mfc42d:MFC42D.DLL
 0004:00000de4       __imp_?GetDispatchMap@CCmdTarget@@MBEPBUAFX_DISPMAP@@XZ 100abde4     mfc42d:MFC42D.DLL
 0004:00000de8       __imp_?GetConnectionMap@CCmdTarget@@MBEPBUAFX_CONNECTIONMAP@@XZ 100abde8     mfc42d:MFC42D.DLL
 0004:00000dec       __imp_?GetInterfaceMap@CCmdTarget@@MBEPBUAFX_INTERFACEMAP@@XZ 100abdec     mfc42d:MFC42D.DLL
 0004:00000df0       __imp_?GetEventSinkMap@CCmdTarget@@MBEPBUAFX_EVENTSINKMAP@@XZ 100abdf0     mfc42d:MFC42D.DLL
 0004:00000df4       __imp_?OnCreateAggregates@CCmdTarget@@UAEHXZ 100abdf4     mfc42d:MFC42D.DLL
 0004:00000df8       __imp_?GetInterfaceHook@CCmdTarget@@UAEPAUIUnknown@@PBX@Z 100abdf8     mfc42d:MFC42D.DLL
 0004:00000dfc       __imp_?GetExtraConnectionPoints@CCmdTarget@@MAEHPAVCPtrArray@@@Z 100abdfc     mfc42d:MFC42D.DLL
 0004:00000e00       __imp_?GetConnectionHook@CCmdTarget@@MAEPAUIConnectionPoint@@ABU_GUID@@@Z 100abe00     mfc42d:MFC42D.DLL
 0004:00000e04       __imp_?PreSubclassWindow@CWnd@@UAEXXZ 100abe04     mfc42d:MFC42D.DLL
 0004:00000e08       __imp_?Create@CWnd@@UAEHPBD0KABUtagRECT@@PAV1@IPAUCCreateContext@@@Z 100abe08     mfc42d:MFC42D.DLL
 0004:00000e0c       __imp_?DestroyWindow@CWnd@@UAEHXZ 100abe0c     mfc42d:MFC42D.DLL
 0004:00000e10       __imp_?PreCreateWindow@CWnd@@UAEHAAUtagCREATESTRUCTA@@@Z 100abe10     mfc42d:MFC42D.DLL
 0004:00000e14       __imp_?DDX_CBString@@YGXPAVCDataExchange@@HAAVCString@@@Z 100abe14     mfc42d:MFC42D.DLL
 0004:00000e18       __imp_?OnToolHitTest@CWnd@@UBEHVCPoint@@PAUtagTOOLINFOA@@@Z 100abe18     mfc42d:MFC42D.DLL
 0004:00000e1c       __imp_?GetScrollBarCtrl@CWnd@@UBEPAVCScrollBar@@H@Z 100abe1c     mfc42d:MFC42D.DLL
 0004:00000e20       __imp_?WinHelpA@CWnd@@UAEXKI@Z 100abe20     mfc42d:MFC42D.DLL
 0004:00000e24       __imp_?ContinueModal@CWnd@@UAEHXZ 100abe24     mfc42d:MFC42D.DLL
 0004:00000e28       __imp_?EndModalLoop@CWnd@@UAEXH@Z 100abe28     mfc42d:MFC42D.DLL
 0004:00000e2c       __imp_?OnCommand@CWnd@@MAEHIJ@Z 100abe2c     mfc42d:MFC42D.DLL
 0004:00000e30       __imp_?OnNotify@CWnd@@MAEHIJPAJ@Z 100abe30     mfc42d:MFC42D.DLL
 0004:00000e34       __imp_?GetSuperWndProcAddr@CWnd@@MAEPAP6GJPAUHWND__@@IIJ@ZXZ 100abe34     mfc42d:MFC42D.DLL
 0004:00000e38       __imp_?BeginModalState@CWnd@@UAEXXZ 100abe38     mfc42d:MFC42D.DLL
 0004:00000e3c       __imp_?EndModalState@CWnd@@UAEXXZ 100abe3c     mfc42d:MFC42D.DLL
 0004:00000e40       __imp_?PreTranslateMessage@CDialog@@UAEHPAUtagMSG@@@Z 100abe40     mfc42d:MFC42D.DLL
 0004:00000e44       __imp_?OnAmbientProperty@CWnd@@UAEHPAVCOleControlSite@@JPAUtagVARIANT@@@Z 100abe44     mfc42d:MFC42D.DLL
 0004:00000e48       __imp_?WindowProc@CWnd@@MAEJIIJ@Z 100abe48     mfc42d:MFC42D.DLL
 0004:00000e4c       __imp_?OnWndMsg@CWnd@@MAEHIIJPAJ@Z 100abe4c     mfc42d:MFC42D.DLL
 0004:00000e50       __imp_?DefWindowProcA@CWnd@@MAEJIIJ@Z 100abe50     mfc42d:MFC42D.DLL
 0004:00000e54       __imp_?PostNcDestroy@CWnd@@MAEXXZ 100abe54     mfc42d:MFC42D.DLL
 0004:00000e58       __imp_?OnChildNotify@CWnd@@MAEHIIJPAJ@Z 100abe58     mfc42d:MFC42D.DLL
 0004:00000e5c       __imp_?CheckAutoCenter@CDialog@@UAEHXZ 100abe5c     mfc42d:MFC42D.DLL
 0004:00000e60       __imp_?AfxGetApp@@YGPAVCWinApp@@XZ 100abe60     mfc42d:MFC42D.DLL
 0004:00000e64       __imp_?AddString@CComboBox@@QAEHPBD@Z 100abe64     mfc42d:MFC42D.DLL
 0004:00000e68       __imp_?ResetContent@CComboBox@@QAEXXZ 100abe68     mfc42d:MFC42D.DLL
 0004:00000e6c       __imp_??2@YAPAXI@Z         100abe6c     mfc42d:MFC42D.DLL
 0004:00000e70       __imp_?SetCurSel@CComboBox@@QAEHH@Z 100abe70     mfc42d:MFC42D.DLL
 0004:00000e74       __imp_?AfxMessageBox@@YGHPBDII@Z 100abe74     mfc42d:MFC42D.DLL
 0004:00000e78       __imp_??0CDialog@@QAE@XZ   100abe78     mfc42d:MFC42D.DLL
 0004:00000e7c       __imp_?SetCheck@CButton@@QAEXH@Z 100abe7c     mfc42d:MFC42D.DLL
 0004:00000e80       __imp_?Create@CDialog@@QAEHIPAVCWnd@@@Z 100abe80     mfc42d:MFC42D.DLL
 0004:00000e84       __imp_?AfxSetResourceHandle@@YGXPAUHINSTANCE__@@@Z 100abe84     mfc42d:MFC42D.DLL
 0004:00000e88       __imp_?AfxGetResourceHandle@@YGPAUHINSTANCE__@@XZ 100abe88     mfc42d:MFC42D.DLL
 0004:00000e8c       __imp_?AfxTrace@@YAXPBDZZ  100abe8c     mfc42d:MFC42D.DLL
 0004:00000e90       __imp_?LoadStringA@CString@@QAEHI@Z 100abe90     mfc42d:MFC42D.DLL
 0004:00000e94       __imp_?SendMessageA@CWnd@@QAEJIIJ@Z 100abe94     mfc42d:MFC42D.DLL
 0004:00000e98       __imp_?GetCurSel@CComboBox@@QBEHXZ 100abe98     mfc42d:MFC42D.DLL
 0004:00000e9c       __imp_?GetRuntimeClass@CObject@@UBEPAUCRuntimeClass@@XZ 100abe9c     mfc42d:MFC42D.DLL
 0004:00000ea0       __imp_?AfxAssertFailedLine@@YGHPBDH@Z 100abea0     mfc42d:MFC42D.DLL
 0004:00000ea4       __imp_?ReadCount@CArchive@@QAEKXZ 100abea4     mfc42d:MFC42D.DLL
 0004:00000ea8       __imp_?AfxIsValidAddress@@YGHPBXIH@Z 100abea8     mfc42d:MFC42D.DLL
 0004:00000eac       __imp_?WriteCount@CArchive@@QAEXK@Z 100abeac     mfc42d:MFC42D.DLL
 0004:00000eb0       __imp_?IsStoring@CArchive@@QBEHXZ 100abeb0     mfc42d:MFC42D.DLL
 0004:00000eb4       __imp_?AfxAssertValidObject@@YGXPBVCObject@@PBDH@Z 100abeb4     mfc42d:MFC42D.DLL
 0004:00000eb8       __imp_?GetDepth@CDumpContext@@QBEHXZ 100abeb8     mfc42d:MFC42D.DLL
 0004:00000ebc       __imp_??6CDumpContext@@QAEAAV0@H@Z 100abebc     mfc42d:MFC42D.DLL
 0004:00000ec0       __imp_??6CDumpContext@@QAEAAV0@PBD@Z 100abec0     mfc42d:MFC42D.DLL
 0004:00000ec4       __imp_?FreeDataChain@CPlex@@QAEXXZ 100abec4     mfc42d:MFC42D.DLL
 0004:00000ec8       __imp_?IsFrameWnd@CWnd@@UBEHXZ 100abec8     mfc42d:MFC42D.DLL
 0004:00000ecc       __imp_?SetOccDialogInfo@CDialog@@MAEHPAU_AFX_OCC_DIALOG_INFO@@@Z 100abecc     mfc42d:MFC42D.DLL
 0004:00000ed0       __imp_?DoModal@CDialog@@UAEHXZ 100abed0     mfc42d:MFC42D.DLL
 0004:00000ed4       __imp_?OnSetFont@CDialog@@UAEXPAVCFont@@@Z 100abed4     mfc42d:MFC42D.DLL
 0004:00000ed8       __imp_?OnOK@CDialog@@MAEXXZ 100abed8     mfc42d:MFC42D.DLL
 0004:00000edc       __imp_?PreInitDialog@CDialog@@MAEXXZ 100abedc     mfc42d:MFC42D.DLL
 0004:00000ee0       __imp_??0CString@@QAE@PBD@Z 100abee0     mfc42d:MFC42D.DLL
 0004:00000ee4       __imp_??1CString@@QAE@XZ   100abee4     mfc42d:MFC42D.DLL
 0004:00000ee8       __imp_??1CDialog@@UAE@XZ   100abee8     mfc42d:MFC42D.DLL
 0004:00000eec       __imp_??3@YAXPAXPBDH@Z     100abeec     mfc42d:MFC42D.DLL
 0004:00000ef0       __imp_?GetTail@CObList@@QAEAAPAVCObject@@XZ 100abef0     mfc42d:MFC42D.DLL
 0004:00000ef4       __imp_?ReleaseBuffer@CString@@QAEXH@Z 100abef4     mfc42d:MFC42D.DLL
 0004:00000ef8       __imp_?GetBuffer@CString@@QAEPADH@Z 100abef8     mfc42d:MFC42D.DLL
 0004:00000efc       __imp_??2@YAPAXIPBDH@Z     100abefc     mfc42d:MFC42D.DLL
 0004:00000f00       __imp_??8@YG_NABVCString@@0@Z 100abf00     mfc42d:MFC42D.DLL
 0004:00000f04       __imp_?RemoveAt@CObList@@QAEXPAU__POSITION@@@Z 100abf04     mfc42d:MFC42D.DLL
 0004:00000f08       __imp_?GetAt@CObList@@QAEAAPAVCObject@@PAU__POSITION@@@Z 100abf08     mfc42d:MFC42D.DLL
 0004:00000f0c       __imp_?FindIndex@CObList@@QBEPAU__POSITION@@H@Z 100abf0c     mfc42d:MFC42D.DLL
 0004:00000f10       __imp_?RemoveAll@CObList@@QAEXXZ 100abf10     mfc42d:MFC42D.DLL
 0004:00000f14       __imp_??0CObject@@IAE@XZ   100abf14     mfc42d:MFC42D.DLL
 0004:00000f18       __imp_?AfxGetModuleState@@YGPAVAFX_MODULE_STATE@@XZ 100abf18     mfc42d:MFC42D.DLL
 0004:00000f1c       __imp_??0CDynLinkLibrary@@QAE@AAUAFX_EXTENSION_MODULE@@H@Z 100abf1c     mfc42d:MFC42D.DLL
 0004:00000f20       __imp_?AfxInitExtensionModule@@YGHAAUAFX_EXTENSION_MODULE@@PAUHINSTANCE__@@@Z 100abf20     mfc42d:MFC42D.DLL
 0004:00000f24       __imp_?classCObject@CObject@@2UCRuntimeClass@@B 100abf24     mfc42d:MFC42D.DLL
 0004:00000f28       __imp_?AddTail@CObList@@QAEXPAV1@@Z 100abf28     mfc42d:MFC42D.DLL
 0004:00000f2c       __imp_??YCString@@QAEABV0@PBD@Z 100abf2c     mfc42d:MFC42D.DLL
 0004:00000f30       __imp_?GetHead@CObList@@QAEAAPAVCObject@@XZ 100abf30     mfc42d:MFC42D.DLL
 0004:00000f34       __imp_?AddTail@CObList@@QAEPAU__POSITION@@PAVCObject@@@Z 100abf34     mfc42d:MFC42D.DLL
 0004:00000f38       __imp_?RemoveTail@CObList@@QAEPAVCObject@@XZ 100abf38     mfc42d:MFC42D.DLL
 0004:00000f3c       __imp_??H@YG?AVCString@@ABV0@0@Z 100abf3c     mfc42d:MFC42D.DLL
 0004:00000f40       __imp_??H@YG?AVCString@@ABV0@PBD@Z 100abf40     mfc42d:MFC42D.DLL
 0004:00000f44       __imp_?GetNext@CObList@@QAEAAPAVCObject@@AAPAU__POSITION@@@Z 100abf44     mfc42d:MFC42D.DLL
 0004:00000f48       __imp_?AfxGetMainWnd@@YGPAVCWnd@@XZ 100abf48     mfc42d:MFC42D.DLL
 0004:00000f4c       __imp_?UpdateWindow@CWnd@@QAEXXZ 100abf4c     mfc42d:MFC42D.DLL
 0004:00000f50       __imp_?Invalidate@CWnd@@QAEXH@Z 100abf50     mfc42d:MFC42D.DLL
 0004:00000f54       __imp_?Read@CArchive@@QAEIPAXI@Z 100abf54     mfc42d:MFC42D.DLL
 0004:00000f58       __imp_?Write@CArchive@@QAEXPBXI@Z 100abf58     mfc42d:MFC42D.DLL
 0004:00000f5c       __imp_?Create@CPlex@@SGPAU1@AAPAU1@II@Z 100abf5c     mfc42d:MFC42D.DLL
 0004:00000f60       __imp_??2CObject@@SGPAXI@Z 100abf60     mfc42d:MFC42D.DLL
 0004:00000f64       __imp_?AfxClassInit@@YGXPAUCRuntimeClass@@@Z 100abf64     mfc42d:MFC42D.DLL
 0004:00000f68       __imp_?ReadObject@CArchive@@QAEPAVCObject@@PBUCRuntimeClass@@@Z 100abf68     mfc42d:MFC42D.DLL
 0004:00000f6c       __imp_?GetCount@CObList@@QBEHXZ 100abf6c     mfc42d:MFC42D.DLL
 0004:00000f70       __imp_?IsEmpty@CObList@@QBEHXZ 100abf70     mfc42d:MFC42D.DLL
 0004:00000f74       __imp_??3CObject@@SGXPAXPBDH@Z 100abf74     mfc42d:MFC42D.DLL
 0004:00000f78       __imp_??2CObject@@SGPAXIPBDH@Z 100abf78     mfc42d:MFC42D.DLL
 0004:00000f7c       __imp_?CalcWindowRect@CWnd@@UAEXPAUtagRECT@@I@Z 100abf7c     mfc42d:MFC42D.DLL
 0004:00000f80       __imp_??9@YG_NABVCString@@PBD@Z 100abf80     mfc42d:MFC42D.DLL
 0004:00000f84       __imp_?Dump@CDialog@@UBEXAAVCDumpContext@@@Z 100abf84     mfc42d:MFC42D.DLL
 0004:00000f88       \177MFC42D_NULL_THUNK_DATA 100abf88     mfc42d:MFC42D.DLL
 0004:00001028       __imp_??0CMI_GangN@@QAE@XZ 100ac028     MNod_D32:MNod_D32.dll
 0004:0000102c       __imp_??1CMI_GangN@@UAE@XZ 100ac02c     MNod_D32:MNod_D32.dll
 0004:00001030       __imp_?CreateNode@CMI_GangN@@QAEPAVCDrNode@@AAVCString@@PAVCDrLabel@@UWORLD@@HHAAH3I@Z 100ac030     MNod_D32:MNod_D32.dll
 0004:00001034       \177MNod_D32_NULL_THUNK_DATA 100ac034     MNod_D32:MNod_D32.dll
 0004:00001060       __imp_?GoDoIt@CMP_CooP3@@QAEHHAAVCString@@PAVCDrPatch@@PAVCDListMgr@@PAV?$CList@W4CURVELATCH@@W41@@@@Z 100ac060     MPat_D32:MPat_D32.dll
 0004:00001064       __imp_??0CMP_CooP3@@QAE@XZ 100ac064     MPat_D32:MPat_D32.dll
 0004:00001068       __imp_?FillMeshNormalsPatch@CMI_GangP@@QAEHPAVCDrPatch@@PAUWORLD@@@Z 100ac068     MPat_D32:MPat_D32.dll
 0004:0000106c       __imp_??1CMP_CooP3@@UAE@XZ 100ac06c     MPat_D32:MPat_D32.dll
 0004:00001070       __imp_??0CMP_CooP4@@QAE@XZ 100ac070     MPat_D32:MPat_D32.dll
 0004:00001074       __imp_?GoDoIt@CMP_CooP4@@QAEHHAAVCString@@PAVCDrPatch@@PAVCDListMgr@@PAV?$CList@W4CURVELATCH@@W41@@@@Z 100ac074     MPat_D32:MPat_D32.dll
 0004:00001078       __imp_??1CMP_CooP4@@UAE@XZ 100ac078     MPat_D32:MPat_D32.dll
 0004:0000107c       __imp_??0CMP_Sweep@@QAE@XZ 100ac07c     MPat_D32:MPat_D32.dll
 0004:00001080       __imp_?GoDoIt@CMP_Sweep@@QAEHHHHAAVCString@@PAVCDrPatch@@PAVCDListMgr@@2PAV?$CList@W4CURVELATCH@@W41@@@PAV?$CList@NN@@NHN4NHNPAVCView@@@Z 100ac080     MPat_D32:MPat_D32.dll
 0004:00001084       __imp_??1CMP_Sweep@@UAE@XZ 100ac084     MPat_D32:MPat_D32.dll
 0004:00001088       __imp_??0CMP_Duct@@QAE@XZ  100ac088     MPat_D32:MPat_D32.dll
 0004:0000108c       __imp_?GoDoIt@CMP_Duct@@QAEHHHAAVCString@@PAVCDrPatch@@PAVCDListMgr@@2PAV?$CList@W4CURVELATCH@@W41@@@PAV?$CList@NN@@NHNPAVCView@@@Z 100ac08c     MPat_D32:MPat_D32.dll
 0004:00001090       __imp_??1CMP_Duct@@UAE@XZ  100ac090     MPat_D32:MPat_D32.dll
 0004:00001094       __imp_??0CMP_Xtrud@@QAE@XZ 100ac094     MPat_D32:MPat_D32.dll
 0004:00001098       __imp_?GoDoIt@CMP_Xtrud@@QAEHHHAAVCString@@PAVCDrPatch@@PAVCDListMgr@@2PAV?$CList@W4CURVELATCH@@W41@@@AAV?$CList@HH@@UWORLD@@NNPAVCView@@@Z 100ac098     MPat_D32:MPat_D32.dll
 0004:0000109c       __imp_?FillMeshTangentsPatch@CMI_GangP@@QAEHPAVCDrPatch@@PAUWORLD@@1@Z 100ac09c     MPat_D32:MPat_D32.dll
 0004:000010a0       __imp_?FillMeshNodesPatch@CMI_GangP@@QAEHPAVCDrPatch@@PAUWORLD@@PAN@Z 100ac0a0     MPat_D32:MPat_D32.dll
 0004:000010a4       __imp_??1CMP_Xtrud@@UAE@XZ 100ac0a4     MPat_D32:MPat_D32.dll
 0004:000010a8       \177MPat_D32_NULL_THUNK_DATA 100ac0a8     MPat_D32:MPat_D32.dll
 0004:000010e0       __imp___adjust_fdiv        100ac0e0     msvcrtd:MSVCRTD.dll
 0004:000010e4       __imp___malloc_dbg         100ac0e4     msvcrtd:MSVCRTD.dll
 0004:000010e8       __imp___initterm           100ac0e8     msvcrtd:MSVCRTD.dll
 0004:000010ec       __imp___free_dbg           100ac0ec     msvcrtd:MSVCRTD.dll
 0004:000010f0       __imp_?terminate@@YAXXZ    100ac0f0     msvcrtd:MSVCRTD.dll
 0004:000010f4       __imp___except_handler3    100ac0f4     msvcrtd:MSVCRTD.dll
 0004:000010f8       __imp___onexit             100ac0f8     msvcrtd:MSVCRTD.dll
 0004:000010fc       __imp____dllonexit         100ac0fc     msvcrtd:MSVCRTD.dll
 0004:00001100       __imp___ftol               100ac100     msvcrtd:MSVCRTD.dll
 0004:00001104       __imp__sprintf             100ac104     msvcrtd:MSVCRTD.dll
 0004:00001108       __imp__fabs                100ac108     msvcrtd:MSVCRTD.dll
 0004:0000110c       __imp__memset              100ac10c     msvcrtd:MSVCRTD.dll
 0004:00001110       __imp__sqrt                100ac110     msvcrtd:MSVCRTD.dll
 0004:00001114       __imp____CxxFrameHandler   100ac114     msvcrtd:MSVCRTD.dll
 0004:00001118       \177MSVCRTD_NULL_THUNK_DATA 100ac118     msvcrtd:MSVCRTD.dll
 0004:0000114c       __imp_??1CMI_GangS@@UAE@XZ 100ac14c     MSol_d32:MSol_D32.dll
 0004:00001150       __imp_??0CMI_GangS@@QAE@XZ 100ac150     MSol_d32:MSol_D32.dll
 0004:00001154       __imp_?Serialize@CMI_GangS@@UAEXAAVCArchive@@@Z 100ac154     MSol_d32:MSol_D32.dll
 0004:00001158       __imp_?classCMI_GangS@CMI_GangS@@2UCRuntimeClass@@A 100ac158     MSol_d32:MSol_D32.dll
 0004:0000115c       \177MSol_D32_NULL_THUNK_DATA 100ac15c     MSol_d32:MSol_D32.dll
 0004:00001188       __imp_?Get_Tan_N_NorAtaNode_3@CDrPatch@@QAEHUWORLD@@AAU2@11N@Z 100ac188     OGen_D32:OGEN_D32.dll
 0004:0000118c       __imp_?Get_Tan_N_NorAtaNode_4@CDrPatch@@QAEHUWORLD@@AAU2@11N@Z 100ac18c     OGen_D32:OGEN_D32.dll
 0004:00001190       __imp_?GetRuntimeClass@CTriangle@@UBEPAUCRuntimeClass@@XZ 100ac190     OGen_D32:OGEN_D32.dll
 0004:00001194       __imp_?Get_TangentAtaNode@CDrCurve@@QAEHUWORLD@@AAU2@N@Z 100ac194     OGen_D32:OGEN_D32.dll
 0004:00001198       \177OGEN_D32_NULL_THUNK_DATA 100ac198     OGen_D32:OGEN_D32.dll
 0004:000011c4       __imp_?ShowObject_On_Off@CObjectMgr@@QAEHPAVCDrObject@@IH@Z 100ac1c4     OMgr_D32:OMgr_D32.dll
 0004:000011c8       __imp_?GetSpecObject@CObjectMgr@@QAEPAVCDrObject@@H@Z 100ac1c8     OMgr_D32:OMgr_D32.dll
 0004:000011cc       __imp_?GetObjectIndexfromKey@CObjectMgr@@QAEHHVCString@@I@Z 100ac1cc     OMgr_D32:OMgr_D32.dll
 0004:000011d0       \177OMgr_D32_NULL_THUNK_DATA 100ac1d0     OMgr_D32:OMgr_D32.dll
 0004:000011fc       __imp_??0CDListMgr@@QAE@XZ 100ac1fc     Spec_d32:Spec_D32.dll
 0004:00001200       __imp_?GetObjectIndex@CDListMgr@@QAEHPAVCObject@@@Z 100ac200     Spec_d32:Spec_D32.dll
 0004:00001204       __imp_?GetObjectIndex@CDListMgr@@QAEHIVCString@@@Z 100ac204     Spec_d32:Spec_D32.dll
 0004:00001208       __imp_?GetObjectA@CDListMgr@@QAEPAVCObject@@H@Z 100ac208     Spec_d32:Spec_D32.dll
 0004:0000120c       __imp_?InsertObject@CDListMgr@@QAEHPAVCObject@@@Z 100ac20c     Spec_d32:Spec_D32.dll
 0004:00001210       __imp_?GetFirstObjectPos@CDListMgr@@QAEPAU__POSITION@@XZ 100ac210     Spec_d32:Spec_D32.dll
 0004:00001214       __imp_?GetNextObject@CDListMgr@@QAEPAVCObject@@AAPAU__POSITION@@@Z 100ac214     Spec_d32:Spec_D32.dll
 0004:00001218       __imp_?GetSpecificObjectCount@CDListMgr@@QAEHH@Z 100ac218     Spec_d32:Spec_D32.dll
 0004:0000121c       __imp_??1CDListMgr@@UAE@XZ 100ac21c     Spec_d32:Spec_D32.dll
 0004:00001220       __imp_?GetRuntimeClass@CUnit@@UBEPAUCRuntimeClass@@XZ 100ac220     Spec_d32:Spec_D32.dll
 0004:00001224       __imp_?Serialize@CUnit@@UAEXAAVCArchive@@@Z 100ac224     Spec_d32:Spec_D32.dll
 0004:00001228       __imp_?DoDataView@CUnit@@UAEXPAVCDC@@H@Z 100ac228     Spec_d32:Spec_D32.dll
 0004:0000122c       __imp_?Pack_drPipe@CUnit@@UAEXPAVCString@@@Z 100ac22c     Spec_d32:Spec_D32.dll
 0004:00001230       __imp_?GetObjectInfo@CUnit@@UAEXPAVCDrObject@@@Z 100ac230     Spec_d32:Spec_D32.dll
 0004:00001234       __imp_?SetObjectInfo@CUnit@@UAEXPAVCDrObject@@@Z 100ac234     Spec_d32:Spec_D32.dll
 0004:00001238       __imp_?ReadDefaultUnit@CUnit@@UAEXXZ 100ac238     Spec_d32:Spec_D32.dll
 0004:0000123c       __imp_?InitUnit@CUnit@@UAEXXZ 100ac23c     Spec_d32:Spec_D32.dll
 0004:00001240       __imp_?GetRuntimeClass@CScaleFactor@@UBEPAUCRuntimeClass@@XZ 100ac240     Spec_d32:Spec_D32.dll
 0004:00001244       __imp_?Serialize@CScaleFactor@@UAEXAAVCArchive@@@Z 100ac244     Spec_d32:Spec_D32.dll
 0004:00001248       __imp_?DoDataView@CScaleFactor@@UAEXPAVCDC@@H@Z 100ac248     Spec_d32:Spec_D32.dll
 0004:0000124c       __imp_?Pack_drPipe@CScaleFactor@@UAEXPAVCString@@@Z 100ac24c     Spec_d32:Spec_D32.dll
 0004:00001250       __imp_?GetObjectInfo@CScaleFactor@@UAEXPAVCDrObject@@@Z 100ac250     Spec_d32:Spec_D32.dll
 0004:00001254       __imp_?SetObjectInfo@CScaleFactor@@UAEXPAVCDrObject@@@Z 100ac254     Spec_d32:Spec_D32.dll
 0004:00001258       __imp_?ReadDefaultScaleFactor@CScaleFactor@@UAEXXZ 100ac258     Spec_d32:Spec_D32.dll
 0004:0000125c       __imp_?InitScaleFactor@CScaleFactor@@UAEXXZ 100ac25c     Spec_d32:Spec_D32.dll
 0004:00001260       __imp_?GetRuntimeClass@CPrecision@@UBEPAUCRuntimeClass@@XZ 100ac260     Spec_d32:Spec_D32.dll
 0004:00001264       __imp_?Serialize@CPrecision@@UAEXAAVCArchive@@@Z 100ac264     Spec_d32:Spec_D32.dll
 0004:00001268       __imp_?DoDataView@CPrecision@@UAEXPAVCDC@@H@Z 100ac268     Spec_d32:Spec_D32.dll
 0004:0000126c       __imp_?Pack_drPipe@CPrecision@@UAEXPAVCString@@@Z 100ac26c     Spec_d32:Spec_D32.dll
 0004:00001270       __imp_?GetObjectInfo@CPrecision@@UAEXPAVCDrObject@@@Z 100ac270     Spec_d32:Spec_D32.dll
 0004:00001274       __imp_?SetObjectInfo@CPrecision@@UAEXPAVCDrObject@@@Z 100ac274     Spec_d32:Spec_D32.dll
 0004:00001278       __imp_?ReadDefaultPrecision@CPrecision@@UAEXXZ 100ac278     Spec_d32:Spec_D32.dll
 0004:0000127c       __imp_?InitPrecision@CPrecision@@UAEXXZ 100ac27c     Spec_d32:Spec_D32.dll
 0004:00001280       __imp_?GetRuntimeClass@CMapFactor@@UBEPAUCRuntimeClass@@XZ 100ac280     Spec_d32:Spec_D32.dll
 0004:00001284       __imp_?Serialize@CMapFactor@@UAEXAAVCArchive@@@Z 100ac284     Spec_d32:Spec_D32.dll
 0004:00001288       __imp_?DoDataView@CMapFactor@@UAEXPAVCDC@@H@Z 100ac288     Spec_d32:Spec_D32.dll
 0004:0000128c       __imp_?Pack_drPipe@CMapFactor@@UAEXPAVCString@@@Z 100ac28c     Spec_d32:Spec_D32.dll
 0004:00001290       __imp_?GetObjectInfo@CMapFactor@@UAEXPAVCDrObject@@@Z 100ac290     Spec_d32:Spec_D32.dll
 0004:00001294       __imp_?SetObjectInfo@CMapFactor@@UAEXPAVCDrObject@@@Z 100ac294     Spec_d32:Spec_D32.dll
 0004:00001298       __imp_?ReadDefaultMapFactor@CMapFactor@@UAEXXZ 100ac298     Spec_d32:Spec_D32.dll
 0004:0000129c       __imp_?InitMapFactor@CMapFactor@@UAEXXZ 100ac29c     Spec_d32:Spec_D32.dll
 0004:000012a0       __imp_?GetRuntimeClass@CObj3DMnu@@UBEPAUCRuntimeClass@@XZ 100ac2a0     Spec_d32:Spec_D32.dll
 0004:000012a4       __imp_?Serialize@CObj3DMnu@@UAEXAAVCArchive@@@Z 100ac2a4     Spec_d32:Spec_D32.dll
 0004:000012a8       __imp_?DoDataView@CObj3DMnu@@UAEXPAVCDC@@H@Z 100ac2a8     Spec_d32:Spec_D32.dll
 0004:000012ac       __imp_?Pack_drPipe@CObj3DMnu@@UAEXPAVCString@@@Z 100ac2ac     Spec_d32:Spec_D32.dll
 0004:000012b0       __imp_?GetObjectInfo@CObj3DMnu@@UAEXPAVCDrObject@@@Z 100ac2b0     Spec_d32:Spec_D32.dll
 0004:000012b4       __imp_?SetObjectInfo@CObj3DMnu@@UAEXPAVCDrObject@@@Z 100ac2b4     Spec_d32:Spec_D32.dll
 0004:000012b8       __imp_?GetObj3DMnuInfo@CObj3DMnu@@UAE?AVCString@@I@Z 100ac2b8     Spec_d32:Spec_D32.dll
 0004:000012bc       __imp_?SetObj3DMnuInfo@CObj3DMnu@@UAEXII@Z 100ac2bc     Spec_d32:Spec_D32.dll
 0004:000012c0       __imp_?GetObj3DMnuIDArray@CObj3DMnu@@UAEXQAVCString@@@Z 100ac2c0     Spec_d32:Spec_D32.dll
 0004:000012c4       __imp_?SetObj3DMnuIDArray@CObj3DMnu@@UAEXQAVCString@@@Z 100ac2c4     Spec_d32:Spec_D32.dll
 0004:000012c8       __imp_?GetObj3DMnuArray@CObj3DMnu@@UAEXQAY01I@Z 100ac2c8     Spec_d32:Spec_D32.dll
 0004:000012cc       __imp_?SetObj3DMnuArray@CObj3DMnu@@UAEXQAY01I@Z 100ac2cc     Spec_d32:Spec_D32.dll
 0004:000012d0       __imp_?GetObj3DMnuOldArray@CObj3DMnu@@UAEXQAY01I@Z 100ac2d0     Spec_d32:Spec_D32.dll
 0004:000012d4       __imp_?SetObj3DMnuOldArray@CObj3DMnu@@UAEXQAY01I@Z 100ac2d4     Spec_d32:Spec_D32.dll
 0004:000012d8       __imp_?GetObj3DMnuDefaultArray@CObj3DMnu@@UAEXQAY01I@Z 100ac2d8     Spec_d32:Spec_D32.dll
 0004:000012dc       __imp_?SetObj3DMnuDefaultArray@CObj3DMnu@@UAEXQAY01I@Z 100ac2dc     Spec_d32:Spec_D32.dll
 0004:000012e0       __imp_?ReadDefaultObj3DMnu@CObj3DMnu@@UAEXXZ 100ac2e0     Spec_d32:Spec_D32.dll
 0004:000012e4       __imp_?InitObj3DMnu@CObj3DMnu@@UAEXXZ 100ac2e4     Spec_d32:Spec_D32.dll
 0004:000012e8       __imp_?GetRuntimeClass@CPatchMnu@@UBEPAUCRuntimeClass@@XZ 100ac2e8     Spec_d32:Spec_D32.dll
 0004:000012ec       __imp_?Serialize@CPatchMnu@@UAEXAAVCArchive@@@Z 100ac2ec     Spec_d32:Spec_D32.dll
 0004:000012f0       __imp_?DoDataView@CPatchMnu@@UAEXPAVCDC@@H@Z 100ac2f0     Spec_d32:Spec_D32.dll
 0004:000012f4       __imp_?Pack_drPipe@CPatchMnu@@UAEXPAVCString@@@Z 100ac2f4     Spec_d32:Spec_D32.dll
 0004:000012f8       __imp_?GetObjectInfo@CPatchMnu@@UAEXPAVCDrObject@@@Z 100ac2f8     Spec_d32:Spec_D32.dll
 0004:000012fc       __imp_?SetObjectInfo@CPatchMnu@@UAEXPAVCDrObject@@@Z 100ac2fc     Spec_d32:Spec_D32.dll
 0004:00001300       __imp_?GetPatchMnuInfo@CPatchMnu@@UAE?AVCString@@I@Z 100ac300     Spec_d32:Spec_D32.dll
 0004:00001304       __imp_?SetPatchMnuInfo@CPatchMnu@@UAEXII@Z 100ac304     Spec_d32:Spec_D32.dll
 0004:00001308       __imp_?GetPatchMnuIDArray@CPatchMnu@@UAEXQAVCString@@@Z 100ac308     Spec_d32:Spec_D32.dll
 0004:0000130c       __imp_?SetPatchMnuIDArray@CPatchMnu@@UAEXQAVCString@@@Z 100ac30c     Spec_d32:Spec_D32.dll
 0004:00001310       __imp_?GetRuntimeClass@CMatObj@@UBEPAUCRuntimeClass@@XZ 100ac310     Spec_d32:Spec_D32.dll
 0004:00001314       __imp_?SetPatchMnuArray@CPatchMnu@@UAEXQAY01I@Z 100ac314     Spec_d32:Spec_D32.dll
 0004:00001318       __imp_?GetPatchMnuOldArray@CPatchMnu@@UAEXQAY01I@Z 100ac318     Spec_d32:Spec_D32.dll
 0004:0000131c       __imp_?SetPatchMnuOldArray@CPatchMnu@@UAEXQAY01I@Z 100ac31c     Spec_d32:Spec_D32.dll
 0004:00001320       __imp_?GetPatchMnuDefaultArray@CPatchMnu@@UAEXQAY01I@Z 100ac320     Spec_d32:Spec_D32.dll
 0004:00001324       __imp_?SetPatchMnuDefaultArray@CPatchMnu@@UAEXQAY01I@Z 100ac324     Spec_d32:Spec_D32.dll
 0004:00001328       __imp_?ReadDefaultPatchMnu@CPatchMnu@@UAEXXZ 100ac328     Spec_d32:Spec_D32.dll
 0004:0000132c       __imp_?InitPatchMnu@CPatchMnu@@UAEXXZ 100ac32c     Spec_d32:Spec_D32.dll
 0004:00001330       __imp_?GetRuntimeClass@CLayer@@UBEPAUCRuntimeClass@@XZ 100ac330     Spec_d32:Spec_D32.dll
 0004:00001334       __imp_?Serialize@CLayer@@UAEXAAVCArchive@@@Z 100ac334     Spec_d32:Spec_D32.dll
 0004:00001338       __imp_?DoDataView@CLayer@@UAEXPAVCDC@@H@Z 100ac338     Spec_d32:Spec_D32.dll
 0004:0000133c       __imp_?Pack_drPipe@CLayer@@UAEXPAVCString@@@Z 100ac33c     Spec_d32:Spec_D32.dll
 0004:00001340       __imp_?GetObjectInfo@CLayer@@UAEXPAVCDrObject@@@Z 100ac340     Spec_d32:Spec_D32.dll
 0004:00001344       __imp_?SetObjectInfo@CLayer@@UAEXPAVCDrObject@@@Z 100ac344     Spec_d32:Spec_D32.dll
 0004:00001348       __imp_?GetLayerInfo@CLayer@@UAE?AVCString@@I@Z 100ac348     Spec_d32:Spec_D32.dll
 0004:0000134c       __imp_?SetLayerInfo@CLayer@@UAEXII@Z 100ac34c     Spec_d32:Spec_D32.dll
 0004:00001350       __imp_?GetLayerArray@CLayer@@UAEXQAY01I@Z 100ac350     Spec_d32:Spec_D32.dll
 0004:00001354       __imp_?SetLayerArray@CLayer@@UAEXQAY01I@Z 100ac354     Spec_d32:Spec_D32.dll
 0004:00001358       __imp_?GetLayerOldArray@CLayer@@UAEXQAY01I@Z 100ac358     Spec_d32:Spec_D32.dll
 0004:0000135c       __imp_?SetLayerOldArray@CLayer@@UAEXQAY01I@Z 100ac35c     Spec_d32:Spec_D32.dll
 0004:00001360       __imp_?GetLayerDefaultArray@CLayer@@UAEXQAY01I@Z 100ac360     Spec_d32:Spec_D32.dll
 0004:00001364       __imp_?SetLayerDefaultArray@CLayer@@UAEXQAY01I@Z 100ac364     Spec_d32:Spec_D32.dll
 0004:00001368       __imp_?ReadDefaultLayer@CLayer@@UAEXXZ 100ac368     Spec_d32:Spec_D32.dll
 0004:0000136c       __imp_?InitLayer@CLayer@@UAEXXZ 100ac36c     Spec_d32:Spec_D32.dll
 0004:00001370       __imp_?GetRuntimeClass@CHitNet@@UBEPAUCRuntimeClass@@XZ 100ac370     Spec_d32:Spec_D32.dll
 0004:00001374       __imp_?Serialize@CHitNet@@UAEXAAVCArchive@@@Z 100ac374     Spec_d32:Spec_D32.dll
 0004:00001378       __imp_?DoDataView@CHitNet@@UAEXPAVCDC@@H@Z 100ac378     Spec_d32:Spec_D32.dll
 0004:0000137c       __imp_?Pack_drPipe@CHitNet@@UAEXPAVCString@@@Z 100ac37c     Spec_d32:Spec_D32.dll
 0004:00001380       __imp_?GetObjectInfo@CHitNet@@UAEXPAVCDrObject@@@Z 100ac380     Spec_d32:Spec_D32.dll
 0004:00001384       __imp_?SetObjectInfo@CHitNet@@UAEXPAVCDrObject@@@Z 100ac384     Spec_d32:Spec_D32.dll
 0004:00001388       __imp_?GetRuntimeClass@CDrPen@@UBEPAUCRuntimeClass@@XZ 100ac388     Spec_d32:Spec_D32.dll
 0004:0000138c       __imp_?Serialize@CDrPen@@UAEXAAVCArchive@@@Z 100ac38c     Spec_d32:Spec_D32.dll
 0004:00001390       __imp_?DoDataView@CDrPen@@UAEXPAVCDC@@H@Z 100ac390     Spec_d32:Spec_D32.dll
 0004:00001394       __imp_?Pack_drPipe@CDrPen@@UAEXPAVCString@@@Z 100ac394     Spec_d32:Spec_D32.dll
 0004:00001398       __imp_?GetObjectInfo@CDrPen@@UAEXPAVCDrObject@@@Z 100ac398     Spec_d32:Spec_D32.dll
 0004:0000139c       __imp_?SetObjectInfo@CDrPen@@UAEXPAVCDrObject@@@Z 100ac39c     Spec_d32:Spec_D32.dll
 0004:000013a0       __imp_?ReplacePen@CDrPen@@UAEXXZ 100ac3a0     Spec_d32:Spec_D32.dll
 0004:000013a4       __imp_?ReadDefaultDrPen@CDrPen@@UAEXXZ 100ac3a4     Spec_d32:Spec_D32.dll
 0004:000013a8       __imp_?InitDrPen@CDrPen@@UAEXXZ 100ac3a8     Spec_d32:Spec_D32.dll
 0004:000013ac       __imp_?GetRuntimeClass@CDrFont@@UBEPAUCRuntimeClass@@XZ 100ac3ac     Spec_d32:Spec_D32.dll
 0004:000013b0       __imp_?Serialize@CDrFont@@UAEXAAVCArchive@@@Z 100ac3b0     Spec_d32:Spec_D32.dll
 0004:000013b4       __imp_?DoDataView@CDrFont@@UAEXPAVCDC@@H@Z 100ac3b4     Spec_d32:Spec_D32.dll
 0004:000013b8       __imp_?Pack_drPipe@CDrFont@@UAEXPAVCString@@@Z 100ac3b8     Spec_d32:Spec_D32.dll
 0004:000013bc       __imp_?GetObjectInfo@CDrFont@@UAEXPAVCDrObject@@@Z 100ac3bc     Spec_d32:Spec_D32.dll
 0004:000013c0       __imp_?SetObjectInfo@CDrFont@@UAEXPAVCDrObject@@@Z 100ac3c0     Spec_d32:Spec_D32.dll
 0004:000013c4       __imp_?DoTextFont@CDrFont@@UAEXXZ 100ac3c4     Spec_d32:Spec_D32.dll
 0004:000013c8       __imp_?ReadDefaultDrFont@CDrFont@@UAEXXZ 100ac3c8     Spec_d32:Spec_D32.dll
 0004:000013cc       __imp_?InitDrFont@CDrFont@@UAEXXZ 100ac3cc     Spec_d32:Spec_D32.dll
 0004:000013d0       __imp_?GetRuntimeClass@CDataWindow@@UBEPAUCRuntimeClass@@XZ 100ac3d0     Spec_d32:Spec_D32.dll
 0004:000013d4       __imp_?Serialize@CDataWindow@@UAEXAAVCArchive@@@Z 100ac3d4     Spec_d32:Spec_D32.dll
 0004:000013d8       __imp_?DoDataView@CDataWindow@@UAEXPAVCDC@@H@Z 100ac3d8     Spec_d32:Spec_D32.dll
 0004:000013dc       __imp_?Pack_drPipe@CDataWindow@@UAEXPAVCString@@@Z 100ac3dc     Spec_d32:Spec_D32.dll
 0004:000013e0       __imp_?GetObjectInfo@CDataWindow@@UAEXPAVCDrObject@@@Z 100ac3e0     Spec_d32:Spec_D32.dll
 0004:000013e4       __imp_?SetObjectInfo@CDataWindow@@UAEXPAVCDrObject@@@Z 100ac3e4     Spec_d32:Spec_D32.dll
 0004:000013e8       __imp_?SetWinMinMaxWIC@CDataWindow@@UAEXULPOINT3@@@Z 100ac3e8     Spec_d32:Spec_D32.dll
 0004:000013ec       __imp_?SetWinExtWIC@CDataWindow@@UAEXXZ 100ac3ec     Spec_d32:Spec_D32.dll
 0004:000013f0       __imp_?ReadDefaultDataWindow@CDataWindow@@UAEXXZ 100ac3f0     Spec_d32:Spec_D32.dll
 0004:000013f4       __imp_?InitDataWindow@CDataWindow@@UAEXXZ 100ac3f4     Spec_d32:Spec_D32.dll
 0004:000013f8       __imp_??1CDrObject@@UAE@XZ 100ac3f8     Spec_d32:Spec_D32.dll
 0004:000013fc       __imp_?GetRuntimeClass@CBooleans@@UBEPAUCRuntimeClass@@XZ 100ac3fc     Spec_d32:Spec_D32.dll
 0004:00001400       __imp_?Serialize@CBooleans@@UAEXAAVCArchive@@@Z 100ac400     Spec_d32:Spec_D32.dll
 0004:00001404       __imp_?DoDataView@CBooleans@@UAEXPAVCDC@@H@Z 100ac404     Spec_d32:Spec_D32.dll
 0004:00001408       __imp_?GetLocalCorner@CDrObject@@UAEXPAUWORLD@@H@Z 100ac408     Spec_d32:Spec_D32.dll
 0004:0000140c       __imp_?SetLocalCorner@CDrObject@@UAEXPAUWORLD@@H@Z 100ac40c     Spec_d32:Spec_D32.dll
 0004:00001410       __imp_?GetWorldCorner@CDrObject@@UAEXPAUWORLD@@H@Z 100ac410     Spec_d32:Spec_D32.dll
 0004:00001414       __imp_?SetWorldCorner@CDrObject@@UAEXPAUWORLD@@H@Z 100ac414     Spec_d32:Spec_D32.dll
 0004:00001418       __imp_?GetEyeCorner@CDrObject@@UAEXPAUWORLD@@H@Z 100ac418     Spec_d32:Spec_D32.dll
 0004:0000141c       __imp_?SetEyeCorner@CDrObject@@UAEXPAUWORLD@@H@Z 100ac41c     Spec_d32:Spec_D32.dll
 0004:00001420       __imp_?GetScreen3DCorner@CDrObject@@UAEXPAUWORLD@@H@Z 100ac420     Spec_d32:Spec_D32.dll
 0004:00001424       __imp_?SetScreen3DCorner@CDrObject@@UAEXPAUWORLD@@H@Z 100ac424     Spec_d32:Spec_D32.dll
 0004:00001428       __imp_?Pack_drPipe@CBooleans@@UAEXPAVCString@@@Z 100ac428     Spec_d32:Spec_D32.dll
 0004:0000142c       __imp_?GetObjectInfo@CBooleans@@UAEXPAVCDrObject@@@Z 100ac42c     Spec_d32:Spec_D32.dll
 0004:00001430       __imp_?SetObjectInfo@CBooleans@@UAEXPAVCDrObject@@@Z 100ac430     Spec_d32:Spec_D32.dll
 0004:00001434       __imp_?IsZoomEnabled@CBooleans@@UAEHH@Z 100ac434     Spec_d32:Spec_D32.dll
 0004:00001438       __imp_?SetZoomEnabled@CBooleans@@UAEXHH@Z 100ac438     Spec_d32:Spec_D32.dll
 0004:0000143c       __imp_?IsZoomOn@CBooleans@@UAEHHH@Z 100ac43c     Spec_d32:Spec_D32.dll
 0004:00001440       __imp_?ToggleZoom@CBooleans@@UAEHHH@Z 100ac440     Spec_d32:Spec_D32.dll
 0004:00001444       __imp_?ReadDefaultBooleans@CBooleans@@UAEXXZ 100ac444     Spec_d32:Spec_D32.dll
 0004:00001448       __imp_?InitBooleans@CBooleans@@UAEXXZ 100ac448     Spec_d32:Spec_D32.dll
 0004:0000144c       __imp_?GetPatchMnuArray@CPatchMnu@@UAEXQAY01I@Z 100ac44c     Spec_d32:Spec_D32.dll
 0004:00001450       \177Spec_D32_NULL_THUNK_DATA 100ac450     Spec_d32:Spec_D32.dll
 0004:000014f0       __imp_?SetStaLCard@CDrStatic@@QAEXUstaLcard@@@Z 100ac4f0     StaL_D32:StaL_D32.dll
 0004:000014f4       __imp_??0CDrStatic@@QAE@XZ 100ac4f4     StaL_D32:StaL_D32.dll
 0004:000014f8       __imp_?InitRawData@CDrStatic@@QAEXW4STALPROC@@@Z 100ac4f8     StaL_D32:StaL_D32.dll
 0004:000014fc       \177StaL_D32_NULL_THUNK_DATA 100ac4fc     StaL_D32:StaL_D32.dll

 entry point at        0001:00038f30

