 MSol_D32

 Timestamp is 4035647e (Thu Feb 19 17:35:58 2004)

 Preferred load address is 10000000

 Start         Length     Name                   Class
 0001:00000000 0003ca74H .text                   CODE
 0001:0003ca80 00000019H .text$AFX_COL1          CODE
 0001:0003caa0 00002933H .text$x                 CODE
 0002:00000000 0000072cH .idata$5                DATA
 0002:00000730 00005ebdH .rdata                  DATA
 0002:000065f0 00002cc8H .xdata$x                DATA
 0002:000092b8 000000f0H .idata$2                DATA
 0002:000093a8 00000014H .idata$3                DATA
 0002:000093bc 0000072cH .idata$4                DATA
 0002:00009ae8 00002812H .idata$6                DATA
 0002:0000c300 000166daH .edata                  DATA
 0003:00000000 00000004H .CRT$XCA                DATA
 0003:00000004 0000003cH .CRT$XCU                DATA
 0003:00000040 00000004H .CRT$XCZ                DATA
 0003:00000044 00000004H .CRT$XIA                DATA
 0003:00000048 00000004H .CRT$XIZ                DATA
 0003:00000050 00000ff0H .data                   DATA
 0003:00001040 000000c0H .bss                    DATA
 0004:00000000 0000076cH .rsrc$01                DATA
 0004:00000770 00007038H .rsrc$02                DATA

  Address         Publics by Value              Rva+Base     Lib:Object

 0001:00000000       ?Set3DPts@C3DMath@@QAEXPAULPOINT3@@JJJ@Z 10001000 f i Dlg_lmat.obj
 0001:00000030       ?Set3DPts@C3DMath@@QAEXPAUWORLD@@NNN@Z 10001030 f i Dlg_lmat.obj
 0001:00000080       ?Len3DPts@C3DMath@@QAENPAUWORLD@@@Z 10001080 f i Dlg_lmat.obj
 0001:000000d0       ??1C3DMath@@UAE@XZ         100010d0 f i Dlg_lmat.obj
 0001:00000100       ??_GC3DMath@@UAEPAXI@Z     10001100 f i Dlg_lmat.obj
 0001:00000140       ??_EC3DMath@@UAEPAXI@Z     10001140 f i Dlg_lmat.obj
 0001:000001c0       ?GetMatrix@CMatObj@@UAEPAUMATRIX@@XZ 100011c0 f i Dlg_lmat.obj
 0001:000001e0       ?SetMatrix@CMatObj@@UAEXPAUMATRIX@@@Z 100011e0 f i Dlg_lmat.obj
 0001:00000250       ?GetCurveLatch@CMatObj@@UAE?AW4CURVELATCH@@XZ 10001250 f i Dlg_lmat.obj
 0001:00000270       ?SetCurveLatch@CMatObj@@UAEXW4CURVELATCH@@@Z 10001270 f i Dlg_lmat.obj
 0001:00000290       ?IsInstanced_Prof@CMatObj@@UAEHXZ 10001290 f i Dlg_lmat.obj
 0001:000002b0       ?SetInstanced_Prof@CMatObj@@UAEXH@Z 100012b0 f i Dlg_lmat.obj
 0001:000002d0       ?GetFromID@CMatObj@@UAE?AVCString@@XZ 100012d0 f i Dlg_lmat.obj
 0001:00000310       ?SetFromID@CMatObj@@UAEXVCString@@@Z 10001310 f i Dlg_lmat.obj
 0001:00000370       ?GetFromPt@CMatObj@@UAE?AUWORLD@@XZ 10001370 f i Dlg_lmat.obj
 0001:000003a0       ?SetFromPt@CMatObj@@UAEXUWORLD@@@Z 100013a0 f i Dlg_lmat.obj
 0001:000003d0       ?GetToID@CMatObj@@UAE?AVCString@@XZ 100013d0 f i Dlg_lmat.obj
 0001:00000410       ?SetToID@CMatObj@@UAEXVCString@@@Z 10001410 f i Dlg_lmat.obj
 0001:00000470       ?GetToPt@CMatObj@@UAE?AUWORLD@@XZ 10001470 f i Dlg_lmat.obj
 0001:000004a0       ?SetToPt@CMatObj@@UAEXUWORLD@@@Z 100014a0 f i Dlg_lmat.obj
 0001:000004d0       ?GetRotPtID@CMatObj@@UAE?AVCString@@XZ 100014d0 f i Dlg_lmat.obj
 0001:00000510       ?SetRotPtID@CMatObj@@UAEXVCString@@@Z 10001510 f i Dlg_lmat.obj
 0001:00000570       ?GetRotPt@CMatObj@@UAE?AUWORLD@@XZ 10001570 f i Dlg_lmat.obj
 0001:000005a0       ?SetRotPt@CMatObj@@UAEXUWORLD@@@Z 100015a0 f i Dlg_lmat.obj
 0001:000005d0       ?IsCoordIn@CMatObj@@UAEHXZ 100015d0 f i Dlg_lmat.obj
 0001:000005f0       ?SetCoordIn@CMatObj@@UAEXH@Z 100015f0 f i Dlg_lmat.obj
 0001:00000620       ?GetTranPtID@CMatObj@@UAE?AVCString@@XZ 10001620 f i Dlg_lmat.obj
 0001:00000660       ?SetTranPtID@CMatObj@@UAEXVCString@@@Z 10001660 f i Dlg_lmat.obj
 0001:000006c0       ?GetTranslation@CMatObj@@UAE?AUWORLD@@XZ 100016c0 f i Dlg_lmat.obj
 0001:000006f0       ?SetTranslation@CMatObj@@UAEXUWORLD@@@Z 100016f0 f i Dlg_lmat.obj
 0001:00000720       ?IsAngleIn@CMatObj@@UAEHXZ 10001720 f i Dlg_lmat.obj
 0001:00000740       ?SetAngleIn@CMatObj@@UAEXH@Z 10001740 f i Dlg_lmat.obj
 0001:00000770       ?IsDirCos@CMatObj@@UAEHXZ  10001770 f i Dlg_lmat.obj
 0001:00000790       ?SetDirCos@CMatObj@@UAEXH@Z 10001790 f i Dlg_lmat.obj
 0001:000007c0       ?GetDirCosDirect@CMatObj@@UAE?AUWORLD@@XZ 100017c0 f i Dlg_lmat.obj
 0001:000007f0       ?SetDirCosDirect@CMatObj@@UAEXUWORLD@@@Z 100017f0 f i Dlg_lmat.obj
 0001:00000820       ?GetRotation@CMatObj@@UAE?AUWORLD@@XZ 10001820 f i Dlg_lmat.obj
 0001:00000850       ?SetRotation@CMatObj@@UAEXUWORLD@@@Z 10001850 f i Dlg_lmat.obj
 0001:00000880       ?GetScale@CMatObj@@UAE?AUWORLD@@XZ 10001880 f i Dlg_lmat.obj
 0001:000008b0       ?SetScale@CMatObj@@UAEXUWORLD@@@Z 100018b0 f i Dlg_lmat.obj
 0001:000008e0       ?GetShear@CMatObj@@UAE?AUWORLD@@XZ 100018e0 f i Dlg_lmat.obj
 0001:00000910       ?SetShear@CMatObj@@UAEXUWORLD@@@Z 10001910 f i Dlg_lmat.obj
 0001:00000940       ?IsNoRot@CMatObj@@UAEHXZ   10001940 f i Dlg_lmat.obj
 0001:00000960       ?SetNoRot@CMatObj@@UAEXH@Z 10001960 f i Dlg_lmat.obj
 0001:00000990       ?IsNoTran@CMatObj@@UAEHXZ  10001990 f i Dlg_lmat.obj
 0001:000009b0       ?SetNoTran@CMatObj@@UAEXH@Z 100019b0 f i Dlg_lmat.obj
 0001:000009e0       ?IsNoScale@CMatObj@@UAEHXZ 100019e0 f i Dlg_lmat.obj
 0001:00000a00       ?SetNoScale@CMatObj@@UAEXH@Z 10001a00 f i Dlg_lmat.obj
 0001:00000a30       ?IsNoShear@CMatObj@@UAEHXZ 10001a30 f i Dlg_lmat.obj
 0001:00000a50       ?SetNoShear@CMatObj@@UAEXH@Z 10001a50 f i Dlg_lmat.obj
 0001:00000a80       ?GetXformType@CMatObj@@UAE?AW4XFORMTYPE@@XZ 10001a80 f i Dlg_lmat.obj
 0001:00000aa0       ?SetXformType@CMatObj@@UAEXW4XFORMTYPE@@@Z 10001aa0 f i Dlg_lmat.obj
 0001:00000ad0       ?GetSpawnType@CMatObj@@UAE?AW4SPAWNTYPE@@XZ 10001ad0 f i Dlg_lmat.obj
 0001:00000af0       ?SetSpawnType@CMatObj@@UAEXW4SPAWNTYPE@@@Z 10001af0 f i Dlg_lmat.obj
 0001:00000b20       ?GetCreOp@CMatObj@@UAEIXZ  10001b20 f i Dlg_lmat.obj
 0001:00000b40       ?SetCreOp@CMatObj@@UAEXI@Z 10001b40 f i Dlg_lmat.obj
 0001:00000b70       ??1CMatObj@@UAE@XZ         10001b70 f i Dlg_lmat.obj
 0001:00000c10       ??_GCMatObj@@UAEPAXI@Z     10001c10 f i Dlg_lmat.obj
 0001:00000c50       ??_ECMatObj@@UAEPAXI@Z     10001c50 f i Dlg_lmat.obj
 0001:00000cd0       ?ReadyToDelete@CDrObject@@UAEXXZ 10001cd0 f i Dlg_lmat.obj
 0001:00000cf0       ?DoFormattedCardView@CDrObject@@UAEXPAVCString@@AAV2@@Z 10001cf0 f i Dlg_lmat.obj
 0001:00000d10       ?DoUnFormattedCardView@CDrObject@@UAEXPAVCString@@@Z 10001d10 f i Dlg_lmat.obj
 0001:00000d30       ?DoDataView@CDrObject@@UAEXPAVCDC@@H@Z 10001d30 f i Dlg_lmat.obj
 0001:00000d50       ?InitDraw@CDrObject@@UAEXPAVCDC@@HHPAUMATRIX@@1NNN@Z 10001d50 f i Dlg_lmat.obj
 0001:00000d70       ?InitDraw@CDrObject@@UAEXPAVCDC@@HHPAUMATRIX@@1NNNN@Z 10001d70 f i Dlg_lmat.obj
 0001:00000d90       ?Corner_3Dto2D@CDrObject@@UAEXXZ 10001d90 f i Dlg_lmat.obj
 0001:00000db0       ?DoDrawView@CDrObject@@UAEXPAVCDC@@@Z 10001db0 f i Dlg_lmat.obj
 0001:00000dd0       ?DoDrawView@CDrObject@@UAEXPAVCDC@@H@Z 10001dd0 f i Dlg_lmat.obj
 0001:00000df0       ?DoDrawView@CDrObject@@UAEXPAVCDC@@HH@Z 10001df0 f i Dlg_lmat.obj
 0001:00000e10       ?DealObjectDialog@CDrObject@@UAEHXZ 10001e10 f i Dlg_lmat.obj
 0001:00000e30       ?TransformObjectToWorld@CDrObject@@UAEXPAUMATRIX@@H@Z 10001e30 f i Dlg_lmat.obj
 0001:00000e50       ?TransformObjectToView@CDrObject@@UAEXPAUMATRIX@@@Z 10001e50 f i Dlg_lmat.obj
 0001:00000e70       ?TransformObjectToViewDirect@CDrObject@@UAEXPAUMATRIX@@00H@Z 10001e70 f i Dlg_lmat.obj
 0001:00000e90       ?RemoveHiddenObject@CDrObject@@UAEHPAUMATRIX@@UWORLD@@H@Z 10001e90 f i Dlg_lmat.obj
 0001:00000eb0       ?ProjectObject@CDrObject@@UAEXPAUMATRIX@@NN@Z 10001eb0 f i Dlg_lmat.obj
 0001:00000ed0       ?Calc_2DBoundsScreen@CDrObject@@UAEHXZ 10001ed0 f i Dlg_lmat.obj
 0001:00000ef0       ?Calc_3DBoundsLocal@CDrObject@@UAEHXZ 10001ef0 f i Dlg_lmat.obj
 0001:00000f10       ?FinishObject@CDrObject@@UAEXPAVCClientDC@@H@Z 10001f10 f i Dlg_lmat.obj
 0001:00000f30       ?FinishObject@CDrObject@@UAEXH@Z 10001f30 f i Dlg_lmat.obj
 0001:00000f50       ?FinishObject@CDrObject@@UAEXXZ 10001f50 f i Dlg_lmat.obj
 0001:00000f70       ?GetMaxCorners@CDrObject@@UAEHXZ 10001f70 f i Dlg_lmat.obj
 0001:00000f90       ?GetRawCoords@CDrObject@@UAEXPAJPAHH@Z 10001f90 f i Dlg_lmat.obj
 0001:00000fb0       ?SetProjectedCoords@CDrObject@@UAEXUtagPOINT@@H@Z 10001fb0 f i Dlg_lmat.obj
 0001:00000fd0       ?RearrangeProjectedCoords@CDrObject@@UAEXXZ 10001fd0 f i Dlg_lmat.obj
 0001:00000ff0       ?IsObjectHit@CDrObject@@UAEHNUWORLD@@@Z 10001ff0 f i Dlg_lmat.obj
 0001:00001010       ?IsObjectHit@CDrObject@@UAEHHUtagPOINT@@H@Z 10002010 f i Dlg_lmat.obj
 0001:00001030       ?IsObjectHit@CDrObject@@UAEHHUtagPOINT@@@Z 10002030 f i Dlg_lmat.obj
 0001:00001050       ?IsObjectHit@CDrObject@@UAEHPAVCClientDC@@HUtagPOINT@@PAVCRect@@H@Z 10002050 f i Dlg_lmat.obj
 0001:00001070       ?IsKeyMatch@CDrObject@@UAEHPAV1@VCString@@I@Z 10002070 f i Dlg_lmat.obj
 0001:000010a0       ?IsKeyMatch@CDrObject@@UAEHVCString@@I@Z 100020a0 f i Dlg_lmat.obj
 0001:000010d0       ?IsControlShapeNeeded@CDrObject@@UAEHXZ 100020d0 f i Dlg_lmat.obj
 0001:000010f0       ?SetControlShapeNeed@CDrObject@@UAEXH@Z 100020f0 f i Dlg_lmat.obj
 0001:00001110       ?IsNormalNeeded@CDrObject@@UAEHXZ 10002110 f i Dlg_lmat.obj
 0001:00001130       ?SetNormalNeed@CDrObject@@UAEXH@Z 10002130 f i Dlg_lmat.obj
 0001:00001150       ?IsCulled@CDrObject@@UAEHXZ 10002150 f i Dlg_lmat.obj
 0001:00001170       ?SetCulled@CDrObject@@UAEXH@Z 10002170 f i Dlg_lmat.obj
 0001:00001190       ?IsSkewed@CDrObject@@UAEHXZ 10002190 f i Dlg_lmat.obj
 0001:000011b0       ?SetSkewed@CDrObject@@UAEXH@Z 100021b0 f i Dlg_lmat.obj
 0001:000011d0       ?IsLinSpr@CDrObject@@UAEHXZ 100021d0 f i Dlg_lmat.obj
 0001:000011f0       ?SetLinSpr@CDrObject@@UAEXH@Z 100021f0 f i Dlg_lmat.obj
 0001:00001210       ?IsLinSnu@CDrObject@@UAEHXZ 10002210 f i Dlg_lmat.obj
 0001:00001230       ?SetLinSnu@CDrObject@@UAEXH@Z 10002230 f i Dlg_lmat.obj
 0001:00001250       ?CullWorld@CDrObject@@UAEHUWORLD@@@Z 10002250 f i Dlg_lmat.obj
 0001:00001270       ?CullScreen@CDrObject@@UAEHPAUMATRIX@@@Z 10002270 f i Dlg_lmat.obj
 0001:00001290       ?Calc_CentroidWorld@CDrObject@@UAEXXZ 10002290 f i Dlg_lmat.obj
 0001:000012b0       ?Calc_CentroidEye@CDrObject@@UAEXXZ 100022b0 f i Dlg_lmat.obj
 0001:000012d0       ?Calc_CentroidScreen3D@CDrObject@@UAEXNN@Z 100022d0 f i Dlg_lmat.obj
 0001:000012f0       ?Calc_NormalWorld@CDrObject@@UAEXXZ 100022f0 f i Dlg_lmat.obj
 0001:00001310       ?TransformNormalToEye@CDrObject@@UAEXPAUMATRIX@@@Z 10002310 f i Dlg_lmat.obj
 0001:00001330       ?ProjectNormalToScreen3D@CDrObject@@UAEXPAUMATRIX@@NN@Z 10002330 f i Dlg_lmat.obj
 0001:00001350       ?GetNormalWorld@CDrObject@@UAEPAUWORLD@@XZ 10002350 f i Dlg_lmat.obj
 0001:00001370       ?SetNormalWorld@CDrObject@@UAEXUWORLD@@@Z 10002370 f i Dlg_lmat.obj
 0001:00001390       ?GetNormalEye@CDrObject@@UAEPAUWORLD@@XZ 10002390 f i Dlg_lmat.obj
 0001:000013b0       ?SetNormalEye@CDrObject@@UAEXUWORLD@@@Z 100023b0 f i Dlg_lmat.obj
 0001:000013d0       ?GetNormalScreen3D@CDrObject@@UAEPAUWORLD@@XZ 100023d0 f i Dlg_lmat.obj
 0001:000013f0       ?SetNormalScreen3D@CDrObject@@UAEXUWORLD@@@Z 100023f0 f i Dlg_lmat.obj
 0001:00001410       ?GetNormalScreen2D@CDrObject@@UAEPAUtagPOINT@@XZ 10002410 f i Dlg_lmat.obj
 0001:00001430       ?SetNormalScreen2D@CDrObject@@UAEXUtagPOINT@@@Z 10002430 f i Dlg_lmat.obj
 0001:00001450       ?GetObjectList@CDrObject@@UAEPAVCDListMgr@@XZ 10002450 f i Dlg_lmat.obj
 0001:00001470       ?GetBoundingRect@CDrObject@@QAE?AVCRect@@XZ 10002470 f i Dlg_lmat.obj
 0001:000014b0       ?GetRInfo@CDrObject@@QAEPAURENDINFO@@XZ 100024b0 f i Dlg_lmat.obj
 0001:000014d0       ?IsParallel@CDrObject@@QAEHXZ 100024d0 f i Dlg_lmat.obj
 0001:000014f0       ?GetnView@CDrObject@@QAEHXZ 100024f0 f i Dlg_lmat.obj
 0001:00001510       ?GetdzMin@CDrObject@@QAENXZ 10002510 f i Dlg_lmat.obj
 0001:00001530       ?GetdScale_U@CDrObject@@QAENXZ 10002530 f i Dlg_lmat.obj
 0001:00001550       ?GetdScale_V@CDrObject@@QAENXZ 10002550 f i Dlg_lmat.obj
 0001:00001570       ?GetpViewM@CDrObject@@QAEPAUMATRIX@@XZ 10002570 f i Dlg_lmat.obj
 0001:00001590       ?Getpvv3DM@CDrObject@@QAEPAUMATRIX@@XZ 10002590 f i Dlg_lmat.obj
 0001:000015b0       ?GetpComposedM@CDrObject@@QAEPAUMATRIX@@XZ 100025b0 f i Dlg_lmat.obj
 0001:000015d0       ?SetParallel@CDrObject@@QAEXH@Z 100025d0 f i Dlg_lmat.obj
 0001:00001600       ?SetnView@CDrObject@@QAEXH@Z 10002600 f i Dlg_lmat.obj
 0001:00001630       ?SetdzMin@CDrObject@@QAEXN@Z 10002630 f i Dlg_lmat.obj
 0001:00001660       ?SetdScale_U@CDrObject@@QAEXN@Z 10002660 f i Dlg_lmat.obj
 0001:00001690       ?SetdScale_V@CDrObject@@QAEXN@Z 10002690 f i Dlg_lmat.obj
 0001:000016c0       ?SetpViewM@CDrObject@@QAEXPAUMATRIX@@@Z 100026c0 f i Dlg_lmat.obj
 0001:000016f0       ?Setpvv3DM@CDrObject@@QAEXPAUMATRIX@@@Z 100026f0 f i Dlg_lmat.obj
 0001:00001720       ?SetpComposedM@CDrObject@@QAEXPAUMATRIX@@@Z 10002720 f i Dlg_lmat.obj
 0001:00001750       ?GetLevelType@CDrObject@@QAEHXZ 10002750 f i Dlg_lmat.obj
 0001:00001770       ?SetLevelType@CDrObject@@QAEXH@Z 10002770 f i Dlg_lmat.obj
 0001:000017a0       ?GetObjectID@CDrObject@@QAE?AVCString@@XZ 100027a0 f i Dlg_lmat.obj
 0001:000017e0       ?SetObjectID@CDrObject@@QAEXVCString@@@Z 100027e0 f i Dlg_lmat.obj
 0001:00001840       ?GetObjectNo@CDrObject@@QAEJXZ 10002840 f i Dlg_lmat.obj
 0001:00001860       ?SetObjectNo@CDrObject@@QAEXJ@Z 10002860 f i Dlg_lmat.obj
 0001:00001890       ?GetObjectType@CDrObject@@QAEHXZ 10002890 f i Dlg_lmat.obj
 0001:000018b0       ?SetObjectType@CDrObject@@QAEXH@Z 100028b0 f i Dlg_lmat.obj
 0001:000018e0       ?GetElemType@CDrObject@@QAEHXZ 100028e0 f i Dlg_lmat.obj
 0001:00001900       ?SetElemType@CDrObject@@QAEXH@Z 10002900 f i Dlg_lmat.obj
 0001:00001930       ?GetPenInfo@CDrObject@@QAEXAAIAAK0@Z 10002930 f i Dlg_lmat.obj
 0001:00001970       ?SetPenInfo@CDrObject@@QAEXIKI@Z 10002970 f i Dlg_lmat.obj
 0001:000019b0       ?GetPenInfoHi@CDrObject@@QAEXAAIAAK0@Z 100029b0 f i Dlg_lmat.obj
 0001:000019f0       ?SetPenInfoHi@CDrObject@@QAEXIKI@Z 100029f0 f i Dlg_lmat.obj
 0001:00001a30       ?GetLayer@CDrObject@@QAEIXZ 10002a30 f i Dlg_lmat.obj
 0001:00001a50       ?SetLayer@CDrObject@@QAEXI@Z 10002a50 f i Dlg_lmat.obj
 0001:00001a80       ?IsClipped@CDrObject@@QAEHXZ 10002a80 f i Dlg_lmat.obj
 0001:00001aa0       ?SetClipped@CDrObject@@QAEXH@Z 10002aa0 f i Dlg_lmat.obj
 0001:00001ad0       ?IsVirtual@CDrObject@@QAEHXZ 10002ad0 f i Dlg_lmat.obj
 0001:00001af0       ?SetVirtual@CDrObject@@QAEXH@Z 10002af0 f i Dlg_lmat.obj
 0001:00001b10       ?IsShow@CDrObject@@QAEHXZ  10002b10 f i Dlg_lmat.obj
 0001:00001b30       ?SetShow@CDrObject@@QAEXH@Z 10002b30 f i Dlg_lmat.obj
 0001:00001b60       ?GetParentID@CDrObject@@QAEAAVCString@@XZ 10002b60 f i Dlg_lmat.obj
 0001:00001b80       ?SetParentID@CDrObject@@QAEXAAVCString@@@Z 10002b80 f i Dlg_lmat.obj
 0001:00001bb0       ?GetParentType@CDrObject@@QAEIXZ 10002bb0 f i Dlg_lmat.obj
 0001:00001bd0       ?SetParentType@CDrObject@@QAEXI@Z 10002bd0 f i Dlg_lmat.obj
 0001:00001bf0       ?IsInstanced@CDrObject@@QAEHXZ 10002bf0 f i Dlg_lmat.obj
 0001:00001c10       ?SetInstanced@CDrObject@@QAEXH@Z 10002c10 f i Dlg_lmat.obj
 0001:00001c30       ?GetMatObj@CDrObject@@QAEPAVCMatObj@@XZ 10002c30 f i Dlg_lmat.obj
 0001:00001c50       ?SetMatObj@CDrObject@@QAEXPAVCMatObj@@@Z 10002c50 f i Dlg_lmat.obj
 0001:00001c70       ?GetSpeLList@CDrObject@@QAEPAVCDListMgr@@XZ 10002c70 f i Dlg_lmat.obj
 0001:00001c90       ?GetDynLList@CDrObject@@QAEPAVCDListMgr@@XZ 10002c90 f i Dlg_lmat.obj
 0001:00001cb0       ?GetStaLList@CDrObject@@QAEPAVCDListMgr@@XZ 10002cb0 f i Dlg_lmat.obj
 0001:00001cd0       ?GetSuppList@CDrObject@@QAEPAVCDListMgr@@XZ 10002cd0 f i Dlg_lmat.obj
 0001:00001cf0       ?GetElemList@CDrObject@@QAEPAVCDListMgr@@XZ 10002cf0 f i Dlg_lmat.obj
 0001:00001d10       ?GetCurveList@CDrObject@@QAEPAVCDListMgr@@XZ 10002d10 f i Dlg_lmat.obj
 0001:00001d30       ?GetCProfList@CDrObject@@QAEPAVCDListMgr@@XZ 10002d30 f i Dlg_lmat.obj
 0001:00001d50       ?GetPatchList@CDrObject@@QAEPAVCDListMgr@@XZ 10002d50 f i Dlg_lmat.obj
 0001:00001d70       ?GetSolidList@CDrObject@@QAEPAVCDListMgr@@XZ 10002d70 f i Dlg_lmat.obj
 0001:00001d90       ?GetObj3DList@CDrObject@@QAEPAVCDListMgr@@XZ 10002d90 f i Dlg_lmat.obj
 0001:00001db0       ?GetCNodeList@CDrObject@@QAEPAVCDListMgr@@XZ 10002db0 f i Dlg_lmat.obj
 0001:00001dd0       ?GetINodeList@CDrObject@@QAEPAVCDListMgr@@XZ 10002dd0 f i Dlg_lmat.obj
 0001:00001df0       ?GetNodeList@CDrObject@@QAEPAVCDListMgr@@XZ 10002df0 f i Dlg_lmat.obj
 0001:00001e10       ?GetLabelList@CDrObject@@QAEPAVCDListMgr@@XZ 10002e10 f i Dlg_lmat.obj
 0001:00001e30       ?GetFE0DList@CDrObject@@QAEPAVCDListMgr@@XZ 10002e30 f i Dlg_lmat.obj
 0001:00001e50       ?GetFE1DList@CDrObject@@QAEPAVCDListMgr@@XZ 10002e50 f i Dlg_lmat.obj
 0001:00001e70       ?GetFE2DList@CDrObject@@QAEPAVCDListMgr@@XZ 10002e70 f i Dlg_lmat.obj
 0001:00001e90       ?GetFE3DList@CDrObject@@QAEPAVCDListMgr@@XZ 10002e90 f i Dlg_lmat.obj
 0001:00001eb0       ?GetMs0List@CDrObject@@QAEPAVCDListMgr@@XZ 10002eb0 f i Dlg_lmat.obj
 0001:00001ed0       ?GetMs1List@CDrObject@@QAEPAVCDListMgr@@XZ 10002ed0 f i Dlg_lmat.obj
 0001:00001ef0       ?GetMs2List@CDrObject@@QAEPAVCDListMgr@@XZ 10002ef0 f i Dlg_lmat.obj
 0001:00001f10       ?GetMs3List@CDrObject@@QAEPAVCDListMgr@@XZ 10002f10 f i Dlg_lmat.obj
 0001:00001f30       ?GetMbj3DList@CDrObject@@QAEPAVCDListMgr@@XZ 10002f30 f i Dlg_lmat.obj
 0001:00001f50       ?GetM2DProfList@CDrObject@@QAEPAVCDListMgr@@XZ 10002f50 f i Dlg_lmat.obj
 0001:00001f70       ?GetM3DProfList@CDrObject@@QAEPAVCDListMgr@@XZ 10002f70 f i Dlg_lmat.obj
 0001:00001f90       ?GetMbjProfList@CDrObject@@QAEPAVCDListMgr@@XZ 10002f90 f i Dlg_lmat.obj
 0001:00001fb0       ?GetScreen2DCorner@CDrObject@@UAE?AUtagPOINT@@H@Z 10002fb0 f i Dlg_lmat.obj
 0001:00001ff0       ?SetScreen2DCorner@CDrObject@@UAEXUtagPOINT@@H@Z 10002ff0 f i Dlg_lmat.obj
 0001:00002020       ?GetSpawnType@CDrObject@@QAE?AW4SPAWNTYPE@@XZ 10003020 f i Dlg_lmat.obj
 0001:00002040       ?SetSpawnType@CDrObject@@QAEXW4SPAWNTYPE@@@Z 10003040 f i Dlg_lmat.obj
 0001:00002060       ?GetCategory@CDrObject@@QAE?AW4CATEGORY@@XZ 10003060 f i Dlg_lmat.obj
 0001:00002080       ?SetCategory@CDrObject@@QAEXW4CATEGORY@@@Z 10003080 f i Dlg_lmat.obj
 0001:000020a0       ?GetSubCat@CDrObject@@QAE?AW4SUBCAT@@XZ 100030a0 f i Dlg_lmat.obj
 0001:000020c0       ?SetSubCat@CDrObject@@QAEXW4SUBCAT@@@Z 100030c0 f i Dlg_lmat.obj
 0001:000020e0       ?GetElemDimLim@CDrObject@@QAE?AW4ELEMDIMLIM@@XZ 100030e0 f i Dlg_lmat.obj
 0001:00002100       ?SetElemDimLim@CDrObject@@QAEXW4ELEMDIMLIM@@@Z 10003100 f i Dlg_lmat.obj
 0001:00002120       ?IsDirty@CDrObject@@QAEHXZ 10003120 f i Dlg_lmat.obj
 0001:00002150       ?SetDirty@CDrObject@@QAEXH@Z 10003150 f i Dlg_lmat.obj
 0001:00002180       ?IsMoved@CDrObject@@QAEHXZ 10003180 f i Dlg_lmat.obj
 0001:000021a0       ?SetMoved@CDrObject@@QAEXH@Z 100031a0 f i Dlg_lmat.obj
 0001:000021d0       ?IsEdited@CDrObject@@QAEHXZ 100031d0 f i Dlg_lmat.obj
 0001:000021f0       ?SetEdited@CDrObject@@QAEXH@Z 100031f0 f i Dlg_lmat.obj
 0001:00002220       ?IsPosted@CDrObject@@QAEHXZ 10003220 f i Dlg_lmat.obj
 0001:00002240       ?SetPosted@CDrObject@@QAEXH@Z 10003240 f i Dlg_lmat.obj
 0001:00002270       ?IsDeleted@CDrObject@@QAEHXZ 10003270 f i Dlg_lmat.obj
 0001:00002290       ?SetDeleted@CDrObject@@QAEXH@Z 10003290 f i Dlg_lmat.obj
 0001:000022c0       ?IsToBeMoved@CDrObject@@QAEHXZ 100032c0 f i Dlg_lmat.obj
 0001:000022e0       ?SetToBeMoved@CDrObject@@QAEXH@Z 100032e0 f i Dlg_lmat.obj
 0001:00002300       ?IsToBeEdited@CDrObject@@QAEHXZ 10003300 f i Dlg_lmat.obj
 0001:00002320       ?SetToBeEdited@CDrObject@@QAEXH@Z 10003320 f i Dlg_lmat.obj
 0001:00002340       ?IsToBePosted@CDrObject@@QAEHXZ 10003340 f i Dlg_lmat.obj
 0001:00002360       ?SetToBePosted@CDrObject@@QAEXH@Z 10003360 f i Dlg_lmat.obj
 0001:00002380       ?IsToBeUnPosted@CDrObject@@QAEHXZ 10003380 f i Dlg_lmat.obj
 0001:000023a0       ?SetToBeUnPosted@CDrObject@@QAEXH@Z 100033a0 f i Dlg_lmat.obj
 0001:000023c0       ?IsToBeDeleted@CDrObject@@QAEHXZ 100033c0 f i Dlg_lmat.obj
 0001:000023e0       ?SetToBeDeleted@CDrObject@@QAEXH@Z 100033e0 f i Dlg_lmat.obj
 0001:00002400       ?IsFormatted@CDrObject@@QAEHXZ 10003400 f i Dlg_lmat.obj
 0001:00002420       ?SetFormatted@CDrObject@@QAEXH@Z 10003420 f i Dlg_lmat.obj
 0001:00002440       ?GetObjectType@CBooleans@@UAEHXZ 10003440 f i Dlg_lmat.obj
 0001:00002460       ?SetObjectType@CBooleans@@UAEXH@Z 10003460 f i Dlg_lmat.obj
 0001:00002490       ?GetElemType@CBooleans@@UAEHXZ 10003490 f i Dlg_lmat.obj
 0001:000024b0       ?SetElemType@CBooleans@@UAEXH@Z 100034b0 f i Dlg_lmat.obj
 0001:000024e0       ?GetObjectNo@CBooleans@@UAEJXZ 100034e0 f i Dlg_lmat.obj
 0001:00002500       ?SetObjectNo@CBooleans@@UAEXJ@Z 10003500 f i Dlg_lmat.obj
 0001:00002530       ?IsSoundOn@CBooleans@@UAEHXZ 10003530 f i Dlg_lmat.obj
 0001:00002550       ?ToggleSoundOn@CBooleans@@UAEXXZ 10003550 f i Dlg_lmat.obj
 0001:00002580       ?IsCoonSocksOff@CBooleans@@UAEHXZ 10003580 f i Dlg_lmat.obj
 0001:000025a0       ?ToggleCoonSocksOff@CBooleans@@UAEXXZ 100035a0 f i Dlg_lmat.obj
 0001:000025d0       ?IsSnapOn@CBooleans@@UAEHXZ 100035d0 f i Dlg_lmat.obj
 0001:000025f0       ?ToggleSnapOn@CBooleans@@UAEXXZ 100035f0 f i Dlg_lmat.obj
 0001:00002620       ?IsHorSnapOn@CBooleans@@UAEHXZ 10003620 f i Dlg_lmat.obj
 0001:00002640       ?ToggleHorSnapOn@CBooleans@@UAEXXZ 10003640 f i Dlg_lmat.obj
 0001:00002670       ?IsVerSnapOn@CBooleans@@UAEHXZ 10003670 f i Dlg_lmat.obj
 0001:00002690       ?ToggleVerSnapOn@CBooleans@@UAEXXZ 10003690 f i Dlg_lmat.obj
 0001:000026c0       ?IsSpawnOn@CBooleans@@UAEHXZ 100036c0 f i Dlg_lmat.obj
 0001:000026e0       ?ToggleSpawnOn@CBooleans@@UAEXXZ 100036e0 f i Dlg_lmat.obj
 0001:00002710       ?IsBLineOn@CBooleans@@UAEHXZ 10003710 f i Dlg_lmat.obj
 0001:00002730       ?ToggleBLineOn@CBooleans@@UAEXXZ 10003730 f i Dlg_lmat.obj
 0001:00002760       ?IsSingleSegOn@CBooleans@@UAEHXZ 10003760 f i Dlg_lmat.obj
 0001:00002780       ?ToggleSingleSegOn@CBooleans@@UAEXXZ 10003780 f i Dlg_lmat.obj
 0001:000027b0       ?IsAutoAcceptOn@CBooleans@@UAEHXZ 100037b0 f i Dlg_lmat.obj
 0001:000027d0       ?ToggleAutoAcceptOn@CBooleans@@UAEXXZ 100037d0 f i Dlg_lmat.obj
 0001:00002800       ?IsDialogOn@CBooleans@@UAEHXZ 10003800 f i Dlg_lmat.obj
 0001:00002820       ?ToggleDialogOn@CBooleans@@UAEXXZ 10003820 f i Dlg_lmat.obj
 0001:00002850       ?IsElementOn@CBooleans@@UAEHXZ 10003850 f i Dlg_lmat.obj
 0001:00002870       ?ToggleElementOn@CBooleans@@UAEXXZ 10003870 f i Dlg_lmat.obj
 0001:000028a0       ?IsDragOn@CBooleans@@UAEHXZ 100038a0 f i Dlg_lmat.obj
 0001:000028c0       ?ToggleDragOn@CBooleans@@UAEXXZ 100038c0 f i Dlg_lmat.obj
 0001:000028f0       ?IsRefreshOn@CBooleans@@UAEHXZ 100038f0 f i Dlg_lmat.obj
 0001:00002910       ?ToggleRefreshOn@CBooleans@@UAEXXZ 10003910 f i Dlg_lmat.obj
 0001:00002940       ?IsRubberBandOn@CBooleans@@UAEHXZ 10003940 f i Dlg_lmat.obj
 0001:00002960       ?ToggleRubberBandOn@CBooleans@@UAEXXZ 10003960 f i Dlg_lmat.obj
 0001:00002990       ?IsStViewActive@CBooleans@@UAEHXZ 10003990 f i Dlg_lmat.obj
 0001:000029b0       ?ToggleStViewActive@CBooleans@@UAEXXZ 100039b0 f i Dlg_lmat.obj
 0001:000029e0       ?IsSpViewActive@CBooleans@@UAEHXZ 100039e0 f i Dlg_lmat.obj
 0001:00002a00       ?ToggleSpViewActive@CBooleans@@UAEXXZ 10003a00 f i Dlg_lmat.obj
 0001:00002a30       ?IsHsViewActive@CBooleans@@UAEHXZ 10003a30 f i Dlg_lmat.obj
 0001:00002a50       ?ToggleHsViewActive@CBooleans@@UAEXXZ 10003a50 f i Dlg_lmat.obj
 0001:00002a80       ?Is12ViewActive@CBooleans@@UAEHXZ 10003a80 f i Dlg_lmat.obj
 0001:00002aa0       ?Toggle12ViewActive@CBooleans@@UAEXXZ 10003aa0 f i Dlg_lmat.obj
 0001:00002ad0       ?Is23ViewActive@CBooleans@@UAEHXZ 10003ad0 f i Dlg_lmat.obj
 0001:00002af0       ?Toggle23ViewActive@CBooleans@@UAEXXZ 10003af0 f i Dlg_lmat.obj
 0001:00002b20       ?Is31ViewActive@CBooleans@@UAEHXZ 10003b20 f i Dlg_lmat.obj
 0001:00002b40       ?Toggle31ViewActive@CBooleans@@UAEXXZ 10003b40 f i Dlg_lmat.obj
 0001:00002b70       ?IsIsoViewActive@CBooleans@@UAEHXZ 10003b70 f i Dlg_lmat.obj
 0001:00002b90       ?ToggleIsoViewActive@CBooleans@@UAEXXZ 10003b90 f i Dlg_lmat.obj
 0001:00002bc0       ?IsDataViewActive@CBooleans@@UAEHXZ 10003bc0 f i Dlg_lmat.obj
 0001:00002be0       ?ToggleDataViewActive@CBooleans@@UAEXXZ 10003be0 f i Dlg_lmat.obj
 0001:00002c10       ?IsMeshDataViewActive@CBooleans@@UAEHXZ 10003c10 f i Dlg_lmat.obj
 0001:00002c30       ?ToggleMeshDataViewActive@CBooleans@@UAEXXZ 10003c30 f i Dlg_lmat.obj
 0001:00002c60       ?IsDeckViewActive@CBooleans@@UAEHXZ 10003c60 f i Dlg_lmat.obj
 0001:00002c80       ?ToggleDeckViewActive@CBooleans@@UAEXXZ 10003c80 f i Dlg_lmat.obj
 0001:00002cb0       ?IsFormDataViewActive@CBooleans@@UAEHXZ 10003cb0 f i Dlg_lmat.obj
 0001:00002cd0       ?ToggleFormDataViewActive@CBooleans@@UAEXXZ 10003cd0 f i Dlg_lmat.obj
 0001:00002d00       ?IsInputMode@CBooleans@@UAEHXZ 10003d00 f i Dlg_lmat.obj
 0001:00002d20       ?SetInputMode@CBooleans@@UAEXH@Z 10003d20 f i Dlg_lmat.obj
 0001:00002d50       ?IsOutputMode@CBooleans@@UAEHXZ 10003d50 f i Dlg_lmat.obj
 0001:00002d70       ?SetOutputMode@CBooleans@@UAEXH@Z 10003d70 f i Dlg_lmat.obj
 0001:00002da0       ??1CBooleans@@UAE@XZ       10003da0 f i Dlg_lmat.obj
 0001:00002dd0       ??_GCBooleans@@UAEPAXI@Z   10003dd0 f i Dlg_lmat.obj
 0001:00002e10       ??_ECBooleans@@UAEPAXI@Z   10003e10 f i Dlg_lmat.obj
 0001:00002e90       ?GetObjectType@CDataWindow@@UAEHXZ 10003e90 f i Dlg_lmat.obj
 0001:00002eb0       ?SetObjectType@CDataWindow@@UAEXH@Z 10003eb0 f i Dlg_lmat.obj
 0001:00002ee0       ?GetElemType@CDataWindow@@UAEHXZ 10003ee0 f i Dlg_lmat.obj
 0001:00002f00       ?SetElemType@CDataWindow@@UAEXH@Z 10003f00 f i Dlg_lmat.obj
 0001:00002f30       ?GetObjectNo@CDataWindow@@UAEJXZ 10003f30 f i Dlg_lmat.obj
 0001:00002f50       ?SetObjectNo@CDataWindow@@UAEXJ@Z 10003f50 f i Dlg_lmat.obj
 0001:00002f80       ?GetWinOrgWIC@CDataWindow@@UAE?AULPOINT3@@XZ 10003f80 f i Dlg_lmat.obj
 0001:00002fc0       ?GetWinMinWIC@CDataWindow@@UAE?AULPOINT3@@XZ 10003fc0 f i Dlg_lmat.obj
 0001:00003000       ?GetWinMaxWIC@CDataWindow@@UAE?AULPOINT3@@XZ 10004000 f i Dlg_lmat.obj
 0001:00003040       ?GetWinExtWIC@CDataWindow@@UAE?AULPOINT3@@XZ 10004040 f i Dlg_lmat.obj
 0001:00003080       ??1CDataWindow@@UAE@XZ     10004080 f i Dlg_lmat.obj
 0001:000030b0       ??_GCDataWindow@@UAEPAXI@Z 100040b0 f i Dlg_lmat.obj
 0001:000030f0       ??_ECDataWindow@@UAEPAXI@Z 100040f0 f i Dlg_lmat.obj
 0001:00003170       ?GetObjectType@CDrFont@@UAEHXZ 10004170 f i Dlg_lmat.obj
 0001:00003190       ?SetObjectType@CDrFont@@UAEXH@Z 10004190 f i Dlg_lmat.obj
 0001:000031c0       ?GetElemType@CDrFont@@UAEHXZ 100041c0 f i Dlg_lmat.obj
 0001:000031e0       ?SetElemType@CDrFont@@UAEXH@Z 100041e0 f i Dlg_lmat.obj
 0001:00003210       ?GetObjectNo@CDrFont@@UAEJXZ 10004210 f i Dlg_lmat.obj
 0001:00003230       ?SetObjectNo@CDrFont@@UAEXJ@Z 10004230 f i Dlg_lmat.obj
 0001:00003260       ?IsFontSelected@CDrFont@@UAEHXZ 10004260 f i Dlg_lmat.obj
 0001:00003280       ?GetTextColor@CDrFont@@UAEKXZ 10004280 f i Dlg_lmat.obj
 0001:000032a0       ?SetTextColor@CDrFont@@UAEXK@Z 100042a0 f i Dlg_lmat.obj
 0001:000032d0       ?GetCurrentLogFont@CDrFont@@UAE?AUtagLOGFONTA@@XZ 100042d0 f i Dlg_lmat.obj
 0001:00003300       ?SetCurrentLogFont@CDrFont@@UAEXUtagLOGFONTA@@@Z 10004300 f i Dlg_lmat.obj
 0001:00003330       ??1CDrFont@@UAE@XZ         10004330 f i Dlg_lmat.obj
 0001:00003360       ??_GCDrFont@@UAEPAXI@Z     10004360 f i Dlg_lmat.obj
 0001:000033a0       ??_ECDrFont@@UAEPAXI@Z     100043a0 f i Dlg_lmat.obj
 0001:00003420       ?GetObjectType@CDrPen@@UAEHXZ 10004420 f i Dlg_lmat.obj
 0001:00003440       ?SetObjectType@CDrPen@@UAEXH@Z 10004440 f i Dlg_lmat.obj
 0001:00003470       ?GetElemType@CDrPen@@UAEHXZ 10004470 f i Dlg_lmat.obj
 0001:00003490       ?SetElemType@CDrPen@@UAEXH@Z 10004490 f i Dlg_lmat.obj
 0001:000034c0       ?GetObjectNo@CDrPen@@UAEJXZ 100044c0 f i Dlg_lmat.obj
 0001:000034e0       ?SetObjectNo@CDrPen@@UAEXJ@Z 100044e0 f i Dlg_lmat.obj
 0001:00003510       ?GetCurrentPen@CDrPen@@UAEPAVCPen@@XZ 10004510 f i Dlg_lmat.obj
 0001:00003530       ?GetStyle@CDrPen@@UAEHXZ   10004530 f i Dlg_lmat.obj
 0001:00003550       ?SetStyle@CDrPen@@UAEXH@Z  10004550 f i Dlg_lmat.obj
 0001:00003580       ?GetStyleOld@CDrPen@@UAEHXZ 10004580 f i Dlg_lmat.obj
 0001:000035a0       ?SetStyleOld@CDrPen@@UAEXH@Z 100045a0 f i Dlg_lmat.obj
 0001:000035d0       ?GetStyleDefault@CDrPen@@UAEHXZ 100045d0 f i Dlg_lmat.obj
 0001:000035f0       ?SetStyleDefault@CDrPen@@UAEXH@Z 100045f0 f i Dlg_lmat.obj
 0001:00003620       ?GetWidth@CDrPen@@UAEHXZ   10004620 f i Dlg_lmat.obj
 0001:00003640       ?SetWidth@CDrPen@@UAEXH@Z  10004640 f i Dlg_lmat.obj
 0001:00003670       ?GetWidthOld@CDrPen@@UAEHXZ 10004670 f i Dlg_lmat.obj
 0001:00003690       ?SetWidthOld@CDrPen@@UAEXH@Z 10004690 f i Dlg_lmat.obj
 0001:000036c0       ?GetWidthDefault@CDrPen@@UAEHXZ 100046c0 f i Dlg_lmat.obj
 0001:000036e0       ?SetWidthDefault@CDrPen@@UAEXH@Z 100046e0 f i Dlg_lmat.obj
 0001:00003710       ?GetColor@CDrPen@@UAEKXZ   10004710 f i Dlg_lmat.obj
 0001:00003730       ?SetColor@CDrPen@@UAEXK@Z  10004730 f i Dlg_lmat.obj
 0001:00003760       ?GetColorOld@CDrPen@@UAEKXZ 10004760 f i Dlg_lmat.obj
 0001:00003780       ?SetColorOld@CDrPen@@UAEXK@Z 10004780 f i Dlg_lmat.obj
 0001:000037b0       ?GetColorDefault@CDrPen@@UAEKXZ 100047b0 f i Dlg_lmat.obj
 0001:000037d0       ?SetColorDefault@CDrPen@@UAEXK@Z 100047d0 f i Dlg_lmat.obj
 0001:00003800       ?GetIndex@CDrPen@@UAEIXZ   10004800 f i Dlg_lmat.obj
 0001:00003820       ?SetIndex@CDrPen@@UAEXI@Z  10004820 f i Dlg_lmat.obj
 0001:00003850       ?GetIndexOld@CDrPen@@UAEIXZ 10004850 f i Dlg_lmat.obj
 0001:00003870       ?SetIndexOld@CDrPen@@UAEXI@Z 10004870 f i Dlg_lmat.obj
 0001:000038a0       ?GetIndexDefault@CDrPen@@UAEIXZ 100048a0 f i Dlg_lmat.obj
 0001:000038c0       ?SetIndexDefault@CDrPen@@UAEXI@Z 100048c0 f i Dlg_lmat.obj
 0001:000038f0       ?GetStyleNameCount@CDrPen@@UAEIXZ 100048f0 f i Dlg_lmat.obj
 0001:00003910       ?SetStyleNameCount@CDrPen@@UAEXI@Z 10004910 f i Dlg_lmat.obj
 0001:00003940       ?GetStyleName@CDrPen@@UAE?AVCString@@I@Z 10004940 f i Dlg_lmat.obj
 0001:00003980       ?GetStyleConstant@CDrPen@@UAEII@Z 10004980 f i Dlg_lmat.obj
 0001:000039b0       ??1CDrPen@@UAE@XZ          100049b0 f i Dlg_lmat.obj
 0001:00003a30       ??_GCDrPen@@UAEPAXI@Z      10004a30 f i Dlg_lmat.obj
 0001:00003a70       ??_ECDrPen@@UAEPAXI@Z      10004a70 f i Dlg_lmat.obj
 0001:00003af0       ?GetObjectType@CHitNet@@UAEHXZ 10004af0 f i Dlg_lmat.obj
 0001:00003b10       ?SetObjectType@CHitNet@@UAEXH@Z 10004b10 f i Dlg_lmat.obj
 0001:00003b40       ?GetElemType@CHitNet@@UAEHXZ 10004b40 f i Dlg_lmat.obj
 0001:00003b60       ?SetElemType@CHitNet@@UAEXH@Z 10004b60 f i Dlg_lmat.obj
 0001:00003b90       ?GetObjectNo@CHitNet@@UAEJXZ 10004b90 f i Dlg_lmat.obj
 0001:00003bb0       ?SetObjectNo@CHitNet@@UAEXJ@Z 10004bb0 f i Dlg_lmat.obj
 0001:00003be0       ?GetSearchNet@CHitNet@@QAEHXZ 10004be0 f i Dlg_lmat.obj
 0001:00003c00       ?SetSearchNet@CHitNet@@QAEXH@Z 10004c00 f i Dlg_lmat.obj
 0001:00003c30       ?GetSearchNetOld@CHitNet@@QAEHXZ 10004c30 f i Dlg_lmat.obj
 0001:00003c50       ?SetSearchNetOld@CHitNet@@QAEXH@Z 10004c50 f i Dlg_lmat.obj
 0001:00003c80       ?GetSearchNetDefault@CHitNet@@QAEHXZ 10004c80 f i Dlg_lmat.obj
 0001:00003ca0       ?SetSearchNetDefault@CHitNet@@QAEXH@Z 10004ca0 f i Dlg_lmat.obj
 0001:00003cd0       ?GetSearchDet@CHitNet@@QAENXZ 10004cd0 f i Dlg_lmat.obj
 0001:00003cf0       ?SetSearchDet@CHitNet@@QAEXN@Z 10004cf0 f i Dlg_lmat.obj
 0001:00003d20       ?GetSearchDetOld@CHitNet@@QAENXZ 10004d20 f i Dlg_lmat.obj
 0001:00003d40       ?SetSearchDetOld@CHitNet@@QAEXN@Z 10004d40 f i Dlg_lmat.obj
 0001:00003d70       ?GetSearchDetDefault@CHitNet@@QAENXZ 10004d70 f i Dlg_lmat.obj
 0001:00003d90       ?SetSearchDetDefault@CHitNet@@QAEXN@Z 10004d90 f i Dlg_lmat.obj
 0001:00003dc0       ?GetDblRatio@CHitNet@@QAENXZ 10004dc0 f i Dlg_lmat.obj
 0001:00003de0       ?SetDblRatio@CHitNet@@QAEXN@Z 10004de0 f i Dlg_lmat.obj
 0001:00003e10       ?GetDblRatioOld@CHitNet@@QAENXZ 10004e10 f i Dlg_lmat.obj
 0001:00003e30       ?SetDblRatioOld@CHitNet@@QAEXN@Z 10004e30 f i Dlg_lmat.obj
 0001:00003e60       ?GetDblRatioDefault@CHitNet@@QAENXZ 10004e60 f i Dlg_lmat.obj
 0001:00003e80       ?SetDblRatioDefault@CHitNet@@QAEXN@Z 10004e80 f i Dlg_lmat.obj
 0001:00003eb0       ?GetCoLinear@CHitNet@@QAENXZ 10004eb0 f i Dlg_lmat.obj
 0001:00003ed0       ?SetCoLinear@CHitNet@@QAEXN@Z 10004ed0 f i Dlg_lmat.obj
 0001:00003f00       ?GetCoLinearOld@CHitNet@@QAENXZ 10004f00 f i Dlg_lmat.obj
 0001:00003f20       ?SetCoLinearOld@CHitNet@@QAEXN@Z 10004f20 f i Dlg_lmat.obj
 0001:00003f50       ?GetCoLinearDefault@CHitNet@@QAENXZ 10004f50 f i Dlg_lmat.obj
 0001:00003f70       ?SetCoLinearDefault@CHitNet@@QAEXN@Z 10004f70 f i Dlg_lmat.obj
 0001:00003fa0       ?GetCoPlanar@CHitNet@@QAENXZ 10004fa0 f i Dlg_lmat.obj
 0001:00003fc0       ?SetCoPlanar@CHitNet@@QAEXN@Z 10004fc0 f i Dlg_lmat.obj
 0001:00003ff0       ?GetCoPlanarOld@CHitNet@@QAENXZ 10004ff0 f i Dlg_lmat.obj
 0001:00004010       ?SetCoPlanarOld@CHitNet@@QAEXN@Z 10005010 f i Dlg_lmat.obj
 0001:00004040       ?GetCoPlanarDefault@CHitNet@@QAENXZ 10005040 f i Dlg_lmat.obj
 0001:00004060       ?SetCoPlanarDefault@CHitNet@@QAEXN@Z 10005060 f i Dlg_lmat.obj
 0001:00004090       ?GetMergeNode_X@CHitNet@@QAENXZ 10005090 f i Dlg_lmat.obj
 0001:000040b0       ?SetMergeNode_X@CHitNet@@QAEXN@Z 100050b0 f i Dlg_lmat.obj
 0001:000040e0       ?GetMergeNode_XOld@CHitNet@@QAENXZ 100050e0 f i Dlg_lmat.obj
 0001:00004100       ?SetMergeNode_XOld@CHitNet@@QAEXN@Z 10005100 f i Dlg_lmat.obj
 0001:00004130       ?GetMergeNode_XDefault@CHitNet@@QAENXZ 10005130 f i Dlg_lmat.obj
 0001:00004150       ?SetMergeNode_XDefault@CHitNet@@QAEXN@Z 10005150 f i Dlg_lmat.obj
 0001:00004180       ?GetMergeNode_Y@CHitNet@@QAENXZ 10005180 f i Dlg_lmat.obj
 0001:000041a0       ?SetMergeNode_Y@CHitNet@@QAEXN@Z 100051a0 f i Dlg_lmat.obj
 0001:000041d0       ?GetMergeNode_YOld@CHitNet@@QAENXZ 100051d0 f i Dlg_lmat.obj
 0001:000041f0       ?SetMergeNode_YOld@CHitNet@@QAEXN@Z 100051f0 f i Dlg_lmat.obj
 0001:00004220       ?GetMergeNode_YDefault@CHitNet@@QAENXZ 10005220 f i Dlg_lmat.obj
 0001:00004240       ?SetMergeNode_YDefault@CHitNet@@QAEXN@Z 10005240 f i Dlg_lmat.obj
 0001:00004270       ?GetMergeNode_Z@CHitNet@@QAENXZ 10005270 f i Dlg_lmat.obj
 0001:00004290       ?SetMergeNode_Z@CHitNet@@QAEXN@Z 10005290 f i Dlg_lmat.obj
 0001:000042c0       ?GetMergeNode_ZOld@CHitNet@@QAENXZ 100052c0 f i Dlg_lmat.obj
 0001:000042e0       ?SetMergeNode_ZOld@CHitNet@@QAEXN@Z 100052e0 f i Dlg_lmat.obj
 0001:00004310       ?GetMergeNode_ZDefault@CHitNet@@QAENXZ 10005310 f i Dlg_lmat.obj
 0001:00004330       ?SetMergeNode_ZDefault@CHitNet@@QAEXN@Z 10005330 f i Dlg_lmat.obj
 0001:00004360       ??1CHitNet@@UAE@XZ         10005360 f i Dlg_lmat.obj
 0001:00004390       ??_GCHitNet@@UAEPAXI@Z     10005390 f i Dlg_lmat.obj
 0001:000043d0       ??_ECHitNet@@UAEPAXI@Z     100053d0 f i Dlg_lmat.obj
 0001:00004450       ?GetObjectType@CLayer@@UAEHXZ 10005450 f i Dlg_lmat.obj
 0001:00004470       ?SetObjectType@CLayer@@UAEXH@Z 10005470 f i Dlg_lmat.obj
 0001:000044a0       ?GetElemType@CLayer@@UAEHXZ 100054a0 f i Dlg_lmat.obj
 0001:000044c0       ?SetElemType@CLayer@@UAEXH@Z 100054c0 f i Dlg_lmat.obj
 0001:000044f0       ?GetObjectNo@CLayer@@UAEJXZ 100054f0 f i Dlg_lmat.obj
 0001:00004510       ?SetObjectNo@CLayer@@UAEXJ@Z 10005510 f i Dlg_lmat.obj
 0001:00004540       ?GetCurrentLayer@CLayer@@UAEIXZ 10005540 f i Dlg_lmat.obj
 0001:00004560       ?SetCurrentLayer@CLayer@@UAEXI@Z 10005560 f i Dlg_lmat.obj
 0001:00004590       ?GetCurrentLayerOld@CLayer@@UAEIXZ 10005590 f i Dlg_lmat.obj
 0001:000045b0       ?SetCurrentLayerOld@CLayer@@UAEXI@Z 100055b0 f i Dlg_lmat.obj
 0001:000045e0       ?GetCurrentLayerDefault@CLayer@@UAEIXZ 100055e0 f i Dlg_lmat.obj
 0001:00004600       ?SetCurrentLayerDefault@CLayer@@UAEXI@Z 10005600 f i Dlg_lmat.obj
 0001:00004630       ??1CLayer@@UAE@XZ          10005630 f i Dlg_lmat.obj
 0001:00004660       ??_GCLayer@@UAEPAXI@Z      10005660 f i Dlg_lmat.obj
 0001:000046a0       ??_ECLayer@@UAEPAXI@Z      100056a0 f i Dlg_lmat.obj
 0001:00004720       ?GetObjectType@CPatchMnu@@UAEHXZ 10005720 f i Dlg_lmat.obj
 0001:00004740       ?SetObjectType@CPatchMnu@@UAEXH@Z 10005740 f i Dlg_lmat.obj
 0001:00004770       ?GetElemType@CPatchMnu@@UAEHXZ 10005770 f i Dlg_lmat.obj
 0001:00004790       ?SetElemType@CPatchMnu@@UAEXH@Z 10005790 f i Dlg_lmat.obj
 0001:000047c0       ?GetObjectNo@CPatchMnu@@UAEJXZ 100057c0 f i Dlg_lmat.obj
 0001:000047e0       ?SetObjectNo@CPatchMnu@@UAEXJ@Z 100057e0 f i Dlg_lmat.obj
 0001:00004810       ?GetCurrentPatchMnu@CPatchMnu@@UAEIXZ 10005810 f i Dlg_lmat.obj
 0001:00004830       ?SetCurrentPatchMnu@CPatchMnu@@UAEXI@Z 10005830 f i Dlg_lmat.obj
 0001:00004860       ?GetCurrentPatchMnuOld@CPatchMnu@@UAEIXZ 10005860 f i Dlg_lmat.obj
 0001:00004880       ?SetCurrentPatchMnuOld@CPatchMnu@@UAEXI@Z 10005880 f i Dlg_lmat.obj
 0001:000048b0       ?GetCurrentPatchMnuDefault@CPatchMnu@@UAEIXZ 100058b0 f i Dlg_lmat.obj
 0001:000048d0       ?SetCurrentPatchMnuDefault@CPatchMnu@@UAEXI@Z 100058d0 f i Dlg_lmat.obj
 0001:00004900       ?GetPatchMnuID@CPatchMnu@@UAE?AVCString@@I@Z 10005900 f i Dlg_lmat.obj
 0001:00004940       ?SetPatchMnuID@CPatchMnu@@UAEXVCString@@I@Z 10005940 f i Dlg_lmat.obj
 0001:000049a0       ?GetCurrentID@CPatchMnu@@UAE?AVCString@@XZ 100059a0 f i Dlg_lmat.obj
 0001:000049e0       ?SetCurrentID@CPatchMnu@@UAEXVCString@@@Z 100059e0 f i Dlg_lmat.obj
 0001:00004a40       ??1CPatchMnu@@UAE@XZ       10005a40 f i Dlg_lmat.obj
 0001:00004ad0       ??_GCPatchMnu@@UAEPAXI@Z   10005ad0 f i Dlg_lmat.obj
 0001:00004b10       ??_ECPatchMnu@@UAEPAXI@Z   10005b10 f i Dlg_lmat.obj
 0001:00004b90       ?GetObjectType@CObj3DMnu@@UAEHXZ 10005b90 f i Dlg_lmat.obj
 0001:00004bb0       ?SetObjectType@CObj3DMnu@@UAEXH@Z 10005bb0 f i Dlg_lmat.obj
 0001:00004be0       ?GetElemType@CObj3DMnu@@UAEHXZ 10005be0 f i Dlg_lmat.obj
 0001:00004c00       ?SetElemType@CObj3DMnu@@UAEXH@Z 10005c00 f i Dlg_lmat.obj
 0001:00004c30       ?GetObjectNo@CObj3DMnu@@UAEJXZ 10005c30 f i Dlg_lmat.obj
 0001:00004c50       ?SetObjectNo@CObj3DMnu@@UAEXJ@Z 10005c50 f i Dlg_lmat.obj
 0001:00004c80       ?GetCurrentObj3DMnu@CObj3DMnu@@UAEIXZ 10005c80 f i Dlg_lmat.obj
 0001:00004ca0       ?SetCurrentObj3DMnu@CObj3DMnu@@UAEXI@Z 10005ca0 f i Dlg_lmat.obj
 0001:00004cd0       ?GetCurrentObj3DMnuOld@CObj3DMnu@@UAEIXZ 10005cd0 f i Dlg_lmat.obj
 0001:00004cf0       ?SetCurrentObj3DMnuOld@CObj3DMnu@@UAEXI@Z 10005cf0 f i Dlg_lmat.obj
 0001:00004d20       ?GetCurrentObj3DMnuDefault@CObj3DMnu@@UAEIXZ 10005d20 f i Dlg_lmat.obj
 0001:00004d40       ?SetCurrentObj3DMnuDefault@CObj3DMnu@@UAEXI@Z 10005d40 f i Dlg_lmat.obj
 0001:00004d70       ?GetObj3DMnuID@CObj3DMnu@@UAE?AVCString@@I@Z 10005d70 f i Dlg_lmat.obj
 0001:00004db0       ?SetObj3DMnuID@CObj3DMnu@@UAEXVCString@@I@Z 10005db0 f i Dlg_lmat.obj
 0001:00004e10       ?GetCurrentID@CObj3DMnu@@UAE?AVCString@@XZ 10005e10 f i Dlg_lmat.obj
 0001:00004e50       ?SetCurrentID@CObj3DMnu@@UAEXVCString@@@Z 10005e50 f i Dlg_lmat.obj
 0001:00004eb0       ??1CObj3DMnu@@UAE@XZ       10005eb0 f i Dlg_lmat.obj
 0001:00004f40       ??_GCObj3DMnu@@UAEPAXI@Z   10005f40 f i Dlg_lmat.obj
 0001:00004f80       ??_ECObj3DMnu@@UAEPAXI@Z   10005f80 f i Dlg_lmat.obj
 0001:00005000       ?GetObjectType@CMapFactor@@UAEHXZ 10006000 f i Dlg_lmat.obj
 0001:00005020       ?SetObjectType@CMapFactor@@UAEXH@Z 10006020 f i Dlg_lmat.obj
 0001:00005050       ?GetElemType@CMapFactor@@UAEHXZ 10006050 f i Dlg_lmat.obj
 0001:00005070       ?SetElemType@CMapFactor@@UAEXH@Z 10006070 f i Dlg_lmat.obj
 0001:000050a0       ?GetObjectNo@CMapFactor@@UAEJXZ 100060a0 f i Dlg_lmat.obj
 0001:000050c0       ?SetObjectNo@CMapFactor@@UAEXJ@Z 100060c0 f i Dlg_lmat.obj
 0001:000050f0       ?GetMapFactor@CMapFactor@@UAENXZ 100060f0 f i Dlg_lmat.obj
 0001:00005110       ?SetMapFactor@CMapFactor@@UAEXN@Z 10006110 f i Dlg_lmat.obj
 0001:00005140       ?GetMapModeIndex@CMapFactor@@UAEHXZ 10006140 f i Dlg_lmat.obj
 0001:00005160       ?SetMapModeIndex@CMapFactor@@UAEXH@Z 10006160 f i Dlg_lmat.obj
 0001:00005190       ??1CMapFactor@@UAE@XZ      10006190 f i Dlg_lmat.obj
 0001:000051c0       ??_GCMapFactor@@UAEPAXI@Z  100061c0 f i Dlg_lmat.obj
 0001:00005200       ??_ECMapFactor@@UAEPAXI@Z  10006200 f i Dlg_lmat.obj
 0001:00005280       ?GetObjectType@CPrecision@@UAEHXZ 10006280 f i Dlg_lmat.obj
 0001:000052a0       ?SetObjectType@CPrecision@@UAEXH@Z 100062a0 f i Dlg_lmat.obj
 0001:000052d0       ?GetElemType@CPrecision@@UAEHXZ 100062d0 f i Dlg_lmat.obj
 0001:000052f0       ?SetElemType@CPrecision@@UAEXH@Z 100062f0 f i Dlg_lmat.obj
 0001:00005320       ?GetObjectNo@CPrecision@@UAEJXZ 10006320 f i Dlg_lmat.obj
 0001:00005340       ?SetObjectNo@CPrecision@@UAEXJ@Z 10006340 f i Dlg_lmat.obj
 0001:00005370       ?GetPrecision@CPrecision@@UAEIXZ 10006370 f i Dlg_lmat.obj
 0001:00005390       ?SetPrecision@CPrecision@@UAEXI@Z 10006390 f i Dlg_lmat.obj
 0001:000053c0       ?GetPrecisionOld@CPrecision@@UAEIXZ 100063c0 f i Dlg_lmat.obj
 0001:000053e0       ?SetPrecisionOld@CPrecision@@UAEXI@Z 100063e0 f i Dlg_lmat.obj
 0001:00005410       ?GetPrecisionDefault@CPrecision@@UAEIXZ 10006410 f i Dlg_lmat.obj
 0001:00005430       ?SetPrecisionDefault@CPrecision@@UAEXI@Z 10006430 f i Dlg_lmat.obj
 0001:00005460       ?GetWorldBase@CPrecision@@UAEJXZ 10006460 f i Dlg_lmat.obj
 0001:00005480       ?SetWorldBase@CPrecision@@UAEXJ@Z 10006480 f i Dlg_lmat.obj
 0001:000054b0       ?GetWorldBaseOld@CPrecision@@UAEJXZ 100064b0 f i Dlg_lmat.obj
 0001:000054d0       ?SetWorldBaseOld@CPrecision@@UAEXJ@Z 100064d0 f i Dlg_lmat.obj
 0001:00005500       ?GetWorldBaseDefault@CPrecision@@UAEJXZ 10006500 f i Dlg_lmat.obj
 0001:00005520       ?SetWorldBaseDefault@CPrecision@@UAEXJ@Z 10006520 f i Dlg_lmat.obj
 0001:00005550       ??1CPrecision@@UAE@XZ      10006550 f i Dlg_lmat.obj
 0001:00005580       ??_GCPrecision@@UAEPAXI@Z  10006580 f i Dlg_lmat.obj
 0001:000055c0       ??_ECPrecision@@UAEPAXI@Z  100065c0 f i Dlg_lmat.obj
 0001:00005640       ?GetObjectType@CScaleFactor@@UAEHXZ 10006640 f i Dlg_lmat.obj
 0001:00005660       ?SetObjectType@CScaleFactor@@UAEXH@Z 10006660 f i Dlg_lmat.obj
 0001:00005690       ?GetElemType@CScaleFactor@@UAEHXZ 10006690 f i Dlg_lmat.obj
 0001:000056b0       ?SetElemType@CScaleFactor@@UAEXH@Z 100066b0 f i Dlg_lmat.obj
 0001:000056e0       ?GetObjectNo@CScaleFactor@@UAEJXZ 100066e0 f i Dlg_lmat.obj
 0001:00005700       ?SetObjectNo@CScaleFactor@@UAEXJ@Z 10006700 f i Dlg_lmat.obj
 0001:00005730       ?GetScaleFactor@CScaleFactor@@UAENXZ 10006730 f i Dlg_lmat.obj
 0001:00005750       ?SetScaleFactor@CScaleFactor@@UAEXN@Z 10006750 f i Dlg_lmat.obj
 0001:00005780       ?GetScaleFactorOld@CScaleFactor@@UAENXZ 10006780 f i Dlg_lmat.obj
 0001:000057a0       ?SetScaleFactorOld@CScaleFactor@@UAEXN@Z 100067a0 f i Dlg_lmat.obj
 0001:000057d0       ?GetScaleFactorDefault@CScaleFactor@@UAENXZ 100067d0 f i Dlg_lmat.obj
 0001:000057f0       ?SetScaleFactorDefault@CScaleFactor@@UAEXN@Z 100067f0 f i Dlg_lmat.obj
 0001:00005820       ??1CScaleFactor@@UAE@XZ    10006820 f i Dlg_lmat.obj
 0001:00005850       ??_GCScaleFactor@@UAEPAXI@Z 10006850 f i Dlg_lmat.obj
 0001:00005890       ??_ECScaleFactor@@UAEPAXI@Z 10006890 f i Dlg_lmat.obj
 0001:00005910       ?GetObjectType@CUnit@@UAEHXZ 10006910 f i Dlg_lmat.obj
 0001:00005930       ?SetObjectType@CUnit@@UAEXH@Z 10006930 f i Dlg_lmat.obj
 0001:00005960       ?GetElemType@CUnit@@UAEHXZ 10006960 f i Dlg_lmat.obj
 0001:00005980       ?SetElemType@CUnit@@UAEXH@Z 10006980 f i Dlg_lmat.obj
 0001:000059b0       ?GetObjectNo@CUnit@@UAEJXZ 100069b0 f i Dlg_lmat.obj
 0001:000059d0       ?SetObjectNo@CUnit@@UAEXJ@Z 100069d0 f i Dlg_lmat.obj
 0001:00005a00       ?GetUnitName@CUnit@@UAE?AVCString@@I@Z 10006a00 f i Dlg_lmat.obj
 0001:00005a40       ?GetUnitIndex@CUnit@@UAEIXZ 10006a40 f i Dlg_lmat.obj
 0001:00005a60       ?SetUnitIndex@CUnit@@UAEXI@Z 10006a60 f i Dlg_lmat.obj
 0001:00005a90       ?GetUnitIndexOld@CUnit@@UAEIXZ 10006a90 f i Dlg_lmat.obj
 0001:00005ab0       ?SetUnitIndexOld@CUnit@@UAEXI@Z 10006ab0 f i Dlg_lmat.obj
 0001:00005ae0       ?GetUnitIndexDefault@CUnit@@UAEIXZ 10006ae0 f i Dlg_lmat.obj
 0001:00005b00       ?SetUnitIndexDefault@CUnit@@UAEXI@Z 10006b00 f i Dlg_lmat.obj
 0001:00005b30       ?GetUnitNameCount@CUnit@@UAEIXZ 10006b30 f i Dlg_lmat.obj
 0001:00005b50       ?SetUnitNameCount@CUnit@@UAEXI@Z 10006b50 f i Dlg_lmat.obj
 0001:00005b80       ??1CUnit@@UAE@XZ           10006b80 f i Dlg_lmat.obj
 0001:00005bf0       ??_GCUnit@@UAEPAXI@Z       10006bf0 f i Dlg_lmat.obj
 0001:00005c30       ??_ECUnit@@UAEPAXI@Z       10006c30 f i Dlg_lmat.obj
 0001:00005cb0       ??1CDataRowHint@@UAE@XZ    10006cb0 f i Dlg_lmat.obj
 0001:00005cd0       ?GetMapFactor@CObjectMgr@@UAEPAVCMapFactor@@XZ 10006cd0 f i Dlg_lmat.obj
 0001:00005cf0       ?GetPrecision@CObjectMgr@@UAEPAVCPrecision@@XZ 10006cf0 f i Dlg_lmat.obj
 0001:00005d10       ?GetScaleFactor@CObjectMgr@@UAEPAVCScaleFactor@@XZ 10006d10 f i Dlg_lmat.obj
 0001:00005d30       ?GetUnit@CObjectMgr@@UAEPAVCUnit@@XZ 10006d30 f i Dlg_lmat.obj
 0001:00005d50       ?GetObjectListFromIndex@CObjectMgr@@UAEPAVCDListMgr@@H@Z 10006d50 f i Dlg_lmat.obj
 0001:00005d90       ?IsSceneChanged@CObjectMgr@@UAEHXZ 10006d90 f i Dlg_lmat.obj
 0001:00005db0       ?SetSceneChanged@CObjectMgr@@UAEXH@Z 10006db0 f i Dlg_lmat.obj
 0001:00005de0       ?IsViewChanged@CObjectMgr@@UAEHXZ 10006de0 f i Dlg_lmat.obj
 0001:00005e00       ?SetViewChanged@CObjectMgr@@UAEXH@Z 10006e00 f i Dlg_lmat.obj
 0001:00005e30       ?GetMasterLastObjectNo@CObjectMgr@@UAEIXZ 10006e30 f i Dlg_lmat.obj
 0001:00005e50       ?SetMasterLastObjectNo@CObjectMgr@@UAEXI@Z 10006e50 f i Dlg_lmat.obj
 0001:00005e80       ?GetActiveObjectNo@CObjectMgr@@UAEIXZ 10006e80 f i Dlg_lmat.obj
 0001:00005ea0       ?SetActiveObjectNo@CObjectMgr@@UAEXI@Z 10006ea0 f i Dlg_lmat.obj
 0001:00005ed0       ?GetActiveListIndex@CObjectMgr@@UAEHXZ 10006ed0 f i Dlg_lmat.obj
 0001:00005ef0       ?SetActiveListIndex@CObjectMgr@@UAEXH@Z 10006ef0 f i Dlg_lmat.obj
 0001:00005f20       ?GetActiveObjectIndex@CObjectMgr@@UAEHXZ 10006f20 f i Dlg_lmat.obj
 0001:00005f40       ?SetActiveObjectIndex@CObjectMgr@@UAEXH@Z 10006f40 f i Dlg_lmat.obj
 0001:00005f70       ?GetActiveObjectType@CObjectMgr@@UAEHXZ 10006f70 f i Dlg_lmat.obj
 0001:00005f90       ?SetActiveObjectType@CObjectMgr@@UAEXH@Z 10006f90 f i Dlg_lmat.obj
 0001:00005fc0       ?GetRowList@CObjectMgr@@QAEPAV?$CList@JJ@@XZ 10006fc0 f i Dlg_lmat.obj
 0001:00005fe0       ?GetRowCount@CObjectMgr@@QAEHXZ 10006fe0 f i Dlg_lmat.obj
 0001:00006010       ?GetActiveRowIndex@CObjectMgr@@QAEHXZ 10007010 f i Dlg_lmat.obj
 0001:00006030       ?SetActiveRowIndex@CObjectMgr@@QAEXH@Z 10007030 f i Dlg_lmat.obj
 0001:00006060       ?GetFormat@CObjectMgr@@UAE?AVCString@@XZ 10007060 f i Dlg_lmat.obj
 0001:000060a0       ?IsMeshGenOn@CObjectMgr@@UAEHXZ 100070a0 f i Dlg_lmat.obj
 0001:000060c0       ?SetMeshGenOn@CObjectMgr@@UAEXH@Z 100070c0 f i Dlg_lmat.obj
 0001:000060f0       ?GetMeshType@CObjectMgr@@UAEIXZ 100070f0 f i Dlg_lmat.obj
 0001:00006110       ?SetMeshType@CObjectMgr@@UAEXI@Z 10007110 f i Dlg_lmat.obj
 0001:00006140       ?GetCurrentTopLevel@CObjectMgr@@UAEHXZ 10007140 f i Dlg_lmat.obj
 0001:00006160       ?SetCurrentTopLevel@CObjectMgr@@UAEXH@Z 10007160 f i Dlg_lmat.obj
 0001:00006190       ?GetObjectType@CElemInfo@@UAEHXZ 10007190 f i Dlg_lmat.obj
 0001:000061b0       ?SetObjectType@CElemInfo@@UAEXH@Z 100071b0 f i Dlg_lmat.obj
 0001:000061e0       ?GetElemType@CElemInfo@@UAEHXZ 100071e0 f i Dlg_lmat.obj
 0001:00006200       ?SetElemType@CElemInfo@@UAEXH@Z 10007200 f i Dlg_lmat.obj
 0001:00006230       ?GetObjectNo@CElemInfo@@UAEJXZ 10007230 f i Dlg_lmat.obj
 0001:00006250       ?SetObjectNo@CElemInfo@@UAEXJ@Z 10007250 f i Dlg_lmat.obj
 0001:00006280       ?GetInfoList@CElemInfo@@UAEPAVCDListMgr@@H@Z 10007280 f i Dlg_lmat.obj
 0001:000062b0       ??1CElemInfo@@UAE@XZ       100072b0 f i Dlg_lmat.obj
 0001:00006320       ??_GCElemInfo@@UAEPAXI@Z   10007320 f i Dlg_lmat.obj
 0001:00006360       ??_ECElemInfo@@UAEPAXI@Z   10007360 f i Dlg_lmat.obj
 0001:000063e0       ??1CMeshRowHint@@UAE@XZ    100073e0 f i Dlg_lmat.obj
 0001:00006400       ?GetRowList@CMsObjMgr@@QAEPAV?$CList@JJ@@XZ 10007400 f i Dlg_lmat.obj
 0001:00006420       ?GetRowCount@CMsObjMgr@@QAEHXZ 10007420 f i Dlg_lmat.obj
 0001:00006450       ?GetActiveRowIndex@CMsObjMgr@@QAEHXZ 10007450 f i Dlg_lmat.obj
 0001:00006470       ?SetActiveRowIndex@CMsObjMgr@@QAEXH@Z 10007470 f i Dlg_lmat.obj
 0001:000064a0       ??1CBaseRowHint@@UAE@XZ    100074a0 f i Dlg_lmat.obj
 0001:000064c0       ?GetCurrentItem@CDbObjMgr@@QAEAAVCString@@XZ 100074c0 f i Dlg_lmat.obj
 0001:000064e0       ?SetCurrentItem@CDbObjMgr@@QAEXAAVCString@@@Z 100074e0 f i Dlg_lmat.obj
 0001:00006510       ?GetCurrentParent@CDbObjMgr@@QAEAAVCString@@XZ 10007510 f i Dlg_lmat.obj
 0001:00006530       ?SetCurrentParent@CDbObjMgr@@QAEXAAVCString@@@Z 10007530 f i Dlg_lmat.obj
 0001:00006560       ??1CAxDataRowHint@@UAE@XZ  10007560 f i Dlg_lmat.obj
 0001:00006580       ?GetMapFactor@CAxObjMgr@@UAEPAVCMapFactor@@XZ 10007580 f i Dlg_lmat.obj
 0001:000065a0       ?GetPrecision@CAxObjMgr@@UAEPAVCPrecision@@XZ 100075a0 f i Dlg_lmat.obj
 0001:000065c0       ?GetScaleFactor@CAxObjMgr@@UAEPAVCScaleFactor@@XZ 100075c0 f i Dlg_lmat.obj
 0001:000065e0       ?GetUnit@CAxObjMgr@@UAEPAVCUnit@@XZ 100075e0 f i Dlg_lmat.obj
 0001:00006600       ?GetObjectListFromIndex@CAxObjMgr@@UAEPAVCDListMgr@@H@Z 10007600 f i Dlg_lmat.obj
 0001:00006640       ?IsSceneChanged@CAxObjMgr@@UAEHXZ 10007640 f i Dlg_lmat.obj
 0001:00006660       ?SetSceneChanged@CAxObjMgr@@UAEXH@Z 10007660 f i Dlg_lmat.obj
 0001:00006690       ?IsViewChanged@CAxObjMgr@@UAEHXZ 10007690 f i Dlg_lmat.obj
 0001:000066b0       ?SetViewChanged@CAxObjMgr@@UAEXH@Z 100076b0 f i Dlg_lmat.obj
 0001:000066e0       ?GetMasterLastObjectNo@CAxObjMgr@@UAEIXZ 100076e0 f i Dlg_lmat.obj
 0001:00006700       ?SetMasterLastObjectNo@CAxObjMgr@@UAEXI@Z 10007700 f i Dlg_lmat.obj
 0001:00006730       ?GetActiveObjectNo@CAxObjMgr@@UAEIXZ 10007730 f i Dlg_lmat.obj
 0001:00006750       ?SetActiveObjectNo@CAxObjMgr@@UAEXI@Z 10007750 f i Dlg_lmat.obj
 0001:00006780       ?GetActiveListIndex@CAxObjMgr@@UAEHXZ 10007780 f i Dlg_lmat.obj
 0001:000067a0       ?SetActiveListIndex@CAxObjMgr@@UAEXH@Z 100077a0 f i Dlg_lmat.obj
 0001:000067d0       ?GetActiveObjectIndex@CAxObjMgr@@UAEHXZ 100077d0 f i Dlg_lmat.obj
 0001:000067f0       ?SetActiveObjectIndex@CAxObjMgr@@UAEXH@Z 100077f0 f i Dlg_lmat.obj
 0001:00006820       ?GetActiveObjectType@CAxObjMgr@@UAEHXZ 10007820 f i Dlg_lmat.obj
 0001:00006840       ?SetActiveObjectType@CAxObjMgr@@UAEXH@Z 10007840 f i Dlg_lmat.obj
 0001:00006870       ?GetRowList@CAxObjMgr@@QAEPAV?$CList@JJ@@XZ 10007870 f i Dlg_lmat.obj
 0001:00006890       ?GetRowCount@CAxObjMgr@@QAEHXZ 10007890 f i Dlg_lmat.obj
 0001:000068c0       ?GetActiveRowIndex@CAxObjMgr@@QAEHXZ 100078c0 f i Dlg_lmat.obj
 0001:000068e0       ?SetActiveRowIndex@CAxObjMgr@@QAEXH@Z 100078e0 f i Dlg_lmat.obj
 0001:00006910       ?GetFormat@CAxObjMgr@@UAE?AVCString@@XZ 10007910 f i Dlg_lmat.obj
 0001:00006950       ?IsMeshGenOn@CAxObjMgr@@UAEHXZ 10007950 f i Dlg_lmat.obj
 0001:00006970       ?SetMeshGenOn@CAxObjMgr@@UAEXH@Z 10007970 f i Dlg_lmat.obj
 0001:000069a0       ?GetMeshType@CAxObjMgr@@UAEIXZ 100079a0 f i Dlg_lmat.obj
 0001:000069c0       ?SetMeshType@CAxObjMgr@@UAEXI@Z 100079c0 f i Dlg_lmat.obj
 0001:000069f0       ?GetCurrentTopLevel@CAxObjMgr@@UAEHXZ 100079f0 f i Dlg_lmat.obj
 0001:00006a10       ?SetCurrentTopLevel@CAxObjMgr@@UAEXH@Z 10007a10 f i Dlg_lmat.obj
 0001:00006a40       ?Parse_drPipe@CDrNode@@UAEPAUnodecard@@PAVCString@@@Z 10007a40 f i Dlg_lmat.obj
 0001:00006a60       ?GetNodeCard@CDrNode@@UAEPAUnodecard@@XZ 10007a60 f i Dlg_lmat.obj
 0001:00006a80       ?GetCardNo@CDrNode@@UAEHXZ 10007a80 f i Dlg_lmat.obj
 0001:00006aa0       ?SetCardNo@CDrNode@@UAEXH@Z 10007aa0 f i Dlg_lmat.obj
 0001:00006ad0       ?DoFormattedCardView@CDrNode@@UAEXPAVCString@@AAV2@@Z 10007ad0 f i Dlg_lmat.obj
 0001:00006af0       ?DoUnFormattedCardView@CDrNode@@UAEXPAVCString@@@Z 10007af0 f i Dlg_lmat.obj
 0001:00006b10       ?GetMaxCorners@CDrNode@@UAEHXZ 10007b10 f i Dlg_lmat.obj
 0001:00006b30       ?GetCategory@CDrNode@@UAE?AW4CATEGORY@@XZ 10007b30 f i Dlg_lmat.obj
 0001:00006b50       ?SetCategory@CDrNode@@UAEXW4CATEGORY@@@Z 10007b50 f i Dlg_lmat.obj
 0001:00006b70       ?GetPrecision@CDrNode@@UAEHXZ 10007b70 f i Dlg_lmat.obj
 0001:00006b90       ?SetPrecision@CDrNode@@UAEXH@Z 10007b90 f i Dlg_lmat.obj
 0001:00006bc0       ?GetFormat@CDrNode@@QAE?AVCString@@XZ 10007bc0 f i Dlg_lmat.obj
 0001:00006c00       ?SetFormat@CDrNode@@QAEXVCString@@@Z 10007c00 f i Dlg_lmat.obj
 0001:00006c60       ?GetMapFactor@CDrNode@@QAENXZ 10007c60 f i Dlg_lmat.obj
 0001:00006c80       ?SetMapFactor@CDrNode@@QAEXN@Z 10007c80 f i Dlg_lmat.obj
 0001:00006cb0       ?GetScaleFactor@CDrNode@@QAENXZ 10007cb0 f i Dlg_lmat.obj
 0001:00006cd0       ?SetScaleFactor@CDrNode@@QAEXN@Z 10007cd0 f i Dlg_lmat.obj
 0001:00006d00       ?GetMasterMultFac@CDrNode@@QAEJXZ 10007d00 f i Dlg_lmat.obj
 0001:00006d20       ?SetMasterMultFac@CDrNode@@QAEXJ@Z 10007d20 f i Dlg_lmat.obj
 0001:00006d50       ?GetLocalPos@CDrNode@@UAEPAUWORLD@@XZ 10007d50 f i Dlg_lmat.obj
 0001:00006d70       ?SetLocalPos@CDrNode@@UAEXUWORLD@@@Z 10007d70 f i Dlg_lmat.obj
 0001:00006da0       ?GetWorldPos@CDrNode@@UAEPAUWORLD@@XZ 10007da0 f i Dlg_lmat.obj
 0001:00006dc0       ?SetWorldPos@CDrNode@@UAEXUWORLD@@@Z 10007dc0 f i Dlg_lmat.obj
 0001:00006df0       ?GetEyePos@CDrNode@@UAEPAUWORLD@@XZ 10007df0 f i Dlg_lmat.obj
 0001:00006e10       ?SetEyePos@CDrNode@@UAEXUWORLD@@@Z 10007e10 f i Dlg_lmat.obj
 0001:00006e40       ?GetScreenPos3D@CDrNode@@UAEPAUWORLD@@XZ 10007e40 f i Dlg_lmat.obj
 0001:00006e60       ?SetScreenPos3D@CDrNode@@UAEXUWORLD@@@Z 10007e60 f i Dlg_lmat.obj
 0001:00006e90       ?GetScreenPos2D@CDrNode@@UAEPAUtagPOINT@@XZ 10007e90 f i Dlg_lmat.obj
 0001:00006eb0       ?SetScreenPos2D@CDrNode@@UAEXUtagPOINT@@@Z 10007eb0 f i Dlg_lmat.obj
 0001:00006ee0       ?GetNormalWorld@CDrNode@@UAEPAUWORLD@@XZ 10007ee0 f i Dlg_lmat.obj
 0001:00006f00       ?SetNormalWorld@CDrNode@@UAEXUWORLD@@@Z 10007f00 f i Dlg_lmat.obj
 0001:00006f30       ?GetNormalEye@CDrNode@@UAEPAUWORLD@@XZ 10007f30 f i Dlg_lmat.obj
 0001:00006f50       ?SetNormalEye@CDrNode@@UAEXUWORLD@@@Z 10007f50 f i Dlg_lmat.obj
 0001:00006f80       ?GetNormalScreen3D@CDrNode@@UAEPAUWORLD@@XZ 10007f80 f i Dlg_lmat.obj
 0001:00006fa0       ?SetNormalScreen3D@CDrNode@@UAEXUWORLD@@@Z 10007fa0 f i Dlg_lmat.obj
 0001:00006fd0       ?GetNormalScreen2D@CDrNode@@UAEPAUtagPOINT@@XZ 10007fd0 f i Dlg_lmat.obj
 0001:00006ff0       ?SetNormalScreen2D@CDrNode@@UAEXUtagPOINT@@@Z 10007ff0 f i Dlg_lmat.obj
 0001:00007020       ?GetLabelNo@CDrNode@@QAEJXZ 10008020 f i Dlg_lmat.obj
 0001:00007040       ?SetLabelNo@CDrNode@@QAEXJ@Z 10008040 f i Dlg_lmat.obj
 0001:00007070       ?IsMeshNode@CDrNode@@QAEHXZ 10008070 f i Dlg_lmat.obj
 0001:00007090       ?SetMeshNode@CDrNode@@QAEXH@Z 10008090 f i Dlg_lmat.obj
 0001:000070c0       ?IsGenerated@CDrNode@@QAEHXZ 100080c0 f i Dlg_lmat.obj
 0001:000070e0       ?SetGenerated@CDrNode@@QAEXH@Z 100080e0 f i Dlg_lmat.obj
 0001:00007110       ?IsControlNode@CDrNode@@QAEHXZ 10008110 f i Dlg_lmat.obj
 0001:00007140       ?SetControlNode@CDrNode@@QAEXH@Z 10008140 f i Dlg_lmat.obj
 0001:00007170       ?GetInputMode@CDrNode@@QAEHXZ 10008170 f i Dlg_lmat.obj
 0001:00007190       ?SetInputMode@CDrNode@@QAEXH@Z 10008190 f i Dlg_lmat.obj
 0001:000071c0       ?GetLength@CDrNode@@QAENXZ 100081c0 f i Dlg_lmat.obj
 0001:000071e0       ?SetLength@CDrNode@@QAEXN@Z 100081e0 f i Dlg_lmat.obj
 0001:00007210       ?GetDelta@CDrNode@@QAEPAUWORLD@@XZ 10008210 f i Dlg_lmat.obj
 0001:00007230       ?SetDelta@CDrNode@@QAEXUWORLD@@@Z 10008230 f i Dlg_lmat.obj
 0001:00007260       ?GetFromID@CDrNode@@QAE?AVCString@@XZ 10008260 f i Dlg_lmat.obj
 0001:000072a0       ?SetFromID@CDrNode@@QAEXVCString@@@Z 100082a0 f i Dlg_lmat.obj
 0001:00007300       ?GetToID@CDrNode@@QAE?AVCString@@XZ 10008300 f i Dlg_lmat.obj
 0001:00007340       ?SetToID@CDrNode@@QAEXVCString@@@Z 10008340 f i Dlg_lmat.obj
 0001:000073a0       ?IsRefCN@CDrNode@@QAEHXZ   100083a0 f i Dlg_lmat.obj
 0001:000073c0       ?SetRefCN@CDrNode@@QAEXH@Z 100083c0 f i Dlg_lmat.obj
 0001:000073f0       ?IsFromCN@CDrNode@@QAEHXZ  100083f0 f i Dlg_lmat.obj
 0001:00007410       ?SetFromCN@CDrNode@@QAEXH@Z 10008410 f i Dlg_lmat.obj
 0001:00007440       ?IsToCN@CDrNode@@QAEHXZ    10008440 f i Dlg_lmat.obj
 0001:00007460       ?SetToCN@CDrNode@@QAEXH@Z  10008460 f i Dlg_lmat.obj
 0001:00007490       ?IsSkewed@CDrNode@@UAEHXZ  10008490 f i Dlg_lmat.obj
 0001:000074b0       ?SetSkewed@CDrNode@@UAEXH@Z 100084b0 f i Dlg_lmat.obj
 0001:000074e0       ?IsLinSpr@CDrNode@@UAEHXZ  100084e0 f i Dlg_lmat.obj
 0001:00007500       ?SetLinSpr@CDrNode@@UAEXH@Z 10008500 f i Dlg_lmat.obj
 0001:00007530       ?IsLinSnu@CDrNode@@UAEHXZ  10008530 f i Dlg_lmat.obj
 0001:00007550       ?SetLinSnu@CDrNode@@UAEXH@Z 10008550 f i Dlg_lmat.obj
 0001:00007580       ?GetSuppCardList@CDrNode@@QAEPAV?$CList@Usupportcard@@U1@@@XZ 10008580 f i Dlg_lmat.obj
 0001:000075a0       ?GetStaLCardList@CDrNode@@QAEPAV?$CList@UstaLcard@@U1@@@XZ 100085a0 f i Dlg_lmat.obj
 0001:000075c0       ?IsSubDivided@CTriangle@@UAEHXZ 100085c0 f i Dlg_lmat.obj
 0001:000075e0       ?SetSubDivided@CTriangle@@UAEXH@Z 100085e0 f i Dlg_lmat.obj
 0001:00007600       ?GetSubTriangleIndex@CTriangle@@UAEHH@Z 10008600 f i Dlg_lmat.obj
 0001:00007620       ?SetSubTriangleIndex@CTriangle@@UAEXHH@Z 10008620 f i Dlg_lmat.obj
 0001:00007650       ?GetType@CTriangle@@UAEHXZ 10008650 f i Dlg_lmat.obj
 0001:00007670       ?SetType@CTriangle@@UAEXH@Z 10008670 f i Dlg_lmat.obj
 0001:00007690       ?GetCNIndexList@CTriangle@@UAEPAV?$CList@HH@@XZ 10008690 f i Dlg_lmat.obj
 0001:000076b0       ?GetPatIndex@CTriangle@@UAEHXZ 100086b0 f i Dlg_lmat.obj
 0001:000076d0       ?SetPatIndex@CTriangle@@UAEXH@Z 100086d0 f i Dlg_lmat.obj
 0001:000076f0       ?GetDegree@CTriangle@@UAEHXZ 100086f0 f i Dlg_lmat.obj
 0001:00007710       ?SetDegree@CTriangle@@UAEXH@Z 10008710 f i Dlg_lmat.obj
 0001:00007730       ?GetVertexIndex@CTriangle@@UAEHH@Z 10008730 f i Dlg_lmat.obj
 0001:00007750       ?SetVertexIndex@CTriangle@@UAEXHH@Z 10008750 f i Dlg_lmat.obj
 0001:00007780       ?GetVertexIndex@CTriangle@@UAEPAHXZ 10008780 f i Dlg_lmat.obj
 0001:000077a0       ?GetNebrVertexIndex@CTriangle@@UAEHH@Z 100087a0 f i Dlg_lmat.obj
 0001:000077c0       ?SetNebrVertexIndex@CTriangle@@UAEXHH@Z 100087c0 f i Dlg_lmat.obj
 0001:000077f0       ?GetNebrVertexIndex@CTriangle@@UAEPAHXZ 100087f0 f i Dlg_lmat.obj
 0001:00007810       ?GetNebrTriangleIndex@CTriangle@@UAEHH@Z 10008810 f i Dlg_lmat.obj
 0001:00007830       ?SetNebrTriangleIndex@CTriangle@@UAEXHH@Z 10008830 f i Dlg_lmat.obj
 0001:00007860       ?GetNebrTriangleIndex@CTriangle@@UAEPAHXZ 10008860 f i Dlg_lmat.obj
 0001:00007880       ?GetOutSeg@CTriangle@@UAEHXZ 10008880 f i Dlg_lmat.obj
 0001:000078a0       ?SetOutSeg@CTriangle@@UAEXH@Z 100088a0 f i Dlg_lmat.obj
 0001:000078c0       ?GetiOutGlo@CTriangle@@UAEHXZ 100088c0 f i Dlg_lmat.obj
 0001:000078e0       ?SetiOutGlo@CTriangle@@UAEXH@Z 100088e0 f i Dlg_lmat.obj
 0001:00007910       ?GetjOutGlo@CTriangle@@UAEHXZ 10008910 f i Dlg_lmat.obj
 0001:00007930       ?SetjOutGlo@CTriangle@@UAEXH@Z 10008930 f i Dlg_lmat.obj
 0001:00007960       ??1CTriangle@@UAE@XZ       10008960 f i Dlg_lmat.obj
 0001:000079c0       ??_GCTriangle@@UAEPAXI@Z   100089c0 f i Dlg_lmat.obj
 0001:00007a00       ??_ECTriangle@@UAEPAXI@Z   10008a00 f i Dlg_lmat.obj
 0001:00007a80       ?IsDirty@CDrCurve@@UAEHXZ  10008a80 f i Dlg_lmat.obj
 0001:00007aa0       ?SetDirty@CDrCurve@@UAEXH@Z 10008aa0 f i Dlg_lmat.obj
 0001:00007ad0       ?IsControlShapeNeeded@CDrCurve@@UAEHXZ 10008ad0 f i Dlg_lmat.obj
 0001:00007af0       ?SetControlShapeNeed@CDrCurve@@UAEXH@Z 10008af0 f i Dlg_lmat.obj
 0001:00007b20       ?IsPosted@CDrCurve@@UAEHXZ 10008b20 f i Dlg_lmat.obj
 0001:00007b40       ?SetPosted@CDrCurve@@UAEXH@Z 10008b40 f i Dlg_lmat.obj
 0001:00007b70       ?GetCN_BSList@CDrCurve@@QAEPAVCDListMgr@@XZ 10008b70 f i Dlg_lmat.obj
 0001:00007b90       ?GetVNodeList@CDrCurve@@QAEPAVCDListMgr@@XZ 10008b90 f i Dlg_lmat.obj
 0001:00007bb0       ?GetMeshElemDim@CDrCurve@@QAEHXZ 10008bb0 f i Dlg_lmat.obj
 0001:00007bd0       ?SetMeshElemDim@CDrCurve@@QAEXH@Z 10008bd0 f i Dlg_lmat.obj
 0001:00007c00       ?IsIso@CDrCurve@@QAEHXZ    10008c00 f i Dlg_lmat.obj
 0001:00007c20       ?SetIso@CDrCurve@@QAEXH@Z  10008c20 f i Dlg_lmat.obj
 0001:00007c50       ?GetIsoToID@CDrCurve@@QAEAAVCString@@XZ 10008c50 f i Dlg_lmat.obj
 0001:00007c70       ?SetIsoToID@CDrCurve@@QAEXAAVCString@@@Z 10008c70 f i Dlg_lmat.obj
 0001:00007ca0       ?GetCompoType@CDrCurve@@QAEHXZ 10008ca0 f i Dlg_lmat.obj
 0001:00007cc0       ?SetCompoType@CDrCurve@@QAEXH@Z 10008cc0 f i Dlg_lmat.obj
 0001:00007cf0       ?GetCompoID@CDrCurve@@QAEAAVCString@@XZ 10008cf0 f i Dlg_lmat.obj
 0001:00007d10       ?SetCompoID@CDrCurve@@QAEXAAVCString@@@Z 10008d10 f i Dlg_lmat.obj
 0001:00007d40       ?GetClass_S@CDrCurve@@QAEHXZ 10008d40 f i Dlg_lmat.obj
 0001:00007d60       ?SetClass_S@CDrCurve@@QAEXH@Z 10008d60 f i Dlg_lmat.obj
 0001:00007d90       ?GetOutSegUnif_S@CDrCurve@@QAEHXZ 10008d90 f i Dlg_lmat.obj
 0001:00007db0       ?SetOutSegUnif_S@CDrCurve@@QAEXH@Z 10008db0 f i Dlg_lmat.obj
 0001:00007de0       ?IsClosed_S@CDrCurve@@QAEHXZ 10008de0 f i Dlg_lmat.obj
 0001:00007e00       ?SetClosed_S@CDrCurve@@QAEXH@Z 10008e00 f i Dlg_lmat.obj
 0001:00007e30       ?GetCurveObjectType@CDrCurve@@QAEHXZ 10008e30 f i Dlg_lmat.obj
 0001:00007e50       ?SetCurveObjectType@CDrCurve@@QAEXH@Z 10008e50 f i Dlg_lmat.obj
 0001:00007e80       ?GetMaxINodes_S@CDrCurve@@QAEHXZ 10008e80 f i Dlg_lmat.obj
 0001:00007ea0       ?SetMaxINodes_S@CDrCurve@@QAEXH@Z 10008ea0 f i Dlg_lmat.obj
 0001:00007ed0       ?GetMaxCNodes_S@CDrCurve@@QAEHXZ 10008ed0 f i Dlg_lmat.obj
 0001:00007ef0       ?SetMaxCNodes_S@CDrCurve@@QAEXH@Z 10008ef0 f i Dlg_lmat.obj
 0001:00007f20       ?GetMaxBezSegments_S@CDrCurve@@QAEHXZ 10008f20 f i Dlg_lmat.obj
 0001:00007f40       ?SetMaxBezSegments_S@CDrCurve@@QAEXH@Z 10008f40 f i Dlg_lmat.obj
 0001:00007f70       ?GetMaxOutPts_S@CDrCurve@@QAEHXZ 10008f70 f i Dlg_lmat.obj
 0001:00007f90       ?SetMaxOutPts_S@CDrCurve@@QAEXH@Z 10008f90 f i Dlg_lmat.obj
 0001:00007fc0       ?GetLongOutPts@CDrCurve@@QAEJXZ 10008fc0 f i Dlg_lmat.obj
 0001:00007fe0       ?SetLongOutPts@CDrCurve@@QAEXJ@Z 10008fe0 f i Dlg_lmat.obj
 0001:00008010       ?GetCurveType_S@CDrCurve@@QAE?AW4CURVEPROC@@XZ 10009010 f i Dlg_lmat.obj
 0001:00008030       ?SetCurveType_S@CDrCurve@@QAEXW4CURVEPROC@@@Z 10009030 f i Dlg_lmat.obj
 0001:00008060       ?GetOutMethod@CDrCurve@@QAE?AW4CURVEOUTPUT@@XZ 10009060 f i Dlg_lmat.obj
 0001:00008080       ?GetAlfa@CDrCurve@@QAENXZ  10009080 f i Dlg_lmat.obj
 0001:000080a0       ?GetBias@CDrCurve@@QAENXZ  100090a0 f i Dlg_lmat.obj
 0001:000080c0       ?GetTension@CDrCurve@@QAENXZ 100090c0 f i Dlg_lmat.obj
 0001:000080e0       ?IsUniform_S@CDrCurve@@QAEHXZ 100090e0 f i Dlg_lmat.obj
 0001:00008100       ?SetUniform_S@CDrCurve@@QAEXH@Z 10009100 f i Dlg_lmat.obj
 0001:00008130       ?SetOutMethod_S@CDrCurve@@QAEXW4CURVEOUTPUT@@@Z 10009130 f i Dlg_lmat.obj
 0001:00008160       ?GetMaxOutSeg_S@CDrCurve@@QAEHXZ 10009160 f i Dlg_lmat.obj
 0001:00008180       ?SetMaxOutSeg_S@CDrCurve@@QAEXH@Z 10009180 f i Dlg_lmat.obj
 0001:000081b0       ?GetDis_AngPointer_S@CDrCurve@@QAEPANXZ 100091b0 f i Dlg_lmat.obj
 0001:000081d0       ?SetDis_AngPointer_S@CDrCurve@@QAEXPAN@Z 100091d0 f i Dlg_lmat.obj
 0001:00008200       ?GetNum_tPointer_S@CDrCurve@@QAEPAHXZ 10009200 f i Dlg_lmat.obj
 0001:00008220       ?SetNum_tPointer_S@CDrCurve@@QAEXPAH@Z 10009220 f i Dlg_lmat.obj
 0001:00008250       ?GetDis_tPointer_S@CDrCurve@@QAEPANXZ 10009250 f i Dlg_lmat.obj
 0001:00008270       ?SetDis_tPointer_S@CDrCurve@@QAEXPAN@Z 10009270 f i Dlg_lmat.obj
 0001:000082a0       ?GetNum_tPointer_Ex_S@CDrCurve@@QAEPAHXZ 100092a0 f i Dlg_lmat.obj
 0001:000082c0       ?SetNum_tPointer_Ex_S@CDrCurve@@QAEXPAH@Z 100092c0 f i Dlg_lmat.obj
 0001:000082f0       ?GetnBSeg_Ex_S@CDrCurve@@QAEHXZ 100092f0 f i Dlg_lmat.obj
 0001:00008310       ?SetnBSeg_Ex_S@CDrCurve@@QAEXH@Z 10009310 f i Dlg_lmat.obj
 0001:00008340       ?GetBSegPointer_Ex_S@CDrCurve@@QAEPAHXZ 10009340 f i Dlg_lmat.obj
 0001:00008360       ?SetBSegPointer_Ex_S@CDrCurve@@QAEXPAH@Z 10009360 f i Dlg_lmat.obj
 0001:00008390       ?SetAlfa@CDrCurve@@QAEXN@Z 10009390 f i Dlg_lmat.obj
 0001:000083c0       ?SetBias@CDrCurve@@QAEXN@Z 100093c0 f i Dlg_lmat.obj
 0001:000083f0       ?SetTension@CDrCurve@@QAEXN@Z 100093f0 f i Dlg_lmat.obj
 0001:00008420       ?GetMemIn@CDrCurve@@QAEPAUWORLD@@XZ 10009420 f i Dlg_lmat.obj
 0001:00008440       ?GetMemInWts@CDrCurve@@QAEPANXZ 10009440 f i Dlg_lmat.obj
 0001:00008460       ?GetMemInDP@CDrCurve@@QAEPAUtagPOINT@@XZ 10009460 f i Dlg_lmat.obj
 0001:00008480       ?GetMemOut@CDrCurve@@QAEPAUWORLD@@XZ 10009480 f i Dlg_lmat.obj
 0001:000084a0       ?GetMemOutWts@CDrCurve@@QAEPANXZ 100094a0 f i Dlg_lmat.obj
 0001:000084c0       ?GetMemOutDP@CDrCurve@@QAEPAUtagPOINT@@XZ 100094c0 f i Dlg_lmat.obj
 0001:000084e0       ?SetMemIn@CDrCurve@@QAEXPAUWORLD@@@Z 100094e0 f i Dlg_lmat.obj
 0001:00008510       ?SetMemInWts@CDrCurve@@QAEXPAN@Z 10009510 f i Dlg_lmat.obj
 0001:00008540       ?SetMemInDP@CDrCurve@@QAEXPAUtagPOINT@@@Z 10009540 f i Dlg_lmat.obj
 0001:00008570       ?SetMemOut@CDrCurve@@QAEXPAUWORLD@@@Z 10009570 f i Dlg_lmat.obj
 0001:000085a0       ?SetMemOutWts@CDrCurve@@QAEXPAN@Z 100095a0 f i Dlg_lmat.obj
 0001:000085d0       ?SetMemOutDP@CDrCurve@@QAEXPAUtagPOINT@@@Z 100095d0 f i Dlg_lmat.obj
 0001:00008600       ?FixMemD@CDrCurve@@QAEPANJ@Z 10009600 f i Dlg_lmat.obj
 0001:00008640       ?FreeMemD@CDrCurve@@QAEXPAN@Z 10009640 f i Dlg_lmat.obj
 0001:00008670       ?FixMem@CDrCurve@@QAEPAUWORLD@@J@Z 10009670 f i Dlg_lmat.obj
 0001:000086b0       ?FreeMem@CDrCurve@@QAEXPAUWORLD@@@Z 100096b0 f i Dlg_lmat.obj
 0001:000086e0       ?FixMemDP@CDrCurve@@QAEPAUtagPOINT@@J@Z 100096e0 f i Dlg_lmat.obj
 0001:00008720       ?FreeMemDP@CDrCurve@@QAEXPAUtagPOINT@@@Z 10009720 f i Dlg_lmat.obj
 0001:00008750       ?GetData_S@CDrCurve@@QAEHXZ 10009750 f i Dlg_lmat.obj
 0001:00008770       ?SetData_S@CDrCurve@@QAEXH@Z 10009770 f i Dlg_lmat.obj
 0001:000087a0       ?GetOrder_S@CDrCurve@@QAEHXZ 100097a0 f i Dlg_lmat.obj
 0001:000087c0       ?SetOrder_S@CDrCurve@@QAEXH@Z 100097c0 f i Dlg_lmat.obj
 0001:000087f0       ?GetKnotType_S@CDrCurve@@QAE?AW4KNOT@@XZ 100097f0 f i Dlg_lmat.obj
 0001:00008810       ?SetKnotType_S@CDrCurve@@QAEXW4KNOT@@@Z 10009810 f i Dlg_lmat.obj
 0001:00008840       ?GetWtType_S@CDrCurve@@QAE?AW4WEIGHT@@XZ 10009840 f i Dlg_lmat.obj
 0001:00008860       ?SetWtType_S@CDrCurve@@QAEXW4WEIGHT@@@Z 10009860 f i Dlg_lmat.obj
 0001:00008890       ?GetBCL_S@CDrCurve@@QAE?AW4BOUNDARY@@XZ 10009890 f i Dlg_lmat.obj
 0001:000088b0       ?SetBCL_S@CDrCurve@@QAEXW4BOUNDARY@@@Z 100098b0 f i Dlg_lmat.obj
 0001:000088e0       ?GetBCR_S@CDrCurve@@QAE?AW4BOUNDARY@@XZ 100098e0 f i Dlg_lmat.obj
 0001:00008900       ?SetBCR_S@CDrCurve@@QAEXW4BOUNDARY@@@Z 10009900 f i Dlg_lmat.obj
 0001:00008930       ?GetTanL_S@CDrCurve@@QAE?AUVECTOR@@XZ 10009930 f i Dlg_lmat.obj
 0001:00008960       ?SetTanL_S@CDrCurve@@QAEXUVECTOR@@@Z 10009960 f i Dlg_lmat.obj
 0001:00008990       ?GetTanR_S@CDrCurve@@QAE?AUVECTOR@@XZ 10009990 f i Dlg_lmat.obj
 0001:000089c0       ?SetTanR_S@CDrCurve@@QAEXUVECTOR@@@Z 100099c0 f i Dlg_lmat.obj
 0001:000089f0       ?GetnCon_BS_S@CDrCurve@@QAEHXZ 100099f0 f i Dlg_lmat.obj
 0001:00008a10       ?SetnCon_BS_S@CDrCurve@@QAEXH@Z 10009a10 f i Dlg_lmat.obj
 0001:00008a40       ?GetnCon_BZ_S@CDrCurve@@QAEHXZ 10009a40 f i Dlg_lmat.obj
 0001:00008a60       ?SetnCon_BZ_S@CDrCurve@@QAEXH@Z 10009a60 f i Dlg_lmat.obj
 0001:00008a90       ?GetnMKnots_S@CDrCurve@@QAEHXZ 10009a90 f i Dlg_lmat.obj
 0001:00008ab0       ?SetnMKnots_S@CDrCurve@@QAEXH@Z 10009ab0 f i Dlg_lmat.obj
 0001:00008ae0       ?GetnKnots_S@CDrCurve@@QAEHXZ 10009ae0 f i Dlg_lmat.obj
 0001:00008b00       ?SetnKnots_S@CDrCurve@@QAEXH@Z 10009b00 f i Dlg_lmat.obj
 0001:00008b30       ?GetnDim_S@CDrCurve@@QAEHXZ 10009b30 f i Dlg_lmat.obj
 0001:00008b50       ?SetnDim_S@CDrCurve@@QAEXH@Z 10009b50 f i Dlg_lmat.obj
 0001:00008b80       ?GetpMKnots_S@CDrCurve@@QAEPANXZ 10009b80 f i Dlg_lmat.obj
 0001:00008ba0       ?SetpMKnots_S@CDrCurve@@QAEXPAN@Z 10009ba0 f i Dlg_lmat.obj
 0001:00008bd0       ?GetpWts_BS_S@CDrCurve@@QAEPANXZ 10009bd0 f i Dlg_lmat.obj
 0001:00008bf0       ?SetpWts_BS_S@CDrCurve@@QAEXPAN@Z 10009bf0 f i Dlg_lmat.obj
 0001:00008c20       ?GetpKnots_S@CDrCurve@@QAEPANXZ 10009c20 f i Dlg_lmat.obj
 0001:00008c40       ?SetpKnots_S@CDrCurve@@QAEXPAN@Z 10009c40 f i Dlg_lmat.obj
 0001:00008c70       ?GetpWts_DT_S@CDrCurve@@QAEPANXZ 10009c70 f i Dlg_lmat.obj
 0001:00008c90       ?SetpWts_DT_S@CDrCurve@@QAEXPAN@Z 10009c90 f i Dlg_lmat.obj
 0001:00008cc0       ?GetpWts_BZ_S@CDrCurve@@QAEPANXZ 10009cc0 f i Dlg_lmat.obj
 0001:00008ce0       ?SetpWts_BZ_S@CDrCurve@@QAEXPAN@Z 10009ce0 f i Dlg_lmat.obj
 0001:00008d10       ?GetFromIDNode_S@CDrCurve@@QAEPAVCDrNode@@XZ 10009d10 f i Dlg_lmat.obj
 0001:00008d30       ?SetFromIDNode_S@CDrCurve@@QAEXPAVCDrNode@@@Z 10009d30 f i Dlg_lmat.obj
 0001:00008d60       ?GetToIDNode_S@CDrCurve@@QAEPAVCDrNode@@XZ 10009d60 f i Dlg_lmat.obj
 0001:00008d80       ?SetToIDNode_S@CDrCurve@@QAEXPAVCDrNode@@@Z 10009d80 f i Dlg_lmat.obj
 0001:00008db0       ?GetData_Ex_S@CDrCurve@@QAEHXZ 10009db0 f i Dlg_lmat.obj
 0001:00008dd0       ?SetData_Ex_S@CDrCurve@@QAEXH@Z 10009dd0 f i Dlg_lmat.obj
 0001:00008e00       ?IsExpanded_S@CDrCurve@@QAEHXZ 10009e00 f i Dlg_lmat.obj
 0001:00008e20       ?SetExpanded_S@CDrCurve@@QAEXH@Z 10009e20 f i Dlg_lmat.obj
 0001:00008e50       ?GetMaxENodes_S@CDrCurve@@QAEHXZ 10009e50 f i Dlg_lmat.obj
 0001:00008e70       ?SetMaxENodes_S@CDrCurve@@QAEXH@Z 10009e70 f i Dlg_lmat.obj
 0001:00008ea0       ?GetRadius_S@CDrCurve@@QAENXZ 10009ea0 f i Dlg_lmat.obj
 0001:00008ec0       ?SetRadius_S@CDrCurve@@QAEXN@Z 10009ec0 f i Dlg_lmat.obj
 0001:00008ef0       ?GetTheta_S@CDrCurve@@QAENXZ 10009ef0 f i Dlg_lmat.obj
 0001:00008f10       ?SetTheta_S@CDrCurve@@QAEXN@Z 10009f10 f i Dlg_lmat.obj
 0001:00008f40       ?GetCenter_S@CDrCurve@@QAE?AUWORLD@@XZ 10009f40 f i Dlg_lmat.obj
 0001:00008f70       ?SetCenter_S@CDrCurve@@QAEXUWORLD@@@Z 10009f70 f i Dlg_lmat.obj
 0001:00008fd0       ?GetNormal_S@CDrCurve@@QAE?AUWORLD@@XZ 10009fd0 f i Dlg_lmat.obj
 0001:00009000       ?SetNormal_S@CDrCurve@@QAEXUWORLD@@@Z 1000a000 f i Dlg_lmat.obj
 0001:00009060       ?GetSegAngle_S@CDrCurve@@QAENXZ 1000a060 f i Dlg_lmat.obj
 0001:00009080       ?SetSegAngle_S@CDrCurve@@QAEXN@Z 1000a080 f i Dlg_lmat.obj
 0001:000090b0       ?GetCNode_CC@CDrCurve@@QAEPAVCDrNode@@XZ 1000a0b0 f i Dlg_lmat.obj
 0001:000090d0       ?SetCNode_CC@CDrCurve@@QAEXPAVCDrNode@@@Z 1000a0d0 f i Dlg_lmat.obj
 0001:00009100       ?GetCNode_TI@CDrCurve@@QAEPAVCDrNode@@XZ 1000a100 f i Dlg_lmat.obj
 0001:00009120       ?SetCNode_TI@CDrCurve@@QAEXPAVCDrNode@@@Z 1000a120 f i Dlg_lmat.obj
 0001:00009150       ?GetCNode_CA@CDrCurve@@QAEPAVCDrNode@@XZ 1000a150 f i Dlg_lmat.obj
 0001:00009170       ?SetCNode_CA@CDrCurve@@QAEXPAVCDrNode@@@Z 1000a170 f i Dlg_lmat.obj
 0001:000091a0       ?GetCNode_CB@CDrCurve@@QAEPAVCDrNode@@XZ 1000a1a0 f i Dlg_lmat.obj
 0001:000091c0       ?SetCNode_CB@CDrCurve@@QAEXPAVCDrNode@@@Z 1000a1c0 f i Dlg_lmat.obj
 0001:000091f0       ?IsHole_S@CDrCurve@@QAEHXZ 1000a1f0 f i Dlg_lmat.obj
 0001:00009210       ?SetHole_S@CDrCurve@@QAEXH@Z 1000a210 f i Dlg_lmat.obj
 0001:00009240       ?GetpTangents_S@CDrCurve@@QAEPAUWORLD@@XZ 1000a240 f i Dlg_lmat.obj
 0001:00009260       ?SetpTangents_S@CDrCurve@@QAEXPAUWORLD@@@Z 1000a260 f i Dlg_lmat.obj
 0001:00009290       ?GetpCurvatures_S@CDrCurve@@QAEPANXZ 1000a290 f i Dlg_lmat.obj
 0001:000092b0       ?SetpCurvatures_S@CDrCurve@@QAEXPAN@Z 1000a2b0 f i Dlg_lmat.obj
 0001:000092e0       ?GetRatio_S@CDrCurve@@QAENXZ 1000a2e0 f i Dlg_lmat.obj
 0001:00009300       ?SetRatio_S@CDrCurve@@QAEXN@Z 1000a300 f i Dlg_lmat.obj
 0001:00009330       ?IsAxisInput@CDrCurve@@QAEHXZ 1000a330 f i Dlg_lmat.obj
 0001:00009350       ?SetAxisInput@CDrCurve@@QAEXH@Z 1000a350 f i Dlg_lmat.obj
 0001:00009380       ?GetAxis@CDrCurve@@QAEHXZ  1000a380 f i Dlg_lmat.obj
 0001:000093a0       ?SetAxis@CDrCurve@@QAEXH@Z 1000a3a0 f i Dlg_lmat.obj
 0001:000093d0       ?IsNegative@CDrCurve@@QAEHXZ 1000a3d0 f i Dlg_lmat.obj
 0001:000093f0       ?SetNegative@CDrCurve@@QAEXH@Z 1000a3f0 f i Dlg_lmat.obj
 0001:00009420       ?GetCircleType@CDrCurve@@QAE?AW4CIRCLETYPE@@XZ 1000a420 f i Dlg_lmat.obj
 0001:00009440       ?SetCircleType@CDrCurve@@QAEXW4CIRCLETYPE@@@Z 1000a440 f i Dlg_lmat.obj
 0001:00009470       ?GetInputType@CDrCurve@@QAEHXZ 1000a470 f i Dlg_lmat.obj
 0001:00009490       ?SetInputType@CDrCurve@@QAEXH@Z 1000a490 f i Dlg_lmat.obj
 0001:000094c0       ?IsArcType@CDrCurve@@QAEHXZ 1000a4c0 f i Dlg_lmat.obj
 0001:000094e0       ?SetArcType@CDrCurve@@QAEXH@Z 1000a4e0 f i Dlg_lmat.obj
 0001:00009510       ?GetElperSegList_S@CDrCurve@@QAEPAV?$CList@HH@@XZ 1000a510 f i Dlg_lmat.obj
 0001:00009530       ?IsSkewed@CDrCurve@@UAEHXZ 1000a530 f i Dlg_lmat.obj
 0001:00009550       ?SetSkewed@CDrCurve@@UAEXH@Z 1000a550 f i Dlg_lmat.obj
 0001:00009580       ?IsLinSpr@CDrCurve@@UAEHXZ 1000a580 f i Dlg_lmat.obj
 0001:000095a0       ?SetLinSpr@CDrCurve@@UAEXH@Z 1000a5a0 f i Dlg_lmat.obj
 0001:000095d0       ?IsLinSnu@CDrCurve@@UAEHXZ 1000a5d0 f i Dlg_lmat.obj
 0001:000095f0       ?SetLinSnu@CDrCurve@@UAEXH@Z 1000a5f0 f i Dlg_lmat.obj
 0001:00009620       ?CullWorld@CDrCurve@@UAEHUWORLD@@@Z 1000a620 f i Dlg_lmat.obj
 0001:00009640       ?CullScreen@CDrCurve@@UAEHPAUMATRIX@@@Z 1000a640 f i Dlg_lmat.obj
 0001:00009660       ?Calc_CentroidWorld@CDrCurve@@UAEXXZ 1000a660 f i Dlg_lmat.obj
 0001:00009680       ?Calc_CentroidEye@CDrCurve@@UAEXXZ 1000a680 f i Dlg_lmat.obj
 0001:000096a0       ?Calc_CentroidScreen3D@CDrCurve@@UAEXNN@Z 1000a6a0 f i Dlg_lmat.obj
 0001:000096c0       ?Calc_NormalWorld@CDrCurve@@UAEXXZ 1000a6c0 f i Dlg_lmat.obj
 0001:000096e0       ?TransformNormalToEye@CDrCurve@@UAEXPAUMATRIX@@@Z 1000a6e0 f i Dlg_lmat.obj
 0001:00009700       ?ProjectNormalToScreen3D@CDrCurve@@UAEXPAUMATRIX@@NN@Z 1000a700 f i Dlg_lmat.obj
 0001:00009720       ?GetNormalWorld@CDrCurve@@UAEPAUWORLD@@XZ 1000a720 f i Dlg_lmat.obj
 0001:00009740       ?SetNormalWorld@CDrCurve@@UAEXUWORLD@@@Z 1000a740 f i Dlg_lmat.obj
 0001:00009760       ?GetNormalEye@CDrCurve@@UAEPAUWORLD@@XZ 1000a760 f i Dlg_lmat.obj
 0001:00009780       ?SetNormalEye@CDrCurve@@UAEXUWORLD@@@Z 1000a780 f i Dlg_lmat.obj
 0001:000097a0       ?GetNormalScreen3D@CDrCurve@@UAEPAUWORLD@@XZ 1000a7a0 f i Dlg_lmat.obj
 0001:000097c0       ?SetNormalScreen3D@CDrCurve@@UAEXUWORLD@@@Z 1000a7c0 f i Dlg_lmat.obj
 0001:000097e0       ?GetNormalScreen2D@CDrCurve@@UAEPAUtagPOINT@@XZ 1000a7e0 f i Dlg_lmat.obj
 0001:00009800       ?SetNormalScreen2D@CDrCurve@@UAEXUtagPOINT@@@Z 1000a800 f i Dlg_lmat.obj
 0001:00009820       ?GetNodTopoList@CDrCurve@@QAEPAVCDListMgr@@XZ 1000a820 f i Dlg_lmat.obj
 0001:00009840       ?GetSuppCardList@CDrCurve@@QAEPAV?$CList@Usupportcard@@U1@@@XZ 1000a840 f i Dlg_lmat.obj
 0001:00009860       ?GetStaLCardList@CDrCurve@@QAEPAV?$CList@UstaLcard@@U1@@@XZ 1000a860 f i Dlg_lmat.obj
 0001:00009880       ?GetBndryPtList@CDrCurve@@QAEPAV?$CList@UWORLD@@U1@@@XZ 1000a880 f i Dlg_lmat.obj
 0001:000098a0       ?GetBezierType@CDrCurve@@QAE?AW4BEZIERTYPE@@XZ 1000a8a0 f i Dlg_lmat.obj
 0001:000098c0       ?SetBezierType@CDrCurve@@QAEXW4BEZIERTYPE@@@Z 1000a8c0 f i Dlg_lmat.obj
 0001:000098f0       ?GetCategory@CDrPatch@@UAE?AW4CATEGORY@@XZ 1000a8f0 f i Dlg_lmat.obj
 0001:00009910       ?SetCategory@CDrPatch@@UAEXW4CATEGORY@@@Z 1000a910 f i Dlg_lmat.obj
 0001:00009930       ?IsNormalNeeded@CDrPatch@@UAEHXZ 1000a930 f i Dlg_lmat.obj
 0001:00009950       ?SetNormalNeed@CDrPatch@@UAEXH@Z 1000a950 f i Dlg_lmat.obj
 0001:00009980       ?GetCurveType_T@CDrPatch@@QAE?AW4CURVEPROC@@XZ 1000a980 f i Dlg_lmat.obj
 0001:000099a0       ?SetCurveType_T@CDrPatch@@QAEXW4CURVEPROC@@@Z 1000a9a0 f i Dlg_lmat.obj
 0001:000099d0       ?GetOutSegUnif_T@CDrPatch@@QAEHXZ 1000a9d0 f i Dlg_lmat.obj
 0001:000099f0       ?SetOutSegUnif_T@CDrPatch@@QAEXH@Z 1000a9f0 f i Dlg_lmat.obj
 0001:00009a20       ?IsClosed_T@CDrPatch@@QAEHXZ 1000aa20 f i Dlg_lmat.obj
 0001:00009a40       ?SetClosed_T@CDrPatch@@QAEXH@Z 1000aa40 f i Dlg_lmat.obj
 0001:00009a70       ?GetMaxBezSegments_T@CDrPatch@@QAEHXZ 1000aa70 f i Dlg_lmat.obj
 0001:00009a90       ?SetMaxBezSegments_T@CDrPatch@@QAEXH@Z 1000aa90 f i Dlg_lmat.obj
 0001:00009ac0       ?GetMaxCNodes_T@CDrPatch@@QAEHXZ 1000aac0 f i Dlg_lmat.obj
 0001:00009ae0       ?SetMaxCNodes_T@CDrPatch@@QAEXH@Z 1000aae0 f i Dlg_lmat.obj
 0001:00009b10       ?GetMaxOutPts_T@CDrPatch@@QAEHXZ 1000ab10 f i Dlg_lmat.obj
 0001:00009b30       ?SetMaxOutPts_T@CDrPatch@@QAEXH@Z 1000ab30 f i Dlg_lmat.obj
 0001:00009b60       ?GetNodes_S@CDrPatch@@QAEHXZ 1000ab60 f i Dlg_lmat.obj
 0001:00009b80       ?SetNodes_S@CDrPatch@@QAEXH@Z 1000ab80 f i Dlg_lmat.obj
 0001:00009bb0       ?GetNodes_T@CDrPatch@@QAEHXZ 1000abb0 f i Dlg_lmat.obj
 0001:00009bd0       ?SetNodes_T@CDrPatch@@QAEXH@Z 1000abd0 f i Dlg_lmat.obj
 0001:00009c00       ?GetPrimaryDir@CDrPatch@@QAEHXZ 1000ac00 f i Dlg_lmat.obj
 0001:00009c20       ?SetPrimaryDir@CDrPatch@@QAEXH@Z 1000ac20 f i Dlg_lmat.obj
 0001:00009c50       ?GetBlendCurve@CDrPatch@@QAEPAVCDrCurve@@XZ 1000ac50 f i Dlg_lmat.obj
 0001:00009c70       ?SetBlendCurve@CDrPatch@@QAEXPAVCDrCurve@@@Z 1000ac70 f i Dlg_lmat.obj
 0001:00009ca0       ?GetBlendCurve_U@CDrPatch@@QAEPAVCDrCurve@@XZ 1000aca0 f i Dlg_lmat.obj
 0001:00009cc0       ?SetBlendCurve_U@CDrPatch@@QAEXPAVCDrCurve@@@Z 1000acc0 f i Dlg_lmat.obj
 0001:00009cf0       ?GetBlendCurve_V@CDrPatch@@QAEPAVCDrCurve@@XZ 1000acf0 f i Dlg_lmat.obj
 0001:00009d10       ?SetBlendCurve_V@CDrPatch@@QAEXPAVCDrCurve@@@Z 1000ad10 f i Dlg_lmat.obj
 0001:00009d40       ?GetBlendCurve_W@CDrPatch@@QAEPAVCDrCurve@@XZ 1000ad40 f i Dlg_lmat.obj
 0001:00009d60       ?SetBlendCurve_W@CDrPatch@@QAEXPAVCDrCurve@@@Z 1000ad60 f i Dlg_lmat.obj
 0001:00009d90       ?GetVCurveList@CDrPatch@@QAEPAVCDListMgr@@XZ 1000ad90 f i Dlg_lmat.obj
 0001:00009db0       ?GetCurveList_U@CDrPatch@@QAEPAVCDListMgr@@XZ 1000adb0 f i Dlg_lmat.obj
 0001:00009dd0       ?GetCurveList_V@CDrPatch@@QAEPAVCDListMgr@@XZ 1000add0 f i Dlg_lmat.obj
 0001:00009df0       ?GetCurveList_W@CDrPatch@@QAEPAVCDListMgr@@XZ 1000adf0 f i Dlg_lmat.obj
 0001:00009e10       ?GetCurveLatchList_U@CDrPatch@@QAEPAV?$CList@W4CURVELATCH@@W41@@@XZ 1000ae10 f i Dlg_lmat.obj
 0001:00009e30       ?GetCurveLatchList_V@CDrPatch@@QAEPAV?$CList@W4CURVELATCH@@W41@@@XZ 1000ae30 f i Dlg_lmat.obj
 0001:00009e50       ?GetCurveLatchList_W@CDrPatch@@QAEPAV?$CList@W4CURVELATCH@@W41@@@XZ 1000ae50 f i Dlg_lmat.obj
 0001:00009e70       ?IsAdvancedEnd_U@CDrPatch@@QAEHXZ 1000ae70 f i Dlg_lmat.obj
 0001:00009e90       ?SetAdvancedEnd_U@CDrPatch@@QAEXH@Z 1000ae90 f i Dlg_lmat.obj
 0001:00009ec0       ?GetCornerTwist_U@CDrPatch@@QAEPAY01UWORLD@@XZ 1000aec0 f i Dlg_lmat.obj
 0001:00009ee0       ?SetCornerTwist_U@CDrPatch@@QAEXPAY01UWORLD@@@Z 1000aee0 f i Dlg_lmat.obj
 0001:00009f10       ?GetTwistMethod_U@CDrPatch@@QAE?AW4TWIST@@XZ 1000af10 f i Dlg_lmat.obj
 0001:00009f30       ?SetTwistMethod_U@CDrPatch@@QAEXW4TWIST@@@Z 1000af30 f i Dlg_lmat.obj
 0001:00009f60       ?IsAdvancedEnd_V@CDrPatch@@QAEHXZ 1000af60 f i Dlg_lmat.obj
 0001:00009f80       ?SetAdvancedEnd_V@CDrPatch@@QAEXH@Z 1000af80 f i Dlg_lmat.obj
 0001:00009fb0       ?GetCornerTwist_V@CDrPatch@@QAEPAY01UWORLD@@XZ 1000afb0 f i Dlg_lmat.obj
 0001:00009fd0       ?SetCornerTwist_V@CDrPatch@@QAEXPAY01UWORLD@@@Z 1000afd0 f i Dlg_lmat.obj
 0001:0000a000       ?GetTwistMethod_V@CDrPatch@@QAE?AW4TWIST@@XZ 1000b000 f i Dlg_lmat.obj
 0001:0000a020       ?SetTwistMethod_V@CDrPatch@@QAEXW4TWIST@@@Z 1000b020 f i Dlg_lmat.obj
 0001:0000a050       ?GetEndList_U@CDrPatch@@QAEPAV?$CList@Ublendend@@U1@@@XZ 1000b050 f i Dlg_lmat.obj
 0001:0000a070       ?GetEndList_V@CDrPatch@@QAEPAV?$CList@Ublendend@@U1@@@XZ 1000b070 f i Dlg_lmat.obj
 0001:0000a090       ?GetElperSegList_T@CDrPatch@@QAEPAV?$CList@HH@@XZ 1000b090 f i Dlg_lmat.obj
 0001:0000a0b0       ?GetCurveID@CDrPatch@@QAE?AVCString@@H@Z 1000b0b0 f i Dlg_lmat.obj
 0001:0000a0f0       ?SetCurveID@CDrPatch@@QAEXVCString@@H@Z 1000b0f0 f i Dlg_lmat.obj
 0001:0000a150       ?GetBndryCurve@CDrPatch@@QAEPAVCDrCurve@@H@Z 1000b150 f i Dlg_lmat.obj
 0001:0000a180       ?SetCurve@CDrPatch@@QAEXPAVCDrCurve@@H@Z 1000b180 f i Dlg_lmat.obj
 0001:0000a1b0       ?GetCurveLatch@CDrPatch@@QAE?AW4CURVELATCH@@H@Z 1000b1b0 f i Dlg_lmat.obj
 0001:0000a1e0       ?SetCurveLatch@CDrPatch@@QAEXW4CURVELATCH@@H@Z 1000b1e0 f i Dlg_lmat.obj
 0001:0000a210       ?GetFromIDNode_T@CDrPatch@@QAEPAVCDrNode@@XZ 1000b210 f i Dlg_lmat.obj
 0001:0000a230       ?SetFromIDNode_T@CDrPatch@@QAEXPAVCDrNode@@@Z 1000b230 f i Dlg_lmat.obj
 0001:0000a260       ?GetToIDNode_T@CDrPatch@@QAEPAVCDrNode@@XZ 1000b260 f i Dlg_lmat.obj
 0001:0000a280       ?SetToIDNode_T@CDrPatch@@QAEXPAVCDrNode@@@Z 1000b280 f i Dlg_lmat.obj
 0001:0000a2b0       ?GetFromPtLocal_T@CDrPatch@@QAEPAUWORLD@@XZ 1000b2b0 f i Dlg_lmat.obj
 0001:0000a2d0       ?SetFromPtLocal_T@CDrPatch@@QAEXUWORLD@@@Z 1000b2d0 f i Dlg_lmat.obj
 0001:0000a300       ?GetToPtLocal_T@CDrPatch@@QAEPAUWORLD@@XZ 1000b300 f i Dlg_lmat.obj
 0001:0000a320       ?SetToPtLocal_T@CDrPatch@@QAEXUWORLD@@@Z 1000b320 f i Dlg_lmat.obj
 0001:0000a350       ?GetFromPtWorld_T@CDrPatch@@QAEPAUWORLD@@XZ 1000b350 f i Dlg_lmat.obj
 0001:0000a370       ?SetFromPtWorld_T@CDrPatch@@QAEXUWORLD@@@Z 1000b370 f i Dlg_lmat.obj
 0001:0000a3a0       ?GetToPtWorld_T@CDrPatch@@QAEPAUWORLD@@XZ 1000b3a0 f i Dlg_lmat.obj
 0001:0000a3c0       ?SetToPtWorld_T@CDrPatch@@QAEXUWORLD@@@Z 1000b3c0 f i Dlg_lmat.obj
 0001:0000a3f0       ?GetFromPtEye_T@CDrPatch@@QAEPAUWORLD@@XZ 1000b3f0 f i Dlg_lmat.obj
 0001:0000a410       ?SetFromPtEye_T@CDrPatch@@QAEXUWORLD@@@Z 1000b410 f i Dlg_lmat.obj
 0001:0000a440       ?GetToPtEye_T@CDrPatch@@QAEPAUWORLD@@XZ 1000b440 f i Dlg_lmat.obj
 0001:0000a460       ?SetToPtEye_T@CDrPatch@@QAEXUWORLD@@@Z 1000b460 f i Dlg_lmat.obj
 0001:0000a490       ?GetAxis_T@CDrPatch@@QAEPAUWORLD@@XZ 1000b490 f i Dlg_lmat.obj
 0001:0000a4b0       ?SetAxis_T@CDrPatch@@QAEXUWORLD@@@Z 1000b4b0 f i Dlg_lmat.obj
 0001:0000a4e0       ?GetExtruType_T@CDrPatch@@QAEHXZ 1000b4e0 f i Dlg_lmat.obj
 0001:0000a500       ?SetExtruType_T@CDrPatch@@QAEXH@Z 1000b500 f i Dlg_lmat.obj
 0001:0000a530       ?GetLength_T@CDrPatch@@QAENXZ 1000b530 f i Dlg_lmat.obj
 0001:0000a550       ?SetLength_T@CDrPatch@@QAEXN@Z 1000b550 f i Dlg_lmat.obj
 0001:0000a580       ?GetWorldLength_T@CDrPatch@@QAE?AUWORLD@@XZ 1000b580 f i Dlg_lmat.obj
 0001:0000a5b0       ?SetWorldLength_T@CDrPatch@@QAEXUWORLD@@@Z 1000b5b0 f i Dlg_lmat.obj
 0001:0000a5e0       ?GetSegs_T@CDrPatch@@QAEHXZ 1000b5e0 f i Dlg_lmat.obj
 0001:0000a600       ?SetSegs_T@CDrPatch@@QAEXH@Z 1000b600 f i Dlg_lmat.obj
 0001:0000a630       ?IsAxisInput_T@CDrPatch@@QAEHXZ 1000b630 f i Dlg_lmat.obj
 0001:0000a650       ?SetAxisInput_T@CDrPatch@@QAEXH@Z 1000b650 f i Dlg_lmat.obj
 0001:0000a680       ?GetAxisType_T@CDrPatch@@QAEHXZ 1000b680 f i Dlg_lmat.obj
 0001:0000a6a0       ?SetAxisType_T@CDrPatch@@QAEXH@Z 1000b6a0 f i Dlg_lmat.obj
 0001:0000a6d0       ?IsNegative_T@CDrPatch@@QAEHXZ 1000b6d0 f i Dlg_lmat.obj
 0001:0000a6f0       ?SetNegative_T@CDrPatch@@QAEXH@Z 1000b6f0 f i Dlg_lmat.obj
 0001:0000a720       ?GetCircleType_T@CDrPatch@@QAE?AW4CIRCLETYPE@@XZ 1000b720 f i Dlg_lmat.obj
 0001:0000a740       ?SetCircleType_T@CDrPatch@@QAEXW4CIRCLETYPE@@@Z 1000b740 f i Dlg_lmat.obj
 0001:0000a770       ?GetAng_1_T@CDrPatch@@QAENXZ 1000b770 f i Dlg_lmat.obj
 0001:0000a790       ?SetAng_1_T@CDrPatch@@QAEXN@Z 1000b790 f i Dlg_lmat.obj
 0001:0000a7c0       ?GetAng_2_T@CDrPatch@@QAENXZ 1000b7c0 f i Dlg_lmat.obj
 0001:0000a7e0       ?SetAng_2_T@CDrPatch@@QAEXN@Z 1000b7e0 f i Dlg_lmat.obj
 0001:0000a810       ?GetPatchProc@CDrPatch@@QAE?AW4PATCHPROC@@XZ 1000b810 f i Dlg_lmat.obj
 0001:0000a830       ?SetPatchProc@CDrPatch@@QAEXW4PATCHPROC@@@Z 1000b830 f i Dlg_lmat.obj
 0001:0000a860       ?GetPatchType@CDrPatch@@QAE?AW4PATCHTYPE@@XZ 1000b860 f i Dlg_lmat.obj
 0001:0000a880       ?SetPatchType@CDrPatch@@QAEXW4PATCHTYPE@@@Z 1000b880 f i Dlg_lmat.obj
 0001:0000a8b0       ?GetPatSubType@CDrPatch@@QAE?AW4PATSUBTYPE@@XZ 1000b8b0 f i Dlg_lmat.obj
 0001:0000a8d0       ?SetPatSubType@CDrPatch@@QAEXW4PATSUBTYPE@@@Z 1000b8d0 f i Dlg_lmat.obj
 0001:0000a900       ?GetOut_S@CDrPatch@@QAEHXZ 1000b900 f i Dlg_lmat.obj
 0001:0000a920       ?SetOut_S@CDrPatch@@QAEXH@Z 1000b920 f i Dlg_lmat.obj
 0001:0000a950       ?GetOut_T@CDrPatch@@QAEHXZ 1000b950 f i Dlg_lmat.obj
 0001:0000a970       ?SetOut_T@CDrPatch@@QAEXH@Z 1000b970 f i Dlg_lmat.obj
 0001:0000a9a0       ?GetTotalElems@CDrPatch@@QAEJXZ 1000b9a0 f i Dlg_lmat.obj
 0001:0000a9c0       ?SetTotalElems@CDrPatch@@QAEXJ@Z 1000b9c0 f i Dlg_lmat.obj
 0001:0000a9f0       ?GetPtrTangents_S@CDrPatch@@QAEPAUWORLD@@XZ 1000b9f0 f i Dlg_lmat.obj
 0001:0000aa10       ?GetPtrTangents_T@CDrPatch@@QAEPAUWORLD@@XZ 1000ba10 f i Dlg_lmat.obj
 0001:0000aa30       ?GetPtrNormals@CDrPatch@@QAEPAUWORLD@@XZ 1000ba30 f i Dlg_lmat.obj
 0001:0000aa50       ?GetPtrTwists@CDrPatch@@QAEPAUWORLD@@XZ 1000ba50 f i Dlg_lmat.obj
 0001:0000aa70       ?GetMemIn@CDrPatch@@UAEPAUWORLD@@H@Z 1000ba70 f i Dlg_lmat.obj
 0001:0000aaa0       ?SetMemIn@CDrPatch@@UAEXPAUWORLD@@H@Z 1000baa0 f i Dlg_lmat.obj
 0001:0000aad0       ?SetMemIn@CDrPatch@@UAEXPAUWORLD@@@Z 1000bad0 f i Dlg_lmat.obj
 0001:0000ab00       ?SetMemInDP@CDrPatch@@UAEXPAUtagPOINT@@@Z 1000bb00 f i Dlg_lmat.obj
 0001:0000ab30       ?SetMemOut@CDrPatch@@UAEXPAUWORLD@@@Z 1000bb30 f i Dlg_lmat.obj
 0001:0000ab60       ?SetMemOutDP@CDrPatch@@UAEXPAUtagPOINT@@@Z 1000bb60 f i Dlg_lmat.obj
 0001:0000ab90       ?IsUniform_T@CDrPatch@@QAEHXZ 1000bb90 f i Dlg_lmat.obj
 0001:0000abb0       ?SetUniform_T@CDrPatch@@QAEXH@Z 1000bbb0 f i Dlg_lmat.obj
 0001:0000abe0       ?GetClass_T@CDrPatch@@QAEHXZ 1000bbe0 f i Dlg_lmat.obj
 0001:0000ac00       ?SetClass_T@CDrPatch@@QAEXH@Z 1000bc00 f i Dlg_lmat.obj
 0001:0000ac30       ?GetOrder_T@CDrPatch@@QAEHXZ 1000bc30 f i Dlg_lmat.obj
 0001:0000ac50       ?SetOrder_T@CDrPatch@@QAEXH@Z 1000bc50 f i Dlg_lmat.obj
 0001:0000ac80       ?GetnDim_T@CDrPatch@@QAEHXZ 1000bc80 f i Dlg_lmat.obj
 0001:0000aca0       ?SetnDim_T@CDrPatch@@QAEXH@Z 1000bca0 f i Dlg_lmat.obj
 0001:0000acd0       ?GetOutMethod_T@CDrPatch@@QAE?AW4PATCHOUTPUT@@XZ 1000bcd0 f i Dlg_lmat.obj
 0001:0000acf0       ?SetOutMethod_T@CDrPatch@@QAEXW4PATCHOUTPUT@@@Z 1000bcf0 f i Dlg_lmat.obj
 0001:0000ad20       ?GetMaxOutSeg_T@CDrPatch@@QAEHXZ 1000bd20 f i Dlg_lmat.obj
 0001:0000ad40       ?SetMaxOutSeg_T@CDrPatch@@QAEXH@Z 1000bd40 f i Dlg_lmat.obj
 0001:0000ad70       ?GetNum_tPointer_T@CDrPatch@@QAEPAHXZ 1000bd70 f i Dlg_lmat.obj
 0001:0000ad90       ?SetNum_tPointer_T@CDrPatch@@QAEXPAH@Z 1000bd90 f i Dlg_lmat.obj
 0001:0000adc0       ?GetDis_tPointer_T@CDrPatch@@QAEPANXZ 1000bdc0 f i Dlg_lmat.obj
 0001:0000ade0       ?SetDis_tPointer_T@CDrPatch@@QAEXPAN@Z 1000bde0 f i Dlg_lmat.obj
 0001:0000ae10       ?GetNum_tPointer_Ex_T@CDrPatch@@QAEPAHXZ 1000be10 f i Dlg_lmat.obj
 0001:0000ae30       ?SetNum_tPointer_Ex_T@CDrPatch@@QAEXPAH@Z 1000be30 f i Dlg_lmat.obj
 0001:0000ae60       ?GetDis_AngPointer_T@CDrPatch@@QAEPANXZ 1000be60 f i Dlg_lmat.obj
 0001:0000ae80       ?SetDis_AngPointer_T@CDrPatch@@QAEXPAN@Z 1000be80 f i Dlg_lmat.obj
 0001:0000aeb0       ?GetData_Ex_T@CDrPatch@@QAEHXZ 1000beb0 f i Dlg_lmat.obj
 0001:0000aed0       ?SetData_Ex_T@CDrPatch@@QAEXH@Z 1000bed0 f i Dlg_lmat.obj
 0001:0000af00       ?IsExpanded_T@CDrPatch@@QAEHXZ 1000bf00 f i Dlg_lmat.obj
 0001:0000af20       ?SetExpanded_T@CDrPatch@@QAEXH@Z 1000bf20 f i Dlg_lmat.obj
 0001:0000af50       ?GetMaxENodes_T@CDrPatch@@QAEHXZ 1000bf50 f i Dlg_lmat.obj
 0001:0000af70       ?SetMaxENodes_T@CDrPatch@@QAEXH@Z 1000bf70 f i Dlg_lmat.obj
 0001:0000afa0       ?GetRadius_T@CDrPatch@@QAENXZ 1000bfa0 f i Dlg_lmat.obj
 0001:0000afc0       ?SetRadius_T@CDrPatch@@QAEXN@Z 1000bfc0 f i Dlg_lmat.obj
 0001:0000aff0       ?GetTheta_T@CDrPatch@@QAENXZ 1000bff0 f i Dlg_lmat.obj
 0001:0000b010       ?SetTheta_T@CDrPatch@@QAEXN@Z 1000c010 f i Dlg_lmat.obj
 0001:0000b040       ?GetCenter_T@CDrPatch@@QAE?AUWORLD@@XZ 1000c040 f i Dlg_lmat.obj
 0001:0000b070       ?SetCenter_T@CDrPatch@@QAEXUWORLD@@@Z 1000c070 f i Dlg_lmat.obj
 0001:0000b0d0       ?GetNormal_T@CDrPatch@@QAE?AUWORLD@@XZ 1000c0d0 f i Dlg_lmat.obj
 0001:0000b100       ?SetNormal_T@CDrPatch@@QAEXUWORLD@@@Z 1000c100 f i Dlg_lmat.obj
 0001:0000b160       ?GetSegAngle_T@CDrPatch@@QAENXZ 1000c160 f i Dlg_lmat.obj
 0001:0000b180       ?SetSegAngle_T@CDrPatch@@QAEXN@Z 1000c180 f i Dlg_lmat.obj
 0001:0000b1b0       ?IsHole_T@CDrPatch@@QAEHXZ 1000c1b0 f i Dlg_lmat.obj
 0001:0000b1d0       ?SetHole_T@CDrPatch@@QAEXH@Z 1000c1d0 f i Dlg_lmat.obj
 0001:0000b200       ?GetpTangents_T@CDrPatch@@QAEPAUWORLD@@XZ 1000c200 f i Dlg_lmat.obj
 0001:0000b220       ?SetpTangents_T@CDrPatch@@QAEXPAUWORLD@@@Z 1000c220 f i Dlg_lmat.obj
 0001:0000b250       ?GetpCurvatures_T@CDrPatch@@QAEPANXZ 1000c250 f i Dlg_lmat.obj
 0001:0000b270       ?SetpCurvatures_T@CDrPatch@@QAEXPAN@Z 1000c270 f i Dlg_lmat.obj
 0001:0000b2a0       ?GetRatio_T@CDrPatch@@QAENXZ 1000c2a0 f i Dlg_lmat.obj
 0001:0000b2c0       ?SetRatio_T@CDrPatch@@QAEXN@Z 1000c2c0 f i Dlg_lmat.obj
 0001:0000b2f0       ?GetTwistType_T@CDrPatch@@QAEHXZ 1000c2f0 f i Dlg_lmat.obj
 0001:0000b310       ?SetTwistType_T@CDrPatch@@QAEXH@Z 1000c310 f i Dlg_lmat.obj
 0001:0000b340       ?GetTwistList_T@CDrPatch@@QAEPAV?$CList@NN@@XZ 1000c340 f i Dlg_lmat.obj
 0001:0000b360       ?GetScaleType_T@CDrPatch@@QAEHXZ 1000c360 f i Dlg_lmat.obj
 0001:0000b380       ?SetScaleType_T@CDrPatch@@QAEXH@Z 1000c380 f i Dlg_lmat.obj
 0001:0000b3b0       ?GetScaleList_T@CDrPatch@@QAEPAV?$CList@NN@@XZ 1000c3b0 f i Dlg_lmat.obj
 0001:0000b3d0       ?IsIncTwist_T@CDrPatch@@QAEHXZ 1000c3d0 f i Dlg_lmat.obj
 0001:0000b3f0       ?SetIncTwist_T@CDrPatch@@QAEXH@Z 1000c3f0 f i Dlg_lmat.obj
 0001:0000b420       ?GetTwistMult_T@CDrPatch@@QAENXZ 1000c420 f i Dlg_lmat.obj
 0001:0000b440       ?SetTwistMult_T@CDrPatch@@QAEXN@Z 1000c440 f i Dlg_lmat.obj
 0001:0000b470       ?GetTwistStart_T@CDrPatch@@QAENXZ 1000c470 f i Dlg_lmat.obj
 0001:0000b490       ?SetTwistStart_T@CDrPatch@@QAEXN@Z 1000c490 f i Dlg_lmat.obj
 0001:0000b4c0       ?IsIncScale_T@CDrPatch@@QAEHXZ 1000c4c0 f i Dlg_lmat.obj
 0001:0000b4e0       ?SetIncScale_T@CDrPatch@@QAEXH@Z 1000c4e0 f i Dlg_lmat.obj
 0001:0000b510       ?GetScaleMult_T@CDrPatch@@QAENXZ 1000c510 f i Dlg_lmat.obj
 0001:0000b530       ?SetScaleMult_T@CDrPatch@@QAEXN@Z 1000c530 f i Dlg_lmat.obj
 0001:0000b560       ?GetScaleStart_T@CDrPatch@@QAENXZ 1000c560 f i Dlg_lmat.obj
 0001:0000b580       ?SetScaleStart_T@CDrPatch@@QAEXN@Z 1000c580 f i Dlg_lmat.obj
 0001:0000b5b0       ?GetWorldTwistMult_T@CDrPatch@@QAE?AUWORLD@@XZ 1000c5b0 f i Dlg_lmat.obj
 0001:0000b5e0       ?SetWorldTwistMult_T@CDrPatch@@QAEXUWORLD@@@Z 1000c5e0 f i Dlg_lmat.obj
 0001:0000b610       ?GetWorldTwistStart_T@CDrPatch@@QAE?AUWORLD@@XZ 1000c610 f i Dlg_lmat.obj
 0001:0000b640       ?SetWorldTwistStart_T@CDrPatch@@QAEXUWORLD@@@Z 1000c640 f i Dlg_lmat.obj
 0001:0000b670       ?GetWorldScaleMult_T@CDrPatch@@QAE?AUWORLD@@XZ 1000c670 f i Dlg_lmat.obj
 0001:0000b6a0       ?SetWorldScaleMult_T@CDrPatch@@QAEXUWORLD@@@Z 1000c6a0 f i Dlg_lmat.obj
 0001:0000b6d0       ?GetWorldScaleStart_T@CDrPatch@@QAE?AUWORLD@@XZ 1000c6d0 f i Dlg_lmat.obj
 0001:0000b700       ?SetWorldScaleStart_T@CDrPatch@@QAEXUWORLD@@@Z 1000c700 f i Dlg_lmat.obj
 0001:0000b730       ?GetTriangleList@CDrPatch@@UAEPAVCDListMgr@@XZ 1000c730 f i Dlg_lmat.obj
 0001:0000b750       ?GetnOutGlo_S@CDrPatch@@QAEHXZ 1000c750 f i Dlg_lmat.obj
 0001:0000b770       ?SetnOutGlo_S@CDrPatch@@QAEXH@Z 1000c770 f i Dlg_lmat.obj
 0001:0000b7a0       ?IsGenBCurve@CDrPatch@@QAEHXZ 1000c7a0 f i Dlg_lmat.obj
 0001:0000b7c0       ?SetGenBCurve@CDrPatch@@QAEXH@Z 1000c7c0 f i Dlg_lmat.obj
 0001:0000b7f0       ??0CDlg_LMat@@QAE@PAVCWnd@@@Z 1000c7f0 f   Dlg_lmat.obj
 0001:0000b9e0       ??_ECDlg_LMat@@UAEPAXI@Z   1000c9e0 f i Dlg_lmat.obj
 0001:0000b9e0       ??_GCDlg_LMat@@UAEPAXI@Z   1000c9e0 f i Dlg_lmat.obj
 0001:0000ba20       ??1CBitmapButton@@UAE@XZ   1000ca20 f i Dlg_lmat.obj
 0001:0000baa0       ??1CDlg_LMat@@UAE@XZ       1000caa0 f i Dlg_lmat.obj
 0001:0000bb40       ?DoDataExchange@CDlg_LMat@@MAEXPAVCDataExchange@@@Z 1000cb40 f   Dlg_lmat.obj
 0001:0000bcb0       ?_GetBaseMessageMap@CDlg_LMat@@KGPBUAFX_MSGMAP@@XZ 1000ccb0 f   Dlg_lmat.obj
 0001:0000bcd0       ?GetMessageMap@CDlg_LMat@@MBEPBUAFX_MSGMAP@@XZ 1000ccd0 f   Dlg_lmat.obj
 0001:0000bcf0       ?OnInitDialog@CDlg_LMat@@MAEHXZ 1000ccf0 f   Dlg_lmat.obj
 0001:0000be20       ?FillListAllString@CDlg_LMat@@IAEHIAAVCString@@@Z 1000ce20 f   Dlg_lmat.obj
 0001:0000bf70       ?GetDocument@CDrGrafApp@@QAEPAVCDrGrafDoc@@XZ 1000cf70 f i Dlg_lmat.obj
 0001:0000bf90       ?GetObjectMgr@CDrGrafDoc@@QAEPAVCObjectMgr@@XZ 1000cf90 f i Dlg_lmat.obj
 0001:0000bfb0       ?OnSelchangeTranPt@CDlg_LMat@@IAEXXZ 1000cfb0 f   Dlg_lmat.obj
 0001:0000c1f0       ?OnCancel@CDlg_LMat@@MAEXXZ 1000d1f0 f   Dlg_lmat.obj
 0001:0000c210       ?OnOK@CDlg_LMat@@MAEXXZ    1000d210 f   Dlg_lmat.obj
 0001:0000c240       ?GetCount@?$CList@JJ@@QBEHXZ 1000d240 f i Dlg_lmat.obj
 0001:0000c260       ??1?$CList@HH@@UAE@XZ      1000d260 f i Dlg_lmat.obj
 0001:0000c2e0       ?Serialize@?$CList@HH@@UAEXAAVCArchive@@@Z 1000d2e0 f i Dlg_lmat.obj
 0001:0000c3d0       ?Dump@?$CList@HH@@UBEXAAVCDumpContext@@@Z 1000d3d0 f i Dlg_lmat.obj
 0001:0000c470       ?AssertValid@?$CList@HH@@UBEXXZ 1000d470 f i Dlg_lmat.obj
 0001:0000c540       ??_E?$CList@HH@@UAEPAXI@Z  1000d540 f i Dlg_lmat.obj
 0001:0000c540       ??_G?$CList@HH@@UAEPAXI@Z  1000d540 f i Dlg_lmat.obj
 0001:0000c580       ?AddTail@?$CList@HH@@QAEPAU__POSITION@@H@Z 1000d580 f i Dlg_lmat.obj
 0001:0000c5f0       ?RemoveAll@?$CList@HH@@QAEXXZ 1000d5f0 f i Dlg_lmat.obj
 0001:0000c680       ?GetHeadPosition@?$CList@HH@@QBEPAU__POSITION@@XZ 1000d680 f i Dlg_lmat.obj
 0001:0000c6a0       ?GetNext@?$CList@HH@@QAEAAHAAPAU__POSITION@@@Z 1000d6a0 f i Dlg_lmat.obj
 0001:0000c700       ?SerializeElements@@YGXAAVCArchive@@PAHH@Z 1000d700 f i Dlg_lmat.obj
 0001:0000c780       ?DumpElements@@YGXAAVCDumpContext@@PBHH@Z 1000d780 f i Dlg_lmat.obj
 0001:0000c7d0       ?NewNode@?$CList@HH@@IAEPAUCNode@1@PAU21@0@Z 1000d7d0 f i Dlg_lmat.obj
 0001:0000c8f0       ?DestructElements@@YGXPAHH@Z 1000d8f0 f i Dlg_lmat.obj
 0001:0000c960       ?ConstructElements@@YGXPAHH@Z 1000d960 f i Dlg_lmat.obj
 0001:0000c9f0       ??2@YAPAXIPAX@Z            1000d9f0 f i Dlg_lmat.obj
 0001:0000ca10       ??_9@$BMM@AE               1000da10 f i Dlg_lmat.obj
 0001:0000ca20       ??_9@$BNA@AE               1000da20 f i Dlg_lmat.obj
 0001:0000ca30       ?IsNormalNeeded@CDrSolid@@UAEHXZ 1000da30 f i Dlg_sduc.obj
 0001:0000ca50       ?SetNormalNeed@CDrSolid@@UAEXH@Z 1000da50 f i Dlg_sduc.obj
 0001:0000ca80       ?GetCurveType_R@CDrSolid@@QAE?AW4CURVEPROC@@XZ 1000da80 f i Dlg_sduc.obj
 0001:0000caa0       ?SetCurveType_R@CDrSolid@@QAEXW4CURVEPROC@@@Z 1000daa0 f i Dlg_sduc.obj
 0001:0000cad0       ?GetOutSegUnif_R@CDrSolid@@QAEHXZ 1000dad0 f i Dlg_sduc.obj
 0001:0000caf0       ?SetOutSegUnif_R@CDrSolid@@QAEXH@Z 1000daf0 f i Dlg_sduc.obj
 0001:0000cb20       ?IsClosed_R@CDrSolid@@QAEHXZ 1000db20 f i Dlg_sduc.obj
 0001:0000cb40       ?SetClosed_R@CDrSolid@@QAEXH@Z 1000db40 f i Dlg_sduc.obj
 0001:0000cb70       ?GetSolidObjectType@CDrSolid@@QAEHXZ 1000db70 f i Dlg_sduc.obj
 0001:0000cb90       ?SetSolidObjectType@CDrSolid@@QAEXH@Z 1000db90 f i Dlg_sduc.obj
 0001:0000cbc0       ?GetMaxBezSegments_R@CDrSolid@@QAEHXZ 1000dbc0 f i Dlg_sduc.obj
 0001:0000cbe0       ?SetMaxBezSegments_R@CDrSolid@@QAEXH@Z 1000dbe0 f i Dlg_sduc.obj
 0001:0000cc10       ?GetMaxCNodes_R@CDrSolid@@QAEHXZ 1000dc10 f i Dlg_sduc.obj
 0001:0000cc30       ?SetMaxCNodes_R@CDrSolid@@QAEXH@Z 1000dc30 f i Dlg_sduc.obj
 0001:0000cc60       ?GetMaxOutPts_R@CDrSolid@@QAEHXZ 1000dc60 f i Dlg_sduc.obj
 0001:0000cc80       ?SetMaxOutPts_R@CDrSolid@@QAEXH@Z 1000dc80 f i Dlg_sduc.obj
 0001:0000ccb0       ?GetPatchID@CDrSolid@@QAE?AVCString@@H@Z 1000dcb0 f i Dlg_sduc.obj
 0001:0000ccf0       ?SetPatchID@CDrSolid@@QAEXVCString@@H@Z 1000dcf0 f i Dlg_sduc.obj
 0001:0000cd50       ?GetFromIDNode_R@CDrSolid@@QAEPAVCDrNode@@XZ 1000dd50 f i Dlg_sduc.obj
 0001:0000cd70       ?SetFromIDNode_R@CDrSolid@@QAEXPAVCDrNode@@@Z 1000dd70 f i Dlg_sduc.obj
 0001:0000cda0       ?GetToIDNode_R@CDrSolid@@QAEPAVCDrNode@@XZ 1000dda0 f i Dlg_sduc.obj
 0001:0000cdc0       ?SetToIDNode_R@CDrSolid@@QAEXPAVCDrNode@@@Z 1000ddc0 f i Dlg_sduc.obj
 0001:0000cdf0       ?GetFromPtLocal_R@CDrSolid@@QAEPAUWORLD@@XZ 1000ddf0 f i Dlg_sduc.obj
 0001:0000ce10       ?SetFromPtLocal_R@CDrSolid@@QAEXUWORLD@@@Z 1000de10 f i Dlg_sduc.obj
 0001:0000ce40       ?GetToPtLocal_R@CDrSolid@@QAEPAUWORLD@@XZ 1000de40 f i Dlg_sduc.obj
 0001:0000ce60       ?SetToPtLocal_R@CDrSolid@@QAEXUWORLD@@@Z 1000de60 f i Dlg_sduc.obj
 0001:0000ce90       ?GetFromPtWorld_R@CDrSolid@@QAEPAUWORLD@@XZ 1000de90 f i Dlg_sduc.obj
 0001:0000ceb0       ?SetFromPtWorld_R@CDrSolid@@QAEXUWORLD@@@Z 1000deb0 f i Dlg_sduc.obj
 0001:0000cee0       ?GetToPtWorld_R@CDrSolid@@QAEPAUWORLD@@XZ 1000dee0 f i Dlg_sduc.obj
 0001:0000cf00       ?SetToPtWorld_R@CDrSolid@@QAEXUWORLD@@@Z 1000df00 f i Dlg_sduc.obj
 0001:0000cf30       ?GetFromPtEye_R@CDrSolid@@QAEPAUWORLD@@XZ 1000df30 f i Dlg_sduc.obj
 0001:0000cf50       ?SetFromPtEye_R@CDrSolid@@QAEXUWORLD@@@Z 1000df50 f i Dlg_sduc.obj
 0001:0000cf80       ?GetToPtEye_R@CDrSolid@@QAEPAUWORLD@@XZ 1000df80 f i Dlg_sduc.obj
 0001:0000cfa0       ?SetToPtEye_R@CDrSolid@@QAEXUWORLD@@@Z 1000dfa0 f i Dlg_sduc.obj
 0001:0000cfd0       ?GetAxis_R@CDrSolid@@QAEPAUWORLD@@XZ 1000dfd0 f i Dlg_sduc.obj
 0001:0000cff0       ?SetAxis_R@CDrSolid@@QAEXUWORLD@@@Z 1000dff0 f i Dlg_sduc.obj
 0001:0000d020       ?GetExtruType_R@CDrSolid@@QAEHXZ 1000e020 f i Dlg_sduc.obj
 0001:0000d040       ?SetExtruType_R@CDrSolid@@QAEXH@Z 1000e040 f i Dlg_sduc.obj
 0001:0000d070       ?GetLength_R@CDrSolid@@QAENXZ 1000e070 f i Dlg_sduc.obj
 0001:0000d090       ?SetLength_R@CDrSolid@@QAEXN@Z 1000e090 f i Dlg_sduc.obj
 0001:0000d0c0       ?GetWorldLength_R@CDrSolid@@QAE?AUWORLD@@XZ 1000e0c0 f i Dlg_sduc.obj
 0001:0000d0f0       ?SetWorldLength_R@CDrSolid@@QAEXUWORLD@@@Z 1000e0f0 f i Dlg_sduc.obj
 0001:0000d120       ?GetSegs_R@CDrSolid@@QAEHXZ 1000e120 f i Dlg_sduc.obj
 0001:0000d140       ?SetSegs_R@CDrSolid@@QAEXH@Z 1000e140 f i Dlg_sduc.obj
 0001:0000d170       ?GetSolidProc@CDrSolid@@QAE?AW4SOLIDPROC@@XZ 1000e170 f i Dlg_sduc.obj
 0001:0000d190       ?SetSolidProc@CDrSolid@@QAEXW4SOLIDPROC@@@Z 1000e190 f i Dlg_sduc.obj
 0001:0000d1c0       ?GetSolidType@CDrSolid@@QAE?AW4SOLIDTYPE@@XZ 1000e1c0 f i Dlg_sduc.obj
 0001:0000d1e0       ?SetSolidType@CDrSolid@@QAEXW4SOLIDTYPE@@@Z 1000e1e0 f i Dlg_sduc.obj
 0001:0000d210       ?GetSolSubType@CDrSolid@@QAE?AW4SOLSUBTYPE@@XZ 1000e210 f i Dlg_sduc.obj
 0001:0000d230       ?SetSolSubType@CDrSolid@@QAEXW4SOLSUBTYPE@@@Z 1000e230 f i Dlg_sduc.obj
 0001:0000d260       ?GetOut_R@CDrSolid@@QAEHXZ 1000e260 f i Dlg_sduc.obj
 0001:0000d280       ?SetOut_R@CDrSolid@@QAEXH@Z 1000e280 f i Dlg_sduc.obj
 0001:0000d2b0       ?IsUniform_R@CDrSolid@@QAEHXZ 1000e2b0 f i Dlg_sduc.obj
 0001:0000d2d0       ?SetUniform_R@CDrSolid@@QAEXH@Z 1000e2d0 f i Dlg_sduc.obj
 0001:0000d300       ?GetOrder_R@CDrSolid@@QAEHXZ 1000e300 f i Dlg_sduc.obj
 0001:0000d320       ?SetOrder_R@CDrSolid@@QAEXH@Z 1000e320 f i Dlg_sduc.obj
 0001:0000d350       ?GetnDim_R@CDrSolid@@QAEHXZ 1000e350 f i Dlg_sduc.obj
 0001:0000d370       ?SetnDim_R@CDrSolid@@QAEXH@Z 1000e370 f i Dlg_sduc.obj
 0001:0000d3a0       ?GetOutMethod_R@CDrSolid@@QAE?AW4SOLIDOUTPUT@@XZ 1000e3a0 f i Dlg_sduc.obj
 0001:0000d3c0       ?SetOutMethod_R@CDrSolid@@QAEXW4SOLIDOUTPUT@@@Z 1000e3c0 f i Dlg_sduc.obj
 0001:0000d3f0       ?GetMaxOutSeg_R@CDrSolid@@QAEHXZ 1000e3f0 f i Dlg_sduc.obj
 0001:0000d410       ?SetMaxOutSeg_R@CDrSolid@@QAEXH@Z 1000e410 f i Dlg_sduc.obj
 0001:0000d440       ?GetNum_tPointer_R@CDrSolid@@QAEPAHXZ 1000e440 f i Dlg_sduc.obj
 0001:0000d460       ?SetNum_tPointer_R@CDrSolid@@QAEXPAH@Z 1000e460 f i Dlg_sduc.obj
 0001:0000d490       ?GetDis_tPointer_R@CDrSolid@@QAEPANXZ 1000e490 f i Dlg_sduc.obj
 0001:0000d4b0       ?SetDis_tPointer_R@CDrSolid@@QAEXPAN@Z 1000e4b0 f i Dlg_sduc.obj
 0001:0000d4e0       ?GetNum_tPointer_Ex_R@CDrSolid@@QAEPAHXZ 1000e4e0 f i Dlg_sduc.obj
 0001:0000d500       ?SetNum_tPointer_Ex_R@CDrSolid@@QAEXPAH@Z 1000e500 f i Dlg_sduc.obj
 0001:0000d530       ?GetDis_AngPointer_R@CDrSolid@@QAEPANXZ 1000e530 f i Dlg_sduc.obj
 0001:0000d550       ?SetDis_AngPointer_R@CDrSolid@@QAEXPAN@Z 1000e550 f i Dlg_sduc.obj
 0001:0000d580       ?GetNum_tPointer_ST@CDrSolid@@QAEPAHXZ 1000e580 f i Dlg_sduc.obj
 0001:0000d5a0       ?SetNum_tPointer_ST@CDrSolid@@QAEXPAH@Z 1000e5a0 f i Dlg_sduc.obj
 0001:0000d5d0       ?GetDis_tPointer_ST@CDrSolid@@QAEPANXZ 1000e5d0 f i Dlg_sduc.obj
 0001:0000d5f0       ?SetDis_tPointer_ST@CDrSolid@@QAEXPAN@Z 1000e5f0 f i Dlg_sduc.obj
 0001:0000d620       ?GetNum_tPointer_Ex_ST@CDrSolid@@QAEPAHXZ 1000e620 f i Dlg_sduc.obj
 0001:0000d640       ?SetNum_tPointer_Ex_ST@CDrSolid@@QAEXPAH@Z 1000e640 f i Dlg_sduc.obj
 0001:0000d670       ?GetDis_AngPointer_ST@CDrSolid@@QAEPANXZ 1000e670 f i Dlg_sduc.obj
 0001:0000d690       ?SetDis_AngPointer_ST@CDrSolid@@QAEXPAN@Z 1000e690 f i Dlg_sduc.obj
 0001:0000d6c0       ?GetData_Ex_R@CDrSolid@@QAEHXZ 1000e6c0 f i Dlg_sduc.obj
 0001:0000d6e0       ?SetData_Ex_R@CDrSolid@@QAEXH@Z 1000e6e0 f i Dlg_sduc.obj
 0001:0000d710       ?IsExpanded_R@CDrSolid@@QAEHXZ 1000e710 f i Dlg_sduc.obj
 0001:0000d730       ?SetExpanded_R@CDrSolid@@QAEXH@Z 1000e730 f i Dlg_sduc.obj
 0001:0000d760       ?GetMaxENodes_R@CDrSolid@@QAEHXZ 1000e760 f i Dlg_sduc.obj
 0001:0000d780       ?SetMaxENodes_R@CDrSolid@@QAEXH@Z 1000e780 f i Dlg_sduc.obj
 0001:0000d7b0       ?GetRadius_R@CDrSolid@@QAENXZ 1000e7b0 f i Dlg_sduc.obj
 0001:0000d7d0       ?SetRadius_R@CDrSolid@@QAEXN@Z 1000e7d0 f i Dlg_sduc.obj
 0001:0000d800       ?GetTheta_R@CDrSolid@@QAENXZ 1000e800 f i Dlg_sduc.obj
 0001:0000d820       ?SetTheta_R@CDrSolid@@QAEXN@Z 1000e820 f i Dlg_sduc.obj
 0001:0000d850       ?GetCenter_R@CDrSolid@@QAE?AUWORLD@@XZ 1000e850 f i Dlg_sduc.obj
 0001:0000d880       ?SetCenter_R@CDrSolid@@QAEXUWORLD@@@Z 1000e880 f i Dlg_sduc.obj
 0001:0000d8e0       ?GetNormal_R@CDrSolid@@QAE?AUWORLD@@XZ 1000e8e0 f i Dlg_sduc.obj
 0001:0000d910       ?SetNormal_R@CDrSolid@@QAEXUWORLD@@@Z 1000e910 f i Dlg_sduc.obj
 0001:0000d970       ?GetSegAngle_R@CDrSolid@@QAENXZ 1000e970 f i Dlg_sduc.obj
 0001:0000d990       ?SetSegAngle_R@CDrSolid@@QAEXN@Z 1000e990 f i Dlg_sduc.obj
 0001:0000d9c0       ?IsHole_R@CDrSolid@@QAEHXZ 1000e9c0 f i Dlg_sduc.obj
 0001:0000d9e0       ?SetHole_R@CDrSolid@@QAEXH@Z 1000e9e0 f i Dlg_sduc.obj
 0001:0000da10       ?GetpTangents_R@CDrSolid@@QAEPAUWORLD@@XZ 1000ea10 f i Dlg_sduc.obj
 0001:0000da30       ?SetpTangents_R@CDrSolid@@QAEXPAUWORLD@@@Z 1000ea30 f i Dlg_sduc.obj
 0001:0000da60       ?GetpCurvatures_R@CDrSolid@@QAEPANXZ 1000ea60 f i Dlg_sduc.obj
 0001:0000da80       ?SetpCurvatures_R@CDrSolid@@QAEXPAN@Z 1000ea80 f i Dlg_sduc.obj
 0001:0000dab0       ?GetRatio_R@CDrSolid@@QAENXZ 1000eab0 f i Dlg_sduc.obj
 0001:0000dad0       ?SetRatio_R@CDrSolid@@QAEXN@Z 1000ead0 f i Dlg_sduc.obj
 0001:0000db00       ?GetTwistType_R@CDrSolid@@QAEHXZ 1000eb00 f i Dlg_sduc.obj
 0001:0000db20       ?SetTwistType_R@CDrSolid@@QAEXH@Z 1000eb20 f i Dlg_sduc.obj
 0001:0000db50       ?GetTwistList_R@CDrSolid@@QAEPAV?$CList@NN@@XZ 1000eb50 f i Dlg_sduc.obj
 0001:0000db70       ?GetScaleType_R@CDrSolid@@QAEHXZ 1000eb70 f i Dlg_sduc.obj
 0001:0000db90       ?SetScaleType_R@CDrSolid@@QAEXH@Z 1000eb90 f i Dlg_sduc.obj
 0001:0000dbc0       ?GetScaleList_R@CDrSolid@@QAEPAV?$CList@NN@@XZ 1000ebc0 f i Dlg_sduc.obj
 0001:0000dbe0       ?IsIncTwist_R@CDrSolid@@QAEHXZ 1000ebe0 f i Dlg_sduc.obj
 0001:0000dc00       ?SetIncTwist_R@CDrSolid@@QAEXH@Z 1000ec00 f i Dlg_sduc.obj
 0001:0000dc30       ?GetTwistMult_R@CDrSolid@@QAENXZ 1000ec30 f i Dlg_sduc.obj
 0001:0000dc50       ?SetTwistMult_R@CDrSolid@@QAEXN@Z 1000ec50 f i Dlg_sduc.obj
 0001:0000dc80       ?GetTwistStart_R@CDrSolid@@QAENXZ 1000ec80 f i Dlg_sduc.obj
 0001:0000dca0       ?SetTwistStart_R@CDrSolid@@QAEXN@Z 1000eca0 f i Dlg_sduc.obj
 0001:0000dcd0       ?IsIncScale_R@CDrSolid@@QAEHXZ 1000ecd0 f i Dlg_sduc.obj
 0001:0000dcf0       ?SetIncScale_R@CDrSolid@@QAEXH@Z 1000ecf0 f i Dlg_sduc.obj
 0001:0000dd20       ?GetScaleMult_R@CDrSolid@@QAENXZ 1000ed20 f i Dlg_sduc.obj
 0001:0000dd40       ?SetScaleMult_R@CDrSolid@@QAEXN@Z 1000ed40 f i Dlg_sduc.obj
 0001:0000dd70       ?GetScaleStart_R@CDrSolid@@QAENXZ 1000ed70 f i Dlg_sduc.obj
 0001:0000dd90       ?SetScaleStart_R@CDrSolid@@QAEXN@Z 1000ed90 f i Dlg_sduc.obj
 0001:0000ddc0       ?GetPentaList@CDrSolid@@QAEPAVCDListMgr@@XZ 1000edc0 f i Dlg_sduc.obj
 0001:0000dde0       ?GetnTriangles_ST@CDrSolid@@QAEHXZ 1000ede0 f i Dlg_sduc.obj
 0001:0000de00       ?SetnTriangles_ST@CDrSolid@@QAEXH@Z 1000ee00 f i Dlg_sduc.obj
 0001:0000de30       ?GetElperSegList_R@CDrSolid@@QAEPAV?$CList@HH@@XZ 1000ee30 f i Dlg_sduc.obj
 0001:0000de50       ?IsGenBPatch@CDrSolid@@QAEHXZ 1000ee50 f i Dlg_sduc.obj
 0001:0000de70       ?SetGenBPatch@CDrSolid@@QAEXH@Z 1000ee70 f i Dlg_sduc.obj
 0001:0000dea0       ?GetVPatchList@CDrSolid@@QAEPAVCDListMgr@@XZ 1000eea0 f i Dlg_sduc.obj
 0001:0000dec0       ?GetPatchList_U@CDrSolid@@QAEPAVCDListMgr@@XZ 1000eec0 f i Dlg_sduc.obj
 0001:0000dee0       ?GetPatchList_V@CDrSolid@@QAEPAVCDListMgr@@XZ 1000eee0 f i Dlg_sduc.obj
 0001:0000df00       ?GetPatchList_W@CDrSolid@@QAEPAVCDListMgr@@XZ 1000ef00 f i Dlg_sduc.obj
 0001:0000df20       ?GetPatchLatchList_U@CDrSolid@@QAEPAV?$CList@W4PATCHLATCH@@W41@@@XZ 1000ef20 f i Dlg_sduc.obj
 0001:0000df40       ?GetPatchLatchList_V@CDrSolid@@QAEPAV?$CList@W4PATCHLATCH@@W41@@@XZ 1000ef40 f i Dlg_sduc.obj
 0001:0000df60       ?GetPatchLatchList_W@CDrSolid@@QAEPAV?$CList@W4PATCHLATCH@@W41@@@XZ 1000ef60 f i Dlg_sduc.obj
 0001:0000df80       ?IsAxisInput_R@CDrSolid@@QAEHXZ 1000ef80 f i Dlg_sduc.obj
 0001:0000dfa0       ?SetAxisInput_R@CDrSolid@@QAEXH@Z 1000efa0 f i Dlg_sduc.obj
 0001:0000dfd0       ?GetAxisType_R@CDrSolid@@QAEHXZ 1000efd0 f i Dlg_sduc.obj
 0001:0000dff0       ?SetAxisType_R@CDrSolid@@QAEXH@Z 1000eff0 f i Dlg_sduc.obj
 0001:0000e020       ?IsNegative_R@CDrSolid@@QAEHXZ 1000f020 f i Dlg_sduc.obj
 0001:0000e040       ?SetNegative_R@CDrSolid@@QAEXH@Z 1000f040 f i Dlg_sduc.obj
 0001:0000e070       ?GetCircleType_R@CDrSolid@@QAE?AW4CIRCLETYPE@@XZ 1000f070 f i Dlg_sduc.obj
 0001:0000e090       ?SetCircleType_R@CDrSolid@@QAEXW4CIRCLETYPE@@@Z 1000f090 f i Dlg_sduc.obj
 0001:0000e0c0       ?GetAng_1_R@CDrSolid@@QAENXZ 1000f0c0 f i Dlg_sduc.obj
 0001:0000e0e0       ?SetAng_1_R@CDrSolid@@QAEXN@Z 1000f0e0 f i Dlg_sduc.obj
 0001:0000e110       ?GetAng_2_R@CDrSolid@@QAENXZ 1000f110 f i Dlg_sduc.obj
 0001:0000e130       ?SetAng_2_R@CDrSolid@@QAEXN@Z 1000f130 f i Dlg_sduc.obj
 0001:0000e160       ??0CDlg_Duct_S@@QAE@PAVCWnd@@@Z 1000f160 f   Dlg_sduc.obj
 0001:0000e370       ??_ECDlg_Duct_S@@UAEPAXI@Z 1000f370 f i Dlg_sduc.obj
 0001:0000e370       ??_GCDlg_Duct_S@@UAEPAXI@Z 1000f370 f i Dlg_sduc.obj
 0001:0000e3b0       ??1CDlg_Duct_S@@UAE@XZ     1000f3b0 f i Dlg_sduc.obj
 0001:0000e4a0       ?DoDataExchange@CDlg_Duct_S@@MAEXPAVCDataExchange@@@Z 1000f4a0 f   Dlg_sduc.obj
 0001:0000e5e0       ?_GetBaseMessageMap@CDlg_Duct_S@@KGPBUAFX_MSGMAP@@XZ 1000f5e0 f   Dlg_sduc.obj
 0001:0000e600       ?GetMessageMap@CDlg_Duct_S@@MBEPBUAFX_MSGMAP@@XZ 1000f600 f   Dlg_sduc.obj
 0001:0000e620       ?OnInitDialog@CDlg_Duct_S@@MAEHXZ 1000f620 f   Dlg_sduc.obj
 0001:0000e840       ?OnIncrement@CDlg_Duct_S@@IAEXXZ 1000f840 f   Dlg_sduc.obj
 0001:0000e8d0       ?OnOK@CDlg_Duct_S@@MAEXXZ  1000f8d0 f   Dlg_sduc.obj
 0001:0000ead0       ?OnCancel@CDlg_Duct_S@@MAEXXZ 1000fad0 f   Dlg_sduc.obj
 0001:0000eaf0       ?FillListAllString@CDlg_Duct_S@@IAEXXZ 1000faf0 f   Dlg_sduc.obj
 0001:0000ec00       ?FillListAllSolidIDs@CDlg_Duct_S@@IAEXXZ 1000fc00 f   Dlg_sduc.obj
 0001:0000ed30       ?FillListAllPatchIDs@CDlg_Duct_S@@IAEXXZ 1000fd30 f   Dlg_sduc.obj
 0001:0000ee70       ?FillListAllCurveIDs@CDlg_Duct_S@@IAEXXZ 1000fe70 f   Dlg_sduc.obj
 0001:0000efc0       ?SetInfoForDataBase@CDlg_Duct_S@@QAEXPAVCDrSolid@@@Z 1000ffc0 f   Dlg_sduc.obj
 0001:0000f470       ?CreateObject@CDlg_SI_Coons@@SGPAVCObject@@XZ 10010470 f   Dlg_SI_Coons.obj
 0001:0000f4f0       ?_GetBaseClass@CDlg_SI_Coons@@KGPAUCRuntimeClass@@XZ 100104f0 f   Dlg_SI_Coons.obj
 0001:0000f510       ?GetRuntimeClass@CDlg_SI_Coons@@UBEPAUCRuntimeClass@@XZ 10010510 f   Dlg_SI_Coons.obj
 0001:0000f530       ??0CDlg_SI_Coons@@QAE@XZ   10010530 f   Dlg_SI_Coons.obj
 0001:0000f560       ?ResetDlgForTwist@CSasePage@@UAEXXZ 10010560 f i Dlg_SI_Coons.obj
 0001:0000f580       ?ResetDlgForEdit@CSasePage@@UAEXXZ 10010580 f i Dlg_SI_Coons.obj
 0001:0000f5a0       ??_GCDlg_SI_Coons@@UAEPAXI@Z 100105a0 f i Dlg_SI_Coons.obj
 0001:0000f5e0       ??_ECDlg_SI_Coons@@UAEPAXI@Z 100105e0 f i Dlg_SI_Coons.obj
 0001:0000f660       ??0CDlg_SI_Coons@@QAE@PAVCWnd@@W4SOLIDPROC@@@Z 10010660 f   Dlg_SI_Coons.obj
 0001:0000f6f0       ??1CDlg_SI_Coons@@UAE@XZ   100106f0 f   Dlg_SI_Coons.obj
 0001:0000f720       ?DoDataExchange@CDlg_SI_Coons@@MAEXPAVCDataExchange@@@Z 10010720 f   Dlg_SI_Coons.obj
 0001:0000f7c0       ?_GetBaseMessageMap@CDlg_SI_Coons@@KGPBUAFX_MSGMAP@@XZ 100107c0 f   Dlg_SI_Coons.obj
 0001:0000f7e0       ?GetMessageMap@CDlg_SI_Coons@@MBEPBUAFX_MSGMAP@@XZ 100107e0 f   Dlg_SI_Coons.obj
 0001:0000f800       ?OnInitDialog@CDlg_SI_Coons@@MAEHXZ 10010800 f   Dlg_SI_Coons.obj
 0001:0000f8d0       ?ResetDlg@CDlg_SI_Coons@@UAEXXZ 100108d0 f   Dlg_SI_Coons.obj
 0001:0000f980       ?OnSelchangeSid@CDlg_SI_Coons@@IAEXXZ 10010980 f   Dlg_SI_Coons.obj
 0001:0000f9a0       ?OnSelchangePid@CDlg_SI_Coons@@IAEXXZ 100109a0 f   Dlg_SI_Coons.obj
 0001:0000fad0       ?OnUpdate@CDlg_SI_Coons@@IAEXXZ 10010ad0 f   Dlg_SI_Coons.obj
 0001:0000fb10       ?OnCancel@CDlg_SI_Coons@@MAEXXZ 10010b10 f   Dlg_SI_Coons.obj
 0001:0000fb50       ?FillListAllString_Patch@CDlg_SI_Coons@@IAEXXZ 10010b50 f   Dlg_SI_Coons.obj
 0001:0000fc90       ?FillListAllString_Solid@CDlg_SI_Coons@@IAEXXZ 10010c90 f   Dlg_SI_Coons.obj
 0001:0000fdd0       ??1CDlg_Radius@@UAE@XZ     10010dd0 f i Dlg_SI_Duct.obj
 0001:0000fe50       ??_FCDlg_Radius@@QAEXXZ    10010e50 f i Dlg_SI_Duct.obj
 0001:0000fe70       ?CreateObject@CDlg_SI_Duct@@SGPAVCObject@@XZ 10010e70 f   Dlg_SI_Duct.obj
 0001:0000fef0       ?_GetBaseClass@CDlg_SI_Duct@@KGPAUCRuntimeClass@@XZ 10010ef0 f   Dlg_SI_Duct.obj
 0001:0000ff10       ?GetRuntimeClass@CDlg_SI_Duct@@UBEPAUCRuntimeClass@@XZ 10010f10 f   Dlg_SI_Duct.obj
 0001:0000ff30       ??0CDlg_SI_Duct@@QAE@XZ    10010f30 f   Dlg_SI_Duct.obj
 0001:0000ff60       ??_GCDlg_SI_Duct@@UAEPAXI@Z 10010f60 f i Dlg_SI_Duct.obj
 0001:0000ffa0       ??_ECDlg_SI_Duct@@UAEPAXI@Z 10010fa0 f i Dlg_SI_Duct.obj
 0001:00010020       ??0CDlg_SI_Duct@@QAE@PAVCWnd@@W4SOLIDPROC@@@Z 10011020 f   Dlg_SI_Duct.obj
 0001:00010090       ??1CDlg_SI_Duct@@UAE@XZ    10011090 f   Dlg_SI_Duct.obj
 0001:000100c0       ?DoDataExchange@CDlg_SI_Duct@@MAEXPAVCDataExchange@@@Z 100110c0 f   Dlg_SI_Duct.obj
 0001:00010210       ?_GetBaseMessageMap@CDlg_SI_Duct@@KGPBUAFX_MSGMAP@@XZ 10011210 f   Dlg_SI_Duct.obj
 0001:00010230       ?GetMessageMap@CDlg_SI_Duct@@MBEPBUAFX_MSGMAP@@XZ 10011230 f   Dlg_SI_Duct.obj
 0001:00010250       ?OnInitDialog@CDlg_SI_Duct@@MAEHXZ 10011250 f   Dlg_SI_Duct.obj
 0001:00010380       ?ResetDlg@CDlg_SI_Duct@@UAEXXZ 10011380 f   Dlg_SI_Duct.obj
 0001:00010510       ?OnSelchangeSid@CDlg_SI_Duct@@IAEXXZ 10011510 f   Dlg_SI_Duct.obj
 0001:00010530       ?OnSelchangePid@CDlg_SI_Duct@@IAEXXZ 10011530 f   Dlg_SI_Duct.obj
 0001:00010550       ?OnSelchangeCid@CDlg_SI_Duct@@IAEXXZ 10011550 f   Dlg_SI_Duct.obj
 0001:00010680       ?OnSelchangeNid@CDlg_SI_Duct@@IAEXXZ 10011680 f   Dlg_SI_Duct.obj
 0001:000106a0       ?OnUpdate@CDlg_SI_Duct@@IAEXXZ 100116a0 f   Dlg_SI_Duct.obj
 0001:000106f0       ?OnCancel@CDlg_SI_Duct@@MAEXXZ 100116f0 f   Dlg_SI_Duct.obj
 0001:00010730       ?FillListAllString_Solid@CDlg_SI_Duct@@IAEXXZ 10011730 f   Dlg_SI_Duct.obj
 0001:00010750       ?FillListAllString_Patch@CDlg_SI_Duct@@IAEXXZ 10011750 f   Dlg_SI_Duct.obj
 0001:00010890       ?FillListAllString_Curve@CDlg_SI_Duct@@IAEXXZ 10011890 f   Dlg_SI_Duct.obj
 0001:000109d0       ?FillListAllString_Node@CDlg_SI_Duct@@IAEXXZ 100119d0 f   Dlg_SI_Duct.obj
 0001:00010af0       ?OnIncrement@CDlg_SI_Duct@@IAEXXZ 10011af0 f   Dlg_SI_Duct.obj
 0001:00010c20       ?OnDistrib@CDlg_SI_Duct@@IAEXXZ 10011c20 f   Dlg_SI_Duct.obj
 0001:00010e10       ??1CDlg_Tang@@UAE@XZ       10011e10 f i dlg_SI_EndCond.obj
 0001:00010ea0       ??_FCDlg_Tang@@QAEXXZ      10011ea0 f i dlg_SI_EndCond.obj
 0001:00011140       ?CreateObject@CDlg_SI_EndCond@@SGPAVCObject@@XZ 10012140 f   dlg_SI_EndCond.obj
 0001:000111c0       ?_GetBaseClass@CDlg_SI_EndCond@@KGPAUCRuntimeClass@@XZ 100121c0 f   dlg_SI_EndCond.obj
 0001:000111e0       ?GetRuntimeClass@CDlg_SI_EndCond@@UBEPAUCRuntimeClass@@XZ 100121e0 f   dlg_SI_EndCond.obj
 0001:00011200       ??0CDlg_SI_EndCond@@QAE@XZ 10012200 f   dlg_SI_EndCond.obj
 0001:00011310       ??_ECDlg_SI_EndCond@@UAEPAXI@Z 10012310 f i dlg_SI_EndCond.obj
 0001:00011310       ??_GCDlg_SI_EndCond@@UAEPAXI@Z 10012310 f i dlg_SI_EndCond.obj
 0001:00011350       ??1CDlg_SI_EndCond@@UAE@XZ 10012350 f i dlg_SI_EndCond.obj
 0001:00011440       ??0CDlg_SI_EndCond@@QAE@PAVCWnd@@W4SOLIDPROC@@@Z 10012440 f   dlg_SI_EndCond.obj
 0001:00011620       ?DoDataExchange@CDlg_SI_EndCond@@MAEXPAVCDataExchange@@@Z 10012620 f   dlg_SI_EndCond.obj
 0001:00011720       ?_GetBaseMessageMap@CDlg_SI_EndCond@@KGPBUAFX_MSGMAP@@XZ 10012720 f   dlg_SI_EndCond.obj
 0001:00011740       ?GetMessageMap@CDlg_SI_EndCond@@MBEPBUAFX_MSGMAP@@XZ 10012740 f   dlg_SI_EndCond.obj
 0001:00011760       ?OnInitDialog@CDlg_SI_EndCond@@MAEHXZ 10012760 f   dlg_SI_EndCond.obj
 0001:000117e0       ?OnDefault@CDlg_SI_EndCond@@IAEXXZ 100127e0 f   dlg_SI_EndCond.obj
 0001:00011820       ?OnAllSame@CDlg_SI_EndCond@@IAEXXZ 10012820 f   dlg_SI_EndCond.obj
 0001:00011840       ?OnSelchangeComboNode@CDlg_SI_EndCond@@IAEXXZ 10012840 f   dlg_SI_EndCond.obj
 0001:00011860       ?OnSelchangeComboDir@CDlg_SI_EndCond@@IAEXXZ 10012860 f   dlg_SI_EndCond.obj
 0001:00011950       ?OnSelchangeComboTwist@CDlg_SI_EndCond@@IAEXXZ 10012950 f   dlg_SI_EndCond.obj
 0001:00011970       ?ResetDlgForTwist@CDlg_SI_EndCond@@UAEXXZ 10012970 f   dlg_SI_EndCond.obj
 0001:00011ae0       ?ResetDlg@CDlg_SI_EndCond@@UAEXXZ 10012ae0 f   dlg_SI_EndCond.obj
 0001:00011b30       ?ResetDlgForEdit@CDlg_SI_EndCond@@UAEXXZ 10012b30 f   dlg_SI_EndCond.obj
 0001:00011c30       ?FillBndryNodeIDCombo@CDlg_SI_EndCond@@IAEXAAV?$CList@VCString@@V1@@@@Z 10012c30 f   dlg_SI_EndCond.obj
 0001:00011cc0       ?FillOthers@CDlg_SI_EndCond@@IAEXHPAV?$CList@Ublendend@@U1@@@@Z 10012cc0 f   dlg_SI_EndCond.obj
 0001:00011dd0       ?SetIsoDir@CDlg_SI_EndCond@@IAEXXZ 10012dd0 f   dlg_SI_EndCond.obj
 0001:00011e50       ?SetNodeIDs@CDlg_SI_EndCond@@IAEXXZ 10012e50 f   dlg_SI_EndCond.obj
 0001:00011fb0       ?GetIndexJ@CDlg_SI_EndCond@@IAEHHH@Z 10012fb0 f   dlg_SI_EndCond.obj
 0001:00012000       ?SetIendJendBoolText@CDlg_SI_EndCond@@IAEXXZ 10013000 f   dlg_SI_EndCond.obj
 0001:000120a0       ?SetEndListIndex@CDlg_SI_EndCond@@IAEXXZ 100130a0 f   dlg_SI_EndCond.obj
 0001:000120f0       ?BuildBndryNodeList@CDlg_SI_EndCond@@IAEXXZ 100130f0 f   dlg_SI_EndCond.obj
 0001:00012180       ?SetIendJendCombos@CDlg_SI_EndCond@@IAEXXZ 10013180 f   dlg_SI_EndCond.obj
 0001:000124f0       ?OnBcLeftOn@CDlg_SI_EndCond@@IAEXXZ 100134f0 f   dlg_SI_EndCond.obj
 0001:000126b0       ?OnBcRightOn@CDlg_SI_EndCond@@IAEXXZ 100136b0 f   dlg_SI_EndCond.obj
 0001:00012870       ?OnSelchangeBcLeft@CDlg_SI_EndCond@@IAEXXZ 10013870 f   dlg_SI_EndCond.obj
 0001:000129b0       ?OnSelchangeBcRight@CDlg_SI_EndCond@@IAEXXZ 100139b0 f   dlg_SI_EndCond.obj
 0001:00012af0       ?OnUpdate@CDlg_SI_EndCond@@IAEXXZ 10013af0 f   dlg_SI_EndCond.obj
 0001:00012b90       ?OnCancel@CDlg_SI_EndCond@@MAEXXZ 10013b90 f   dlg_SI_EndCond.obj
 0001:00012bd0       ?UpdateDataBase_BC@CDlg_SI_EndCond@@IAEXHPAV?$CList@Ublendend@@U1@@@@Z 10013bd0 f   dlg_SI_EndCond.obj
 0001:00013230       ?UpdateDataBase_Twist@CDlg_SI_EndCond@@IAEXXZ 10014230 f   dlg_SI_EndCond.obj
 0001:00013420       ?OnEdit@CDlg_SI_EndCond@@IAEXXZ 10014420 f   dlg_SI_EndCond.obj
 0001:000134a0       ??0?$CList@Ublendend@@U1@@@QAE@H@Z 100144a0 f i dlg_SI_EndCond.obj
 0001:00013560       ?GetCount@?$CList@Ublendend@@U1@@@QBEHXZ 10014560 f i dlg_SI_EndCond.obj
 0001:00013580       ?AddTail@?$CList@Ublendend@@U1@@@QAEXPAV1@@Z 10014580 f i dlg_SI_EndCond.obj
 0001:00013610       ?AddTail@?$CList@Ublendend@@U1@@@QAEPAU__POSITION@@Ublendend@@@Z 10014610 f i dlg_SI_EndCond.obj
 0001:00013690       ?RemoveAll@?$CList@Ublendend@@U1@@@QAEXXZ 10014690 f i dlg_SI_EndCond.obj
 0001:00013720       ?GetAt@?$CList@Ublendend@@U1@@@QAEAAUblendend@@PAU__POSITION@@@Z 10014720 f i dlg_SI_EndCond.obj
 0001:00013770       ?FindIndex@?$CList@Ublendend@@U1@@@QBEPAU__POSITION@@H@Z 10014770 f i dlg_SI_EndCond.obj
 0001:00013800       ??1?$CList@Ublendend@@U1@@@UAE@XZ 10014800 f i dlg_SI_EndCond.obj
 0001:00013880       ?Serialize@?$CList@Ublendend@@U1@@@UAEXAAVCArchive@@@Z 10014880 f i dlg_SI_EndCond.obj
 0001:00013970       ?Dump@?$CList@Ublendend@@U1@@@UBEXAAVCDumpContext@@@Z 10014970 f i dlg_SI_EndCond.obj
 0001:00013a10       ?AssertValid@?$CList@Ublendend@@U1@@@UBEXXZ 10014a10 f i dlg_SI_EndCond.obj
 0001:00013ae0       ??0?$CList@VCString@@V1@@@QAE@H@Z 10014ae0 f i dlg_SI_EndCond.obj
 0001:00013ba0       ?GetCount@?$CList@VCString@@V1@@@QBEHXZ 10014ba0 f i dlg_SI_EndCond.obj
 0001:00013bc0       ?AddTail@?$CList@VCString@@V1@@@QAEPAU__POSITION@@VCString@@@Z 10014bc0 f i dlg_SI_EndCond.obj
 0001:00013c80       ?GetAt@?$CList@VCString@@V1@@@QAEAAVCString@@PAU__POSITION@@@Z 10014c80 f i dlg_SI_EndCond.obj
 0001:00013cd0       ?FindIndex@?$CList@VCString@@V1@@@QBEPAU__POSITION@@H@Z 10014cd0 f i dlg_SI_EndCond.obj
 0001:00013d60       ??1?$CList@VCString@@V1@@@UAE@XZ 10014d60 f i dlg_SI_EndCond.obj
 0001:00013de0       ?Serialize@?$CList@VCString@@V1@@@UAEXAAVCArchive@@@Z 10014de0 f i dlg_SI_EndCond.obj
 0001:00013f10       ?Dump@?$CList@VCString@@V1@@@UBEXAAVCDumpContext@@@Z 10014f10 f i dlg_SI_EndCond.obj
 0001:00013fb0       ?AssertValid@?$CList@VCString@@V1@@@UBEXXZ 10014fb0 f i dlg_SI_EndCond.obj
 0001:00014080       ??_G?$CList@Ublendend@@U1@@@UAEPAXI@Z 10015080 f i dlg_SI_EndCond.obj
 0001:00014080       ??_E?$CList@Ublendend@@U1@@@UAEPAXI@Z 10015080 f i dlg_SI_EndCond.obj
 0001:000140c0       ??_E?$CList@VCString@@V1@@@UAEPAXI@Z 100150c0 f i dlg_SI_EndCond.obj
 0001:000140c0       ??_G?$CList@VCString@@V1@@@UAEPAXI@Z 100150c0 f i dlg_SI_EndCond.obj
 0001:00014100       ?GetHeadPosition@?$CList@Ublendend@@U1@@@QBEPAU__POSITION@@XZ 10015100 f i dlg_SI_EndCond.obj
 0001:00014120       ?GetNext@?$CList@Ublendend@@U1@@@QAEAAUblendend@@AAPAU__POSITION@@@Z 10015120 f i dlg_SI_EndCond.obj
 0001:00014180       ?NewNode@?$CList@Ublendend@@U1@@@IAEPAUCNode@1@PAU21@0@Z 10015180 f i dlg_SI_EndCond.obj
 0001:000142a0       ?DestructElements@@YGXPAUblendend@@H@Z 100152a0 f i dlg_SI_EndCond.obj
 0001:00014310       ?SerializeElements@@YGXAAVCArchive@@PAUblendend@@H@Z 10015310 f i dlg_SI_EndCond.obj
 0001:00014390       ?DumpElements@@YGXAAVCDumpContext@@PBUblendend@@H@Z 10015390 f i dlg_SI_EndCond.obj
 0001:000143e0       ?RemoveAll@?$CList@VCString@@V1@@@QAEXXZ 100153e0 f i dlg_SI_EndCond.obj
 0001:00014470       ?GetHeadPosition@?$CList@VCString@@V1@@@QBEPAU__POSITION@@XZ 10015470 f i dlg_SI_EndCond.obj
 0001:00014490       ?GetNext@?$CList@VCString@@V1@@@QAEAAVCString@@AAPAU__POSITION@@@Z 10015490 f i dlg_SI_EndCond.obj
 0001:000144f0       ?NewNode@?$CList@VCString@@V1@@@IAEPAUCNode@1@PAU21@0@Z 100154f0 f i dlg_SI_EndCond.obj
 0001:00014610       ?DumpElements@@YGXAAVCDumpContext@@PBVCString@@H@Z 10015610 f i dlg_SI_EndCond.obj
 0001:00014660       ?ConstructElements@@YGXPAUblendend@@H@Z 10015660 f i dlg_SI_EndCond.obj
 0001:000146f0       ?CreateObject@CDlg_SI_Gordon@@SGPAVCObject@@XZ 100156f0 f   Dlg_SI_Gordon.obj
 0001:00014770       ?_GetBaseClass@CDlg_SI_Gordon@@KGPAUCRuntimeClass@@XZ 10015770 f   Dlg_SI_Gordon.obj
 0001:00014790       ?GetRuntimeClass@CDlg_SI_Gordon@@UBEPAUCRuntimeClass@@XZ 10015790 f   Dlg_SI_Gordon.obj
 0001:000147b0       ??0CDlg_SI_Gordon@@QAE@XZ  100157b0 f   Dlg_SI_Gordon.obj
 0001:00014820       ??_GCDlg_SI_Gordon@@UAEPAXI@Z 10015820 f i Dlg_SI_Gordon.obj
 0001:00014860       ??_ECDlg_SI_Gordon@@UAEPAXI@Z 10015860 f i Dlg_SI_Gordon.obj
 0001:000148e0       ??0CDlg_SI_Gordon@@QAE@PAVCWnd@@W4SOLIDPROC@@@Z 100158e0 f   Dlg_SI_Gordon.obj
 0001:00014960       ??1CDlg_SI_Gordon@@UAE@XZ  10015960 f   Dlg_SI_Gordon.obj
 0001:000149c0       ?DoDataExchange@CDlg_SI_Gordon@@MAEXPAVCDataExchange@@@Z 100159c0 f   Dlg_SI_Gordon.obj
 0001:00014a40       ?_GetBaseMessageMap@CDlg_SI_Gordon@@KGPBUAFX_MSGMAP@@XZ 10015a40 f   Dlg_SI_Gordon.obj
 0001:00014a60       ?GetMessageMap@CDlg_SI_Gordon@@MBEPBUAFX_MSGMAP@@XZ 10015a60 f   Dlg_SI_Gordon.obj
 0001:00014a80       ?OnInitDialog@CDlg_SI_Gordon@@MAEHXZ 10015a80 f   Dlg_SI_Gordon.obj
 0001:00014b50       ?ResetDlg@CDlg_SI_Gordon@@UAEXXZ 10015b50 f   Dlg_SI_Gordon.obj
 0001:00014c00       ?OnSelchangeSid@CDlg_SI_Gordon@@IAEXXZ 10015c00 f   Dlg_SI_Gordon.obj
 0001:00014c20       ?OnSelchangePid@CDlg_SI_Gordon@@IAEXXZ 10015c20 f   Dlg_SI_Gordon.obj
 0001:00014d50       ?OnUpdate@CDlg_SI_Gordon@@IAEXXZ 10015d50 f   Dlg_SI_Gordon.obj
 0001:00014d90       ?OnCancel@CDlg_SI_Gordon@@MAEXXZ 10015d90 f   Dlg_SI_Gordon.obj
 0001:00014dd0       ?FillListAllString_Patch@CDlg_SI_Gordon@@IAEXXZ 10015dd0 f   Dlg_SI_Gordon.obj
 0001:00014f10       ?FillListAllString_Solid@CDlg_SI_Gordon@@IAEXXZ 10015f10 f   Dlg_SI_Gordon.obj
 0001:00015050       ?OnAdvanced@CDlg_SI_Gordon@@IAEXXZ 10016050 f   Dlg_SI_Gordon.obj
 0001:00015070       ?CreateObject@CDlg_SI_Loft@@SGPAVCObject@@XZ 10016070 f   Dlg_SI_Loft.obj
 0001:000150f0       ?_GetBaseClass@CDlg_SI_Loft@@KGPAUCRuntimeClass@@XZ 100160f0 f   Dlg_SI_Loft.obj
 0001:00015110       ?GetRuntimeClass@CDlg_SI_Loft@@UBEPAUCRuntimeClass@@XZ 10016110 f   Dlg_SI_Loft.obj
 0001:00015130       ??0CDlg_SI_Loft@@QAE@XZ    10016130 f   Dlg_SI_Loft.obj
 0001:00015160       ??_GCDlg_SI_Loft@@UAEPAXI@Z 10016160 f i Dlg_SI_Loft.obj
 0001:000151a0       ??_ECDlg_SI_Loft@@UAEPAXI@Z 100161a0 f i Dlg_SI_Loft.obj
 0001:00015220       ??0CDlg_SI_Loft@@QAE@PAVCWnd@@W4SOLIDPROC@@@Z 10016220 f   Dlg_SI_Loft.obj
 0001:000152c0       ??1CDlg_SI_Loft@@UAE@XZ    100162c0 f   Dlg_SI_Loft.obj
 0001:000152f0       ?DoDataExchange@CDlg_SI_Loft@@MAEXPAVCDataExchange@@@Z 100162f0 f   Dlg_SI_Loft.obj
 0001:00015450       ?_GetBaseMessageMap@CDlg_SI_Loft@@KGPBUAFX_MSGMAP@@XZ 10016450 f   Dlg_SI_Loft.obj
 0001:00015470       ?GetMessageMap@CDlg_SI_Loft@@MBEPBUAFX_MSGMAP@@XZ 10016470 f   Dlg_SI_Loft.obj
 0001:00015490       ?OnInitDialog@CDlg_SI_Loft@@MAEHXZ 10016490 f   Dlg_SI_Loft.obj
 0001:00015560       ?ResetDlg@CDlg_SI_Loft@@UAEXXZ 10016560 f   Dlg_SI_Loft.obj
 0001:000156b0       ?OnSelchangeSid@CDlg_SI_Loft@@IAEXXZ 100166b0 f   Dlg_SI_Loft.obj
 0001:000156d0       ?OnSelchangePid@CDlg_SI_Loft@@IAEXXZ 100166d0 f   Dlg_SI_Loft.obj
 0001:00015800       ?OnUpdate@CDlg_SI_Loft@@IAEXXZ 10016800 f   Dlg_SI_Loft.obj
 0001:00015840       ?OnCancel@CDlg_SI_Loft@@MAEXXZ 10016840 f   Dlg_SI_Loft.obj
 0001:00015880       ?FillListAllString_Patch@CDlg_SI_Loft@@IAEXXZ 10016880 f   Dlg_SI_Loft.obj
 0001:000159c0       ?FillListAllString_Solid@CDlg_SI_Loft@@IAEXXZ 100169c0 f   Dlg_SI_Loft.obj
 0001:00015b00       ?OnClosed@CDlg_SI_Loft@@IAEXXZ 10016b00 f   Dlg_SI_Loft.obj
 0001:00015b30       ?OnAutoSeg@CDlg_SI_Loft@@IAEXXZ 10016b30 f   Dlg_SI_Loft.obj
 0001:00015ba0       ?OnKillfocusSegAngle@CDlg_SI_Loft@@IAEXXZ 10016ba0 f   Dlg_SI_Loft.obj
 0001:00015bc0       ?OnAdvanced@CDlg_SI_Loft@@IAEXXZ 10016bc0 f   Dlg_SI_Loft.obj
 0001:00015be0       ?CreateObject@CDlg_SI_Revolv@@SGPAVCObject@@XZ 10016be0 f   Dlg_SI_Revolv.obj
 0001:00015c60       ?_GetBaseClass@CDlg_SI_Revolv@@KGPAUCRuntimeClass@@XZ 10016c60 f   Dlg_SI_Revolv.obj
 0001:00015c80       ?GetRuntimeClass@CDlg_SI_Revolv@@UBEPAUCRuntimeClass@@XZ 10016c80 f   Dlg_SI_Revolv.obj
 0001:00015ca0       ??0CDlg_SI_Revolv@@QAE@XZ  10016ca0 f   Dlg_SI_Revolv.obj
 0001:00015d10       ??_GCDlg_SI_Revolv@@UAEPAXI@Z 10016d10 f i Dlg_SI_Revolv.obj
 0001:00015d50       ??_ECDlg_SI_Revolv@@UAEPAXI@Z 10016d50 f i Dlg_SI_Revolv.obj
 0001:00015dd0       ??0CDlg_SI_Revolv@@QAE@PAVCWnd@@W4SOLIDPROC@@@Z 10016dd0 f   Dlg_SI_Revolv.obj
 0001:00015ed0       ??1CDlg_SI_Revolv@@UAE@XZ  10016ed0 f   Dlg_SI_Revolv.obj
 0001:00015f30       ?DoDataExchange@CDlg_SI_Revolv@@MAEXPAVCDataExchange@@@Z 10016f30 f   Dlg_SI_Revolv.obj
 0001:000160e0       ?_GetBaseMessageMap@CDlg_SI_Revolv@@KGPBUAFX_MSGMAP@@XZ 100170e0 f   Dlg_SI_Revolv.obj
 0001:00016100       ?GetMessageMap@CDlg_SI_Revolv@@MBEPBUAFX_MSGMAP@@XZ 10017100 f   Dlg_SI_Revolv.obj
 0001:00016120       ?OnInitDialog@CDlg_SI_Revolv@@MAEHXZ 10017120 f   Dlg_SI_Revolv.obj
 0001:00016220       ?ResetDlg@CDlg_SI_Revolv@@UAEXXZ 10017220 f   Dlg_SI_Revolv.obj
 0001:000163b0       ?OnGenBCurve@CDlg_SI_Revolv@@IAEXXZ 100173b0 f   Dlg_SI_Revolv.obj
 0001:000163e0       ?OnGenBPatch@CDlg_SI_Revolv@@IAEXXZ 100173e0 f   Dlg_SI_Revolv.obj
 0001:00016410       ?OnSelchangeSid@CDlg_SI_Revolv@@IAEXXZ 10017410 f   Dlg_SI_Revolv.obj
 0001:00016430       ?OnSelchangePid@CDlg_SI_Revolv@@IAEXXZ 10017430 f   Dlg_SI_Revolv.obj
 0001:00016560       ?OnCancel@CDlg_SI_Revolv@@MAEXXZ 10017560 f   Dlg_SI_Revolv.obj
 0001:000165a0       ?FillListAllString_Patch@CDlg_SI_Revolv@@IAEXXZ 100175a0 f   Dlg_SI_Revolv.obj
 0001:000166e0       ?FillListAllString_Solid@CDlg_SI_Revolv@@IAEXXZ 100176e0 f   Dlg_SI_Revolv.obj
 0001:00016820       ?FillListAllString_Node@CDlg_SI_Revolv@@IAEXXZ 10017820 f   Dlg_SI_Revolv.obj
 0001:00016940       ?OnClosed@CDlg_SI_Revolv@@IAEXXZ 10017940 f   Dlg_SI_Revolv.obj
 0001:000169d0       ?OnUpdate@CDlg_SI_Revolv@@IAEXXZ 100179d0 f   Dlg_SI_Revolv.obj
 0001:00016b30       ?OnAxis@CDlg_SI_Revolv@@IAEXXZ 10017b30 f   Dlg_SI_Revolv.obj
 0001:00016cf0       ?OnAxisX@CDlg_SI_Revolv@@IAEXXZ 10017cf0 f   Dlg_SI_Revolv.obj
 0001:00016d10       ?OnAxisY@CDlg_SI_Revolv@@IAEXXZ 10017d10 f   Dlg_SI_Revolv.obj
 0001:00016d30       ?OnAxisZ@CDlg_SI_Revolv@@IAEXXZ 10017d30 f   Dlg_SI_Revolv.obj
 0001:00016d50       ?OnNegative@CDlg_SI_Revolv@@IAEXXZ 10017d50 f   Dlg_SI_Revolv.obj
 0001:00016d80       ?OnKillfocusCoord@CDlg_SI_Revolv@@IAEXXZ 10017d80 f   Dlg_SI_Revolv.obj
 0001:00016dd0       ?CreateObject@CDlg_SI_Sweep@@SGPAVCObject@@XZ 10017dd0 f   Dlg_SI_Sweep.obj
 0001:00016e50       ?_GetBaseClass@CDlg_SI_Sweep@@KGPAUCRuntimeClass@@XZ 10017e50 f   Dlg_SI_Sweep.obj
 0001:00016e70       ?GetRuntimeClass@CDlg_SI_Sweep@@UBEPAUCRuntimeClass@@XZ 10017e70 f   Dlg_SI_Sweep.obj
 0001:00016e90       ??0CDlg_SI_Sweep@@QAE@XZ   10017e90 f   Dlg_SI_Sweep.obj
 0001:00016ec0       ??_GCDlg_SI_Sweep@@UAEPAXI@Z 10017ec0 f i Dlg_SI_Sweep.obj
 0001:00016f00       ??_ECDlg_SI_Sweep@@UAEPAXI@Z 10017f00 f i Dlg_SI_Sweep.obj
 0001:00016f80       ??0CDlg_SI_Sweep@@QAE@PAVCWnd@@W4SOLIDPROC@@@Z 10017f80 f   Dlg_SI_Sweep.obj
 0001:00016ff0       ??1CDlg_SI_Sweep@@UAE@XZ   10017ff0 f   Dlg_SI_Sweep.obj
 0001:00017020       ?DoDataExchange@CDlg_SI_Sweep@@MAEXPAVCDataExchange@@@Z 10018020 f   Dlg_SI_Sweep.obj
 0001:00017170       ?_GetBaseMessageMap@CDlg_SI_Sweep@@KGPBUAFX_MSGMAP@@XZ 10018170 f   Dlg_SI_Sweep.obj
 0001:00017190       ?GetMessageMap@CDlg_SI_Sweep@@MBEPBUAFX_MSGMAP@@XZ 10018190 f   Dlg_SI_Sweep.obj
 0001:000171b0       ?OnInitDialog@CDlg_SI_Sweep@@MAEHXZ 100181b0 f   Dlg_SI_Sweep.obj
 0001:000172e0       ?ResetDlg@CDlg_SI_Sweep@@UAEXXZ 100182e0 f   Dlg_SI_Sweep.obj
 0001:00017470       ?OnSelchangeSid@CDlg_SI_Sweep@@IAEXXZ 10018470 f   Dlg_SI_Sweep.obj
 0001:00017490       ?OnSelchangePid@CDlg_SI_Sweep@@IAEXXZ 10018490 f   Dlg_SI_Sweep.obj
 0001:000174b0       ?OnSelchangeCid@CDlg_SI_Sweep@@IAEXXZ 100184b0 f   Dlg_SI_Sweep.obj
 0001:000175e0       ?OnSelchangeNid@CDlg_SI_Sweep@@IAEXXZ 100185e0 f   Dlg_SI_Sweep.obj
 0001:00017600       ?OnUpdate@CDlg_SI_Sweep@@IAEXXZ 10018600 f   Dlg_SI_Sweep.obj
 0001:00017650       ?OnCancel@CDlg_SI_Sweep@@MAEXXZ 10018650 f   Dlg_SI_Sweep.obj
 0001:00017690       ?FillListAllString_Solid@CDlg_SI_Sweep@@IAEXXZ 10018690 f   Dlg_SI_Sweep.obj
 0001:000176b0       ?FillListAllString_Patch@CDlg_SI_Sweep@@IAEXXZ 100186b0 f   Dlg_SI_Sweep.obj
 0001:000177f0       ?FillListAllString_Curve@CDlg_SI_Sweep@@IAEXXZ 100187f0 f   Dlg_SI_Sweep.obj
 0001:00017930       ?FillListAllString_Node@CDlg_SI_Sweep@@IAEXXZ 10018930 f   Dlg_SI_Sweep.obj
 0001:00017a50       ?OnIncrement@CDlg_SI_Sweep@@IAEXXZ 10018a50 f   Dlg_SI_Sweep.obj
 0001:00017b80       ?OnDistrib@CDlg_SI_Sweep@@IAEXXZ 10018b80 f   Dlg_SI_Sweep.obj
 0001:00017d30       ?CreateObject@CDlg_SI_Tensor@@SGPAVCObject@@XZ 10018d30 f   Dlg_SI_Tensor.obj
 0001:00017db0       ?_GetBaseClass@CDlg_SI_Tensor@@KGPAUCRuntimeClass@@XZ 10018db0 f   Dlg_SI_Tensor.obj
 0001:00017dd0       ?GetRuntimeClass@CDlg_SI_Tensor@@UBEPAUCRuntimeClass@@XZ 10018dd0 f   Dlg_SI_Tensor.obj
 0001:00017df0       ??0CDlg_SI_Tensor@@QAE@XZ  10018df0 f   Dlg_SI_Tensor.obj
 0001:00017e20       ??_GCDlg_SI_Tensor@@UAEPAXI@Z 10018e20 f i Dlg_SI_Tensor.obj
 0001:00017e60       ??_ECDlg_SI_Tensor@@UAEPAXI@Z 10018e60 f i Dlg_SI_Tensor.obj
 0001:00017ee0       ??0CDlg_SI_Tensor@@QAE@PAVCWnd@@W4SOLIDPROC@@@Z 10018ee0 f   Dlg_SI_Tensor.obj
 0001:00017fc0       ??1CDlg_SI_Tensor@@UAE@XZ  10018fc0 f   Dlg_SI_Tensor.obj
 0001:00017ff0       ?DoDataExchange@CDlg_SI_Tensor@@MAEXPAVCDataExchange@@@Z 10018ff0 f   Dlg_SI_Tensor.obj
 0001:000181d0       ?_GetBaseMessageMap@CDlg_SI_Tensor@@KGPBUAFX_MSGMAP@@XZ 100191d0 f   Dlg_SI_Tensor.obj
 0001:000181f0       ?GetMessageMap@CDlg_SI_Tensor@@MBEPBUAFX_MSGMAP@@XZ 100191f0 f   Dlg_SI_Tensor.obj
 0001:00018210       ?OnInitDialog@CDlg_SI_Tensor@@MAEHXZ 10019210 f   Dlg_SI_Tensor.obj
 0001:000182e0       ?ResetDlg@CDlg_SI_Tensor@@UAEXXZ 100192e0 f   Dlg_SI_Tensor.obj
 0001:00018430       ?OnSelchangeSid@CDlg_SI_Tensor@@IAEXXZ 10019430 f   Dlg_SI_Tensor.obj
 0001:00018450       ?OnSelchangeNid@CDlg_SI_Tensor@@IAEXXZ 10019450 f   Dlg_SI_Tensor.obj
 0001:00018470       ?OnUpdate@CDlg_SI_Tensor@@IAEXXZ 10019470 f   Dlg_SI_Tensor.obj
 0001:000184b0       ?OnCancel@CDlg_SI_Tensor@@MAEXXZ 100194b0 f   Dlg_SI_Tensor.obj
 0001:000184f0       ?FillListAllString_Solid@CDlg_SI_Tensor@@IAEXXZ 100194f0 f   Dlg_SI_Tensor.obj
 0001:00018630       ?FillListAllString_Node@CDlg_SI_Tensor@@IAEXXZ 10019630 f   Dlg_SI_Tensor.obj
 0001:00018750       ?OnClosed@CDlg_SI_Tensor@@IAEXXZ 10019750 f   Dlg_SI_Tensor.obj
 0001:000187e0       ?OnAutoSeg@CDlg_SI_Tensor@@IAEXXZ 100197e0 f   Dlg_SI_Tensor.obj
 0001:00018850       ?OnKillfocusSegAngle@CDlg_SI_Tensor@@IAEXXZ 10019850 f   Dlg_SI_Tensor.obj
 0001:00018870       ?OnAdvanced@CDlg_SI_Tensor@@IAEXXZ 10019870 f   Dlg_SI_Tensor.obj
 0001:00018890       ??1CXtruLens@@UAE@XZ       10019890 f i Dlg_SI_Xtrude.obj
 0001:000188b0       ??_FCXtruLens@@QAEXXZ      100198b0 f i Dlg_SI_Xtrude.obj
 0001:000188d0       ?CreateObject@CDlg_SI_Xtrude@@SGPAVCObject@@XZ 100198d0 f   Dlg_SI_Xtrude.obj
 0001:00018950       ?_GetBaseClass@CDlg_SI_Xtrude@@KGPAUCRuntimeClass@@XZ 10019950 f   Dlg_SI_Xtrude.obj
 0001:00018970       ?GetRuntimeClass@CDlg_SI_Xtrude@@UBEPAUCRuntimeClass@@XZ 10019970 f   Dlg_SI_Xtrude.obj
 0001:00018990       ??0CDlg_SI_Xtrude@@QAE@XZ  10019990 f   Dlg_SI_Xtrude.obj
 0001:00018a00       ??_GCDlg_SI_Xtrude@@UAEPAXI@Z 10019a00 f i Dlg_SI_Xtrude.obj
 0001:00018a40       ??_ECDlg_SI_Xtrude@@UAEPAXI@Z 10019a40 f i Dlg_SI_Xtrude.obj
 0001:00018ac0       ??0CDlg_SI_Xtrude@@QAE@PAVCWnd@@W4SOLIDPROC@@@Z 10019ac0 f   Dlg_SI_Xtrude.obj
 0001:00018b90       ??1CDlg_SI_Xtrude@@UAE@XZ  10019b90 f   Dlg_SI_Xtrude.obj
 0001:00018bf0       ?DoDataExchange@CDlg_SI_Xtrude@@MAEXPAVCDataExchange@@@Z 10019bf0 f   Dlg_SI_Xtrude.obj
 0001:00018d40       ?_GetBaseMessageMap@CDlg_SI_Xtrude@@KGPBUAFX_MSGMAP@@XZ 10019d40 f   Dlg_SI_Xtrude.obj
 0001:00018d60       ?GetMessageMap@CDlg_SI_Xtrude@@MBEPBUAFX_MSGMAP@@XZ 10019d60 f   Dlg_SI_Xtrude.obj
 0001:00018d80       ?OnInitDialog@CDlg_SI_Xtrude@@MAEHXZ 10019d80 f   Dlg_SI_Xtrude.obj
 0001:00018e80       ?ResetDlg@CDlg_SI_Xtrude@@UAEXXZ 10019e80 f   Dlg_SI_Xtrude.obj
 0001:00019000       ?OnExtru1@CDlg_SI_Xtrude@@IAEXXZ 1001a000 f   Dlg_SI_Xtrude.obj
 0001:00019050       ?OnExtru2@CDlg_SI_Xtrude@@IAEXXZ 1001a050 f   Dlg_SI_Xtrude.obj
 0001:00019150       ?OnGenBCurve@CDlg_SI_Xtrude@@IAEXXZ 1001a150 f   Dlg_SI_Xtrude.obj
 0001:00019180       ?OnGenBPatch@CDlg_SI_Xtrude@@IAEXXZ 1001a180 f   Dlg_SI_Xtrude.obj
 0001:000191b0       ?OnSelchangeSid@CDlg_SI_Xtrude@@IAEXXZ 1001a1b0 f   Dlg_SI_Xtrude.obj
 0001:000191d0       ?OnSelchangePid@CDlg_SI_Xtrude@@IAEXXZ 1001a1d0 f   Dlg_SI_Xtrude.obj
 0001:00019300       ?OnSelchangeNid@CDlg_SI_Xtrude@@IAEXXZ 1001a300 f   Dlg_SI_Xtrude.obj
 0001:00019320       ?OnUpdate@CDlg_SI_Xtrude@@IAEXXZ 1001a320 f   Dlg_SI_Xtrude.obj
 0001:00019360       ?OnCancel@CDlg_SI_Xtrude@@MAEXXZ 1001a360 f   Dlg_SI_Xtrude.obj
 0001:000193a0       ?FillListAllString_Patch@CDlg_SI_Xtrude@@IAEXXZ 1001a3a0 f   Dlg_SI_Xtrude.obj
 0001:000194e0       ?FillListAllString_Solid@CDlg_SI_Xtrude@@IAEXXZ 1001a4e0 f   Dlg_SI_Xtrude.obj
 0001:00019620       ?FillListAllString_Node@CDlg_SI_Xtrude@@IAEXXZ 1001a620 f   Dlg_SI_Xtrude.obj
 0001:00019740       ??0CDlg_Loft_S@@QAE@PAVCWnd@@@Z 1001a740 f   Dlg_slof.obj
 0001:000198d0       ??_ECDlg_Loft_S@@UAEPAXI@Z 1001a8d0 f i Dlg_slof.obj
 0001:000198d0       ??_GCDlg_Loft_S@@UAEPAXI@Z 1001a8d0 f i Dlg_slof.obj
 0001:00019910       ??1CDlg_Loft_S@@UAE@XZ     1001a910 f i Dlg_slof.obj
 0001:000199b0       ?DoDataExchange@CDlg_Loft_S@@MAEXPAVCDataExchange@@@Z 1001a9b0 f   Dlg_slof.obj
 0001:00019aa0       ?_GetBaseMessageMap@CDlg_Loft_S@@KGPBUAFX_MSGMAP@@XZ 1001aaa0 f   Dlg_slof.obj
 0001:00019ac0       ?GetMessageMap@CDlg_Loft_S@@MBEPBUAFX_MSGMAP@@XZ 1001aac0 f   Dlg_slof.obj
 0001:00019ae0       ?OnInitDialog@CDlg_Loft_S@@MAEHXZ 1001aae0 f   Dlg_slof.obj
 0001:00019c10       ?OnSelchangeCid1@CDlg_Loft_S@@IAEXXZ 1001ac10 f   Dlg_slof.obj
 0001:00019d70       ?OnSelchangeCid2@CDlg_Loft_S@@IAEXXZ 1001ad70 f   Dlg_slof.obj
 0001:00019ed0       ?OnOK@CDlg_Loft_S@@MAEXXZ  1001aed0 f   Dlg_slof.obj
 0001:0001a0f0       ?OnCancel@CDlg_Loft_S@@MAEXXZ 1001b0f0 f   Dlg_slof.obj
 0001:0001a180       ?FillListAllSolidIDs@CDlg_Loft_S@@IAEXXZ 1001b180 f   Dlg_slof.obj
 0001:0001a2b0       ?FillListAllPatchIDs@CDlg_Loft_S@@IAEXXZ 1001b2b0 f   Dlg_slof.obj
 0001:0001a410       ?SetInfoForDataBase@CDlg_Loft_S@@QAEXPAVCDrSolid@@@Z 1001b410 f   Dlg_slof.obj
 0001:0001a930       ??1CDlg_SolI@@UAE@XZ       1001b930 f i dlg_SolI.obj
 0001:0001a9c0       ??0CDlg_SolI@@QAE@PAVCWnd@@W4SOLIDPROC@@@Z 1001b9c0 f   dlg_SolI.obj
 0001:0001aae0       ??_GCDlg_SolI@@UAEPAXI@Z   1001bae0 f i dlg_SolI.obj
 0001:0001ab20       ??_ECDlg_SolI@@UAEPAXI@Z   1001bb20 f i dlg_SolI.obj
 0001:0001aba0       ?DoDataExchange@CDlg_SolI@@MAEXPAVCDataExchange@@@Z 1001bba0 f   dlg_SolI.obj
 0001:0001ad70       ?_GetBaseMessageMap@CDlg_SolI@@KGPBUAFX_MSGMAP@@XZ 1001bd70 f   dlg_SolI.obj
 0001:0001ad90       ?GetMessageMap@CDlg_SolI@@MBEPBUAFX_MSGMAP@@XZ 1001bd90 f   dlg_SolI.obj
 0001:0001adb0       ?Create@CDlg_SolI@@QAEHXZ  1001bdb0 f   dlg_SolI.obj
 0001:0001aea0       ?OnInitDialog@CDlg_SolI@@MAEHXZ 1001bea0 f   dlg_SolI.obj
 0001:0001afa0       ?ResetDlg@CDlg_SolI@@QAEXXZ 1001bfa0 f   dlg_SolI.obj
 0001:0001bde0       ?OnSelchangePid@CDlg_SolI@@IAEXXZ 1001cde0 f   dlg_SolI.obj
 0001:0001be00       ?OnSelchangeCid@CDlg_SolI@@IAEXXZ 1001ce00 f   dlg_SolI.obj
 0001:0001bf40       ?OnSelchangeNid@CDlg_SolI@@IAEXXZ 1001cf40 f   dlg_SolI.obj
 0001:0001bf60       ?OnUpdate@CDlg_SolI@@IAEXXZ 1001cf60 f   dlg_SolI.obj
 0001:0001bfa0       ?OnCancel@CDlg_SolI@@MAEXXZ 1001cfa0 f   dlg_SolI.obj
 0001:0001bfe0       ?FillListAllString_Solid@CDlg_SolI@@IAEXXZ 1001cfe0 f   dlg_SolI.obj
 0001:0001c120       ?FillListAllString_Patch@CDlg_SolI@@IAEXXZ 1001d120 f   dlg_SolI.obj
 0001:0001c260       ?FillListAllString_Curve@CDlg_SolI@@IAEXXZ 1001d260 f   dlg_SolI.obj
 0001:0001c3a0       ?FillListAllString_Node@CDlg_SolI@@IAEXXZ 1001d3a0 f   dlg_SolI.obj
 0001:0001c4c0       ?OnClosed@CDlg_SolI@@IAEXXZ 1001d4c0 f   dlg_SolI.obj
 0001:0001c550       ?OnAutoSeg@CDlg_SolI@@IAEXXZ 1001d550 f   dlg_SolI.obj
 0001:0001c5c0       ?OnKillfocusSegAngle@CDlg_SolI@@IAEXXZ 1001d5c0 f   dlg_SolI.obj
 0001:0001c5e0       ?OnIncrement@CDlg_SolI@@IAEXXZ 1001d5e0 f   dlg_SolI.obj
 0001:0001c7b0       ??0CDlg_RotP_S@@QAE@PAVCWnd@@@Z 1001d7b0 f   Dlg_srot.obj
 0001:0001c990       ??_GCDlg_RotP_S@@UAEPAXI@Z 1001d990 f i Dlg_srot.obj
 0001:0001c990       ??_ECDlg_RotP_S@@UAEPAXI@Z 1001d990 f i Dlg_srot.obj
 0001:0001c9d0       ??1CDlg_RotP_S@@UAE@XZ     1001d9d0 f i Dlg_srot.obj
 0001:0001ca80       ?DoDataExchange@CDlg_RotP_S@@MAEXPAVCDataExchange@@@Z 1001da80 f   Dlg_srot.obj
 0001:0001cb80       ?_GetBaseMessageMap@CDlg_RotP_S@@KGPBUAFX_MSGMAP@@XZ 1001db80 f   Dlg_srot.obj
 0001:0001cba0       ?GetMessageMap@CDlg_RotP_S@@MBEPBUAFX_MSGMAP@@XZ 1001dba0 f   Dlg_srot.obj
 0001:0001cbc0       ?OnInitDialog@CDlg_RotP_S@@MAEHXZ 1001dbc0 f   Dlg_srot.obj
 0001:0001cd00       ?OnOK@CDlg_RotP_S@@MAEXXZ  1001dd00 f   Dlg_srot.obj
 0001:0001ce30       ?OnCancel@CDlg_RotP_S@@MAEXXZ 1001de30 f   Dlg_srot.obj
 0001:0001ce90       ?FillListAllSolidIDs@CDlg_RotP_S@@IAEXXZ 1001de90 f   Dlg_srot.obj
 0001:0001cfc0       ?FillListAllPatchIDs@CDlg_RotP_S@@IAEXXZ 1001dfc0 f   Dlg_srot.obj
 0001:0001d0f0       ?FillListAllNodeIDs@CDlg_RotP_S@@IAEXXZ 1001e0f0 f   Dlg_srot.obj
 0001:0001d250       ?SetInfoForDataBase@CDlg_RotP_S@@QAEXPAVCDrSolid@@@Z 1001e250 f   Dlg_srot.obj
 0001:0001db10       ??0CDlg_Swip_S@@QAE@PAVCWnd@@@Z 1001eb10 f   Dlg_sswi.obj
 0001:0001dda0       ??_ECDlg_Swip_S@@UAEPAXI@Z 1001eda0 f i Dlg_sswi.obj
 0001:0001dda0       ??_GCDlg_Swip_S@@UAEPAXI@Z 1001eda0 f i Dlg_sswi.obj
 0001:0001dde0       ??1CDlg_Swip_S@@UAE@XZ     1001ede0 f i Dlg_sswi.obj
 0001:0001def0       ?DoDataExchange@CDlg_Swip_S@@MAEXPAVCDataExchange@@@Z 1001eef0 f   Dlg_sswi.obj
 0001:0001e0f0       ?_GetBaseMessageMap@CDlg_Swip_S@@KGPBUAFX_MSGMAP@@XZ 1001f0f0 f   Dlg_sswi.obj
 0001:0001e110       ?GetMessageMap@CDlg_Swip_S@@MBEPBUAFX_MSGMAP@@XZ 1001f110 f   Dlg_sswi.obj
 0001:0001e130       ?OnInitDialog@CDlg_Swip_S@@MAEHXZ 1001f130 f   Dlg_sswi.obj
 0001:0001e3a0       ?OnIncrement@CDlg_Swip_S@@IAEXXZ 1001f3a0 f   Dlg_sswi.obj
 0001:0001e430       ?OnIncRad@CDlg_Swip_S@@IAEXXZ 1001f430 f   Dlg_sswi.obj
 0001:0001e4c0       ?OnOK@CDlg_Swip_S@@MAEXXZ  1001f4c0 f   Dlg_sswi.obj
 0001:0001e730       ?OnCancel@CDlg_Swip_S@@MAEXXZ 1001f730 f   Dlg_sswi.obj
 0001:0001e750       ?FillListAllString@CDlg_Swip_S@@IAEXXZ 1001f750 f   Dlg_sswi.obj
 0001:0001e860       ?FillListAllSolidIDs@CDlg_Swip_S@@IAEXXZ 1001f860 f   Dlg_sswi.obj
 0001:0001e990       ?FillListAllPatchIDs@CDlg_Swip_S@@IAEXXZ 1001f990 f   Dlg_sswi.obj
 0001:0001ead0       ?FillListAllCurveIDs@CDlg_Swip_S@@IAEXXZ 1001fad0 f   Dlg_sswi.obj
 0001:0001ec50       ?SetInfoForDataBase@CDlg_Swip_S@@QAEXPAVCDrSolid@@@Z 1001fc50 f   Dlg_sswi.obj
 0001:0001f210       ??0CDlg_Xtrd_S@@QAE@PAVCWnd@@@Z 10020210 f   Dlg_sxtr.obj
 0001:0001f3f0       ??_ECDlg_Xtrd_S@@UAEPAXI@Z 100203f0 f i Dlg_sxtr.obj
 0001:0001f3f0       ??_GCDlg_Xtrd_S@@UAEPAXI@Z 100203f0 f i Dlg_sxtr.obj
 0001:0001f430       ??1CDlg_Xtrd_S@@UAE@XZ     10020430 f i Dlg_sxtr.obj
 0001:0001f4e0       ?DoDataExchange@CDlg_Xtrd_S@@MAEXPAVCDataExchange@@@Z 100204e0 f   Dlg_sxtr.obj
 0001:0001f620       ?_GetBaseMessageMap@CDlg_Xtrd_S@@KGPBUAFX_MSGMAP@@XZ 10020620 f   Dlg_sxtr.obj
 0001:0001f640       ?GetMessageMap@CDlg_Xtrd_S@@MBEPBUAFX_MSGMAP@@XZ 10020640 f   Dlg_sxtr.obj
 0001:0001f660       ?OnInitDialog@CDlg_Xtrd_S@@MAEHXZ 10020660 f   Dlg_sxtr.obj
 0001:0001f7a0       ?OnOK@CDlg_Xtrd_S@@MAEXXZ  100207a0 f   Dlg_sxtr.obj
 0001:0001f840       ?OnCancel@CDlg_Xtrd_S@@MAEXXZ 10020840 f   Dlg_sxtr.obj
 0001:0001f8d0       ?FillListAllSolidIDs@CDlg_Xtrd_S@@IAEXXZ 100208d0 f   Dlg_sxtr.obj
 0001:0001fa00       ?FillListAllPatchIDs@CDlg_Xtrd_S@@IAEXXZ 10020a00 f   Dlg_sxtr.obj
 0001:0001fb30       ?FillListAllNodeIDs@CDlg_Xtrd_S@@IAEXXZ 10020b30 f   Dlg_sxtr.obj
 0001:0001fc90       ?SetInfoForDataBase@CDlg_Xtrd_S@@QAEXPAVCDrSolid@@@Z 10020c90 f   Dlg_sxtr.obj
 0001:00020480       ??0CLoftSol_Compat@@QAE@XZ 10021480 f i LoftSol_Com.obj
 0001:000204b0       ??1CLoftSol_Compat@@UAE@XZ 100214b0 f i LoftSol_Com.obj
 0001:000204e0       ??_GCLoftSol_Compat@@UAEPAXI@Z 100214e0 f i LoftSol_Com.obj
 0001:00020520       ??_ECLoftSol_Compat@@UAEPAXI@Z 10021520 f i LoftSol_Com.obj
 0001:000205a0       ?_GetBaseClass@CLoftSol_Compat@@KGPAUCRuntimeClass@@XZ 100215a0 f   LoftSol_Com.obj
 0001:000205c0       ?GetRuntimeClass@CLoftSol_Compat@@UBEPAUCRuntimeClass@@XZ 100215c0 f   LoftSol_Com.obj
 0001:000205e0       ?ArePatchesCompatible@CLoftSol_Compat@@QAEHPAVCDListMgr@@PAV?$CList@W4PATCHLATCH@@W41@@@@Z 100215e0 f   LoftSol_Com.obj
 0001:00020660       ?IsCompat_Closed@CLoftSol_Compat@@IAEHPAVCDListMgr@@AAH@Z 10021660 f   LoftSol_Com.obj
 0001:000206f0       ?PreProcessPatchesControlInfo@CLoftSol_Compat@@IAEHPAVCDListMgr@@AAH1@Z 100216f0 f   LoftSol_Com.obj
 0001:00020740       ?IsRational@CLoftSol_Compat@@IAEHPAVCDListMgr@@@Z 10021740 f   LoftSol_Com.obj
 0001:000207a0       ?GetTopDegree@CLoftSol_Compat@@IAEHPAVCDListMgr@@@Z 100217a0 f   LoftSol_Com.obj
 0001:00020810       ?IsCompat_NumberOfCNodes@CLoftSol_Compat@@IAEHPAVCDListMgr@@HAAH1@Z 10021810 f   LoftSol_Com.obj
 0001:00020830       ?IsCompat_OutputInfo@CLoftSol_Compat@@IAEHPAVCDListMgr@@PAV?$CList@W4PATCHLATCH@@W41@@@@Z 10021830 f   LoftSol_Com.obj
 0001:00020850       ?GetType@CPentaHed@@UAEHXZ 10021850 f i mi_gangs.obj
 0001:00020870       ?SetType@CPentaHed@@UAEXH@Z 10021870 f i mi_gangs.obj
 0001:00020890       ?GetCNIndexList@CPentaHed@@UAEPAV?$CList@HH@@XZ 10021890 f i mi_gangs.obj
 0001:000208b0       ?GetSolIndex@CPentaHed@@UAEHXZ 100218b0 f i mi_gangs.obj
 0001:000208d0       ?SetSolIndex@CPentaHed@@UAEXH@Z 100218d0 f i mi_gangs.obj
 0001:000208f0       ?GetDegree_ST@CPentaHed@@UAEHXZ 100218f0 f i mi_gangs.obj
 0001:00020910       ?SetDegree_ST@CPentaHed@@UAEXH@Z 10021910 f i mi_gangs.obj
 0001:00020930       ?GetDegree_R@CPentaHed@@UAEHXZ 10021930 f i mi_gangs.obj
 0001:00020950       ?SetDegree_R@CPentaHed@@UAEXH@Z 10021950 f i mi_gangs.obj
 0001:00020970       ?GetVertexIndex@CPentaHed@@UAEHH@Z 10021970 f i mi_gangs.obj
 0001:00020990       ?SetVertexIndex@CPentaHed@@UAEXHH@Z 10021990 f i mi_gangs.obj
 0001:000209c0       ?GetVertexIndex@CPentaHed@@UAEPAHXZ 100219c0 f i mi_gangs.obj
 0001:000209e0       ?GetNebrVertexIndex@CPentaHed@@UAEHH@Z 100219e0 f i mi_gangs.obj
 0001:00020a00       ?SetNebrVertexIndex@CPentaHed@@UAEXHH@Z 10021a00 f i mi_gangs.obj
 0001:00020a30       ?GetNebrVertexIndex@CPentaHed@@UAEPAHXZ 10021a30 f i mi_gangs.obj
 0001:00020a50       ?GetNebrPentaHedIndex@CPentaHed@@UAEHH@Z 10021a50 f i mi_gangs.obj
 0001:00020a70       ?SetNebrPentaHedIndex@CPentaHed@@UAEXHH@Z 10021a70 f i mi_gangs.obj
 0001:00020aa0       ?GetNebrPentaHedIndex@CPentaHed@@UAEPAHXZ 10021aa0 f i mi_gangs.obj
 0001:00020ac0       ?GetOutStartIndex@CPentaHed@@UAEHXZ 10021ac0 f i mi_gangs.obj
 0001:00020ae0       ?SetOutStartIndex@CPentaHed@@UAEXH@Z 10021ae0 f i mi_gangs.obj
 0001:00020b00       ?GetOutSeg_S@CPentaHed@@UAEHXZ 10021b00 f i mi_gangs.obj
 0001:00020b20       ?SetOutSeg_S@CPentaHed@@UAEXH@Z 10021b20 f i mi_gangs.obj
 0001:00020b40       ?GetOutSeg_R@CPentaHed@@UAEHXZ 10021b40 f i mi_gangs.obj
 0001:00020b60       ?SetOutSeg_R@CPentaHed@@UAEXH@Z 10021b60 f i mi_gangs.obj
 0001:00020b80       ?GetiOutGlo_ST@CPentaHed@@UAEHXZ 10021b80 f i mi_gangs.obj
 0001:00020ba0       ?SetiOutGlo_ST@CPentaHed@@UAEXH@Z 10021ba0 f i mi_gangs.obj
 0001:00020bc0       ?GetjOutGlo_ST@CPentaHed@@UAEHXZ 10021bc0 f i mi_gangs.obj
 0001:00020be0       ?SetjOutGlo_ST@CPentaHed@@UAEXH@Z 10021be0 f i mi_gangs.obj
 0001:00020c00       ??1CPentaHed@@UAE@XZ       10021c00 f i mi_gangs.obj
 0001:00020c60       ??_GCPentaHed@@UAEPAXI@Z   10021c60 f i mi_gangs.obj
 0001:00020ca0       ??_ECPentaHed@@UAEPAXI@Z   10021ca0 f i mi_gangs.obj
 0001:00020d20       ?GetMaxCorners@CDrLabel@@UAEHXZ 10021d20 f i mi_gangs.obj
 0001:00020d40       ?SetProjectedCoords@CDrLabel@@UAEXUtagPOINT@@H@Z 10021d40 f i mi_gangs.obj
 0001:00020d70       ?IsMoved@CDrLabel@@UAEHXZ  10021d70 f i mi_gangs.obj
 0001:00020d90       ?SetMoved@CDrLabel@@UAEXH@Z 10021d90 f i mi_gangs.obj
 0001:00020dc0       ?GetNodePtr@CDrLabel@@UAEPAVCDrNode@@XZ 10021dc0 f i mi_gangs.obj
 0001:00020de0       ?SetNodePtr@CDrLabel@@UAEXPAVCDrNode@@@Z 10021de0 f i mi_gangs.obj
 0001:00020e10       ?GetContextObj@CDrLabel@@UAE?AW4CONTEXTOBJ@@XZ 10021e10 f i mi_gangs.obj
 0001:00020e30       ?SetContextObj@CDrLabel@@UAEXW4CONTEXTOBJ@@@Z 10021e30 f i mi_gangs.obj
 0001:00020e60       ?GetMeshElemType@CDrLabel@@UAEIXZ 10021e60 f i mi_gangs.obj
 0001:00020e80       ?SetMeshElemType@CDrLabel@@UAEXI@Z 10021e80 f i mi_gangs.obj
 0001:00020eb0       ?GetColor@CDrLabel@@UAEKXZ 10021eb0 f i mi_gangs.obj
 0001:00020ed0       ?SetColor@CDrLabel@@UAEXK@Z 10021ed0 f i mi_gangs.obj
 0001:00020f00       ?GetViewNum@CDrLabel@@UAEHXZ 10021f00 f i mi_gangs.obj
 0001:00020f20       ?SetViewNum@CDrLabel@@UAEXH@Z 10021f20 f i mi_gangs.obj
 0001:00020f50       ?GetType@CDrLabel@@UAEHXZ  10021f50 f i mi_gangs.obj
 0001:00020f70       ?SetType@CDrLabel@@UAEXH@Z 10021f70 f i mi_gangs.obj
 0001:00020fa0       ?GetText@CDrLabel@@UAE?AVCString@@XZ 10021fa0 f i mi_gangs.obj
 0001:00020fe0       ?SetText@CDrLabel@@UAEXVCString@@@Z 10021fe0 f i mi_gangs.obj
 0001:00021040       ?SetLogFont@CDrLabel@@UAEXUtagLOGFONTA@@@Z 10022040 f i mi_gangs.obj
 0001:00021070       ?GetLogFont@CDrLabel@@UAE?AUtagLOGFONTA@@XZ 10022070 f i mi_gangs.obj
 0001:000210a0       ?GetOtherCorner@CDrLabel@@UAE?AUtagPOINT@@XZ 100220a0 f i mi_gangs.obj
 0001:000210d0       ?SetOtherCorner@CDrLabel@@UAEXUtagPOINT@@@Z 100220d0 f i mi_gangs.obj
 0001:00021100       ?GetAngle@CDrLabel@@UAEHXZ 10022100 f i mi_gangs.obj
 0001:00021120       ?SetAngle@CDrLabel@@UAEXH@Z 10022120 f i mi_gangs.obj
 0001:00021150       ??1CDrLabel@@UAE@XZ        10022150 f i mi_gangs.obj
 0001:000211b0       ??_GCDrLabel@@UAEPAXI@Z    100221b0 f i mi_gangs.obj
 0001:000211f0       ??_ECDrLabel@@UAEPAXI@Z    100221f0 f i mi_gangs.obj
 0001:00021270       ?Setid@CMI_GangN@@QAEXVCString@@@Z 10022270 f i mi_gangs.obj
 0001:000212d0       ?FixMemD@CMI_GangN@@QAEPANJ@Z 100222d0 f i mi_gangs.obj
 0001:00021310       ?FreeMemD@CMI_GangN@@QAEXPAN@Z 10022310 f i mi_gangs.obj
 0001:00021340       ?FixMem@CMI_GangN@@QAEPAUWORLD@@J@Z 10022340 f i mi_gangs.obj
 0001:00021380       ?FreeMem@CMI_GangN@@QAEXPAUWORLD@@@Z 10022380 f i mi_gangs.obj
 0001:000213b0       ?IsNoDefault@CMI_GangC@@QAEHXZ 100223b0 f i mi_gangs.obj
 0001:000213d0       ?SetNoDefault@CMI_GangC@@QAEXH@Z 100223d0 f i mi_gangs.obj
 0001:000213f0       ?IsAxisInput@CMI_GangC@@QAEHXZ 100223f0 f i mi_gangs.obj
 0001:00021410       ?SetAxisInput@CMI_GangC@@QAEXH@Z 10022410 f i mi_gangs.obj
 0001:00021440       ?GetAxis@CMI_GangC@@QAEHXZ 10022440 f i mi_gangs.obj
 0001:00021460       ?SetAxis@CMI_GangC@@QAEXH@Z 10022460 f i mi_gangs.obj
 0001:00021490       ?IsNegative@CMI_GangC@@QAEHXZ 10022490 f i mi_gangs.obj
 0001:000214b0       ?SetNegative@CMI_GangC@@QAEXH@Z 100224b0 f i mi_gangs.obj
 0001:000214e0       ?GetbBack@CMI_GangC@@QAEHXZ 100224e0 f i mi_gangs.obj
 0001:00021500       ?SetbBack@CMI_GangC@@QAEXH@Z 10022500 f i mi_gangs.obj
 0001:00021530       ?GetBezierType@CMI_GangC@@QAE?AW4BEZIERTYPE@@XZ 10022530 f i mi_gangs.obj
 0001:00021550       ?SetBezierType@CMI_GangC@@QAEXW4BEZIERTYPE@@@Z 10022550 f i mi_gangs.obj
 0001:00021570       ?CreateObject@CMI_GangS@@SGPAVCObject@@XZ 10022570 f   mi_gangs.obj
 0001:000215e0       ?_GetBaseClass@CMI_GangS@@KGPAUCRuntimeClass@@XZ 100225e0 f   mi_gangs.obj
 0001:00021600       ?GetRuntimeClass@CMI_GangS@@UBEPAUCRuntimeClass@@XZ 10022600 f   mi_gangs.obj
 0001:00021660       ??0AFX_CLASSINIT@@QAE@PAUCRuntimeClass@@@Z 10022660 f i mi_gangs.obj
 0001:00021690       ??5@YGAAVCArchive@@AAV0@AAPAVCMI_GangS@@@Z 10022690 f   mi_gangs.obj
 0001:000216c0       ??0CMI_GangS@@QAE@XZ       100226c0 f   mi_gangs.obj
 0001:000217e0       ??_GCMI_GangS@@UAEPAXI@Z   100227e0 f i mi_gangs.obj
 0001:00021820       ??_ECMI_GangS@@UAEPAXI@Z   10022820 f i mi_gangs.obj
 0001:000218a0       ??1CMI_GangS@@UAE@XZ       100228a0 f   mi_gangs.obj
 0001:00021940       ?GetInfo_Patch@CMI_GangS@@QAEXPAVCDrPatch@@@Z 10022940 f   mi_gangs.obj
 0001:00021b80       ?FillCNodesLOCAL_Solid@CMI_GangS@@QAEXPAVCDListMgr@@PANPAUWORLD@@1HHH@Z 10022b80 f   mi_gangs.obj
 0001:00021ca0       ?InsertMeshInfo_Solid@CMI_GangS@@QAEHH@Z 10022ca0 f   mi_gangs.obj
 0001:00022360       ?GetInfo_Patch_3@CMI_GangS@@QAEXPAVCDrPatch@@@Z 10023360 f   mi_gangs.obj
 0001:000224e0       ?InsertMeshInfo_Solid_3@CMI_GangS@@QAEHXZ 100234e0 f   mi_gangs.obj
 0001:00022ae0       ?InsertPentaHedrons@CMI_GangS@@QAEHPAVCDrSolid@@@Z 10023ae0 f   mi_gangs.obj
 0001:00022fe0       ?InsertPentaHedrons@CMI_GangS@@QAEHXZ 10023fe0 f   mi_gangs.obj
 0001:00023440       ?Serialize@CMI_GangS@@UAEXAAVCArchive@@@Z 10024440 f   mi_gangs.obj
 0001:00023490       ?GetCount@?$CList@HH@@QBEHXZ 10024490 f i mi_gangs.obj
 0001:000234b0       ??1CMsMath@@UAE@XZ         100244b0 f i ms_duc3.obj
 0001:000234e0       ??_GCMsMath@@UAEPAXI@Z     100244e0 f i ms_duc3.obj
 0001:00023520       ??_ECMsMath@@UAEPAXI@Z     10024520 f i ms_duc3.obj
 0001:000235a0       ??0CPA_Duct@@QAE@XZ        100245a0 f i ms_duc3.obj
 0001:000235d0       ??1CPA_Duct@@UAE@XZ        100245d0 f i ms_duc3.obj
 0001:00023600       ??_GCPA_Duct@@UAEPAXI@Z    10024600 f i ms_duc3.obj
 0001:00023640       ??_ECPA_Duct@@UAEPAXI@Z    10024640 f i ms_duc3.obj
 0001:000236c0       ?CreateObject@CMS_Duc3@@SGPAVCObject@@XZ 100246c0 f   ms_duc3.obj
 0001:00023740       ?_GetBaseClass@CMS_Duc3@@KGPAUCRuntimeClass@@XZ 10024740 f   ms_duc3.obj
 0001:00023760       ?GetRuntimeClass@CMS_Duc3@@UBEPAUCRuntimeClass@@XZ 10024760 f   ms_duc3.obj
 0001:000237c0       ??5@YGAAVCArchive@@AAV0@AAPAVCMS_Duc3@@@Z 100247c0 f   ms_duc3.obj
 0001:000237f0       ??0CMS_Duc3@@QAE@XZ        100247f0 f   ms_duc3.obj
 0001:00023820       ??_GCMS_Duc3@@UAEPAXI@Z    10024820 f i ms_duc3.obj
 0001:00023860       ??_ECMS_Duc3@@UAEPAXI@Z    10024860 f i ms_duc3.obj
 0001:000238e0       ??1CMS_Duc3@@UAE@XZ        100248e0 f   ms_duc3.obj
 0001:00023910       ?GoDoIt@CMS_Duc3@@QAEHHHHAAVCString@@PAVCDrSolid@@PAVCDListMgr@@2PAV?$CList@W4CURVELATCH@@W41@@@2PAV?$CList@W4PATCHLATCH@@W41@@@PAV?$CList@NN@@NHNPAVCView@@@Z 10024910 f   ms_duc3.obj
 0001:00024000       ?IsDataCompatible@CMS_Duc3@@IAEHPAVCDListMgr@@0PAV?$CList@W4CURVELATCH@@W41@@@0PAV?$CList@W4PATCHLATCH@@W41@@@PAV?$CList@NN@@H@Z 10025000 f   ms_duc3.obj
 0001:00024140       ?TwistProcess@CMS_Duc3@@IAEHPANHNNH@Z 10025140 f   ms_duc3.obj
 0001:000241c0       ?SetSolidDataFromPatch@CMS_Duc3@@IAEHPAVCDrPatch@@@Z 100251c0 f   ms_duc3.obj
 0001:00024440       ?GetPatCNodeCoords_N_Wts_XSection@CMS_Duc3@@IAEHPAVCDrPatch@@W4PATCHLATCH@@PAUWORLD@@PAN@Z 10025440 f   ms_duc3.obj
 0001:00024590       ?GetSolidInfoFromSpine_R@CMS_Duc3@@IAEHPAVCDrCurve@@@Z 10025590 f   ms_duc3.obj
 0001:00024790       ?GetCNodeCoords_N_WtsAtJnPts_Spine@CMS_Duc3@@IAEHPAVCDrCurve@@W4CURVELATCH@@PAUWORLD@@PAN@Z 10025790 f   ms_duc3.obj
 0001:00024920       ?CreateTangentsAtJnPts_Spine@CMS_Duc3@@IAEHPAVCDrCurve@@W4CURVELATCH@@PAUWORLD@@@Z 10025920 f   ms_duc3.obj
 0001:00024b80       ?SolCNCoords_N_WtsAtJns@CMS_Duc3@@IAEHUWORLD@@PAU2@PANH11H212H@Z 10025b80 f   ms_duc3.obj
 0001:00024c50       ?PostSolBezInfoUsingBlendingInfo@CMS_Duc3@@IAEHPAVCDrSolid@@PAVCDrCurve@@PAUWORLD@@PANHHHH@Z 10025c50 f   ms_duc3.obj
 0001:00024fd0       ?PostPatBezInfo@CMS_Duc3@@IAEHPAVCDrSolid@@AAVCDListMgr@@PANHHH@Z 10025fd0 f   ms_duc3.obj
 0001:00025130       ?TempPostSolBezJunctionPtsInINodeList@CMS_Duc3@@IAEHPAUWORLD@@HHHPAVCDListMgr@@@Z 10026130 f   ms_duc3.obj
 0001:00025290       ??_GCString@@QAEPAXI@Z     10026290 f i ms_duc3.obj
 0001:000252d0       ?PackSolBezJunctionWtsInDataWtsArray@CMS_Duc3@@IAEHPANHHH0@Z 100262d0 f   ms_duc3.obj
 0001:00025360       ?GenerateSolidBezInfoFromSpineCurve@CMS_Duc3@@IAEHUblendend@@PAVCDrCurve@@PAVCDListMgr@@PANAAV?$CList@HH@@23NAAVCString@@HH@Z 10026360 f   ms_duc3.obj
 0001:00025780       ?Copy_N_TransferBezControlInfo@CMS_Duc3@@IAEHPAVCDrCurve@@PAVCDListMgr@@AAVCString@@H@Z 10026780 f   ms_duc3.obj
 0001:000259b0       ?Copy_N_TransferBezWeightInfo@CMS_Duc3@@IAEHPAVCDrCurve@@PANHH@Z 100269b0 f   ms_duc3.obj
 0001:00025a20       ?SetInfoForDataBase@CMS_Duc3@@IAEHPAVCDrSolid@@PAVCDListMgr@@1PAV?$CList@W4PATCHLATCH@@W41@@@PAV?$CList@W4CURVELATCH@@W41@@@PAV?$CList@NN@@@Z 10026a20 f   ms_duc3.obj
 0001:00025bd0       ?SetInfoForDataBase_1@CMS_Duc3@@IAEXPAVCDrSolid@@PAVCDListMgr@@PAV?$CList@W4CURVELATCH@@W41@@@1PAV?$CList@W4PATCHLATCH@@W41@@@PAV?$CList@NN@@@Z 10026bd0 f   ms_duc3.obj
 0001:00026070       ?Serialize@CMS_Duc3@@UAEXAAVCArchive@@@Z 10027070 f   ms_duc3.obj
 0001:000260c0       ??0?$CList@HH@@QAE@H@Z     100270c0 f i ms_duc3.obj
 0001:00026180       ?AddTail@?$CList@HH@@QAEXPAV1@@Z 10027180 f i ms_duc3.obj
 0001:00026210       ??0?$CList@W4CURVELATCH@@W41@@@QAE@H@Z 10027210 f i ms_duc3.obj
 0001:000262d0       ?GetCount@?$CList@W4CURVELATCH@@W41@@@QBEHXZ 100272d0 f i ms_duc3.obj
 0001:000262f0       ?GetHead@?$CList@W4CURVELATCH@@W41@@@QAEAAW4CURVELATCH@@XZ 100272f0 f i ms_duc3.obj
 0001:00026330       ?AddTail@?$CList@W4CURVELATCH@@W41@@@QAEXPAV1@@Z 10027330 f i ms_duc3.obj
 0001:000263c0       ?AddTail@?$CList@W4CURVELATCH@@W41@@@QAEPAU__POSITION@@W4CURVELATCH@@@Z 100273c0 f i ms_duc3.obj
 0001:00026430       ?RemoveAll@?$CList@W4CURVELATCH@@W41@@@QAEXXZ 10027430 f i ms_duc3.obj
 0001:000264c0       ??1?$CList@W4CURVELATCH@@W41@@@UAE@XZ 100274c0 f i ms_duc3.obj
 0001:00026540       ?Serialize@?$CList@W4CURVELATCH@@W41@@@UAEXAAVCArchive@@@Z 10027540 f i ms_duc3.obj
 0001:00026630       ?Dump@?$CList@W4CURVELATCH@@W41@@@UBEXAAVCDumpContext@@@Z 10027630 f i ms_duc3.obj
 0001:000266d0       ?AssertValid@?$CList@W4CURVELATCH@@W41@@@UBEXXZ 100276d0 f i ms_duc3.obj
 0001:000267a0       ?GetCount@?$CList@NN@@QBEHXZ 100277a0 f i ms_duc3.obj
 0001:000267c0       ?AddTail@?$CList@NN@@QAEXPAV1@@Z 100277c0 f i ms_duc3.obj
 0001:00026850       ?GetAt@?$CList@NN@@QAEAANPAU__POSITION@@@Z 10027850 f i ms_duc3.obj
 0001:000268a0       ?FindIndex@?$CList@NN@@QBEPAU__POSITION@@H@Z 100278a0 f i ms_duc3.obj
 0001:00026930       ??0?$CList@W4PATCHLATCH@@W41@@@QAE@H@Z 10027930 f i ms_duc3.obj
 0001:000269f0       ?GetCount@?$CList@W4PATCHLATCH@@W41@@@QBEHXZ 100279f0 f i ms_duc3.obj
 0001:00026a10       ?GetHead@?$CList@W4PATCHLATCH@@W41@@@QAEAAW4PATCHLATCH@@XZ 10027a10 f i ms_duc3.obj
 0001:00026a50       ?AddTail@?$CList@W4PATCHLATCH@@W41@@@QAEXPAV1@@Z 10027a50 f i ms_duc3.obj
 0001:00026ae0       ?AddTail@?$CList@W4PATCHLATCH@@W41@@@QAEPAU__POSITION@@W4PATCHLATCH@@@Z 10027ae0 f i ms_duc3.obj
 0001:00026b50       ?RemoveAll@?$CList@W4PATCHLATCH@@W41@@@QAEXXZ 10027b50 f i ms_duc3.obj
 0001:00026be0       ??1?$CList@W4PATCHLATCH@@W41@@@UAE@XZ 10027be0 f i ms_duc3.obj
 0001:00026c60       ?Serialize@?$CList@W4PATCHLATCH@@W41@@@UAEXAAVCArchive@@@Z 10027c60 f i ms_duc3.obj
 0001:00026d50       ?Dump@?$CList@W4PATCHLATCH@@W41@@@UBEXAAVCDumpContext@@@Z 10027d50 f i ms_duc3.obj
 0001:00026df0       ?AssertValid@?$CList@W4PATCHLATCH@@W41@@@UBEXXZ 10027df0 f i ms_duc3.obj
 0001:00026ec0       ??_E?$CList@W4CURVELATCH@@W41@@@UAEPAXI@Z 10027ec0 f i ms_duc3.obj
 0001:00026ec0       ??_G?$CList@W4CURVELATCH@@W41@@@UAEPAXI@Z 10027ec0 f i ms_duc3.obj
 0001:00026f00       ??_G?$CList@W4PATCHLATCH@@W41@@@UAEPAXI@Z 10027f00 f i ms_duc3.obj
 0001:00026f00       ??_E?$CList@W4PATCHLATCH@@W41@@@UAEPAXI@Z 10027f00 f i ms_duc3.obj
 0001:00026f40       ?GetHeadPosition@?$CList@W4CURVELATCH@@W41@@@QBEPAU__POSITION@@XZ 10027f40 f i ms_duc3.obj
 0001:00026f60       ?GetNext@?$CList@W4CURVELATCH@@W41@@@QAEAAW4CURVELATCH@@AAPAU__POSITION@@@Z 10027f60 f i ms_duc3.obj
 0001:00026fc0       ?NewNode@?$CList@W4CURVELATCH@@W41@@@IAEPAUCNode@1@PAU21@0@Z 10027fc0 f i ms_duc3.obj
 0001:000270e0       ?DestructElements@@YGXPAW4CURVELATCH@@H@Z 100280e0 f i ms_duc3.obj
 0001:00027150       ?SerializeElements@@YGXAAVCArchive@@PAW4CURVELATCH@@H@Z 10028150 f i ms_duc3.obj
 0001:000271d0       ?DumpElements@@YGXAAVCDumpContext@@PBW4CURVELATCH@@H@Z 100281d0 f i ms_duc3.obj
 0001:00027220       ?AddTail@?$CList@NN@@QAEPAU__POSITION@@N@Z 10028220 f i ms_duc3.obj
 0001:000272a0       ?GetHeadPosition@?$CList@NN@@QBEPAU__POSITION@@XZ 100282a0 f i ms_duc3.obj
 0001:000272c0       ?GetNext@?$CList@NN@@QAEAANAAPAU__POSITION@@@Z 100282c0 f i ms_duc3.obj
 0001:00027320       ?GetHeadPosition@?$CList@W4PATCHLATCH@@W41@@@QBEPAU__POSITION@@XZ 10028320 f i ms_duc3.obj
 0001:00027340       ?GetNext@?$CList@W4PATCHLATCH@@W41@@@QAEAAW4PATCHLATCH@@AAPAU__POSITION@@@Z 10028340 f i ms_duc3.obj
 0001:000273a0       ?NewNode@?$CList@W4PATCHLATCH@@W41@@@IAEPAUCNode@1@PAU21@0@Z 100283a0 f i ms_duc3.obj
 0001:000274c0       ?DestructElements@@YGXPAW4PATCHLATCH@@H@Z 100284c0 f i ms_duc3.obj
 0001:00027530       ?SerializeElements@@YGXAAVCArchive@@PAW4PATCHLATCH@@H@Z 10028530 f i ms_duc3.obj
 0001:000275b0       ?DumpElements@@YGXAAVCDumpContext@@PBW4PATCHLATCH@@H@Z 100285b0 f i ms_duc3.obj
 0001:00027600       ?ConstructElements@@YGXPAW4CURVELATCH@@H@Z 10028600 f i ms_duc3.obj
 0001:00027690       ?NewNode@?$CList@NN@@IAEPAUCNode@1@PAU21@0@Z 10028690 f i ms_duc3.obj
 0001:000277b0       ?ConstructElements@@YGXPAW4PATCHLATCH@@H@Z 100287b0 f i ms_duc3.obj
 0001:00027840       ?ConstructElements@@YGXPANH@Z 10028840 f i ms_duc3.obj
 0001:000278d0       ?CreateObject@CMS_Duct@@SGPAVCObject@@XZ 100288d0 f   ms_duct.obj
 0001:00027950       ?_GetBaseClass@CMS_Duct@@KGPAUCRuntimeClass@@XZ 10028950 f   ms_duct.obj
 0001:00027970       ?GetRuntimeClass@CMS_Duct@@UBEPAUCRuntimeClass@@XZ 10028970 f   ms_duct.obj
 0001:000279d0       ??5@YGAAVCArchive@@AAV0@AAPAVCMS_Duct@@@Z 100289d0 f   ms_duct.obj
 0001:00027a00       ??0CMS_Duct@@QAE@XZ        10028a00 f   ms_duct.obj
 0001:00027a30       ??_GCMS_Duct@@UAEPAXI@Z    10028a30 f i ms_duct.obj
 0001:00027a70       ??_ECMS_Duct@@UAEPAXI@Z    10028a70 f i ms_duct.obj
 0001:00027af0       ??1CMS_Duct@@UAE@XZ        10028af0 f   ms_duct.obj
 0001:00027b20       ?GoDoIt@CMS_Duct@@QAEHHHHAAVCString@@PAVCDrSolid@@PAVCDListMgr@@2PAV?$CList@W4CURVELATCH@@W41@@@2PAV?$CList@W4PATCHLATCH@@W41@@@PAV?$CList@NN@@NHNPAVCView@@@Z 10028b20 f   ms_duct.obj
 0001:00028210       ?IsDataCompatible@CMS_Duct@@IAEHPAVCDListMgr@@0PAV?$CList@W4CURVELATCH@@W41@@@0PAV?$CList@W4PATCHLATCH@@W41@@@PAV?$CList@NN@@H@Z 10029210 f   ms_duct.obj
 0001:00028350       ?TwistProcess@CMS_Duct@@IAEHPANHNNH@Z 10029350 f   ms_duct.obj
 0001:000283d0       ?SetSolidDataFromPatch@CMS_Duct@@IAEHPAVCDrPatch@@@Z 100293d0 f   ms_duct.obj
 0001:000287e0       ?GetPatCNodeCoords_N_Wts_XSection@CMS_Duct@@IAEHPAVCDrPatch@@W4PATCHLATCH@@PAUWORLD@@PAN@Z 100297e0 f   ms_duct.obj
 0001:00028930       ?GetSolidInfoFromSpine_R@CMS_Duct@@IAEHPAVCDrCurve@@@Z 10029930 f   ms_duct.obj
 0001:00028b30       ?GetCNodeCoords_N_WtsAtJnPts_Spine@CMS_Duct@@IAEHPAVCDrCurve@@W4CURVELATCH@@PAUWORLD@@PAN@Z 10029b30 f   ms_duct.obj
 0001:00028cc0       ?CreateTangentsAtJnPts_Spine@CMS_Duct@@IAEHPAVCDrCurve@@W4CURVELATCH@@PAUWORLD@@@Z 10029cc0 f   ms_duct.obj
 0001:00028f20       ?SolCNCoords_N_WtsAtJns@CMS_Duct@@IAEHUWORLD@@PAU2@PANH11H212H@Z 10029f20 f   ms_duct.obj
 0001:00028ff0       ?PostSolBezInfoUsingBlendingInfo@CMS_Duct@@IAEHPAVCDrSolid@@PAVCDrCurve@@PAUWORLD@@PANHHHH@Z 10029ff0 f   ms_duct.obj
 0001:00029370       ?PostPatBezInfo@CMS_Duct@@IAEHPAVCDrSolid@@AAVCDListMgr@@PANHHH@Z 1002a370 f   ms_duct.obj
 0001:000294b0       ?TempPostSolBezJunctionPtsInINodeList@CMS_Duct@@IAEHPAUWORLD@@HHHPAVCDListMgr@@@Z 1002a4b0 f   ms_duct.obj
 0001:00029610       ?PackSolBezJunctionWtsInDataWtsArray@CMS_Duct@@IAEHPANHHH0@Z 1002a610 f   ms_duct.obj
 0001:000296a0       ?GenerateSolidBezInfoFromSpineCurve@CMS_Duct@@IAEHUblendend@@PAVCDrCurve@@PAVCDListMgr@@PANAAV?$CList@HH@@23NAAVCString@@HH@Z 1002a6a0 f   ms_duct.obj
 0001:00029ac0       ?Copy_N_TransferBezControlInfo@CMS_Duct@@IAEHPAVCDrCurve@@PAVCDListMgr@@AAVCString@@H@Z 1002aac0 f   ms_duct.obj
 0001:00029cf0       ?Copy_N_TransferBezWeightInfo@CMS_Duct@@IAEHPAVCDrCurve@@PANHH@Z 1002acf0 f   ms_duct.obj
 0001:00029d60       ?SetInfoForDataBase@CMS_Duct@@IAEHPAVCDrSolid@@PAVCDListMgr@@1PAV?$CList@W4PATCHLATCH@@W41@@@PAV?$CList@W4CURVELATCH@@W41@@@PAV?$CList@NN@@@Z 1002ad60 f   ms_duct.obj
 0001:00029f40       ?SetInfoForDataBase_1@CMS_Duct@@IAEXPAVCDrSolid@@PAVCDListMgr@@PAV?$CList@W4CURVELATCH@@W41@@@1PAV?$CList@W4PATCHLATCH@@W41@@@PAV?$CList@NN@@@Z 1002af40 f   ms_duct.obj
 0001:0002a520       ?Serialize@CMS_Duct@@UAEXAAVCArchive@@@Z 1002b520 f   ms_duct.obj
 0001:0002a570       ?RemoveAll@?$CList@NN@@QAEXXZ 1002b570 f i ms_duct.obj
 0001:0002a600       ?DestructElements@@YGXPANH@Z 1002b600 f i ms_duct.obj
 0001:0002a670       ?CreateObject@CMS_Lof32@@SGPAVCObject@@XZ 1002b670 f   ms_lof32.obj
 0001:0002a6e0       ?_GetBaseClass@CMS_Lof32@@KGPAUCRuntimeClass@@XZ 1002b6e0 f   ms_lof32.obj
 0001:0002a700       ?GetRuntimeClass@CMS_Lof32@@UBEPAUCRuntimeClass@@XZ 1002b700 f   ms_lof32.obj
 0001:0002a760       ??5@YGAAVCArchive@@AAV0@AAPAVCMS_Lof32@@@Z 1002b760 f   ms_lof32.obj
 0001:0002a790       ??0CMS_Lof32@@QAE@XZ       1002b790 f   ms_lof32.obj
 0001:0002a7e0       ??_GCMS_Lof32@@UAEPAXI@Z   1002b7e0 f i ms_lof32.obj
 0001:0002a820       ??_ECMS_Lof32@@UAEPAXI@Z   1002b820 f i ms_lof32.obj
 0001:0002a8a0       ??1CMS_Lof32@@UAE@XZ       1002b8a0 f   ms_lof32.obj
 0001:0002a8d0       ?SetInfoBase@CMS_Lof32@@QAEHAAVCString@@PAVCDrSolid@@PAVCDListMgr@@PAV?$CList@W4PATCHLATCH@@W41@@@PAV?$CList@HH@@NPAVCView@@@Z 1002b8d0 f   ms_lof32.obj
 0001:0002ab60       ?GoDoIt@CMS_Lof32@@QAEHPAVCDrSolid@@@Z 1002bb60 f   ms_lof32.obj
 0001:0002abd0       ?GoDoIt@CMS_Lof32@@QAEPAVCDrSolid@@XZ 1002bbd0 f   ms_lof32.obj
 0001:0002ac50       ?GetInfo@CMS_Lof32@@IAEPAVCDrSolid@@XZ 1002bc50 f   ms_lof32.obj
 0001:0002af40       ?GetInfo@CMS_Lof32@@IAEHPAVCDrSolid@@@Z 1002bf40 f   ms_lof32.obj
 0001:0002b120       ?Loft@CMS_Lof32@@IAEHXZ    1002c120 f   ms_lof32.obj
 0001:0002b6a0       ?GenerateCNodes@CMS_Lof32@@IAEHXZ 1002c6a0 f   ms_lof32.obj
 0001:0002b6d0       ?Serialize@CMS_Lof32@@UAEXAAVCArchive@@@Z 1002c6d0 f   ms_lof32.obj
 0001:0002b720       ?GetHead@?$CList@HH@@QAEAAHXZ 1002c720 f i ms_lof32.obj
 0001:0002b760       ?CreateObject@CMS_Lof42@@SGPAVCObject@@XZ 1002c760 f   ms_lof42.obj
 0001:0002b7d0       ?_GetBaseClass@CMS_Lof42@@KGPAUCRuntimeClass@@XZ 1002c7d0 f   ms_lof42.obj
 0001:0002b7f0       ?GetRuntimeClass@CMS_Lof42@@UBEPAUCRuntimeClass@@XZ 1002c7f0 f   ms_lof42.obj
 0001:0002b850       ??5@YGAAVCArchive@@AAV0@AAPAVCMS_Lof42@@@Z 1002c850 f   ms_lof42.obj
 0001:0002b880       ??0CMS_Lof42@@QAE@XZ       1002c880 f   ms_lof42.obj
 0001:0002b8d0       ??_GCMS_Lof42@@UAEPAXI@Z   1002c8d0 f i ms_lof42.obj
 0001:0002b910       ??_ECMS_Lof42@@UAEPAXI@Z   1002c910 f i ms_lof42.obj
 0001:0002b990       ??1CMS_Lof42@@UAE@XZ       1002c990 f   ms_lof42.obj
 0001:0002b9c0       ?SetInfoBase@CMS_Lof42@@QAEHAAVCString@@PAVCDrSolid@@PAVCDListMgr@@PAV?$CList@W4PATCHLATCH@@W41@@@PAV?$CList@HH@@NPAVCView@@@Z 1002c9c0 f   ms_lof42.obj
 0001:0002bc50       ?GoDoIt@CMS_Lof42@@QAEHPAVCDrSolid@@@Z 1002cc50 f   ms_lof42.obj
 0001:0002bcc0       ?GoDoIt@CMS_Lof42@@QAEPAVCDrSolid@@XZ 1002ccc0 f   ms_lof42.obj
 0001:0002bd40       ?GetInfo@CMS_Lof42@@IAEPAVCDrSolid@@XZ 1002cd40 f   ms_lof42.obj
 0001:0002c020       ?GetInfo@CMS_Lof42@@IAEHPAVCDrSolid@@@Z 1002d020 f   ms_lof42.obj
 0001:0002c1e0       ?Loft@CMS_Lof42@@IAEHXZ    1002d1e0 f   ms_lof42.obj
 0001:0002c670       ?Pre_ST_Direction@CMS_Lof42@@IAEHPAVCDrPatch@@HH@Z 1002d670 f   ms_lof42.obj
 0001:0002c720       ?Patch_ST_Process@CMS_Lof42@@IAEHXZ 1002d720 f   ms_lof42.obj
 0001:0002c9e0       ?GenerateCNodes@CMS_Lof42@@IAEHXZ 1002d9e0 f   ms_lof42.obj
 0001:0002ca10       ?Serialize@CMS_Lof42@@UAEXAAVCArchive@@@Z 1002da10 f   ms_lof42.obj
 0001:0002ca60       ??0CPA_Rotat@@QAE@XZ       1002da60 f i ms_rota3.obj
 0001:0002ca90       ??1CPA_Rotat@@UAE@XZ       1002da90 f i ms_rota3.obj
 0001:0002cac0       ??_GCPA_Rotat@@UAEPAXI@Z   1002dac0 f i ms_rota3.obj
 0001:0002cb00       ??_ECPA_Rotat@@UAEPAXI@Z   1002db00 f i ms_rota3.obj
 0001:0002cb80       ?CreateObject@CMS_Rota3@@SGPAVCObject@@XZ 1002db80 f   ms_rota3.obj
 0001:0002cc00       ?_GetBaseClass@CMS_Rota3@@KGPAUCRuntimeClass@@XZ 1002dc00 f   ms_rota3.obj
 0001:0002cc20       ?GetRuntimeClass@CMS_Rota3@@UBEPAUCRuntimeClass@@XZ 1002dc20 f   ms_rota3.obj
 0001:0002cc80       ??5@YGAAVCArchive@@AAV0@AAPAVCMS_Rota3@@@Z 1002dc80 f   ms_rota3.obj
 0001:0002ccb0       ??0CMS_Rota3@@QAE@XZ       1002dcb0 f   ms_rota3.obj
 0001:0002cce0       ??_GCMS_Rota3@@UAEPAXI@Z   1002dce0 f i ms_rota3.obj
 0001:0002cd20       ??_ECMS_Rota3@@UAEPAXI@Z   1002dd20 f i ms_rota3.obj
 0001:0002cda0       ??1CMS_Rota3@@UAE@XZ       1002dda0 f   ms_rota3.obj
 0001:0002cdd0       ?GoDoIt@CMS_Rota3@@QAEHHHAAVCString@@PAVCDrSolid@@PAVCDListMgr@@2PAV?$CList@W4PATCHLATCH@@W41@@@AAV?$CList@HH@@NNHHHPAVCView@@@Z 1002ddd0 f   ms_rota3.obj
 0001:0002d280       ?ProceessCoordAxis@CMS_Rota3@@IAEHHH@Z 1002e280 f   ms_rota3.obj
 0001:0002d3e0       ?IsDataCompatible@CMS_Rota3@@IAEHPAVCDListMgr@@0PAV?$CList@W4PATCHLATCH@@W41@@@PAV?$CList@HH@@H@Z 1002e3e0 f   ms_rota3.obj
 0001:0002d490       ?SetSolidDataFromPatch@CMS_Rota3@@IAEHPAVCDrPatch@@@Z 1002e490 f   ms_rota3.obj
 0001:0002d710       ?RevolveCNs_N_WtsOfPatch@CMS_Rota3@@IAEHPAUWORLD@@PANHHH1U2@201H@Z 1002e710 f   ms_rota3.obj
 0001:0002d7e0       ?PostSolCNodes_N_Wts@CMS_Rota3@@IAEHPAVCDrSolid@@PAUWORLD@@PANHHH@Z 1002e7e0 f   ms_rota3.obj
 0001:0002da30       ?GetPatCNodeCoords_N_Wts@CMS_Rota3@@IAEHPAVCDrPatch@@W4PATCHLATCH@@PAUWORLD@@PAN@Z 1002ea30 f   ms_rota3.obj
 0001:0002db80       ?GetSolidInfo_R@CMS_Rota3@@IAEHPAV?$CList@HH@@NN@Z 1002eb80 f   ms_rota3.obj
 0001:0002de70       ?SetInfoForDataBase@CMS_Rota3@@IAEHPAVCDrSolid@@PAVCDListMgr@@11PAV?$CList@W4PATCHLATCH@@W41@@@22@Z 1002ee70 f   ms_rota3.obj
 0001:0002e030       ?SetInfoForDataBase_1@CMS_Rota3@@IAEXPAVCDrSolid@@PAVCDListMgr@@PAV?$CList@W4PATCHLATCH@@W41@@@1212@Z 1002f030 f   ms_rota3.obj
 0001:0002e480       ?Serialize@CMS_Rota3@@UAEXAAVCArchive@@@Z 1002f480 f   ms_rota3.obj
 0001:0002e4d0       ?GetTail@?$CList@HH@@QAEAAHXZ 1002f4d0 f i ms_rota3.obj
 0001:0002e510       ?CreateObject@CMS_Rotat@@SGPAVCObject@@XZ 1002f510 f   ms_rotat.obj
 0001:0002e590       ?_GetBaseClass@CMS_Rotat@@KGPAUCRuntimeClass@@XZ 1002f590 f   ms_rotat.obj
 0001:0002e5b0       ?GetRuntimeClass@CMS_Rotat@@UBEPAUCRuntimeClass@@XZ 1002f5b0 f   ms_rotat.obj
 0001:0002e610       ??5@YGAAVCArchive@@AAV0@AAPAVCMS_Rotat@@@Z 1002f610 f   ms_rotat.obj
 0001:0002e640       ??0CMS_Rotat@@QAE@XZ       1002f640 f   ms_rotat.obj
 0001:0002e670       ??_GCMS_Rotat@@UAEPAXI@Z   1002f670 f i ms_rotat.obj
 0001:0002e6b0       ??_ECMS_Rotat@@UAEPAXI@Z   1002f6b0 f i ms_rotat.obj
 0001:0002e730       ??1CMS_Rotat@@UAE@XZ       1002f730 f   ms_rotat.obj
 0001:0002e760       ?GoDoIt@CMS_Rotat@@QAEHHHAAVCString@@PAVCDrSolid@@PAVCDListMgr@@2PAV?$CList@W4PATCHLATCH@@W41@@@AAV?$CList@HH@@NNHHHPAVCView@@@Z 1002f760 f   ms_rotat.obj
 0001:0002ec10       ?ProceessCoordAxis@CMS_Rotat@@IAEHHH@Z 1002fc10 f   ms_rotat.obj
 0001:0002ed70       ?IsDataCompatible@CMS_Rotat@@IAEHPAVCDListMgr@@0PAV?$CList@W4PATCHLATCH@@W41@@@PAV?$CList@HH@@H@Z 1002fd70 f   ms_rotat.obj
 0001:0002ee20       ?SetSolidDataFromPatch@CMS_Rotat@@IAEHPAVCDrPatch@@@Z 1002fe20 f   ms_rotat.obj
 0001:0002f230       ?RevolveCNs_N_WtsOfPatch@CMS_Rotat@@IAEHPAUWORLD@@PANHHH1U2@201H@Z 10030230 f   ms_rotat.obj
 0001:0002f300       ?PostSolCNodes_N_Wts@CMS_Rotat@@IAEHPAVCDrSolid@@PAUWORLD@@PANHHH@Z 10030300 f   ms_rotat.obj
 0001:0002f530       ?GetPatCNodeCoords_N_Wts@CMS_Rotat@@IAEHPAVCDrPatch@@W4PATCHLATCH@@PAUWORLD@@PAN@Z 10030530 f   ms_rotat.obj
 0001:0002f680       ?GetSolidInfo_R@CMS_Rotat@@IAEHPAV?$CList@HH@@NN@Z 10030680 f   ms_rotat.obj
 0001:0002f970       ?SetInfoForDataBase@CMS_Rotat@@IAEHPAVCDrSolid@@PAVCDListMgr@@11PAV?$CList@W4PATCHLATCH@@W41@@@22@Z 10030970 f   ms_rotat.obj
 0001:0002fb50       ?SetInfoForDataBase_1@CMS_Rotat@@IAEXPAVCDrSolid@@PAVCDListMgr@@PAV?$CList@W4PATCHLATCH@@W41@@@1212@Z 10030b50 f   ms_rotat.obj
 0001:000300d0       ?Serialize@CMS_Rotat@@UAEXAAVCArchive@@@Z 100310d0 f   ms_rotat.obj
 0001:00030120       ??0CPA_Sweep@@QAE@XZ       10031120 f i ms_Swee3.obj
 0001:00030150       ??1CPA_Sweep@@UAE@XZ       10031150 f i ms_Swee3.obj
 0001:00030180       ??_GCPA_Sweep@@UAEPAXI@Z   10031180 f i ms_Swee3.obj
 0001:000301c0       ??_ECPA_Sweep@@UAEPAXI@Z   100311c0 f i ms_Swee3.obj
 0001:00030240       ?CreateObject@CMS_Swee3@@SGPAVCObject@@XZ 10031240 f   ms_Swee3.obj
 0001:000302c0       ?_GetBaseClass@CMS_Swee3@@KGPAUCRuntimeClass@@XZ 100312c0 f   ms_Swee3.obj
 0001:000302e0       ?GetRuntimeClass@CMS_Swee3@@UBEPAUCRuntimeClass@@XZ 100312e0 f   ms_Swee3.obj
 0001:00030340       ??5@YGAAVCArchive@@AAV0@AAPAVCMS_Swee3@@@Z 10031340 f   ms_Swee3.obj
 0001:00030370       ??0CMS_Swee3@@QAE@XZ       10031370 f   ms_Swee3.obj
 0001:000303a0       ??_GCMS_Swee3@@UAEPAXI@Z   100313a0 f i ms_Swee3.obj
 0001:000303e0       ??_ECMS_Swee3@@UAEPAXI@Z   100313e0 f i ms_Swee3.obj
 0001:00030460       ??1CMS_Swee3@@UAE@XZ       10031460 f   ms_Swee3.obj
 0001:00030490       ?GoDoIt@CMS_Swee3@@QAEHHHHHAAVCString@@PAVCDrSolid@@PAVCDListMgr@@2PAV?$CList@W4CURVELATCH@@W41@@@2PAV?$CList@W4PATCHLATCH@@W41@@@PAV?$CList@NN@@NHN5NHNPAVCView@@@Z 10031490 f   ms_Swee3.obj
 0001:00030ca0       ?IsDataCompatible@CMS_Swee3@@IAEHPAVCDListMgr@@0PAV?$CList@W4CURVELATCH@@W41@@@0PAV?$CList@W4PATCHLATCH@@W41@@@PAV?$CList@NN@@H@Z 10031ca0 f   ms_Swee3.obj
 0001:00030de0       ?TwistProcess@CMS_Swee3@@IAEHPANHNNH@Z 10031de0 f   ms_Swee3.obj
 0001:00030e60       ?ScaleProcess@CMS_Swee3@@IAEHPANHNNH@Z 10031e60 f   ms_Swee3.obj
 0001:00030ee0       ?SetSolidDataFromPatch@CMS_Swee3@@IAEHPAVCDrPatch@@@Z 10031ee0 f   ms_Swee3.obj
 0001:00031160       ?GetPatCNodeCoords_N_Wts_XSection@CMS_Swee3@@IAEHPAVCDrPatch@@W4PATCHLATCH@@PAUWORLD@@PAN@Z 10032160 f   ms_Swee3.obj
 0001:000312b0       ?GetSolidInfoFromSpine_R@CMS_Swee3@@IAEHPAVCDrCurve@@@Z 100322b0 f   ms_Swee3.obj
 0001:000314b0       ?GetCNodeCoords_N_WtsAtJnPts_Spine@CMS_Swee3@@IAEHPAVCDrCurve@@W4CURVELATCH@@PAUWORLD@@PAN@Z 100324b0 f   ms_Swee3.obj
 0001:00031640       ?CreateTangentsAtJnPts_Spine@CMS_Swee3@@IAEHPAVCDrCurve@@W4CURVELATCH@@PAUWORLD@@@Z 10032640 f   ms_Swee3.obj
 0001:000318a0       ?SolCNCoords_N_WtsAtJns@CMS_Swee3@@IAEHUWORLD@@PAU2@PANH11H2212H@Z 100328a0 f   ms_Swee3.obj
 0001:00031970       ?PostSolBezInfoUsingBlendingInfo@CMS_Swee3@@IAEHPAVCDrSolid@@PAVCDrCurve@@PAUWORLD@@PANHHHH@Z 10032970 f   ms_Swee3.obj
 0001:00031cf0       ?PostPatBezInfo@CMS_Swee3@@IAEHPAVCDrSolid@@AAVCDListMgr@@PANHHH@Z 10032cf0 f   ms_Swee3.obj
 0001:00031e50       ?TempPostSolBezJunctionPtsInINodeList@CMS_Swee3@@IAEHPAUWORLD@@HHHPAVCDListMgr@@@Z 10032e50 f   ms_Swee3.obj
 0001:00031fb0       ?PackSolBezJunctionWtsInDataWtsArray@CMS_Swee3@@IAEHPANHHH0@Z 10032fb0 f   ms_Swee3.obj
 0001:00032040       ?GenerateSolidBezInfoFromSpineCurve@CMS_Swee3@@IAEHUblendend@@PAVCDrCurve@@PAVCDListMgr@@PANAAV?$CList@HH@@23NAAVCString@@HH@Z 10033040 f   ms_Swee3.obj
 0001:00032460       ?Copy_N_TransferBezControlInfo@CMS_Swee3@@IAEHPAVCDrCurve@@PAVCDListMgr@@AAVCString@@H@Z 10033460 f   ms_Swee3.obj
 0001:00032690       ?Copy_N_TransferBezWeightInfo@CMS_Swee3@@IAEHPAVCDrCurve@@PANHH@Z 10033690 f   ms_Swee3.obj
 0001:00032700       ?SetInfoForDataBase@CMS_Swee3@@IAEHPAVCDrSolid@@PAVCDListMgr@@1PAV?$CList@W4PATCHLATCH@@W41@@@PAV?$CList@W4CURVELATCH@@W41@@@PAV?$CList@NN@@4@Z 10033700 f   ms_Swee3.obj
 0001:000328c0       ?SetInfoForDataBase_1@CMS_Swee3@@IAEXPAVCDrSolid@@PAVCDListMgr@@PAV?$CList@W4CURVELATCH@@W41@@@1PAV?$CList@W4PATCHLATCH@@W41@@@PAV?$CList@NN@@4@Z 100338c0 f   ms_Swee3.obj
 0001:00032dc0       ?Serialize@CMS_Swee3@@UAEXAAVCArchive@@@Z 10033dc0 f   ms_Swee3.obj
 0001:00032e10       ?CreateObject@CMS_Sweep@@SGPAVCObject@@XZ 10033e10 f   ms_Sweep.obj
 0001:00032e90       ?_GetBaseClass@CMS_Sweep@@KGPAUCRuntimeClass@@XZ 10033e90 f   ms_Sweep.obj
 0001:00032eb0       ?GetRuntimeClass@CMS_Sweep@@UBEPAUCRuntimeClass@@XZ 10033eb0 f   ms_Sweep.obj
 0001:00032f10       ??5@YGAAVCArchive@@AAV0@AAPAVCMS_Sweep@@@Z 10033f10 f   ms_Sweep.obj
 0001:00032f40       ??0CMS_Sweep@@QAE@XZ       10033f40 f   ms_Sweep.obj
 0001:00032f70       ??_GCMS_Sweep@@UAEPAXI@Z   10033f70 f i ms_Sweep.obj
 0001:00032fb0       ??_ECMS_Sweep@@UAEPAXI@Z   10033fb0 f i ms_Sweep.obj
 0001:00033030       ??1CMS_Sweep@@UAE@XZ       10034030 f   ms_Sweep.obj
 0001:00033060       ?GoDoIt@CMS_Sweep@@QAEHHHHHAAVCString@@PAVCDrSolid@@PAVCDListMgr@@2PAV?$CList@W4CURVELATCH@@W41@@@2PAV?$CList@W4PATCHLATCH@@W41@@@PAV?$CList@NN@@NHN5NHNPAVCView@@@Z 10034060 f   ms_Sweep.obj
 0001:00033870       ?IsDataCompatible@CMS_Sweep@@IAEHPAVCDListMgr@@0PAV?$CList@W4CURVELATCH@@W41@@@0PAV?$CList@W4PATCHLATCH@@W41@@@PAV?$CList@NN@@H@Z 10034870 f   ms_Sweep.obj
 0001:000339b0       ?TwistProcess@CMS_Sweep@@IAEHPANHNNH@Z 100349b0 f   ms_Sweep.obj
 0001:00033a30       ?ScaleProcess@CMS_Sweep@@IAEHPANHNNH@Z 10034a30 f   ms_Sweep.obj
 0001:00033ab0       ?SetSolidDataFromPatch@CMS_Sweep@@IAEHPAVCDrPatch@@@Z 10034ab0 f   ms_Sweep.obj
 0001:00033ec0       ?GetPatCNodeCoords_N_Wts_XSection@CMS_Sweep@@IAEHPAVCDrPatch@@W4PATCHLATCH@@PAUWORLD@@PAN@Z 10034ec0 f   ms_Sweep.obj
 0001:00034010       ?GetSolidInfoFromSpine_R@CMS_Sweep@@IAEHPAVCDrCurve@@@Z 10035010 f   ms_Sweep.obj
 0001:00034210       ?GetCNodeCoords_N_WtsAtJnPts_Spine@CMS_Sweep@@IAEHPAVCDrCurve@@W4CURVELATCH@@PAUWORLD@@PAN@Z 10035210 f   ms_Sweep.obj
 0001:000343a0       ?CreateTangentsAtJnPts_Spine@CMS_Sweep@@IAEHPAVCDrCurve@@W4CURVELATCH@@PAUWORLD@@@Z 100353a0 f   ms_Sweep.obj
 0001:00034600       ?SolCNCoords_N_WtsAtJns@CMS_Sweep@@IAEHUWORLD@@PAU2@PANH11H2212H@Z 10035600 f   ms_Sweep.obj
 0001:000346d0       ?PostSolBezInfoUsingBlendingInfo@CMS_Sweep@@IAEHPAVCDrSolid@@PAVCDrCurve@@PAUWORLD@@PANHHHH@Z 100356d0 f   ms_Sweep.obj
 0001:00034a50       ?PostPatBezInfo@CMS_Sweep@@IAEHPAVCDrSolid@@AAVCDListMgr@@PANHHH@Z 10035a50 f   ms_Sweep.obj
 0001:00034b90       ?TempPostSolBezJunctionPtsInINodeList@CMS_Sweep@@IAEHPAUWORLD@@HHHPAVCDListMgr@@@Z 10035b90 f   ms_Sweep.obj
 0001:00034cf0       ?PackSolBezJunctionWtsInDataWtsArray@CMS_Sweep@@IAEHPANHHH0@Z 10035cf0 f   ms_Sweep.obj
 0001:00034d80       ?GenerateSolidBezInfoFromSpineCurve@CMS_Sweep@@IAEHUblendend@@PAVCDrCurve@@PAVCDListMgr@@PANAAV?$CList@HH@@23NAAVCString@@HH@Z 10035d80 f   ms_Sweep.obj
 0001:000351a0       ?Copy_N_TransferBezControlInfo@CMS_Sweep@@IAEHPAVCDrCurve@@PAVCDListMgr@@AAVCString@@H@Z 100361a0 f   ms_Sweep.obj
 0001:000353d0       ?Copy_N_TransferBezWeightInfo@CMS_Sweep@@IAEHPAVCDrCurve@@PANHH@Z 100363d0 f   ms_Sweep.obj
 0001:00035440       ?SetInfoForDataBase@CMS_Sweep@@IAEHPAVCDrSolid@@PAVCDListMgr@@1PAV?$CList@W4PATCHLATCH@@W41@@@PAV?$CList@W4CURVELATCH@@W41@@@PAV?$CList@NN@@4@Z 10036440 f   ms_Sweep.obj
 0001:00035620       ?SetInfoForDataBase_1@CMS_Sweep@@IAEXPAVCDrSolid@@PAVCDListMgr@@PAV?$CList@W4CURVELATCH@@W41@@@1PAV?$CList@W4PATCHLATCH@@W41@@@PAV?$CList@NN@@4@Z 10036620 f   ms_Sweep.obj
 0001:00035c40       ?Serialize@CMS_Sweep@@UAEXAAVCArchive@@@Z 10036c40 f   ms_Sweep.obj
 0001:00035c90       ?CreateObject@CMS_Xtru3@@SGPAVCObject@@XZ 10036c90 f   Ms_xtru3.obj
 0001:00035d10       ?_GetBaseClass@CMS_Xtru3@@KGPAUCRuntimeClass@@XZ 10036d10 f   Ms_xtru3.obj
 0001:00035d30       ?GetRuntimeClass@CMS_Xtru3@@UBEPAUCRuntimeClass@@XZ 10036d30 f   Ms_xtru3.obj
 0001:00035d90       ??5@YGAAVCArchive@@AAV0@AAPAVCMS_Xtru3@@@Z 10036d90 f   Ms_xtru3.obj
 0001:00035dc0       ??0CMS_Xtru3@@QAE@XZ       10036dc0 f   Ms_xtru3.obj
 0001:00035df0       ??_GCMS_Xtru3@@UAEPAXI@Z   10036df0 f i Ms_xtru3.obj
 0001:00035e30       ??_ECMS_Xtru3@@UAEPAXI@Z   10036e30 f i Ms_xtru3.obj
 0001:00035eb0       ??1CMS_Xtru3@@UAE@XZ       10036eb0 f   Ms_xtru3.obj
 0001:00035ee0       ?GoDoIt@CMS_Xtru3@@QAEHHHHAAVCString@@PAVCDrSolid@@PAVCDListMgr@@2PAV?$CList@W4PATCHLATCH@@W41@@@AAV?$CList@HH@@UWORLD@@NNPAVCView@@@Z 10036ee0 f   Ms_xtru3.obj
 0001:00036390       ?ProceessLength_N_Axis@CMS_Xtru3@@IAEHHAANAAUWORLD@@@Z 10037390 f   Ms_xtru3.obj
 0001:000364b0       ?IsDataCompatible@CMS_Xtru3@@IAEHPAVCDListMgr@@0PAV?$CList@W4PATCHLATCH@@W41@@@PAV?$CList@HH@@H@Z 100374b0 f   Ms_xtru3.obj
 0001:00036560       ?SetSolidDataFromPatch@CMS_Xtru3@@IAEHPAVCDrPatch@@@Z 10037560 f   Ms_xtru3.obj
 0001:000367e0       ?ExtrudeCNs_N_WtsOfPatch@CMS_Xtru3@@IAEHPAUWORLD@@PANHU2@N01H@Z 100377e0 f   Ms_xtru3.obj
 0001:000368a0       ??0CSO_Xtrud@@QAE@XZ       100378a0 f i Ms_xtru3.obj
 0001:000368d0       ??1CSO_Xtrud@@UAE@XZ       100378d0 f i Ms_xtru3.obj
 0001:00036900       ??_GCSO_Xtrud@@UAEPAXI@Z   10037900 f i Ms_xtru3.obj
 0001:00036900       ??_ECSO_Xtrud@@UAEPAXI@Z   10037900 f i Ms_xtru3.obj
 0001:00036940       ?PostSolCNodes_N_Wts@CMS_Xtru3@@IAEHPAVCDrSolid@@PAUWORLD@@PANHHH@Z 10037940 f   Ms_xtru3.obj
 0001:00036b90       ?GetPatCNodeCoords_N_Wts@CMS_Xtru3@@IAEHPAVCDrPatch@@W4PATCHLATCH@@PAUWORLD@@PAN@Z 10037b90 f   Ms_xtru3.obj
 0001:00036ce0       ?GetSolidInfo_R@CMS_Xtru3@@IAEHPAV?$CList@HH@@N@Z 10037ce0 f   Ms_xtru3.obj
 0001:00037320       ?SetInfoForDataBase@CMS_Xtru3@@IAEHPAVCDrSolid@@PAVCDListMgr@@11PAV?$CList@W4PATCHLATCH@@W41@@@22@Z 10038320 f   Ms_xtru3.obj
 0001:000374e0       ?SetInfoForDataBase_1@CMS_Xtru3@@IAEXPAVCDrSolid@@PAVCDListMgr@@PAV?$CList@W4PATCHLATCH@@W41@@@1212@Z 100384e0 f   Ms_xtru3.obj
 0001:00037910       ?Serialize@CMS_Xtru3@@UAEXAAVCArchive@@@Z 10038910 f   Ms_xtru3.obj
 0001:00037960       ?CreateObject@CMS_Xtrud@@SGPAVCObject@@XZ 10038960 f   Ms_xtrud.obj
 0001:000379e0       ?_GetBaseClass@CMS_Xtrud@@KGPAUCRuntimeClass@@XZ 100389e0 f   Ms_xtrud.obj
 0001:00037a00       ?GetRuntimeClass@CMS_Xtrud@@UBEPAUCRuntimeClass@@XZ 10038a00 f   Ms_xtrud.obj
 0001:00037a60       ??5@YGAAVCArchive@@AAV0@AAPAVCMS_Xtrud@@@Z 10038a60 f   Ms_xtrud.obj
 0001:00037a90       ??0CMS_Xtrud@@QAE@XZ       10038a90 f   Ms_xtrud.obj
 0001:00037ac0       ??_GCMS_Xtrud@@UAEPAXI@Z   10038ac0 f i Ms_xtrud.obj
 0001:00037b00       ??_ECMS_Xtrud@@UAEPAXI@Z   10038b00 f i Ms_xtrud.obj
 0001:00037b80       ??1CMS_Xtrud@@UAE@XZ       10038b80 f   Ms_xtrud.obj
 0001:00037bb0       ?GoDoIt@CMS_Xtrud@@QAEHHHHAAVCString@@PAVCDrSolid@@PAVCDListMgr@@2PAV?$CList@W4PATCHLATCH@@W41@@@AAV?$CList@HH@@UWORLD@@NNPAVCView@@@Z 10038bb0 f   Ms_xtrud.obj
 0001:00038060       ?ProceessLength_N_Axis@CMS_Xtrud@@IAEHHAANAAUWORLD@@@Z 10039060 f   Ms_xtrud.obj
 0001:00038180       ?IsDataCompatible@CMS_Xtrud@@IAEHPAVCDListMgr@@0PAV?$CList@W4PATCHLATCH@@W41@@@PAV?$CList@HH@@H@Z 10039180 f   Ms_xtrud.obj
 0001:00038230       ?SetSolidDataFromPatch@CMS_Xtrud@@IAEHPAVCDrPatch@@@Z 10039230 f   Ms_xtrud.obj
 0001:00038640       ?ExtrudeCNs_N_WtsOfPatch@CMS_Xtrud@@IAEHPAUWORLD@@PANHU2@N01H@Z 10039640 f   Ms_xtrud.obj
 0001:00038700       ?PostSolCNodes_N_Wts@CMS_Xtrud@@IAEHPAVCDrSolid@@PAUWORLD@@PANHHH@Z 10039700 f   Ms_xtrud.obj
 0001:00038930       ?GetPatCNodeCoords_N_Wts@CMS_Xtrud@@IAEHPAVCDrPatch@@W4PATCHLATCH@@PAUWORLD@@PAN@Z 10039930 f   Ms_xtrud.obj
 0001:00038a80       ?GetSolidInfo_R@CMS_Xtrud@@IAEHPAV?$CList@HH@@N@Z 10039a80 f   Ms_xtrud.obj
 0001:000390c0       ?SetInfoForDataBase@CMS_Xtrud@@IAEHPAVCDrSolid@@PAVCDListMgr@@11PAV?$CList@W4PATCHLATCH@@W41@@@22@Z 1003a0c0 f   Ms_xtrud.obj
 0001:000392a0       ?SetInfoForDataBase_1@CMS_Xtrud@@IAEXPAVCDrSolid@@PAVCDListMgr@@PAV?$CList@W4PATCHLATCH@@W41@@@1212@Z 1003a2a0 f   Ms_xtrud.obj
 0001:000397f0       ?Serialize@CMS_Xtrud@@UAEXAAVCArchive@@@Z 1003a7f0 f   Ms_xtrud.obj
 0001:00039840       _ExtRawDllMain@12          1003a840 f   MSoldll.obj
 0001:000398a0       _InitMSolDLL@0             1003a8a0 f   MSoldll.obj
 0001:000398f0       _DllMain@12                1003a8f0 f   MSoldll.obj
 0001:00039960       ??B?$CTypedSimpleList@PAUCRuntimeClass@@@@QAEPAUCRuntimeClass@@XZ 1003a960 f i MSoldll.obj
 0001:00039980       ??B?$CTypedSimpleList@PAVCOleObjectFactory@@@@QAEPAVCOleObjectFactory@@XZ 1003a980 f i MSoldll.obj
 0001:000399a0       ?GetHead@CSimpleList@@QBEPAXXZ 1003a9a0 f i MSoldll.obj
 0001:000399c0       ?CreateObject@CMSolMgr@@SGPAVCObject@@XZ 1003a9c0 f   MSolMgr.obj
 0001:00039a30       ?_GetBaseClass@CMSolMgr@@KGPAUCRuntimeClass@@XZ 1003aa30 f   MSolMgr.obj
 0001:00039a50       ?GetRuntimeClass@CMSolMgr@@UBEPAUCRuntimeClass@@XZ 1003aa50 f   MSolMgr.obj
 0001:00039ab0       ??5@YGAAVCArchive@@AAV0@AAPAVCMSolMgr@@@Z 1003aab0 f   MSolMgr.obj
 0001:00039ae0       ??0CMSolMgr@@QAE@XZ        1003aae0 f   MSolMgr.obj
 0001:00039b10       ??_GCMSolMgr@@UAEPAXI@Z    1003ab10 f i MSolMgr.obj
 0001:00039b50       ??_ECMSolMgr@@UAEPAXI@Z    1003ab50 f i MSolMgr.obj
 0001:00039bd0       ??1CMSolMgr@@UAE@XZ        1003abd0 f   MSolMgr.obj
 0001:00039c00       ?SetResource@CMSolMgr@@IAEPAUHINSTANCE__@@XZ 1003ac00 f   MSolMgr.obj
 0001:00039cb0       ?RestoreResource@CMSolMgr@@IAEXPAUHINSTANCE__@@@Z 1003acb0 f   MSolMgr.obj
 0001:00039d30       ?DoModal_SolidCon@CMSolMgr@@QAEIPAVCString@@H@Z 1003ad30 f   MSolMgr.obj
 0001:00039d50       ?DoModal_Solid_Extrude@CMSolMgr@@QAEIPAVCString@@W4PATSUBTYPE@@@Z 1003ad50 f   MSolMgr.obj
 0001:00039e00       ?DoModal_Solid_Rotate@CMSolMgr@@QAEIPAVCString@@W4PATSUBTYPE@@@Z 1003ae00 f   MSolMgr.obj
 0001:00039eb0       ?DoModal_Solid_Loft@CMSolMgr@@QAEIPAVCString@@W4PATSUBTYPE@@@Z 1003aeb0 f   MSolMgr.obj
 0001:00039f60       ?DoModal_Solid_Swip@CMSolMgr@@QAEIPAVCString@@W4PATSUBTYPE@@@Z 1003af60 f   MSolMgr.obj
 0001:0003a010       ?DoModal_Solid_Duct@CMSolMgr@@QAEIPAVCString@@W4PATSUBTYPE@@@Z 1003b010 f   MSolMgr.obj
 0001:0003a0c0       ?DoModal_Solid_LoftX@CMSolMgr@@QAEIPAVCDrCurve@@H@Z 1003b0c0 f   MSolMgr.obj
 0001:0003a0e0       ?DoModal_Solid_TensorBlend@CMSolMgr@@QAEIPAVCDrCurve@@HH@Z 1003b0e0 f   MSolMgr.obj
 0001:0003a100       ?DoModal_Solid_LoftPatchCount@CMSolMgr@@QAEIAAH@Z 1003b100 f   MSolMgr.obj
 0001:0003a120       ?DoModal_Solid_GordonPatchCount@CMSolMgr@@QAEIAAH00@Z 1003b120 f   MSolMgr.obj
 0001:0003a140       ?DoModal_Solid_TensorNodeCount@CMSolMgr@@QAEIAAH00@Z 1003b140 f   MSolMgr.obj
 0001:0003a160       ?DoModal_Solid_TwistFactors@CMSolMgr@@QAEIPANHAAN@Z 1003b160 f   MSolMgr.obj
 0001:0003a180       ?DoModal_Solid_RadiusFactors@CMSolMgr@@QAEIPANHAAN@Z 1003b180 f   MSolMgr.obj
 0001:0003a240       ?Serialize@CMSolMgr@@UAEXAAVCArchive@@@Z 1003b240 f   MSolMgr.obj
 0001:0003a290       ?CreateObject@CSasePage@@SGPAVCObject@@XZ 1003b290 f   SasePage.obj
 0001:0003a310       ?_GetBaseClass@CSasePage@@KGPAUCRuntimeClass@@XZ 1003b310 f   SasePage.obj
 0001:0003a330       ?GetRuntimeClass@CSasePage@@UBEPAUCRuntimeClass@@XZ 1003b330 f   SasePage.obj
 0001:0003a350       ??0CSasePage@@QAE@PAVCWnd@@W4SOLIDPROC@@II@Z 1003b350 f   SasePage.obj
 0001:0003a450       ?ResetDlg@CSasePage@@UAEXXZ 1003b450 f i SasePage.obj
 0001:0003a470       ??_ECSasePage@@UAEPAXI@Z   1003b470 f i SasePage.obj
 0001:0003a470       ??_GCSasePage@@UAEPAXI@Z   1003b470 f i SasePage.obj
 0001:0003a4b0       ??0CSasePage@@QAE@PAVCWnd@@W4SOLIDPROC@@PBDI@Z 1003b4b0 f   SasePage.obj
 0001:0003a5d0       ??0CSasePage@@QAE@XZ       1003b5d0 f   SasePage.obj
 0001:0003a690       ??1CSasePage@@UAE@XZ       1003b690 f   SasePage.obj
 0001:0003a750       ?DoDataExchange@CSasePage@@MAEXPAVCDataExchange@@@Z 1003b750 f   SasePage.obj
 0001:0003a780       ?_GetBaseMessageMap@CSasePage@@KGPBUAFX_MSGMAP@@XZ 1003b780 f   SasePage.obj
 0001:0003a7a0       ?GetMessageMap@CSasePage@@MBEPBUAFX_MSGMAP@@XZ 1003b7a0 f   SasePage.obj
 0001:0003a7c0       ?IsEndCondMode@CSheet_SOLI@@QAEHXZ 1003b7c0 f i Sheet_SOLI.obj
 0001:0003a7e0       ?SetEndCondMode@CSheet_SOLI@@QAEXH@Z 1003b7e0 f i Sheet_SOLI.obj
 0001:0003a810       ?CreateObject@CSheet_SOLI@@SGPAVCObject@@XZ 1003b810 f   Sheet_SOLI.obj
 0001:0003a880       ?_GetBaseClass@CSheet_SOLI@@KGPAUCRuntimeClass@@XZ 1003b880 f   Sheet_SOLI.obj
 0001:0003a8a0       ?GetRuntimeClass@CSheet_SOLI@@UBEPAUCRuntimeClass@@XZ 1003b8a0 f   Sheet_SOLI.obj
 0001:0003a8c0       ??0CSheet_SOLI@@QAE@IPAVCWnd@@W4SOLIDPROC@@I@Z 1003b8c0 f   Sheet_SOLI.obj
 0001:0003a950       ??_GCSheet_SOLI@@UAEPAXI@Z 1003b950 f i Sheet_SOLI.obj
 0001:0003a990       ??_ECSheet_SOLI@@UAEPAXI@Z 1003b990 f i Sheet_SOLI.obj
 0001:0003aa10       ??0CSheet_SOLI@@QAE@PBDPAVCWnd@@W4SOLIDPROC@@I@Z 1003ba10 f   Sheet_SOLI.obj
 0001:0003aaa0       ?ConstructPages@CSheet_SOLI@@IAEXPAVCWnd@@@Z 1003baa0 f   Sheet_SOLI.obj
 0001:0003ae20       ??0CSheet_SOLI@@QAE@XZ     1003be20 f   Sheet_SOLI.obj
 0001:0003ae50       ?_GetBaseMessageMap@CSheet_SOLI@@KGPBUAFX_MSGMAP@@XZ 1003be50 f   Sheet_SOLI.obj
 0001:0003ae70       ?GetMessageMap@CSheet_SOLI@@MBEPBUAFX_MSGMAP@@XZ 1003be70 f   Sheet_SOLI.obj
 0001:0003ae90       ?SetResource@CSheet_SOLI@@IAEPAUHINSTANCE__@@XZ 1003be90 f   Sheet_SOLI.obj
 0001:0003af40       ?Create@CSheet_SOLI@@QAEHXZ 1003bf40 f   Sheet_SOLI.obj
 0001:0003b010       ?RestoreResource@CSheet_SOLI@@IAEXPAUHINSTANCE__@@@Z 1003c010 f   Sheet_SOLI.obj
 0001:0003b090       ??1CSheet_SOLI@@UAE@XZ     1003c090 f   Sheet_SOLI.obj
 0001:0003b2a0       ?OnCreate@CSheet_SOLI@@IAEHPAUtagCREATESTRUCTA@@@Z 1003c2a0 f   Sheet_SOLI.obj
 0001:0003b2d0       ?SetProcPage@CSheet_SOLI@@QAEHXZ 1003c2d0 f   Sheet_SOLI.obj
 0001:0003b8d0       ?SizeRectDlgIn@CSheet_SOLI@@IAEXAAVCRect@@@Z 1003c8d0 f   Sheet_SOLI.obj
 0001:0003b9f0       ?_GetBaseClass@CSO_Xtrud@@KGPAUCRuntimeClass@@XZ 1003c9f0 f   So_xtrud.obj
 0001:0003ba10       ?GetRuntimeClass@CSO_Xtrud@@UBEPAUCRuntimeClass@@XZ 1003ca10 f   So_xtrud.obj
 0001:0003ba30       ?ExtrudePatch@CSO_Xtrud@@QAEHNUWORLD@@HPAU2@PAN12@Z 1003ca30 f   So_xtrud.obj
 0001:0003bbc0       ?GetAPtByExtrusion@CSO_Xtrud@@QAEPAUWORLD@@PAU2@U2@N@Z 1003cbc0 f   So_xtrud.obj
 0001:0003bc46       ?GetObjectIndexfromKey@CObjectMgr@@QAEHHVCString@@I@Z 1003cc46 f   OMgr_D32:OMgr_D32.dll
 0001:0003bc4c       ?GetSpecObject@CObjectMgr@@QAEPAVCDrObject@@H@Z 1003cc4c f   OMgr_D32:OMgr_D32.dll
 0001:0003bc52       ?GetRuntimeClass@CMatObj@@UBEPAUCRuntimeClass@@XZ 1003cc52 f   Spec_d32:Spec_D32.dll
 0001:0003bc58       ?InitBooleans@CBooleans@@UAEXXZ 1003cc58 f   Spec_d32:Spec_D32.dll
 0001:0003bc5e       ?ReadDefaultBooleans@CBooleans@@UAEXXZ 1003cc5e f   Spec_d32:Spec_D32.dll
 0001:0003bc64       ?ToggleZoom@CBooleans@@UAEHHH@Z 1003cc64 f   Spec_d32:Spec_D32.dll
 0001:0003bc6a       ?IsZoomOn@CBooleans@@UAEHHH@Z 1003cc6a f   Spec_d32:Spec_D32.dll
 0001:0003bc70       ?SetZoomEnabled@CBooleans@@UAEXHH@Z 1003cc70 f   Spec_d32:Spec_D32.dll
 0001:0003bc76       ?IsZoomEnabled@CBooleans@@UAEHH@Z 1003cc76 f   Spec_d32:Spec_D32.dll
 0001:0003bc7c       ?SetObjectInfo@CBooleans@@UAEXPAVCDrObject@@@Z 1003cc7c f   Spec_d32:Spec_D32.dll
 0001:0003bc82       ?GetObjectInfo@CBooleans@@UAEXPAVCDrObject@@@Z 1003cc82 f   Spec_d32:Spec_D32.dll
 0001:0003bc88       ?Pack_drPipe@CBooleans@@UAEXPAVCString@@@Z 1003cc88 f   Spec_d32:Spec_D32.dll
 0001:0003bc8e       ?SetScreen3DCorner@CDrObject@@UAEXPAUWORLD@@H@Z 1003cc8e f   Spec_d32:Spec_D32.dll
 0001:0003bc94       ?GetScreen3DCorner@CDrObject@@UAEXPAUWORLD@@H@Z 1003cc94 f   Spec_d32:Spec_D32.dll
 0001:0003bc9a       ?SetEyeCorner@CDrObject@@UAEXPAUWORLD@@H@Z 1003cc9a f   Spec_d32:Spec_D32.dll
 0001:0003bca0       ?GetEyeCorner@CDrObject@@UAEXPAUWORLD@@H@Z 1003cca0 f   Spec_d32:Spec_D32.dll
 0001:0003bca6       ?SetWorldCorner@CDrObject@@UAEXPAUWORLD@@H@Z 1003cca6 f   Spec_d32:Spec_D32.dll
 0001:0003bcac       ?GetWorldCorner@CDrObject@@UAEXPAUWORLD@@H@Z 1003ccac f   Spec_d32:Spec_D32.dll
 0001:0003bcb2       ?SetLocalCorner@CDrObject@@UAEXPAUWORLD@@H@Z 1003ccb2 f   Spec_d32:Spec_D32.dll
 0001:0003bcb8       ?GetLocalCorner@CDrObject@@UAEXPAUWORLD@@H@Z 1003ccb8 f   Spec_d32:Spec_D32.dll
 0001:0003bcbe       ?DoDataView@CBooleans@@UAEXPAVCDC@@H@Z 1003ccbe f   Spec_d32:Spec_D32.dll
 0001:0003bcc4       ?Serialize@CBooleans@@UAEXAAVCArchive@@@Z 1003ccc4 f   Spec_d32:Spec_D32.dll
 0001:0003bcca       ?GetRuntimeClass@CBooleans@@UBEPAUCRuntimeClass@@XZ 1003ccca f   Spec_d32:Spec_D32.dll
 0001:0003bcd0       ??1CDrObject@@UAE@XZ       1003ccd0 f   Spec_d32:Spec_D32.dll
 0001:0003bcd6       ?InitDataWindow@CDataWindow@@UAEXXZ 1003ccd6 f   Spec_d32:Spec_D32.dll
 0001:0003bcdc       ?ReadDefaultDataWindow@CDataWindow@@UAEXXZ 1003ccdc f   Spec_d32:Spec_D32.dll
 0001:0003bce2       ?SetWinExtWIC@CDataWindow@@UAEXXZ 1003cce2 f   Spec_d32:Spec_D32.dll
 0001:0003bce8       ?SetWinMinMaxWIC@CDataWindow@@UAEXULPOINT3@@@Z 1003cce8 f   Spec_d32:Spec_D32.dll
 0001:0003bcee       ?SetObjectInfo@CDataWindow@@UAEXPAVCDrObject@@@Z 1003ccee f   Spec_d32:Spec_D32.dll
 0001:0003bcf4       ?GetObjectInfo@CDataWindow@@UAEXPAVCDrObject@@@Z 1003ccf4 f   Spec_d32:Spec_D32.dll
 0001:0003bcfa       ?Pack_drPipe@CDataWindow@@UAEXPAVCString@@@Z 1003ccfa f   Spec_d32:Spec_D32.dll
 0001:0003bd00       ?DoDataView@CDataWindow@@UAEXPAVCDC@@H@Z 1003cd00 f   Spec_d32:Spec_D32.dll
 0001:0003bd06       ?Serialize@CDataWindow@@UAEXAAVCArchive@@@Z 1003cd06 f   Spec_d32:Spec_D32.dll
 0001:0003bd0c       ?GetRuntimeClass@CDataWindow@@UBEPAUCRuntimeClass@@XZ 1003cd0c f   Spec_d32:Spec_D32.dll
 0001:0003bd12       ?InitDrFont@CDrFont@@UAEXXZ 1003cd12 f   Spec_d32:Spec_D32.dll
 0001:0003bd18       ?ReadDefaultDrFont@CDrFont@@UAEXXZ 1003cd18 f   Spec_d32:Spec_D32.dll
 0001:0003bd1e       ?DoTextFont@CDrFont@@UAEXXZ 1003cd1e f   Spec_d32:Spec_D32.dll
 0001:0003bd24       ?SetObjectInfo@CDrFont@@UAEXPAVCDrObject@@@Z 1003cd24 f   Spec_d32:Spec_D32.dll
 0001:0003bd2a       ?GetObjectInfo@CDrFont@@UAEXPAVCDrObject@@@Z 1003cd2a f   Spec_d32:Spec_D32.dll
 0001:0003bd30       ?Pack_drPipe@CDrFont@@UAEXPAVCString@@@Z 1003cd30 f   Spec_d32:Spec_D32.dll
 0001:0003bd36       ?DoDataView@CDrFont@@UAEXPAVCDC@@H@Z 1003cd36 f   Spec_d32:Spec_D32.dll
 0001:0003bd3c       ?Serialize@CDrFont@@UAEXAAVCArchive@@@Z 1003cd3c f   Spec_d32:Spec_D32.dll
 0001:0003bd42       ?GetRuntimeClass@CDrFont@@UBEPAUCRuntimeClass@@XZ 1003cd42 f   Spec_d32:Spec_D32.dll
 0001:0003bd48       ?InitDrPen@CDrPen@@UAEXXZ  1003cd48 f   Spec_d32:Spec_D32.dll
 0001:0003bd4e       ?ReadDefaultDrPen@CDrPen@@UAEXXZ 1003cd4e f   Spec_d32:Spec_D32.dll
 0001:0003bd54       ?ReplacePen@CDrPen@@UAEXXZ 1003cd54 f   Spec_d32:Spec_D32.dll
 0001:0003bd5a       ?SetObjectInfo@CDrPen@@UAEXPAVCDrObject@@@Z 1003cd5a f   Spec_d32:Spec_D32.dll
 0001:0003bd60       ?GetObjectInfo@CDrPen@@UAEXPAVCDrObject@@@Z 1003cd60 f   Spec_d32:Spec_D32.dll
 0001:0003bd66       ?Pack_drPipe@CDrPen@@UAEXPAVCString@@@Z 1003cd66 f   Spec_d32:Spec_D32.dll
 0001:0003bd6c       ?DoDataView@CDrPen@@UAEXPAVCDC@@H@Z 1003cd6c f   Spec_d32:Spec_D32.dll
 0001:0003bd72       ?Serialize@CDrPen@@UAEXAAVCArchive@@@Z 1003cd72 f   Spec_d32:Spec_D32.dll
 0001:0003bd78       ?GetRuntimeClass@CDrPen@@UBEPAUCRuntimeClass@@XZ 1003cd78 f   Spec_d32:Spec_D32.dll
 0001:0003bd7e       ?SetObjectInfo@CHitNet@@UAEXPAVCDrObject@@@Z 1003cd7e f   Spec_d32:Spec_D32.dll
 0001:0003bd84       ?GetObjectInfo@CHitNet@@UAEXPAVCDrObject@@@Z 1003cd84 f   Spec_d32:Spec_D32.dll
 0001:0003bd8a       ?Pack_drPipe@CHitNet@@UAEXPAVCString@@@Z 1003cd8a f   Spec_d32:Spec_D32.dll
 0001:0003bd90       ?DoDataView@CHitNet@@UAEXPAVCDC@@H@Z 1003cd90 f   Spec_d32:Spec_D32.dll
 0001:0003bd96       ?Serialize@CHitNet@@UAEXAAVCArchive@@@Z 1003cd96 f   Spec_d32:Spec_D32.dll
 0001:0003bd9c       ?GetRuntimeClass@CHitNet@@UBEPAUCRuntimeClass@@XZ 1003cd9c f   Spec_d32:Spec_D32.dll
 0001:0003bda2       ?InitLayer@CLayer@@UAEXXZ  1003cda2 f   Spec_d32:Spec_D32.dll
 0001:0003bda8       ?ReadDefaultLayer@CLayer@@UAEXXZ 1003cda8 f   Spec_d32:Spec_D32.dll
 0001:0003bdae       ?SetLayerDefaultArray@CLayer@@UAEXQAY01I@Z 1003cdae f   Spec_d32:Spec_D32.dll
 0001:0003bdb4       ?GetLayerDefaultArray@CLayer@@UAEXQAY01I@Z 1003cdb4 f   Spec_d32:Spec_D32.dll
 0001:0003bdba       ?SetLayerOldArray@CLayer@@UAEXQAY01I@Z 1003cdba f   Spec_d32:Spec_D32.dll
 0001:0003bdc0       ?GetLayerOldArray@CLayer@@UAEXQAY01I@Z 1003cdc0 f   Spec_d32:Spec_D32.dll
 0001:0003bdc6       ?SetLayerArray@CLayer@@UAEXQAY01I@Z 1003cdc6 f   Spec_d32:Spec_D32.dll
 0001:0003bdcc       ?GetLayerArray@CLayer@@UAEXQAY01I@Z 1003cdcc f   Spec_d32:Spec_D32.dll
 0001:0003bdd2       ?SetLayerInfo@CLayer@@UAEXII@Z 1003cdd2 f   Spec_d32:Spec_D32.dll
 0001:0003bdd8       ?GetLayerInfo@CLayer@@UAE?AVCString@@I@Z 1003cdd8 f   Spec_d32:Spec_D32.dll
 0001:0003bdde       ?SetObjectInfo@CLayer@@UAEXPAVCDrObject@@@Z 1003cdde f   Spec_d32:Spec_D32.dll
 0001:0003bde4       ?GetObjectInfo@CLayer@@UAEXPAVCDrObject@@@Z 1003cde4 f   Spec_d32:Spec_D32.dll
 0001:0003bdea       ?Pack_drPipe@CLayer@@UAEXPAVCString@@@Z 1003cdea f   Spec_d32:Spec_D32.dll
 0001:0003bdf0       ?DoDataView@CLayer@@UAEXPAVCDC@@H@Z 1003cdf0 f   Spec_d32:Spec_D32.dll
 0001:0003bdf6       ?Serialize@CLayer@@UAEXAAVCArchive@@@Z 1003cdf6 f   Spec_d32:Spec_D32.dll
 0001:0003bdfc       ?GetRuntimeClass@CLayer@@UBEPAUCRuntimeClass@@XZ 1003cdfc f   Spec_d32:Spec_D32.dll
 0001:0003be02       ?InitPatchMnu@CPatchMnu@@UAEXXZ 1003ce02 f   Spec_d32:Spec_D32.dll
 0001:0003be08       ?ReadDefaultPatchMnu@CPatchMnu@@UAEXXZ 1003ce08 f   Spec_d32:Spec_D32.dll
 0001:0003be0e       ?SetPatchMnuDefaultArray@CPatchMnu@@UAEXQAY01I@Z 1003ce0e f   Spec_d32:Spec_D32.dll
 0001:0003be14       ?GetPatchMnuDefaultArray@CPatchMnu@@UAEXQAY01I@Z 1003ce14 f   Spec_d32:Spec_D32.dll
 0001:0003be1a       ?SetPatchMnuOldArray@CPatchMnu@@UAEXQAY01I@Z 1003ce1a f   Spec_d32:Spec_D32.dll
 0001:0003be20       ?GetPatchMnuOldArray@CPatchMnu@@UAEXQAY01I@Z 1003ce20 f   Spec_d32:Spec_D32.dll
 0001:0003be26       ?SetPatchMnuArray@CPatchMnu@@UAEXQAY01I@Z 1003ce26 f   Spec_d32:Spec_D32.dll
 0001:0003be2c       ?GetPatchMnuArray@CPatchMnu@@UAEXQAY01I@Z 1003ce2c f   Spec_d32:Spec_D32.dll
 0001:0003be32       ?SetPatchMnuIDArray@CPatchMnu@@UAEXQAVCString@@@Z 1003ce32 f   Spec_d32:Spec_D32.dll
 0001:0003be38       ?GetPatchMnuIDArray@CPatchMnu@@UAEXQAVCString@@@Z 1003ce38 f   Spec_d32:Spec_D32.dll
 0001:0003be3e       ?SetPatchMnuInfo@CPatchMnu@@UAEXII@Z 1003ce3e f   Spec_d32:Spec_D32.dll
 0001:0003be44       ?GetPatchMnuInfo@CPatchMnu@@UAE?AVCString@@I@Z 1003ce44 f   Spec_d32:Spec_D32.dll
 0001:0003be4a       ?SetObjectInfo@CPatchMnu@@UAEXPAVCDrObject@@@Z 1003ce4a f   Spec_d32:Spec_D32.dll
 0001:0003be50       ?GetObjectInfo@CPatchMnu@@UAEXPAVCDrObject@@@Z 1003ce50 f   Spec_d32:Spec_D32.dll
 0001:0003be56       ?Pack_drPipe@CPatchMnu@@UAEXPAVCString@@@Z 1003ce56 f   Spec_d32:Spec_D32.dll
 0001:0003be5c       ?DoDataView@CPatchMnu@@UAEXPAVCDC@@H@Z 1003ce5c f   Spec_d32:Spec_D32.dll
 0001:0003be62       ?Serialize@CPatchMnu@@UAEXAAVCArchive@@@Z 1003ce62 f   Spec_d32:Spec_D32.dll
 0001:0003be68       ?GetRuntimeClass@CPatchMnu@@UBEPAUCRuntimeClass@@XZ 1003ce68 f   Spec_d32:Spec_D32.dll
 0001:0003be6e       ?InitObj3DMnu@CObj3DMnu@@UAEXXZ 1003ce6e f   Spec_d32:Spec_D32.dll
 0001:0003be74       ?ReadDefaultObj3DMnu@CObj3DMnu@@UAEXXZ 1003ce74 f   Spec_d32:Spec_D32.dll
 0001:0003be7a       ?SetObj3DMnuDefaultArray@CObj3DMnu@@UAEXQAY01I@Z 1003ce7a f   Spec_d32:Spec_D32.dll
 0001:0003be80       ?GetObj3DMnuDefaultArray@CObj3DMnu@@UAEXQAY01I@Z 1003ce80 f   Spec_d32:Spec_D32.dll
 0001:0003be86       ?SetObj3DMnuOldArray@CObj3DMnu@@UAEXQAY01I@Z 1003ce86 f   Spec_d32:Spec_D32.dll
 0001:0003be8c       ?GetObj3DMnuOldArray@CObj3DMnu@@UAEXQAY01I@Z 1003ce8c f   Spec_d32:Spec_D32.dll
 0001:0003be92       ?SetObj3DMnuArray@CObj3DMnu@@UAEXQAY01I@Z 1003ce92 f   Spec_d32:Spec_D32.dll
 0001:0003be98       ?GetObj3DMnuArray@CObj3DMnu@@UAEXQAY01I@Z 1003ce98 f   Spec_d32:Spec_D32.dll
 0001:0003be9e       ?SetObj3DMnuIDArray@CObj3DMnu@@UAEXQAVCString@@@Z 1003ce9e f   Spec_d32:Spec_D32.dll
 0001:0003bea4       ?GetObj3DMnuIDArray@CObj3DMnu@@UAEXQAVCString@@@Z 1003cea4 f   Spec_d32:Spec_D32.dll
 0001:0003beaa       ?SetObj3DMnuInfo@CObj3DMnu@@UAEXII@Z 1003ceaa f   Spec_d32:Spec_D32.dll
 0001:0003beb0       ?GetObj3DMnuInfo@CObj3DMnu@@UAE?AVCString@@I@Z 1003ceb0 f   Spec_d32:Spec_D32.dll
 0001:0003beb6       ?SetObjectInfo@CObj3DMnu@@UAEXPAVCDrObject@@@Z 1003ceb6 f   Spec_d32:Spec_D32.dll
 0001:0003bebc       ?GetObjectInfo@CObj3DMnu@@UAEXPAVCDrObject@@@Z 1003cebc f   Spec_d32:Spec_D32.dll
 0001:0003bec2       ?Pack_drPipe@CObj3DMnu@@UAEXPAVCString@@@Z 1003cec2 f   Spec_d32:Spec_D32.dll
 0001:0003bec8       ?DoDataView@CObj3DMnu@@UAEXPAVCDC@@H@Z 1003cec8 f   Spec_d32:Spec_D32.dll
 0001:0003bece       ?Serialize@CObj3DMnu@@UAEXAAVCArchive@@@Z 1003cece f   Spec_d32:Spec_D32.dll
 0001:0003bed4       ?GetRuntimeClass@CObj3DMnu@@UBEPAUCRuntimeClass@@XZ 1003ced4 f   Spec_d32:Spec_D32.dll
 0001:0003beda       ?InitMapFactor@CMapFactor@@UAEXXZ 1003ceda f   Spec_d32:Spec_D32.dll
 0001:0003bee0       ?ReadDefaultMapFactor@CMapFactor@@UAEXXZ 1003cee0 f   Spec_d32:Spec_D32.dll
 0001:0003bee6       ?SetObjectInfo@CMapFactor@@UAEXPAVCDrObject@@@Z 1003cee6 f   Spec_d32:Spec_D32.dll
 0001:0003beec       ?GetObjectInfo@CMapFactor@@UAEXPAVCDrObject@@@Z 1003ceec f   Spec_d32:Spec_D32.dll
 0001:0003bef2       ?Pack_drPipe@CMapFactor@@UAEXPAVCString@@@Z 1003cef2 f   Spec_d32:Spec_D32.dll
 0001:0003bef8       ?DoDataView@CMapFactor@@UAEXPAVCDC@@H@Z 1003cef8 f   Spec_d32:Spec_D32.dll
 0001:0003befe       ?Serialize@CMapFactor@@UAEXAAVCArchive@@@Z 1003cefe f   Spec_d32:Spec_D32.dll
 0001:0003bf04       ?GetRuntimeClass@CMapFactor@@UBEPAUCRuntimeClass@@XZ 1003cf04 f   Spec_d32:Spec_D32.dll
 0001:0003bf0a       ?InitPrecision@CPrecision@@UAEXXZ 1003cf0a f   Spec_d32:Spec_D32.dll
 0001:0003bf10       ?ReadDefaultPrecision@CPrecision@@UAEXXZ 1003cf10 f   Spec_d32:Spec_D32.dll
 0001:0003bf16       ?SetObjectInfo@CPrecision@@UAEXPAVCDrObject@@@Z 1003cf16 f   Spec_d32:Spec_D32.dll
 0001:0003bf1c       ?GetObjectInfo@CPrecision@@UAEXPAVCDrObject@@@Z 1003cf1c f   Spec_d32:Spec_D32.dll
 0001:0003bf22       ?Pack_drPipe@CPrecision@@UAEXPAVCString@@@Z 1003cf22 f   Spec_d32:Spec_D32.dll
 0001:0003bf28       ?DoDataView@CPrecision@@UAEXPAVCDC@@H@Z 1003cf28 f   Spec_d32:Spec_D32.dll
 0001:0003bf2e       ?Serialize@CPrecision@@UAEXAAVCArchive@@@Z 1003cf2e f   Spec_d32:Spec_D32.dll
 0001:0003bf34       ?GetRuntimeClass@CPrecision@@UBEPAUCRuntimeClass@@XZ 1003cf34 f   Spec_d32:Spec_D32.dll
 0001:0003bf3a       ?InitScaleFactor@CScaleFactor@@UAEXXZ 1003cf3a f   Spec_d32:Spec_D32.dll
 0001:0003bf40       ?ReadDefaultScaleFactor@CScaleFactor@@UAEXXZ 1003cf40 f   Spec_d32:Spec_D32.dll
 0001:0003bf46       ?SetObjectInfo@CScaleFactor@@UAEXPAVCDrObject@@@Z 1003cf46 f   Spec_d32:Spec_D32.dll
 0001:0003bf4c       ?GetObjectInfo@CScaleFactor@@UAEXPAVCDrObject@@@Z 1003cf4c f   Spec_d32:Spec_D32.dll
 0001:0003bf52       ?Pack_drPipe@CScaleFactor@@UAEXPAVCString@@@Z 1003cf52 f   Spec_d32:Spec_D32.dll
 0001:0003bf58       ?DoDataView@CScaleFactor@@UAEXPAVCDC@@H@Z 1003cf58 f   Spec_d32:Spec_D32.dll
 0001:0003bf5e       ?Serialize@CScaleFactor@@UAEXAAVCArchive@@@Z 1003cf5e f   Spec_d32:Spec_D32.dll
 0001:0003bf64       ?GetRuntimeClass@CScaleFactor@@UBEPAUCRuntimeClass@@XZ 1003cf64 f   Spec_d32:Spec_D32.dll
 0001:0003bf6a       ?InitUnit@CUnit@@UAEXXZ    1003cf6a f   Spec_d32:Spec_D32.dll
 0001:0003bf70       ?ReadDefaultUnit@CUnit@@UAEXXZ 1003cf70 f   Spec_d32:Spec_D32.dll
 0001:0003bf76       ?SetObjectInfo@CUnit@@UAEXPAVCDrObject@@@Z 1003cf76 f   Spec_d32:Spec_D32.dll
 0001:0003bf7c       ?GetObjectInfo@CUnit@@UAEXPAVCDrObject@@@Z 1003cf7c f   Spec_d32:Spec_D32.dll
 0001:0003bf82       ?Pack_drPipe@CUnit@@UAEXPAVCString@@@Z 1003cf82 f   Spec_d32:Spec_D32.dll
 0001:0003bf88       ?DoDataView@CUnit@@UAEXPAVCDC@@H@Z 1003cf88 f   Spec_d32:Spec_D32.dll
 0001:0003bf8e       ?Serialize@CUnit@@UAEXAAVCArchive@@@Z 1003cf8e f   Spec_d32:Spec_D32.dll
 0001:0003bf94       ?GetRuntimeClass@CUnit@@UBEPAUCRuntimeClass@@XZ 1003cf94 f   Spec_d32:Spec_D32.dll
 0001:0003bf9a       ??1CDListMgr@@UAE@XZ       1003cf9a f   Spec_d32:Spec_D32.dll
 0001:0003bfa0       ?GetNextObject@CDListMgr@@QAEPAVCObject@@AAPAU__POSITION@@@Z 1003cfa0 f   Spec_d32:Spec_D32.dll
 0001:0003bfa6       ?GetFirstObjectPos@CDListMgr@@QAEPAU__POSITION@@XZ 1003cfa6 f   Spec_d32:Spec_D32.dll
 0001:0003bfac       ?GetObjectA@CDListMgr@@QAEPAVCObject@@H@Z 1003cfac f   Spec_d32:Spec_D32.dll
 0001:0003bfb2       ?GetSpecificObjectCount@CDListMgr@@QAEHH@Z 1003cfb2 f   Spec_d32:Spec_D32.dll
 0001:0003bfb8       ?InsertObject@CDListMgr@@QAEHPAVCObject@@@Z 1003cfb8 f   Spec_d32:Spec_D32.dll
 0001:0003bfbe       ?GetObjectIndex@CDListMgr@@QAEHPAVCObject@@@Z 1003cfbe f   Spec_d32:Spec_D32.dll
 0001:0003bfc4       ??0CDListMgr@@QAE@XZ       1003cfc4 f   Spec_d32:Spec_D32.dll
 0001:0003bfca       ?GetObjectIndex@CDListMgr@@QAEHIVCString@@@Z 1003cfca f   Spec_d32:Spec_D32.dll
 0001:0003bfd0       ?RemoveObject@CDListMgr@@QAEHH@Z 1003cfd0 f   Spec_d32:Spec_D32.dll
 0001:0003bfd6       ?SetCorner@CDrLabel@@UAEXUtagPOINT@@H@Z 1003cfd6 f   Draw_D32:Draw_D32.dll
 0001:0003bfdc       ?GetCorner@CDrLabel@@UAE?AUtagPOINT@@H@Z 1003cfdc f   Draw_D32:Draw_D32.dll
 0001:0003bfe2       ?GetObjectInfo@CDrLabel@@UAEXPAVCDrObject@@@Z 1003cfe2 f   Draw_D32:Draw_D32.dll
 0001:0003bfe8       ?SetObjectInfo@CDrLabel@@UAEXPAVCDrObject@@@Z 1003cfe8 f   Draw_D32:Draw_D32.dll
 0001:0003bfee       ?Pack_drPipe@CDrLabel@@UAEXPAVCString@@@Z 1003cfee f   Draw_D32:Draw_D32.dll
 0001:0003bff4       ?IsKeyMatch@CDrLabel@@UAEHPAVCDrObject@@VCString@@I@Z 1003cff4 f   Draw_D32:Draw_D32.dll
 0001:0003bffa       ?IsObjectHit@CDrLabel@@UAEHPAVCClientDC@@HUtagPOINT@@PAVCRect@@H@Z 1003cffa f   Draw_D32:Draw_D32.dll
 0001:0003c000       ?GetRawCoords@CDrLabel@@UAEXPAJPAHH@Z 1003d000 f   Draw_D32:Draw_D32.dll
 0001:0003c006       ?FinishObject@CDrLabel@@UAEXPAVCClientDC@@H@Z 1003d006 f   Draw_D32:Draw_D32.dll
 0001:0003c00c       ?DealObjectDialog@CDrLabel@@UAEHXZ 1003d00c f   Draw_D32:Draw_D32.dll
 0001:0003c012       ?DoDrawView@CDrLabel@@UAEXPAVCDC@@HH@Z 1003d012 f   Draw_D32:Draw_D32.dll
 0001:0003c018       ?Corner_3Dto2D@CDrLabel@@UAEXXZ 1003d018 f   Draw_D32:Draw_D32.dll
 0001:0003c01e       ?InitDraw@CDrLabel@@UAEXPAVCDC@@HHPAUMATRIX@@1NNN@Z 1003d01e f   Draw_D32:Draw_D32.dll
 0001:0003c024       ?DoDataView@CDrLabel@@UAEXPAVCDC@@H@Z 1003d024 f   Draw_D32:Draw_D32.dll
 0001:0003c02a       ?Serialize@CDrLabel@@UAEXAAVCArchive@@@Z 1003d02a f   Draw_D32:Draw_D32.dll
 0001:0003c030       ?GetRuntimeClass@CDrLabel@@UBEPAUCRuntimeClass@@XZ 1003d030 f   Draw_D32:Draw_D32.dll
 0001:0003c036       ?Init@CElemInfo@@UAEXXZ    1003d036 f   Elem_D32:Elem_D32.dll
 0001:0003c03c       ?ReadDefault@CElemInfo@@UAEXXZ 1003d03c f   Elem_D32:Elem_D32.dll
 0001:0003c042       ?SetObjectInfo@CElemInfo@@UAEXPAVCDrObject@@@Z 1003d042 f   Elem_D32:Elem_D32.dll
 0001:0003c048       ?GetObjectInfo@CElemInfo@@UAEXPAVCDrObject@@@Z 1003d048 f   Elem_D32:Elem_D32.dll
 0001:0003c04e       ?Pack_drPipe@CElemInfo@@UAEXPAVCString@@@Z 1003d04e f   Elem_D32:Elem_D32.dll
 0001:0003c054       ?DoDataView@CElemInfo@@UAEXPAVCDC@@H@Z 1003d054 f   Elem_D32:Elem_D32.dll
 0001:0003c05a       ?Serialize@CElemInfo@@UAEXAAVCArchive@@@Z 1003d05a f   Elem_D32:Elem_D32.dll
 0001:0003c060       ?GetRuntimeClass@CElemInfo@@UBEPAUCRuntimeClass@@XZ 1003d060 f   Elem_D32:Elem_D32.dll
 0001:0003c066       ?GetRuntimeClass@CTriangle@@UBEPAUCRuntimeClass@@XZ 1003d066 f   OGen_D32:OGEN_D32.dll
 0001:0003c06c       ?NumberOfElements@CDrSolid@@QAEHIH@Z 1003d06c f   OGen_D32:OGEN_D32.dll
 0001:0003c072       ?GetRuntimeClass@CPentaHed@@UBEPAUCRuntimeClass@@XZ 1003d072 f   OGen_D32:OGEN_D32.dll
 0001:0003c078       ?NumberOfSolides@CDrSolid@@QAEHXZ 1003d078 f   OGen_D32:OGEN_D32.dll
 0001:0003c07e       ?NumberOfBezierPenta@CDrSolid@@QAEHXZ 1003d07e f   OGen_D32:OGEN_D32.dll
 0001:0003c084       ??0CPentaHed@@QAE@XZ       1003d084 f   OGen_D32:OGEN_D32.dll
 0001:0003c08a       ?Get_TangentAtaNode@CDrCurve@@QAEHUWORLD@@AAU2@N@Z 1003d08a f   OGen_D32:OGEN_D32.dll
 0001:0003c090       ?Serialize@C3DMath@@UAEXAAVCArchive@@@Z 1003d090 f   Dr3D_D32:Dr3D_D32.dll
 0001:0003c096       ?GetRuntimeClass@C3DMath@@UBEPAUCRuntimeClass@@XZ 1003d096 f   Dr3D_D32:Dr3D_D32.dll
 0001:0003c09c       ?BlockCopy@C3DMath@@QAEXPAD0K@Z 1003d09c f   Dr3D_D32:Dr3D_D32.dll
 0001:0003c0a2       ??0C3DMath@@QAE@XZ         1003d0a2 f   Dr3D_D32:Dr3D_D32.dll
 0001:0003c0a8       ?Serialize@CMsMath@@UAEXAAVCArchive@@@Z 1003d0a8 f   Dr3D_D32:Dr3D_D32.dll
 0001:0003c0ae       ?GetRuntimeClass@CMsMath@@UBEPAUCRuntimeClass@@XZ 1003d0ae f   Dr3D_D32:Dr3D_D32.dll
 0001:0003c0b4       ?Scale3DPts@C3DMath@@QAEXNPAUWORLD@@@Z 1003d0b4 f   Dr3D_D32:Dr3D_D32.dll
 0001:0003c0ba       ?PostNode@CMI_GangN@@QAEPAVCDrNode@@AAVCString@@IUWORLD@@H@Z 1003d0ba f   MNod_D32:MNod_D32.dll
 0001:0003c0c0       ??1CMI_GangC@@UAE@XZ       1003d0c0 f   MCur_D32:MCur_D32.dll
 0001:0003c0c6       ??1CMC_Circle@@UAE@XZ      1003d0c6 f   MCur_D32:MCur_D32.dll
 0001:0003c0cc       ??1CMC_Parab@@UAE@XZ       1003d0cc f   MCur_D32:MCur_D32.dll
 0001:0003c0d2       ?CreateCurve@CMI_GangC@@QAEPAVCDrCurve@@AAVCString@@PAV2@PAVCDListMgr@@W4CURVEPROC@@PAV?$CList@HH@@HH@Z 1003d0d2 f   MCur_D32:MCur_D32.dll
 0001:0003c0d8       ?CreateParabola@CMC_Parab@@QAEPAVCDrCurve@@AAVCString@@PAV2@PAVCDListMgr@@W4CURVEPROC@@PAV?$CList@HH@@HH@Z 1003d0d8 f   MCur_D32:MCur_D32.dll
 0001:0003c0de       ?CreateCircle@CMC_Circle@@QAEPAVCDrCurve@@AAVCString@@PAV2@PAVCDListMgr@@W4CURVEPROC@@PAV?$CList@HH@@W4CIRCLETYPE@@NNNHPAVCDrNode@@6H@Z 1003d0de f   MCur_D32:MCur_D32.dll
 0001:0003c0e4       ??0CMC_Parab@@QAE@XZ       1003d0e4 f   MCur_D32:MCur_D32.dll
 0001:0003c0ea       ??0CMC_Circle@@QAE@XZ      1003d0ea f   MCur_D32:MCur_D32.dll
 0001:0003c0f0       ??0CMI_GangC@@QAE@XZ       1003d0f0 f   MCur_D32:MCur_D32.dll
 0001:0003c0f6       ??0CDlg_Radius@@QAE@PAVCWnd@@@Z 1003d0f6 f   MPat_D32:MPat_D32.dll
 0001:0003c0fc       ??1CMPatMgr@@UAE@XZ        1003d0fc f   MPat_D32:MPat_D32.dll
 0001:0003c102       ?DoModal_Patch_TwistFactors@CMPatMgr@@QAEIPANHAAN@Z 1003d102 f   MPat_D32:MPat_D32.dll
 0001:0003c108       ??0CMPatMgr@@QAE@XZ        1003d108 f   MPat_D32:MPat_D32.dll
 0001:0003c10e       ??0CDlg_Tang@@QAE@PAVCWnd@@@Z 1003d10e f   MPat_D32:MPat_D32.dll
 0001:0003c114       ?DoModal_Patch_RadiusFactors@CMPatMgr@@QAEIPANHAAN@Z 1003d114 f   MPat_D32:MPat_D32.dll
 0001:0003c11a       ??0CXtruLens@@QAE@PAVCWnd@@@Z 1003d11a f   MPat_D32:MPat_D32.dll
 0001:0003c120       ?classCMI_GangP@CMI_GangP@@2UCRuntimeClass@@A 1003d120 f   MPat_D32:MPat_D32.dll
 0001:0003c126       ??1CMI_GangP@@UAE@XZ       1003d126 f   MPat_D32:MPat_D32.dll
 0001:0003c12c       ??0CMI_GangP@@QAE@XZ       1003d12c f   MPat_D32:MPat_D32.dll
 0001:0003c132       ?Serialize@CMI_GangP@@UAEXAAVCArchive@@@Z 1003d132 f   MPat_D32:MPat_D32.dll
 0001:0003c138       ?GetRuntimeClass@CPA_Duct@@UBEPAUCRuntimeClass@@XZ 1003d138 f   MPat_D32:MPat_D32.dll
 0001:0003c13e       ?UnitAxisFromEndNodes@CMI_GangP@@QAEXH@Z 1003d13e f   MPat_D32:MPat_D32.dll
 0001:0003c144       ?Duct@CPA_Duct@@QAEHUWORLD@@HPAU2@PANH11212@Z 1003d144 f   MPat_D32:MPat_D32.dll
 0001:0003c14a       ?FillMeshNodesPatch@CMI_GangP@@QAEHPAVCDrPatch@@PAUWORLD@@PAN@Z 1003d14a f   MPat_D32:MPat_D32.dll
 0001:0003c150       ?GetRuntimeClass@CPA_Rotat@@UBEPAUCRuntimeClass@@XZ 1003d150 f   MPat_D32:MPat_D32.dll
 0001:0003c156       ?RotateCurve@CPA_Rotat@@QAEHHHPANUWORLD@@1HPAU2@020@Z 1003d156 f   MPat_D32:MPat_D32.dll
 0001:0003c15c       ?GetRuntimeClass@CPA_Sweep@@UBEPAUCRuntimeClass@@XZ 1003d15c f   MPat_D32:MPat_D32.dll
 0001:0003c162       ?Sweep@CPA_Sweep@@QAEHUWORLD@@HPAU2@PANH112212@Z 1003d162 f   MPat_D32:MPat_D32.dll
 0001:0003c168       ?UnitAxis_N_LenFromWorldLength@CMI_GangP@@QAENXZ 1003d168 f   MPat_D32:MPat_D32.dll
 0001:0003c16e       ?Dump@CObject@@UBEXAAVCDumpContext@@@Z 1003d16e f   mfc42d:MFC42D.DLL
 0001:0003c174       ?AssertValid@CObject@@UBEXXZ 1003d174 f   mfc42d:MFC42D.DLL
 0001:0003c17a       ??1CObject@@UAE@XZ         1003d17a f   mfc42d:MFC42D.DLL
 0001:0003c180       ??3CObject@@SGXPAX@Z       1003d180 f   mfc42d:MFC42D.DLL
 0001:0003c186       ??3@YAXPAX@Z               1003d186 f   mfc42d:MFC42D.DLL
 0001:0003c18c       ??0CString@@QAE@ABV0@@Z    1003d18c f   mfc42d:MFC42D.DLL
 0001:0003c192       ??1CString@@QAE@XZ         1003d192 f   mfc42d:MFC42D.DLL
 0001:0003c198       ??4CString@@QAEABV0@ABV0@@Z 1003d198 f   mfc42d:MFC42D.DLL
 0001:0003c19e       ?Serialize@CObject@@UAEXAAVCArchive@@@Z 1003d19e f   mfc42d:MFC42D.DLL
 0001:0003c1a4       ??1CPen@@UAE@XZ            1003d1a4 f   mfc42d:MFC42D.DLL
 0001:0003c1aa       ??2@YAPAXI@Z               1003d1aa f   mfc42d:MFC42D.DLL
 0001:0003c1b0       ?PreInitDialog@CDialog@@MAEXXZ 1003d1b0 f   mfc42d:MFC42D.DLL
 0001:0003c1b6       ?OnSetFont@CDialog@@UAEXPAVCFont@@@Z 1003d1b6 f   mfc42d:MFC42D.DLL
 0001:0003c1bc       ?DoModal@CDialog@@UAEHXZ   1003d1bc f   mfc42d:MFC42D.DLL
 0001:0003c1c2       ?SetOccDialogInfo@CDialog@@MAEHPAU_AFX_OCC_DIALOG_INFO@@@Z 1003d1c2 f   mfc42d:MFC42D.DLL
 0001:0003c1c8       ?IsFrameWnd@CWnd@@UBEHXZ   1003d1c8 f   mfc42d:MFC42D.DLL
 0001:0003c1ce       ?CheckAutoCenter@CDialog@@UAEHXZ 1003d1ce f   mfc42d:MFC42D.DLL
 0001:0003c1d4       ?OnChildNotify@CWnd@@MAEHIIJPAJ@Z 1003d1d4 f   mfc42d:MFC42D.DLL
 0001:0003c1da       ?PostNcDestroy@CWnd@@MAEXXZ 1003d1da f   mfc42d:MFC42D.DLL
 0001:0003c1e0       ?DefWindowProcA@CWnd@@MAEJIIJ@Z 1003d1e0 f   mfc42d:MFC42D.DLL
 0001:0003c1e6       ?OnWndMsg@CWnd@@MAEHIIJPAJ@Z 1003d1e6 f   mfc42d:MFC42D.DLL
 0001:0003c1ec       ?WindowProc@CWnd@@MAEJIIJ@Z 1003d1ec f   mfc42d:MFC42D.DLL
 0001:0003c1f2       ?OnAmbientProperty@CWnd@@UAEHPAVCOleControlSite@@JPAUtagVARIANT@@@Z 1003d1f2 f   mfc42d:MFC42D.DLL
 0001:0003c1f8       ?PreTranslateMessage@CDialog@@UAEHPAUtagMSG@@@Z 1003d1f8 f   mfc42d:MFC42D.DLL
 0001:0003c1fe       ?EndModalState@CWnd@@UAEXXZ 1003d1fe f   mfc42d:MFC42D.DLL
 0001:0003c204       ?BeginModalState@CWnd@@UAEXXZ 1003d204 f   mfc42d:MFC42D.DLL
 0001:0003c20a       ?GetSuperWndProcAddr@CWnd@@MAEPAP6GJPAUHWND__@@IIJ@ZXZ 1003d20a f   mfc42d:MFC42D.DLL
 0001:0003c210       ?OnNotify@CWnd@@MAEHIJPAJ@Z 1003d210 f   mfc42d:MFC42D.DLL
 0001:0003c216       ?OnCommand@CWnd@@MAEHIJ@Z  1003d216 f   mfc42d:MFC42D.DLL
 0001:0003c21c       ?EndModalLoop@CWnd@@UAEXH@Z 1003d21c f   mfc42d:MFC42D.DLL
 0001:0003c222       ?ContinueModal@CWnd@@UAEHXZ 1003d222 f   mfc42d:MFC42D.DLL
 0001:0003c228       ?WinHelpA@CWnd@@UAEXKI@Z   1003d228 f   mfc42d:MFC42D.DLL
 0001:0003c22e       ?GetScrollBarCtrl@CWnd@@UBEPAVCScrollBar@@H@Z 1003d22e f   mfc42d:MFC42D.DLL
 0001:0003c234       ?OnToolHitTest@CWnd@@UBEHVCPoint@@PAUtagTOOLINFOA@@@Z 1003d234 f   mfc42d:MFC42D.DLL
 0001:0003c23a       ?CalcWindowRect@CWnd@@UAEXPAUtagRECT@@I@Z 1003d23a f   mfc42d:MFC42D.DLL
 0001:0003c240       ?PreCreateWindow@CWnd@@UAEHAAUtagCREATESTRUCTA@@@Z 1003d240 f   mfc42d:MFC42D.DLL
 0001:0003c246       ?DestroyWindow@CWnd@@UAEHXZ 1003d246 f   mfc42d:MFC42D.DLL
 0001:0003c24c       ?Create@CWnd@@UAEHPBD0KABUtagRECT@@PAV1@IPAUCCreateContext@@@Z 1003d24c f   mfc42d:MFC42D.DLL
 0001:0003c252       ?PreSubclassWindow@CWnd@@UAEXXZ 1003d252 f   mfc42d:MFC42D.DLL
 0001:0003c258       ?GetConnectionHook@CCmdTarget@@MAEPAUIConnectionPoint@@ABU_GUID@@@Z 1003d258 f   mfc42d:MFC42D.DLL
 0001:0003c25e       ?GetExtraConnectionPoints@CCmdTarget@@MAEHPAVCPtrArray@@@Z 1003d25e f   mfc42d:MFC42D.DLL
 0001:0003c264       ?GetInterfaceHook@CCmdTarget@@UAEPAUIUnknown@@PBX@Z 1003d264 f   mfc42d:MFC42D.DLL
 0001:0003c26a       ?OnCreateAggregates@CCmdTarget@@UAEHXZ 1003d26a f   mfc42d:MFC42D.DLL
 0001:0003c270       ?GetEventSinkMap@CCmdTarget@@MBEPBUAFX_EVENTSINKMAP@@XZ 1003d270 f   mfc42d:MFC42D.DLL
 0001:0003c276       ?GetInterfaceMap@CCmdTarget@@MBEPBUAFX_INTERFACEMAP@@XZ 1003d276 f   mfc42d:MFC42D.DLL
 0001:0003c27c       ?GetConnectionMap@CCmdTarget@@MBEPBUAFX_CONNECTIONMAP@@XZ 1003d27c f   mfc42d:MFC42D.DLL
 0001:0003c282       ?GetDispatchMap@CCmdTarget@@MBEPBUAFX_DISPMAP@@XZ 1003d282 f   mfc42d:MFC42D.DLL
 0001:0003c288       ?GetCommandMap@CCmdTarget@@MBEPBUAFX_OLECMDMAP@@XZ 1003d288 f   mfc42d:MFC42D.DLL
 0001:0003c28e       ?GetTypeLib@CCmdTarget@@UAEJKPAPAUITypeLib@@@Z 1003d28e f   mfc42d:MFC42D.DLL
 0001:0003c294       ?GetTypeLibCache@CCmdTarget@@UAEPAVCTypeLibCache@@XZ 1003d294 f   mfc42d:MFC42D.DLL
 0001:0003c29a       ?GetTypeInfoCount@CCmdTarget@@UAEIXZ 1003d29a f   mfc42d:MFC42D.DLL
 0001:0003c2a0       ?GetDispatchIID@CCmdTarget@@UAEHPAU_GUID@@@Z 1003d2a0 f   mfc42d:MFC42D.DLL
 0001:0003c2a6       ?IsInvokeAllowed@CCmdTarget@@UAEHJ@Z 1003d2a6 f   mfc42d:MFC42D.DLL
 0001:0003c2ac       ?OnFinalRelease@CWnd@@UAEXXZ 1003d2ac f   mfc42d:MFC42D.DLL
 0001:0003c2b2       ?OnCmdMsg@CDialog@@UAEHIHPAXPAUAFX_CMDHANDLERINFO@@@Z 1003d2b2 f   mfc42d:MFC42D.DLL
 0001:0003c2b8       ?Dump@CDialog@@UBEXAAVCDumpContext@@@Z 1003d2b8 f   mfc42d:MFC42D.DLL
 0001:0003c2be       ?AssertValid@CDialog@@UBEXXZ 1003d2be f   mfc42d:MFC42D.DLL
 0001:0003c2c4       ?GetRuntimeClass@CDialog@@UBEPAUCRuntimeClass@@XZ 1003d2c4 f   mfc42d:MFC42D.DLL
 0001:0003c2ca       ??1CDialog@@UAE@XZ         1003d2ca f   mfc42d:MFC42D.DLL
 0001:0003c2d0       ??4CString@@QAEABV0@PBD@Z  1003d2d0 f   mfc42d:MFC42D.DLL
 0001:0003c2d6       ?LoadBitmaps@CBitmapButton@@QAEHPBD000@Z 1003d2d6 f   mfc42d:MFC42D.DLL
 0001:0003c2dc       ??0CString@@QAE@XZ         1003d2dc f   mfc42d:MFC42D.DLL
 0001:0003c2e2       ??0CBitmapButton@@QAE@XZ   1003d2e2 f   mfc42d:MFC42D.DLL
 0001:0003c2e8       ??0CDialog@@QAE@IPAVCWnd@@@Z 1003d2e8 f   mfc42d:MFC42D.DLL
 0001:0003c2ee       ??1CButton@@UAE@XZ         1003d2ee f   mfc42d:MFC42D.DLL
 0001:0003c2f4       ??1CBitmap@@UAE@XZ         1003d2f4 f   mfc42d:MFC42D.DLL
 0001:0003c2fa       ?DDX_CBString@@YGXPAVCDataExchange@@HAAVCString@@@Z 1003d2fa f   mfc42d:MFC42D.DLL
 0001:0003c300       ?DDV_MinMaxDouble@@YGXPAVCDataExchange@@ABNNN@Z 1003d300 f   mfc42d:MFC42D.DLL
 0001:0003c306       ?DDX_Text@@YGXPAVCDataExchange@@HAAN@Z 1003d306 f   mfc42d:MFC42D.DLL
 0001:0003c30c       ?DoDataExchange@CWnd@@MAEXPAVCDataExchange@@@Z 1003d30c f   mfc42d:MFC42D.DLL
 0001:0003c312       ?UpdateData@CWnd@@QAEHH@Z  1003d312 f   mfc42d:MFC42D.DLL
 0001:0003c318       ?SetCurSel@CComboBox@@QAEHH@Z 1003d318 f   mfc42d:MFC42D.DLL
 0001:0003c31e       ?GetDlgItem@CWnd@@QBEPAV1@H@Z 1003d31e f   mfc42d:MFC42D.DLL
 0001:0003c324       ?SizeToContent@CBitmapButton@@QAEXXZ 1003d324 f   mfc42d:MFC42D.DLL
 0001:0003c32a       ?SubclassDlgItem@CWnd@@QAEHIPAV1@@Z 1003d32a f   mfc42d:MFC42D.DLL
 0001:0003c330       ?OnInitDialog@CDialog@@UAEHXZ 1003d330 f   mfc42d:MFC42D.DLL
 0001:0003c336       ?AddString@CComboBox@@QAEHPBD@Z 1003d336 f   mfc42d:MFC42D.DLL
 0001:0003c33c       ??BCString@@QBEPBDXZ       1003d33c f   mfc42d:MFC42D.DLL
 0001:0003c342       ?AfxGetApp@@YGPAVCWinApp@@XZ 1003d342 f   mfc42d:MFC42D.DLL
 0001:0003c348       ?AfxMessageBox@@YGHPBDII@Z 1003d348 f   mfc42d:MFC42D.DLL
 0001:0003c34e       ?GetLBText@CComboBox@@QBEXHAAVCString@@@Z 1003d34e f   mfc42d:MFC42D.DLL
 0001:0003c354       ?GetCurSel@CComboBox@@QBEHXZ 1003d354 f   mfc42d:MFC42D.DLL
 0001:0003c35a       ?OnCancel@CDialog@@MAEXXZ  1003d35a f   mfc42d:MFC42D.DLL
 0001:0003c360       ?OnOK@CDialog@@MAEXXZ      1003d360 f   mfc42d:MFC42D.DLL
 0001:0003c366       ?GetRuntimeClass@CObject@@UBEPAUCRuntimeClass@@XZ 1003d366 f   mfc42d:MFC42D.DLL
 0001:0003c36c       ?AfxAssertFailedLine@@YGHPBDH@Z 1003d36c f   mfc42d:MFC42D.DLL
 0001:0003c372       ?ReadCount@CArchive@@QAEKXZ 1003d372 f   mfc42d:MFC42D.DLL
 0001:0003c378       ?AfxIsValidAddress@@YGHPBXIH@Z 1003d378 f   mfc42d:MFC42D.DLL
 0001:0003c37e       ?WriteCount@CArchive@@QAEXK@Z 1003d37e f   mfc42d:MFC42D.DLL
 0001:0003c384       ?IsStoring@CArchive@@QBEHXZ 1003d384 f   mfc42d:MFC42D.DLL
 0001:0003c38a       ?AfxAssertValidObject@@YGXPBVCObject@@PBDH@Z 1003d38a f   mfc42d:MFC42D.DLL
 0001:0003c390       ?GetDepth@CDumpContext@@QBEHXZ 1003d390 f   mfc42d:MFC42D.DLL
 0001:0003c396       ??6CDumpContext@@QAEAAV0@H@Z 1003d396 f   mfc42d:MFC42D.DLL
 0001:0003c39c       ??6CDumpContext@@QAEAAV0@PBD@Z 1003d39c f   mfc42d:MFC42D.DLL
 0001:0003c3a2       ?FreeDataChain@CPlex@@QAEXXZ 1003d3a2 f   mfc42d:MFC42D.DLL
 0001:0003c3a8       ?Read@CArchive@@QAEIPAXI@Z 1003d3a8 f   mfc42d:MFC42D.DLL
 0001:0003c3ae       ?Write@CArchive@@QAEXPBXI@Z 1003d3ae f   mfc42d:MFC42D.DLL
 0001:0003c3b4       ?Create@CPlex@@SGPAU1@AAPAU1@II@Z 1003d3b4 f   mfc42d:MFC42D.DLL
 0001:0003c3ba       ?DDX_Check@@YGXPAVCDataExchange@@HAAH@Z 1003d3ba f   mfc42d:MFC42D.DLL
 0001:0003c3c0       ?DDX_Text@@YGXPAVCDataExchange@@HAAVCString@@@Z 1003d3c0 f   mfc42d:MFC42D.DLL
 0001:0003c3c6       ?SetFocus@CWnd@@QAEPAV1@XZ 1003d3c6 f   mfc42d:MFC42D.DLL
 0001:0003c3cc       ?EnableWindow@CWnd@@QAEHH@Z 1003d3cc f   mfc42d:MFC42D.DLL
 0001:0003c3d2       ?LimitText@CComboBox@@QAEHH@Z 1003d3d2 f   mfc42d:MFC42D.DLL
 0001:0003c3d8       ??8@YG_NABVCString@@PBD@Z  1003d3d8 f   mfc42d:MFC42D.DLL
 0001:0003c3de       ?AddString@CListBox@@QAEHPBD@Z 1003d3de f   mfc42d:MFC42D.DLL
 0001:0003c3e4       ??3CObject@@SGXPAXPBDH@Z   1003d3e4 f   mfc42d:MFC42D.DLL
 0001:0003c3ea       ??2CObject@@SGPAXIPBDH@Z   1003d3ea f   mfc42d:MFC42D.DLL
 0001:0003c3f0       ?OnWizardFinish@CPropertyPage@@UAEHXZ 1003d3f0 f   mfc42d:MFC42D.DLL
 0001:0003c3f6       ?OnWizardNext@CPropertyPage@@UAEJXZ 1003d3f6 f   mfc42d:MFC42D.DLL
 0001:0003c3fc       ?OnWizardBack@CPropertyPage@@UAEJXZ 1003d3fc f   mfc42d:MFC42D.DLL
 0001:0003c402       ?OnQueryCancel@CPropertyPage@@UAEHXZ 1003d402 f   mfc42d:MFC42D.DLL
 0001:0003c408       ?OnKillActive@CPropertyPage@@UAEHXZ 1003d408 f   mfc42d:MFC42D.DLL
 0001:0003c40e       ?OnSetActive@CPropertyPage@@UAEHXZ 1003d40e f   mfc42d:MFC42D.DLL
 0001:0003c414       ?OnReset@CPropertyPage@@UAEXXZ 1003d414 f   mfc42d:MFC42D.DLL
 0001:0003c41a       ?OnApply@CPropertyPage@@UAEHXZ 1003d41a f   mfc42d:MFC42D.DLL
 0001:0003c420       ?OnOK@CPropertyPage@@UAEXXZ 1003d420 f   mfc42d:MFC42D.DLL
 0001:0003c426       ?PreTranslateMessage@CPropertyPage@@MAEHPAUtagMSG@@@Z 1003d426 f   mfc42d:MFC42D.DLL
 0001:0003c42c       ?OnNotify@CPropertyPage@@MAEHIJPAJ@Z 1003d42c f   mfc42d:MFC42D.DLL
 0001:0003c432       ?Dump@CPropertyPage@@UBEXAAVCDumpContext@@@Z 1003d432 f   mfc42d:MFC42D.DLL
 0001:0003c438       ?AssertValid@CPropertyPage@@UBEXXZ 1003d438 f   mfc42d:MFC42D.DLL
 0001:0003c43e       ?SetWindowTextA@CWnd@@QAEXPBD@Z 1003d43e f   mfc42d:MFC42D.DLL
 0001:0003c444       ?SendMessageA@CWnd@@QAEJIIJ@Z 1003d444 f   mfc42d:MFC42D.DLL
 0001:0003c44a       ?SetCheck@CButton@@QAEXH@Z 1003d44a f   mfc42d:MFC42D.DLL
 0001:0003c450       ??0CString@@QAE@PBD@Z      1003d450 f   mfc42d:MFC42D.DLL
 0001:0003c456       ??8@YG_NABVCString@@0@Z    1003d456 f   mfc42d:MFC42D.DLL
 0001:0003c45c       ?GetAt@CObList@@QAEAAPAVCObject@@PAU__POSITION@@@Z 1003d45c f   mfc42d:MFC42D.DLL
 0001:0003c462       ?FindIndex@CObList@@QBEPAU__POSITION@@H@Z 1003d462 f   mfc42d:MFC42D.DLL
 0001:0003c468       ?ResetContent@CComboBox@@QAEXXZ 1003d468 f   mfc42d:MFC42D.DLL
 0001:0003c46e       ??9@YG_NABVCString@@PBD@Z  1003d46e f   mfc42d:MFC42D.DLL
 0001:0003c474       ?DeleteString@CComboBox@@QAEHI@Z 1003d474 f   mfc42d:MFC42D.DLL
 0001:0003c47a       ?FindStringExact@CComboBox@@QBEHHPBD@Z 1003d47a f   mfc42d:MFC42D.DLL
 0001:0003c480       ??H@YG?AVCString@@ABV0@PBD@Z 1003d480 f   mfc42d:MFC42D.DLL
 0001:0003c486       ?Left@CString@@QBE?AV1@H@Z 1003d486 f   mfc42d:MFC42D.DLL
 0001:0003c48c       ??0CObject@@IAE@XZ         1003d48c f   mfc42d:MFC42D.DLL
 0001:0003c492       ?SerializeElements@@YGXAAVCArchive@@PAVCString@@H@Z 1003d492 f   mfc42d:MFC42D.DLL
 0001:0003c498       ?DestructElements@@YGXPAVCString@@H@Z 1003d498 f   mfc42d:MFC42D.DLL
 0001:0003c49e       ?ConstructElements@@YGXPAVCString@@H@Z 1003d49e f   mfc42d:MFC42D.DLL
 0001:0003c4a4       ?DDV_MinMaxInt@@YGXPAVCDataExchange@@HHH@Z 1003d4a4 f   mfc42d:MFC42D.DLL
 0001:0003c4aa       ?DDX_Text@@YGXPAVCDataExchange@@HAAH@Z 1003d4aa f   mfc42d:MFC42D.DLL
 0001:0003c4b0       ?ReleaseBuffer@CString@@QAEXH@Z 1003d4b0 f   mfc42d:MFC42D.DLL
 0001:0003c4b6       ?GetBuffer@CString@@QAEPADH@Z 1003d4b6 f   mfc42d:MFC42D.DLL
 0001:0003c4bc       ??2@YAPAXIPBDH@Z           1003d4bc f   mfc42d:MFC42D.DLL
 0001:0003c4c2       ??0CDialog@@QAE@XZ         1003d4c2 f   mfc42d:MFC42D.DLL
 0001:0003c4c8       ?Create@CDialog@@QAEHIPAVCWnd@@@Z 1003d4c8 f   mfc42d:MFC42D.DLL
 0001:0003c4ce       ?AfxSetResourceHandle@@YGXPAUHINSTANCE__@@@Z 1003d4ce f   mfc42d:MFC42D.DLL
 0001:0003c4d4       ?AfxGetResourceHandle@@YGPAUHINSTANCE__@@XZ 1003d4d4 f   mfc42d:MFC42D.DLL
 0001:0003c4da       ?AfxTrace@@YAXPBDZZ        1003d4da f   mfc42d:MFC42D.DLL
 0001:0003c4e0       ?LoadStringA@CString@@QAEHI@Z 1003d4e0 f   mfc42d:MFC42D.DLL
 0001:0003c4e6       ?RemoveAll@CObList@@QAEXXZ 1003d4e6 f   mfc42d:MFC42D.DLL
 0001:0003c4ec       ??2CObject@@SGPAXI@Z       1003d4ec f   mfc42d:MFC42D.DLL
 0001:0003c4f2       ?AfxClassInit@@YGXPAUCRuntimeClass@@@Z 1003d4f2 f   mfc42d:MFC42D.DLL
 0001:0003c4f8       ?ReadObject@CArchive@@QAEPAVCObject@@PBUCRuntimeClass@@@Z 1003d4f8 f   mfc42d:MFC42D.DLL
 0001:0003c4fe       ?AddTail@CObList@@QAEPAU__POSITION@@PAVCObject@@@Z 1003d4fe f   mfc42d:MFC42D.DLL
 0001:0003c504       ??YCString@@QAEABV0@PBD@Z  1003d504 f   mfc42d:MFC42D.DLL
 0001:0003c50a       ?GetLength@CString@@QBEHXZ 1003d50a f   mfc42d:MFC42D.DLL
 0001:0003c510       ?GetCount@CObList@@QBEHXZ  1003d510 f   mfc42d:MFC42D.DLL
 0001:0003c516       ?GetHead@CObList@@QAEAAPAVCObject@@XZ 1003d516 f   mfc42d:MFC42D.DLL
 0001:0003c51c       ?IsEmpty@CObList@@QBEHXZ   1003d51c f   mfc42d:MFC42D.DLL
 0001:0003c522       ?GetNext@CObList@@QAEAAPAVCObject@@AAPAU__POSITION@@@Z 1003d522 f   mfc42d:MFC42D.DLL
 0001:0003c528       ?GetHeadPosition@CObList@@QBEPAU__POSITION@@XZ 1003d528 f   mfc42d:MFC42D.DLL
 0001:0003c52e       ??3@YAXPAXPBDH@Z           1003d52e f   mfc42d:MFC42D.DLL
 0001:0003c534       ?AddTail@CObList@@QAEXPAV1@@Z 1003d534 f   mfc42d:MFC42D.DLL
 0001:0003c53a       ?AfxGetMainWnd@@YGPAVCWnd@@XZ 1003d53a f   mfc42d:MFC42D.DLL
 0001:0003c540       ?AfxGetModuleState@@YGPAVAFX_MODULE_STATE@@XZ 1003d540 f   mfc42d:MFC42D.DLL
 0001:0003c546       ??0CDynLinkLibrary@@QAE@AAUAFX_EXTENSION_MODULE@@H@Z 1003d546 f   mfc42d:MFC42D.DLL
 0001:0003c54c       ?AfxInitExtensionModule@@YGHAAUAFX_EXTENSION_MODULE@@PAUHINSTANCE__@@@Z 1003d54c f   mfc42d:MFC42D.DLL
 0001:0003c552       ?OnCancel@CPropertyPage@@UAEXXZ 1003d552 f   mfc42d:MFC42D.DLL
 0001:0003c558       ??1CPropertyPage@@UAE@XZ   1003d558 f   mfc42d:MFC42D.DLL
 0001:0003c55e       ??0CPropertyPage@@QAE@II@Z 1003d55e f   mfc42d:MFC42D.DLL
 0001:0003c564       ??0CPropertyPage@@QAE@PBDI@Z 1003d564 f   mfc42d:MFC42D.DLL
 0001:0003c56a       ??0CPropertyPage@@QAE@XZ   1003d56a f   mfc42d:MFC42D.DLL
 0001:0003c570       ?OnInitDialog@CPropertySheet@@UAEHXZ 1003d570 f   mfc42d:MFC42D.DLL
 0001:0003c576       ?BuildPropPageArray@CPropertySheet@@UAEXXZ 1003d576 f   mfc42d:MFC42D.DLL
 0001:0003c57c       ?DoModal@CPropertySheet@@UAEHXZ 1003d57c f   mfc42d:MFC42D.DLL
 0001:0003c582       ?SetOccDialogInfo@CWnd@@MAEHPAU_AFX_OCC_DIALOG_INFO@@@Z 1003d582 f   mfc42d:MFC42D.DLL
 0001:0003c588       ?CheckAutoCenter@CWnd@@UAEHXZ 1003d588 f   mfc42d:MFC42D.DLL
 0001:0003c58e       ?PreTranslateMessage@CPropertySheet@@UAEHPAUtagMSG@@@Z 1003d58e f   mfc42d:MFC42D.DLL
 0001:0003c594       ?OnCommand@CPropertySheet@@UAEHIJ@Z 1003d594 f   mfc42d:MFC42D.DLL
 0001:0003c59a       ?ContinueModal@CPropertySheet@@UAEHXZ 1003d59a f   mfc42d:MFC42D.DLL
 0001:0003c5a0       ?OnCmdMsg@CPropertySheet@@UAEHIHPAXPAUAFX_CMDHANDLERINFO@@@Z 1003d5a0 f   mfc42d:MFC42D.DLL
 0001:0003c5a6       ?Dump@CPropertySheet@@UBEXAAVCDumpContext@@@Z 1003d5a6 f   mfc42d:MFC42D.DLL
 0001:0003c5ac       ?AssertValid@CPropertySheet@@UBEXXZ 1003d5ac f   mfc42d:MFC42D.DLL
 0001:0003c5b2       ??1CPropertySheet@@UAE@XZ  1003d5b2 f   mfc42d:MFC42D.DLL
 0001:0003c5b8       ??0CPropertySheet@@QAE@IPAVCWnd@@I@Z 1003d5b8 f   mfc42d:MFC42D.DLL
 0001:0003c5be       ??0CPropertySheet@@QAE@PBDPAVCWnd@@I@Z 1003d5be f   mfc42d:MFC42D.DLL
 0001:0003c5c4       ??0CPropertySheet@@QAE@XZ  1003d5c4 f   mfc42d:MFC42D.DLL
 0001:0003c5ca       ?Create@CPropertySheet@@QAEHPAVCWnd@@KK@Z 1003d5ca f   mfc42d:MFC42D.DLL
 0001:0003c5d0       ?GetPage@CPropertySheet@@QBEPAVCPropertyPage@@H@Z 1003d5d0 f   mfc42d:MFC42D.DLL
 0001:0003c5d6       ?GetPageCount@CPropertySheet@@QBEHXZ 1003d5d6 f   mfc42d:MFC42D.DLL
 0001:0003c5dc       ?GetSafeHwnd@CWnd@@QBEPAUHWND__@@XZ 1003d5dc f   mfc42d:MFC42D.DLL
 0001:0003c5e2       ?OnCreate@CWnd@@IAEHPAUtagCREATESTRUCTA@@@Z 1003d5e2 f   mfc42d:MFC42D.DLL
 0001:0003c5e8       ??1CWnd@@UAE@XZ            1003d5e8 f   mfc42d:MFC42D.DLL
 0001:0003c5ee       ?SetActiveWindow@CWnd@@QAEPAV1@XZ 1003d5ee f   mfc42d:MFC42D.DLL
 0001:0003c5f4       ?SetWindowPos@CWnd@@QAEHPBV1@HHHHI@Z 1003d5f4 f   mfc42d:MFC42D.DLL
 0001:0003c5fa       ?Width@CRect@@QBEHXZ       1003d5fa f   mfc42d:MFC42D.DLL
 0001:0003c600       ?Height@CRect@@QBEHXZ      1003d600 f   mfc42d:MFC42D.DLL
 0001:0003c606       ?GetWindowRect@CWnd@@QBEXPAUtagRECT@@@Z 1003d606 f   mfc42d:MFC42D.DLL
 0001:0003c60c       ??0CWnd@@QAE@XZ            1003d60c f   mfc42d:MFC42D.DLL
 0001:0003c612       ??0CRect@@QAE@XZ           1003d612 f   mfc42d:MFC42D.DLL
 0001:0003c618       ?SetTitle@CPropertySheet@@QAEXPBDI@Z 1003d618 f   mfc42d:MFC42D.DLL
 0001:0003c61e       ?SetActivePage@CPropertySheet@@QAEHPAVCPropertyPage@@@Z 1003d61e f   mfc42d:MFC42D.DLL
 0001:0003c624       ?ShowWindow@CWnd@@QAEHH@Z  1003d624 f   mfc42d:MFC42D.DLL
 0001:0003c62a       ?AddPage@CPropertySheet@@QAEXPAVCPropertyPage@@@Z 1003d62a f   mfc42d:MFC42D.DLL
 0001:0003c630       ?RemovePage@CPropertySheet@@QAEXH@Z 1003d630 f   mfc42d:MFC42D.DLL
 0001:0003c636       ?ClientToScreen@CWnd@@QBEXPAUtagRECT@@@Z 1003d636 f   mfc42d:MFC42D.DLL
 0001:0003c63c       ?GetClientRect@CWnd@@QBEXPAUtagRECT@@@Z 1003d63c f   mfc42d:MFC42D.DLL
 0001:0003c650       _sqrt                      1003d650 f   msvcrtd:MSVCRTD.dll
 0001:0003c660       ??_M@YGXPAXIHP6EX0@Z@Z     1003d660 f   msvcrtd:ehvecdtr.obj
 0001:0003c710       ?__ArrayUnwind@@YGXPAXIHP6EX0@Z@Z 1003d710 f   msvcrtd:ehvecdtr.obj
 0001:0003c7bc       ___CxxFrameHandler         1003d7bc f   msvcrtd:MSVCRTD.dll
 0001:0003c7c2       _memset                    1003d7c2 f   msvcrtd:MSVCRTD.dll
 0001:0003c7d0       __onexit                   1003d7d0 f   msvcrtd:atonexit.obj
 0001:0003c810       _atexit                    1003d810 f   msvcrtd:atonexit.obj
 0001:0003c828       __ftol                     1003d828 f   msvcrtd:MSVCRTD.dll
 0001:0003c82e       _sprintf                   1003d82e f   msvcrtd:MSVCRTD.dll
 0001:0003c840       __CRT_INIT@12              1003d840 f   msvcrtd:crtdll.obj
 0001:0003c950       __DllMainCRTStartup@12     1003d950 f   msvcrtd:crtdll.obj
 0001:0003ca44       __except_handler3          1003da44 f   msvcrtd:MSVCRTD.dll
 0001:0003ca4a       ?terminate@@YAXXZ          1003da4a f   msvcrtd:MSVCRTD.dll
 0001:0003ca50       ___dllonexit               1003da50 f   msvcrtd:MSVCRTD.dll
 0001:0003ca56       __free_dbg                 1003da56 f   msvcrtd:MSVCRTD.dll
 0001:0003ca5c       __initterm                 1003da5c f   msvcrtd:MSVCRTD.dll
 0001:0003ca62       __malloc_dbg               1003da62 f   msvcrtd:MSVCRTD.dll
 0001:0003ca68       _wsprintfA                 1003da68 f   user32:USER32.dll
 0001:0003ca6e       _GetSystemMetrics@4        1003da6e f   user32:USER32.dll
 0001:0003ca80       ?data@CPlex@@QAEPAXXZ      1003da80 f i Dlg_lmat.obj
 0002:00000000       __imp_?Serialize@C3DMath@@UAEXAAVCArchive@@@Z 10041000     Dr3D_D32:Dr3D_D32.dll
 0002:00000004       __imp_?BlockCopy@C3DMath@@QAEXPAD0K@Z 10041004     Dr3D_D32:Dr3D_D32.dll
 0002:00000008       __imp_??0C3DMath@@QAE@XZ   10041008     Dr3D_D32:Dr3D_D32.dll
 0002:0000000c       __imp_?Serialize@CMsMath@@UAEXAAVCArchive@@@Z 1004100c     Dr3D_D32:Dr3D_D32.dll
 0002:00000010       __imp_?GetRuntimeClass@CMsMath@@UBEPAUCRuntimeClass@@XZ 10041010     Dr3D_D32:Dr3D_D32.dll
 0002:00000014       __imp_?Scale3DPts@C3DMath@@QAEXNPAUWORLD@@@Z 10041014     Dr3D_D32:Dr3D_D32.dll
 0002:00000018       __imp_?GetRuntimeClass@C3DMath@@UBEPAUCRuntimeClass@@XZ 10041018     Dr3D_D32:Dr3D_D32.dll
 0002:0000001c       \177Dr3D_D32_NULL_THUNK_DATA 1004101c     Dr3D_D32:Dr3D_D32.dll
 0002:00000020       __imp_?IsObjectHit@CDrLabel@@UAEHPAVCClientDC@@HUtagPOINT@@PAVCRect@@H@Z 10041020     Draw_D32:Draw_D32.dll
 0002:00000024       __imp_?IsKeyMatch@CDrLabel@@UAEHPAVCDrObject@@VCString@@I@Z 10041024     Draw_D32:Draw_D32.dll
 0002:00000028       __imp_?Pack_drPipe@CDrLabel@@UAEXPAVCString@@@Z 10041028     Draw_D32:Draw_D32.dll
 0002:0000002c       __imp_?SetObjectInfo@CDrLabel@@UAEXPAVCDrObject@@@Z 1004102c     Draw_D32:Draw_D32.dll
 0002:00000030       __imp_?GetObjectInfo@CDrLabel@@UAEXPAVCDrObject@@@Z 10041030     Draw_D32:Draw_D32.dll
 0002:00000034       __imp_?GetCorner@CDrLabel@@UAE?AUtagPOINT@@H@Z 10041034     Draw_D32:Draw_D32.dll
 0002:00000038       __imp_?FinishObject@CDrLabel@@UAEXPAVCClientDC@@H@Z 10041038     Draw_D32:Draw_D32.dll
 0002:0000003c       __imp_?GetRawCoords@CDrLabel@@UAEXPAJPAHH@Z 1004103c     Draw_D32:Draw_D32.dll
 0002:00000040       __imp_?SetCorner@CDrLabel@@UAEXUtagPOINT@@H@Z 10041040     Draw_D32:Draw_D32.dll
 0002:00000044       __imp_?DealObjectDialog@CDrLabel@@UAEHXZ 10041044     Draw_D32:Draw_D32.dll
 0002:00000048       __imp_?DoDrawView@CDrLabel@@UAEXPAVCDC@@HH@Z 10041048     Draw_D32:Draw_D32.dll
 0002:0000004c       __imp_?Corner_3Dto2D@CDrLabel@@UAEXXZ 1004104c     Draw_D32:Draw_D32.dll
 0002:00000050       __imp_?InitDraw@CDrLabel@@UAEXPAVCDC@@HHPAUMATRIX@@1NNN@Z 10041050     Draw_D32:Draw_D32.dll
 0002:00000054       __imp_?DoDataView@CDrLabel@@UAEXPAVCDC@@H@Z 10041054     Draw_D32:Draw_D32.dll
 0002:00000058       __imp_?Serialize@CDrLabel@@UAEXAAVCArchive@@@Z 10041058     Draw_D32:Draw_D32.dll
 0002:0000005c       __imp_?GetRuntimeClass@CDrLabel@@UBEPAUCRuntimeClass@@XZ 1004105c     Draw_D32:Draw_D32.dll
 0002:00000060       \177Draw_D32_NULL_THUNK_DATA 10041060     Draw_D32:Draw_D32.dll
 0002:00000064       __imp_?Init@CElemInfo@@UAEXXZ 10041064     Elem_D32:Elem_D32.dll
 0002:00000068       __imp_?ReadDefault@CElemInfo@@UAEXXZ 10041068     Elem_D32:Elem_D32.dll
 0002:0000006c       __imp_?SetObjectInfo@CElemInfo@@UAEXPAVCDrObject@@@Z 1004106c     Elem_D32:Elem_D32.dll
 0002:00000070       __imp_?GetObjectInfo@CElemInfo@@UAEXPAVCDrObject@@@Z 10041070     Elem_D32:Elem_D32.dll
 0002:00000074       __imp_?Pack_drPipe@CElemInfo@@UAEXPAVCString@@@Z 10041074     Elem_D32:Elem_D32.dll
 0002:00000078       __imp_?DoDataView@CElemInfo@@UAEXPAVCDC@@H@Z 10041078     Elem_D32:Elem_D32.dll
 0002:0000007c       __imp_?Serialize@CElemInfo@@UAEXAAVCArchive@@@Z 1004107c     Elem_D32:Elem_D32.dll
 0002:00000080       __imp_?GetRuntimeClass@CElemInfo@@UBEPAUCRuntimeClass@@XZ 10041080     Elem_D32:Elem_D32.dll
 0002:00000084       \177Elem_D32_NULL_THUNK_DATA 10041084     Elem_D32:Elem_D32.dll
 0002:00000088       __imp_??1CMI_GangC@@UAE@XZ 10041088     MCur_D32:MCur_D32.dll
 0002:0000008c       __imp_??1CMC_Circle@@UAE@XZ 1004108c     MCur_D32:MCur_D32.dll
 0002:00000090       __imp_??1CMC_Parab@@UAE@XZ 10041090     MCur_D32:MCur_D32.dll
 0002:00000094       __imp_?CreateCurve@CMI_GangC@@QAEPAVCDrCurve@@AAVCString@@PAV2@PAVCDListMgr@@W4CURVEPROC@@PAV?$CList@HH@@HH@Z 10041094     MCur_D32:MCur_D32.dll
 0002:00000098       __imp_?CreateParabola@CMC_Parab@@QAEPAVCDrCurve@@AAVCString@@PAV2@PAVCDListMgr@@W4CURVEPROC@@PAV?$CList@HH@@HH@Z 10041098     MCur_D32:MCur_D32.dll
 0002:0000009c       __imp_?CreateCircle@CMC_Circle@@QAEPAVCDrCurve@@AAVCString@@PAV2@PAVCDListMgr@@W4CURVEPROC@@PAV?$CList@HH@@W4CIRCLETYPE@@NNNHPAVCDrNode@@6H@Z 1004109c     MCur_D32:MCur_D32.dll
 0002:000000a0       __imp_??0CMC_Parab@@QAE@XZ 100410a0     MCur_D32:MCur_D32.dll
 0002:000000a4       __imp_??0CMC_Circle@@QAE@XZ 100410a4     MCur_D32:MCur_D32.dll
 0002:000000a8       __imp_??0CMI_GangC@@QAE@XZ 100410a8     MCur_D32:MCur_D32.dll
 0002:000000ac       \177MCur_D32_NULL_THUNK_DATA 100410ac     MCur_D32:MCur_D32.dll
 0002:000000b0       __imp_?Dump@CPropertySheet@@UBEXAAVCDumpContext@@@Z 100410b0     mfc42d:MFC42D.DLL
 0002:000000b4       __imp_?OnCmdMsg@CPropertySheet@@UAEHIHPAXPAUAFX_CMDHANDLERINFO@@@Z 100410b4     mfc42d:MFC42D.DLL
 0002:000000b8       __imp_?ContinueModal@CPropertySheet@@UAEHXZ 100410b8     mfc42d:MFC42D.DLL
 0002:000000bc       __imp_?OnCommand@CPropertySheet@@UAEHIJ@Z 100410bc     mfc42d:MFC42D.DLL
 0002:000000c0       __imp_?PreTranslateMessage@CPropertySheet@@UAEHPAUtagMSG@@@Z 100410c0     mfc42d:MFC42D.DLL
 0002:000000c4       __imp_?CheckAutoCenter@CWnd@@UAEHXZ 100410c4     mfc42d:MFC42D.DLL
 0002:000000c8       __imp_?SetOccDialogInfo@CWnd@@MAEHPAU_AFX_OCC_DIALOG_INFO@@@Z 100410c8     mfc42d:MFC42D.DLL
 0002:000000cc       __imp_?DoModal@CPropertySheet@@UAEHXZ 100410cc     mfc42d:MFC42D.DLL
 0002:000000d0       __imp_?BuildPropPageArray@CPropertySheet@@UAEXXZ 100410d0     mfc42d:MFC42D.DLL
 0002:000000d4       __imp_?OnInitDialog@CPropertySheet@@UAEHXZ 100410d4     mfc42d:MFC42D.DLL
 0002:000000d8       __imp_?classCPropertySheet@CPropertySheet@@2UCRuntimeClass@@B 100410d8     mfc42d:MFC42D.DLL
 0002:000000dc       __imp_?messageMap@CPropertyPage@@1UAFX_MSGMAP@@B 100410dc     mfc42d:MFC42D.DLL
 0002:000000e0       __imp_??0CPropertyPage@@QAE@XZ 100410e0     mfc42d:MFC42D.DLL
 0002:000000e4       __imp_??0CPropertyPage@@QAE@PBDI@Z 100410e4     mfc42d:MFC42D.DLL
 0002:000000e8       __imp_??0CPropertyPage@@QAE@II@Z 100410e8     mfc42d:MFC42D.DLL
 0002:000000ec       __imp_??1CPropertyPage@@UAE@XZ 100410ec     mfc42d:MFC42D.DLL
 0002:000000f0       __imp_?OnCancel@CPropertyPage@@UAEXXZ 100410f0     mfc42d:MFC42D.DLL
 0002:000000f4       __imp_?classCPropertyPage@CPropertyPage@@2UCRuntimeClass@@B 100410f4     mfc42d:MFC42D.DLL
 0002:000000f8       __imp_?AfxInitExtensionModule@@YGHAAUAFX_EXTENSION_MODULE@@PAUHINSTANCE__@@@Z 100410f8     mfc42d:MFC42D.DLL
 0002:000000fc       __imp_??0CDynLinkLibrary@@QAE@AAUAFX_EXTENSION_MODULE@@H@Z 100410fc     mfc42d:MFC42D.DLL
 0002:00000100       __imp_?AfxGetModuleState@@YGPAVAFX_MODULE_STATE@@XZ 10041100     mfc42d:MFC42D.DLL
 0002:00000104       __imp_?AfxGetMainWnd@@YGPAVCWnd@@XZ 10041104     mfc42d:MFC42D.DLL
 0002:00000108       __imp_?AddTail@CObList@@QAEXPAV1@@Z 10041108     mfc42d:MFC42D.DLL
 0002:0000010c       __imp_??3@YAXPAXPBDH@Z     1004110c     mfc42d:MFC42D.DLL
 0002:00000110       __imp_?GetHeadPosition@CObList@@QBEPAU__POSITION@@XZ 10041110     mfc42d:MFC42D.DLL
 0002:00000114       __imp_?GetNext@CObList@@QAEAAPAVCObject@@AAPAU__POSITION@@@Z 10041114     mfc42d:MFC42D.DLL
 0002:00000118       __imp_?IsEmpty@CObList@@QBEHXZ 10041118     mfc42d:MFC42D.DLL
 0002:0000011c       __imp_?GetHead@CObList@@QAEAAPAVCObject@@XZ 1004111c     mfc42d:MFC42D.DLL
 0002:00000120       __imp_?GetCount@CObList@@QBEHXZ 10041120     mfc42d:MFC42D.DLL
 0002:00000124       __imp_?GetLength@CString@@QBEHXZ 10041124     mfc42d:MFC42D.DLL
 0002:00000128       __imp_??YCString@@QAEABV0@PBD@Z 10041128     mfc42d:MFC42D.DLL
 0002:0000012c       __imp_?AddTail@CObList@@QAEPAU__POSITION@@PAVCObject@@@Z 1004112c     mfc42d:MFC42D.DLL
 0002:00000130       __imp_?ReadObject@CArchive@@QAEPAVCObject@@PBUCRuntimeClass@@@Z 10041130     mfc42d:MFC42D.DLL
 0002:00000134       __imp_?AfxClassInit@@YGXPAUCRuntimeClass@@@Z 10041134     mfc42d:MFC42D.DLL
 0002:00000138       __imp_??2CObject@@SGPAXI@Z 10041138     mfc42d:MFC42D.DLL
 0002:0000013c       __imp_?classCObject@CObject@@2UCRuntimeClass@@B 1004113c     mfc42d:MFC42D.DLL
 0002:00000140       __imp_?RemoveAll@CObList@@QAEXXZ 10041140     mfc42d:MFC42D.DLL
 0002:00000144       __imp_?LoadStringA@CString@@QAEHI@Z 10041144     mfc42d:MFC42D.DLL
 0002:00000148       __imp_?AfxTrace@@YAXPBDZZ  10041148     mfc42d:MFC42D.DLL
 0002:0000014c       __imp_?AfxGetResourceHandle@@YGPAUHINSTANCE__@@XZ 1004114c     mfc42d:MFC42D.DLL
 0002:00000150       __imp_?AfxSetResourceHandle@@YGXPAUHINSTANCE__@@@Z 10041150     mfc42d:MFC42D.DLL
 0002:00000154       __imp_?Create@CDialog@@QAEHIPAVCWnd@@@Z 10041154     mfc42d:MFC42D.DLL
 0002:00000158       __imp_??0CDialog@@QAE@XZ   10041158     mfc42d:MFC42D.DLL
 0002:0000015c       __imp_??2@YAPAXIPBDH@Z     1004115c     mfc42d:MFC42D.DLL
 0002:00000160       __imp_?GetBuffer@CString@@QAEPADH@Z 10041160     mfc42d:MFC42D.DLL
 0002:00000164       __imp_?ReleaseBuffer@CString@@QAEXH@Z 10041164     mfc42d:MFC42D.DLL
 0002:00000168       __imp_?DDX_Text@@YGXPAVCDataExchange@@HAAH@Z 10041168     mfc42d:MFC42D.DLL
 0002:0000016c       __imp_?DDV_MinMaxInt@@YGXPAVCDataExchange@@HHH@Z 1004116c     mfc42d:MFC42D.DLL
 0002:00000170       __imp_?ConstructElements@@YGXPAVCString@@H@Z 10041170     mfc42d:MFC42D.DLL
 0002:00000174       __imp_?DestructElements@@YGXPAVCString@@H@Z 10041174     mfc42d:MFC42D.DLL
 0002:00000178       __imp_?SerializeElements@@YGXAAVCArchive@@PAVCString@@H@Z 10041178     mfc42d:MFC42D.DLL
 0002:0000017c       __imp_??0CObject@@IAE@XZ   1004117c     mfc42d:MFC42D.DLL
 0002:00000180       __imp_?Left@CString@@QBE?AV1@H@Z 10041180     mfc42d:MFC42D.DLL
 0002:00000184       __imp_??H@YG?AVCString@@ABV0@PBD@Z 10041184     mfc42d:MFC42D.DLL
 0002:00000188       __imp_?FindStringExact@CComboBox@@QBEHHPBD@Z 10041188     mfc42d:MFC42D.DLL
 0002:0000018c       __imp_?DeleteString@CComboBox@@QAEHI@Z 1004118c     mfc42d:MFC42D.DLL
 0002:00000190       __imp_??9@YG_NABVCString@@PBD@Z 10041190     mfc42d:MFC42D.DLL
 0002:00000194       __imp_?ResetContent@CComboBox@@QAEXXZ 10041194     mfc42d:MFC42D.DLL
 0002:00000198       __imp_?FindIndex@CObList@@QBEPAU__POSITION@@H@Z 10041198     mfc42d:MFC42D.DLL
 0002:0000019c       __imp_?AssertValid@CPropertySheet@@UBEXXZ 1004119c     mfc42d:MFC42D.DLL
 0002:000001a0       __imp_??8@YG_NABVCString@@0@Z 100411a0     mfc42d:MFC42D.DLL
 0002:000001a4       __imp_??0CString@@QAE@PBD@Z 100411a4     mfc42d:MFC42D.DLL
 0002:000001a8       __imp_?SetCheck@CButton@@QAEXH@Z 100411a8     mfc42d:MFC42D.DLL
 0002:000001ac       __imp_?SendMessageA@CWnd@@QAEJIIJ@Z 100411ac     mfc42d:MFC42D.DLL
 0002:000001b0       __imp_?SetWindowTextA@CWnd@@QAEXPBD@Z 100411b0     mfc42d:MFC42D.DLL
 0002:000001b4       __imp_?AssertValid@CPropertyPage@@UBEXXZ 100411b4     mfc42d:MFC42D.DLL
 0002:000001b8       __imp_?Dump@CPropertyPage@@UBEXAAVCDumpContext@@@Z 100411b8     mfc42d:MFC42D.DLL
 0002:000001bc       __imp_?OnNotify@CPropertyPage@@MAEHIJPAJ@Z 100411bc     mfc42d:MFC42D.DLL
 0002:000001c0       __imp_?PreTranslateMessage@CPropertyPage@@MAEHPAUtagMSG@@@Z 100411c0     mfc42d:MFC42D.DLL
 0002:000001c4       __imp_?OnOK@CPropertyPage@@UAEXXZ 100411c4     mfc42d:MFC42D.DLL
 0002:000001c8       __imp_?OnApply@CPropertyPage@@UAEHXZ 100411c8     mfc42d:MFC42D.DLL
 0002:000001cc       __imp_?OnReset@CPropertyPage@@UAEXXZ 100411cc     mfc42d:MFC42D.DLL
 0002:000001d0       __imp_?OnSetActive@CPropertyPage@@UAEHXZ 100411d0     mfc42d:MFC42D.DLL
 0002:000001d4       __imp_?OnKillActive@CPropertyPage@@UAEHXZ 100411d4     mfc42d:MFC42D.DLL
 0002:000001d8       __imp_?OnQueryCancel@CPropertyPage@@UAEHXZ 100411d8     mfc42d:MFC42D.DLL
 0002:000001dc       __imp_?OnWizardBack@CPropertyPage@@UAEJXZ 100411dc     mfc42d:MFC42D.DLL
 0002:000001e0       __imp_?OnWizardNext@CPropertyPage@@UAEJXZ 100411e0     mfc42d:MFC42D.DLL
 0002:000001e4       __imp_?OnWizardFinish@CPropertyPage@@UAEHXZ 100411e4     mfc42d:MFC42D.DLL
 0002:000001e8       __imp_??2CObject@@SGPAXIPBDH@Z 100411e8     mfc42d:MFC42D.DLL
 0002:000001ec       __imp_??3CObject@@SGXPAXPBDH@Z 100411ec     mfc42d:MFC42D.DLL
 0002:000001f0       __imp_?AddString@CListBox@@QAEHPBD@Z 100411f0     mfc42d:MFC42D.DLL
 0002:000001f4       __imp_??8@YG_NABVCString@@PBD@Z 100411f4     mfc42d:MFC42D.DLL
 0002:000001f8       __imp_?LimitText@CComboBox@@QAEHH@Z 100411f8     mfc42d:MFC42D.DLL
 0002:000001fc       __imp_?EnableWindow@CWnd@@QAEHH@Z 100411fc     mfc42d:MFC42D.DLL
 0002:00000200       __imp_?SetFocus@CWnd@@QAEPAV1@XZ 10041200     mfc42d:MFC42D.DLL
 0002:00000204       __imp_?DDX_Text@@YGXPAVCDataExchange@@HAAVCString@@@Z 10041204     mfc42d:MFC42D.DLL
 0002:00000208       __imp_?DDX_Check@@YGXPAVCDataExchange@@HAAH@Z 10041208     mfc42d:MFC42D.DLL
 0002:0000020c       __imp_?Create@CPlex@@SGPAU1@AAPAU1@II@Z 1004120c     mfc42d:MFC42D.DLL
 0002:00000210       __imp_?Write@CArchive@@QAEXPBXI@Z 10041210     mfc42d:MFC42D.DLL
 0002:00000214       __imp_?Read@CArchive@@QAEIPAXI@Z 10041214     mfc42d:MFC42D.DLL
 0002:00000218       __imp_?FreeDataChain@CPlex@@QAEXXZ 10041218     mfc42d:MFC42D.DLL
 0002:0000021c       __imp_??6CDumpContext@@QAEAAV0@PBD@Z 1004121c     mfc42d:MFC42D.DLL
 0002:00000220       __imp_??6CDumpContext@@QAEAAV0@H@Z 10041220     mfc42d:MFC42D.DLL
 0002:00000224       __imp_?GetDepth@CDumpContext@@QBEHXZ 10041224     mfc42d:MFC42D.DLL
 0002:00000228       __imp_?AfxAssertValidObject@@YGXPBVCObject@@PBDH@Z 10041228     mfc42d:MFC42D.DLL
 0002:0000022c       __imp_?IsStoring@CArchive@@QBEHXZ 1004122c     mfc42d:MFC42D.DLL
 0002:00000230       __imp_?WriteCount@CArchive@@QAEXK@Z 10041230     mfc42d:MFC42D.DLL
 0002:00000234       __imp_?AfxIsValidAddress@@YGHPBXIH@Z 10041234     mfc42d:MFC42D.DLL
 0002:00000238       __imp_?ReadCount@CArchive@@QAEKXZ 10041238     mfc42d:MFC42D.DLL
 0002:0000023c       __imp_?AfxAssertFailedLine@@YGHPBDH@Z 1004123c     mfc42d:MFC42D.DLL
 0002:00000240       __imp_?GetRuntimeClass@CObject@@UBEPAUCRuntimeClass@@XZ 10041240     mfc42d:MFC42D.DLL
 0002:00000244       __imp_?OnOK@CDialog@@MAEXXZ 10041244     mfc42d:MFC42D.DLL
 0002:00000248       __imp_?OnCancel@CDialog@@MAEXXZ 10041248     mfc42d:MFC42D.DLL
 0002:0000024c       __imp_?GetCurSel@CComboBox@@QBEHXZ 1004124c     mfc42d:MFC42D.DLL
 0002:00000250       __imp_?GetLBText@CComboBox@@QBEXHAAVCString@@@Z 10041250     mfc42d:MFC42D.DLL
 0002:00000254       __imp_?AfxMessageBox@@YGHPBDII@Z 10041254     mfc42d:MFC42D.DLL
 0002:00000258       __imp_?AfxGetApp@@YGPAVCWinApp@@XZ 10041258     mfc42d:MFC42D.DLL
 0002:0000025c       __imp_??BCString@@QBEPBDXZ 1004125c     mfc42d:MFC42D.DLL
 0002:00000260       __imp_?AddString@CComboBox@@QAEHPBD@Z 10041260     mfc42d:MFC42D.DLL
 0002:00000264       __imp_?OnInitDialog@CDialog@@UAEHXZ 10041264     mfc42d:MFC42D.DLL
 0002:00000268       __imp_??1CPropertySheet@@UAE@XZ 10041268     mfc42d:MFC42D.DLL
 0002:0000026c       __imp_??0CPropertySheet@@QAE@IPAVCWnd@@I@Z 1004126c     mfc42d:MFC42D.DLL
 0002:00000270       __imp_??0CPropertySheet@@QAE@PBDPAVCWnd@@I@Z 10041270     mfc42d:MFC42D.DLL
 0002:00000274       __imp_??0CPropertySheet@@QAE@XZ 10041274     mfc42d:MFC42D.DLL
 0002:00000278       __imp_?messageMap@CPropertySheet@@1UAFX_MSGMAP@@B 10041278     mfc42d:MFC42D.DLL
 0002:0000027c       __imp_?Create@CPropertySheet@@QAEHPAVCWnd@@KK@Z 1004127c     mfc42d:MFC42D.DLL
 0002:00000280       __imp_?GetPage@CPropertySheet@@QBEPAVCPropertyPage@@H@Z 10041280     mfc42d:MFC42D.DLL
 0002:00000284       __imp_?GetPageCount@CPropertySheet@@QBEHXZ 10041284     mfc42d:MFC42D.DLL
 0002:00000288       __imp_?GetSafeHwnd@CWnd@@QBEPAUHWND__@@XZ 10041288     mfc42d:MFC42D.DLL
 0002:0000028c       __imp_?OnCreate@CWnd@@IAEHPAUtagCREATESTRUCTA@@@Z 1004128c     mfc42d:MFC42D.DLL
 0002:00000290       __imp_??1CWnd@@UAE@XZ      10041290     mfc42d:MFC42D.DLL
 0002:00000294       __imp_?SetActiveWindow@CWnd@@QAEPAV1@XZ 10041294     mfc42d:MFC42D.DLL
 0002:00000298       __imp_?SetWindowPos@CWnd@@QAEHPBV1@HHHHI@Z 10041298     mfc42d:MFC42D.DLL
 0002:0000029c       __imp_?Width@CRect@@QBEHXZ 1004129c     mfc42d:MFC42D.DLL
 0002:000002a0       __imp_?Height@CRect@@QBEHXZ 100412a0     mfc42d:MFC42D.DLL
 0002:000002a4       __imp_?GetWindowRect@CWnd@@QBEXPAUtagRECT@@@Z 100412a4     mfc42d:MFC42D.DLL
 0002:000002a8       __imp_??0CWnd@@QAE@XZ      100412a8     mfc42d:MFC42D.DLL
 0002:000002ac       __imp_??0CRect@@QAE@XZ     100412ac     mfc42d:MFC42D.DLL
 0002:000002b0       __imp_?SetTitle@CPropertySheet@@QAEXPBDI@Z 100412b0     mfc42d:MFC42D.DLL
 0002:000002b4       __imp_?SetActivePage@CPropertySheet@@QAEHPAVCPropertyPage@@@Z 100412b4     mfc42d:MFC42D.DLL
 0002:000002b8       __imp_?ShowWindow@CWnd@@QAEHH@Z 100412b8     mfc42d:MFC42D.DLL
 0002:000002bc       __imp_?AddPage@CPropertySheet@@QAEXPAVCPropertyPage@@@Z 100412bc     mfc42d:MFC42D.DLL
 0002:000002c0       __imp_?RemovePage@CPropertySheet@@QAEXH@Z 100412c0     mfc42d:MFC42D.DLL
 0002:000002c4       __imp_?ClientToScreen@CWnd@@QBEXPAUtagRECT@@@Z 100412c4     mfc42d:MFC42D.DLL
 0002:000002c8       __imp_?GetClientRect@CWnd@@QBEXPAUtagRECT@@@Z 100412c8     mfc42d:MFC42D.DLL
 0002:000002cc       __imp_??1CDialog@@UAE@XZ   100412cc     mfc42d:MFC42D.DLL
 0002:000002d0       __imp_?GetRuntimeClass@CDialog@@UBEPAUCRuntimeClass@@XZ 100412d0     mfc42d:MFC42D.DLL
 0002:000002d4       __imp_?AssertValid@CDialog@@UBEXXZ 100412d4     mfc42d:MFC42D.DLL
 0002:000002d8       __imp_?Dump@CDialog@@UBEXAAVCDumpContext@@@Z 100412d8     mfc42d:MFC42D.DLL
 0002:000002dc       __imp_?OnCmdMsg@CDialog@@UAEHIHPAXPAUAFX_CMDHANDLERINFO@@@Z 100412dc     mfc42d:MFC42D.DLL
 0002:000002e0       __imp_?OnFinalRelease@CWnd@@UAEXXZ 100412e0     mfc42d:MFC42D.DLL
 0002:000002e4       __imp_?IsInvokeAllowed@CCmdTarget@@UAEHJ@Z 100412e4     mfc42d:MFC42D.DLL
 0002:000002e8       __imp_?GetDispatchIID@CCmdTarget@@UAEHPAU_GUID@@@Z 100412e8     mfc42d:MFC42D.DLL
 0002:000002ec       __imp_??4CString@@QAEABV0@PBD@Z 100412ec     mfc42d:MFC42D.DLL
 0002:000002f0       __imp_?LoadBitmaps@CBitmapButton@@QAEHPBD000@Z 100412f0     mfc42d:MFC42D.DLL
 0002:000002f4       __imp_??0CString@@QAE@XZ   100412f4     mfc42d:MFC42D.DLL
 0002:000002f8       __imp_??0CBitmapButton@@QAE@XZ 100412f8     mfc42d:MFC42D.DLL
 0002:000002fc       __imp_??0CDialog@@QAE@IPAVCWnd@@@Z 100412fc     mfc42d:MFC42D.DLL
 0002:00000300       __imp_??1CButton@@UAE@XZ   10041300     mfc42d:MFC42D.DLL
 0002:00000304       __imp_??1CBitmap@@UAE@XZ   10041304     mfc42d:MFC42D.DLL
 0002:00000308       __imp_?DDX_CBString@@YGXPAVCDataExchange@@HAAVCString@@@Z 10041308     mfc42d:MFC42D.DLL
 0002:0000030c       __imp_?GetTypeInfoCount@CCmdTarget@@UAEIXZ 1004130c     mfc42d:MFC42D.DLL
 0002:00000310       __imp_?GetTypeLibCache@CCmdTarget@@UAEPAVCTypeLibCache@@XZ 10041310     mfc42d:MFC42D.DLL
 0002:00000314       __imp_?DDV_MinMaxDouble@@YGXPAVCDataExchange@@ABNNN@Z 10041314     mfc42d:MFC42D.DLL
 0002:00000318       __imp_?DDX_Text@@YGXPAVCDataExchange@@HAAN@Z 10041318     mfc42d:MFC42D.DLL
 0002:0000031c       __imp_?DoDataExchange@CWnd@@MAEXPAVCDataExchange@@@Z 1004131c     mfc42d:MFC42D.DLL
 0002:00000320       __imp_?messageMap@CDialog@@1UAFX_MSGMAP@@B 10041320     mfc42d:MFC42D.DLL
 0002:00000324       __imp_?UpdateData@CWnd@@QAEHH@Z 10041324     mfc42d:MFC42D.DLL
 0002:00000328       __imp_?SetCurSel@CComboBox@@QAEHH@Z 10041328     mfc42d:MFC42D.DLL
 0002:0000032c       __imp_?GetDlgItem@CWnd@@QBEPAV1@H@Z 1004132c     mfc42d:MFC42D.DLL
 0002:00000330       __imp_?SizeToContent@CBitmapButton@@QAEXXZ 10041330     mfc42d:MFC42D.DLL
 0002:00000334       __imp_?GetAt@CObList@@QAEAAPAVCObject@@PAU__POSITION@@@Z 10041334     mfc42d:MFC42D.DLL
 0002:00000338       __imp_?Dump@CObject@@UBEXAAVCDumpContext@@@Z 10041338     mfc42d:MFC42D.DLL
 0002:0000033c       __imp_?GetTypeLib@CCmdTarget@@UAEJKPAPAUITypeLib@@@Z 1004133c     mfc42d:MFC42D.DLL
 0002:00000340       __imp_?GetCommandMap@CCmdTarget@@MBEPBUAFX_OLECMDMAP@@XZ 10041340     mfc42d:MFC42D.DLL
 0002:00000344       __imp_?GetDispatchMap@CCmdTarget@@MBEPBUAFX_DISPMAP@@XZ 10041344     mfc42d:MFC42D.DLL
 0002:00000348       __imp_?GetConnectionMap@CCmdTarget@@MBEPBUAFX_CONNECTIONMAP@@XZ 10041348     mfc42d:MFC42D.DLL
 0002:0000034c       __imp_?GetInterfaceMap@CCmdTarget@@MBEPBUAFX_INTERFACEMAP@@XZ 1004134c     mfc42d:MFC42D.DLL
 0002:00000350       __imp_?GetEventSinkMap@CCmdTarget@@MBEPBUAFX_EVENTSINKMAP@@XZ 10041350     mfc42d:MFC42D.DLL
 0002:00000354       __imp_?OnCreateAggregates@CCmdTarget@@UAEHXZ 10041354     mfc42d:MFC42D.DLL
 0002:00000358       __imp_?GetInterfaceHook@CCmdTarget@@UAEPAUIUnknown@@PBX@Z 10041358     mfc42d:MFC42D.DLL
 0002:0000035c       __imp_?GetExtraConnectionPoints@CCmdTarget@@MAEHPAVCPtrArray@@@Z 1004135c     mfc42d:MFC42D.DLL
 0002:00000360       __imp_?GetConnectionHook@CCmdTarget@@MAEPAUIConnectionPoint@@ABU_GUID@@@Z 10041360     mfc42d:MFC42D.DLL
 0002:00000364       __imp_?PreSubclassWindow@CWnd@@UAEXXZ 10041364     mfc42d:MFC42D.DLL
 0002:00000368       __imp_?Create@CWnd@@UAEHPBD0KABUtagRECT@@PAV1@IPAUCCreateContext@@@Z 10041368     mfc42d:MFC42D.DLL
 0002:0000036c       __imp_?DestroyWindow@CWnd@@UAEHXZ 1004136c     mfc42d:MFC42D.DLL
 0002:00000370       __imp_?PreCreateWindow@CWnd@@UAEHAAUtagCREATESTRUCTA@@@Z 10041370     mfc42d:MFC42D.DLL
 0002:00000374       __imp_?CalcWindowRect@CWnd@@UAEXPAUtagRECT@@I@Z 10041374     mfc42d:MFC42D.DLL
 0002:00000378       __imp_?OnToolHitTest@CWnd@@UBEHVCPoint@@PAUtagTOOLINFOA@@@Z 10041378     mfc42d:MFC42D.DLL
 0002:0000037c       __imp_?GetScrollBarCtrl@CWnd@@UBEPAVCScrollBar@@H@Z 1004137c     mfc42d:MFC42D.DLL
 0002:00000380       __imp_?WinHelpA@CWnd@@UAEXKI@Z 10041380     mfc42d:MFC42D.DLL
 0002:00000384       __imp_?ContinueModal@CWnd@@UAEHXZ 10041384     mfc42d:MFC42D.DLL
 0002:00000388       __imp_?EndModalLoop@CWnd@@UAEXH@Z 10041388     mfc42d:MFC42D.DLL
 0002:0000038c       __imp_?OnCommand@CWnd@@MAEHIJ@Z 1004138c     mfc42d:MFC42D.DLL
 0002:00000390       __imp_?OnNotify@CWnd@@MAEHIJPAJ@Z 10041390     mfc42d:MFC42D.DLL
 0002:00000394       __imp_?AssertValid@CObject@@UBEXXZ 10041394     mfc42d:MFC42D.DLL
 0002:00000398       __imp_??1CObject@@UAE@XZ   10041398     mfc42d:MFC42D.DLL
 0002:0000039c       __imp_??3CObject@@SGXPAX@Z 1004139c     mfc42d:MFC42D.DLL
 0002:000003a0       __imp_??3@YAXPAX@Z         100413a0     mfc42d:MFC42D.DLL
 0002:000003a4       __imp_??0CString@@QAE@ABV0@@Z 100413a4     mfc42d:MFC42D.DLL
 0002:000003a8       __imp_??1CString@@QAE@XZ   100413a8     mfc42d:MFC42D.DLL
 0002:000003ac       __imp_??4CString@@QAEABV0@ABV0@@Z 100413ac     mfc42d:MFC42D.DLL
 0002:000003b0       __imp_?Serialize@CObject@@UAEXAAVCArchive@@@Z 100413b0     mfc42d:MFC42D.DLL
 0002:000003b4       __imp_??1CPen@@UAE@XZ      100413b4     mfc42d:MFC42D.DLL
 0002:000003b8       __imp_??2@YAPAXI@Z         100413b8     mfc42d:MFC42D.DLL
 0002:000003bc       __imp_?PreInitDialog@CDialog@@MAEXXZ 100413bc     mfc42d:MFC42D.DLL
 0002:000003c0       __imp_?OnSetFont@CDialog@@UAEXPAVCFont@@@Z 100413c0     mfc42d:MFC42D.DLL
 0002:000003c4       __imp_?DoModal@CDialog@@UAEHXZ 100413c4     mfc42d:MFC42D.DLL
 0002:000003c8       __imp_?SetOccDialogInfo@CDialog@@MAEHPAU_AFX_OCC_DIALOG_INFO@@@Z 100413c8     mfc42d:MFC42D.DLL
 0002:000003cc       __imp_?IsFrameWnd@CWnd@@UBEHXZ 100413cc     mfc42d:MFC42D.DLL
 0002:000003d0       __imp_?CheckAutoCenter@CDialog@@UAEHXZ 100413d0     mfc42d:MFC42D.DLL
 0002:000003d4       __imp_?OnChildNotify@CWnd@@MAEHIIJPAJ@Z 100413d4     mfc42d:MFC42D.DLL
 0002:000003d8       __imp_?PostNcDestroy@CWnd@@MAEXXZ 100413d8     mfc42d:MFC42D.DLL
 0002:000003dc       __imp_?DefWindowProcA@CWnd@@MAEJIIJ@Z 100413dc     mfc42d:MFC42D.DLL
 0002:000003e0       __imp_?OnWndMsg@CWnd@@MAEHIIJPAJ@Z 100413e0     mfc42d:MFC42D.DLL
 0002:000003e4       __imp_?WindowProc@CWnd@@MAEJIIJ@Z 100413e4     mfc42d:MFC42D.DLL
 0002:000003e8       __imp_?OnAmbientProperty@CWnd@@UAEHPAVCOleControlSite@@JPAUtagVARIANT@@@Z 100413e8     mfc42d:MFC42D.DLL
 0002:000003ec       __imp_?PreTranslateMessage@CDialog@@UAEHPAUtagMSG@@@Z 100413ec     mfc42d:MFC42D.DLL
 0002:000003f0       __imp_?EndModalState@CWnd@@UAEXXZ 100413f0     mfc42d:MFC42D.DLL
 0002:000003f4       __imp_?BeginModalState@CWnd@@UAEXXZ 100413f4     mfc42d:MFC42D.DLL
 0002:000003f8       __imp_?GetSuperWndProcAddr@CWnd@@MAEPAP6GJPAUHWND__@@IIJ@ZXZ 100413f8     mfc42d:MFC42D.DLL
 0002:000003fc       __imp_?SubclassDlgItem@CWnd@@QAEHIPAV1@@Z 100413fc     mfc42d:MFC42D.DLL
 0002:00000400       \177MFC42D_NULL_THUNK_DATA 10041400     mfc42d:MFC42D.DLL
 0002:00000404       __imp_?PostNode@CMI_GangN@@QAEPAVCDrNode@@AAVCString@@IUWORLD@@H@Z 10041404     MNod_D32:MNod_D32.dll
 0002:00000408       \177MNod_D32_NULL_THUNK_DATA 10041408     MNod_D32:MNod_D32.dll
 0002:0000040c       __imp_?Sweep@CPA_Sweep@@QAEHUWORLD@@HPAU2@PANH112212@Z 1004140c     MPat_D32:MPat_D32.dll
 0002:00000410       __imp_?GetRuntimeClass@CPA_Sweep@@UBEPAUCRuntimeClass@@XZ 10041410     MPat_D32:MPat_D32.dll
 0002:00000414       __imp_?RotateCurve@CPA_Rotat@@QAEHHHPANUWORLD@@1HPAU2@020@Z 10041414     MPat_D32:MPat_D32.dll
 0002:00000418       __imp_?GetRuntimeClass@CPA_Rotat@@UBEPAUCRuntimeClass@@XZ 10041418     MPat_D32:MPat_D32.dll
 0002:0000041c       __imp_?FillMeshNodesPatch@CMI_GangP@@QAEHPAVCDrPatch@@PAUWORLD@@PAN@Z 1004141c     MPat_D32:MPat_D32.dll
 0002:00000420       __imp_?Duct@CPA_Duct@@QAEHUWORLD@@HPAU2@PANH11212@Z 10041420     MPat_D32:MPat_D32.dll
 0002:00000424       __imp_?UnitAxisFromEndNodes@CMI_GangP@@QAEXH@Z 10041424     MPat_D32:MPat_D32.dll
 0002:00000428       __imp_?GetRuntimeClass@CPA_Duct@@UBEPAUCRuntimeClass@@XZ 10041428     MPat_D32:MPat_D32.dll
 0002:0000042c       __imp_?Serialize@CMI_GangP@@UAEXAAVCArchive@@@Z 1004142c     MPat_D32:MPat_D32.dll
 0002:00000430       __imp_??0CMI_GangP@@QAE@XZ 10041430     MPat_D32:MPat_D32.dll
 0002:00000434       __imp_??1CMI_GangP@@UAE@XZ 10041434     MPat_D32:MPat_D32.dll
 0002:00000438       __imp_?classCMI_GangP@CMI_GangP@@2UCRuntimeClass@@A 10041438     MPat_D32:MPat_D32.dll
 0002:0000043c       __imp_??0CXtruLens@@QAE@PAVCWnd@@@Z 1004143c     MPat_D32:MPat_D32.dll
 0002:00000440       __imp_?DoModal_Patch_RadiusFactors@CMPatMgr@@QAEIPANHAAN@Z 10041440     MPat_D32:MPat_D32.dll
 0002:00000444       __imp_??0CDlg_Tang@@QAE@PAVCWnd@@@Z 10041444     MPat_D32:MPat_D32.dll
 0002:00000448       __imp_??0CMPatMgr@@QAE@XZ  10041448     MPat_D32:MPat_D32.dll
 0002:0000044c       __imp_?DoModal_Patch_TwistFactors@CMPatMgr@@QAEIPANHAAN@Z 1004144c     MPat_D32:MPat_D32.dll
 0002:00000450       __imp_??1CMPatMgr@@UAE@XZ  10041450     MPat_D32:MPat_D32.dll
 0002:00000454       __imp_??0CDlg_Radius@@QAE@PAVCWnd@@@Z 10041454     MPat_D32:MPat_D32.dll
 0002:00000458       __imp_?UnitAxis_N_LenFromWorldLength@CMI_GangP@@QAENXZ 10041458     MPat_D32:MPat_D32.dll
 0002:0000045c       \177MPat_D32_NULL_THUNK_DATA 1004145c     MPat_D32:MPat_D32.dll
 0002:00000460       __imp___adjust_fdiv        10041460     msvcrtd:MSVCRTD.dll
 0002:00000464       __imp___malloc_dbg         10041464     msvcrtd:MSVCRTD.dll
 0002:00000468       __imp___initterm           10041468     msvcrtd:MSVCRTD.dll
 0002:0000046c       __imp___free_dbg           1004146c     msvcrtd:MSVCRTD.dll
 0002:00000470       __imp___onexit             10041470     msvcrtd:MSVCRTD.dll
 0002:00000474       __imp____dllonexit         10041474     msvcrtd:MSVCRTD.dll
 0002:00000478       __imp_?terminate@@YAXXZ    10041478     msvcrtd:MSVCRTD.dll
 0002:0000047c       __imp__sqrt                1004147c     msvcrtd:MSVCRTD.dll
 0002:00000480       __imp____CxxFrameHandler   10041480     msvcrtd:MSVCRTD.dll
 0002:00000484       __imp__memset              10041484     msvcrtd:MSVCRTD.dll
 0002:00000488       __imp___ftol               10041488     msvcrtd:MSVCRTD.dll
 0002:0000048c       __imp__sprintf             1004148c     msvcrtd:MSVCRTD.dll
 0002:00000490       __imp___except_handler3    10041490     msvcrtd:MSVCRTD.dll
 0002:00000494       \177MSVCRTD_NULL_THUNK_DATA 10041494     msvcrtd:MSVCRTD.dll
 0002:00000498       __imp_?NumberOfElements@CDrSolid@@QAEHIH@Z 10041498     OGen_D32:OGEN_D32.dll
 0002:0000049c       __imp_?GetRuntimeClass@CPentaHed@@UBEPAUCRuntimeClass@@XZ 1004149c     OGen_D32:OGEN_D32.dll
 0002:000004a0       __imp_?NumberOfSolides@CDrSolid@@QAEHXZ 100414a0     OGen_D32:OGEN_D32.dll
 0002:000004a4       __imp_?NumberOfBezierPenta@CDrSolid@@QAEHXZ 100414a4     OGen_D32:OGEN_D32.dll
 0002:000004a8       __imp_??0CPentaHed@@QAE@XZ 100414a8     OGen_D32:OGEN_D32.dll
 0002:000004ac       __imp_?Get_TangentAtaNode@CDrCurve@@QAEHUWORLD@@AAU2@N@Z 100414ac     OGen_D32:OGEN_D32.dll
 0002:000004b0       __imp_?GetRuntimeClass@CTriangle@@UBEPAUCRuntimeClass@@XZ 100414b0     OGen_D32:OGEN_D32.dll
 0002:000004b4       \177OGEN_D32_NULL_THUNK_DATA 100414b4     OGen_D32:OGEN_D32.dll
 0002:000004b8       __imp_?GetSpecObject@CObjectMgr@@QAEPAVCDrObject@@H@Z 100414b8     OMgr_D32:OMgr_D32.dll
 0002:000004bc       __imp_?GetObjectIndexfromKey@CObjectMgr@@QAEHHVCString@@I@Z 100414bc     OMgr_D32:OMgr_D32.dll
 0002:000004c0       \177OMgr_D32_NULL_THUNK_DATA 100414c0     OMgr_D32:OMgr_D32.dll
 0002:000004c4       __imp_?RemoveObject@CDListMgr@@QAEHH@Z 100414c4     Spec_d32:Spec_D32.dll
 0002:000004c8       __imp_?GetObjectIndex@CDListMgr@@QAEHIVCString@@@Z 100414c8     Spec_d32:Spec_D32.dll
 0002:000004cc       __imp_??0CDListMgr@@QAE@XZ 100414cc     Spec_d32:Spec_D32.dll
 0002:000004d0       __imp_?GetObjectIndex@CDListMgr@@QAEHPAVCObject@@@Z 100414d0     Spec_d32:Spec_D32.dll
 0002:000004d4       __imp_?InsertObject@CDListMgr@@QAEHPAVCObject@@@Z 100414d4     Spec_d32:Spec_D32.dll
 0002:000004d8       __imp_?GetSpecificObjectCount@CDListMgr@@QAEHH@Z 100414d8     Spec_d32:Spec_D32.dll
 0002:000004dc       __imp_?GetObjectA@CDListMgr@@QAEPAVCObject@@H@Z 100414dc     Spec_d32:Spec_D32.dll
 0002:000004e0       __imp_?GetFirstObjectPos@CDListMgr@@QAEPAU__POSITION@@XZ 100414e0     Spec_d32:Spec_D32.dll
 0002:000004e4       __imp_?GetNextObject@CDListMgr@@QAEPAVCObject@@AAPAU__POSITION@@@Z 100414e4     Spec_d32:Spec_D32.dll
 0002:000004e8       __imp_??1CDListMgr@@UAE@XZ 100414e8     Spec_d32:Spec_D32.dll
 0002:000004ec       __imp_?GetRuntimeClass@CUnit@@UBEPAUCRuntimeClass@@XZ 100414ec     Spec_d32:Spec_D32.dll
 0002:000004f0       __imp_?Serialize@CUnit@@UAEXAAVCArchive@@@Z 100414f0     Spec_d32:Spec_D32.dll
 0002:000004f4       __imp_?DoDataView@CUnit@@UAEXPAVCDC@@H@Z 100414f4     Spec_d32:Spec_D32.dll
 0002:000004f8       __imp_?Pack_drPipe@CUnit@@UAEXPAVCString@@@Z 100414f8     Spec_d32:Spec_D32.dll
 0002:000004fc       __imp_?GetObjectInfo@CUnit@@UAEXPAVCDrObject@@@Z 100414fc     Spec_d32:Spec_D32.dll
 0002:00000500       __imp_?SetObjectInfo@CUnit@@UAEXPAVCDrObject@@@Z 10041500     Spec_d32:Spec_D32.dll
 0002:00000504       __imp_?ReadDefaultUnit@CUnit@@UAEXXZ 10041504     Spec_d32:Spec_D32.dll
 0002:00000508       __imp_?InitUnit@CUnit@@UAEXXZ 10041508     Spec_d32:Spec_D32.dll
 0002:0000050c       __imp_?GetRuntimeClass@CScaleFactor@@UBEPAUCRuntimeClass@@XZ 1004150c     Spec_d32:Spec_D32.dll
 0002:00000510       __imp_?Serialize@CScaleFactor@@UAEXAAVCArchive@@@Z 10041510     Spec_d32:Spec_D32.dll
 0002:00000514       __imp_?DoDataView@CScaleFactor@@UAEXPAVCDC@@H@Z 10041514     Spec_d32:Spec_D32.dll
 0002:00000518       __imp_?Pack_drPipe@CScaleFactor@@UAEXPAVCString@@@Z 10041518     Spec_d32:Spec_D32.dll
 0002:0000051c       __imp_?GetObjectInfo@CScaleFactor@@UAEXPAVCDrObject@@@Z 1004151c     Spec_d32:Spec_D32.dll
 0002:00000520       __imp_?SetObjectInfo@CScaleFactor@@UAEXPAVCDrObject@@@Z 10041520     Spec_d32:Spec_D32.dll
 0002:00000524       __imp_?ReadDefaultScaleFactor@CScaleFactor@@UAEXXZ 10041524     Spec_d32:Spec_D32.dll
 0002:00000528       __imp_?InitScaleFactor@CScaleFactor@@UAEXXZ 10041528     Spec_d32:Spec_D32.dll
 0002:0000052c       __imp_?GetRuntimeClass@CPrecision@@UBEPAUCRuntimeClass@@XZ 1004152c     Spec_d32:Spec_D32.dll
 0002:00000530       __imp_?Serialize@CPrecision@@UAEXAAVCArchive@@@Z 10041530     Spec_d32:Spec_D32.dll
 0002:00000534       __imp_?DoDataView@CPrecision@@UAEXPAVCDC@@H@Z 10041534     Spec_d32:Spec_D32.dll
 0002:00000538       __imp_?Pack_drPipe@CPrecision@@UAEXPAVCString@@@Z 10041538     Spec_d32:Spec_D32.dll
 0002:0000053c       __imp_?GetObjectInfo@CPrecision@@UAEXPAVCDrObject@@@Z 1004153c     Spec_d32:Spec_D32.dll
 0002:00000540       __imp_?SetObjectInfo@CPrecision@@UAEXPAVCDrObject@@@Z 10041540     Spec_d32:Spec_D32.dll
 0002:00000544       __imp_?ReadDefaultPrecision@CPrecision@@UAEXXZ 10041544     Spec_d32:Spec_D32.dll
 0002:00000548       __imp_?InitPrecision@CPrecision@@UAEXXZ 10041548     Spec_d32:Spec_D32.dll
 0002:0000054c       __imp_?GetRuntimeClass@CMapFactor@@UBEPAUCRuntimeClass@@XZ 1004154c     Spec_d32:Spec_D32.dll
 0002:00000550       __imp_?Serialize@CMapFactor@@UAEXAAVCArchive@@@Z 10041550     Spec_d32:Spec_D32.dll
 0002:00000554       __imp_?DoDataView@CMapFactor@@UAEXPAVCDC@@H@Z 10041554     Spec_d32:Spec_D32.dll
 0002:00000558       __imp_?Pack_drPipe@CMapFactor@@UAEXPAVCString@@@Z 10041558     Spec_d32:Spec_D32.dll
 0002:0000055c       __imp_?GetObjectInfo@CMapFactor@@UAEXPAVCDrObject@@@Z 1004155c     Spec_d32:Spec_D32.dll
 0002:00000560       __imp_?SetObjectInfo@CMapFactor@@UAEXPAVCDrObject@@@Z 10041560     Spec_d32:Spec_D32.dll
 0002:00000564       __imp_?ReadDefaultMapFactor@CMapFactor@@UAEXXZ 10041564     Spec_d32:Spec_D32.dll
 0002:00000568       __imp_?InitMapFactor@CMapFactor@@UAEXXZ 10041568     Spec_d32:Spec_D32.dll
 0002:0000056c       __imp_?GetRuntimeClass@CObj3DMnu@@UBEPAUCRuntimeClass@@XZ 1004156c     Spec_d32:Spec_D32.dll
 0002:00000570       __imp_?Serialize@CObj3DMnu@@UAEXAAVCArchive@@@Z 10041570     Spec_d32:Spec_D32.dll
 0002:00000574       __imp_?DoDataView@CObj3DMnu@@UAEXPAVCDC@@H@Z 10041574     Spec_d32:Spec_D32.dll
 0002:00000578       __imp_?Pack_drPipe@CObj3DMnu@@UAEXPAVCString@@@Z 10041578     Spec_d32:Spec_D32.dll
 0002:0000057c       __imp_?GetObjectInfo@CObj3DMnu@@UAEXPAVCDrObject@@@Z 1004157c     Spec_d32:Spec_D32.dll
 0002:00000580       __imp_?SetObjectInfo@CObj3DMnu@@UAEXPAVCDrObject@@@Z 10041580     Spec_d32:Spec_D32.dll
 0002:00000584       __imp_?GetObj3DMnuInfo@CObj3DMnu@@UAE?AVCString@@I@Z 10041584     Spec_d32:Spec_D32.dll
 0002:00000588       __imp_?SetObj3DMnuInfo@CObj3DMnu@@UAEXII@Z 10041588     Spec_d32:Spec_D32.dll
 0002:0000058c       __imp_?GetObj3DMnuIDArray@CObj3DMnu@@UAEXQAVCString@@@Z 1004158c     Spec_d32:Spec_D32.dll
 0002:00000590       __imp_?SetObj3DMnuIDArray@CObj3DMnu@@UAEXQAVCString@@@Z 10041590     Spec_d32:Spec_D32.dll
 0002:00000594       __imp_?GetObj3DMnuArray@CObj3DMnu@@UAEXQAY01I@Z 10041594     Spec_d32:Spec_D32.dll
 0002:00000598       __imp_?SetObj3DMnuArray@CObj3DMnu@@UAEXQAY01I@Z 10041598     Spec_d32:Spec_D32.dll
 0002:0000059c       __imp_?GetObj3DMnuOldArray@CObj3DMnu@@UAEXQAY01I@Z 1004159c     Spec_d32:Spec_D32.dll
 0002:000005a0       __imp_?SetObj3DMnuOldArray@CObj3DMnu@@UAEXQAY01I@Z 100415a0     Spec_d32:Spec_D32.dll
 0002:000005a4       __imp_?GetObj3DMnuDefaultArray@CObj3DMnu@@UAEXQAY01I@Z 100415a4     Spec_d32:Spec_D32.dll
 0002:000005a8       __imp_?SetObj3DMnuDefaultArray@CObj3DMnu@@UAEXQAY01I@Z 100415a8     Spec_d32:Spec_D32.dll
 0002:000005ac       __imp_?ReadDefaultObj3DMnu@CObj3DMnu@@UAEXXZ 100415ac     Spec_d32:Spec_D32.dll
 0002:000005b0       __imp_?InitObj3DMnu@CObj3DMnu@@UAEXXZ 100415b0     Spec_d32:Spec_D32.dll
 0002:000005b4       __imp_?GetRuntimeClass@CPatchMnu@@UBEPAUCRuntimeClass@@XZ 100415b4     Spec_d32:Spec_D32.dll
 0002:000005b8       __imp_?Serialize@CPatchMnu@@UAEXAAVCArchive@@@Z 100415b8     Spec_d32:Spec_D32.dll
 0002:000005bc       __imp_?DoDataView@CPatchMnu@@UAEXPAVCDC@@H@Z 100415bc     Spec_d32:Spec_D32.dll
 0002:000005c0       __imp_?Pack_drPipe@CPatchMnu@@UAEXPAVCString@@@Z 100415c0     Spec_d32:Spec_D32.dll
 0002:000005c4       __imp_?GetObjectInfo@CPatchMnu@@UAEXPAVCDrObject@@@Z 100415c4     Spec_d32:Spec_D32.dll
 0002:000005c8       __imp_?SetObjectInfo@CPatchMnu@@UAEXPAVCDrObject@@@Z 100415c8     Spec_d32:Spec_D32.dll
 0002:000005cc       __imp_?GetPatchMnuInfo@CPatchMnu@@UAE?AVCString@@I@Z 100415cc     Spec_d32:Spec_D32.dll
 0002:000005d0       __imp_?SetPatchMnuInfo@CPatchMnu@@UAEXII@Z 100415d0     Spec_d32:Spec_D32.dll
 0002:000005d4       __imp_?GetPatchMnuIDArray@CPatchMnu@@UAEXQAVCString@@@Z 100415d4     Spec_d32:Spec_D32.dll
 0002:000005d8       __imp_?SetPatchMnuIDArray@CPatchMnu@@UAEXQAVCString@@@Z 100415d8     Spec_d32:Spec_D32.dll
 0002:000005dc       __imp_?GetPatchMnuArray@CPatchMnu@@UAEXQAY01I@Z 100415dc     Spec_d32:Spec_D32.dll
 0002:000005e0       __imp_?SetPatchMnuArray@CPatchMnu@@UAEXQAY01I@Z 100415e0     Spec_d32:Spec_D32.dll
 0002:000005e4       __imp_?GetPatchMnuOldArray@CPatchMnu@@UAEXQAY01I@Z 100415e4     Spec_d32:Spec_D32.dll
 0002:000005e8       __imp_?SetPatchMnuOldArray@CPatchMnu@@UAEXQAY01I@Z 100415e8     Spec_d32:Spec_D32.dll
 0002:000005ec       __imp_?GetPatchMnuDefaultArray@CPatchMnu@@UAEXQAY01I@Z 100415ec     Spec_d32:Spec_D32.dll
 0002:000005f0       __imp_?SetPatchMnuDefaultArray@CPatchMnu@@UAEXQAY01I@Z 100415f0     Spec_d32:Spec_D32.dll
 0002:000005f4       __imp_?ReadDefaultPatchMnu@CPatchMnu@@UAEXXZ 100415f4     Spec_d32:Spec_D32.dll
 0002:000005f8       __imp_?InitPatchMnu@CPatchMnu@@UAEXXZ 100415f8     Spec_d32:Spec_D32.dll
 0002:000005fc       __imp_?GetRuntimeClass@CLayer@@UBEPAUCRuntimeClass@@XZ 100415fc     Spec_d32:Spec_D32.dll
 0002:00000600       __imp_?Serialize@CLayer@@UAEXAAVCArchive@@@Z 10041600     Spec_d32:Spec_D32.dll
 0002:00000604       __imp_?DoDataView@CLayer@@UAEXPAVCDC@@H@Z 10041604     Spec_d32:Spec_D32.dll
 0002:00000608       __imp_?Pack_drPipe@CLayer@@UAEXPAVCString@@@Z 10041608     Spec_d32:Spec_D32.dll
 0002:0000060c       __imp_?GetObjectInfo@CLayer@@UAEXPAVCDrObject@@@Z 1004160c     Spec_d32:Spec_D32.dll
 0002:00000610       __imp_?SetObjectInfo@CLayer@@UAEXPAVCDrObject@@@Z 10041610     Spec_d32:Spec_D32.dll
 0002:00000614       __imp_?GetLayerInfo@CLayer@@UAE?AVCString@@I@Z 10041614     Spec_d32:Spec_D32.dll
 0002:00000618       __imp_?SetLayerInfo@CLayer@@UAEXII@Z 10041618     Spec_d32:Spec_D32.dll
 0002:0000061c       __imp_?GetLayerArray@CLayer@@UAEXQAY01I@Z 1004161c     Spec_d32:Spec_D32.dll
 0002:00000620       __imp_?SetLayerArray@CLayer@@UAEXQAY01I@Z 10041620     Spec_d32:Spec_D32.dll
 0002:00000624       __imp_?GetLayerOldArray@CLayer@@UAEXQAY01I@Z 10041624     Spec_d32:Spec_D32.dll
 0002:00000628       __imp_?SetLayerOldArray@CLayer@@UAEXQAY01I@Z 10041628     Spec_d32:Spec_D32.dll
 0002:0000062c       __imp_?GetLayerDefaultArray@CLayer@@UAEXQAY01I@Z 1004162c     Spec_d32:Spec_D32.dll
 0002:00000630       __imp_?SetLayerDefaultArray@CLayer@@UAEXQAY01I@Z 10041630     Spec_d32:Spec_D32.dll
 0002:00000634       __imp_?ReadDefaultLayer@CLayer@@UAEXXZ 10041634     Spec_d32:Spec_D32.dll
 0002:00000638       __imp_?InitLayer@CLayer@@UAEXXZ 10041638     Spec_d32:Spec_D32.dll
 0002:0000063c       __imp_?GetRuntimeClass@CHitNet@@UBEPAUCRuntimeClass@@XZ 1004163c     Spec_d32:Spec_D32.dll
 0002:00000640       __imp_?Serialize@CHitNet@@UAEXAAVCArchive@@@Z 10041640     Spec_d32:Spec_D32.dll
 0002:00000644       __imp_?DoDataView@CHitNet@@UAEXPAVCDC@@H@Z 10041644     Spec_d32:Spec_D32.dll
 0002:00000648       __imp_?Pack_drPipe@CHitNet@@UAEXPAVCString@@@Z 10041648     Spec_d32:Spec_D32.dll
 0002:0000064c       __imp_?GetObjectInfo@CHitNet@@UAEXPAVCDrObject@@@Z 1004164c     Spec_d32:Spec_D32.dll
 0002:00000650       __imp_?SetObjectInfo@CHitNet@@UAEXPAVCDrObject@@@Z 10041650     Spec_d32:Spec_D32.dll
 0002:00000654       __imp_?GetRuntimeClass@CDrPen@@UBEPAUCRuntimeClass@@XZ 10041654     Spec_d32:Spec_D32.dll
 0002:00000658       __imp_?Serialize@CDrPen@@UAEXAAVCArchive@@@Z 10041658     Spec_d32:Spec_D32.dll
 0002:0000065c       __imp_?DoDataView@CDrPen@@UAEXPAVCDC@@H@Z 1004165c     Spec_d32:Spec_D32.dll
 0002:00000660       __imp_?Pack_drPipe@CDrPen@@UAEXPAVCString@@@Z 10041660     Spec_d32:Spec_D32.dll
 0002:00000664       __imp_?GetObjectInfo@CDrPen@@UAEXPAVCDrObject@@@Z 10041664     Spec_d32:Spec_D32.dll
 0002:00000668       __imp_?SetObjectInfo@CDrPen@@UAEXPAVCDrObject@@@Z 10041668     Spec_d32:Spec_D32.dll
 0002:0000066c       __imp_?ReplacePen@CDrPen@@UAEXXZ 1004166c     Spec_d32:Spec_D32.dll
 0002:00000670       __imp_?ReadDefaultDrPen@CDrPen@@UAEXXZ 10041670     Spec_d32:Spec_D32.dll
 0002:00000674       __imp_?InitDrPen@CDrPen@@UAEXXZ 10041674     Spec_d32:Spec_D32.dll
 0002:00000678       __imp_?GetRuntimeClass@CDrFont@@UBEPAUCRuntimeClass@@XZ 10041678     Spec_d32:Spec_D32.dll
 0002:0000067c       __imp_?Serialize@CDrFont@@UAEXAAVCArchive@@@Z 1004167c     Spec_d32:Spec_D32.dll
 0002:00000680       __imp_?DoDataView@CDrFont@@UAEXPAVCDC@@H@Z 10041680     Spec_d32:Spec_D32.dll
 0002:00000684       __imp_?Pack_drPipe@CDrFont@@UAEXPAVCString@@@Z 10041684     Spec_d32:Spec_D32.dll
 0002:00000688       __imp_?GetObjectInfo@CDrFont@@UAEXPAVCDrObject@@@Z 10041688     Spec_d32:Spec_D32.dll
 0002:0000068c       __imp_?SetObjectInfo@CDrFont@@UAEXPAVCDrObject@@@Z 1004168c     Spec_d32:Spec_D32.dll
 0002:00000690       __imp_?DoTextFont@CDrFont@@UAEXXZ 10041690     Spec_d32:Spec_D32.dll
 0002:00000694       __imp_?ReadDefaultDrFont@CDrFont@@UAEXXZ 10041694     Spec_d32:Spec_D32.dll
 0002:00000698       __imp_?InitDrFont@CDrFont@@UAEXXZ 10041698     Spec_d32:Spec_D32.dll
 0002:0000069c       __imp_?GetRuntimeClass@CDataWindow@@UBEPAUCRuntimeClass@@XZ 1004169c     Spec_d32:Spec_D32.dll
 0002:000006a0       __imp_?Serialize@CDataWindow@@UAEXAAVCArchive@@@Z 100416a0     Spec_d32:Spec_D32.dll
 0002:000006a4       __imp_?DoDataView@CDataWindow@@UAEXPAVCDC@@H@Z 100416a4     Spec_d32:Spec_D32.dll
 0002:000006a8       __imp_?Pack_drPipe@CDataWindow@@UAEXPAVCString@@@Z 100416a8     Spec_d32:Spec_D32.dll
 0002:000006ac       __imp_?GetObjectInfo@CDataWindow@@UAEXPAVCDrObject@@@Z 100416ac     Spec_d32:Spec_D32.dll
 0002:000006b0       __imp_?SetObjectInfo@CDataWindow@@UAEXPAVCDrObject@@@Z 100416b0     Spec_d32:Spec_D32.dll
 0002:000006b4       __imp_?SetWinMinMaxWIC@CDataWindow@@UAEXULPOINT3@@@Z 100416b4     Spec_d32:Spec_D32.dll
 0002:000006b8       __imp_?SetWinExtWIC@CDataWindow@@UAEXXZ 100416b8     Spec_d32:Spec_D32.dll
 0002:000006bc       __imp_?ReadDefaultDataWindow@CDataWindow@@UAEXXZ 100416bc     Spec_d32:Spec_D32.dll
 0002:000006c0       __imp_?InitDataWindow@CDataWindow@@UAEXXZ 100416c0     Spec_d32:Spec_D32.dll
 0002:000006c4       __imp_??1CDrObject@@UAE@XZ 100416c4     Spec_d32:Spec_D32.dll
 0002:000006c8       __imp_?GetRuntimeClass@CBooleans@@UBEPAUCRuntimeClass@@XZ 100416c8     Spec_d32:Spec_D32.dll
 0002:000006cc       __imp_?Serialize@CBooleans@@UAEXAAVCArchive@@@Z 100416cc     Spec_d32:Spec_D32.dll
 0002:000006d0       __imp_?DoDataView@CBooleans@@UAEXPAVCDC@@H@Z 100416d0     Spec_d32:Spec_D32.dll
 0002:000006d4       __imp_?GetLocalCorner@CDrObject@@UAEXPAUWORLD@@H@Z 100416d4     Spec_d32:Spec_D32.dll
 0002:000006d8       __imp_?SetLocalCorner@CDrObject@@UAEXPAUWORLD@@H@Z 100416d8     Spec_d32:Spec_D32.dll
 0002:000006dc       __imp_?GetWorldCorner@CDrObject@@UAEXPAUWORLD@@H@Z 100416dc     Spec_d32:Spec_D32.dll
 0002:000006e0       __imp_?SetWorldCorner@CDrObject@@UAEXPAUWORLD@@H@Z 100416e0     Spec_d32:Spec_D32.dll
 0002:000006e4       __imp_?GetEyeCorner@CDrObject@@UAEXPAUWORLD@@H@Z 100416e4     Spec_d32:Spec_D32.dll
 0002:000006e8       __imp_?SetEyeCorner@CDrObject@@UAEXPAUWORLD@@H@Z 100416e8     Spec_d32:Spec_D32.dll
 0002:000006ec       __imp_?GetScreen3DCorner@CDrObject@@UAEXPAUWORLD@@H@Z 100416ec     Spec_d32:Spec_D32.dll
 0002:000006f0       __imp_?SetScreen3DCorner@CDrObject@@UAEXPAUWORLD@@H@Z 100416f0     Spec_d32:Spec_D32.dll
 0002:000006f4       __imp_?Pack_drPipe@CBooleans@@UAEXPAVCString@@@Z 100416f4     Spec_d32:Spec_D32.dll
 0002:000006f8       __imp_?GetObjectInfo@CBooleans@@UAEXPAVCDrObject@@@Z 100416f8     Spec_d32:Spec_D32.dll
 0002:000006fc       __imp_?SetObjectInfo@CBooleans@@UAEXPAVCDrObject@@@Z 100416fc     Spec_d32:Spec_D32.dll
 0002:00000700       __imp_?IsZoomEnabled@CBooleans@@UAEHH@Z 10041700     Spec_d32:Spec_D32.dll
 0002:00000704       __imp_?SetZoomEnabled@CBooleans@@UAEXHH@Z 10041704     Spec_d32:Spec_D32.dll
 0002:00000708       __imp_?IsZoomOn@CBooleans@@UAEHHH@Z 10041708     Spec_d32:Spec_D32.dll
 0002:0000070c       __imp_?ToggleZoom@CBooleans@@UAEHHH@Z 1004170c     Spec_d32:Spec_D32.dll
 0002:00000710       __imp_?ReadDefaultBooleans@CBooleans@@UAEXXZ 10041710     Spec_d32:Spec_D32.dll
 0002:00000714       __imp_?InitBooleans@CBooleans@@UAEXXZ 10041714     Spec_d32:Spec_D32.dll
 0002:00000718       __imp_?GetRuntimeClass@CMatObj@@UBEPAUCRuntimeClass@@XZ 10041718     Spec_d32:Spec_D32.dll
 0002:0000071c       \177Spec_D32_NULL_THUNK_DATA 1004171c     Spec_d32:Spec_D32.dll
 0002:00000720       __imp__GetSystemMetrics@4  10041720     user32:USER32.dll
 0002:00000724       __imp__wsprintfA           10041724     user32:USER32.dll
 0002:00000728       \177USER32_NULL_THUNK_DATA 10041728     user32:USER32.dll
 0002:00000750       ?messageMap@CDlg_LMat@@1UAFX_MSGMAP@@B 10041750     Dlg_lmat.obj
 0002:00000758       ?_messageEntries@CDlg_LMat@@0QBUAFX_MSGMAP_ENTRY@@B 10041758     Dlg_lmat.obj
 0002:000007b8       ??_7C3DMath@@6B@           100417b8     Dlg_lmat.obj
 0002:000007cc       ??_7CMatObj@@6B@           100417cc     Dlg_lmat.obj
 0002:000008a8       ??_7CBooleans@@6B@         100418a8     Dlg_lmat.obj
 0002:00000ae8       ??_7CDataWindow@@6B@       10041ae8     Dlg_lmat.obj
 0002:00000c58       ??_7CDrFont@@6B@           10041c58     Dlg_lmat.obj
 0002:00000dc8       ??_7CDrPen@@6B@            10041dc8     Dlg_lmat.obj
 0002:00000f98       ??_7CHitNet@@6B@           10041f98     Dlg_lmat.obj
 0002:000010e8       ??_7CLayer@@6B@            100420e8     Dlg_lmat.obj
 0002:00001278       ??_7CPatchMnu@@6B@         10042278     Dlg_lmat.obj
 0002:00001420       ??_7CObj3DMnu@@6B@         10042420     Dlg_lmat.obj
 0002:000015c8       ??_7CMapFactor@@6B@        100425c8     Dlg_lmat.obj
 0002:00001730       ??_7CPrecision@@6B@        10042730     Dlg_lmat.obj
 0002:000018b8       ??_7CScaleFactor@@6B@      100428b8     Dlg_lmat.obj
 0002:00001a28       ??_7CUnit@@6B@             10042a28     Dlg_lmat.obj
 0002:00001ba4       ??_7CElemInfo@@6B@         10042ba4     Dlg_lmat.obj
 0002:00001d00       ??_7CTriangle@@6B@         10042d00     Dlg_lmat.obj
 0002:00001d7c       ??_C@_00A@?$AA@            10042d7c     Dlg_lmat.obj
 0002:00001d80       ??_C@_08OKPH@Image2Up?$AA@ 10042d80     Dlg_lmat.obj
 0002:00001d8c       ??_C@_0L@KCBH@Image2Down?$AA@ 10042d8c     Dlg_lmat.obj
 0002:00001d98       ??_C@_0M@DMDD@Image2Focus?$AA@ 10042d98     Dlg_lmat.obj
 0002:00001da4       ??_C@_08BMMM@Image1Up?$AA@ 10042da4     Dlg_lmat.obj
 0002:00001db0       ??_C@_0L@ECHI@Image1Down?$AA@ 10042db0     Dlg_lmat.obj
 0002:00001dbc       ??_C@_0M@ICND@Image1Focus?$AA@ 10042dbc     Dlg_lmat.obj
 0002:00001dc8       ??_7CDlg_LMat@@6B@         10042dc8     Dlg_lmat.obj
 0002:00001ea0       ??_C@_0BP@KBPP@Internal?5Problem?3Dlg_LMat?1SelC?$AA@ 10042ea0     Dlg_lmat.obj
 0002:00001ec0       ??_7?$CList@HH@@6B@        10042ec0     Dlg_lmat.obj
 0002:00001ed4       ??_C@_01BJG@?6?$AA@        10042ed4     Dlg_lmat.obj
 0002:00001ed8       ??_C@_05KIFI@with?5?$AA@   10042ed8     Dlg_lmat.obj
 0002:00001ee0       ??_C@_09LOPF@?5elements?$AA@ 10042ee0     Dlg_lmat.obj
 0002:00001ef0       ?messageMap@CDlg_Duct_S@@1UAFX_MSGMAP@@B 10042ef0     Dlg_sduc.obj
 0002:00001ef8       ?_messageEntries@CDlg_Duct_S@@0QBUAFX_MSGMAP_ENTRY@@B 10042ef8     Dlg_sduc.obj
 0002:00001f70       ??_7CDlg_Duct_S@@6B@       10042f70     Dlg_sduc.obj
 0002:00002048       ??_C@_0FA@GDJG@Element?5MisMatch?$CB?6Spine?3?6Number?5@ 10043048     Dlg_sduc.obj
 0002:00002098       ??_C@_0DA@MDOE@No?5Twist?5Curve?$CB?6Please?5Select?5On@ 10043098     Dlg_sduc.obj
 0002:000020c8       ??_C@_0DA@HGIO@No?5Spine?5Curve?$CB?6Please?5Select?5On@ 100430c8     Dlg_sduc.obj
 0002:000020f8       ??_C@_0DH@OFAP@No?5CrossSection?5Patch?$CB?6Please?5Se@ 100430f8     Dlg_sduc.obj
 0002:00002130       ??_C@_0DB@HCEG@No?5Solid?5ID?5Selected?6Please?5Sele@ 10043130     Dlg_sduc.obj
 0002:00002164       ??_C@_08OAJO@BACKWARD?$AA@ 10043164     Dlg_sduc.obj
 0002:00002170       ?classCDlg_SI_Coons@CDlg_SI_Coons@@2UCRuntimeClass@@B 10043170     Dlg_SI_Coons.obj
 0002:00002188       ?messageMap@CDlg_SI_Coons@@1UAFX_MSGMAP@@B 10043188     Dlg_SI_Coons.obj
 0002:00002190       ?_messageEntries@CDlg_SI_Coons@@0QBUAFX_MSGMAP_ENTRY@@B 10043190     Dlg_SI_Coons.obj
 0002:00002238       ??_C@_0O@MOOB@CDlg_SI_Coons?$AA@ 10043238     Dlg_SI_Coons.obj
 0002:00002248       ??_7CDlg_SI_Coons@@6B@     10043248     Dlg_SI_Coons.obj
 0002:0000234c       ??_C@_09BPHA@Ist?5Patch?$AA@ 1004334c     Dlg_SI_Coons.obj
 0002:00002358       ??_C@_0DD@NMIA@Coons?5Solid?3?5HexaHedral?0PentaHed@ 10043358     Dlg_SI_Coons.obj
 0002:00002390       ?classCDlg_SI_Duct@CDlg_SI_Duct@@2UCRuntimeClass@@B 10043390     Dlg_SI_Duct.obj
 0002:000023a8       ?messageMap@CDlg_SI_Duct@@1UAFX_MSGMAP@@B 100433a8     Dlg_SI_Duct.obj
 0002:000023b0       ?_messageEntries@CDlg_SI_Duct@@0QBUAFX_MSGMAP_ENTRY@@B 100433b0     Dlg_SI_Duct.obj
 0002:000024e8       ??_C@_0N@KAPB@CDlg_SI_Duct?$AA@ 100434e8     Dlg_SI_Duct.obj
 0002:000024f8       ??_7CDlg_SI_Duct@@6B@      100434f8     Dlg_SI_Duct.obj
 0002:000025fc       ??_C@_0M@DEHG@Anchor?5Node?$AA@ 100435fc     Dlg_SI_Duct.obj
 0002:00002608       ??_C@_0M@EGCO@Spine?5Curve?$AA@ 10043608     Dlg_SI_Duct.obj
 0002:00002614       ??_C@_0CH@GPAC@Solid?5by?5Ducting?5Cross?9sectional@ 10043614     Dlg_SI_Duct.obj
 0002:0000263c       ??_C@_0M@FLNM@Radial?5Step?$AA@ 1004363c     Dlg_SI_Duct.obj
 0002:00002648       ??_C@_0N@JMFI@Radial?5Start?$AA@ 10043648     Dlg_SI_Duct.obj
 0002:00002658       ??_C@_0L@BAEB@Twist?5Step?$AA@ 10043658     Dlg_SI_Duct.obj
 0002:00002664       ??_C@_0M@LJBD@Twist?5Start?$AA@ 10043664     Dlg_SI_Duct.obj
 0002:00002670       ??_C@_0DL@GAOG@Duct?5Twist?5Info?6Do?5You?5want?5to?5C@ 10043670     Dlg_SI_Duct.obj
 0002:000026b0       ?classCDlg_SI_EndCond@CDlg_SI_EndCond@@2UCRuntimeClass@@B 100436b0     dlg_SI_EndCond.obj
 0002:000026c8       ?messageMap@CDlg_SI_EndCond@@1UAFX_MSGMAP@@B 100436c8     dlg_SI_EndCond.obj
 0002:000026d0       ?_messageEntries@CDlg_SI_EndCond@@0QBUAFX_MSGMAP_ENTRY@@B 100436d0     dlg_SI_EndCond.obj
 0002:00002898       ??_C@_0BA@KCLI@CDlg_SI_EndCond?$AA@ 10043898     dlg_SI_EndCond.obj
 0002:000028a8       ??_C@_05GCCP@Iso_V?$AA@    100438a8     dlg_SI_EndCond.obj
 0002:000028b0       ??_C@_05JNJG@Iso_U?$AA@    100438b0     dlg_SI_EndCond.obj
 0002:000028b8       ??_C@_07DMFD@TANGENT?$AA@  100438b8     dlg_SI_EndCond.obj
 0002:000028c0       ??_C@_0L@JOIF@NOT_A_KNOT?$AA@ 100438c0     dlg_SI_EndCond.obj
 0002:000028cc       ??_C@_09KFEJ@QUADRATIC?$AA@ 100438cc     dlg_SI_EndCond.obj
 0002:000028d8       ??_C@_06OLIF@BESSEL?$AA@   100438d8     dlg_SI_EndCond.obj
 0002:000028e0       ??_C@_04MICK@FREE?$AA@     100438e0     dlg_SI_EndCond.obj
 0002:000028e8       ??_C@_07GPNJ@CLAMPED?$AA@  100438e8     dlg_SI_EndCond.obj
 0002:000028f0       ??_C@_04PBGA@AUTO?$AA@     100438f0     dlg_SI_EndCond.obj
 0002:000028f8       ??_C@_04FMHO@USER?$AA@     100438f8     dlg_SI_EndCond.obj
 0002:00002900       ??_C@_06LOJF@ENERGY?$AA@   10043900     dlg_SI_EndCond.obj
 0002:00002908       ??_C@_06OGLL@SPLINE?$AA@   10043908     dlg_SI_EndCond.obj
 0002:00002910       ??_C@_05BMFE@ADINI?$AA@    10043910     dlg_SI_EndCond.obj
 0002:00002918       ??_C@_04LHLC@ZERO?$AA@     10043918     dlg_SI_EndCond.obj
 0002:00002920       ??_7CDlg_SI_EndCond@@6B@   10043920     dlg_SI_EndCond.obj
 0002:00002a24       ??_C@_03NAME@?4?4?4?$AA@   10043a24     dlg_SI_EndCond.obj
 0002:00002a28       ??_7?$CList@Ublendend@@U1@@@6B@ 10043a28     dlg_SI_EndCond.obj
 0002:00002a3c       ??_7?$CList@VCString@@V1@@@6B@ 10043a3c     dlg_SI_EndCond.obj
 0002:00002a50       ?classCDlg_SI_Gordon@CDlg_SI_Gordon@@2UCRuntimeClass@@B 10043a50     Dlg_SI_Gordon.obj
 0002:00002a68       ?messageMap@CDlg_SI_Gordon@@1UAFX_MSGMAP@@B 10043a68     Dlg_SI_Gordon.obj
 0002:00002a70       ?_messageEntries@CDlg_SI_Gordon@@0QBUAFX_MSGMAP_ENTRY@@B 10043a70     Dlg_SI_Gordon.obj
 0002:00002b30       ??_C@_0P@DJMA@CDlg_SI_Gordon?$AA@ 10043b30     Dlg_SI_Gordon.obj
 0002:00002b40       ??_7CDlg_SI_Gordon@@6B@    10043b40     Dlg_SI_Gordon.obj
 0002:00002c44       ??_C@_05JJEL@Patch?$AA@    10043c44     Dlg_SI_Gordon.obj
 0002:00002c4c       ??_C@_0BF@MJLH@Gordon?5Blended?5Solid?$AA@ 10043c4c     Dlg_SI_Gordon.obj
 0002:00002c68       ?classCDlg_SI_Loft@CDlg_SI_Loft@@2UCRuntimeClass@@B 10043c68     Dlg_SI_Loft.obj
 0002:00002c80       ?messageMap@CDlg_SI_Loft@@1UAFX_MSGMAP@@B 10043c80     Dlg_SI_Loft.obj
 0002:00002c88       ?_messageEntries@CDlg_SI_Loft@@0QBUAFX_MSGMAP_ENTRY@@B 10043c88     Dlg_SI_Loft.obj
 0002:00002dc0       ??_C@_0N@NDJD@CDlg_SI_Loft?$AA@ 10043dc0     Dlg_SI_Loft.obj
 0002:00002dd0       ??_7CDlg_SI_Loft@@6B@      10043dd0     Dlg_SI_Loft.obj
 0002:00002ed4       ??_C@_09CALE@Seg?5Angle?$AA@ 10043ed4     Dlg_SI_Loft.obj
 0002:00002ee0       ??_C@_0M@JEGH@Begin?5Patch?$AA@ 10043ee0     Dlg_SI_Loft.obj
 0002:00002eec       ??_C@_0BJ@PNNP@Solid?5by?5Lofting?5Patches?$AA@ 10043eec     Dlg_SI_Loft.obj
 0002:00002f08       ?classCDlg_SI_Revolv@CDlg_SI_Revolv@@2UCRuntimeClass@@B 10043f08     Dlg_SI_Revolv.obj
 0002:00002f20       ?messageMap@CDlg_SI_Revolv@@1UAFX_MSGMAP@@B 10043f20     Dlg_SI_Revolv.obj
 0002:00002f28       ?_messageEntries@CDlg_SI_Revolv@@0QBUAFX_MSGMAP_ENTRY@@B 10043f28     Dlg_SI_Revolv.obj
 0002:00003138       ??_C@_0P@NEHD@CDlg_SI_Revolv?$AA@ 10044138     Dlg_SI_Revolv.obj
 0002:00003148       ??_7CDlg_SI_Revolv@@6B@    10044148     Dlg_SI_Revolv.obj
 0002:0000324c       ??_C@_09HJPA@Rot?4Angle?$AA@ 1004424c     Dlg_SI_Revolv.obj
 0002:00003258       ??_C@_0BA@OAJB@Bezier?6Segments?$AA@ 10044258     Dlg_SI_Revolv.obj
 0002:00003268       ??_C@_0P@KKNE@Axis?5Node?5From?$AA@ 10044268     Dlg_SI_Revolv.obj
 0002:00003278       ??_C@_0N@MAJM@Rotnl?4?5Patch?$AA@ 10044278     Dlg_SI_Revolv.obj
 0002:00003288       ??_C@_0BC@CAAK@Solid?5by?5ROTATION?$AA@ 10044288     Dlg_SI_Revolv.obj
 0002:0000329c       ??_C@_0EF@OPLA@INVALID?5DATA?3?6For?5Open?5Circle?6At@ 1004429c     Dlg_SI_Revolv.obj
 0002:000032e4       ??_C@_0EP@DOBH@INVALID?5DATA?3?6For?5Closed?5Circle?6@ 100442e4     Dlg_SI_Revolv.obj
 0002:00003334       ??_C@_0EH@BFON@INVALID?5DATA?3?6For?5Circle?6Atleast@ 10044334     Dlg_SI_Revolv.obj
 0002:0000337c       ??_C@_08COKH@Negative?$AA@ 1004437c     Dlg_SI_Revolv.obj
 0002:00003388       ??_C@_01NCG@Z?$AA@         10044388     Dlg_SI_Revolv.obj
 0002:0000338c       ??_C@_01PCJP@Y?$AA@        1004438c     Dlg_SI_Revolv.obj
 0002:00003390       ??_C@_01FIAI@X?$AA@        10044390     Dlg_SI_Revolv.obj
 0002:00003398       ?classCDlg_SI_Sweep@CDlg_SI_Sweep@@2UCRuntimeClass@@B 10044398     Dlg_SI_Sweep.obj
 0002:000033b0       ?messageMap@CDlg_SI_Sweep@@1UAFX_MSGMAP@@B 100443b0     Dlg_SI_Sweep.obj
 0002:000033b8       ?_messageEntries@CDlg_SI_Sweep@@0QBUAFX_MSGMAP_ENTRY@@B 100443b8     Dlg_SI_Sweep.obj
 0002:000034f0       ??_C@_0O@PGIP@CDlg_SI_Sweep?$AA@ 100444f0     Dlg_SI_Sweep.obj
 0002:00003500       ??_7CDlg_SI_Sweep@@6B@     10044500     Dlg_SI_Sweep.obj
 0002:00003604       ??_C@_0CI@JNKA@Solid?5by?5Sweeping?5Cross?9sectiona@ 10044604     Dlg_SI_Sweep.obj
 0002:0000362c       ??_C@_0DM@FPGE@Sweep?5Scale?5Info?6Do?5You?5want?5to?5@ 1004462c     Dlg_SI_Sweep.obj
 0002:00003668       ??_C@_0DM@NBDG@Sweep?5Twist?5Info?6Do?5You?5want?5to?5@ 10044668     Dlg_SI_Sweep.obj
 0002:000036a8       ?classCDlg_SI_Tensor@CDlg_SI_Tensor@@2UCRuntimeClass@@B 100446a8     Dlg_SI_Tensor.obj
 0002:000036c0       ?messageMap@CDlg_SI_Tensor@@1UAFX_MSGMAP@@B 100446c0     Dlg_SI_Tensor.obj
 0002:000036c8       ?_messageEntries@CDlg_SI_Tensor@@0QBUAFX_MSGMAP_ENTRY@@B 100446c8     Dlg_SI_Tensor.obj
 0002:00003800       ??_C@_0P@LOCE@CDlg_SI_Tensor?$AA@ 10044800     Dlg_SI_Tensor.obj
 0002:00003810       ??_7CDlg_SI_Tensor@@6B@    10044810     Dlg_SI_Tensor.obj
 0002:00003914       ??_C@_04JKOE@Node?$AA@     10044914     Dlg_SI_Tensor.obj
 0002:0000391c       ??_C@_0BI@NLKB@Solid?5by?5Tensor?5Product?$AA@ 1004491c     Dlg_SI_Tensor.obj
 0002:00003938       ?classCDlg_SI_Xtrude@CDlg_SI_Xtrude@@2UCRuntimeClass@@B 10044938     Dlg_SI_Xtrude.obj
 0002:00003950       ?messageMap@CDlg_SI_Xtrude@@1UAFX_MSGMAP@@B 10044950     Dlg_SI_Xtrude.obj
 0002:00003958       ?_messageEntries@CDlg_SI_Xtrude@@0QBUAFX_MSGMAP_ENTRY@@B 10044958     Dlg_SI_Xtrude.obj
 0002:00003aa8       ??_C@_0P@JDGF@CDlg_SI_Xtrude?$AA@ 10044aa8     Dlg_SI_Xtrude.obj
 0002:00003ab8       ??_7CDlg_SI_Xtrude@@6B@    10044ab8     Dlg_SI_Xtrude.obj
 0002:00003bbc       ??_C@_06CAAP@Length?$AA@   10044bbc     Dlg_SI_Xtrude.obj
 0002:00003bc4       ??_C@_0BA@DHAE@Dirn?4?5Node?5From?$AA@ 10044bc4     Dlg_SI_Xtrude.obj
 0002:00003bd4       ??_C@_0N@INEM@Extrn?4?5Patch?$AA@ 10044bd4     Dlg_SI_Xtrude.obj
 0002:00003be4       ??_C@_0BD@KJHP@Solid?5by?5EXTRUSION?$AA@ 10044be4     Dlg_SI_Xtrude.obj
 0002:00003bf8       ?messageMap@CDlg_Loft_S@@1UAFX_MSGMAP@@B 10044bf8     Dlg_slof.obj
 0002:00003c00       ?_messageEntries@CDlg_Loft_S@@0QBUAFX_MSGMAP_ENTRY@@B 10044c00     Dlg_slof.obj
 0002:00003c78       ??_7CDlg_Loft_S@@6B@       10044c78     Dlg_slof.obj
 0002:00003d50       ??_C@_0HL@GKOG@Patch?5MisMatch?$CB?6BOTH?5PATCHES?5MUS@ 10044d50     Dlg_slof.obj
 0002:00003dcc       ??_C@_0DB@JAME@No?5Ending?5Patch?$CB?6Please?5Select?5O@ 10044dcc     Dlg_slof.obj
 0002:00003e00       ??_C@_0DE@GILH@No?5Beginning?5Patch?$CB?6Please?5Selec@ 10044e00     Dlg_slof.obj
 0002:00003e38       __real@8@40008000000000000000 10044e38     Dlg_slof.obj
 0002:00003e40       __real@8@3fff8000000000000000 10044e40     Dlg_slof.obj
 0002:00003e48       ?messageMap@CDlg_SolI@@1UAFX_MSGMAP@@B 10044e48     dlg_SolI.obj
 0002:00003e50       ?_messageEntries@CDlg_SolI@@0QBUAFX_MSGMAP_ENTRY@@B 10044e50     dlg_SolI.obj
 0002:00003fb8       ??_7CDlg_SolI@@6B@         10044fb8     dlg_SolI.obj
 0002:00004090       ??_C@_0BG@LFDF@resource?5string?5?$DN?5?$CFs?6?$AA@ 10045090     dlg_SolI.obj
 0002:000040a8       ??_C@_0L@KBF@Radial?5Max?$AA@ 100450a8     dlg_SolI.obj
 0002:000040b4       ??_C@_09JHGP@Twist?5Max?$AA@ 100450b4     dlg_SolI.obj
 0002:000040c0       ??_C@_0M@JBIC@Xsec?4?5Patch?$AA@ 100450c0     dlg_SolI.obj
 0002:000040cc       ??_C@_0CH@PIOK@Coons?5Solid?3?5TetraHedral?5or?5Hexa@ 100450cc     dlg_SolI.obj
 0002:000040f4       ??_C@_0BK@JBIB@Solid?5by?5Lofting?52?5Patchs?$AA@ 100450f4     dlg_SolI.obj
 0002:00004110       ??_C@_05LMDG@Angle?$AA@    10045110     dlg_SolI.obj
 0002:00004118       ?messageMap@CDlg_RotP_S@@1UAFX_MSGMAP@@B 10045118     Dlg_srot.obj
 0002:00004120       ?_messageEntries@CDlg_RotP_S@@0QBUAFX_MSGMAP_ENTRY@@B 10045120     Dlg_srot.obj
 0002:00004168       ??_7CDlg_RotP_S@@6B@       10045168     Dlg_srot.obj
 0002:00004240       ??_C@_0BJ@PLNF@Need?5atleast?53?5Elements?$CB?$AA@ 10045240     Dlg_srot.obj
 0002:00004260       __real@8@4007b400000000000000 10045260     Dlg_srot.obj
 0002:00004268       ??_C@_0CO@MKLP@No?5Patch?5Selected?6Please?5Select?5@ 10045268     Dlg_srot.obj
 0002:00004298       __real@8@4005f000000000000000 10045298     Dlg_srot.obj
 0002:000042a0       __real@8@00000000000000000000 100452a0     Dlg_srot.obj
 0002:000042a8       ?messageMap@CDlg_Swip_S@@1UAFX_MSGMAP@@B 100452a8     Dlg_sswi.obj
 0002:000042b0       ?_messageEntries@CDlg_Swip_S@@0QBUAFX_MSGMAP_ENTRY@@B 100452b0     Dlg_sswi.obj
 0002:00004358       ??_7CDlg_Swip_S@@6B@       10045358     Dlg_sswi.obj
 0002:00004430       ??_C@_0FB@HINO@Element?5MisMatch?$CB?6Spine?3?6Number?5@ 10045430     Dlg_sswi.obj
 0002:00004484       ??_C@_0DB@MEIM@No?5Radius?5Curve?$CB?6Please?5Select?5O@ 10045484     Dlg_sswi.obj
 0002:000044b8       ?messageMap@CDlg_Xtrd_S@@1UAFX_MSGMAP@@B 100454b8     Dlg_sxtr.obj
 0002:000044c0       ?_messageEntries@CDlg_Xtrd_S@@0QBUAFX_MSGMAP_ENTRY@@B 100454c0     Dlg_sxtr.obj
 0002:00004508       ??_7CDlg_Xtrd_S@@6B@       10045508     Dlg_sxtr.obj
 0002:000045e0       ??_C@_0CO@KHL@No?5Curve?5Selected?6Please?5Select?5@ 100455e0     Dlg_sxtr.obj
 0002:00004610       ?classCLoftSol_Compat@CLoftSol_Compat@@2UCRuntimeClass@@B 10045610     LoftSol_Com.obj
 0002:00004628       ??_C@_0BA@EJMJ@CLoftSol_Compat?$AA@ 10045628     LoftSol_Com.obj
 0002:00004638       ??_7CLoftSol_Compat@@6B@   10045638     LoftSol_Com.obj
 0002:0000464c       ??_C@_09JKIB@CMI_GangS?$AA@ 1004564c     mi_gangs.obj
 0002:00004658       ??_7CPentaHed@@6B@         10045658     mi_gangs.obj
 0002:000046dc       ??_7CDrLabel@@6B@          100456dc     mi_gangs.obj
 0002:00004874       ??_C@_05BDDA@BLANK?$AA@    10045874     mi_gangs.obj
 0002:0000487c       ??_7CMI_GangS@@6B@         1004587c     mi_gangs.obj
 0002:00004890       ??_C@_0DN@LINP@Internal?5Problem?3?6CMI_GangS?3?3Ins@ 10045890     mi_gangs.obj
 0002:000048d0       ??_C@_08NGAJ@?$CFd_?$CFd_?$CFd?$AA@ 100458d0     mi_gangs.obj
 0002:000048dc       ??_C@_0M@BLKD@?$CFd_?$CFd_?$CFd_?$CFd?$AA@ 100458dc     mi_gangs.obj
 0002:000048e8       ??_C@_0CO@LCGA@Error?3?6CMI_GangS?3?3InsertPenta?6Me@ 100458e8     mi_gangs.obj
 0002:00004918       ??_C@_0CN@OHLN@ERROR?3?6CMI_GangS?3?3InsertPenta?6nC@ 10045918     mi_gangs.obj
 0002:00004948       ??_C@_0DB@JNGD@ERROR?3?6CMI_GangS?3?3InsertPenta?6nD@ 10045948     mi_gangs.obj
 0002:0000497c       ??_C@_0BI@OOLB@?5CMI_GangS?3?5?5?5?5Loading?6?$AA@ 1004597c     mi_gangs.obj
 0002:00004994       ??_C@_0BI@CJOH@?5CMI_GangS?3?5?5?5?5Storing?6?$AA@ 10045994     mi_gangs.obj
 0002:000049ac       ??_C@_08NFP@CMS_Duc3?$AA@  100459ac     ms_duc3.obj
 0002:000049b8       ??_7CMsMath@@6B@           100459b8     ms_duc3.obj
 0002:000049cc       ??_7CPA_Duct@@6B@          100459cc     ms_duc3.obj
 0002:000049e0       ??_7CMS_Duc3@@6B@          100459e0     ms_duc3.obj
 0002:000049f4       ??_C@_0EI@CEIF@INTERNAL?5PROBLEM?3?6CMS_Duc3?3?3IsDa@ 100459f4     ms_duc3.obj
 0002:00004a3c       ??_C@_0EM@CAMB@INTERNAL?5PROBLEM?3?6CMS_Duc3?3?3IsDa@ 10045a3c     ms_duc3.obj
 0002:00004a88       ??_C@_0EK@KGKG@INTERNAL?5PROBLEM?3?6CMS_Duc3?3?3IsDa@ 10045a88     ms_duc3.obj
 0002:00004ad4       ??_C@_0EJ@GDPI@INTERNAL?5PROBLEM?3?6CMS_Duc3?3?3IsDa@ 10045ad4     ms_duc3.obj
 0002:00004b20       ??_C@_0EK@IKLE@INTERNAL?5PROBLEM?3?6CMS_Duc3?3?3IsDa@ 10045b20     ms_duc3.obj
 0002:00004b6c       ??_C@_0EJ@LJJF@INTERNAL?5PROBLEM?3?6CMS_Duc3?3?3IsDa@ 10045b6c     ms_duc3.obj
 0002:00004bb8       ??_C@_07EFBK@?$CFs_?$CFd?$CFd?$AA@ 10045bb8     ms_duc3.obj
 0002:00004bc0       ??_C@_04JBCM@Temp?$AA@     10045bc0     ms_duc3.obj
 0002:00004bc8       ??_C@_05DFBC@Blend?$AA@    10045bc8     ms_duc3.obj
 0002:00004bd0       ??_C@_08PGLL@?$CFs_?$CFd_?$CFd?$AA@ 10045bd0     ms_duc3.obj
 0002:00004bdc       ??_C@_0BH@NMCO@?5CMS_Duc3?3?5?5?5?5Loading?6?$AA@ 10045bdc     ms_duc3.obj
 0002:00004bf4       ??_C@_0BH@BLHI@?5CMS_Duc3?3?5?5?5?5Storing?6?$AA@ 10045bf4     ms_duc3.obj
 0002:00004c0c       ??_7?$CList@W4CURVELATCH@@W41@@@6B@ 10045c0c     ms_duc3.obj
 0002:00004c20       ??_7?$CList@W4PATCHLATCH@@W41@@@6B@ 10045c20     ms_duc3.obj
 0002:00004c34       ??_C@_08PNHK@CMS_Duct?$AA@ 10045c34     ms_duct.obj
 0002:00004c40       ??_7CMS_Duct@@6B@          10045c40     ms_duct.obj
 0002:00004c54       ??_C@_0EI@CKJM@INTERNAL?5PROBLEM?3?6CMS_Duct?3?3IsDa@ 10045c54     ms_duct.obj
 0002:00004c9c       ??_C@_0EM@FJLP@INTERNAL?5PROBLEM?3?6CMS_Duct?3?3IsDa@ 10045c9c     ms_duct.obj
 0002:00004ce8       ??_C@_0EK@KCAG@INTERNAL?5PROBLEM?3?6CMS_Duct?3?3IsDa@ 10045ce8     ms_duct.obj
 0002:00004d34       ??_C@_0EJ@MDPG@INTERNAL?5PROBLEM?3?6CMS_Duct?3?3IsDa@ 10045d34     ms_duct.obj
 0002:00004d80       ??_C@_0EK@IOBE@INTERNAL?5PROBLEM?3?6CMS_Duct?3?3IsDa@ 10045d80     ms_duct.obj
 0002:00004dcc       ??_C@_0EJ@BJJL@INTERNAL?5PROBLEM?3?6CMS_Duct?3?3IsDa@ 10045dcc     ms_duct.obj
 0002:00004e18       ??_C@_0EA@MMJK@Internal?5Problem?3?6CMS_Duct?3?3SetI@ 10045e18     ms_duct.obj
 0002:00004e58       ??_C@_0BH@KJMD@?5CMS_Duct?3?5?5?5?5Loading?6?$AA@ 10045e58     ms_duct.obj
 0002:00004e70       ??_C@_0BH@GOJF@?5CMS_Duct?3?5?5?5?5Storing?6?$AA@ 10045e70     ms_duct.obj
 0002:00004e88       ??_C@_09BJMA@CMS_Lof32?$AA@ 10045e88     ms_lof32.obj
 0002:00004e94       ??_7CMS_Lof32@@6B@         10045e94     ms_lof32.obj
 0002:00004ea8       ??_C@_0EI@GFDM@INTERNAL?5PROBLEM?3?6CMS_Xtrud?3?3Set@ 10045ea8     ms_lof32.obj
 0002:00004ef0       ??_C@_0EF@OOAH@INTERNAL?5PROBLEM?3?6CMS_Lof32?3?3Set@ 10045ef0     ms_lof32.obj
 0002:00004f38       ??_C@_0CA@COEB@CMS_Lof32?3?3Loft?6FixMem?5Failure?$CB?$AA@ 10045f38     ms_lof32.obj
 0002:00004f58       ??_C@_0DM@GEGF@CMP_Loft2?3?3Loft2?6Patch1?5?$CG?5Patch2@ 10045f58     ms_lof32.obj
 0002:00004f94       ??_C@_0CK@MCAG@CMS_Lof32?3?3Patch?6FixMemforCNodes@ 10045f94     ms_lof32.obj
 0002:00004fc0       ??_C@_0CE@HAJ@CMS_Lof32?3?3Loft?6PatchIndex?5Failu@ 10045fc0     ms_lof32.obj
 0002:00004fe4       ??_C@_0BI@HJIJ@?5CMS_Lof32?3?5?5?5?5Loading?6?$AA@ 10045fe4     ms_lof32.obj
 0002:00004ffc       ??_C@_0BI@LONP@?5CMS_Lof32?3?5?5?5?5Storing?6?$AA@ 10045ffc     ms_lof32.obj
 0002:00005014       ??_C@_09HIJF@CMS_Lof42?$AA@ 10046014     ms_lof42.obj
 0002:00005020       ??_7CMS_Lof42@@6B@         10046020     ms_lof42.obj
 0002:00005034       ??_C@_0CA@NCOK@CMS_Lof42?3?3Loft?6FixMem?5Failure?$CB?$AA@ 10046034     ms_lof42.obj
 0002:00005054       ??_C@_0CE@MLAE@CMS_Lof42?3?3Loft?6PatchIndex?5Failu@ 10046054     ms_lof42.obj
 0002:00005078       ??_C@_0BP@CBEN@CMP_Duct?3?3Duct?6FixMem?5Failure?$CB?$AA@ 10046078     ms_lof42.obj
 0002:00005098       ??_C@_0BI@DEOI@?5CMS_Lof42?3?5?5?5?5Loading?6?$AA@ 10046098     ms_lof42.obj
 0002:000050b0       ??_C@_0BI@PDLO@?5CMS_Lof42?3?5?5?5?5Storing?6?$AA@ 100460b0     ms_lof42.obj
 0002:000050c8       ??_C@_09BIOJ@CMS_Rota3?$AA@ 100460c8     ms_rota3.obj
 0002:000050d4       ??_7CPA_Rotat@@6B@         100460d4     ms_rota3.obj
 0002:000050e8       ??_7CMS_Rota3@@6B@         100460e8     ms_rota3.obj
 0002:000050fc       ??_C@_0EJ@NEBH@INTERNAL?5PROBLEM?3?6CMS_Rota3?3?3IsD@ 100460fc     ms_rota3.obj
 0002:00005148       ??_C@_0EN@MONC@INTERNAL?5PROBLEM?3?6CMS_Rota3?3?3IsD@ 10046148     ms_rota3.obj
 0002:00005198       ??_C@_0EK@DBJA@INTERNAL?5PROBLEM?3?6CMS_Rota3?3?3IsD@ 10046198     ms_rota3.obj
 0002:000051e4       ??_C@_0EK@PLPH@INTERNAL?5PROBLEM?3?6CMS_Rota3?3?3IsD@ 100461e4     ms_rota3.obj
 0002:00005230       ??_C@_0P@GJPP@?$CFs_?$CFd_?$CFd_?$CFd_?$CFd?$AA@ 10046230     ms_rota3.obj
 0002:00005240       ??_C@_0BI@NPN@?5CMS_Rota3?3?5?5?5?5Loading?6?$AA@ 10046240     ms_rota3.obj
 0002:00005258       ??_C@_0BI@MKKL@?5CMS_Rota3?3?5?5?5?5Storing?6?$AA@ 10046258     ms_rota3.obj
 0002:00005270       ??_C@_09OIMM@CMS_Rotat?$AA@ 10046270     ms_rotat.obj
 0002:0000527c       ??_7CMS_Rotat@@6B@         1004627c     ms_rotat.obj
 0002:00005290       ??_C@_0EJ@NKAO@INTERNAL?5PROBLEM?3?6CMS_Rotat?3?3IsD@ 10046290     ms_rotat.obj
 0002:000052dc       ??_C@_0EN@LHKM@INTERNAL?5PROBLEM?3?6CMS_Rotat?3?3IsD@ 100462dc     ms_rotat.obj
 0002:0000532c       ??_C@_0EK@JBJO@INTERNAL?5PROBLEM?3?6CMS_Rotat?3?3IsD@ 1004632c     ms_rotat.obj
 0002:00005378       ??_C@_0EK@FLPJ@INTERNAL?5PROBLEM?3?6CMS_Rotat?3?3IsD@ 10046378     ms_rotat.obj
 0002:000053c4       ??_C@_0DN@NGNB@Internal?5Problem?3?6CMI_GangP?3?3Ins@ 100463c4     ms_rotat.obj
 0002:00005404       ??_C@_0BI@HIBA@?5CMS_Rotat?3?5?5?5?5Loading?6?$AA@ 10046404     ms_rotat.obj
 0002:0000541c       ??_C@_0BI@LPEG@?5CMS_Rotat?3?5?5?5?5Storing?6?$AA@ 1004641c     ms_rotat.obj
 0002:00005434       ??_C@_09OOKL@CMS_Swee3?$AA@ 10046434     ms_Swee3.obj
 0002:00005440       ??_7CPA_Sweep@@6B@         10046440     ms_Swee3.obj
 0002:00005454       ??_7CMS_Swee3@@6B@         10046454     ms_Swee3.obj
 0002:00005468       ??_C@_0EJ@GKCC@INTERNAL?5PROBLEM?3?6CMS_Swee3?3?3IsD@ 10046468     ms_Swee3.obj
 0002:000054b4       ??_C@_0EN@BCL@INTERNAL?5PROBLEM?3?6CMS_Swee3?3?3IsD@ 100464b4     ms_Swee3.obj
 0002:00005504       ??_C@_0EL@OCGE@INTERNAL?5PROBLEM?3?6CMS_Swee3?3?3IsD@ 10046504     ms_Swee3.obj
 0002:00005550       ??_C@_0EK@KBLG@INTERNAL?5PROBLEM?3?6CMS_Swee3?3?3IsD@ 10046550     ms_Swee3.obj
 0002:0000559c       ??_C@_0EL@MOHG@INTERNAL?5PROBLEM?3?6CMS_Swee3?3?3IsD@ 1004659c     ms_Swee3.obj
 0002:000055e8       ??_C@_0EK@HLNL@INTERNAL?5PROBLEM?3?6CMS_Swee3?3?3IsD@ 100465e8     ms_Swee3.obj
 0002:00005634       ??_C@_0BI@MMHC@?5CMS_Swee3?3?5?5?5?5Loading?6?$AA@ 10046634     ms_Swee3.obj
 0002:0000564c       ??_C@_0BI@LCE@?5CMS_Swee3?3?5?5?5?5Storing?6?$AA@ 1004664c     ms_Swee3.obj
 0002:00005664       ??_C@_09LENC@CMS_Sweep?$AA@ 10046664     ms_Sweep.obj
 0002:00005670       ??_7CMS_Sweep@@6B@         10046670     ms_Sweep.obj
 0002:00005684       ??_C@_0EJ@JLCP@INTERNAL?5PROBLEM?3?6CMS_Sweep?3?3IsD@ 10046684     ms_Sweep.obj
 0002:000056d0       ??_C@_0EN@IMPP@INTERNAL?5PROBLEM?3?6CMS_Sweep?3?3IsD@ 100466d0     ms_Sweep.obj
 0002:00005720       ??_C@_0EL@FCLL@INTERNAL?5PROBLEM?3?6CMS_Sweep?3?3IsD@ 10046720     ms_Sweep.obj
 0002:0000576c       ??_C@_0EK@HOEH@INTERNAL?5PROBLEM?3?6CMS_Sweep?3?3IsD@ 1004676c     ms_Sweep.obj
 0002:000057b8       ??_C@_0EL@HOKJ@INTERNAL?5PROBLEM?3?6CMS_Sweep?3?3IsD@ 100467b8     ms_Sweep.obj
 0002:00005804       ??_C@_0EK@KECK@INTERNAL?5PROBLEM?3?6CMS_Sweep?3?3IsD@ 10046804     ms_Sweep.obj
 0002:00005850       ??_C@_0EB@LEAP@Internal?5Problem?3?6CMS_Sweep?3?3Set@ 10046850     ms_Sweep.obj
 0002:00005894       ??_C@_0BI@DINK@?5CMS_Sweep?3?5?5?5?5Loading?6?$AA@ 10046894     ms_Sweep.obj
 0002:000058ac       ??_C@_0BI@PPIM@?5CMS_Sweep?3?5?5?5?5Storing?6?$AA@ 100468ac     ms_Sweep.obj
 0002:000058c4       ??_C@_09JFLK@CMS_Xtru3?$AA@ 100468c4     Ms_xtru3.obj
 0002:000058d0       ??_7CMS_Xtru3@@6B@         100468d0     Ms_xtru3.obj
 0002:000058e4       ??_C@_0EJ@KJBK@INTERNAL?5PROBLEM?3?6CMS_Xtru3?3?3IsD@ 100468e4     Ms_xtru3.obj
 0002:00005930       ??_C@_0EN@CLBK@INTERNAL?5PROBLEM?3?6CMS_Xtru3?3?3IsD@ 10046930     Ms_xtru3.obj
 0002:00005980       ??_C@_0EK@FBON@INTERNAL?5PROBLEM?3?6CMS_Xtru3?3?3IsD@ 10046980     Ms_xtru3.obj
 0002:000059cc       ??_C@_0EK@JLIK@INTERNAL?5PROBLEM?3?6CMS_Xtru3?3?3IsD@ 100469cc     Ms_xtru3.obj
 0002:00005a18       ??_7CSO_Xtrud@@6B@         10046a18     Ms_xtru3.obj
 0002:00005a2c       ??_C@_0BI@JCMP@?5CMS_Xtru3?3?5?5?5?5Loading?6?$AA@ 10046a2c     Ms_xtru3.obj
 0002:00005a44       ??_C@_0BI@FFJJ@?5CMS_Xtru3?3?5?5?5?5Storing?6?$AA@ 10046a44     Ms_xtru3.obj
 0002:00005a5c       ??_C@_09MMOP@CMS_Xtrud?$AA@ 10046a5c     Ms_xtrud.obj
 0002:00005a68       ??_7CMS_Xtrud@@6B@         10046a68     Ms_xtrud.obj
 0002:00005a7c       ??_C@_0EJ@FLFD@INTERNAL?5PROBLEM?3?6CMS_Xtrud?3?3IsD@ 10046a7c     Ms_xtrud.obj
 0002:00005ac8       ??_C@_0EN@IAMO@INTERNAL?5PROBLEM?3?6CMS_Xtrud?3?3IsD@ 10046ac8     Ms_xtrud.obj
 0002:00005b18       ??_C@_0EK@OBP@INTERNAL?5PROBLEM?3?6CMS_Xtrud?3?3IsD@ 10046b18     Ms_xtrud.obj
 0002:00005b64       ??_C@_0EK@MEHI@INTERNAL?5PROBLEM?3?6CMS_Xtrud?3?3IsD@ 10046b64     Ms_xtrud.obj
 0002:00005bb0       ??_C@_0BI@OCDE@?5CMS_Xtrud?3?5?5?5?5Loading?6?$AA@ 10046bb0     Ms_xtrud.obj
 0002:00005bc8       ??_C@_0BI@CFGC@?5CMS_Xtrud?3?5?5?5?5Storing?6?$AA@ 10046bc8     Ms_xtrud.obj
 0002:00005be0       ??_C@_0BH@LDIB@MSol?4DLL?5Terminating?$CB?6?$AA@ 10046be0     MSoldll.obj
 0002:00005bf8       ??_C@_02DILL@?$CFs?$AA@    10046bf8     MSoldll.obj
 0002:00005bfc       ??_C@_0BI@PCCI@MSol?4DLL?5Initializing?$CB?6?$AA@ 10046bfc     MSoldll.obj
 0002:00005c14       ??_C@_08CNIF@CMSolMgr?$AA@ 10046c14     MSolMgr.obj
 0002:00005c20       ??_C@_0BA@MFHJ@21?5Node?9HEXAHED?$AA@ 10046c20     MSolMgr.obj
 0002:00005c30       ??_C@_0BA@GFCI@20?5Node?9HEXAHED?$AA@ 10046c30     MSolMgr.obj
 0002:00005c40       ??_C@_0P@JMOM@8?5Node?9HEXAHED?$AA@ 10046c40     MSolMgr.obj
 0002:00005c50       ??_C@_0L@NOAE@3D?9HEXAHED?$AA@ 10046c50     MSolMgr.obj
 0002:00005c5c       ??_C@_0BB@KFLD@10?5Node?9TETRAHED?$AA@ 10046c5c     MSolMgr.obj
 0002:00005c70       ??_C@_0BA@KKIO@4?5Node?9TETRAHED?$AA@ 10046c70     MSolMgr.obj
 0002:00005c80       ??_C@_0M@KDEP@3D?9TETRAHED?$AA@ 10046c80     MSolMgr.obj
 0002:00005c8c       ??_C@_0BB@FBLE@15?5Node?9PENTAHED?$AA@ 10046c8c     MSolMgr.obj
 0002:00005ca0       ??_C@_0BA@BDOI@6?5Node?9PENTAHED?$AA@ 10046ca0     MSolMgr.obj
 0002:00005cb0       ??_C@_0M@JPGJ@3D?9PENTAHED?$AA@ 10046cb0     MSolMgr.obj
 0002:00005cbc       ??_C@_05NKIM@BRICK?$AA@    10046cbc     MSolMgr.obj
 0002:00005cc4       ??_C@_0L@MBJF@3D?5Element?$AA@ 10046cc4     MSolMgr.obj
 0002:00005cd0       ??_C@_0L@CHFE@THIN?5SHELL?$AA@ 10046cd0     MSolMgr.obj
 0002:00005cdc       ??_C@_0BB@KEIL@10?5Node?9TRIANGLE?$AA@ 10046cdc     MSolMgr.obj
 0002:00005cf0       ??_C@_0BA@HGJF@9?5Node?9TRIANGLE?$AA@ 10046cf0     MSolMgr.obj
 0002:00005d00       ??_C@_0BA@COPG@6?5Node?9TRIANGLE?$AA@ 10046d00     MSolMgr.obj
 0002:00005d10       ??_C@_0BA@OGNH@3?5Node?9TRIANGLE?$AA@ 10046d10     MSolMgr.obj
 0002:00005d20       ??_C@_0M@EIPI@2D?9TRIANGLE?$AA@ 10046d20     MSolMgr.obj
 0002:00005d2c       ??_C@_0N@BEDA@16?5Node?9QUAD?$AA@ 10046d2c     MSolMgr.obj
 0002:00005d3c       ??_C@_0N@LOAP@12?5Node?9QUAD?$AA@ 10046d3c     MSolMgr.obj
 0002:00005d4c       ??_C@_0M@NLPC@9?5Node?9QUAD?$AA@ 10046d4c     MSolMgr.obj
 0002:00005d58       ??_C@_0M@DBHN@8?5Node?9QUAD?$AA@ 10046d58     MSolMgr.obj
 0002:00005d64       ??_C@_0M@MPDM@4?5Node?9QUAD?$AA@ 10046d64     MSolMgr.obj
 0002:00005d70       ??_C@_07FEJF@2D?9QUAD?$AA@ 10046d70     MSolMgr.obj
 0002:00005d78       ??_C@_04GIIE@FACE?$AA@     10046d78     MSolMgr.obj
 0002:00005d80       ??_C@_0L@EOFH@2D?5Element?$AA@ 10046d80     MSolMgr.obj
 0002:00005d8c       ??_C@_05HGOC@TRUSS?$AA@    10046d8c     MSolMgr.obj
 0002:00005d94       ??_C@_04MMHL@BEAM?$AA@     10046d94     MSolMgr.obj
 0002:00005d9c       ??_C@_05MEMP@ELBOW?$AA@    10046d9c     MSolMgr.obj
 0002:00005da4       ??_C@_04CDKK@PIPE?$AA@     10046da4     MSolMgr.obj
 0002:00005dac       ??_C@_04EHJE@EDGE?$AA@     10046dac     MSolMgr.obj
 0002:00005db4       ??_C@_0L@NOBB@1D?5Element?$AA@ 10046db4     MSolMgr.obj
 0002:00005dc0       ??_C@_05HHEN@MNODE?$AA@    10046dc0     MSolMgr.obj
 0002:00005dc8       ??_C@_09OKNM@Mesh?5NODE?$AA@ 10046dc8     MSolMgr.obj
 0002:00005dd4       ??_C@_05LGLI@CNODE?$AA@    10046dd4     MSolMgr.obj
 0002:00005ddc       ??_C@_0N@PFFC@Control?5NODE?$AA@ 10046ddc     MSolMgr.obj
 0002:00005dec       ??_C@_04FPID@NODE?$AA@     10046dec     MSolMgr.obj
 0002:00005df4       ??_C@_0L@EIMA@Input?5NODE?$AA@ 10046df4     MSolMgr.obj
 0002:00005e00       ??_C@_05ONAC@VERTX?$AA@    10046e00     MSolMgr.obj
 0002:00005e08       ??_C@_0L@FBND@0D?5Element?$AA@ 10046e08     MSolMgr.obj
 0002:00005e14       ??_C@_0M@MADC@SPAWN?5Solid?$AA@ 10046e14     MSolMgr.obj
 0002:00005e20       ??_C@_0N@OHKI@SPLICE?5Solid?$AA@ 10046e20     MSolMgr.obj
 0002:00005e30       ??_C@_0N@IGEK@Delete?5Solid?$AA@ 10046e30     MSolMgr.obj
 0002:00005e40       ??_C@_0N@HNNM@UNPOST?5Solid?$AA@ 10046e40     MSolMgr.obj
 0002:00005e50       ??_C@_0L@ILDJ@POST?5Solid?$AA@ 10046e50     MSolMgr.obj
 0002:00005e5c       ??_C@_0L@BGJP@MOVE?5Solid?$AA@ 10046e5c     MSolMgr.obj
 0002:00005e68       ??_C@_0L@MAIP@EDIT?5Solid?$AA@ 10046e68     MSolMgr.obj
 0002:00005e74       ??_C@_0L@DPM@FLAT?5Solid?$AA@ 10046e74     MSolMgr.obj
 0002:00005e80       ??_C@_0M@FOEI@SWEPT?5Solid?$AA@ 10046e80     MSolMgr.obj
 0002:00005e8c       ??_C@_0N@MKKB@DUCTED?5Solid?$AA@ 10046e8c     MSolMgr.obj
 0002:00005e9c       ??_C@_0P@IKAJ@EXTRUDED?5Solid?$AA@ 10046e9c     MSolMgr.obj
 0002:00005eac       ??_C@_0N@DMKD@LOFTED?5Solid?$AA@ 10046eac     MSolMgr.obj
 0002:00005ebc       ??_C@_0O@JLO@ROTATED?5Solid?$AA@ 10046ebc     MSolMgr.obj
 0002:00005ecc       ??_C@_0M@DOOL@Coons?5Solid?$AA@ 10046ecc     MSolMgr.obj
 0002:00005ed8       ??_C@_0N@NFAI@Tensor?5Solid?$AA@ 10046ed8     MSolMgr.obj
 0002:00005ee8       ??_C@_0O@IHHM@Gordons?5Solid?$AA@ 10046ee8     MSolMgr.obj
 0002:00005ef8       ??_C@_05DEEH@SOLID?$AA@    10046ef8     MSolMgr.obj
 0002:00005f00       ??_C@_0M@CBL@SPAWN?5Patch?$AA@ 10046f00     MSolMgr.obj
 0002:00005f0c       ??_C@_0N@CFIB@SPLICE?5Patch?$AA@ 10046f0c     MSolMgr.obj
 0002:00005f1c       ??_C@_0L@EJBA@POST?5Patch?$AA@ 10046f1c     MSolMgr.obj
 0002:00005f28       ??_C@_0N@LPPF@UNPOST?5Patch?$AA@ 10046f28     MSolMgr.obj
 0002:00005f38       ??_C@_0N@EEGD@Delete?5Patch?$AA@ 10046f38     MSolMgr.obj
 0002:00005f48       ??_C@_0L@NELG@MOVE?5Patch?$AA@ 10046f48     MSolMgr.obj
 0002:00005f54       ??_C@_0L@CKG@EDIT?5Patch?$AA@ 10046f54     MSolMgr.obj
 0002:00005f60       ??_C@_0L@MBNF@FLAT?5Patch?$AA@ 10046f60     MSolMgr.obj
 0002:00005f6c       ??_C@_0M@JMGB@SWEPT?5Patch?$AA@ 10046f6c     MSolMgr.obj
 0002:00005f78       ??_C@_0N@III@DUCTED?5Patch?$AA@ 10046f78     MSolMgr.obj
 0002:00005f88       ??_C@_0P@EICA@EXTRUDED?5Patch?$AA@ 10046f88     MSolMgr.obj
 0002:00005f98       ??_C@_0N@POIK@LOFTED?5Patch?$AA@ 10046f98     MSolMgr.obj
 0002:00005fa8       ??_C@_0O@MLJH@ROTATED?5Patch?$AA@ 10046fa8     MSolMgr.obj
 0002:00005fb8       ??_C@_0M@PMMC@Coons?5Patch?$AA@ 10046fb8     MSolMgr.obj
 0002:00005fc4       ??_C@_0O@EFFF@Gordons?5Patch?$AA@ 10046fc4     MSolMgr.obj
 0002:00005fd4       ??_C@_0N@BHCB@Tensor?5Patch?$AA@ 10046fd4     MSolMgr.obj
 0002:00005fe4       ??_C@_05PGGO@PATCH?$AA@    10046fe4     MSolMgr.obj
 0002:00005fec       ??_C@_0M@LOOF@SPAWN?5Curve?$AA@ 10046fec     MSolMgr.obj
 0002:00005ff8       ??_C@_0N@JJHP@SPLICE?5Curve?$AA@ 10046ff8     MSolMgr.obj
 0002:00006008       ??_C@_0N@MPEP@DELETE?5Curve?$AA@ 10047008     MSolMgr.obj
 0002:00006018       ??_C@_0N@DAL@UNPOST?5Curve?$AA@ 10047018     MSolMgr.obj
 0002:00006028       ??_C@_0L@PFOO@POST?5Curve?$AA@ 10047028     MSolMgr.obj
 0002:00006034       ??_C@_0L@GIEI@MOVE?5Curve?$AA@ 10047034     MSolMgr.obj
 0002:00006040       ??_C@_0L@LOFI@EDIT?5Curve?$AA@ 10047040     MSolMgr.obj
 0002:0000604c       ??_C@_0BA@PMJH@OPERATION?5Curve?$AA@ 1004704c     MSolMgr.obj
 0002:0000605c       ??_C@_0L@KDAP@NURB?5Curve?$AA@ 1004705c     MSolMgr.obj
 0002:00006068       ??_C@_0P@FGGO@B?9SPLINE?5Curve?$AA@ 10047068     MSolMgr.obj
 0002:00006078       ??_C@_0N@IOIN@BEZIER?5Curve?$AA@ 10047078     MSolMgr.obj
 0002:00006088       ??_C@_0O@NLEA@HERMITE?5Curve?$AA@ 10047088     MSolMgr.obj
 0002:00006098       ??_C@_0BA@OMIE@QUADRATIC?5Curve?$AA@ 10047098     MSolMgr.obj
 0002:000060a8       ??_C@_0N@ILBB@LINEAR?5Curve?$AA@ 100470a8     MSolMgr.obj
 0002:000060b8       ??_C@_0P@HNHI@PARABOLA?5Curve?$AA@ 100470b8     MSolMgr.obj
 0002:000060c8       ??_C@_0P@OJDG@ELLIPTIC?5Curve?$AA@ 100470c8     MSolMgr.obj
 0002:000060d8       ??_C@_0P@GAFK@CIRCULAR?5Curve?$AA@ 100470d8     MSolMgr.obj
 0002:000060e8       ??_C@_05EKJA@CURVE?$AA@    100470e8     MSolMgr.obj
 0002:000060f0       ??_7CMSolMgr@@6B@          100470f0     MSolMgr.obj
 0002:00006104       ??_C@_0BD@LCCB@?5MSolMgr?7?3Loading?6?$AA@ 10047104     MSolMgr.obj
 0002:00006118       ??_C@_0BD@HFHH@?5MSolMgr?7?3Storing?6?$AA@ 10047118     MSolMgr.obj
 0002:00006130       ?classCSasePage@CSasePage@@2UCRuntimeClass@@B 10047130     SasePage.obj
 0002:00006148       ?messageMap@CSasePage@@1UAFX_MSGMAP@@B 10047148     SasePage.obj
 0002:00006150       ?_messageEntries@CSasePage@@0QBUAFX_MSGMAP_ENTRY@@B 10047150     SasePage.obj
 0002:00006168       ??_C@_09LEIA@CSasePage?$AA@ 10047168     SasePage.obj
 0002:00006174       ??_7CSasePage@@6B@         10047174     SasePage.obj
 0002:00006278       ?classCSheet_SOLI@CSheet_SOLI@@2UCRuntimeClass@@B 10047278     Sheet_SOLI.obj
 0002:00006290       ?messageMap@CSheet_SOLI@@1UAFX_MSGMAP@@B 10047290     Sheet_SOLI.obj
 0002:00006298       ?_messageEntries@CSheet_SOLI@@0QBUAFX_MSGMAP_ENTRY@@B 10047298     Sheet_SOLI.obj
 0002:000062c8       ??_C@_0M@CNOF@CSheet_SOLI?$AA@ 100472c8     Sheet_SOLI.obj
 0002:000062d4       ??_7CSheet_SOLI@@6B@       100472d4     Sheet_SOLI.obj
 0002:000063a0       ??_C@_0BC@OFAL@Gordon?5Solid?5Data?$AA@ 100473a0     Sheet_SOLI.obj
 0002:000063b4       ??_C@_0L@IOPH@Patch?5Data?$AA@ 100473b4     Sheet_SOLI.obj
 0002:000063c0       ??_C@_0BP@NJJD@Bndry?5Conditions?3?5Gordon?5Solid?$AA@ 100473c0     Sheet_SOLI.obj
 0002:000063e0       ??_C@_0BK@PBGM@Tensor?5Product?5Solid?5Data?$AA@ 100473e0     Sheet_SOLI.obj
 0002:000063fc       ??_C@_0L@DKPP@Nodal?5Data?$AA@ 100473fc     Sheet_SOLI.obj
 0002:00006408       ??_C@_0CH@HFMF@Bndry?5Conditions?3?5Tensor?5Product@ 10047408     Sheet_SOLI.obj
 0002:00006430       ??_C@_0BB@CODJ@End?5Conditions_V?$AA@ 10047430     Sheet_SOLI.obj
 0002:00006444       ??_C@_0BB@NBIA@End?5Conditions_U?$AA@ 10047444     Sheet_SOLI.obj
 0002:00006458       ??_C@_05FLN@Twist?$AA@     10047458     Sheet_SOLI.obj
 0002:00006460       ??_C@_0BB@LPFK@Coons?5Solid?5Data?$AA@ 10047460     Sheet_SOLI.obj
 0002:00006474       ??_C@_0L@MPAH@Coons?5Data?$AA@ 10047474     Sheet_SOLI.obj
 0002:00006480       ??_C@_0BE@KCPC@Sweeping?5Solid?5Data?$AA@ 10047480     Sheet_SOLI.obj
 0002:00006494       ??_C@_0L@GNDK@Sweep?5Data?$AA@ 10047494     Sheet_SOLI.obj
 0002:000064a0       ??_C@_0BC@NIFF@Ducted?5Solid?5Data?$AA@ 100474a0     Sheet_SOLI.obj
 0002:000064b4       ??_C@_09OJIB@Duct?5Data?$AA@ 100474b4     Sheet_SOLI.obj
 0002:000064c0       ??_C@_0BC@OAMA@Lofted?5Solid?5Data?$AA@ 100474c0     Sheet_SOLI.obj
 0002:000064d4       ??_C@_09DMMD@Loft?5Data?$AA@ 100474d4     Sheet_SOLI.obj
 0002:000064e0       ??_C@_0BG@HOLM@Revolution?5Solid?5Data?$AA@ 100474e0     Sheet_SOLI.obj
 0002:000064f8       ??_C@_0BA@CLJB@Revolution?5Data?$AA@ 100474f8     Sheet_SOLI.obj
 0002:00006508       ??_C@_0BF@JJKC@Extrusion?5Solid?5Data?$AA@ 10047508     Sheet_SOLI.obj
 0002:00006520       ??_C@_0P@IBHH@Extrusion?5Data?$AA@ 10047520     Sheet_SOLI.obj
 0002:00006530       ?classCSO_Xtrud@CSO_Xtrud@@2UCRuntimeClass@@B 10047530     So_xtrud.obj
 0002:00006548       ??_C@_09JIDE@CSO_Xtrud?$AA@ 10047548     So_xtrud.obj
 0002:00006558       _IID_IDocHostUIHandlerDispatch 10047558     mfcs42d:stdafx.obj
 0002:00006568       _IID_IInternalConnection   10047568     mfcs42d:stdafx.obj
 0002:00006578       _IID_IAxWinAmbientDispatch 10047578     mfcs42d:stdafx.obj
 0002:00006588       _IID_IAxWinHostWindow      10047588     mfcs42d:stdafx.obj
 0002:00006598       _IID_IRegistrar            10047598     mfcs42d:stdafx.obj
 0002:000065a8       _CLSID_Registrar           100475a8     mfcs42d:stdafx.obj
 0002:000065b8       _LIBID_ATLLib              100475b8     mfcs42d:stdafx.obj
 0002:000065e4       ??_C@_08JKC@crtdll?4c?$AA@ 100475e4     msvcrtd:crtdll.obj
 0002:000092b8       __IMPORT_DESCRIPTOR_OMgr_D32 1004a2b8     OMgr_D32:OMgr_D32.dll
 0002:000092cc       __IMPORT_DESCRIPTOR_Spec_D32 1004a2cc     Spec_d32:Spec_D32.dll
 0002:000092e0       __IMPORT_DESCRIPTOR_Draw_D32 1004a2e0     Draw_D32:Draw_D32.dll
 0002:000092f4       __IMPORT_DESCRIPTOR_Elem_D32 1004a2f4     Elem_D32:Elem_D32.dll
 0002:00009308       __IMPORT_DESCRIPTOR_OGEN_D32 1004a308     OGen_D32:OGEN_D32.dll
 0002:0000931c       __IMPORT_DESCRIPTOR_Dr3D_D32 1004a31c     Dr3D_D32:Dr3D_D32.dll
 0002:00009330       __IMPORT_DESCRIPTOR_MNod_D32 1004a330     MNod_D32:MNod_D32.dll
 0002:00009344       __IMPORT_DESCRIPTOR_MCur_D32 1004a344     MCur_D32:MCur_D32.dll
 0002:00009358       __IMPORT_DESCRIPTOR_MPat_D32 1004a358     MPat_D32:MPat_D32.dll
 0002:0000936c       __IMPORT_DESCRIPTOR_MFC42D 1004a36c     mfc42d:MFC42D.DLL
 0002:00009380       __IMPORT_DESCRIPTOR_MSVCRTD 1004a380     msvcrtd:MSVCRTD.dll
 0002:00009394       __IMPORT_DESCRIPTOR_USER32 1004a394     user32:USER32.dll
 0002:000093a8       __NULL_IMPORT_DESCRIPTOR   1004a3a8     OMgr_D32:OMgr_D32.dll
 0003:00000000       ___xc_a                    10064000     msvcrtd:cinitexe.obj
 0003:00000040       ___xc_z                    10064040     msvcrtd:cinitexe.obj
 0003:00000044       ___xi_a                    10064044     msvcrtd:cinitexe.obj
 0003:00000048       ___xi_z                    10064048     msvcrtd:cinitexe.obj
 0003:000002bc       ?__LINE__Var@?1??SetInfoForDataBase@CDlg_Loft_S@@QAEXPAVCDrSolid@@@Z@4FA 100642bc     Dlg_slof.obj
 0003:00000320       ?__LINE__Var@?1??SetInfoForDataBase@CDlg_RotP_S@@QAEXPAVCDrSolid@@@Z@4FA 10064320     Dlg_srot.obj
 0003:00000384       ?__LINE__Var@?1??SetInfoForDataBase@CDlg_Xtrd_S@@QAEXPAVCDrSolid@@@Z@4FA 10064384     Dlg_sxtr.obj
 0003:000003f0       ?classCMI_GangS@CMI_GangS@@2UCRuntimeClass@@A 100643f0     mi_gangs.obj
 0003:00000438       ?classCMS_Duc3@CMS_Duc3@@2UCRuntimeClass@@A 10064438     ms_duc3.obj
 0003:00000450       ?__LINE__Var@?1??GoDoIt@CMS_Duc3@@QAEHHHHAAVCString@@PAVCDrSolid@@PAVCDListMgr@@2PAV?$CList@W4CURVELATCH@@W41@@@2PAV?$CList@W4PATCHLATCH@@W41@@@PAV?$CList@NN@@NHNPAVCView@@@Z@4FA 10064450     ms_duc3.obj
 0003:00000454       ?__LINE__Var@?1??SetSolidDataFromPatch@CMS_Duc3@@IAEHPAVCDrPatch@@@Z@4FA 10064454     ms_duc3.obj
 0003:00000458       ?__LINE__Var@?1??GetSolidInfoFromSpine_R@CMS_Duc3@@IAEHPAVCDrCurve@@@Z@4FA 10064458     ms_duc3.obj
 0003:0000045c       ?__LINE__Var@?1??PostSolBezInfoUsingBlendingInfo@CMS_Duc3@@IAEHPAVCDrSolid@@PAVCDrCurve@@PAUWORLD@@PANHHHH@Z@4FA 1006445c     ms_duc3.obj
 0003:00000460       ?__LINE__Var@?1??PostPatBezInfo@CMS_Duc3@@IAEHPAVCDrSolid@@AAVCDListMgr@@PANHHH@Z@4FA 10064460     ms_duc3.obj
 0003:00000464       ?__LINE__Var@?1??TempPostSolBezJunctionPtsInINodeList@CMS_Duc3@@IAEHPAUWORLD@@HHHPAVCDListMgr@@@Z@4FA 10064464     ms_duc3.obj
 0003:00000468       ?__LINE__Var@?1??Copy_N_TransferBezControlInfo@CMS_Duc3@@IAEHPAVCDrCurve@@PAVCDListMgr@@AAVCString@@H@Z@4FA 10064468     ms_duc3.obj
 0003:000004a0       ?classCMS_Duct@CMS_Duct@@2UCRuntimeClass@@A 100644a0     ms_duct.obj
 0003:000004b8       ?__LINE__Var@?1??GoDoIt@CMS_Duct@@QAEHHHHAAVCString@@PAVCDrSolid@@PAVCDListMgr@@2PAV?$CList@W4CURVELATCH@@W41@@@2PAV?$CList@W4PATCHLATCH@@W41@@@PAV?$CList@NN@@NHNPAVCView@@@Z@4FA 100644b8     ms_duct.obj
 0003:000004bc       ?__LINE__Var@?1??SetSolidDataFromPatch@CMS_Duct@@IAEHPAVCDrPatch@@@Z@4FA 100644bc     ms_duct.obj
 0003:000004c0       ?__LINE__Var@?1??GetSolidInfoFromSpine_R@CMS_Duct@@IAEHPAVCDrCurve@@@Z@4FA 100644c0     ms_duct.obj
 0003:000004c4       ?__LINE__Var@?1??PostSolBezInfoUsingBlendingInfo@CMS_Duct@@IAEHPAVCDrSolid@@PAVCDrCurve@@PAUWORLD@@PANHHHH@Z@4FA 100644c4     ms_duct.obj
 0003:000004c8       ?__LINE__Var@?1??PostPatBezInfo@CMS_Duct@@IAEHPAVCDrSolid@@AAVCDListMgr@@PANHHH@Z@4FA 100644c8     ms_duct.obj
 0003:000004cc       ?__LINE__Var@?1??TempPostSolBezJunctionPtsInINodeList@CMS_Duct@@IAEHPAUWORLD@@HHHPAVCDListMgr@@@Z@4FA 100644cc     ms_duct.obj
 0003:000004d0       ?__LINE__Var@?1??Copy_N_TransferBezControlInfo@CMS_Duct@@IAEHPAVCDrCurve@@PAVCDListMgr@@AAVCString@@H@Z@4FA 100644d0     ms_duct.obj
 0003:00000508       ?classCMS_Lof32@CMS_Lof32@@2UCRuntimeClass@@A 10064508     ms_lof32.obj
 0003:00000550       ?classCMS_Lof42@CMS_Lof42@@2UCRuntimeClass@@A 10064550     ms_lof42.obj
 0003:00000598       ?classCMS_Rota3@CMS_Rota3@@2UCRuntimeClass@@A 10064598     ms_rota3.obj
 0003:000005b0       ?__LINE__Var@?1??GoDoIt@CMS_Rota3@@QAEHHHAAVCString@@PAVCDrSolid@@PAVCDListMgr@@2PAV?$CList@W4PATCHLATCH@@W41@@@AAV?$CList@HH@@NNHHHPAVCView@@@Z@4FA 100645b0     ms_rota3.obj
 0003:000005b4       ?__LINE__Var@?1??SetSolidDataFromPatch@CMS_Rota3@@IAEHPAVCDrPatch@@@Z@4FA 100645b4     ms_rota3.obj
 0003:000005b8       ?__LINE__Var@?1??PostSolCNodes_N_Wts@CMS_Rota3@@IAEHPAVCDrSolid@@PAUWORLD@@PANHHH@Z@4FA 100645b8     ms_rota3.obj
 0003:000005bc       ?__LINE__Var@?1??GetSolidInfo_R@CMS_Rota3@@IAEHPAV?$CList@HH@@NN@Z@4FA 100645bc     ms_rota3.obj
 0003:000005f0       ?classCMS_Rotat@CMS_Rotat@@2UCRuntimeClass@@A 100645f0     ms_rotat.obj
 0003:00000608       ?__LINE__Var@?1??GoDoIt@CMS_Rotat@@QAEHHHAAVCString@@PAVCDrSolid@@PAVCDListMgr@@2PAV?$CList@W4PATCHLATCH@@W41@@@AAV?$CList@HH@@NNHHHPAVCView@@@Z@4FA 10064608     ms_rotat.obj
 0003:0000060c       ?__LINE__Var@?1??SetSolidDataFromPatch@CMS_Rotat@@IAEHPAVCDrPatch@@@Z@4FA 1006460c     ms_rotat.obj
 0003:00000610       ?__LINE__Var@?1??PostSolCNodes_N_Wts@CMS_Rotat@@IAEHPAVCDrSolid@@PAUWORLD@@PANHHH@Z@4FA 10064610     ms_rotat.obj
 0003:00000614       ?__LINE__Var@?1??GetSolidInfo_R@CMS_Rotat@@IAEHPAV?$CList@HH@@NN@Z@4FA 10064614     ms_rotat.obj
 0003:00000648       ?classCMS_Swee3@CMS_Swee3@@2UCRuntimeClass@@A 10064648     ms_Swee3.obj
 0003:00000660       ?__LINE__Var@?1??GoDoIt@CMS_Swee3@@QAEHHHHHAAVCString@@PAVCDrSolid@@PAVCDListMgr@@2PAV?$CList@W4CURVELATCH@@W41@@@2PAV?$CList@W4PATCHLATCH@@W41@@@PAV?$CList@NN@@NHN5NHNPAVCView@@@Z@4FA 10064660     ms_Swee3.obj
 0003:00000664       ?__LINE__Var@?1??SetSolidDataFromPatch@CMS_Swee3@@IAEHPAVCDrPatch@@@Z@4FA 10064664     ms_Swee3.obj
 0003:00000668       ?__LINE__Var@?1??GetSolidInfoFromSpine_R@CMS_Swee3@@IAEHPAVCDrCurve@@@Z@4FA 10064668     ms_Swee3.obj
 0003:0000066c       ?__LINE__Var@?1??PostSolBezInfoUsingBlendingInfo@CMS_Swee3@@IAEHPAVCDrSolid@@PAVCDrCurve@@PAUWORLD@@PANHHHH@Z@4FA 1006466c     ms_Swee3.obj
 0003:00000670       ?__LINE__Var@?1??PostPatBezInfo@CMS_Swee3@@IAEHPAVCDrSolid@@AAVCDListMgr@@PANHHH@Z@4FA 10064670     ms_Swee3.obj
 0003:00000674       ?__LINE__Var@?1??TempPostSolBezJunctionPtsInINodeList@CMS_Swee3@@IAEHPAUWORLD@@HHHPAVCDListMgr@@@Z@4FA 10064674     ms_Swee3.obj
 0003:00000678       ?__LINE__Var@?1??Copy_N_TransferBezControlInfo@CMS_Swee3@@IAEHPAVCDrCurve@@PAVCDListMgr@@AAVCString@@H@Z@4FA 10064678     ms_Swee3.obj
 0003:000006b0       ?classCMS_Sweep@CMS_Sweep@@2UCRuntimeClass@@A 100646b0     ms_Sweep.obj
 0003:000006c8       ?__LINE__Var@?1??GoDoIt@CMS_Sweep@@QAEHHHHHAAVCString@@PAVCDrSolid@@PAVCDListMgr@@2PAV?$CList@W4CURVELATCH@@W41@@@2PAV?$CList@W4PATCHLATCH@@W41@@@PAV?$CList@NN@@NHN5NHNPAVCView@@@Z@4FA 100646c8     ms_Sweep.obj
 0003:000006cc       ?__LINE__Var@?1??SetSolidDataFromPatch@CMS_Sweep@@IAEHPAVCDrPatch@@@Z@4FA 100646cc     ms_Sweep.obj
 0003:000006d0       ?__LINE__Var@?1??GetSolidInfoFromSpine_R@CMS_Sweep@@IAEHPAVCDrCurve@@@Z@4FA 100646d0     ms_Sweep.obj
 0003:000006d4       ?__LINE__Var@?1??PostSolBezInfoUsingBlendingInfo@CMS_Sweep@@IAEHPAVCDrSolid@@PAVCDrCurve@@PAUWORLD@@PANHHHH@Z@4FA 100646d4     ms_Sweep.obj
 0003:000006d8       ?__LINE__Var@?1??PostPatBezInfo@CMS_Sweep@@IAEHPAVCDrSolid@@AAVCDListMgr@@PANHHH@Z@4FA 100646d8     ms_Sweep.obj
 0003:000006dc       ?__LINE__Var@?1??TempPostSolBezJunctionPtsInINodeList@CMS_Sweep@@IAEHPAUWORLD@@HHHPAVCDListMgr@@@Z@4FA 100646dc     ms_Sweep.obj
 0003:000006e0       ?__LINE__Var@?1??Copy_N_TransferBezControlInfo@CMS_Sweep@@IAEHPAVCDrCurve@@PAVCDListMgr@@AAVCString@@H@Z@4FA 100646e0     ms_Sweep.obj
 0003:00000718       ?classCMS_Xtru3@CMS_Xtru3@@2UCRuntimeClass@@A 10064718     Ms_xtru3.obj
 0003:00000730       ?__LINE__Var@?1??GoDoIt@CMS_Xtru3@@QAEHHHHAAVCString@@PAVCDrSolid@@PAVCDListMgr@@2PAV?$CList@W4PATCHLATCH@@W41@@@AAV?$CList@HH@@UWORLD@@NNPAVCView@@@Z@4FA 10064730     Ms_xtru3.obj
 0003:00000734       ?__LINE__Var@?1??SetSolidDataFromPatch@CMS_Xtru3@@IAEHPAVCDrPatch@@@Z@4FA 10064734     Ms_xtru3.obj
 0003:00000738       ?__LINE__Var@?1??PostSolCNodes_N_Wts@CMS_Xtru3@@IAEHPAVCDrSolid@@PAUWORLD@@PANHHH@Z@4FA 10064738     Ms_xtru3.obj
 0003:0000073c       ?__LINE__Var@?1??GetSolidInfo_R@CMS_Xtru3@@IAEHPAV?$CList@HH@@N@Z@4FA 1006473c     Ms_xtru3.obj
 0003:00000770       ?classCMS_Xtrud@CMS_Xtrud@@2UCRuntimeClass@@A 10064770     Ms_xtrud.obj
 0003:00000788       ?__LINE__Var@?1??GoDoIt@CMS_Xtrud@@QAEHHHHAAVCString@@PAVCDrSolid@@PAVCDListMgr@@2PAV?$CList@W4PATCHLATCH@@W41@@@AAV?$CList@HH@@UWORLD@@NNPAVCView@@@Z@4FA 10064788     Ms_xtrud.obj
 0003:0000078c       ?__LINE__Var@?1??SetSolidDataFromPatch@CMS_Xtrud@@IAEHPAVCDrPatch@@@Z@4FA 1006478c     Ms_xtrud.obj
 0003:00000790       ?__LINE__Var@?1??PostSolCNodes_N_Wts@CMS_Xtrud@@IAEHPAVCDrSolid@@PAUWORLD@@PANHHH@Z@4FA 10064790     Ms_xtrud.obj
 0003:00000794       ?__LINE__Var@?1??GetSolidInfo_R@CMS_Xtrud@@IAEHPAV?$CList@HH@@N@Z@4FA 10064794     Ms_xtrud.obj
 0003:000007bc       __pRawDllMain              100647bc     MSoldll.obj
 0003:000007d0       ?CuTypes@@3PAUcutypes@@A   100647d0     MSolMgr.obj
 0003:0000094c       ?nMax_CurveTypes@@3HA      1006494c     MSolMgr.obj
 0003:00000950       ?PaTypes@@3PAUpatypes@@A   10064950     MSolMgr.obj
 0003:00000ab8       ?nMax_PatchTypes@@3HA      10064ab8     MSolMgr.obj
 0003:00000ac0       ?SoTypes@@3PAUsotypes@@A   10064ac0     MSolMgr.obj
 0003:00000c28       ?nMax_SolidTypes@@3HA      10064c28     MSolMgr.obj
 0003:00000c30       ?ElTypes@@3PAUeltypes@@A   10064c30     MSolMgr.obj
 0003:00000f60       ?nMax_ElemTypes@@3HA       10064f60     MSolMgr.obj
 0003:00000f88       ?classCMSolMgr@CMSolMgr@@2UCRuntimeClass@@A 10064f88     MSolMgr.obj
 0003:00001000       ?__LINE__Var@?1??ConstructPages@CSheet_SOLI@@IAEXPAVCWnd@@@Z@4FA 10065000     Sheet_SOLI.obj
 0003:00001028       ?GUID_ATLVer30@ATL@@3U_GUID@@A 10065028     mfcs42d:stdafx.obj
 0003:00001080       ?_init_CMI_GangS@@3UAFX_CLASSINIT@@A 10065080     mi_gangs.obj
 0003:00001084       ?_init_CMS_Duc3@@3UAFX_CLASSINIT@@A 10065084     ms_duc3.obj
 0003:00001088       ?_init_CMS_Duct@@3UAFX_CLASSINIT@@A 10065088     ms_duct.obj
 0003:0000108c       ?_init_CMS_Lof32@@3UAFX_CLASSINIT@@A 1006508c     ms_lof32.obj
 0003:00001090       ?_init_CMS_Lof42@@3UAFX_CLASSINIT@@A 10065090     ms_lof42.obj
 0003:00001094       ?_init_CMS_Rota3@@3UAFX_CLASSINIT@@A 10065094     ms_rota3.obj
 0003:00001098       ?_init_CMS_Rotat@@3UAFX_CLASSINIT@@A 10065098     ms_rotat.obj
 0003:0000109c       ?_init_CMS_Swee3@@3UAFX_CLASSINIT@@A 1006509c     ms_Swee3.obj
 0003:000010a0       ?_init_CMS_Sweep@@3UAFX_CLASSINIT@@A 100650a0     ms_Sweep.obj
 0003:000010a4       ?_init_CMS_Xtru3@@3UAFX_CLASSINIT@@A 100650a4     Ms_xtru3.obj
 0003:000010a8       ?_init_CMS_Xtrud@@3UAFX_CLASSINIT@@A 100650a8     Ms_xtrud.obj
 0003:000010b0       __afxForceEXTDLL           100650b0     MSoldll.obj
 0003:000010b8       ?extensionMSol_DLL@@3UAFX_EXTENSION_MODULE@@A 100650b8     MSoldll.obj
 0003:000010cc       ?_init_CMSolMgr@@3UAFX_CLASSINIT@@A 100650cc     MSolMgr.obj
 0003:000010d0       __afxForceEXCLUDE          100650d0     mfcs42d:nolib.obj
 0003:000010d4       ?ATL_CREATE_OBJECT@CComApartment@ATL@@2IA 100650d4     mfcs42d:stdafx.obj
 0003:000010d8       ?m_libid@CComModule@ATL@@2U_GUID@@A 100650d8     mfcs42d:stdafx.obj
 0003:000010e8       ?_pModule@ATL@@3PAVCComModule@1@A 100650e8     mfcs42d:stdafx.obj
 0003:000010ec       __afxForceSTDAFX           100650ec     mfcs42d:stdafx.obj
 0003:000010f4       __adjust_fdiv              100650f4     <common>
 0003:000010f8       ___onexitend               100650f8     <common>
 0003:000010fc       ___onexitbegin             100650fc     <common>

 entry point at        0001:0003c950

 Static symbols

 0001:00039a70       _$E319                     1003aa70 f   MSolMgr.obj
 0001:00039a90       _$E318                     1003aa90 f   MSolMgr.obj
 0001:00037a20       _$E300                     10038a20 f   Ms_xtrud.obj
 0001:00037a40       _$E299                     10038a40 f   Ms_xtrud.obj
 0001:00035d50       _$E300                     10036d50 f   Ms_xtru3.obj
 0001:00035d70       _$E299                     10036d70 f   Ms_xtru3.obj
 0001:00032ed0       _$E307                     10033ed0 f   ms_Sweep.obj
 0001:00032ef0       _$E306                     10033ef0 f   ms_Sweep.obj
 0001:00030300       _$E307                     10031300 f   ms_Swee3.obj
 0001:00030320       _$E306                     10031320 f   ms_Swee3.obj
 0001:0002e5d0       _$E300                     1002f5d0 f   ms_rotat.obj
 0001:0002e5f0       _$E299                     1002f5f0 f   ms_rotat.obj
 0001:0002cc40       _$E300                     1002dc40 f   ms_rota3.obj
 0001:0002cc60       _$E299                     1002dc60 f   ms_rota3.obj
 0001:0002b810       _$E300                     1002c810 f   ms_lof42.obj
 0001:0002b830       _$E299                     1002c830 f   ms_lof42.obj
 0001:0002a720       _$E300                     1002b720 f   ms_lof32.obj
 0001:0002a740       _$E299                     1002b740 f   ms_lof32.obj
 0001:00027990       _$E307                     10028990 f   ms_duct.obj
 0001:000279b0       _$E306                     100289b0 f   ms_duct.obj
 0001:00023780       _$E307                     10024780 f   ms_duc3.obj
 0001:000237a0       _$E306                     100247a0 f   ms_duc3.obj
 0001:00021620       _$E298                     10022620 f   mi_gangs.obj
 0001:00021640       _$E297                     10022640 f   mi_gangs.obj
 0001:00010ec0       _$E299                     10011ec0 f   dlg_SI_EndCond.obj
 0001:00010ee0       _$E296                     10011ee0 f   dlg_SI_EndCond.obj
 0001:00010f10       _$E298                     10011f10 f   dlg_SI_EndCond.obj
 0001:00010f30       _$E297                     10011f30 f   dlg_SI_EndCond.obj
 0001:00010f60       _$E304                     10011f60 f   dlg_SI_EndCond.obj
 0001:00010f80       _$E301                     10011f80 f   dlg_SI_EndCond.obj
 0001:00011000       _$E303                     10012000 f   dlg_SI_EndCond.obj
 0001:00011020       _$E302                     10012020 f   dlg_SI_EndCond.obj
 0001:00011050       _$E309                     10012050 f   dlg_SI_EndCond.obj
 0001:00011070       _$E306                     10012070 f   dlg_SI_EndCond.obj
 0001:000110f0       _$E308                     100120f0 f   dlg_SI_EndCond.obj
 0001:00011110       _$E307                     10012110 f   dlg_SI_EndCond.obj
 0001:0003c790       ?ArrayUnwindFilter@@YAHPAU_EXCEPTION_POINTERS@@@Z 1003d790 f   msvcrtd:ehvecdtr.obj
