 Mdit_d32

 Timestamp is 444d81ad (Mon Apr 24 18:55:57 2006)

 Preferred load address is 10000000

 Start         Length     Name                   Class
 0001:00000000 0002c21eH .text                   CODE
 0001:0002c220 0000101fH .text$AFX_COL1          CODE
 0001:0002d240 000027efH .text$x                 CODE
 0001:0002fa2f 00062101H .textbss                CODE
 0002:00000000 00003274H .rdata                  DATA
 0002:00003278 00000e1dH .rdata$r                DATA
 0002:00004098 00001ecdH .xdata$x                DATA
 0002:00005f70 00018887H .edata                  DATA
 0003:00000000 00000104H .CRT$XCA                DATA
 0003:00000104 0000012bH .CRT$XCU                DATA
 0003:00000230 00000104H .CRT$XCZ                DATA
 0003:00000334 00000104H .CRT$XIA                DATA
 0003:00000438 00000104H .CRT$XIZ                DATA
 0003:00000540 0000099aH .data                   DATA
 0003:00000ee0 0000008cH .bss                    DATA
 0004:00000000 000000f0H .idata$2                DATA
 0004:000000f0 00000014H .idata$3                DATA
 0004:00000104 000009bcH .idata$4                DATA
 0004:00000ac0 000009bcH .idata$5                DATA
 0004:0000147c 00003015H .idata$6                DATA
 0005:00000000 00000666H .rsrc$01                DATA
 0005:00000670 00006160H .rsrc$02                DATA

  Address         Publics by Value              Rva+Base     Lib:Object

 0001:00004d40       ?GetProbLim@CMouse@@QAE?AW4PROBDIMLIM@@XZ 10005d40 f i CurMdit.obj
 0001:00004d60       ?SetProbLim@CMouse@@QAEXW4PROBDIMLIM@@@Z 10005d60 f i CurMdit.obj
 0001:00004d90       ?GetElemLim@CMouse@@QAE?AW4ELEMDIMLIM@@XZ 10005d90 f i CurMdit.obj
 0001:00004db0       ?SetElemLim@CMouse@@QAEXW4ELEMDIMLIM@@@Z 10005db0 f i CurMdit.obj
 0001:00004de0       ?GetCurrentThirdCoord@CMouse@@QAENXZ 10005de0 f i CurMdit.obj
 0001:00004e00       ?SetCurrentThirdCoord@CMouse@@QAEXN@Z 10005e00 f i CurMdit.obj
 0001:00004e30       ?GetMouseWIC@CMouse@@QAE?AULPOINT3@@XZ 10005e30 f i CurMdit.obj
 0001:00004e70       ?GetMouseOldWIC@CMouse@@QAE?AULPOINT3@@XZ 10005e70 f i CurMdit.obj
 0001:00004eb0       ?GetScrolledMouseWIC2D@CMouse@@IAE?AULPOINT@@XZ 10005eb0 f i CurMdit.obj
 0001:00004ef0       ?SetScrolledMouseWIC2D@CMouse@@IAEXULPOINT@@@Z 10005ef0 f i CurMdit.obj
 0001:00004f20       ??1CDlg_NodI@@UAE@XZ       10005f20 f i CurMdit.obj
 0001:00004fa0       ?Set3DPts@C3DMath@@QAEXPAULPOINT3@@JJJ@Z 10005fa0 f i CurMdit.obj
 0001:00004fe0       ?Set3DPts@C3DMath@@QAEXPAUWORLD@@NNN@Z 10005fe0 f i CurMdit.obj
 0001:00005040       ?Len3DPts@C3DMath@@QAENPAUWORLD@@@Z 10006040 f i CurMdit.obj
 0001:000050a0       ??1C3DMath@@UAE@XZ         100060a0 f i CurMdit.obj
 0001:000050d0       ??_GC3DMath@@UAEPAXI@Z     100060d0 f i CurMdit.obj
 0001:00005110       ??_EC3DMath@@UAEPAXI@Z     10006110 f i CurMdit.obj
 0001:000051b0       ?GetMatrix@CMatObj@@UAEPAUMATRIX@@XZ 100061b0 f i CurMdit.obj
 0001:000051d0       ?SetMatrix@CMatObj@@UAEXPAUMATRIX@@@Z 100061d0 f i CurMdit.obj
 0001:00005260       ?GetCurveLatch@CMatObj@@UAE?AW4CURVELATCH@@XZ 10006260 f i CurMdit.obj
 0001:00005280       ?SetCurveLatch@CMatObj@@UAEXW4CURVELATCH@@@Z 10006280 f i CurMdit.obj
 0001:000052b0       ?IsInstanced_Prof@CMatObj@@UAEHXZ 100062b0 f i CurMdit.obj
 0001:000052d0       ?SetInstanced_Prof@CMatObj@@UAEXH@Z 100062d0 f i CurMdit.obj
 0001:00005300       ?GetFromID@CMatObj@@UAE?AVCString@@XZ 10006300 f i CurMdit.obj
 0001:00005350       ?SetFromID@CMatObj@@UAEXVCString@@@Z 10006350 f i CurMdit.obj
 0001:000053d0       ?GetFromPt@CMatObj@@UAE?AUWORLD@@XZ 100063d0 f i CurMdit.obj
 0001:00005410       ?SetFromPt@CMatObj@@UAEXUWORLD@@@Z 10006410 f i CurMdit.obj
 0001:00005450       ?GetToID@CMatObj@@UAE?AVCString@@XZ 10006450 f i CurMdit.obj
 0001:000054a0       ?SetToID@CMatObj@@UAEXVCString@@@Z 100064a0 f i CurMdit.obj
 0001:00005520       ?GetToPt@CMatObj@@UAE?AUWORLD@@XZ 10006520 f i CurMdit.obj
 0001:00005560       ?SetToPt@CMatObj@@UAEXUWORLD@@@Z 10006560 f i CurMdit.obj
 0001:000055a0       ?GetRotPtID@CMatObj@@UAE?AVCString@@XZ 100065a0 f i CurMdit.obj
 0001:000055f0       ?SetRotPtID@CMatObj@@UAEXVCString@@@Z 100065f0 f i CurMdit.obj
 0001:00005670       ?GetRotPt@CMatObj@@UAE?AUWORLD@@XZ 10006670 f i CurMdit.obj
 0001:000056b0       ?SetRotPt@CMatObj@@UAEXUWORLD@@@Z 100066b0 f i CurMdit.obj
 0001:000056f0       ?IsCoordIn@CMatObj@@UAEHXZ 100066f0 f i CurMdit.obj
 0001:00005720       ?SetCoordIn@CMatObj@@UAEXH@Z 10006720 f i CurMdit.obj
 0001:00005750       ?GetTranPtID@CMatObj@@UAE?AVCString@@XZ 10006750 f i CurMdit.obj
 0001:000057a0       ?SetTranPtID@CMatObj@@UAEXVCString@@@Z 100067a0 f i CurMdit.obj
 0001:00005820       ?GetTranslation@CMatObj@@UAE?AUWORLD@@XZ 10006820 f i CurMdit.obj
 0001:00005860       ?SetTranslation@CMatObj@@UAEXUWORLD@@@Z 10006860 f i CurMdit.obj
 0001:000058a0       ?IsAngleIn@CMatObj@@UAEHXZ 100068a0 f i CurMdit.obj
 0001:000058d0       ?SetAngleIn@CMatObj@@UAEXH@Z 100068d0 f i CurMdit.obj
 0001:00005900       ?IsDirCos@CMatObj@@UAEHXZ  10006900 f i CurMdit.obj
 0001:00005930       ?SetDirCos@CMatObj@@UAEXH@Z 10006930 f i CurMdit.obj
 0001:00005960       ?GetDirCosDirect@CMatObj@@UAE?AUWORLD@@XZ 10006960 f i CurMdit.obj
 0001:000059a0       ?SetDirCosDirect@CMatObj@@UAEXUWORLD@@@Z 100069a0 f i CurMdit.obj
 0001:000059e0       ?GetRotation@CMatObj@@UAE?AUWORLD@@XZ 100069e0 f i CurMdit.obj
 0001:00005a20       ?SetRotation@CMatObj@@UAEXUWORLD@@@Z 10006a20 f i CurMdit.obj
 0001:00005a60       ?GetScale@CMatObj@@UAE?AUWORLD@@XZ 10006a60 f i CurMdit.obj
 0001:00005aa0       ?SetScale@CMatObj@@UAEXUWORLD@@@Z 10006aa0 f i CurMdit.obj
 0001:00005ae0       ?GetShear@CMatObj@@UAE?AUWORLD@@XZ 10006ae0 f i CurMdit.obj
 0001:00005b20       ?SetShear@CMatObj@@UAEXUWORLD@@@Z 10006b20 f i CurMdit.obj
 0001:00005b60       ?IsNoRot@CMatObj@@UAEHXZ   10006b60 f i CurMdit.obj
 0001:00005b90       ?SetNoRot@CMatObj@@UAEXH@Z 10006b90 f i CurMdit.obj
 0001:00005bc0       ?IsNoTran@CMatObj@@UAEHXZ  10006bc0 f i CurMdit.obj
 0001:00005bf0       ?SetNoTran@CMatObj@@UAEXH@Z 10006bf0 f i CurMdit.obj
 0001:00005c20       ?IsNoScale@CMatObj@@UAEHXZ 10006c20 f i CurMdit.obj
 0001:00005c50       ?SetNoScale@CMatObj@@UAEXH@Z 10006c50 f i CurMdit.obj
 0001:00005c80       ?IsNoShear@CMatObj@@UAEHXZ 10006c80 f i CurMdit.obj
 0001:00005cb0       ?SetNoShear@CMatObj@@UAEXH@Z 10006cb0 f i CurMdit.obj
 0001:00005ce0       ?GetXformType@CMatObj@@UAE?AW4XFORMTYPE@@XZ 10006ce0 f i CurMdit.obj
 0001:00005d10       ?SetXformType@CMatObj@@UAEXW4XFORMTYPE@@@Z 10006d10 f i CurMdit.obj
 0001:00005d40       ?GetSpawnType@CMatObj@@UAE?AW4SPAWNTYPE@@XZ 10006d40 f i CurMdit.obj
 0001:00005d70       ?SetSpawnType@CMatObj@@UAEXW4SPAWNTYPE@@@Z 10006d70 f i CurMdit.obj
 0001:00005da0       ?GetCreOp@CMatObj@@UAEIXZ  10006da0 f i CurMdit.obj
 0001:00005dd0       ?SetCreOp@CMatObj@@UAEXI@Z 10006dd0 f i CurMdit.obj
 0001:00005e00       ??1CMatObj@@UAE@XZ         10006e00 f i CurMdit.obj
 0001:00005ec0       ??_GCMatObj@@UAEPAXI@Z     10006ec0 f i CurMdit.obj
 0001:00005f00       ??_ECMatObj@@UAEPAXI@Z     10006f00 f i CurMdit.obj
 0001:00005fa0       ?ReadyToDelete@CDrObject@@UAEXXZ 10006fa0 f i CurMdit.obj
 0001:00005fc0       ?DoFormattedCardView@CDrObject@@UAEXPAVCString@@AAV2@@Z 10006fc0 f i CurMdit.obj
 0001:00005fe0       ?DoUnFormattedCardView@CDrObject@@UAEXPAVCString@@@Z 10006fe0 f i CurMdit.obj
 0001:00006000       ?DoDataView@CDrObject@@UAEXPAVCDC@@H@Z 10007000 f i CurMdit.obj
 0001:00006020       ?InitDraw@CDrObject@@UAEXPAVCDC@@HHPAUMATRIX@@1NNN@Z 10007020 f i CurMdit.obj
 0001:00006040       ?InitDraw@CDrObject@@UAEXPAVCDC@@HHPAUMATRIX@@1NNNN@Z 10007040 f i CurMdit.obj
 0001:00006060       ?Corner_3Dto2D@CDrObject@@UAEXXZ 10007060 f i CurMdit.obj
 0001:00006080       ?DoDrawView@CDrObject@@UAEXPAVCDC@@@Z 10007080 f i CurMdit.obj
 0001:000060a0       ?DoDrawView@CDrObject@@UAEXPAVCDC@@H@Z 100070a0 f i CurMdit.obj
 0001:000060c0       ?DoDrawView@CDrObject@@UAEXPAVCDC@@HH@Z 100070c0 f i CurMdit.obj
 0001:000060e0       ?DealObjectDialog@CDrObject@@UAEHXZ 100070e0 f i CurMdit.obj
 0001:00006100       ?TransformObjectToWorld@CDrObject@@UAEXPAUMATRIX@@H@Z 10007100 f i CurMdit.obj
 0001:00006120       ?TransformObjectToView@CDrObject@@UAEXPAUMATRIX@@@Z 10007120 f i CurMdit.obj
 0001:00006140       ?TransformObjectToViewDirect@CDrObject@@UAEXPAUMATRIX@@00H@Z 10007140 f i CurMdit.obj
 0001:00006160       ?RemoveHiddenObject@CDrObject@@UAEHPAUMATRIX@@UWORLD@@H@Z 10007160 f i CurMdit.obj
 0001:00006180       ?ProjectObject@CDrObject@@UAEXPAUMATRIX@@NN@Z 10007180 f i CurMdit.obj
 0001:000061a0       ?Calc_2DBoundsScreen@CDrObject@@UAEHXZ 100071a0 f i CurMdit.obj
 0001:000061c0       ?Calc_3DBoundsLocal@CDrObject@@UAEHXZ 100071c0 f i CurMdit.obj
 0001:000061e0       ?FinishObject@CDrObject@@UAEXPAVCClientDC@@H@Z 100071e0 f i CurMdit.obj
 0001:00006200       ?FinishObject@CDrObject@@UAEXH@Z 10007200 f i CurMdit.obj
 0001:00006220       ?FinishObject@CDrObject@@UAEXXZ 10007220 f i CurMdit.obj
 0001:00006240       ?GetMaxCorners@CDrObject@@UAEHXZ 10007240 f i CurMdit.obj
 0001:00006260       ?GetRawCoords@CDrObject@@UAEXPAJPAHH@Z 10007260 f i CurMdit.obj
 0001:00006280       ?SetProjectedCoords@CDrObject@@UAEXUtagPOINT@@H@Z 10007280 f i CurMdit.obj
 0001:000062a0       ?RearrangeProjectedCoords@CDrObject@@UAEXXZ 100072a0 f i CurMdit.obj
 0001:000062c0       ?IsObjectHit@CDrObject@@UAEHNUWORLD@@@Z 100072c0 f i CurMdit.obj
 0001:000062e0       ?IsObjectHit@CDrObject@@UAEHHUtagPOINT@@H@Z 100072e0 f i CurMdit.obj
 0001:00006300       ?IsObjectHit@CDrObject@@UAEHHUtagPOINT@@@Z 10007300 f i CurMdit.obj
 0001:00006320       ?IsObjectHit@CDrObject@@UAEHPAVCClientDC@@HUtagPOINT@@PAVCRect@@H@Z 10007320 f i CurMdit.obj
 0001:00006340       ?IsKeyMatch@CDrObject@@UAEHPAV1@VCString@@I@Z 10007340 f i CurMdit.obj
 0001:00006370       ?IsKeyMatch@CDrObject@@UAEHVCString@@I@Z 10007370 f i CurMdit.obj
 0001:000063a0       ?IsControlShapeNeeded@CDrObject@@UAEHXZ 100073a0 f i CurMdit.obj
 0001:000063c0       ?SetControlShapeNeed@CDrObject@@UAEXH@Z 100073c0 f i CurMdit.obj
 0001:000063e0       ?IsNormalNeeded@CDrObject@@UAEHXZ 100073e0 f i CurMdit.obj
 0001:00006400       ?SetNormalNeed@CDrObject@@UAEXH@Z 10007400 f i CurMdit.obj
 0001:00006420       ?IsCulled@CDrObject@@UAEHXZ 10007420 f i CurMdit.obj
 0001:00006440       ?SetCulled@CDrObject@@UAEXH@Z 10007440 f i CurMdit.obj
 0001:00006460       ?IsSkewed@CDrObject@@UAEHXZ 10007460 f i CurMdit.obj
 0001:00006480       ?SetSkewed@CDrObject@@UAEXH@Z 10007480 f i CurMdit.obj
 0001:000064a0       ?IsLinSpr@CDrObject@@UAEHXZ 100074a0 f i CurMdit.obj
 0001:000064c0       ?SetLinSpr@CDrObject@@UAEXH@Z 100074c0 f i CurMdit.obj
 0001:000064e0       ?IsLinSnu@CDrObject@@UAEHXZ 100074e0 f i CurMdit.obj
 0001:00006500       ?SetLinSnu@CDrObject@@UAEXH@Z 10007500 f i CurMdit.obj
 0001:00006520       ?CullWorld@CDrObject@@UAEHUWORLD@@@Z 10007520 f i CurMdit.obj
 0001:00006540       ?CullScreen@CDrObject@@UAEHPAUMATRIX@@@Z 10007540 f i CurMdit.obj
 0001:00006560       ?Calc_CentroidWorld@CDrObject@@UAEXXZ 10007560 f i CurMdit.obj
 0001:00006580       ?Calc_CentroidEye@CDrObject@@UAEXXZ 10007580 f i CurMdit.obj
 0001:000065a0       ?Calc_CentroidScreen3D@CDrObject@@UAEXNN@Z 100075a0 f i CurMdit.obj
 0001:000065c0       ?Calc_NormalWorld@CDrObject@@UAEXXZ 100075c0 f i CurMdit.obj
 0001:000065e0       ?TransformNormalToEye@CDrObject@@UAEXPAUMATRIX@@@Z 100075e0 f i CurMdit.obj
 0001:00006600       ?ProjectNormalToScreen3D@CDrObject@@UAEXPAUMATRIX@@NN@Z 10007600 f i CurMdit.obj
 0001:00006620       ?GetNormalWorld@CDrObject@@UAEPAUWORLD@@XZ 10007620 f i CurMdit.obj
 0001:00006640       ?SetNormalWorld@CDrObject@@UAEXUWORLD@@@Z 10007640 f i CurMdit.obj
 0001:00006660       ?GetNormalEye@CDrObject@@UAEPAUWORLD@@XZ 10007660 f i CurMdit.obj
 0001:00006680       ?SetNormalEye@CDrObject@@UAEXUWORLD@@@Z 10007680 f i CurMdit.obj
 0001:000066a0       ?GetNormalScreen3D@CDrObject@@UAEPAUWORLD@@XZ 100076a0 f i CurMdit.obj
 0001:000066c0       ?SetNormalScreen3D@CDrObject@@UAEXUWORLD@@@Z 100076c0 f i CurMdit.obj
 0001:000066e0       ?GetNormalScreen2D@CDrObject@@UAEPAUtagPOINT@@XZ 100076e0 f i CurMdit.obj
 0001:00006700       ?SetNormalScreen2D@CDrObject@@UAEXUtagPOINT@@@Z 10007700 f i CurMdit.obj
 0001:00006720       ?GetObjectList@CDrObject@@UAEPAVCDListMgr@@XZ 10007720 f i CurMdit.obj
 0001:00006740       ?GetBoundingRect@CDrObject@@QAE?AVCRect@@XZ 10007740 f i CurMdit.obj
 0001:00006790       ?GetRInfo@CDrObject@@QAEPAURENDINFO@@XZ 10007790 f i CurMdit.obj
 0001:000067b0       ?IsParallel@CDrObject@@QAEHXZ 100077b0 f i CurMdit.obj
 0001:000067e0       ?GetnView@CDrObject@@QAEHXZ 100077e0 f i CurMdit.obj
 0001:00006810       ?GetdzMin@CDrObject@@QAENXZ 10007810 f i CurMdit.obj
 0001:00006840       ?GetdScale_U@CDrObject@@QAENXZ 10007840 f i CurMdit.obj
 0001:00006870       ?GetdScale_V@CDrObject@@QAENXZ 10007870 f i CurMdit.obj
 0001:000068a0       ?GetpViewM@CDrObject@@QAEPAUMATRIX@@XZ 100078a0 f i CurMdit.obj
 0001:000068d0       ?Getpvv3DM@CDrObject@@QAEPAUMATRIX@@XZ 100078d0 f i CurMdit.obj
 0001:00006900       ?GetpComposedM@CDrObject@@QAEPAUMATRIX@@XZ 10007900 f i CurMdit.obj
 0001:00006930       ?SetParallel@CDrObject@@QAEXH@Z 10007930 f i CurMdit.obj
 0001:00006960       ?SetnView@CDrObject@@QAEXH@Z 10007960 f i CurMdit.obj
 0001:00006990       ?SetdzMin@CDrObject@@QAEXN@Z 10007990 f i CurMdit.obj
 0001:000069d0       ?SetdScale_U@CDrObject@@QAEXN@Z 100079d0 f i CurMdit.obj
 0001:00006a10       ?SetdScale_V@CDrObject@@QAEXN@Z 10007a10 f i CurMdit.obj
 0001:00006a50       ?SetpViewM@CDrObject@@QAEXPAUMATRIX@@@Z 10007a50 f i CurMdit.obj
 0001:00006a90       ?Setpvv3DM@CDrObject@@QAEXPAUMATRIX@@@Z 10007a90 f i CurMdit.obj
 0001:00006ad0       ?SetpComposedM@CDrObject@@QAEXPAUMATRIX@@@Z 10007ad0 f i CurMdit.obj
 0001:00006b10       ?GetLevelType@CDrObject@@QAEHXZ 10007b10 f i CurMdit.obj
 0001:00006b40       ?SetLevelType@CDrObject@@QAEXH@Z 10007b40 f i CurMdit.obj
 0001:00006b70       ?GetObjectID@CDrObject@@QAE?AVCString@@XZ 10007b70 f i CurMdit.obj
 0001:00006bc0       ?SetObjectID@CDrObject@@QAEXVCString@@@Z 10007bc0 f i CurMdit.obj
 0001:00006c40       ?GetObjectNo@CDrObject@@QAEJXZ 10007c40 f i CurMdit.obj
 0001:00006c70       ?SetObjectNo@CDrObject@@QAEXJ@Z 10007c70 f i CurMdit.obj
 0001:00006ca0       ?GetObjectType@CDrObject@@QAEHXZ 10007ca0 f i CurMdit.obj
 0001:00006cd0       ?SetObjectType@CDrObject@@QAEXH@Z 10007cd0 f i CurMdit.obj
 0001:00006d00       ?GetElemType@CDrObject@@QAEHXZ 10007d00 f i CurMdit.obj
 0001:00006d30       ?SetElemType@CDrObject@@QAEXH@Z 10007d30 f i CurMdit.obj
 0001:00006d60       ?GetPenInfo@CDrObject@@QAEXAAIAAK0@Z 10007d60 f i CurMdit.obj
 0001:00006db0       ?SetPenInfo@CDrObject@@QAEXIKI@Z 10007db0 f i CurMdit.obj
 0001:00006e00       ?GetPenInfoHi@CDrObject@@QAEXAAIAAK0@Z 10007e00 f i CurMdit.obj
 0001:00006e50       ?SetPenInfoHi@CDrObject@@QAEXIKI@Z 10007e50 f i CurMdit.obj
 0001:00006ea0       ?GetLayer@CDrObject@@QAEIXZ 10007ea0 f i CurMdit.obj
 0001:00006ed0       ?SetLayer@CDrObject@@QAEXI@Z 10007ed0 f i CurMdit.obj
 0001:00006f00       ?IsClipped@CDrObject@@QAEHXZ 10007f00 f i CurMdit.obj
 0001:00006f30       ?SetClipped@CDrObject@@QAEXH@Z 10007f30 f i CurMdit.obj
 0001:00006f60       ?IsVirtual@CDrObject@@QAEHXZ 10007f60 f i CurMdit.obj
 0001:00006f80       ?SetVirtual@CDrObject@@QAEXH@Z 10007f80 f i CurMdit.obj
 0001:00006fb0       ?IsShow@CDrObject@@QAEHXZ  10007fb0 f i CurMdit.obj
 0001:00006fe0       ?SetShow@CDrObject@@QAEXH@Z 10007fe0 f i CurMdit.obj
 0001:00007010       ?GetParentID@CDrObject@@QAEAAVCString@@XZ 10008010 f i CurMdit.obj
 0001:00007030       ?SetParentID@CDrObject@@QAEXAAVCString@@@Z 10008030 f i CurMdit.obj
 0001:00007060       ?GetParentType@CDrObject@@QAEIXZ 10008060 f i CurMdit.obj
 0001:00007080       ?SetParentType@CDrObject@@QAEXI@Z 10008080 f i CurMdit.obj
 0001:000070b0       ?IsInstanced@CDrObject@@QAEHXZ 100080b0 f i CurMdit.obj
 0001:000070d0       ?SetInstanced@CDrObject@@QAEXH@Z 100080d0 f i CurMdit.obj
 0001:00007100       ?GetMatObj@CDrObject@@QAEPAVCMatObj@@XZ 10008100 f i CurMdit.obj
 0001:00007120       ?SetMatObj@CDrObject@@QAEXPAVCMatObj@@@Z 10008120 f i CurMdit.obj
 0001:00007150       ?GetSpeLList@CDrObject@@QAEPAVCDListMgr@@XZ 10008150 f i CurMdit.obj
 0001:00007180       ?GetDynLList@CDrObject@@QAEPAVCDListMgr@@XZ 10008180 f i CurMdit.obj
 0001:000071b0       ?GetStaLList@CDrObject@@QAEPAVCDListMgr@@XZ 100081b0 f i CurMdit.obj
 0001:000071e0       ?GetSuppList@CDrObject@@QAEPAVCDListMgr@@XZ 100081e0 f i CurMdit.obj
 0001:00007210       ?GetElemList@CDrObject@@QAEPAVCDListMgr@@XZ 10008210 f i CurMdit.obj
 0001:00007240       ?GetCurveList@CDrObject@@QAEPAVCDListMgr@@XZ 10008240 f i CurMdit.obj
 0001:00007270       ?GetCProfList@CDrObject@@QAEPAVCDListMgr@@XZ 10008270 f i CurMdit.obj
 0001:000072a0       ?GetPatchList@CDrObject@@QAEPAVCDListMgr@@XZ 100082a0 f i CurMdit.obj
 0001:000072d0       ?GetSolidList@CDrObject@@QAEPAVCDListMgr@@XZ 100082d0 f i CurMdit.obj
 0001:00007300       ?GetObj3DList@CDrObject@@QAEPAVCDListMgr@@XZ 10008300 f i CurMdit.obj
 0001:00007330       ?GetCNodeList@CDrObject@@QAEPAVCDListMgr@@XZ 10008330 f i CurMdit.obj
 0001:00007360       ?GetINodeList@CDrObject@@QAEPAVCDListMgr@@XZ 10008360 f i CurMdit.obj
 0001:00007390       ?GetNodeList@CDrObject@@QAEPAVCDListMgr@@XZ 10008390 f i CurMdit.obj
 0001:000073c0       ?GetLabelList@CDrObject@@QAEPAVCDListMgr@@XZ 100083c0 f i CurMdit.obj
 0001:000073f0       ?GetFE0DList@CDrObject@@QAEPAVCDListMgr@@XZ 100083f0 f i CurMdit.obj
 0001:00007420       ?GetFE1DList@CDrObject@@QAEPAVCDListMgr@@XZ 10008420 f i CurMdit.obj
 0001:00007450       ?GetFE2DList@CDrObject@@QAEPAVCDListMgr@@XZ 10008450 f i CurMdit.obj
 0001:00007480       ?GetFE3DList@CDrObject@@QAEPAVCDListMgr@@XZ 10008480 f i CurMdit.obj
 0001:000074b0       ?GetMs0List@CDrObject@@QAEPAVCDListMgr@@XZ 100084b0 f i CurMdit.obj
 0001:000074e0       ?GetMs1List@CDrObject@@QAEPAVCDListMgr@@XZ 100084e0 f i CurMdit.obj
 0001:00007510       ?GetMs2List@CDrObject@@QAEPAVCDListMgr@@XZ 10008510 f i CurMdit.obj
 0001:00007540       ?GetMs3List@CDrObject@@QAEPAVCDListMgr@@XZ 10008540 f i CurMdit.obj
 0001:00007570       ?GetMbj3DList@CDrObject@@QAEPAVCDListMgr@@XZ 10008570 f i CurMdit.obj
 0001:000075a0       ?GetM2DProfList@CDrObject@@QAEPAVCDListMgr@@XZ 100085a0 f i CurMdit.obj
 0001:000075d0       ?GetM3DProfList@CDrObject@@QAEPAVCDListMgr@@XZ 100085d0 f i CurMdit.obj
 0001:00007600       ?GetMbjProfList@CDrObject@@QAEPAVCDListMgr@@XZ 10008600 f i CurMdit.obj
 0001:00007630       ?GetScreen2DCorner@CDrObject@@UAE?AUtagPOINT@@H@Z 10008630 f i CurMdit.obj
 0001:00007680       ?SetScreen2DCorner@CDrObject@@UAEXUtagPOINT@@H@Z 10008680 f i CurMdit.obj
 0001:000076c0       ?GetSpawnType@CDrObject@@QAE?AW4SPAWNTYPE@@XZ 100086c0 f i CurMdit.obj
 0001:000076e0       ?SetSpawnType@CDrObject@@QAEXW4SPAWNTYPE@@@Z 100086e0 f i CurMdit.obj
 0001:00007710       ?GetCategory@CDrObject@@QAE?AW4CATEGORY@@XZ 10008710 f i CurMdit.obj
 0001:00007730       ?SetCategory@CDrObject@@QAEXW4CATEGORY@@@Z 10008730 f i CurMdit.obj
 0001:00007760       ?GetSubCat@CDrObject@@QAE?AW4SUBCAT@@XZ 10008760 f i CurMdit.obj
 0001:00007780       ?SetSubCat@CDrObject@@QAEXW4SUBCAT@@@Z 10008780 f i CurMdit.obj
 0001:000077b0       ?GetElemDimLim@CDrObject@@QAE?AW4ELEMDIMLIM@@XZ 100087b0 f i CurMdit.obj
 0001:000077d0       ?SetElemDimLim@CDrObject@@QAEXW4ELEMDIMLIM@@@Z 100087d0 f i CurMdit.obj
 0001:00007800       ?IsDirty@CDrObject@@QAEHXZ 10008800 f i CurMdit.obj
 0001:00007830       ?SetDirty@CDrObject@@QAEXH@Z 10008830 f i CurMdit.obj
 0001:00007860       ?IsMoved@CDrObject@@QAEHXZ 10008860 f i CurMdit.obj
 0001:00007890       ?SetMoved@CDrObject@@QAEXH@Z 10008890 f i CurMdit.obj
 0001:000078c0       ?IsEdited@CDrObject@@QAEHXZ 100088c0 f i CurMdit.obj
 0001:000078f0       ?SetEdited@CDrObject@@QAEXH@Z 100088f0 f i CurMdit.obj
 0001:00007920       ?IsPosted@CDrObject@@QAEHXZ 10008920 f i CurMdit.obj
 0001:00007950       ?SetPosted@CDrObject@@QAEXH@Z 10008950 f i CurMdit.obj
 0001:00007980       ?IsDeleted@CDrObject@@QAEHXZ 10008980 f i CurMdit.obj
 0001:000079b0       ?SetDeleted@CDrObject@@QAEXH@Z 100089b0 f i CurMdit.obj
 0001:000079e0       ?IsToBeMoved@CDrObject@@QAEHXZ 100089e0 f i CurMdit.obj
 0001:00007a10       ?SetToBeMoved@CDrObject@@QAEXH@Z 10008a10 f i CurMdit.obj
 0001:00007a30       ?IsToBeEdited@CDrObject@@QAEHXZ 10008a30 f i CurMdit.obj
 0001:00007a60       ?SetToBeEdited@CDrObject@@QAEXH@Z 10008a60 f i CurMdit.obj
 0001:00007a80       ?IsToBePosted@CDrObject@@QAEHXZ 10008a80 f i CurMdit.obj
 0001:00007ab0       ?SetToBePosted@CDrObject@@QAEXH@Z 10008ab0 f i CurMdit.obj
 0001:00007ad0       ?IsToBeUnPosted@CDrObject@@QAEHXZ 10008ad0 f i CurMdit.obj
 0001:00007b00       ?SetToBeUnPosted@CDrObject@@QAEXH@Z 10008b00 f i CurMdit.obj
 0001:00007b20       ?IsToBeDeleted@CDrObject@@QAEHXZ 10008b20 f i CurMdit.obj
 0001:00007b50       ?SetToBeDeleted@CDrObject@@QAEXH@Z 10008b50 f i CurMdit.obj
 0001:00007b70       ?IsFormatted@CDrObject@@QAEHXZ 10008b70 f i CurMdit.obj
 0001:00007b90       ?SetFormatted@CDrObject@@QAEXH@Z 10008b90 f i CurMdit.obj
 0001:00007bc0       ?Parse_drPipe@CDrNode@@UAEPAUnodecard@@PAVCString@@@Z 10008bc0 f i CurMdit.obj
 0001:00007be0       ?GetNodeCard@CDrNode@@UAEPAUnodecard@@XZ 10008be0 f i CurMdit.obj
 0001:00007c10       ?GetCardNo@CDrNode@@UAEHXZ 10008c10 f i CurMdit.obj
 0001:00007c40       ?SetCardNo@CDrNode@@UAEXH@Z 10008c40 f i CurMdit.obj
 0001:00007c70       ?DoFormattedCardView@CDrNode@@UAEXPAVCString@@AAV2@@Z 10008c70 f i CurMdit.obj
 0001:00007c90       ?DoUnFormattedCardView@CDrNode@@UAEXPAVCString@@@Z 10008c90 f i CurMdit.obj
 0001:00007cb0       ?GetMaxCorners@CDrNode@@UAEHXZ 10008cb0 f i CurMdit.obj
 0001:00007cd0       ?GetCategory@CDrNode@@UAE?AW4CATEGORY@@XZ 10008cd0 f i CurMdit.obj
 0001:00007cf0       ?SetCategory@CDrNode@@UAEXW4CATEGORY@@@Z 10008cf0 f i CurMdit.obj
 0001:00007d20       ?GetPrecision@CDrNode@@UAEHXZ 10008d20 f i CurMdit.obj
 0001:00007d50       ?SetPrecision@CDrNode@@UAEXH@Z 10008d50 f i CurMdit.obj
 0001:00007d80       ?GetFormat@CDrNode@@QAE?AVCString@@XZ 10008d80 f i CurMdit.obj
 0001:00007dd0       ?SetFormat@CDrNode@@QAEXVCString@@@Z 10008dd0 f i CurMdit.obj
 0001:00007e50       ?GetMapFactor@CDrNode@@QAENXZ 10008e50 f i CurMdit.obj
 0001:00007e80       ?SetMapFactor@CDrNode@@QAEXN@Z 10008e80 f i CurMdit.obj
 0001:00007ec0       ?GetScaleFactor@CDrNode@@QAENXZ 10008ec0 f i CurMdit.obj
 0001:00007ef0       ?SetScaleFactor@CDrNode@@QAEXN@Z 10008ef0 f i CurMdit.obj
 0001:00007f30       ?GetMasterMultFac@CDrNode@@QAEJXZ 10008f30 f i CurMdit.obj
 0001:00007f60       ?SetMasterMultFac@CDrNode@@QAEXJ@Z 10008f60 f i CurMdit.obj
 0001:00007f90       ?GetLocalPos@CDrNode@@UAEPAUWORLD@@XZ 10008f90 f i CurMdit.obj
 0001:00007fc0       ?SetLocalPos@CDrNode@@UAEXUWORLD@@@Z 10008fc0 f i CurMdit.obj
 0001:00008000       ?GetWorldPos@CDrNode@@UAEPAUWORLD@@XZ 10009000 f i CurMdit.obj
 0001:00008030       ?SetWorldPos@CDrNode@@UAEXUWORLD@@@Z 10009030 f i CurMdit.obj
 0001:00008070       ?GetEyePos@CDrNode@@UAEPAUWORLD@@XZ 10009070 f i CurMdit.obj
 0001:000080a0       ?SetEyePos@CDrNode@@UAEXUWORLD@@@Z 100090a0 f i CurMdit.obj
 0001:000080e0       ?GetScreenPos3D@CDrNode@@UAEPAUWORLD@@XZ 100090e0 f i CurMdit.obj
 0001:00008110       ?SetScreenPos3D@CDrNode@@UAEXUWORLD@@@Z 10009110 f i CurMdit.obj
 0001:00008150       ?GetScreenPos2D@CDrNode@@UAEPAUtagPOINT@@XZ 10009150 f i CurMdit.obj
 0001:00008180       ?SetScreenPos2D@CDrNode@@UAEXUtagPOINT@@@Z 10009180 f i CurMdit.obj
 0001:000081c0       ?GetNormalWorld@CDrNode@@UAEPAUWORLD@@XZ 100091c0 f i CurMdit.obj
 0001:000081f0       ?SetNormalWorld@CDrNode@@UAEXUWORLD@@@Z 100091f0 f i CurMdit.obj
 0001:00008230       ?GetNormalEye@CDrNode@@UAEPAUWORLD@@XZ 10009230 f i CurMdit.obj
 0001:00008260       ?SetNormalEye@CDrNode@@UAEXUWORLD@@@Z 10009260 f i CurMdit.obj
 0001:000082a0       ?GetNormalScreen3D@CDrNode@@UAEPAUWORLD@@XZ 100092a0 f i CurMdit.obj
 0001:000082d0       ?SetNormalScreen3D@CDrNode@@UAEXUWORLD@@@Z 100092d0 f i CurMdit.obj
 0001:00008310       ?GetNormalScreen2D@CDrNode@@UAEPAUtagPOINT@@XZ 10009310 f i CurMdit.obj
 0001:00008340       ?SetNormalScreen2D@CDrNode@@UAEXUtagPOINT@@@Z 10009340 f i CurMdit.obj
 0001:00008380       ?GetLabelNo@CDrNode@@QAEJXZ 10009380 f i CurMdit.obj
 0001:000083b0       ?SetLabelNo@CDrNode@@QAEXJ@Z 100093b0 f i CurMdit.obj
 0001:000083e0       ?IsMeshNode@CDrNode@@QAEHXZ 100093e0 f i CurMdit.obj
 0001:00008410       ?SetMeshNode@CDrNode@@QAEXH@Z 10009410 f i CurMdit.obj
 0001:00008440       ?IsGenerated@CDrNode@@QAEHXZ 10009440 f i CurMdit.obj
 0001:00008470       ?SetGenerated@CDrNode@@QAEXH@Z 10009470 f i CurMdit.obj
 0001:000084a0       ?IsControlNode@CDrNode@@QAEHXZ 100094a0 f i CurMdit.obj
 0001:000084d0       ?SetControlNode@CDrNode@@QAEXH@Z 100094d0 f i CurMdit.obj
 0001:00008510       ?GetInputMode@CDrNode@@QAEHXZ 10009510 f i CurMdit.obj
 0001:00008540       ?SetInputMode@CDrNode@@QAEXH@Z 10009540 f i CurMdit.obj
 0001:00008570       ?GetLength@CDrNode@@QAENXZ 10009570 f i CurMdit.obj
 0001:000085a0       ?SetLength@CDrNode@@QAEXN@Z 100095a0 f i CurMdit.obj
 0001:000085e0       ?GetDelta@CDrNode@@QAEPAUWORLD@@XZ 100095e0 f i CurMdit.obj
 0001:00008610       ?SetDelta@CDrNode@@QAEXUWORLD@@@Z 10009610 f i CurMdit.obj
 0001:00008650       ?GetFromID@CDrNode@@QAE?AVCString@@XZ 10009650 f i CurMdit.obj
 0001:000086a0       ?SetFromID@CDrNode@@QAEXVCString@@@Z 100096a0 f i CurMdit.obj
 0001:00008720       ?GetToID@CDrNode@@QAE?AVCString@@XZ 10009720 f i CurMdit.obj
 0001:00008770       ?SetToID@CDrNode@@QAEXVCString@@@Z 10009770 f i CurMdit.obj
 0001:000087f0       ?IsRefCN@CDrNode@@QAEHXZ   100097f0 f i CurMdit.obj
 0001:00008820       ?SetRefCN@CDrNode@@QAEXH@Z 10009820 f i CurMdit.obj
 0001:00008850       ?IsFromCN@CDrNode@@QAEHXZ  10009850 f i CurMdit.obj
 0001:00008880       ?SetFromCN@CDrNode@@QAEXH@Z 10009880 f i CurMdit.obj
 0001:000088b0       ?IsToCN@CDrNode@@QAEHXZ    100098b0 f i CurMdit.obj
 0001:000088e0       ?SetToCN@CDrNode@@QAEXH@Z  100098e0 f i CurMdit.obj
 0001:00008910       ?IsSkewed@CDrNode@@UAEHXZ  10009910 f i CurMdit.obj
 0001:00008940       ?SetSkewed@CDrNode@@UAEXH@Z 10009940 f i CurMdit.obj
 0001:00008970       ?IsLinSpr@CDrNode@@UAEHXZ  10009970 f i CurMdit.obj
 0001:000089a0       ?SetLinSpr@CDrNode@@UAEXH@Z 100099a0 f i CurMdit.obj
 0001:000089d0       ?IsLinSnu@CDrNode@@UAEHXZ  100099d0 f i CurMdit.obj
 0001:00008a00       ?SetLinSnu@CDrNode@@UAEXH@Z 10009a00 f i CurMdit.obj
 0001:00008a30       ?GetSuppCardList@CDrNode@@QAEPAV?$CList@Usupportcard@@U1@@@XZ 10009a30 f i CurMdit.obj
 0001:00008a60       ?GetStaLCardList@CDrNode@@QAEPAV?$CList@UstaLcard@@U1@@@XZ 10009a60 f i CurMdit.obj
 0001:00008a90       ?GetMaxCorners@CDrLabel@@UAEHXZ 10009a90 f i CurMdit.obj
 0001:00008ab0       ?SetProjectedCoords@CDrLabel@@UAEXUtagPOINT@@H@Z 10009ab0 f i CurMdit.obj
 0001:00008af0       ?IsMoved@CDrLabel@@UAEHXZ  10009af0 f i CurMdit.obj
 0001:00008b20       ?SetMoved@CDrLabel@@UAEXH@Z 10009b20 f i CurMdit.obj
 0001:00008b50       ?GetNodePtr@CDrLabel@@UAEPAVCDrNode@@XZ 10009b50 f i CurMdit.obj
 0001:00008b80       ?SetNodePtr@CDrLabel@@UAEXPAVCDrNode@@@Z 10009b80 f i CurMdit.obj
 0001:00008bb0       ?GetContextObj@CDrLabel@@UAE?AW4CONTEXTOBJ@@XZ 10009bb0 f i CurMdit.obj
 0001:00008be0       ?SetContextObj@CDrLabel@@UAEXW4CONTEXTOBJ@@@Z 10009be0 f i CurMdit.obj
 0001:00008c10       ?GetMeshElemType@CDrLabel@@UAEIXZ 10009c10 f i CurMdit.obj
 0001:00008c40       ?SetMeshElemType@CDrLabel@@UAEXI@Z 10009c40 f i CurMdit.obj
 0001:00008c70       ?GetColor@CDrLabel@@UAEKXZ 10009c70 f i CurMdit.obj
 0001:00008ca0       ?SetColor@CDrLabel@@UAEXK@Z 10009ca0 f i CurMdit.obj
 0001:00008cd0       ?GetViewNum@CDrLabel@@UAEHXZ 10009cd0 f i CurMdit.obj
 0001:00008d00       ?SetViewNum@CDrLabel@@UAEXH@Z 10009d00 f i CurMdit.obj
 0001:00008d30       ?GetType@CDrLabel@@UAEHXZ  10009d30 f i CurMdit.obj
 0001:00008d60       ?SetType@CDrLabel@@UAEXH@Z 10009d60 f i CurMdit.obj
 0001:00008d90       ?GetText@CDrLabel@@UAE?AVCString@@XZ 10009d90 f i CurMdit.obj
 0001:00008de0       ?SetText@CDrLabel@@UAEXVCString@@@Z 10009de0 f i CurMdit.obj
 0001:00008e60       ?SetLogFont@CDrLabel@@UAEXUtagLOGFONTA@@@Z 10009e60 f i CurMdit.obj
 0001:00008ea0       ?GetLogFont@CDrLabel@@UAE?AUtagLOGFONTA@@XZ 10009ea0 f i CurMdit.obj
 0001:00008ee0       ?GetOtherCorner@CDrLabel@@UAE?AUtagPOINT@@XZ 10009ee0 f i CurMdit.obj
 0001:00008f20       ?SetOtherCorner@CDrLabel@@UAEXUtagPOINT@@@Z 10009f20 f i CurMdit.obj
 0001:00008f60       ?GetAngle@CDrLabel@@UAEHXZ 10009f60 f i CurMdit.obj
 0001:00008f90       ?SetAngle@CDrLabel@@UAEXH@Z 10009f90 f i CurMdit.obj
 0001:00008fc0       ??1CDrLabel@@UAE@XZ        10009fc0 f i CurMdit.obj
 0001:00009040       ??_GCDrLabel@@UAEPAXI@Z    1000a040 f i CurMdit.obj
 0001:00009080       ??_ECDrLabel@@UAEPAXI@Z    1000a080 f i CurMdit.obj
 0001:00009120       ??1CDlg_LQCI@@UAE@XZ       1000a120 f i CurMdit.obj
 0001:000091a0       ??1CDlg_CrcI@@UAE@XZ       1000a1a0 f i CurMdit.obj
 0001:00009220       ?IsDirty@CDrCurve@@UAEHXZ  1000a220 f i CurMdit.obj
 0001:00009250       ?SetDirty@CDrCurve@@UAEXH@Z 1000a250 f i CurMdit.obj
 0001:00009280       ?IsControlShapeNeeded@CDrCurve@@UAEHXZ 1000a280 f i CurMdit.obj
 0001:000092b0       ?SetControlShapeNeed@CDrCurve@@UAEXH@Z 1000a2b0 f i CurMdit.obj
 0001:000092e0       ?IsPosted@CDrCurve@@UAEHXZ 1000a2e0 f i CurMdit.obj
 0001:00009310       ?SetPosted@CDrCurve@@UAEXH@Z 1000a310 f i CurMdit.obj
 0001:00009340       ?GetCN_BSList@CDrCurve@@QAEPAVCDListMgr@@XZ 1000a340 f i CurMdit.obj
 0001:00009370       ?GetVNodeList@CDrCurve@@QAEPAVCDListMgr@@XZ 1000a370 f i CurMdit.obj
 0001:000093a0       ?GetMeshElemDim@CDrCurve@@QAEHXZ 1000a3a0 f i CurMdit.obj
 0001:000093d0       ?SetMeshElemDim@CDrCurve@@QAEXH@Z 1000a3d0 f i CurMdit.obj
 0001:00009400       ?IsIso@CDrCurve@@QAEHXZ    1000a400 f i CurMdit.obj
 0001:00009430       ?SetIso@CDrCurve@@QAEXH@Z  1000a430 f i CurMdit.obj
 0001:00009460       ?GetIsoToID@CDrCurve@@QAEAAVCString@@XZ 1000a460 f i CurMdit.obj
 0001:00009490       ?SetIsoToID@CDrCurve@@QAEXAAVCString@@@Z 1000a490 f i CurMdit.obj
 0001:000094c0       ?GetCompoType@CDrCurve@@QAEHXZ 1000a4c0 f i CurMdit.obj
 0001:000094f0       ?SetCompoType@CDrCurve@@QAEXH@Z 1000a4f0 f i CurMdit.obj
 0001:00009520       ?GetCompoID@CDrCurve@@QAEAAVCString@@XZ 1000a520 f i CurMdit.obj
 0001:00009550       ?SetCompoID@CDrCurve@@QAEXAAVCString@@@Z 1000a550 f i CurMdit.obj
 0001:00009580       ?GetClass_S@CDrCurve@@QAEHXZ 1000a580 f i CurMdit.obj
 0001:000095b0       ?SetClass_S@CDrCurve@@QAEXH@Z 1000a5b0 f i CurMdit.obj
 0001:000095e0       ?GetOutSegUnif_S@CDrCurve@@QAEHXZ 1000a5e0 f i CurMdit.obj
 0001:00009610       ?SetOutSegUnif_S@CDrCurve@@QAEXH@Z 1000a610 f i CurMdit.obj
 0001:00009640       ?IsClosed_S@CDrCurve@@QAEHXZ 1000a640 f i CurMdit.obj
 0001:00009670       ?SetClosed_S@CDrCurve@@QAEXH@Z 1000a670 f i CurMdit.obj
 0001:000096a0       ?GetCurveObjectType@CDrCurve@@QAEHXZ 1000a6a0 f i CurMdit.obj
 0001:000096d0       ?SetCurveObjectType@CDrCurve@@QAEXH@Z 1000a6d0 f i CurMdit.obj
 0001:00009700       ?GetMaxINodes_S@CDrCurve@@QAEHXZ 1000a700 f i CurMdit.obj
 0001:00009730       ?SetMaxINodes_S@CDrCurve@@QAEXH@Z 1000a730 f i CurMdit.obj
 0001:00009760       ?GetMaxCNodes_S@CDrCurve@@QAEHXZ 1000a760 f i CurMdit.obj
 0001:00009790       ?SetMaxCNodes_S@CDrCurve@@QAEXH@Z 1000a790 f i CurMdit.obj
 0001:000097c0       ?GetMaxBezSegments_S@CDrCurve@@QAEHXZ 1000a7c0 f i CurMdit.obj
 0001:000097f0       ?SetMaxBezSegments_S@CDrCurve@@QAEXH@Z 1000a7f0 f i CurMdit.obj
 0001:00009820       ?GetMaxOutPts_S@CDrCurve@@QAEHXZ 1000a820 f i CurMdit.obj
 0001:00009850       ?SetMaxOutPts_S@CDrCurve@@QAEXH@Z 1000a850 f i CurMdit.obj
 0001:00009880       ?GetLongOutPts@CDrCurve@@QAEJXZ 1000a880 f i CurMdit.obj
 0001:000098b0       ?SetLongOutPts@CDrCurve@@QAEXJ@Z 1000a8b0 f i CurMdit.obj
 0001:000098e0       ?GetCurveType_S@CDrCurve@@QAE?AW4CURVEPROC@@XZ 1000a8e0 f i CurMdit.obj
 0001:00009910       ?SetCurveType_S@CDrCurve@@QAEXW4CURVEPROC@@@Z 1000a910 f i CurMdit.obj
 0001:00009940       ?GetOutMethod@CDrCurve@@QAE?AW4CURVEOUTPUT@@XZ 1000a940 f i CurMdit.obj
 0001:00009970       ?GetAlfa@CDrCurve@@QAENXZ  1000a970 f i CurMdit.obj
 0001:000099a0       ?GetBias@CDrCurve@@QAENXZ  1000a9a0 f i CurMdit.obj
 0001:000099d0       ?GetTension@CDrCurve@@QAENXZ 1000a9d0 f i CurMdit.obj
 0001:00009a00       ?IsUniform_S@CDrCurve@@QAEHXZ 1000aa00 f i CurMdit.obj
 0001:00009a30       ?SetUniform_S@CDrCurve@@QAEXH@Z 1000aa30 f i CurMdit.obj
 0001:00009a60       ?SetOutMethod_S@CDrCurve@@QAEXW4CURVEOUTPUT@@@Z 1000aa60 f i CurMdit.obj
 0001:00009a90       ?GetMaxOutSeg_S@CDrCurve@@QAEHXZ 1000aa90 f i CurMdit.obj
 0001:00009ac0       ?SetMaxOutSeg_S@CDrCurve@@QAEXH@Z 1000aac0 f i CurMdit.obj
 0001:00009af0       ?GetDis_AngPointer_S@CDrCurve@@QAEPANXZ 1000aaf0 f i CurMdit.obj
 0001:00009b20       ?SetDis_AngPointer_S@CDrCurve@@QAEXPAN@Z 1000ab20 f i CurMdit.obj
 0001:00009b50       ?GetNum_tPointer_S@CDrCurve@@QAEPAHXZ 1000ab50 f i CurMdit.obj
 0001:00009b80       ?SetNum_tPointer_S@CDrCurve@@QAEXPAH@Z 1000ab80 f i CurMdit.obj
 0001:00009bb0       ?GetDis_tPointer_S@CDrCurve@@QAEPANXZ 1000abb0 f i CurMdit.obj
 0001:00009be0       ?SetDis_tPointer_S@CDrCurve@@QAEXPAN@Z 1000abe0 f i CurMdit.obj
 0001:00009c10       ?GetNum_tPointer_Ex_S@CDrCurve@@QAEPAHXZ 1000ac10 f i CurMdit.obj
 0001:00009c40       ?SetNum_tPointer_Ex_S@CDrCurve@@QAEXPAH@Z 1000ac40 f i CurMdit.obj
 0001:00009c70       ?GetnBSeg_Ex_S@CDrCurve@@QAEHXZ 1000ac70 f i CurMdit.obj
 0001:00009ca0       ?SetnBSeg_Ex_S@CDrCurve@@QAEXH@Z 1000aca0 f i CurMdit.obj
 0001:00009cd0       ?GetBSegPointer_Ex_S@CDrCurve@@QAEPAHXZ 1000acd0 f i CurMdit.obj
 0001:00009d00       ?SetBSegPointer_Ex_S@CDrCurve@@QAEXPAH@Z 1000ad00 f i CurMdit.obj
 0001:00009d30       ?SetAlfa@CDrCurve@@QAEXN@Z 1000ad30 f i CurMdit.obj
 0001:00009d70       ?SetBias@CDrCurve@@QAEXN@Z 1000ad70 f i CurMdit.obj
 0001:00009db0       ?SetTension@CDrCurve@@QAEXN@Z 1000adb0 f i CurMdit.obj
 0001:00009df0       ?GetMemIn@CDrCurve@@QAEPAUWORLD@@XZ 1000adf0 f i CurMdit.obj
 0001:00009e20       ?GetMemInWts@CDrCurve@@QAEPANXZ 1000ae20 f i CurMdit.obj
 0001:00009e50       ?GetMemInDP@CDrCurve@@QAEPAUtagPOINT@@XZ 1000ae50 f i CurMdit.obj
 0001:00009e80       ?GetMemOut@CDrCurve@@QAEPAUWORLD@@XZ 1000ae80 f i CurMdit.obj
 0001:00009eb0       ?GetMemOutWts@CDrCurve@@QAEPANXZ 1000aeb0 f i CurMdit.obj
 0001:00009ee0       ?GetMemOutDP@CDrCurve@@QAEPAUtagPOINT@@XZ 1000aee0 f i CurMdit.obj
 0001:00009f10       ?SetMemIn@CDrCurve@@QAEXPAUWORLD@@@Z 1000af10 f i CurMdit.obj
 0001:00009f40       ?SetMemInWts@CDrCurve@@QAEXPAN@Z 1000af40 f i CurMdit.obj
 0001:00009f70       ?SetMemInDP@CDrCurve@@QAEXPAUtagPOINT@@@Z 1000af70 f i CurMdit.obj
 0001:00009fa0       ?SetMemOut@CDrCurve@@QAEXPAUWORLD@@@Z 1000afa0 f i CurMdit.obj
 0001:00009fd0       ?SetMemOutWts@CDrCurve@@QAEXPAN@Z 1000afd0 f i CurMdit.obj
 0001:0000a000       ?SetMemOutDP@CDrCurve@@QAEXPAUtagPOINT@@@Z 1000b000 f i CurMdit.obj
 0001:0000a030       ?FixMemD@CDrCurve@@QAEPANJ@Z 1000b030 f i CurMdit.obj
 0001:0000a080       ?FreeMemD@CDrCurve@@QAEXPAN@Z 1000b080 f i CurMdit.obj
 0001:0000a0b0       ?FixMem@CDrCurve@@QAEPAUWORLD@@J@Z 1000b0b0 f i CurMdit.obj
 0001:0000a100       ?FreeMem@CDrCurve@@QAEXPAUWORLD@@@Z 1000b100 f i CurMdit.obj
 0001:0000a130       ?FixMemDP@CDrCurve@@QAEPAUtagPOINT@@J@Z 1000b130 f i CurMdit.obj
 0001:0000a180       ?FreeMemDP@CDrCurve@@QAEXPAUtagPOINT@@@Z 1000b180 f i CurMdit.obj
 0001:0000a1b0       ?GetData_S@CDrCurve@@QAEHXZ 1000b1b0 f i CurMdit.obj
 0001:0000a1e0       ?SetData_S@CDrCurve@@QAEXH@Z 1000b1e0 f i CurMdit.obj
 0001:0000a210       ?GetOrder_S@CDrCurve@@QAEHXZ 1000b210 f i CurMdit.obj
 0001:0000a240       ?SetOrder_S@CDrCurve@@QAEXH@Z 1000b240 f i CurMdit.obj
 0001:0000a270       ?GetKnotType_S@CDrCurve@@QAE?AW4KNOT@@XZ 1000b270 f i CurMdit.obj
 0001:0000a2a0       ?SetKnotType_S@CDrCurve@@QAEXW4KNOT@@@Z 1000b2a0 f i CurMdit.obj
 0001:0000a2d0       ?GetWtType_S@CDrCurve@@QAE?AW4WEIGHT@@XZ 1000b2d0 f i CurMdit.obj
 0001:0000a300       ?SetWtType_S@CDrCurve@@QAEXW4WEIGHT@@@Z 1000b300 f i CurMdit.obj
 0001:0000a330       ?GetBCL_S@CDrCurve@@QAE?AW4BOUNDARY@@XZ 1000b330 f i CurMdit.obj
 0001:0000a360       ?SetBCL_S@CDrCurve@@QAEXW4BOUNDARY@@@Z 1000b360 f i CurMdit.obj
 0001:0000a390       ?GetBCR_S@CDrCurve@@QAE?AW4BOUNDARY@@XZ 1000b390 f i CurMdit.obj
 0001:0000a3c0       ?SetBCR_S@CDrCurve@@QAEXW4BOUNDARY@@@Z 1000b3c0 f i CurMdit.obj
 0001:0000a3f0       ?GetTanL_S@CDrCurve@@QAE?AUVECTOR@@XZ 1000b3f0 f i CurMdit.obj
 0001:0000a430       ?SetTanL_S@CDrCurve@@QAEXUVECTOR@@@Z 1000b430 f i CurMdit.obj
 0001:0000a470       ?GetTanR_S@CDrCurve@@QAE?AUVECTOR@@XZ 1000b470 f i CurMdit.obj
 0001:0000a4b0       ?SetTanR_S@CDrCurve@@QAEXUVECTOR@@@Z 1000b4b0 f i CurMdit.obj
 0001:0000a4f0       ?GetnCon_BS_S@CDrCurve@@QAEHXZ 1000b4f0 f i CurMdit.obj
 0001:0000a520       ?SetnCon_BS_S@CDrCurve@@QAEXH@Z 1000b520 f i CurMdit.obj
 0001:0000a550       ?GetnCon_BZ_S@CDrCurve@@QAEHXZ 1000b550 f i CurMdit.obj
 0001:0000a580       ?SetnCon_BZ_S@CDrCurve@@QAEXH@Z 1000b580 f i CurMdit.obj
 0001:0000a5b0       ?GetnMKnots_S@CDrCurve@@QAEHXZ 1000b5b0 f i CurMdit.obj
 0001:0000a5e0       ?SetnMKnots_S@CDrCurve@@QAEXH@Z 1000b5e0 f i CurMdit.obj
 0001:0000a610       ?GetnKnots_S@CDrCurve@@QAEHXZ 1000b610 f i CurMdit.obj
 0001:0000a640       ?SetnKnots_S@CDrCurve@@QAEXH@Z 1000b640 f i CurMdit.obj
 0001:0000a670       ?GetnDim_S@CDrCurve@@QAEHXZ 1000b670 f i CurMdit.obj
 0001:0000a6a0       ?SetnDim_S@CDrCurve@@QAEXH@Z 1000b6a0 f i CurMdit.obj
 0001:0000a6d0       ?GetpMKnots_S@CDrCurve@@QAEPANXZ 1000b6d0 f i CurMdit.obj
 0001:0000a700       ?SetpMKnots_S@CDrCurve@@QAEXPAN@Z 1000b700 f i CurMdit.obj
 0001:0000a730       ?GetpWts_BS_S@CDrCurve@@QAEPANXZ 1000b730 f i CurMdit.obj
 0001:0000a760       ?SetpWts_BS_S@CDrCurve@@QAEXPAN@Z 1000b760 f i CurMdit.obj
 0001:0000a790       ?GetpKnots_S@CDrCurve@@QAEPANXZ 1000b790 f i CurMdit.obj
 0001:0000a7c0       ?SetpKnots_S@CDrCurve@@QAEXPAN@Z 1000b7c0 f i CurMdit.obj
 0001:0000a7f0       ?GetpWts_DT_S@CDrCurve@@QAEPANXZ 1000b7f0 f i CurMdit.obj
 0001:0000a820       ?SetpWts_DT_S@CDrCurve@@QAEXPAN@Z 1000b820 f i CurMdit.obj
 0001:0000a850       ?GetpWts_BZ_S@CDrCurve@@QAEPANXZ 1000b850 f i CurMdit.obj
 0001:0000a880       ?SetpWts_BZ_S@CDrCurve@@QAEXPAN@Z 1000b880 f i CurMdit.obj
 0001:0000a8b0       ?GetFromIDNode_S@CDrCurve@@QAEPAVCDrNode@@XZ 1000b8b0 f i CurMdit.obj
 0001:0000a8e0       ?SetFromIDNode_S@CDrCurve@@QAEXPAVCDrNode@@@Z 1000b8e0 f i CurMdit.obj
 0001:0000a910       ?GetToIDNode_S@CDrCurve@@QAEPAVCDrNode@@XZ 1000b910 f i CurMdit.obj
 0001:0000a940       ?SetToIDNode_S@CDrCurve@@QAEXPAVCDrNode@@@Z 1000b940 f i CurMdit.obj
 0001:0000a970       ?GetData_Ex_S@CDrCurve@@QAEHXZ 1000b970 f i CurMdit.obj
 0001:0000a9a0       ?SetData_Ex_S@CDrCurve@@QAEXH@Z 1000b9a0 f i CurMdit.obj
 0001:0000a9d0       ?IsExpanded_S@CDrCurve@@QAEHXZ 1000b9d0 f i CurMdit.obj
 0001:0000aa00       ?SetExpanded_S@CDrCurve@@QAEXH@Z 1000ba00 f i CurMdit.obj
 0001:0000aa30       ?GetMaxENodes_S@CDrCurve@@QAEHXZ 1000ba30 f i CurMdit.obj
 0001:0000aa60       ?SetMaxENodes_S@CDrCurve@@QAEXH@Z 1000ba60 f i CurMdit.obj
 0001:0000aa90       ?GetRadius_S@CDrCurve@@QAENXZ 1000ba90 f i CurMdit.obj
 0001:0000aac0       ?SetRadius_S@CDrCurve@@QAEXN@Z 1000bac0 f i CurMdit.obj
 0001:0000ab00       ?GetTheta_S@CDrCurve@@QAENXZ 1000bb00 f i CurMdit.obj
 0001:0000ab30       ?SetTheta_S@CDrCurve@@QAEXN@Z 1000bb30 f i CurMdit.obj
 0001:0000ab70       ?GetCenter_S@CDrCurve@@QAE?AUWORLD@@XZ 1000bb70 f i CurMdit.obj
 0001:0000abb0       ?SetCenter_S@CDrCurve@@QAEXUWORLD@@@Z 1000bbb0 f i CurMdit.obj
 0001:0000ac20       ?GetNormal_S@CDrCurve@@QAE?AUWORLD@@XZ 1000bc20 f i CurMdit.obj
 0001:0000ac60       ?SetNormal_S@CDrCurve@@QAEXUWORLD@@@Z 1000bc60 f i CurMdit.obj
 0001:0000acd0       ?GetSegAngle_S@CDrCurve@@QAENXZ 1000bcd0 f i CurMdit.obj
 0001:0000ad00       ?SetSegAngle_S@CDrCurve@@QAEXN@Z 1000bd00 f i CurMdit.obj
 0001:0000ad40       ?GetCNode_CC@CDrCurve@@QAEPAVCDrNode@@XZ 1000bd40 f i CurMdit.obj
 0001:0000ad70       ?SetCNode_CC@CDrCurve@@QAEXPAVCDrNode@@@Z 1000bd70 f i CurMdit.obj
 0001:0000ada0       ?GetCNode_TI@CDrCurve@@QAEPAVCDrNode@@XZ 1000bda0 f i CurMdit.obj
 0001:0000add0       ?SetCNode_TI@CDrCurve@@QAEXPAVCDrNode@@@Z 1000bdd0 f i CurMdit.obj
 0001:0000ae00       ?GetCNode_CA@CDrCurve@@QAEPAVCDrNode@@XZ 1000be00 f i CurMdit.obj
 0001:0000ae30       ?SetCNode_CA@CDrCurve@@QAEXPAVCDrNode@@@Z 1000be30 f i CurMdit.obj
 0001:0000ae60       ?GetCNode_CB@CDrCurve@@QAEPAVCDrNode@@XZ 1000be60 f i CurMdit.obj
 0001:0000ae90       ?SetCNode_CB@CDrCurve@@QAEXPAVCDrNode@@@Z 1000be90 f i CurMdit.obj
 0001:0000aec0       ?IsHole_S@CDrCurve@@QAEHXZ 1000bec0 f i CurMdit.obj
 0001:0000aef0       ?SetHole_S@CDrCurve@@QAEXH@Z 1000bef0 f i CurMdit.obj
 0001:0000af20       ?GetpTangents_S@CDrCurve@@QAEPAUWORLD@@XZ 1000bf20 f i CurMdit.obj
 0001:0000af50       ?SetpTangents_S@CDrCurve@@QAEXPAUWORLD@@@Z 1000bf50 f i CurMdit.obj
 0001:0000af80       ?GetpCurvatures_S@CDrCurve@@QAEPANXZ 1000bf80 f i CurMdit.obj
 0001:0000afb0       ?SetpCurvatures_S@CDrCurve@@QAEXPAN@Z 1000bfb0 f i CurMdit.obj
 0001:0000afe0       ?GetRatio_S@CDrCurve@@QAENXZ 1000bfe0 f i CurMdit.obj
 0001:0000b010       ?SetRatio_S@CDrCurve@@QAEXN@Z 1000c010 f i CurMdit.obj
 0001:0000b050       ?IsAxisInput@CDrCurve@@QAEHXZ 1000c050 f i CurMdit.obj
 0001:0000b080       ?SetAxisInput@CDrCurve@@QAEXH@Z 1000c080 f i CurMdit.obj
 0001:0000b0b0       ?GetAxis@CDrCurve@@QAEHXZ  1000c0b0 f i CurMdit.obj
 0001:0000b0e0       ?SetAxis@CDrCurve@@QAEXH@Z 1000c0e0 f i CurMdit.obj
 0001:0000b110       ?IsNegative@CDrCurve@@QAEHXZ 1000c110 f i CurMdit.obj
 0001:0000b140       ?SetNegative@CDrCurve@@QAEXH@Z 1000c140 f i CurMdit.obj
 0001:0000b170       ?GetCircleType@CDrCurve@@QAE?AW4CIRCLETYPE@@XZ 1000c170 f i CurMdit.obj
 0001:0000b1a0       ?SetCircleType@CDrCurve@@QAEXW4CIRCLETYPE@@@Z 1000c1a0 f i CurMdit.obj
 0001:0000b1d0       ?GetInputType@CDrCurve@@QAEHXZ 1000c1d0 f i CurMdit.obj
 0001:0000b200       ?SetInputType@CDrCurve@@QAEXH@Z 1000c200 f i CurMdit.obj
 0001:0000b230       ?IsArcType@CDrCurve@@QAEHXZ 1000c230 f i CurMdit.obj
 0001:0000b260       ?SetArcType@CDrCurve@@QAEXH@Z 1000c260 f i CurMdit.obj
 0001:0000b290       ?GetElperSegList_S@CDrCurve@@QAEPAV?$CList@HH@@XZ 1000c290 f i CurMdit.obj
 0001:0000b2c0       ?IsSkewed@CDrCurve@@UAEHXZ 1000c2c0 f i CurMdit.obj
 0001:0000b2f0       ?SetSkewed@CDrCurve@@UAEXH@Z 1000c2f0 f i CurMdit.obj
 0001:0000b320       ?IsLinSpr@CDrCurve@@UAEHXZ 1000c320 f i CurMdit.obj
 0001:0000b350       ?SetLinSpr@CDrCurve@@UAEXH@Z 1000c350 f i CurMdit.obj
 0001:0000b380       ?IsLinSnu@CDrCurve@@UAEHXZ 1000c380 f i CurMdit.obj
 0001:0000b3b0       ?SetLinSnu@CDrCurve@@UAEXH@Z 1000c3b0 f i CurMdit.obj
 0001:0000b3e0       ?CullWorld@CDrCurve@@UAEHUWORLD@@@Z 1000c3e0 f i CurMdit.obj
 0001:0000b400       ?CullScreen@CDrCurve@@UAEHPAUMATRIX@@@Z 1000c400 f i CurMdit.obj
 0001:0000b420       ?Calc_CentroidWorld@CDrCurve@@UAEXXZ 1000c420 f i CurMdit.obj
 0001:0000b440       ?Calc_CentroidEye@CDrCurve@@UAEXXZ 1000c440 f i CurMdit.obj
 0001:0000b460       ?Calc_CentroidScreen3D@CDrCurve@@UAEXNN@Z 1000c460 f i CurMdit.obj
 0001:0000b480       ?Calc_NormalWorld@CDrCurve@@UAEXXZ 1000c480 f i CurMdit.obj
 0001:0000b4a0       ?TransformNormalToEye@CDrCurve@@UAEXPAUMATRIX@@@Z 1000c4a0 f i CurMdit.obj
 0001:0000b4c0       ?ProjectNormalToScreen3D@CDrCurve@@UAEXPAUMATRIX@@NN@Z 1000c4c0 f i CurMdit.obj
 0001:0000b4e0       ?GetNormalWorld@CDrCurve@@UAEPAUWORLD@@XZ 1000c4e0 f i CurMdit.obj
 0001:0000b500       ?SetNormalWorld@CDrCurve@@UAEXUWORLD@@@Z 1000c500 f i CurMdit.obj
 0001:0000b520       ?GetNormalEye@CDrCurve@@UAEPAUWORLD@@XZ 1000c520 f i CurMdit.obj
 0001:0000b540       ?SetNormalEye@CDrCurve@@UAEXUWORLD@@@Z 1000c540 f i CurMdit.obj
 0001:0000b560       ?GetNormalScreen3D@CDrCurve@@UAEPAUWORLD@@XZ 1000c560 f i CurMdit.obj
 0001:0000b580       ?SetNormalScreen3D@CDrCurve@@UAEXUWORLD@@@Z 1000c580 f i CurMdit.obj
 0001:0000b5a0       ?GetNormalScreen2D@CDrCurve@@UAEPAUtagPOINT@@XZ 1000c5a0 f i CurMdit.obj
 0001:0000b5c0       ?SetNormalScreen2D@CDrCurve@@UAEXUtagPOINT@@@Z 1000c5c0 f i CurMdit.obj
 0001:0000b5e0       ?GetNodTopoList@CDrCurve@@QAEPAVCDListMgr@@XZ 1000c5e0 f i CurMdit.obj
 0001:0000b610       ?GetSuppCardList@CDrCurve@@QAEPAV?$CList@Usupportcard@@U1@@@XZ 1000c610 f i CurMdit.obj
 0001:0000b640       ?GetStaLCardList@CDrCurve@@QAEPAV?$CList@UstaLcard@@U1@@@XZ 1000c640 f i CurMdit.obj
 0001:0000b670       ?GetBndryPtList@CDrCurve@@QAEPAV?$CList@UWORLD@@U1@@@XZ 1000c670 f i CurMdit.obj
 0001:0000b6a0       ?GetBezierType@CDrCurve@@QAE?AW4BEZIERTYPE@@XZ 1000c6a0 f i CurMdit.obj
 0001:0000b6d0       ?SetBezierType@CDrCurve@@QAEXW4BEZIERTYPE@@@Z 1000c6d0 f i CurMdit.obj
 0001:0000b700       ?IsSubDivided@CTriangle@@UAEHXZ 1000c700 f i CurMdit.obj
 0001:0000b720       ?SetSubDivided@CTriangle@@UAEXH@Z 1000c720 f i CurMdit.obj
 0001:0000b750       ?GetSubTriangleIndex@CTriangle@@UAEHH@Z 1000c750 f i CurMdit.obj
 0001:0000b780       ?SetSubTriangleIndex@CTriangle@@UAEXHH@Z 1000c780 f i CurMdit.obj
 0001:0000b7b0       ?GetType@CTriangle@@UAEHXZ 1000c7b0 f i CurMdit.obj
 0001:0000b7d0       ?SetType@CTriangle@@UAEXH@Z 1000c7d0 f i CurMdit.obj
 0001:0000b800       ?GetCNIndexList@CTriangle@@UAEPAV?$CList@HH@@XZ 1000c800 f i CurMdit.obj
 0001:0000b820       ?GetPatIndex@CTriangle@@UAEHXZ 1000c820 f i CurMdit.obj
 0001:0000b840       ?SetPatIndex@CTriangle@@UAEXH@Z 1000c840 f i CurMdit.obj
 0001:0000b870       ?GetDegree@CTriangle@@UAEHXZ 1000c870 f i CurMdit.obj
 0001:0000b890       ?SetDegree@CTriangle@@UAEXH@Z 1000c890 f i CurMdit.obj
 0001:0000b8c0       ?GetVertexIndex@CTriangle@@UAEHH@Z 1000c8c0 f i CurMdit.obj
 0001:0000b8f0       ?SetVertexIndex@CTriangle@@UAEXHH@Z 1000c8f0 f i CurMdit.obj
 0001:0000b920       ?GetVertexIndex@CTriangle@@UAEPAHXZ 1000c920 f i CurMdit.obj
 0001:0000b940       ?GetNebrVertexIndex@CTriangle@@UAEHH@Z 1000c940 f i CurMdit.obj
 0001:0000b970       ?SetNebrVertexIndex@CTriangle@@UAEXHH@Z 1000c970 f i CurMdit.obj
 0001:0000b9a0       ?GetNebrVertexIndex@CTriangle@@UAEPAHXZ 1000c9a0 f i CurMdit.obj
 0001:0000b9c0       ?GetNebrTriangleIndex@CTriangle@@UAEHH@Z 1000c9c0 f i CurMdit.obj
 0001:0000b9f0       ?SetNebrTriangleIndex@CTriangle@@UAEXHH@Z 1000c9f0 f i CurMdit.obj
 0001:0000ba20       ?GetNebrTriangleIndex@CTriangle@@UAEPAHXZ 1000ca20 f i CurMdit.obj
 0001:0000ba40       ?GetOutSeg@CTriangle@@UAEHXZ 1000ca40 f i CurMdit.obj
 0001:0000ba60       ?SetOutSeg@CTriangle@@UAEXH@Z 1000ca60 f i CurMdit.obj
 0001:0000ba90       ?GetiOutGlo@CTriangle@@UAEHXZ 1000ca90 f i CurMdit.obj
 0001:0000bac0       ?SetiOutGlo@CTriangle@@UAEXH@Z 1000cac0 f i CurMdit.obj
 0001:0000baf0       ?GetjOutGlo@CTriangle@@UAEHXZ 1000caf0 f i CurMdit.obj
 0001:0000bb20       ?SetjOutGlo@CTriangle@@UAEXH@Z 1000cb20 f i CurMdit.obj
 0001:0000bb50       ??1CTriangle@@UAE@XZ       1000cb50 f i CurMdit.obj
 0001:0000bbd0       ??_GCTriangle@@UAEPAXI@Z   1000cbd0 f i CurMdit.obj
 0001:0000bc10       ??_ECTriangle@@UAEPAXI@Z   1000cc10 f i CurMdit.obj
 0001:0000bcb0       ?GetCategory@CDrPatch@@UAE?AW4CATEGORY@@XZ 1000ccb0 f i CurMdit.obj
 0001:0000bcd0       ?SetCategory@CDrPatch@@UAEXW4CATEGORY@@@Z 1000ccd0 f i CurMdit.obj
 0001:0000bd00       ?IsNormalNeeded@CDrPatch@@UAEHXZ 1000cd00 f i CurMdit.obj
 0001:0000bd30       ?SetNormalNeed@CDrPatch@@UAEXH@Z 1000cd30 f i CurMdit.obj
 0001:0000bd60       ?GetCurveType_T@CDrPatch@@QAE?AW4CURVEPROC@@XZ 1000cd60 f i CurMdit.obj
 0001:0000bd90       ?SetCurveType_T@CDrPatch@@QAEXW4CURVEPROC@@@Z 1000cd90 f i CurMdit.obj
 0001:0000bdc0       ?GetOutSegUnif_T@CDrPatch@@QAEHXZ 1000cdc0 f i CurMdit.obj
 0001:0000bdf0       ?SetOutSegUnif_T@CDrPatch@@QAEXH@Z 1000cdf0 f i CurMdit.obj
 0001:0000be20       ?IsClosed_T@CDrPatch@@QAEHXZ 1000ce20 f i CurMdit.obj
 0001:0000be50       ?SetClosed_T@CDrPatch@@QAEXH@Z 1000ce50 f i CurMdit.obj
 0001:0000be80       ?GetMaxBezSegments_T@CDrPatch@@QAEHXZ 1000ce80 f i CurMdit.obj
 0001:0000beb0       ?SetMaxBezSegments_T@CDrPatch@@QAEXH@Z 1000ceb0 f i CurMdit.obj
 0001:0000bee0       ?GetMaxCNodes_T@CDrPatch@@QAEHXZ 1000cee0 f i CurMdit.obj
 0001:0000bf10       ?SetMaxCNodes_T@CDrPatch@@QAEXH@Z 1000cf10 f i CurMdit.obj
 0001:0000bf40       ?GetMaxOutPts_T@CDrPatch@@QAEHXZ 1000cf40 f i CurMdit.obj
 0001:0000bf70       ?SetMaxOutPts_T@CDrPatch@@QAEXH@Z 1000cf70 f i CurMdit.obj
 0001:0000bfa0       ?GetNodes_S@CDrPatch@@QAEHXZ 1000cfa0 f i CurMdit.obj
 0001:0000bfd0       ?SetNodes_S@CDrPatch@@QAEXH@Z 1000cfd0 f i CurMdit.obj
 0001:0000c000       ?GetNodes_T@CDrPatch@@QAEHXZ 1000d000 f i CurMdit.obj
 0001:0000c030       ?SetNodes_T@CDrPatch@@QAEXH@Z 1000d030 f i CurMdit.obj
 0001:0000c060       ?GetPrimaryDir@CDrPatch@@QAEHXZ 1000d060 f i CurMdit.obj
 0001:0000c090       ?SetPrimaryDir@CDrPatch@@QAEXH@Z 1000d090 f i CurMdit.obj
 0001:0000c0c0       ?GetBlendCurve@CDrPatch@@QAEPAVCDrCurve@@XZ 1000d0c0 f i CurMdit.obj
 0001:0000c0f0       ?SetBlendCurve@CDrPatch@@QAEXPAVCDrCurve@@@Z 1000d0f0 f i CurMdit.obj
 0001:0000c120       ?GetBlendCurve_U@CDrPatch@@QAEPAVCDrCurve@@XZ 1000d120 f i CurMdit.obj
 0001:0000c150       ?SetBlendCurve_U@CDrPatch@@QAEXPAVCDrCurve@@@Z 1000d150 f i CurMdit.obj
 0001:0000c180       ?GetBlendCurve_V@CDrPatch@@QAEPAVCDrCurve@@XZ 1000d180 f i CurMdit.obj
 0001:0000c1b0       ?SetBlendCurve_V@CDrPatch@@QAEXPAVCDrCurve@@@Z 1000d1b0 f i CurMdit.obj
 0001:0000c1e0       ?GetBlendCurve_W@CDrPatch@@QAEPAVCDrCurve@@XZ 1000d1e0 f i CurMdit.obj
 0001:0000c210       ?SetBlendCurve_W@CDrPatch@@QAEXPAVCDrCurve@@@Z 1000d210 f i CurMdit.obj
 0001:0000c240       ?GetVCurveList@CDrPatch@@QAEPAVCDListMgr@@XZ 1000d240 f i CurMdit.obj
 0001:0000c270       ?GetCurveList_U@CDrPatch@@QAEPAVCDListMgr@@XZ 1000d270 f i CurMdit.obj
 0001:0000c2a0       ?GetCurveList_V@CDrPatch@@QAEPAVCDListMgr@@XZ 1000d2a0 f i CurMdit.obj
 0001:0000c2d0       ?GetCurveList_W@CDrPatch@@QAEPAVCDListMgr@@XZ 1000d2d0 f i CurMdit.obj
 0001:0000c300       ?GetCurveLatchList_U@CDrPatch@@QAEPAV?$CList@W4CURVELATCH@@W41@@@XZ 1000d300 f i CurMdit.obj
 0001:0000c330       ?GetCurveLatchList_V@CDrPatch@@QAEPAV?$CList@W4CURVELATCH@@W41@@@XZ 1000d330 f i CurMdit.obj
 0001:0000c360       ?GetCurveLatchList_W@CDrPatch@@QAEPAV?$CList@W4CURVELATCH@@W41@@@XZ 1000d360 f i CurMdit.obj
 0001:0000c390       ?IsAdvancedEnd_U@CDrPatch@@QAEHXZ 1000d390 f i CurMdit.obj
 0001:0000c3c0       ?SetAdvancedEnd_U@CDrPatch@@QAEXH@Z 1000d3c0 f i CurMdit.obj
 0001:0000c3f0       ?GetCornerTwist_U@CDrPatch@@QAEPAY01UWORLD@@XZ 1000d3f0 f i CurMdit.obj
 0001:0000c420       ?SetCornerTwist_U@CDrPatch@@QAEXPAY01UWORLD@@@Z 1000d420 f i CurMdit.obj
 0001:0000c450       ?GetTwistMethod_U@CDrPatch@@QAE?AW4TWIST@@XZ 1000d450 f i CurMdit.obj
 0001:0000c480       ?SetTwistMethod_U@CDrPatch@@QAEXW4TWIST@@@Z 1000d480 f i CurMdit.obj
 0001:0000c4b0       ?IsAdvancedEnd_V@CDrPatch@@QAEHXZ 1000d4b0 f i CurMdit.obj
 0001:0000c4e0       ?SetAdvancedEnd_V@CDrPatch@@QAEXH@Z 1000d4e0 f i CurMdit.obj
 0001:0000c510       ?GetCornerTwist_V@CDrPatch@@QAEPAY01UWORLD@@XZ 1000d510 f i CurMdit.obj
 0001:0000c540       ?SetCornerTwist_V@CDrPatch@@QAEXPAY01UWORLD@@@Z 1000d540 f i CurMdit.obj
 0001:0000c570       ?GetTwistMethod_V@CDrPatch@@QAE?AW4TWIST@@XZ 1000d570 f i CurMdit.obj
 0001:0000c5a0       ?SetTwistMethod_V@CDrPatch@@QAEXW4TWIST@@@Z 1000d5a0 f i CurMdit.obj
 0001:0000c5d0       ?GetEndList_U@CDrPatch@@QAEPAV?$CList@Ublendend@@U1@@@XZ 1000d5d0 f i CurMdit.obj
 0001:0000c600       ?GetEndList_V@CDrPatch@@QAEPAV?$CList@Ublendend@@U1@@@XZ 1000d600 f i CurMdit.obj
 0001:0000c630       ?GetElperSegList_T@CDrPatch@@QAEPAV?$CList@HH@@XZ 1000d630 f i CurMdit.obj
 0001:0000c660       ?GetCurveID@CDrPatch@@QAE?AVCString@@H@Z 1000d660 f i CurMdit.obj
 0001:0000c6b0       ?SetCurveID@CDrPatch@@QAEXVCString@@H@Z 1000d6b0 f i CurMdit.obj
 0001:0000c730       ?GetBndryCurve@CDrPatch@@QAEPAVCDrCurve@@H@Z 1000d730 f i CurMdit.obj
 0001:0000c760       ?SetCurve@CDrPatch@@QAEXPAVCDrCurve@@H@Z 1000d760 f i CurMdit.obj
 0001:0000c790       ?GetCurveLatch@CDrPatch@@QAE?AW4CURVELATCH@@H@Z 1000d790 f i CurMdit.obj
 0001:0000c7c0       ?SetCurveLatch@CDrPatch@@QAEXW4CURVELATCH@@H@Z 1000d7c0 f i CurMdit.obj
 0001:0000c7f0       ?GetFromIDNode_T@CDrPatch@@QAEPAVCDrNode@@XZ 1000d7f0 f i CurMdit.obj
 0001:0000c820       ?SetFromIDNode_T@CDrPatch@@QAEXPAVCDrNode@@@Z 1000d820 f i CurMdit.obj
 0001:0000c850       ?GetToIDNode_T@CDrPatch@@QAEPAVCDrNode@@XZ 1000d850 f i CurMdit.obj
 0001:0000c880       ?SetToIDNode_T@CDrPatch@@QAEXPAVCDrNode@@@Z 1000d880 f i CurMdit.obj
 0001:0000c8b0       ?GetFromPtLocal_T@CDrPatch@@QAEPAUWORLD@@XZ 1000d8b0 f i CurMdit.obj
 0001:0000c8e0       ?SetFromPtLocal_T@CDrPatch@@QAEXUWORLD@@@Z 1000d8e0 f i CurMdit.obj
 0001:0000c920       ?GetToPtLocal_T@CDrPatch@@QAEPAUWORLD@@XZ 1000d920 f i CurMdit.obj
 0001:0000c950       ?SetToPtLocal_T@CDrPatch@@QAEXUWORLD@@@Z 1000d950 f i CurMdit.obj
 0001:0000c990       ?GetFromPtWorld_T@CDrPatch@@QAEPAUWORLD@@XZ 1000d990 f i CurMdit.obj
 0001:0000c9c0       ?SetFromPtWorld_T@CDrPatch@@QAEXUWORLD@@@Z 1000d9c0 f i CurMdit.obj
 0001:0000ca00       ?GetToPtWorld_T@CDrPatch@@QAEPAUWORLD@@XZ 1000da00 f i CurMdit.obj
 0001:0000ca30       ?SetToPtWorld_T@CDrPatch@@QAEXUWORLD@@@Z 1000da30 f i CurMdit.obj
 0001:0000ca70       ?GetFromPtEye_T@CDrPatch@@QAEPAUWORLD@@XZ 1000da70 f i CurMdit.obj
 0001:0000caa0       ?SetFromPtEye_T@CDrPatch@@QAEXUWORLD@@@Z 1000daa0 f i CurMdit.obj
 0001:0000cae0       ?GetToPtEye_T@CDrPatch@@QAEPAUWORLD@@XZ 1000dae0 f i CurMdit.obj
 0001:0000cb10       ?SetToPtEye_T@CDrPatch@@QAEXUWORLD@@@Z 1000db10 f i CurMdit.obj
 0001:0000cb50       ?GetAxis_T@CDrPatch@@QAEPAUWORLD@@XZ 1000db50 f i CurMdit.obj
 0001:0000cb80       ?SetAxis_T@CDrPatch@@QAEXUWORLD@@@Z 1000db80 f i CurMdit.obj
 0001:0000cbc0       ?GetExtruType_T@CDrPatch@@QAEHXZ 1000dbc0 f i CurMdit.obj
 0001:0000cbf0       ?SetExtruType_T@CDrPatch@@QAEXH@Z 1000dbf0 f i CurMdit.obj
 0001:0000cc20       ?GetLength_T@CDrPatch@@QAENXZ 1000dc20 f i CurMdit.obj
 0001:0000cc50       ?SetLength_T@CDrPatch@@QAEXN@Z 1000dc50 f i CurMdit.obj
 0001:0000cc90       ?GetWorldLength_T@CDrPatch@@QAE?AUWORLD@@XZ 1000dc90 f i CurMdit.obj
 0001:0000ccd0       ?SetWorldLength_T@CDrPatch@@QAEXUWORLD@@@Z 1000dcd0 f i CurMdit.obj
 0001:0000cd10       ?GetSegs_T@CDrPatch@@QAEHXZ 1000dd10 f i CurMdit.obj
 0001:0000cd40       ?SetSegs_T@CDrPatch@@QAEXH@Z 1000dd40 f i CurMdit.obj
 0001:0000cd70       ?IsAxisInput_T@CDrPatch@@QAEHXZ 1000dd70 f i CurMdit.obj
 0001:0000cda0       ?SetAxisInput_T@CDrPatch@@QAEXH@Z 1000dda0 f i CurMdit.obj
 0001:0000cdd0       ?GetAxisType_T@CDrPatch@@QAEHXZ 1000ddd0 f i CurMdit.obj
 0001:0000ce00       ?SetAxisType_T@CDrPatch@@QAEXH@Z 1000de00 f i CurMdit.obj
 0001:0000ce30       ?IsNegative_T@CDrPatch@@QAEHXZ 1000de30 f i CurMdit.obj
 0001:0000ce60       ?SetNegative_T@CDrPatch@@QAEXH@Z 1000de60 f i CurMdit.obj
 0001:0000ce90       ?GetCircleType_T@CDrPatch@@QAE?AW4CIRCLETYPE@@XZ 1000de90 f i CurMdit.obj
 0001:0000cec0       ?SetCircleType_T@CDrPatch@@QAEXW4CIRCLETYPE@@@Z 1000dec0 f i CurMdit.obj
 0001:0000cef0       ?GetAng_1_T@CDrPatch@@QAENXZ 1000def0 f i CurMdit.obj
 0001:0000cf20       ?SetAng_1_T@CDrPatch@@QAEXN@Z 1000df20 f i CurMdit.obj
 0001:0000cf60       ?GetAng_2_T@CDrPatch@@QAENXZ 1000df60 f i CurMdit.obj
 0001:0000cf90       ?SetAng_2_T@CDrPatch@@QAEXN@Z 1000df90 f i CurMdit.obj
 0001:0000cfd0       ?GetPatchProc@CDrPatch@@QAE?AW4PATCHPROC@@XZ 1000dfd0 f i CurMdit.obj
 0001:0000d000       ?SetPatchProc@CDrPatch@@QAEXW4PATCHPROC@@@Z 1000e000 f i CurMdit.obj
 0001:0000d030       ?GetPatchType@CDrPatch@@QAE?AW4PATCHTYPE@@XZ 1000e030 f i CurMdit.obj
 0001:0000d060       ?SetPatchType@CDrPatch@@QAEXW4PATCHTYPE@@@Z 1000e060 f i CurMdit.obj
 0001:0000d090       ?GetPatSubType@CDrPatch@@QAE?AW4PATSUBTYPE@@XZ 1000e090 f i CurMdit.obj
 0001:0000d0c0       ?SetPatSubType@CDrPatch@@QAEXW4PATSUBTYPE@@@Z 1000e0c0 f i CurMdit.obj
 0001:0000d0f0       ?GetOut_S@CDrPatch@@QAEHXZ 1000e0f0 f i CurMdit.obj
 0001:0000d120       ?SetOut_S@CDrPatch@@QAEXH@Z 1000e120 f i CurMdit.obj
 0001:0000d150       ?GetOut_T@CDrPatch@@QAEHXZ 1000e150 f i CurMdit.obj
 0001:0000d180       ?SetOut_T@CDrPatch@@QAEXH@Z 1000e180 f i CurMdit.obj
 0001:0000d1b0       ?GetTotalElems@CDrPatch@@QAEJXZ 1000e1b0 f i CurMdit.obj
 0001:0000d1e0       ?SetTotalElems@CDrPatch@@QAEXJ@Z 1000e1e0 f i CurMdit.obj
 0001:0000d210       ?GetPtrTangents_S@CDrPatch@@QAEPAUWORLD@@XZ 1000e210 f i CurMdit.obj
 0001:0000d240       ?GetPtrTangents_T@CDrPatch@@QAEPAUWORLD@@XZ 1000e240 f i CurMdit.obj
 0001:0000d270       ?GetPtrNormals@CDrPatch@@QAEPAUWORLD@@XZ 1000e270 f i CurMdit.obj
 0001:0000d2a0       ?GetPtrTwists@CDrPatch@@QAEPAUWORLD@@XZ 1000e2a0 f i CurMdit.obj
 0001:0000d2d0       ?GetMemIn@CDrPatch@@UAEPAUWORLD@@H@Z 1000e2d0 f i CurMdit.obj
 0001:0000d300       ?SetMemIn@CDrPatch@@UAEXPAUWORLD@@H@Z 1000e300 f i CurMdit.obj
 0001:0000d330       ?SetMemIn@CDrPatch@@UAEXPAUWORLD@@@Z 1000e330 f i CurMdit.obj
 0001:0000d360       ?SetMemInDP@CDrPatch@@UAEXPAUtagPOINT@@@Z 1000e360 f i CurMdit.obj
 0001:0000d390       ?SetMemOut@CDrPatch@@UAEXPAUWORLD@@@Z 1000e390 f i CurMdit.obj
 0001:0000d3c0       ?SetMemOutDP@CDrPatch@@UAEXPAUtagPOINT@@@Z 1000e3c0 f i CurMdit.obj
 0001:0000d3f0       ?IsUniform_T@CDrPatch@@QAEHXZ 1000e3f0 f i CurMdit.obj
 0001:0000d420       ?SetUniform_T@CDrPatch@@QAEXH@Z 1000e420 f i CurMdit.obj
 0001:0000d450       ?GetClass_T@CDrPatch@@QAEHXZ 1000e450 f i CurMdit.obj
 0001:0000d480       ?SetClass_T@CDrPatch@@QAEXH@Z 1000e480 f i CurMdit.obj
 0001:0000d4b0       ?GetOrder_T@CDrPatch@@QAEHXZ 1000e4b0 f i CurMdit.obj
 0001:0000d4e0       ?SetOrder_T@CDrPatch@@QAEXH@Z 1000e4e0 f i CurMdit.obj
 0001:0000d510       ?GetnDim_T@CDrPatch@@QAEHXZ 1000e510 f i CurMdit.obj
 0001:0000d540       ?SetnDim_T@CDrPatch@@QAEXH@Z 1000e540 f i CurMdit.obj
 0001:0000d570       ?GetOutMethod_T@CDrPatch@@QAE?AW4PATCHOUTPUT@@XZ 1000e570 f i CurMdit.obj
 0001:0000d5a0       ?SetOutMethod_T@CDrPatch@@QAEXW4PATCHOUTPUT@@@Z 1000e5a0 f i CurMdit.obj
 0001:0000d5d0       ?GetMaxOutSeg_T@CDrPatch@@QAEHXZ 1000e5d0 f i CurMdit.obj
 0001:0000d600       ?SetMaxOutSeg_T@CDrPatch@@QAEXH@Z 1000e600 f i CurMdit.obj
 0001:0000d630       ?GetNum_tPointer_T@CDrPatch@@QAEPAHXZ 1000e630 f i CurMdit.obj
 0001:0000d660       ?SetNum_tPointer_T@CDrPatch@@QAEXPAH@Z 1000e660 f i CurMdit.obj
 0001:0000d690       ?GetDis_tPointer_T@CDrPatch@@QAEPANXZ 1000e690 f i CurMdit.obj
 0001:0000d6c0       ?SetDis_tPointer_T@CDrPatch@@QAEXPAN@Z 1000e6c0 f i CurMdit.obj
 0001:0000d6f0       ?GetNum_tPointer_Ex_T@CDrPatch@@QAEPAHXZ 1000e6f0 f i CurMdit.obj
 0001:0000d720       ?SetNum_tPointer_Ex_T@CDrPatch@@QAEXPAH@Z 1000e720 f i CurMdit.obj
 0001:0000d750       ?GetDis_AngPointer_T@CDrPatch@@QAEPANXZ 1000e750 f i CurMdit.obj
 0001:0000d780       ?SetDis_AngPointer_T@CDrPatch@@QAEXPAN@Z 1000e780 f i CurMdit.obj
 0001:0000d7b0       ?GetData_Ex_T@CDrPatch@@QAEHXZ 1000e7b0 f i CurMdit.obj
 0001:0000d7e0       ?SetData_Ex_T@CDrPatch@@QAEXH@Z 1000e7e0 f i CurMdit.obj
 0001:0000d810       ?IsExpanded_T@CDrPatch@@QAEHXZ 1000e810 f i CurMdit.obj
 0001:0000d840       ?SetExpanded_T@CDrPatch@@QAEXH@Z 1000e840 f i CurMdit.obj
 0001:0000d870       ?GetMaxENodes_T@CDrPatch@@QAEHXZ 1000e870 f i CurMdit.obj
 0001:0000d8a0       ?SetMaxENodes_T@CDrPatch@@QAEXH@Z 1000e8a0 f i CurMdit.obj
 0001:0000d8d0       ?GetRadius_T@CDrPatch@@QAENXZ 1000e8d0 f i CurMdit.obj
 0001:0000d900       ?SetRadius_T@CDrPatch@@QAEXN@Z 1000e900 f i CurMdit.obj
 0001:0000d940       ?GetTheta_T@CDrPatch@@QAENXZ 1000e940 f i CurMdit.obj
 0001:0000d970       ?SetTheta_T@CDrPatch@@QAEXN@Z 1000e970 f i CurMdit.obj
 0001:0000d9b0       ?GetCenter_T@CDrPatch@@QAE?AUWORLD@@XZ 1000e9b0 f i CurMdit.obj
 0001:0000d9f0       ?SetCenter_T@CDrPatch@@QAEXUWORLD@@@Z 1000e9f0 f i CurMdit.obj
 0001:0000da60       ?GetNormal_T@CDrPatch@@QAE?AUWORLD@@XZ 1000ea60 f i CurMdit.obj
 0001:0000daa0       ?SetNormal_T@CDrPatch@@QAEXUWORLD@@@Z 1000eaa0 f i CurMdit.obj
 0001:0000db10       ?GetSegAngle_T@CDrPatch@@QAENXZ 1000eb10 f i CurMdit.obj
 0001:0000db40       ?SetSegAngle_T@CDrPatch@@QAEXN@Z 1000eb40 f i CurMdit.obj
 0001:0000db80       ?IsHole_T@CDrPatch@@QAEHXZ 1000eb80 f i CurMdit.obj
 0001:0000dbb0       ?SetHole_T@CDrPatch@@QAEXH@Z 1000ebb0 f i CurMdit.obj
 0001:0000dbe0       ?GetpTangents_T@CDrPatch@@QAEPAUWORLD@@XZ 1000ebe0 f i CurMdit.obj
 0001:0000dc10       ?SetpTangents_T@CDrPatch@@QAEXPAUWORLD@@@Z 1000ec10 f i CurMdit.obj
 0001:0000dc40       ?GetpCurvatures_T@CDrPatch@@QAEPANXZ 1000ec40 f i CurMdit.obj
 0001:0000dc70       ?SetpCurvatures_T@CDrPatch@@QAEXPAN@Z 1000ec70 f i CurMdit.obj
 0001:0000dca0       ?GetRatio_T@CDrPatch@@QAENXZ 1000eca0 f i CurMdit.obj
 0001:0000dcd0       ?SetRatio_T@CDrPatch@@QAEXN@Z 1000ecd0 f i CurMdit.obj
 0001:0000dd10       ?GetTwistType_T@CDrPatch@@QAEHXZ 1000ed10 f i CurMdit.obj
 0001:0000dd40       ?SetTwistType_T@CDrPatch@@QAEXH@Z 1000ed40 f i CurMdit.obj
 0001:0000dd70       ?GetTwistList_T@CDrPatch@@QAEPAV?$CList@NN@@XZ 1000ed70 f i CurMdit.obj
 0001:0000dda0       ?GetScaleType_T@CDrPatch@@QAEHXZ 1000eda0 f i CurMdit.obj
 0001:0000ddd0       ?SetScaleType_T@CDrPatch@@QAEXH@Z 1000edd0 f i CurMdit.obj
 0001:0000de00       ?GetScaleList_T@CDrPatch@@QAEPAV?$CList@NN@@XZ 1000ee00 f i CurMdit.obj
 0001:0000de30       ?IsIncTwist_T@CDrPatch@@QAEHXZ 1000ee30 f i CurMdit.obj
 0001:0000de60       ?SetIncTwist_T@CDrPatch@@QAEXH@Z 1000ee60 f i CurMdit.obj
 0001:0000de90       ?GetTwistMult_T@CDrPatch@@QAENXZ 1000ee90 f i CurMdit.obj
 0001:0000dec0       ?SetTwistMult_T@CDrPatch@@QAEXN@Z 1000eec0 f i CurMdit.obj
 0001:0000df00       ?GetTwistStart_T@CDrPatch@@QAENXZ 1000ef00 f i CurMdit.obj
 0001:0000df30       ?SetTwistStart_T@CDrPatch@@QAEXN@Z 1000ef30 f i CurMdit.obj
 0001:0000df70       ?IsIncScale_T@CDrPatch@@QAEHXZ 1000ef70 f i CurMdit.obj
 0001:0000dfa0       ?SetIncScale_T@CDrPatch@@QAEXH@Z 1000efa0 f i CurMdit.obj
 0001:0000dfd0       ?GetScaleMult_T@CDrPatch@@QAENXZ 1000efd0 f i CurMdit.obj
 0001:0000e000       ?SetScaleMult_T@CDrPatch@@QAEXN@Z 1000f000 f i CurMdit.obj
 0001:0000e040       ?GetScaleStart_T@CDrPatch@@QAENXZ 1000f040 f i CurMdit.obj
 0001:0000e070       ?SetScaleStart_T@CDrPatch@@QAEXN@Z 1000f070 f i CurMdit.obj
 0001:0000e0b0       ?GetWorldTwistMult_T@CDrPatch@@QAE?AUWORLD@@XZ 1000f0b0 f i CurMdit.obj
 0001:0000e0f0       ?SetWorldTwistMult_T@CDrPatch@@QAEXUWORLD@@@Z 1000f0f0 f i CurMdit.obj
 0001:0000e130       ?GetWorldTwistStart_T@CDrPatch@@QAE?AUWORLD@@XZ 1000f130 f i CurMdit.obj
 0001:0000e170       ?SetWorldTwistStart_T@CDrPatch@@QAEXUWORLD@@@Z 1000f170 f i CurMdit.obj
 0001:0000e1b0       ?GetWorldScaleMult_T@CDrPatch@@QAE?AUWORLD@@XZ 1000f1b0 f i CurMdit.obj
 0001:0000e1f0       ?SetWorldScaleMult_T@CDrPatch@@QAEXUWORLD@@@Z 1000f1f0 f i CurMdit.obj
 0001:0000e230       ?GetWorldScaleStart_T@CDrPatch@@QAE?AUWORLD@@XZ 1000f230 f i CurMdit.obj
 0001:0000e270       ?SetWorldScaleStart_T@CDrPatch@@QAEXUWORLD@@@Z 1000f270 f i CurMdit.obj
 0001:0000e2b0       ?GetTriangleList@CDrPatch@@UAEPAVCDListMgr@@XZ 1000f2b0 f i CurMdit.obj
 0001:0000e2e0       ?GetnOutGlo_S@CDrPatch@@QAEHXZ 1000f2e0 f i CurMdit.obj
 0001:0000e310       ?SetnOutGlo_S@CDrPatch@@QAEXH@Z 1000f310 f i CurMdit.obj
 0001:0000e340       ?IsGenBCurve@CDrPatch@@QAEHXZ 1000f340 f i CurMdit.obj
 0001:0000e370       ?SetGenBCurve@CDrPatch@@QAEXH@Z 1000f370 f i CurMdit.obj
 0001:0000e3a0       ?IsEndCondMode@CSheet_PATI@@QAEHXZ 1000f3a0 f i CurMdit.obj
 0001:0000e3d0       ?SetEndCondMode@CSheet_PATI@@QAEXH@Z 1000f3d0 f i CurMdit.obj
 0001:0000e400       ?Parse_drPipe@CDrFE1D@@UAEXPAVCString@@@Z 1000f400 f i CurMdit.obj
 0001:0000e420       ?DoFormattedCardView@CDrFE1D@@UAEXPAVCString@@AAV2@@Z 1000f420 f i CurMdit.obj
 0001:0000e440       ?DoUnFormattedCardView@CDrFE1D@@UAEXPAVCString@@@Z 1000f440 f i CurMdit.obj
 0001:0000e460       ?GetMaxCorners@CDrFE1D@@UAEHXZ 1000f460 f i CurMdit.obj
 0001:0000e480       ?GetMemIn@CDrFE1D@@UAEPAUWORLD@@XZ 1000f480 f i CurMdit.obj
 0001:0000e4b0       ?GetMemInWts@CDrFE1D@@UAEPANXZ 1000f4b0 f i CurMdit.obj
 0001:0000e4e0       ?GetMemInDP@CDrFE1D@@UAEPAUtagPOINT@@XZ 1000f4e0 f i CurMdit.obj
 0001:0000e510       ?GetMemOut@CDrFE1D@@UAEPAUWORLD@@XZ 1000f510 f i CurMdit.obj
 0001:0000e540       ?GetMemOutWts@CDrFE1D@@UAEPANXZ 1000f540 f i CurMdit.obj
 0001:0000e570       ?GetMemOutDP@CDrFE1D@@UAEPAUtagPOINT@@XZ 1000f570 f i CurMdit.obj
 0001:0000e5a0       ?SetMemIn@CDrFE1D@@UAEXPAUWORLD@@@Z 1000f5a0 f i CurMdit.obj
 0001:0000e5d0       ?SetMemInWts@CDrFE1D@@UAEXPAN@Z 1000f5d0 f i CurMdit.obj
 0001:0000e600       ?SetMemInDP@CDrFE1D@@UAEXPAUtagPOINT@@@Z 1000f600 f i CurMdit.obj
 0001:0000e630       ?SetMemOut@CDrFE1D@@UAEXPAUWORLD@@@Z 1000f630 f i CurMdit.obj
 0001:0000e660       ?SetMemOutWts@CDrFE1D@@UAEXPAN@Z 1000f660 f i CurMdit.obj
 0001:0000e690       ?SetMemOutDP@CDrFE1D@@UAEXPAUtagPOINT@@@Z 1000f690 f i CurMdit.obj
 0001:0000e6c0       ?FixMemD@CDrFE1D@@UAEPANJ@Z 1000f6c0 f i CurMdit.obj
 0001:0000e710       ?FreeMemD@CDrFE1D@@UAEXPAN@Z 1000f710 f i CurMdit.obj
 0001:0000e740       ?FixMem@CDrFE1D@@UAEPAUWORLD@@J@Z 1000f740 f i CurMdit.obj
 0001:0000e790       ?FreeMem@CDrFE1D@@UAEXPAUWORLD@@@Z 1000f790 f i CurMdit.obj
 0001:0000e7c0       ?FixMemDP@CDrFE1D@@UAEPAUtagPOINT@@J@Z 1000f7c0 f i CurMdit.obj
 0001:0000e810       ?FreeMemDP@CDrFE1D@@UAEXPAUtagPOINT@@@Z 1000f810 f i CurMdit.obj
 0001:0000e840       ?GetnNodes@CDrFE1D@@QAEFXZ 1000f840 f i CurMdit.obj
 0001:0000e870       ?SetnNodes@CDrFE1D@@QAEXF@Z 1000f870 f i CurMdit.obj
 0001:0000e8a0       ?GetEdgeDegree@CDrFE1D@@QAEFXZ 1000f8a0 f i CurMdit.obj
 0001:0000e8d0       ?SetEdgeDegree@CDrFE1D@@QAEXF@Z 1000f8d0 f i CurMdit.obj
 0001:0000e900       ?GetElNumID@CDrFE1D@@QAEAAVCString@@XZ 1000f900 f i CurMdit.obj
 0001:0000e930       ?SetElNumID@CDrFE1D@@QAEXVCString@@@Z 1000f930 f i CurMdit.obj
 0001:0000e9b0       ?GetElTypeID@CDrFE1D@@QAEAAVCString@@XZ 1000f9b0 f i CurMdit.obj
 0001:0000e9e0       ?SetElTypeID@CDrFE1D@@QAEXVCString@@@Z 1000f9e0 f i CurMdit.obj
 0001:0000ea60       ?Getline_id@CDrFE1D@@QAEAAVCString@@XZ 1000fa60 f i CurMdit.obj
 0001:0000ea90       ?Setline_id@CDrFE1D@@QAEXVCString@@@Z 1000fa90 f i CurMdit.obj
 0001:0000eb10       ?Getrid@CDrFE1D@@UAEAAVCString@@H@Z 1000fb10 f i CurMdit.obj
 0001:0000eb40       ?Setrid@CDrFE1D@@UAEXVCString@@H@Z 1000fb40 f i CurMdit.obj
 0001:0000ebc0       ?Getpid@CDrFE1D@@QAEAAVCString@@XZ 1000fbc0 f i CurMdit.obj
 0001:0000ebf0       ?Setpid@CDrFE1D@@QAEXVCString@@@Z 1000fbf0 f i CurMdit.obj
 0001:0000ec70       ?Getmid@CDrFE1D@@QAEAAVCString@@XZ 1000fc70 f i CurMdit.obj
 0001:0000eca0       ?Setmid@CDrFE1D@@QAEXVCString@@@Z 1000fca0 f i CurMdit.obj
 0001:0000ed20       ?GetElNum@CDrFE1D@@QAEIXZ  1000fd20 f i CurMdit.obj
 0001:0000ed50       ?SetElNum@CDrFE1D@@QAEXI@Z 1000fd50 f i CurMdit.obj
 0001:0000ed80       ?GetElTypeNum@CDrFE1D@@QAEIXZ 1000fd80 f i CurMdit.obj
 0001:0000edb0       ?SetElTypeNum@CDrFE1D@@QAEXI@Z 1000fdb0 f i CurMdit.obj
 0001:0000ede0       ?Getline_no@CDrFE1D@@QAEIXZ 1000fde0 f i CurMdit.obj
 0001:0000ee10       ?Setline_no@CDrFE1D@@QAEXI@Z 1000fe10 f i CurMdit.obj
 0001:0000ee40       ?Getrel@CDrFE1D@@UAEIH@Z   1000fe40 f i CurMdit.obj
 0001:0000ee70       ?Setrel@CDrFE1D@@UAEXIH@Z  1000fe70 f i CurMdit.obj
 0001:0000eea0       ?Getprop@CDrFE1D@@QAEIXZ   1000fea0 f i CurMdit.obj
 0001:0000eed0       ?Setprop@CDrFE1D@@QAEXI@Z  1000fed0 f i CurMdit.obj
 0001:0000ef00       ?Getmat@CDrFE1D@@QAEIXZ    1000ff00 f i CurMdit.obj
 0001:0000ef30       ?Setmat@CDrFE1D@@QAEXI@Z   1000ff30 f i CurMdit.obj
 0001:0000ef60       ?Getnumseg@CDrFE1D@@QAEIXZ 1000ff60 f i CurMdit.obj
 0001:0000ef90       ?Setnumseg@CDrFE1D@@QAEXI@Z 1000ff90 f i CurMdit.obj
 0001:0000efc0       ?GetRefTemp@CDrFE1D@@QAENXZ 1000ffc0 f i CurMdit.obj
 0001:0000eff0       ?SetRefTemp@CDrFE1D@@QAEXN@Z 1000fff0 f i CurMdit.obj
 0001:0000f030       ?GetCardNo@CDrFE1D@@QAEIXZ 10010030 f i CurMdit.obj
 0001:0000f060       ?SetCardNo@CDrFE1D@@QAEXI@Z 10010060 f i CurMdit.obj
 0001:0000f090       ?GetCenter@CDrFE1D@@UAE?AUtagPOINT@@XZ 10010090 f i CurMdit.obj
 0001:0000f0d0       ?SetCenter@CDrFE1D@@UAEXUtagPOINT@@@Z 100100d0 f i CurMdit.obj
 0001:0000f110       ?Parse_drPipe@CDrFE2D@@UAEXPAVCString@@@Z 10010110 f i CurMdit.obj
 0001:0000f130       ?DoFormattedCardView@CDrFE2D@@UAEXPAVCString@@AAV2@@Z 10010130 f i CurMdit.obj
 0001:0000f150       ?DoUnFormattedCardView@CDrFE2D@@UAEXPAVCString@@@Z 10010150 f i CurMdit.obj
 0001:0000f170       ?GetMaxCorners@CDrFE2D@@UAEHXZ 10010170 f i CurMdit.obj
 0001:0000f1a0       ?GetCentroidScreen2D@CDrFE2D@@UAEPAUtagPOINT@@XZ 100101a0 f i CurMdit.obj
 0001:0000f1d0       ?SetCentroidScreen2D@CDrFE2D@@UAEXUtagPOINT@@@Z 100101d0 f i CurMdit.obj
 0001:0000f210       ?GetCentroidScreen3D@CDrFE2D@@UAEPAUWORLD@@XZ 10010210 f i CurMdit.obj
 0001:0000f240       ?SetCentroidScreen3D@CDrFE2D@@UAEXUWORLD@@@Z 10010240 f i CurMdit.obj
 0001:0000f280       ?GetCentroidEye@CDrFE2D@@UAEPAUWORLD@@XZ 10010280 f i CurMdit.obj
 0001:0000f2b0       ?SetCentroidEye@CDrFE2D@@UAEXUWORLD@@@Z 100102b0 f i CurMdit.obj
 0001:0000f2f0       ?GetCentroidWorld@CDrFE2D@@UAEPAUWORLD@@XZ 100102f0 f i CurMdit.obj
 0001:0000f320       ?SetCentroidWorld@CDrFE2D@@UAEXUWORLD@@@Z 10010320 f i CurMdit.obj
 0001:0000f360       ?GetCentroidZdepth@CDrFE2D@@UAENXZ 10010360 f i CurMdit.obj
 0001:0000f390       ?SetCentroidZdepth@CDrFE2D@@UAEXN@Z 10010390 f i CurMdit.obj
 0001:0000f3d0       ?GetNormalWorld@CDrFE2D@@UAEPAUWORLD@@XZ 100103d0 f i CurMdit.obj
 0001:0000f400       ?SetNormalWorld@CDrFE2D@@UAEXUWORLD@@@Z 10010400 f i CurMdit.obj
 0001:0000f440       ?GetNormalEye@CDrFE2D@@UAEPAUWORLD@@XZ 10010440 f i CurMdit.obj
 0001:0000f470       ?SetNormalEye@CDrFE2D@@UAEXUWORLD@@@Z 10010470 f i CurMdit.obj
 0001:0000f4b0       ?GetNormalScreen3D@CDrFE2D@@UAEPAUWORLD@@XZ 100104b0 f i CurMdit.obj
 0001:0000f4e0       ?SetNormalScreen3D@CDrFE2D@@UAEXUWORLD@@@Z 100104e0 f i CurMdit.obj
 0001:0000f520       ?GetNormalScreen2D@CDrFE2D@@UAEPAUtagPOINT@@XZ 10010520 f i CurMdit.obj
 0001:0000f550       ?SetNormalScreen2D@CDrFE2D@@UAEXUtagPOINT@@@Z 10010550 f i CurMdit.obj
 0001:0000f590       ?IsCulled@CDrFE2D@@UAEHXZ  10010590 f i CurMdit.obj
 0001:0000f5c0       ?SetCulled@CDrFE2D@@UAEXH@Z 100105c0 f i CurMdit.obj
 0001:0000f5f0       ?GetnNodes@CDrFE2D@@QAEFXZ 100105f0 f i CurMdit.obj
 0001:0000f620       ?SetnNodes@CDrFE2D@@QAEXF@Z 10010620 f i CurMdit.obj
 0001:0000f650       ?GetnEdgeNodes@CDrFE2D@@QAEFXZ 10010650 f i CurMdit.obj
 0001:0000f680       ?SetnEdgeNodes@CDrFE2D@@QAEXF@Z 10010680 f i CurMdit.obj
 0001:0000f6b0       ?GetElNumID@CDrFE2D@@QAEAAVCString@@XZ 100106b0 f i CurMdit.obj
 0001:0000f6e0       ?SetElNumID@CDrFE2D@@QAEXVCString@@@Z 100106e0 f i CurMdit.obj
 0001:0000f760       ?GetElTypeID@CDrFE2D@@QAEAAVCString@@XZ 10010760 f i CurMdit.obj
 0001:0000f790       ?SetElTypeID@CDrFE2D@@QAEXVCString@@@Z 10010790 f i CurMdit.obj
 0001:0000f810       ?Getline_id@CDrFE2D@@QAEAAVCString@@XZ 10010810 f i CurMdit.obj
 0001:0000f840       ?Setline_id@CDrFE2D@@QAEXVCString@@@Z 10010840 f i CurMdit.obj
 0001:0000f8c0       ?Getpid@CDrFE2D@@QAEAAVCString@@XZ 100108c0 f i CurMdit.obj
 0001:0000f8f0       ?Setpid@CDrFE2D@@QAEXVCString@@@Z 100108f0 f i CurMdit.obj
 0001:0000f970       ?Getmid@CDrFE2D@@QAEAAVCString@@XZ 10010970 f i CurMdit.obj
 0001:0000f9a0       ?Setmid@CDrFE2D@@QAEXVCString@@@Z 100109a0 f i CurMdit.obj
 0001:0000fa20       ?GetElNum@CDrFE2D@@QAEIXZ  10010a20 f i CurMdit.obj
 0001:0000fa50       ?SetElNum@CDrFE2D@@QAEXI@Z 10010a50 f i CurMdit.obj
 0001:0000fa80       ?GetElTypeNum@CDrFE2D@@QAEIXZ 10010a80 f i CurMdit.obj
 0001:0000fab0       ?SetElTypeNum@CDrFE2D@@QAEXI@Z 10010ab0 f i CurMdit.obj
 0001:0000fae0       ?Getline_no@CDrFE2D@@QAEIXZ 10010ae0 f i CurMdit.obj
 0001:0000fb10       ?Setline_no@CDrFE2D@@QAEXI@Z 10010b10 f i CurMdit.obj
 0001:0000fb40       ?Getprop@CDrFE2D@@QAEIXZ   10010b40 f i CurMdit.obj
 0001:0000fb70       ?Setprop@CDrFE2D@@QAEXI@Z  10010b70 f i CurMdit.obj
 0001:0000fba0       ?Getmat@CDrFE2D@@QAEIXZ    10010ba0 f i CurMdit.obj
 0001:0000fbd0       ?Setmat@CDrFE2D@@QAEXI@Z   10010bd0 f i CurMdit.obj
 0001:0000fc00       ?Getnumseg@CDrFE2D@@QAEIXZ 10010c00 f i CurMdit.obj
 0001:0000fc30       ?Setnumseg@CDrFE2D@@QAEXI@Z 10010c30 f i CurMdit.obj
 0001:0000fc60       ?GetRefTemp@CDrFE2D@@QAENXZ 10010c60 f i CurMdit.obj
 0001:0000fc90       ?SetRefTemp@CDrFE2D@@QAEXN@Z 10010c90 f i CurMdit.obj
 0001:0000fcd0       ?GetCardNo@CDrFE2D@@QAEIXZ 10010cd0 f i CurMdit.obj
 0001:0000fd00       ?SetCardNo@CDrFE2D@@QAEXI@Z 10010d00 f i CurMdit.obj
 0001:0000fd30       ?GetCenter@CDrFE2D@@UAE?AUtagPOINT@@XZ 10010d30 f i CurMdit.obj
 0001:0000fd70       ?SetCenter@CDrFE2D@@UAEXUtagPOINT@@@Z 10010d70 f i CurMdit.obj
 0001:0000fdb0       ?IsPosiEdge@CDrFE2D@@QAEHH@Z 10010db0 f i CurMdit.obj
 0001:0000fde0       ?SetPosiEdge@CDrFE2D@@QAEXHH@Z 10010de0 f i CurMdit.obj
 0001:0000fe10       ?Getrid@CDrFE2D@@UAEAAVCString@@H@Z 10010e10 f i CurMdit.obj
 0001:0000fe40       ?Setrid@CDrFE2D@@UAEXVCString@@H@Z 10010e40 f i CurMdit.obj
 0001:0000fec0       ?Getrel@CDrFE2D@@UAEIH@Z   10010ec0 f i CurMdit.obj
 0001:0000fef0       ?Setrel@CDrFE2D@@UAEXIH@Z  10010ef0 f i CurMdit.obj
 0001:0000ff20       ?GetnCorners@CDrFE2D@@UAEFXZ 10010f20 f i CurMdit.obj
 0001:0000ff50       ?SetnCorners@CDrFE2D@@UAEXF@Z 10010f50 f i CurMdit.obj
 0001:0000ff80       ?GetnEdges@CDrFE2D@@UAEFXZ 10010f80 f i CurMdit.obj
 0001:0000ffb0       ?SetnEdges@CDrFE2D@@UAEXF@Z 10010fb0 f i CurMdit.obj
 0001:0000ffe0       ?GetElDegree@CDrFE2D@@UAE?AW4ELEM_DEGREE@@XZ 10010fe0 f i CurMdit.obj
 0001:00010010       ?SetElDegree@CDrFE2D@@UAEXW4ELEM_DEGREE@@@Z 10011010 f i CurMdit.obj
 0001:00010040       ?GetEdgeDegrees@CDrFE2D@@UAEFH@Z 10011040 f i CurMdit.obj
 0001:00010070       ?SetEdgeDegrees@CDrFE2D@@UAEXFH@Z 10011070 f i CurMdit.obj
 0001:000100a0       ?GetThkness@CDrFE2D@@UAENXZ 100110a0 f i CurMdit.obj
 0001:000100d0       ?SetThkness@CDrFE2D@@UAEXN@Z 100110d0 f i CurMdit.obj
 0001:00010110       ?IsNormalNeeded@CDrSolid@@UAEHXZ 10011110 f i CurMdit.obj
 0001:00010140       ?SetNormalNeed@CDrSolid@@UAEXH@Z 10011140 f i CurMdit.obj
 0001:00010170       ?GetCurveType_R@CDrSolid@@QAE?AW4CURVEPROC@@XZ 10011170 f i CurMdit.obj
 0001:000101a0       ?SetCurveType_R@CDrSolid@@QAEXW4CURVEPROC@@@Z 100111a0 f i CurMdit.obj
 0001:000101d0       ?GetOutSegUnif_R@CDrSolid@@QAEHXZ 100111d0 f i CurMdit.obj
 0001:00010200       ?SetOutSegUnif_R@CDrSolid@@QAEXH@Z 10011200 f i CurMdit.obj
 0001:00010230       ?IsClosed_R@CDrSolid@@QAEHXZ 10011230 f i CurMdit.obj
 0001:00010260       ?SetClosed_R@CDrSolid@@QAEXH@Z 10011260 f i CurMdit.obj
 0001:00010290       ?GetSolidObjectType@CDrSolid@@QAEHXZ 10011290 f i CurMdit.obj
 0001:000102c0       ?SetSolidObjectType@CDrSolid@@QAEXH@Z 100112c0 f i CurMdit.obj
 0001:000102f0       ?GetMaxBezSegments_R@CDrSolid@@QAEHXZ 100112f0 f i CurMdit.obj
 0001:00010320       ?SetMaxBezSegments_R@CDrSolid@@QAEXH@Z 10011320 f i CurMdit.obj
 0001:00010350       ?GetMaxCNodes_R@CDrSolid@@QAEHXZ 10011350 f i CurMdit.obj
 0001:00010380       ?SetMaxCNodes_R@CDrSolid@@QAEXH@Z 10011380 f i CurMdit.obj
 0001:000103b0       ?GetMaxOutPts_R@CDrSolid@@QAEHXZ 100113b0 f i CurMdit.obj
 0001:000103e0       ?SetMaxOutPts_R@CDrSolid@@QAEXH@Z 100113e0 f i CurMdit.obj
 0001:00010410       ?GetPatchID@CDrSolid@@QAE?AVCString@@H@Z 10011410 f i CurMdit.obj
 0001:00010460       ?SetPatchID@CDrSolid@@QAEXVCString@@H@Z 10011460 f i CurMdit.obj
 0001:000104e0       ?GetFromIDNode_R@CDrSolid@@QAEPAVCDrNode@@XZ 100114e0 f i CurMdit.obj
 0001:00010510       ?SetFromIDNode_R@CDrSolid@@QAEXPAVCDrNode@@@Z 10011510 f i CurMdit.obj
 0001:00010540       ?GetToIDNode_R@CDrSolid@@QAEPAVCDrNode@@XZ 10011540 f i CurMdit.obj
 0001:00010570       ?SetToIDNode_R@CDrSolid@@QAEXPAVCDrNode@@@Z 10011570 f i CurMdit.obj
 0001:000105a0       ?GetFromPtLocal_R@CDrSolid@@QAEPAUWORLD@@XZ 100115a0 f i CurMdit.obj
 0001:000105d0       ?SetFromPtLocal_R@CDrSolid@@QAEXUWORLD@@@Z 100115d0 f i CurMdit.obj
 0001:00010610       ?GetToPtLocal_R@CDrSolid@@QAEPAUWORLD@@XZ 10011610 f i CurMdit.obj
 0001:00010640       ?SetToPtLocal_R@CDrSolid@@QAEXUWORLD@@@Z 10011640 f i CurMdit.obj
 0001:00010680       ?GetFromPtWorld_R@CDrSolid@@QAEPAUWORLD@@XZ 10011680 f i CurMdit.obj
 0001:000106b0       ?SetFromPtWorld_R@CDrSolid@@QAEXUWORLD@@@Z 100116b0 f i CurMdit.obj
 0001:000106f0       ?GetToPtWorld_R@CDrSolid@@QAEPAUWORLD@@XZ 100116f0 f i CurMdit.obj
 0001:00010720       ?SetToPtWorld_R@CDrSolid@@QAEXUWORLD@@@Z 10011720 f i CurMdit.obj
 0001:00010760       ?GetFromPtEye_R@CDrSolid@@QAEPAUWORLD@@XZ 10011760 f i CurMdit.obj
 0001:00010790       ?SetFromPtEye_R@CDrSolid@@QAEXUWORLD@@@Z 10011790 f i CurMdit.obj
 0001:000107d0       ?GetToPtEye_R@CDrSolid@@QAEPAUWORLD@@XZ 100117d0 f i CurMdit.obj
 0001:00010800       ?SetToPtEye_R@CDrSolid@@QAEXUWORLD@@@Z 10011800 f i CurMdit.obj
 0001:00010840       ?GetAxis_R@CDrSolid@@QAEPAUWORLD@@XZ 10011840 f i CurMdit.obj
 0001:00010870       ?SetAxis_R@CDrSolid@@QAEXUWORLD@@@Z 10011870 f i CurMdit.obj
 0001:000108b0       ?GetExtruType_R@CDrSolid@@QAEHXZ 100118b0 f i CurMdit.obj
 0001:000108e0       ?SetExtruType_R@CDrSolid@@QAEXH@Z 100118e0 f i CurMdit.obj
 0001:00010910       ?GetLength_R@CDrSolid@@QAENXZ 10011910 f i CurMdit.obj
 0001:00010940       ?SetLength_R@CDrSolid@@QAEXN@Z 10011940 f i CurMdit.obj
 0001:00010980       ?GetWorldLength_R@CDrSolid@@QAE?AUWORLD@@XZ 10011980 f i CurMdit.obj
 0001:000109c0       ?SetWorldLength_R@CDrSolid@@QAEXUWORLD@@@Z 100119c0 f i CurMdit.obj
 0001:00010a00       ?GetSegs_R@CDrSolid@@QAEHXZ 10011a00 f i CurMdit.obj
 0001:00010a30       ?SetSegs_R@CDrSolid@@QAEXH@Z 10011a30 f i CurMdit.obj
 0001:00010a60       ?GetSolidProc@CDrSolid@@QAE?AW4SOLIDPROC@@XZ 10011a60 f i CurMdit.obj
 0001:00010a90       ?SetSolidProc@CDrSolid@@QAEXW4SOLIDPROC@@@Z 10011a90 f i CurMdit.obj
 0001:00010ac0       ?GetSolidType@CDrSolid@@QAE?AW4SOLIDTYPE@@XZ 10011ac0 f i CurMdit.obj
 0001:00010af0       ?SetSolidType@CDrSolid@@QAEXW4SOLIDTYPE@@@Z 10011af0 f i CurMdit.obj
 0001:00010b20       ?GetSolSubType@CDrSolid@@QAE?AW4SOLSUBTYPE@@XZ 10011b20 f i CurMdit.obj
 0001:00010b50       ?SetSolSubType@CDrSolid@@QAEXW4SOLSUBTYPE@@@Z 10011b50 f i CurMdit.obj
 0001:00010b80       ?GetOut_R@CDrSolid@@QAEHXZ 10011b80 f i CurMdit.obj
 0001:00010bb0       ?SetOut_R@CDrSolid@@QAEXH@Z 10011bb0 f i CurMdit.obj
 0001:00010be0       ?IsUniform_R@CDrSolid@@QAEHXZ 10011be0 f i CurMdit.obj
 0001:00010c10       ?SetUniform_R@CDrSolid@@QAEXH@Z 10011c10 f i CurMdit.obj
 0001:00010c40       ?GetOrder_R@CDrSolid@@QAEHXZ 10011c40 f i CurMdit.obj
 0001:00010c70       ?SetOrder_R@CDrSolid@@QAEXH@Z 10011c70 f i CurMdit.obj
 0001:00010ca0       ?GetnDim_R@CDrSolid@@QAEHXZ 10011ca0 f i CurMdit.obj
 0001:00010cd0       ?SetnDim_R@CDrSolid@@QAEXH@Z 10011cd0 f i CurMdit.obj
 0001:00010d00       ?GetOutMethod_R@CDrSolid@@QAE?AW4SOLIDOUTPUT@@XZ 10011d00 f i CurMdit.obj
 0001:00010d30       ?SetOutMethod_R@CDrSolid@@QAEXW4SOLIDOUTPUT@@@Z 10011d30 f i CurMdit.obj
 0001:00010d60       ?GetMaxOutSeg_R@CDrSolid@@QAEHXZ 10011d60 f i CurMdit.obj
 0001:00010d90       ?SetMaxOutSeg_R@CDrSolid@@QAEXH@Z 10011d90 f i CurMdit.obj
 0001:00010dc0       ?GetNum_tPointer_R@CDrSolid@@QAEPAHXZ 10011dc0 f i CurMdit.obj
 0001:00010df0       ?SetNum_tPointer_R@CDrSolid@@QAEXPAH@Z 10011df0 f i CurMdit.obj
 0001:00010e20       ?GetDis_tPointer_R@CDrSolid@@QAEPANXZ 10011e20 f i CurMdit.obj
 0001:00010e50       ?SetDis_tPointer_R@CDrSolid@@QAEXPAN@Z 10011e50 f i CurMdit.obj
 0001:00010e80       ?GetNum_tPointer_Ex_R@CDrSolid@@QAEPAHXZ 10011e80 f i CurMdit.obj
 0001:00010eb0       ?SetNum_tPointer_Ex_R@CDrSolid@@QAEXPAH@Z 10011eb0 f i CurMdit.obj
 0001:00010ee0       ?GetDis_AngPointer_R@CDrSolid@@QAEPANXZ 10011ee0 f i CurMdit.obj
 0001:00010f10       ?SetDis_AngPointer_R@CDrSolid@@QAEXPAN@Z 10011f10 f i CurMdit.obj
 0001:00010f40       ?GetNum_tPointer_ST@CDrSolid@@QAEPAHXZ 10011f40 f i CurMdit.obj
 0001:00010f70       ?SetNum_tPointer_ST@CDrSolid@@QAEXPAH@Z 10011f70 f i CurMdit.obj
 0001:00010fa0       ?GetDis_tPointer_ST@CDrSolid@@QAEPANXZ 10011fa0 f i CurMdit.obj
 0001:00010fd0       ?SetDis_tPointer_ST@CDrSolid@@QAEXPAN@Z 10011fd0 f i CurMdit.obj
 0001:00011000       ?GetNum_tPointer_Ex_ST@CDrSolid@@QAEPAHXZ 10012000 f i CurMdit.obj
 0001:00011030       ?SetNum_tPointer_Ex_ST@CDrSolid@@QAEXPAH@Z 10012030 f i CurMdit.obj
 0001:00011060       ?GetDis_AngPointer_ST@CDrSolid@@QAEPANXZ 10012060 f i CurMdit.obj
 0001:00011090       ?SetDis_AngPointer_ST@CDrSolid@@QAEXPAN@Z 10012090 f i CurMdit.obj
 0001:000110c0       ?GetData_Ex_R@CDrSolid@@QAEHXZ 100120c0 f i CurMdit.obj
 0001:000110f0       ?SetData_Ex_R@CDrSolid@@QAEXH@Z 100120f0 f i CurMdit.obj
 0001:00011120       ?IsExpanded_R@CDrSolid@@QAEHXZ 10012120 f i CurMdit.obj
 0001:00011150       ?SetExpanded_R@CDrSolid@@QAEXH@Z 10012150 f i CurMdit.obj
 0001:00011180       ?GetMaxENodes_R@CDrSolid@@QAEHXZ 10012180 f i CurMdit.obj
 0001:000111b0       ?SetMaxENodes_R@CDrSolid@@QAEXH@Z 100121b0 f i CurMdit.obj
 0001:000111e0       ?GetRadius_R@CDrSolid@@QAENXZ 100121e0 f i CurMdit.obj
 0001:00011210       ?SetRadius_R@CDrSolid@@QAEXN@Z 10012210 f i CurMdit.obj
 0001:00011250       ?GetTheta_R@CDrSolid@@QAENXZ 10012250 f i CurMdit.obj
 0001:00011280       ?SetTheta_R@CDrSolid@@QAEXN@Z 10012280 f i CurMdit.obj
 0001:000112c0       ?GetCenter_R@CDrSolid@@QAE?AUWORLD@@XZ 100122c0 f i CurMdit.obj
 0001:00011300       ?SetCenter_R@CDrSolid@@QAEXUWORLD@@@Z 10012300 f i CurMdit.obj
 0001:00011370       ?GetNormal_R@CDrSolid@@QAE?AUWORLD@@XZ 10012370 f i CurMdit.obj
 0001:000113b0       ?SetNormal_R@CDrSolid@@QAEXUWORLD@@@Z 100123b0 f i CurMdit.obj
 0001:00011420       ?GetSegAngle_R@CDrSolid@@QAENXZ 10012420 f i CurMdit.obj
 0001:00011450       ?SetSegAngle_R@CDrSolid@@QAEXN@Z 10012450 f i CurMdit.obj
 0001:00011490       ?IsHole_R@CDrSolid@@QAEHXZ 10012490 f i CurMdit.obj
 0001:000114c0       ?SetHole_R@CDrSolid@@QAEXH@Z 100124c0 f i CurMdit.obj
 0001:000114f0       ?GetpTangents_R@CDrSolid@@QAEPAUWORLD@@XZ 100124f0 f i CurMdit.obj
 0001:00011520       ?SetpTangents_R@CDrSolid@@QAEXPAUWORLD@@@Z 10012520 f i CurMdit.obj
 0001:00011550       ?GetpCurvatures_R@CDrSolid@@QAEPANXZ 10012550 f i CurMdit.obj
 0001:00011580       ?SetpCurvatures_R@CDrSolid@@QAEXPAN@Z 10012580 f i CurMdit.obj
 0001:000115b0       ?GetRatio_R@CDrSolid@@QAENXZ 100125b0 f i CurMdit.obj
 0001:000115e0       ?SetRatio_R@CDrSolid@@QAEXN@Z 100125e0 f i CurMdit.obj
 0001:00011620       ?GetTwistType_R@CDrSolid@@QAEHXZ 10012620 f i CurMdit.obj
 0001:00011650       ?SetTwistType_R@CDrSolid@@QAEXH@Z 10012650 f i CurMdit.obj
 0001:00011680       ?GetTwistList_R@CDrSolid@@QAEPAV?$CList@NN@@XZ 10012680 f i CurMdit.obj
 0001:000116b0       ?GetScaleType_R@CDrSolid@@QAEHXZ 100126b0 f i CurMdit.obj
 0001:000116e0       ?SetScaleType_R@CDrSolid@@QAEXH@Z 100126e0 f i CurMdit.obj
 0001:00011710       ?GetScaleList_R@CDrSolid@@QAEPAV?$CList@NN@@XZ 10012710 f i CurMdit.obj
 0001:00011740       ?IsIncTwist_R@CDrSolid@@QAEHXZ 10012740 f i CurMdit.obj
 0001:00011770       ?SetIncTwist_R@CDrSolid@@QAEXH@Z 10012770 f i CurMdit.obj
 0001:000117a0       ?GetTwistMult_R@CDrSolid@@QAENXZ 100127a0 f i CurMdit.obj
 0001:000117d0       ?SetTwistMult_R@CDrSolid@@QAEXN@Z 100127d0 f i CurMdit.obj
 0001:00011810       ?GetTwistStart_R@CDrSolid@@QAENXZ 10012810 f i CurMdit.obj
 0001:00011840       ?SetTwistStart_R@CDrSolid@@QAEXN@Z 10012840 f i CurMdit.obj
 0001:00011880       ?IsIncScale_R@CDrSolid@@QAEHXZ 10012880 f i CurMdit.obj
 0001:000118b0       ?SetIncScale_R@CDrSolid@@QAEXH@Z 100128b0 f i CurMdit.obj
 0001:000118e0       ?GetScaleMult_R@CDrSolid@@QAENXZ 100128e0 f i CurMdit.obj
 0001:00011910       ?SetScaleMult_R@CDrSolid@@QAEXN@Z 10012910 f i CurMdit.obj
 0001:00011950       ?GetScaleStart_R@CDrSolid@@QAENXZ 10012950 f i CurMdit.obj
 0001:00011980       ?SetScaleStart_R@CDrSolid@@QAEXN@Z 10012980 f i CurMdit.obj
 0001:000119c0       ?GetPentaList@CDrSolid@@QAEPAVCDListMgr@@XZ 100129c0 f i CurMdit.obj
 0001:000119f0       ?GetnTriangles_ST@CDrSolid@@QAEHXZ 100129f0 f i CurMdit.obj
 0001:00011a20       ?SetnTriangles_ST@CDrSolid@@QAEXH@Z 10012a20 f i CurMdit.obj
 0001:00011a50       ?GetElperSegList_R@CDrSolid@@QAEPAV?$CList@HH@@XZ 10012a50 f i CurMdit.obj
 0001:00011a80       ?IsGenBPatch@CDrSolid@@QAEHXZ 10012a80 f i CurMdit.obj
 0001:00011ab0       ?SetGenBPatch@CDrSolid@@QAEXH@Z 10012ab0 f i CurMdit.obj
 0001:00011ae0       ?GetVPatchList@CDrSolid@@QAEPAVCDListMgr@@XZ 10012ae0 f i CurMdit.obj
 0001:00011b10       ?GetPatchList_U@CDrSolid@@QAEPAVCDListMgr@@XZ 10012b10 f i CurMdit.obj
 0001:00011b40       ?GetPatchList_V@CDrSolid@@QAEPAVCDListMgr@@XZ 10012b40 f i CurMdit.obj
 0001:00011b70       ?GetPatchList_W@CDrSolid@@QAEPAVCDListMgr@@XZ 10012b70 f i CurMdit.obj
 0001:00011ba0       ?GetPatchLatchList_U@CDrSolid@@QAEPAV?$CList@W4PATCHLATCH@@W41@@@XZ 10012ba0 f i CurMdit.obj
 0001:00011bd0       ?GetPatchLatchList_V@CDrSolid@@QAEPAV?$CList@W4PATCHLATCH@@W41@@@XZ 10012bd0 f i CurMdit.obj
 0001:00011c00       ?GetPatchLatchList_W@CDrSolid@@QAEPAV?$CList@W4PATCHLATCH@@W41@@@XZ 10012c00 f i CurMdit.obj
 0001:00011c30       ?IsAxisInput_R@CDrSolid@@QAEHXZ 10012c30 f i CurMdit.obj
 0001:00011c60       ?SetAxisInput_R@CDrSolid@@QAEXH@Z 10012c60 f i CurMdit.obj
 0001:00011c90       ?GetAxisType_R@CDrSolid@@QAEHXZ 10012c90 f i CurMdit.obj
 0001:00011cc0       ?SetAxisType_R@CDrSolid@@QAEXH@Z 10012cc0 f i CurMdit.obj
 0001:00011cf0       ?IsNegative_R@CDrSolid@@QAEHXZ 10012cf0 f i CurMdit.obj
 0001:00011d20       ?SetNegative_R@CDrSolid@@QAEXH@Z 10012d20 f i CurMdit.obj
 0001:00011d50       ?GetCircleType_R@CDrSolid@@QAE?AW4CIRCLETYPE@@XZ 10012d50 f i CurMdit.obj
 0001:00011d80       ?SetCircleType_R@CDrSolid@@QAEXW4CIRCLETYPE@@@Z 10012d80 f i CurMdit.obj
 0001:00011db0       ?GetAng_1_R@CDrSolid@@QAENXZ 10012db0 f i CurMdit.obj
 0001:00011de0       ?SetAng_1_R@CDrSolid@@QAEXN@Z 10012de0 f i CurMdit.obj
 0001:00011e20       ?GetAng_2_R@CDrSolid@@QAENXZ 10012e20 f i CurMdit.obj
 0001:00011e50       ?SetAng_2_R@CDrSolid@@QAEXN@Z 10012e50 f i CurMdit.obj
 0001:00011e90       ?IsEndCondMode@CSheet_SOLI@@QAEHXZ 10012e90 f i CurMdit.obj
 0001:00011ec0       ?SetEndCondMode@CSheet_SOLI@@QAEXH@Z 10012ec0 f i CurMdit.obj
 0001:00011ef0       ?IsTackled@CDrObj3D@@QAEHXZ 10012ef0 f i CurMdit.obj
 0001:00011f20       ?SetTackled@CDrObj3D@@QAEXH@Z 10012f20 f i CurMdit.obj
 0001:00011f50       ??1CDlg_O3DI@@UAE@XZ       10012f50 f i CurMdit.obj
 0001:00011fc0       ??1CDlg_SupI@@UAE@XZ       10012fc0 f i CurMdit.obj
 0001:00012030       ?Parse_drPipe@CDrLinSup@@UAEPAUsupportcard@@PAVCString@@@Z 10013030 f i CurMdit.obj
 0001:00012050       ?GetSuppCard@CDrLinSup@@UAEPAUsupportcard@@XZ 10013050 f i CurMdit.obj
 0001:00012080       ?GetCardNo@CDrLinSup@@UAEHXZ 10013080 f i CurMdit.obj
 0001:000120b0       ?SetCardNo@CDrLinSup@@UAEXH@Z 100130b0 f i CurMdit.obj
 0001:000120e0       ?GetLabelNo@CDrLinSup@@QAEJXZ 100130e0 f i CurMdit.obj
 0001:00012110       ?SetLabelNo@CDrLinSup@@QAEXJ@Z 10013110 f i CurMdit.obj
 0001:00012140       ?GetnPts@CDrLinSup@@QAEHH@Z 10013140 f i CurMdit.obj
 0001:00012170       ?GetpLoc@CDrLinSup@@QAEPAUWORLD@@H@Z 10013170 f i CurMdit.obj
 0001:000121a0       ?IsSkewed@CDrLinSup@@UAEHXZ 100131a0 f i CurMdit.obj
 0001:000121d0       ?SetSkewed@CDrLinSup@@UAEXH@Z 100131d0 f i CurMdit.obj
 0001:00012200       ?GetSkewMat@CDrLinSup@@QAEPAUMATRIX@@XZ 10013200 f i CurMdit.obj
 0001:00012230       ?SetSkewMat@CDrLinSup@@QAEXPAUMATRIX@@@Z 10013230 f i CurMdit.obj
 0001:00012270       ?GetCreateBase@CDrLinSup@@QAEIXZ 10013270 f i CurMdit.obj
 0001:000122a0       ?SetCreateBase@CDrLinSup@@QAEXI@Z 100132a0 f i CurMdit.obj
 0001:000122d0       ?IsTriangle@CDrLinSup@@QAEHXZ 100132d0 f i CurMdit.obj
 0001:00012300       ?SetTriangle@CDrLinSup@@QAEXH@Z 10013300 f i CurMdit.obj
 0001:00012330       ?IsPentaHed@CDrLinSup@@QAEHXZ 10013330 f i CurMdit.obj
 0001:00012360       ?SetPentaHed@CDrLinSup@@QAEXH@Z 10013360 f i CurMdit.obj
 0001:00012390       ?GetCreate_i@CDrLinSup@@QAEHXZ 10013390 f i CurMdit.obj
 0001:000123c0       ?SetCreate_i@CDrLinSup@@QAEXH@Z 100133c0 f i CurMdit.obj
 0001:000123f0       ?GetCreate_j@CDrLinSup@@QAEHXZ 100133f0 f i CurMdit.obj
 0001:00012420       ?SetCreate_j@CDrLinSup@@QAEXH@Z 10013420 f i CurMdit.obj
 0001:00012450       ?GetCreate_k@CDrLinSup@@QAEHXZ 10013450 f i CurMdit.obj
 0001:00012480       ?SetCreate_k@CDrLinSup@@QAEXH@Z 10013480 f i CurMdit.obj
 0001:000124b0       ?GetNodPos@CDrLinSup@@QAEPAUWORLD@@XZ 100134b0 f i CurMdit.obj
 0001:000124e0       ?SetNodPos@CDrLinSup@@QAEXAAUWORLD@@@Z 100134e0 f i CurMdit.obj
 0001:00012520       ?Parse_drPipe@CDrStatic@@UAEPAUstaLcard@@PAVCString@@@Z 10013520 f i CurMdit.obj
 0001:00012540       ?GetCardNo@CDrStatic@@QAEHXZ 10013540 f i CurMdit.obj
 0001:00012570       ?SetCardNo@CDrStatic@@QAEXH@Z 10013570 f i CurMdit.obj
 0001:000125a0       ?GetStaLCard@CDrStatic@@QAEPAUstaLcard@@XZ 100135a0 f i CurMdit.obj
 0001:000125d0       ?GetNodeList@CDrStatic@@QAEPAVCDListMgr@@XZ 100135d0 f i CurMdit.obj
 0001:00012600       ?GetCurveList@CDrStatic@@QAEPAVCDListMgr@@XZ 10013600 f i CurMdit.obj
 0001:00012630       ?GetPatchList@CDrStatic@@QAEPAVCDListMgr@@XZ 10013630 f i CurMdit.obj
 0001:00012660       ?GetSolidList@CDrStatic@@QAEPAVCDListMgr@@XZ 10013660 f i CurMdit.obj
 0001:00012690       ?GetLabelNode@CDrStatic@@QAEPAVCDrNode@@XZ 10013690 f i CurMdit.obj
 0001:000126c0       ?SetLabelNode@CDrStatic@@QAEXPAVCDrNode@@@Z 100136c0 f i CurMdit.obj
 0001:000126f0       ?GetLabelPtr@CDrStatic@@QAEPAVCDrLabel@@XZ 100136f0 f i CurMdit.obj
 0001:00012720       ?SetLabelPtr@CDrStatic@@QAEXPAVCDrLabel@@@Z 10013720 f i CurMdit.obj
 0001:00012750       ?GetLabelNo@CDrStatic@@QAEJXZ 10013750 f i CurMdit.obj
 0001:00012780       ?SetLabelNo@CDrStatic@@QAEXJ@Z 10013780 f i CurMdit.obj
 0001:000127b0       ?GetLocalM@CDrStatic@@QAEPAUMATRIX@@XZ 100137b0 f i CurMdit.obj
 0001:000127e0       ?SetLocalM@CDrStatic@@QAEXPAUMATRIX@@@Z 100137e0 f i CurMdit.obj
 0001:00012820       ?GetnPts@CDrStatic@@QAEHH@Z 10013820 f i CurMdit.obj
 0001:00012850       ?GetpLoc@CDrStatic@@QAEPAUWORLD@@H@Z 10013850 f i CurMdit.obj
 0001:00012880       ?IsSkewed@CDrStatic@@UAEHXZ 10013880 f i CurMdit.obj
 0001:000128b0       ?SetSkewed@CDrStatic@@UAEXH@Z 100138b0 f i CurMdit.obj
 0001:000128e0       ?GetSkewMat@CDrStatic@@QAEPAUMATRIX@@XZ 100138e0 f i CurMdit.obj
 0001:00012910       ?SetSkewMat@CDrStatic@@QAEXPAUMATRIX@@@Z 10013910 f i CurMdit.obj
 0001:00012950       ?GetCreateBase@CDrStatic@@QAEIXZ 10013950 f i CurMdit.obj
 0001:00012980       ?SetCreateBase@CDrStatic@@QAEXI@Z 10013980 f i CurMdit.obj
 0001:000129b0       ?IsTriangle@CDrStatic@@QAEHXZ 100139b0 f i CurMdit.obj
 0001:000129e0       ?SetTriangle@CDrStatic@@QAEXH@Z 100139e0 f i CurMdit.obj
 0001:00012a10       ?IsPentaHed@CDrStatic@@QAEHXZ 10013a10 f i CurMdit.obj
 0001:00012a40       ?SetPentaHed@CDrStatic@@QAEXH@Z 10013a40 f i CurMdit.obj
 0001:00012a70       ?GetCreate_i@CDrStatic@@QAEHXZ 10013a70 f i CurMdit.obj
 0001:00012aa0       ?SetCreate_i@CDrStatic@@QAEXH@Z 10013aa0 f i CurMdit.obj
 0001:00012ad0       ?GetCreate_j@CDrStatic@@QAEHXZ 10013ad0 f i CurMdit.obj
 0001:00012b00       ?SetCreate_j@CDrStatic@@QAEXH@Z 10013b00 f i CurMdit.obj
 0001:00012b30       ?GetCreate_k@CDrStatic@@QAEHXZ 10013b30 f i CurMdit.obj
 0001:00012b60       ?SetCreate_k@CDrStatic@@QAEXH@Z 10013b60 f i CurMdit.obj
 0001:00012b90       ?GetNodPos@CDrStatic@@QAEPAUWORLD@@XZ 10013b90 f i CurMdit.obj
 0001:00012bc0       ?SetNodPos@CDrStatic@@QAEXAAUWORLD@@@Z 10013bc0 f i CurMdit.obj
 0001:00012c00       ?SetCurrentNode@CSLDNod@@QAEXPAVCDrNode@@@Z 10013c00 f i CurMdit.obj
 0001:00012c30       ?SetCurrentLabel@CSLDNod@@QAEXPAVCDrLabel@@@Z 10013c30 f i CurMdit.obj
 0001:00012c60       ??1CDlg_StLI@@UAE@XZ       10013c60 f i CurMdit.obj
 0001:00012d00       ??1CDlg_CrOI@@UAE@XZ       10013d00 f i CurMdit.obj
 0001:00012d80       ?GetCurveList@CDrProf_C@@QAEPAVCDListMgr@@XZ 10013d80 f i CurMdit.obj
 0001:00012db0       ?GetLMList@CDrProf_C@@QAEPAVCDListMgr@@XZ 10013db0 f i CurMdit.obj
 0001:00012de0       ?GetCurve@CDrProf_C@@QAEPAVCDrCurve@@XZ 10013de0 f i CurMdit.obj
 0001:00012e10       ?SetCurve@CDrProf_C@@QAEXPAVCDrCurve@@@Z 10013e10 f i CurMdit.obj
 0001:00012e40       ?GetProfileType@CDrProf_C@@QAE?AW4PROFILETYPE@@XZ 10013e40 f i CurMdit.obj
 0001:00012e70       ?SetProfileType@CDrProf_C@@QAEXW4PROFILETYPE@@@Z 10013e70 f i CurMdit.obj
 0001:00012ea0       ?GetElNumID@CDrFE0D@@QAEAAVCString@@XZ 10013ea0 f i CurMdit.obj
 0001:00012ed0       ?SetElNumID@CDrFE0D@@QAEXVCString@@@Z 10013ed0 f i CurMdit.obj
 0001:00012f50       ?GetElTypeID@CDrFE0D@@QAEAAVCString@@XZ 10013f50 f i CurMdit.obj
 0001:00012f80       ?SetElTypeID@CDrFE0D@@QAEXVCString@@@Z 10013f80 f i CurMdit.obj
 0001:00013000       ?Getrid@CDrFE0D@@QAEAAVCString@@XZ 10014000 f i CurMdit.obj
 0001:00013030       ?Setrid@CDrFE0D@@QAEXVCString@@@Z 10014030 f i CurMdit.obj
 0001:000130b0       ?Getpid@CDrFE0D@@QAEAAVCString@@XZ 100140b0 f i CurMdit.obj
 0001:000130e0       ?Setpid@CDrFE0D@@QAEXVCString@@@Z 100140e0 f i CurMdit.obj
 0001:00013160       ?Getmid@CDrFE0D@@QAEAAVCString@@XZ 10014160 f i CurMdit.obj
 0001:00013190       ?Setmid@CDrFE0D@@QAEXVCString@@@Z 10014190 f i CurMdit.obj
 0001:00013210       ?GetElNum@CDrFE0D@@QAEIXZ  10014210 f i CurMdit.obj
 0001:00013240       ?SetElNum@CDrFE0D@@QAEXI@Z 10014240 f i CurMdit.obj
 0001:00013270       ?GetElTypeNum@CDrFE0D@@QAEIXZ 10014270 f i CurMdit.obj
 0001:000132a0       ?SetElTypeNum@CDrFE0D@@QAEXI@Z 100142a0 f i CurMdit.obj
 0001:000132d0       ?Getrel@CDrFE0D@@QAEIXZ    100142d0 f i CurMdit.obj
 0001:00013300       ?Setrel@CDrFE0D@@QAEXI@Z   10014300 f i CurMdit.obj
 0001:00013330       ?Getprop@CDrFE0D@@QAEIXZ   10014330 f i CurMdit.obj
 0001:00013360       ?Setprop@CDrFE0D@@QAEXI@Z  10014360 f i CurMdit.obj
 0001:00013390       ?Getmat@CDrFE0D@@QAEIXZ    10014390 f i CurMdit.obj
 0001:000133c0       ?Setmat@CDrFE0D@@QAEXI@Z   100143c0 f i CurMdit.obj
 0001:000133f0       ?GetRefTemp@CDrFE0D@@QAENXZ 100143f0 f i CurMdit.obj
 0001:00013420       ?SetRefTemp@CDrFE0D@@QAEXN@Z 10014420 f i CurMdit.obj
 0001:00013460       ?GetNormalWorld@CDrFE0D@@UAEPAUWORLD@@XZ 10014460 f i CurMdit.obj
 0001:00013490       ?SetNormalWorld@CDrFE0D@@UAEXUWORLD@@@Z 10014490 f i CurMdit.obj
 0001:000134d0       ?GetNormalEye@CDrFE0D@@UAEPAUWORLD@@XZ 100144d0 f i CurMdit.obj
 0001:00013500       ?SetNormalEye@CDrFE0D@@UAEXUWORLD@@@Z 10014500 f i CurMdit.obj
 0001:00013540       ?GetNormalScreen3D@CDrFE0D@@UAEPAUWORLD@@XZ 10014540 f i CurMdit.obj
 0001:00013570       ?SetNormalScreen3D@CDrFE0D@@UAEXUWORLD@@@Z 10014570 f i CurMdit.obj
 0001:000135b0       ?GetNormalScreen2D@CDrFE0D@@UAEPAUtagPOINT@@XZ 100145b0 f i CurMdit.obj
 0001:000135e0       ?SetNormalScreen2D@CDrFE0D@@UAEXUtagPOINT@@@Z 100145e0 f i CurMdit.obj
 0001:00013620       ?IsMeshNode@CDrFE0D@@UAEHXZ 10014620 f i CurMdit.obj
 0001:00013650       ?SetMeshNode@CDrFE0D@@UAEXH@Z 10014650 f i CurMdit.obj
 0001:00013680       ?GetHist_S@CDrFE0D@@QAEHXZ 10014680 f i CurMdit.obj
 0001:000136b0       ?SetHist_S@CDrFE0D@@QAEXH@Z 100146b0 f i CurMdit.obj
 0001:000136e0       ?GetHist_T@CDrFE0D@@QAEHXZ 100146e0 f i CurMdit.obj
 0001:00013710       ?SetHist_T@CDrFE0D@@QAEXH@Z 10014710 f i CurMdit.obj
 0001:00013740       ?GetHist_R@CDrFE0D@@QAEHXZ 10014740 f i CurMdit.obj
 0001:00013770       ?SetHist_R@CDrFE0D@@QAEXH@Z 10014770 f i CurMdit.obj
 0001:000137a0       ??1CMlg_CrOI@@UAE@XZ       100147a0 f i CurMdit.obj
 0001:00013820       ?GetGenObj@CDrMesh1D@@QAEPAVCDrCurve@@XZ 10014820 f i CurMdit.obj
 0001:00013850       ?SetGenObj@CDrMesh1D@@QAEXPAVCDrCurve@@@Z 10014850 f i CurMdit.obj
 0001:00013880       ?GetRefQuad@CDrMesh2D@@UAE?AW4REF_QUAD@@XZ 10014880 f i CurMdit.obj
 0001:000138b0       ?SetRefQuad@CDrMesh2D@@UAEXW4REF_QUAD@@@Z 100148b0 f i CurMdit.obj
 0001:000138e0       ?GetRefTri@CDrMesh2D@@UAE?AW4REF_TRI@@XZ 100148e0 f i CurMdit.obj
 0001:00013910       ?SetRefTri@CDrMesh2D@@UAEXW4REF_TRI@@@Z 10014910 f i CurMdit.obj
 0001:00013940       ?GetOrient@CDrMesh2D@@UAE?AW4ORIENT@@XZ 10014940 f i CurMdit.obj
 0001:00013970       ?SetOrient@CDrMesh2D@@UAEXW4ORIENT@@@Z 10014970 f i CurMdit.obj
 0001:000139a0       ?GetGenObj@CDrMesh2D@@QAEPAVCDrPatch@@XZ 100149a0 f i CurMdit.obj
 0001:000139d0       ?SetGenObj@CDrMesh2D@@QAEXPAVCDrPatch@@@Z 100149d0 f i CurMdit.obj
 0001:00013a00       ?IsReversed_ST@CDrMesh2D@@QAEHXZ 10014a00 f i CurMdit.obj
 0001:00013a30       ?SetReversed_ST@CDrMesh2D@@QAEXH@Z 10014a30 f i CurMdit.obj
 0001:00013a60       ?GetEdgeList@CDrMesh2D@@QAEPAVCDListMgr@@XZ 10014a60 f i CurMdit.obj
 0001:00013a90       ?GetEdgeList@CDrMesh3D@@QAEPAVCDListMgr@@XZ 10014a90 f i CurMdit.obj
 0001:00013ac0       ?GetFaceList@CDrMesh3D@@QAEPAVCDListMgr@@XZ 10014ac0 f i CurMdit.obj
 0001:00013af0       ?GetGenObj@CDrMesh3D@@QAEPAVCDrSolid@@XZ 10014af0 f i CurMdit.obj
 0001:00013b20       ?SetGenObj@CDrMesh3D@@QAEXPAVCDrSolid@@@Z 10014b20 f i CurMdit.obj
 0001:00013b50       ??1CDlg_FE0I@@UAE@XZ       10014b50 f i CurMdit.obj
 0001:00013bd0       ?Parse_drPipe@CDrPipe@@UAEXPAVCString@@@Z 10014bd0 f i CurMdit.obj
 0001:00013bf0       ?GetMaxCorners@CDrPipe@@UAEHXZ 10014bf0 f i CurMdit.obj
 0001:00013c10       ?GetSIid@CDrPipe@@QAEAAVCString@@H@Z 10014c10 f i CurMdit.obj
 0001:00013c40       ?SetSIid@CDrPipe@@QAEXVCString@@H@Z 10014c40 f i CurMdit.obj
 0001:00013cc0       ?IsValve@CDrPipe@@QAEHXZ   10014cc0 f i CurMdit.obj
 0001:00013cf0       ?SetValve@CDrPipe@@QAEXH@Z 10014cf0 f i CurMdit.obj
 0001:00013d20       ?Parse_drPipe@CDrBeam@@UAEXPAVCString@@@Z 10014d20 f i CurMdit.obj
 0001:00013d40       ?GetMaxCorners@CDrBeam@@UAEHXZ 10014d40 f i CurMdit.obj
 0001:00013d60       ?GetKNodeID@CDrBeam@@UAEAAVCString@@XZ 10014d60 f i CurMdit.obj
 0001:00013d90       ?SetKNodeID@CDrBeam@@UAEXAAVCString@@@Z 10014d90 f i CurMdit.obj
 0001:00013dc0       ?Parse_drPipe@CDrTruss@@UAEXPAVCString@@@Z 10014dc0 f i CurMdit.obj
 0001:00013de0       ?GetMaxCorners@CDrTruss@@UAEHXZ 10014de0 f i CurMdit.obj
 0001:00013e00       ?Parse_drPipe@CDrElbow@@UAEXPAVCString@@@Z 10014e00 f i CurMdit.obj
 0001:00013e20       ?GetMaxCorners@CDrElbow@@UAEHXZ 10014e20 f i CurMdit.obj
 0001:00013e40       ?GetSIid@CDrElbow@@QAEAAVCString@@H@Z 10014e40 f i CurMdit.obj
 0001:00013e70       ?SetSIid@CDrElbow@@QAEXVCString@@H@Z 10014e70 f i CurMdit.obj
 0001:00013ef0       ?GetCCID@CDrElbow@@QAEAAVCString@@H@Z 10014ef0 f i CurMdit.obj
 0001:00013f20       ?SetCCID@CDrElbow@@QAEXVCString@@@Z 10014f20 f i CurMdit.obj
 0001:00013fa0       ?GetTIID@CDrElbow@@QAEAAVCString@@H@Z 10014fa0 f i CurMdit.obj
 0001:00013fd0       ?SetTIID@CDrElbow@@QAEXVCString@@@Z 10014fd0 f i CurMdit.obj
 0001:00014050       ?GetCAID@CDrElbow@@QAEAAVCString@@H@Z 10015050 f i CurMdit.obj
 0001:00014080       ?SetCAID@CDrElbow@@QAEXVCString@@@Z 10015080 f i CurMdit.obj
 0001:00014100       ?GetCBID@CDrElbow@@QAEAAVCString@@H@Z 10015100 f i CurMdit.obj
 0001:00014130       ?SetCBID@CDrElbow@@QAEXVCString@@@Z 10015130 f i CurMdit.obj
 0001:000141b0       ??1CDlg_FE1I@@UAE@XZ       100151b0 f i CurMdit.obj
 0001:00014290       ?GetDrFace@CFaceInfo@@QAEPAVCObject@@XZ 10015290 f i CurMdit.obj
 0001:000142b0       ?SetDrFace@CFaceInfo@@QAEXPAVCObject@@@Z 100152b0 f i CurMdit.obj
 0001:000142e0       ?GetFaceType@CFaceInfo@@QAEIXZ 100152e0 f i CurMdit.obj
 0001:00014300       ?SetFaceType@CFaceInfo@@QAEXI@Z 10015300 f i CurMdit.obj
 0001:00014330       ?GetGenObj@CFaceInfo@@QAEPAVCObject@@XZ 10015330 f i CurMdit.obj
 0001:00014350       ?SetGenObj@CFaceInfo@@QAEXPAVCObject@@@Z 10015350 f i CurMdit.obj
 0001:00014380       ?GetGenType@CFaceInfo@@QAEIXZ 10015380 f i CurMdit.obj
 0001:000143a0       ?SetGenType@CFaceInfo@@QAEXI@Z 100153a0 f i CurMdit.obj
 0001:000143d0       ?GetFaceDim@CFaceInfo@@QAEIXZ 100153d0 f i CurMdit.obj
 0001:000143f0       ?SetFaceDim@CFaceInfo@@QAEXI@Z 100153f0 f i CurMdit.obj
 0001:00014420       ?GetObjectID@CDrEdge@@QAEAAVCString@@XZ 10015420 f i CurMdit.obj
 0001:00014440       ?SetObjectID@CDrEdge@@QAEXAAVCString@@@Z 10015440 f i CurMdit.obj
 0001:00014470       ?GetVrtxIndex@CDrEdge@@QAEHH@Z 10015470 f i CurMdit.obj
 0001:000144a0       ?SetVrtxIndex@CDrEdge@@QAEXHH@Z 100154a0 f i CurMdit.obj
 0001:000144d0       ?GetFaceInfoList@CDrEdge@@QAEPAVCDListMgr@@XZ 100154d0 f i CurMdit.obj
 0001:000144f0       ?GetHist_RCH@CDrEdge@@QAEHXZ 100154f0 f i CurMdit.obj
 0001:00014510       ?SetHist_RCH@CDrEdge@@QAEXH@Z 10015510 f i CurMdit.obj
 0001:00014540       ?GetHistType@CDrEdge@@QAEHXZ 10015540 f i CurMdit.obj
 0001:00014560       ?SetHistType@CDrEdge@@QAEXH@Z 10015560 f i CurMdit.obj
 0001:00014590       ?GetMesh@CDrEdge@@QAEPAVCDrObject@@XZ 10015590 f i CurMdit.obj
 0001:000145b0       ?SetMesh@CDrEdge@@QAEXPAVCDrObject@@@Z 100155b0 f i CurMdit.obj
 0001:000145e0       ?GetMeshType@CDrEdge@@QAEIXZ 100155e0 f i CurMdit.obj
 0001:00014600       ?SetMeshType@CDrEdge@@QAEXI@Z 10015600 f i CurMdit.obj
 0001:00014630       ?IsOnBndry@CDrEdge@@QAEHXZ 10015630 f i CurMdit.obj
 0001:00014650       ?SetOnBndry@CDrEdge@@QAEXH@Z 10015650 f i CurMdit.obj
 0001:00014680       ??1CDlg_FE2I@@UAE@XZ       10015680 f i CurMdit.obj
 0001:00014760       ?GetMesh1DList@CDrProf_1@@UAEPAVCDListMgr@@XZ 10015760 f i CurMdit.obj
 0001:00014790       ?GetLMList@CDrProf_1@@UAEPAVCDListMgr@@XZ 10015790 f i CurMdit.obj
 0001:000147c0       ?GetMesh1D@CDrProf_1@@UAEPAVCDrMesh1D@@XZ 100157c0 f i CurMdit.obj
 0001:000147f0       ?SetMesh1D@CDrProf_1@@UAEXPAVCDrMesh1D@@@Z 100157f0 f i CurMdit.obj
 0001:00014820       ?GetObjectType@CBooleans@@UAEHXZ 10015820 f i CurMdit.obj
 0001:00014850       ?SetObjectType@CBooleans@@UAEXH@Z 10015850 f i CurMdit.obj
 0001:00014880       ?GetElemType@CBooleans@@UAEHXZ 10015880 f i CurMdit.obj
 0001:000148b0       ?SetElemType@CBooleans@@UAEXH@Z 100158b0 f i CurMdit.obj
 0001:000148e0       ?GetObjectNo@CBooleans@@UAEJXZ 100158e0 f i CurMdit.obj
 0001:00014910       ?SetObjectNo@CBooleans@@UAEXJ@Z 10015910 f i CurMdit.obj
 0001:00014940       ?IsSoundOn@CBooleans@@UAEHXZ 10015940 f i CurMdit.obj
 0001:00014970       ?ToggleSoundOn@CBooleans@@UAEXXZ 10015970 f i CurMdit.obj
 0001:000149b0       ?IsCoonSocksOff@CBooleans@@UAEHXZ 100159b0 f i CurMdit.obj
 0001:000149e0       ?ToggleCoonSocksOff@CBooleans@@UAEXXZ 100159e0 f i CurMdit.obj
 0001:00014a20       ?IsSnapOn@CBooleans@@UAEHXZ 10015a20 f i CurMdit.obj
 0001:00014a50       ?ToggleSnapOn@CBooleans@@UAEXXZ 10015a50 f i CurMdit.obj
 0001:00014a90       ?IsHorSnapOn@CBooleans@@UAEHXZ 10015a90 f i CurMdit.obj
 0001:00014ac0       ?ToggleHorSnapOn@CBooleans@@UAEXXZ 10015ac0 f i CurMdit.obj
 0001:00014b00       ?IsVerSnapOn@CBooleans@@UAEHXZ 10015b00 f i CurMdit.obj
 0001:00014b30       ?ToggleVerSnapOn@CBooleans@@UAEXXZ 10015b30 f i CurMdit.obj
 0001:00014b70       ?IsSpawnOn@CBooleans@@UAEHXZ 10015b70 f i CurMdit.obj
 0001:00014ba0       ?ToggleSpawnOn@CBooleans@@UAEXXZ 10015ba0 f i CurMdit.obj
 0001:00014be0       ?IsBLineOn@CBooleans@@UAEHXZ 10015be0 f i CurMdit.obj
 0001:00014c10       ?ToggleBLineOn@CBooleans@@UAEXXZ 10015c10 f i CurMdit.obj
 0001:00014c50       ?IsSingleSegOn@CBooleans@@UAEHXZ 10015c50 f i CurMdit.obj
 0001:00014c80       ?ToggleSingleSegOn@CBooleans@@UAEXXZ 10015c80 f i CurMdit.obj
 0001:00014cc0       ?IsAutoAcceptOn@CBooleans@@UAEHXZ 10015cc0 f i CurMdit.obj
 0001:00014cf0       ?ToggleAutoAcceptOn@CBooleans@@UAEXXZ 10015cf0 f i CurMdit.obj
 0001:00014d30       ?IsDialogOn@CBooleans@@UAEHXZ 10015d30 f i CurMdit.obj
 0001:00014d60       ?ToggleDialogOn@CBooleans@@UAEXXZ 10015d60 f i CurMdit.obj
 0001:00014da0       ?IsElementOn@CBooleans@@UAEHXZ 10015da0 f i CurMdit.obj
 0001:00014dd0       ?ToggleElementOn@CBooleans@@UAEXXZ 10015dd0 f i CurMdit.obj
 0001:00014e10       ?IsDragOn@CBooleans@@UAEHXZ 10015e10 f i CurMdit.obj
 0001:00014e40       ?ToggleDragOn@CBooleans@@UAEXXZ 10015e40 f i CurMdit.obj
 0001:00014e80       ?IsRefreshOn@CBooleans@@UAEHXZ 10015e80 f i CurMdit.obj
 0001:00014eb0       ?ToggleRefreshOn@CBooleans@@UAEXXZ 10015eb0 f i CurMdit.obj
 0001:00014ef0       ?IsRubberBandOn@CBooleans@@UAEHXZ 10015ef0 f i CurMdit.obj
 0001:00014f20       ?ToggleRubberBandOn@CBooleans@@UAEXXZ 10015f20 f i CurMdit.obj
 0001:00014f60       ?IsStViewActive@CBooleans@@UAEHXZ 10015f60 f i CurMdit.obj
 0001:00014f90       ?ToggleStViewActive@CBooleans@@UAEXXZ 10015f90 f i CurMdit.obj
 0001:00014fd0       ?IsSpViewActive@CBooleans@@UAEHXZ 10015fd0 f i CurMdit.obj
 0001:00015000       ?ToggleSpViewActive@CBooleans@@UAEXXZ 10016000 f i CurMdit.obj
 0001:00015040       ?IsHsViewActive@CBooleans@@UAEHXZ 10016040 f i CurMdit.obj
 0001:00015070       ?ToggleHsViewActive@CBooleans@@UAEXXZ 10016070 f i CurMdit.obj
 0001:000150b0       ?Is12ViewActive@CBooleans@@UAEHXZ 100160b0 f i CurMdit.obj
 0001:000150e0       ?Toggle12ViewActive@CBooleans@@UAEXXZ 100160e0 f i CurMdit.obj
 0001:00015120       ?Is23ViewActive@CBooleans@@UAEHXZ 10016120 f i CurMdit.obj
 0001:00015150       ?Toggle23ViewActive@CBooleans@@UAEXXZ 10016150 f i CurMdit.obj
 0001:00015190       ?Is31ViewActive@CBooleans@@UAEHXZ 10016190 f i CurMdit.obj
 0001:000151c0       ?Toggle31ViewActive@CBooleans@@UAEXXZ 100161c0 f i CurMdit.obj
 0001:00015200       ?IsIsoViewActive@CBooleans@@UAEHXZ 10016200 f i CurMdit.obj
 0001:00015230       ?ToggleIsoViewActive@CBooleans@@UAEXXZ 10016230 f i CurMdit.obj
 0001:00015270       ?IsDataViewActive@CBooleans@@UAEHXZ 10016270 f i CurMdit.obj
 0001:000152a0       ?ToggleDataViewActive@CBooleans@@UAEXXZ 100162a0 f i CurMdit.obj
 0001:000152e0       ?IsMeshDataViewActive@CBooleans@@UAEHXZ 100162e0 f i CurMdit.obj
 0001:00015310       ?ToggleMeshDataViewActive@CBooleans@@UAEXXZ 10016310 f i CurMdit.obj
 0001:00015350       ?IsDeckViewActive@CBooleans@@UAEHXZ 10016350 f i CurMdit.obj
 0001:00015380       ?ToggleDeckViewActive@CBooleans@@UAEXXZ 10016380 f i CurMdit.obj
 0001:000153c0       ?IsFormDataViewActive@CBooleans@@UAEHXZ 100163c0 f i CurMdit.obj
 0001:000153f0       ?ToggleFormDataViewActive@CBooleans@@UAEXXZ 100163f0 f i CurMdit.obj
 0001:00015430       ?IsInputMode@CBooleans@@UAEHXZ 10016430 f i CurMdit.obj
 0001:00015460       ?SetInputMode@CBooleans@@UAEXH@Z 10016460 f i CurMdit.obj
 0001:00015490       ?IsOutputMode@CBooleans@@UAEHXZ 10016490 f i CurMdit.obj
 0001:000154c0       ?SetOutputMode@CBooleans@@UAEXH@Z 100164c0 f i CurMdit.obj
 0001:000154f0       ??1CBooleans@@UAE@XZ       100164f0 f i CurMdit.obj
 0001:00015520       ??_GCBooleans@@UAEPAXI@Z   10016520 f i CurMdit.obj
 0001:00015560       ??_ECBooleans@@UAEPAXI@Z   10016560 f i CurMdit.obj
 0001:00015600       ?GetObjectType@CDataWindow@@UAEHXZ 10016600 f i CurMdit.obj
 0001:00015630       ?SetObjectType@CDataWindow@@UAEXH@Z 10016630 f i CurMdit.obj
 0001:00015660       ?GetElemType@CDataWindow@@UAEHXZ 10016660 f i CurMdit.obj
 0001:00015690       ?SetElemType@CDataWindow@@UAEXH@Z 10016690 f i CurMdit.obj
 0001:000156c0       ?GetObjectNo@CDataWindow@@UAEJXZ 100166c0 f i CurMdit.obj
 0001:000156f0       ?SetObjectNo@CDataWindow@@UAEXJ@Z 100166f0 f i CurMdit.obj
 0001:00015720       ?GetWinOrgWIC@CDataWindow@@UAE?AULPOINT3@@XZ 10016720 f i CurMdit.obj
 0001:00015760       ?GetWinMinWIC@CDataWindow@@UAE?AULPOINT3@@XZ 10016760 f i CurMdit.obj
 0001:000157a0       ?GetWinMaxWIC@CDataWindow@@UAE?AULPOINT3@@XZ 100167a0 f i CurMdit.obj
 0001:000157e0       ?GetWinExtWIC@CDataWindow@@UAE?AULPOINT3@@XZ 100167e0 f i CurMdit.obj
 0001:00015820       ??1CDataWindow@@UAE@XZ     10016820 f i CurMdit.obj
 0001:00015850       ??_GCDataWindow@@UAEPAXI@Z 10016850 f i CurMdit.obj
 0001:00015890       ??_ECDataWindow@@UAEPAXI@Z 10016890 f i CurMdit.obj
 0001:00015930       ?GetObjectType@CDrFont@@UAEHXZ 10016930 f i CurMdit.obj
 0001:00015960       ?SetObjectType@CDrFont@@UAEXH@Z 10016960 f i CurMdit.obj
 0001:00015990       ?GetElemType@CDrFont@@UAEHXZ 10016990 f i CurMdit.obj
 0001:000159c0       ?SetElemType@CDrFont@@UAEXH@Z 100169c0 f i CurMdit.obj
 0001:000159f0       ?GetObjectNo@CDrFont@@UAEJXZ 100169f0 f i CurMdit.obj
 0001:00015a20       ?SetObjectNo@CDrFont@@UAEXJ@Z 10016a20 f i CurMdit.obj
 0001:00015a50       ?IsFontSelected@CDrFont@@UAEHXZ 10016a50 f i CurMdit.obj
 0001:00015a80       ?GetTextColor@CDrFont@@UAEKXZ 10016a80 f i CurMdit.obj
 0001:00015ab0       ?SetTextColor@CDrFont@@UAEXK@Z 10016ab0 f i CurMdit.obj
 0001:00015ae0       ?GetCurrentLogFont@CDrFont@@UAE?AUtagLOGFONTA@@XZ 10016ae0 f i CurMdit.obj
 0001:00015b20       ?SetCurrentLogFont@CDrFont@@UAEXUtagLOGFONTA@@@Z 10016b20 f i CurMdit.obj
 0001:00015b60       ??1CDrFont@@UAE@XZ         10016b60 f i CurMdit.obj
 0001:00015b90       ??_GCDrFont@@UAEPAXI@Z     10016b90 f i CurMdit.obj
 0001:00015bd0       ??_ECDrFont@@UAEPAXI@Z     10016bd0 f i CurMdit.obj
 0001:00015c70       ?GetObjectType@CDrPen@@UAEHXZ 10016c70 f i CurMdit.obj
 0001:00015ca0       ?SetObjectType@CDrPen@@UAEXH@Z 10016ca0 f i CurMdit.obj
 0001:00015cd0       ?GetElemType@CDrPen@@UAEHXZ 10016cd0 f i CurMdit.obj
 0001:00015d00       ?SetElemType@CDrPen@@UAEXH@Z 10016d00 f i CurMdit.obj
 0001:00015d30       ?GetObjectNo@CDrPen@@UAEJXZ 10016d30 f i CurMdit.obj
 0001:00015d60       ?SetObjectNo@CDrPen@@UAEXJ@Z 10016d60 f i CurMdit.obj
 0001:00015d90       ?GetCurrentPen@CDrPen@@UAEPAVCPen@@XZ 10016d90 f i CurMdit.obj
 0001:00015dc0       ?GetStyle@CDrPen@@UAEHXZ   10016dc0 f i CurMdit.obj
 0001:00015df0       ?SetStyle@CDrPen@@UAEXH@Z  10016df0 f i CurMdit.obj
 0001:00015e20       ?GetStyleOld@CDrPen@@UAEHXZ 10016e20 f i CurMdit.obj
 0001:00015e50       ?SetStyleOld@CDrPen@@UAEXH@Z 10016e50 f i CurMdit.obj
 0001:00015e80       ?GetStyleDefault@CDrPen@@UAEHXZ 10016e80 f i CurMdit.obj
 0001:00015eb0       ?SetStyleDefault@CDrPen@@UAEXH@Z 10016eb0 f i CurMdit.obj
 0001:00015ee0       ?GetWidth@CDrPen@@UAEHXZ   10016ee0 f i CurMdit.obj
 0001:00015f10       ?SetWidth@CDrPen@@UAEXH@Z  10016f10 f i CurMdit.obj
 0001:00015f40       ?GetWidthOld@CDrPen@@UAEHXZ 10016f40 f i CurMdit.obj
 0001:00015f70       ?SetWidthOld@CDrPen@@UAEXH@Z 10016f70 f i CurMdit.obj
 0001:00015fa0       ?GetWidthDefault@CDrPen@@UAEHXZ 10016fa0 f i CurMdit.obj
 0001:00015fd0       ?SetWidthDefault@CDrPen@@UAEXH@Z 10016fd0 f i CurMdit.obj
 0001:00016000       ?GetColor@CDrPen@@UAEKXZ   10017000 f i CurMdit.obj
 0001:00016030       ?SetColor@CDrPen@@UAEXK@Z  10017030 f i CurMdit.obj
 0001:00016060       ?GetColorOld@CDrPen@@UAEKXZ 10017060 f i CurMdit.obj
 0001:00016090       ?SetColorOld@CDrPen@@UAEXK@Z 10017090 f i CurMdit.obj
 0001:000160c0       ?GetColorDefault@CDrPen@@UAEKXZ 100170c0 f i CurMdit.obj
 0001:000160f0       ?SetColorDefault@CDrPen@@UAEXK@Z 100170f0 f i CurMdit.obj
 0001:00016120       ?GetIndex@CDrPen@@UAEIXZ   10017120 f i CurMdit.obj
 0001:00016150       ?SetIndex@CDrPen@@UAEXI@Z  10017150 f i CurMdit.obj
 0001:00016180       ?GetIndexOld@CDrPen@@UAEIXZ 10017180 f i CurMdit.obj
 0001:000161b0       ?SetIndexOld@CDrPen@@UAEXI@Z 100171b0 f i CurMdit.obj
 0001:000161e0       ?GetIndexDefault@CDrPen@@UAEIXZ 100171e0 f i CurMdit.obj
 0001:00016210       ?SetIndexDefault@CDrPen@@UAEXI@Z 10017210 f i CurMdit.obj
 0001:00016240       ?GetStyleNameCount@CDrPen@@UAEIXZ 10017240 f i CurMdit.obj
 0001:00016270       ?SetStyleNameCount@CDrPen@@UAEXI@Z 10017270 f i CurMdit.obj
 0001:000162a0       ?GetStyleName@CDrPen@@UAE?AVCString@@I@Z 100172a0 f i CurMdit.obj
 0001:000162f0       ?GetStyleConstant@CDrPen@@UAEII@Z 100172f0 f i CurMdit.obj
 0001:00016320       ??1CDrPen@@UAE@XZ          10017320 f i CurMdit.obj
 0001:000163c0       ??_GCDrPen@@UAEPAXI@Z      100173c0 f i CurMdit.obj
 0001:00016400       ??_ECDrPen@@UAEPAXI@Z      10017400 f i CurMdit.obj
 0001:000164a0       ?GetObjectType@CHitNet@@UAEHXZ 100174a0 f i CurMdit.obj
 0001:000164d0       ?SetObjectType@CHitNet@@UAEXH@Z 100174d0 f i CurMdit.obj
 0001:00016500       ?GetElemType@CHitNet@@UAEHXZ 10017500 f i CurMdit.obj
 0001:00016530       ?SetElemType@CHitNet@@UAEXH@Z 10017530 f i CurMdit.obj
 0001:00016560       ?GetObjectNo@CHitNet@@UAEJXZ 10017560 f i CurMdit.obj
 0001:00016590       ?SetObjectNo@CHitNet@@UAEXJ@Z 10017590 f i CurMdit.obj
 0001:000165c0       ?GetSearchNet@CHitNet@@QAEHXZ 100175c0 f i CurMdit.obj
 0001:000165f0       ?SetSearchNet@CHitNet@@QAEXH@Z 100175f0 f i CurMdit.obj
 0001:00016620       ?GetSearchNetOld@CHitNet@@QAEHXZ 10017620 f i CurMdit.obj
 0001:00016650       ?SetSearchNetOld@CHitNet@@QAEXH@Z 10017650 f i CurMdit.obj
 0001:00016680       ?GetSearchNetDefault@CHitNet@@QAEHXZ 10017680 f i CurMdit.obj
 0001:000166b0       ?SetSearchNetDefault@CHitNet@@QAEXH@Z 100176b0 f i CurMdit.obj
 0001:000166e0       ?GetSearchDet@CHitNet@@QAENXZ 100176e0 f i CurMdit.obj
 0001:00016710       ?SetSearchDet@CHitNet@@QAEXN@Z 10017710 f i CurMdit.obj
 0001:00016750       ?GetSearchDetOld@CHitNet@@QAENXZ 10017750 f i CurMdit.obj
 0001:00016780       ?SetSearchDetOld@CHitNet@@QAEXN@Z 10017780 f i CurMdit.obj
 0001:000167c0       ?GetSearchDetDefault@CHitNet@@QAENXZ 100177c0 f i CurMdit.obj
 0001:000167f0       ?SetSearchDetDefault@CHitNet@@QAEXN@Z 100177f0 f i CurMdit.obj
 0001:00016830       ?GetDblRatio@CHitNet@@QAENXZ 10017830 f i CurMdit.obj
 0001:00016860       ?SetDblRatio@CHitNet@@QAEXN@Z 10017860 f i CurMdit.obj
 0001:000168a0       ?GetDblRatioOld@CHitNet@@QAENXZ 100178a0 f i CurMdit.obj
 0001:000168d0       ?SetDblRatioOld@CHitNet@@QAEXN@Z 100178d0 f i CurMdit.obj
 0001:00016910       ?GetDblRatioDefault@CHitNet@@QAENXZ 10017910 f i CurMdit.obj
 0001:00016940       ?SetDblRatioDefault@CHitNet@@QAEXN@Z 10017940 f i CurMdit.obj
 0001:00016980       ?GetCoLinear@CHitNet@@QAENXZ 10017980 f i CurMdit.obj
 0001:000169b0       ?SetCoLinear@CHitNet@@QAEXN@Z 100179b0 f i CurMdit.obj
 0001:000169f0       ?GetCoLinearOld@CHitNet@@QAENXZ 100179f0 f i CurMdit.obj
 0001:00016a20       ?SetCoLinearOld@CHitNet@@QAEXN@Z 10017a20 f i CurMdit.obj
 0001:00016a60       ?GetCoLinearDefault@CHitNet@@QAENXZ 10017a60 f i CurMdit.obj
 0001:00016a90       ?SetCoLinearDefault@CHitNet@@QAEXN@Z 10017a90 f i CurMdit.obj
 0001:00016ad0       ?GetCoPlanar@CHitNet@@QAENXZ 10017ad0 f i CurMdit.obj
 0001:00016b00       ?SetCoPlanar@CHitNet@@QAEXN@Z 10017b00 f i CurMdit.obj
 0001:00016b40       ?GetCoPlanarOld@CHitNet@@QAENXZ 10017b40 f i CurMdit.obj
 0001:00016b70       ?SetCoPlanarOld@CHitNet@@QAEXN@Z 10017b70 f i CurMdit.obj
 0001:00016bb0       ?GetCoPlanarDefault@CHitNet@@QAENXZ 10017bb0 f i CurMdit.obj
 0001:00016be0       ?SetCoPlanarDefault@CHitNet@@QAEXN@Z 10017be0 f i CurMdit.obj
 0001:00016c20       ?GetMergeNode_X@CHitNet@@QAENXZ 10017c20 f i CurMdit.obj
 0001:00016c50       ?SetMergeNode_X@CHitNet@@QAEXN@Z 10017c50 f i CurMdit.obj
 0001:00016c90       ?GetMergeNode_XOld@CHitNet@@QAENXZ 10017c90 f i CurMdit.obj
 0001:00016cc0       ?SetMergeNode_XOld@CHitNet@@QAEXN@Z 10017cc0 f i CurMdit.obj
 0001:00016d00       ?GetMergeNode_XDefault@CHitNet@@QAENXZ 10017d00 f i CurMdit.obj
 0001:00016d30       ?SetMergeNode_XDefault@CHitNet@@QAEXN@Z 10017d30 f i CurMdit.obj
 0001:00016d70       ?GetMergeNode_Y@CHitNet@@QAENXZ 10017d70 f i CurMdit.obj
 0001:00016da0       ?SetMergeNode_Y@CHitNet@@QAEXN@Z 10017da0 f i CurMdit.obj
 0001:00016de0       ?GetMergeNode_YOld@CHitNet@@QAENXZ 10017de0 f i CurMdit.obj
 0001:00016e10       ?SetMergeNode_YOld@CHitNet@@QAEXN@Z 10017e10 f i CurMdit.obj
 0001:00016e50       ?GetMergeNode_YDefault@CHitNet@@QAENXZ 10017e50 f i CurMdit.obj
 0001:00016e80       ?SetMergeNode_YDefault@CHitNet@@QAEXN@Z 10017e80 f i CurMdit.obj
 0001:00016ec0       ?GetMergeNode_Z@CHitNet@@QAENXZ 10017ec0 f i CurMdit.obj
 0001:00016ef0       ?SetMergeNode_Z@CHitNet@@QAEXN@Z 10017ef0 f i CurMdit.obj
 0001:00016f30       ?GetMergeNode_ZOld@CHitNet@@QAENXZ 10017f30 f i CurMdit.obj
 0001:00016f60       ?SetMergeNode_ZOld@CHitNet@@QAEXN@Z 10017f60 f i CurMdit.obj
 0001:00016fa0       ?GetMergeNode_ZDefault@CHitNet@@QAENXZ 10017fa0 f i CurMdit.obj
 0001:00016fd0       ?SetMergeNode_ZDefault@CHitNet@@QAEXN@Z 10017fd0 f i CurMdit.obj
 0001:00017010       ??1CHitNet@@UAE@XZ         10018010 f i CurMdit.obj
 0001:00017040       ??_GCHitNet@@UAEPAXI@Z     10018040 f i CurMdit.obj
 0001:00017080       ??_ECHitNet@@UAEPAXI@Z     10018080 f i CurMdit.obj
 0001:00017120       ?GetObjectType@CLayer@@UAEHXZ 10018120 f i CurMdit.obj
 0001:00017150       ?SetObjectType@CLayer@@UAEXH@Z 10018150 f i CurMdit.obj
 0001:00017180       ?GetElemType@CLayer@@UAEHXZ 10018180 f i CurMdit.obj
 0001:000171b0       ?SetElemType@CLayer@@UAEXH@Z 100181b0 f i CurMdit.obj
 0001:000171e0       ?GetObjectNo@CLayer@@UAEJXZ 100181e0 f i CurMdit.obj
 0001:00017210       ?SetObjectNo@CLayer@@UAEXJ@Z 10018210 f i CurMdit.obj
 0001:00017240       ?GetCurrentLayer@CLayer@@UAEIXZ 10018240 f i CurMdit.obj
 0001:00017270       ?SetCurrentLayer@CLayer@@UAEXI@Z 10018270 f i CurMdit.obj
 0001:000172a0       ?GetCurrentLayerOld@CLayer@@UAEIXZ 100182a0 f i CurMdit.obj
 0001:000172d0       ?SetCurrentLayerOld@CLayer@@UAEXI@Z 100182d0 f i CurMdit.obj
 0001:00017300       ?GetCurrentLayerDefault@CLayer@@UAEIXZ 10018300 f i CurMdit.obj
 0001:00017330       ?SetCurrentLayerDefault@CLayer@@UAEXI@Z 10018330 f i CurMdit.obj
 0001:00017360       ??1CLayer@@UAE@XZ          10018360 f i CurMdit.obj
 0001:00017390       ??_GCLayer@@UAEPAXI@Z      10018390 f i CurMdit.obj
 0001:000173d0       ??_ECLayer@@UAEPAXI@Z      100183d0 f i CurMdit.obj
 0001:00017470       ?GetObjectType@CPatchMnu@@UAEHXZ 10018470 f i CurMdit.obj
 0001:000174a0       ?SetObjectType@CPatchMnu@@UAEXH@Z 100184a0 f i CurMdit.obj
 0001:000174d0       ?GetElemType@CPatchMnu@@UAEHXZ 100184d0 f i CurMdit.obj
 0001:00017500       ?SetElemType@CPatchMnu@@UAEXH@Z 10018500 f i CurMdit.obj
 0001:00017530       ?GetObjectNo@CPatchMnu@@UAEJXZ 10018530 f i CurMdit.obj
 0001:00017560       ?SetObjectNo@CPatchMnu@@UAEXJ@Z 10018560 f i CurMdit.obj
 0001:00017590       ?GetCurrentPatchMnu@CPatchMnu@@UAEIXZ 10018590 f i CurMdit.obj
 0001:000175c0       ?SetCurrentPatchMnu@CPatchMnu@@UAEXI@Z 100185c0 f i CurMdit.obj
 0001:000175f0       ?GetCurrentPatchMnuOld@CPatchMnu@@UAEIXZ 100185f0 f i CurMdit.obj
 0001:00017620       ?SetCurrentPatchMnuOld@CPatchMnu@@UAEXI@Z 10018620 f i CurMdit.obj
 0001:00017650       ?GetCurrentPatchMnuDefault@CPatchMnu@@UAEIXZ 10018650 f i CurMdit.obj
 0001:00017680       ?SetCurrentPatchMnuDefault@CPatchMnu@@UAEXI@Z 10018680 f i CurMdit.obj
 0001:000176b0       ?GetPatchMnuID@CPatchMnu@@UAE?AVCString@@I@Z 100186b0 f i CurMdit.obj
 0001:00017700       ?SetPatchMnuID@CPatchMnu@@UAEXVCString@@I@Z 10018700 f i CurMdit.obj
 0001:00017780       ?GetCurrentID@CPatchMnu@@UAE?AVCString@@XZ 10018780 f i CurMdit.obj
 0001:000177d0       ?SetCurrentID@CPatchMnu@@UAEXVCString@@@Z 100187d0 f i CurMdit.obj
 0001:00017850       ??1CPatchMnu@@UAE@XZ       10018850 f i CurMdit.obj
 0001:00017910       ??_GCPatchMnu@@UAEPAXI@Z   10018910 f i CurMdit.obj
 0001:00017950       ??_ECPatchMnu@@UAEPAXI@Z   10018950 f i CurMdit.obj
 0001:000179f0       ?GetObjectType@CObj3DMnu@@UAEHXZ 100189f0 f i CurMdit.obj
 0001:00017a20       ?SetObjectType@CObj3DMnu@@UAEXH@Z 10018a20 f i CurMdit.obj
 0001:00017a50       ?GetElemType@CObj3DMnu@@UAEHXZ 10018a50 f i CurMdit.obj
 0001:00017a80       ?SetElemType@CObj3DMnu@@UAEXH@Z 10018a80 f i CurMdit.obj
 0001:00017ab0       ?GetObjectNo@CObj3DMnu@@UAEJXZ 10018ab0 f i CurMdit.obj
 0001:00017ae0       ?SetObjectNo@CObj3DMnu@@UAEXJ@Z 10018ae0 f i CurMdit.obj
 0001:00017b10       ?GetCurrentObj3DMnu@CObj3DMnu@@UAEIXZ 10018b10 f i CurMdit.obj
 0001:00017b40       ?SetCurrentObj3DMnu@CObj3DMnu@@UAEXI@Z 10018b40 f i CurMdit.obj
 0001:00017b70       ?GetCurrentObj3DMnuOld@CObj3DMnu@@UAEIXZ 10018b70 f i CurMdit.obj
 0001:00017ba0       ?SetCurrentObj3DMnuOld@CObj3DMnu@@UAEXI@Z 10018ba0 f i CurMdit.obj
 0001:00017bd0       ?GetCurrentObj3DMnuDefault@CObj3DMnu@@UAEIXZ 10018bd0 f i CurMdit.obj
 0001:00017c00       ?SetCurrentObj3DMnuDefault@CObj3DMnu@@UAEXI@Z 10018c00 f i CurMdit.obj
 0001:00017c30       ?GetObj3DMnuID@CObj3DMnu@@UAE?AVCString@@I@Z 10018c30 f i CurMdit.obj
 0001:00017c80       ?SetObj3DMnuID@CObj3DMnu@@UAEXVCString@@I@Z 10018c80 f i CurMdit.obj
 0001:00017d00       ?GetCurrentID@CObj3DMnu@@UAE?AVCString@@XZ 10018d00 f i CurMdit.obj
 0001:00017d50       ?SetCurrentID@CObj3DMnu@@UAEXVCString@@@Z 10018d50 f i CurMdit.obj
 0001:00017dd0       ??1CObj3DMnu@@UAE@XZ       10018dd0 f i CurMdit.obj
 0001:00017e90       ??_GCObj3DMnu@@UAEPAXI@Z   10018e90 f i CurMdit.obj
 0001:00017ed0       ??_ECObj3DMnu@@UAEPAXI@Z   10018ed0 f i CurMdit.obj
 0001:00017f70       ?GetObjectType@CMapFactor@@UAEHXZ 10018f70 f i CurMdit.obj
 0001:00017fa0       ?SetObjectType@CMapFactor@@UAEXH@Z 10018fa0 f i CurMdit.obj
 0001:00017fd0       ?GetElemType@CMapFactor@@UAEHXZ 10018fd0 f i CurMdit.obj
 0001:00018000       ?SetElemType@CMapFactor@@UAEXH@Z 10019000 f i CurMdit.obj
 0001:00018030       ?GetObjectNo@CMapFactor@@UAEJXZ 10019030 f i CurMdit.obj
 0001:00018060       ?SetObjectNo@CMapFactor@@UAEXJ@Z 10019060 f i CurMdit.obj
 0001:00018090       ?GetMapFactor@CMapFactor@@UAENXZ 10019090 f i CurMdit.obj
 0001:000180c0       ?SetMapFactor@CMapFactor@@UAEXN@Z 100190c0 f i CurMdit.obj
 0001:00018100       ?GetMapModeIndex@CMapFactor@@UAEHXZ 10019100 f i CurMdit.obj
 0001:00018130       ?SetMapModeIndex@CMapFactor@@UAEXH@Z 10019130 f i CurMdit.obj
 0001:00018160       ??1CMapFactor@@UAE@XZ      10019160 f i CurMdit.obj
 0001:00018190       ??_GCMapFactor@@UAEPAXI@Z  10019190 f i CurMdit.obj
 0001:000181d0       ??_ECMapFactor@@UAEPAXI@Z  100191d0 f i CurMdit.obj
 0001:00018270       ?GetObjectType@CPrecision@@UAEHXZ 10019270 f i CurMdit.obj
 0001:000182a0       ?SetObjectType@CPrecision@@UAEXH@Z 100192a0 f i CurMdit.obj
 0001:000182d0       ?GetElemType@CPrecision@@UAEHXZ 100192d0 f i CurMdit.obj
 0001:00018300       ?SetElemType@CPrecision@@UAEXH@Z 10019300 f i CurMdit.obj
 0001:00018330       ?GetObjectNo@CPrecision@@UAEJXZ 10019330 f i CurMdit.obj
 0001:00018360       ?SetObjectNo@CPrecision@@UAEXJ@Z 10019360 f i CurMdit.obj
 0001:00018390       ?GetPrecision@CPrecision@@UAEIXZ 10019390 f i CurMdit.obj
 0001:000183c0       ?SetPrecision@CPrecision@@UAEXI@Z 100193c0 f i CurMdit.obj
 0001:000183f0       ?GetPrecisionOld@CPrecision@@UAEIXZ 100193f0 f i CurMdit.obj
 0001:00018420       ?SetPrecisionOld@CPrecision@@UAEXI@Z 10019420 f i CurMdit.obj
 0001:00018450       ?GetPrecisionDefault@CPrecision@@UAEIXZ 10019450 f i CurMdit.obj
 0001:00018480       ?SetPrecisionDefault@CPrecision@@UAEXI@Z 10019480 f i CurMdit.obj
 0001:000184b0       ?GetWorldBase@CPrecision@@UAEJXZ 100194b0 f i CurMdit.obj
 0001:000184e0       ?SetWorldBase@CPrecision@@UAEXJ@Z 100194e0 f i CurMdit.obj
 0001:00018510       ?GetWorldBaseOld@CPrecision@@UAEJXZ 10019510 f i CurMdit.obj
 0001:00018540       ?SetWorldBaseOld@CPrecision@@UAEXJ@Z 10019540 f i CurMdit.obj
 0001:00018570       ?GetWorldBaseDefault@CPrecision@@UAEJXZ 10019570 f i CurMdit.obj
 0001:000185a0       ?SetWorldBaseDefault@CPrecision@@UAEXJ@Z 100195a0 f i CurMdit.obj
 0001:000185d0       ??1CPrecision@@UAE@XZ      100195d0 f i CurMdit.obj
 0001:00018600       ??_GCPrecision@@UAEPAXI@Z  10019600 f i CurMdit.obj
 0001:00018640       ??_ECPrecision@@UAEPAXI@Z  10019640 f i CurMdit.obj
 0001:000186e0       ?GetObjectType@CScaleFactor@@UAEHXZ 100196e0 f i CurMdit.obj
 0001:00018710       ?SetObjectType@CScaleFactor@@UAEXH@Z 10019710 f i CurMdit.obj
 0001:00018740       ?GetElemType@CScaleFactor@@UAEHXZ 10019740 f i CurMdit.obj
 0001:00018770       ?SetElemType@CScaleFactor@@UAEXH@Z 10019770 f i CurMdit.obj
 0001:000187a0       ?GetObjectNo@CScaleFactor@@UAEJXZ 100197a0 f i CurMdit.obj
 0001:000187d0       ?SetObjectNo@CScaleFactor@@UAEXJ@Z 100197d0 f i CurMdit.obj
 0001:00018800       ?GetScaleFactor@CScaleFactor@@UAENXZ 10019800 f i CurMdit.obj
 0001:00018830       ?SetScaleFactor@CScaleFactor@@UAEXN@Z 10019830 f i CurMdit.obj
 0001:00018870       ?GetScaleFactorOld@CScaleFactor@@UAENXZ 10019870 f i CurMdit.obj
 0001:000188a0       ?SetScaleFactorOld@CScaleFactor@@UAEXN@Z 100198a0 f i CurMdit.obj
 0001:000188e0       ?GetScaleFactorDefault@CScaleFactor@@UAENXZ 100198e0 f i CurMdit.obj
 0001:00018910       ?SetScaleFactorDefault@CScaleFactor@@UAEXN@Z 10019910 f i CurMdit.obj
 0001:00018950       ??1CScaleFactor@@UAE@XZ    10019950 f i CurMdit.obj
 0001:00018980       ??_GCScaleFactor@@UAEPAXI@Z 10019980 f i CurMdit.obj
 0001:000189c0       ??_ECScaleFactor@@UAEPAXI@Z 100199c0 f i CurMdit.obj
 0001:00018a60       ?GetObjectType@CUnit@@UAEHXZ 10019a60 f i CurMdit.obj
 0001:00018a90       ?SetObjectType@CUnit@@UAEXH@Z 10019a90 f i CurMdit.obj
 0001:00018ac0       ?GetElemType@CUnit@@UAEHXZ 10019ac0 f i CurMdit.obj
 0001:00018af0       ?SetElemType@CUnit@@UAEXH@Z 10019af0 f i CurMdit.obj
 0001:00018b20       ?GetObjectNo@CUnit@@UAEJXZ 10019b20 f i CurMdit.obj
 0001:00018b50       ?SetObjectNo@CUnit@@UAEXJ@Z 10019b50 f i CurMdit.obj
 0001:00018b80       ?GetUnitName@CUnit@@UAE?AVCString@@I@Z 10019b80 f i CurMdit.obj
 0001:00018bd0       ?GetUnitIndex@CUnit@@UAEIXZ 10019bd0 f i CurMdit.obj
 0001:00018c00       ?SetUnitIndex@CUnit@@UAEXI@Z 10019c00 f i CurMdit.obj
 0001:00018c30       ?GetUnitIndexOld@CUnit@@UAEIXZ 10019c30 f i CurMdit.obj
 0001:00018c60       ?SetUnitIndexOld@CUnit@@UAEXI@Z 10019c60 f i CurMdit.obj
 0001:00018c90       ?GetUnitIndexDefault@CUnit@@UAEIXZ 10019c90 f i CurMdit.obj
 0001:00018cc0       ?SetUnitIndexDefault@CUnit@@UAEXI@Z 10019cc0 f i CurMdit.obj
 0001:00018cf0       ?GetUnitNameCount@CUnit@@UAEIXZ 10019cf0 f i CurMdit.obj
 0001:00018d20       ?SetUnitNameCount@CUnit@@UAEXI@Z 10019d20 f i CurMdit.obj
 0001:00018d50       ??1CUnit@@UAE@XZ           10019d50 f i CurMdit.obj
 0001:00018de0       ??_GCUnit@@UAEPAXI@Z       10019de0 f i CurMdit.obj
 0001:00018e20       ??_ECUnit@@UAEPAXI@Z       10019e20 f i CurMdit.obj
 0001:00018ec0       ??1CDataRowHint@@UAE@XZ    10019ec0 f i CurMdit.obj
 0001:00018ef0       ?GetMapFactor@CObjectMgr@@UAEPAVCMapFactor@@XZ 10019ef0 f i CurMdit.obj
 0001:00018f20       ?GetPrecision@CObjectMgr@@UAEPAVCPrecision@@XZ 10019f20 f i CurMdit.obj
 0001:00018f50       ?GetScaleFactor@CObjectMgr@@UAEPAVCScaleFactor@@XZ 10019f50 f i CurMdit.obj
 0001:00018f80       ?GetUnit@CObjectMgr@@UAEPAVCUnit@@XZ 10019f80 f i CurMdit.obj
 0001:00018fb0       ?GetObjectListFromIndex@CObjectMgr@@UAEPAVCDListMgr@@H@Z 10019fb0 f i CurMdit.obj
 0001:00019000       ?IsSceneChanged@CObjectMgr@@UAEHXZ 1001a000 f i CurMdit.obj
 0001:00019030       ?SetSceneChanged@CObjectMgr@@UAEXH@Z 1001a030 f i CurMdit.obj
 0001:00019060       ?IsViewChanged@CObjectMgr@@UAEHXZ 1001a060 f i CurMdit.obj
 0001:00019090       ?SetViewChanged@CObjectMgr@@UAEXH@Z 1001a090 f i CurMdit.obj
 0001:000190c0       ?GetMasterLastObjectNo@CObjectMgr@@UAEIXZ 1001a0c0 f i CurMdit.obj
 0001:000190f0       ?SetMasterLastObjectNo@CObjectMgr@@UAEXI@Z 1001a0f0 f i CurMdit.obj
 0001:00019120       ?GetActiveObjectNo@CObjectMgr@@UAEIXZ 1001a120 f i CurMdit.obj
 0001:00019150       ?SetActiveObjectNo@CObjectMgr@@UAEXI@Z 1001a150 f i CurMdit.obj
 0001:00019180       ?GetActiveListIndex@CObjectMgr@@UAEHXZ 1001a180 f i CurMdit.obj
 0001:000191b0       ?SetActiveListIndex@CObjectMgr@@UAEXH@Z 1001a1b0 f i CurMdit.obj
 0001:000191e0       ?GetActiveObjectIndex@CObjectMgr@@UAEHXZ 1001a1e0 f i CurMdit.obj
 0001:00019210       ?SetActiveObjectIndex@CObjectMgr@@UAEXH@Z 1001a210 f i CurMdit.obj
 0001:00019240       ?GetActiveObjectType@CObjectMgr@@UAEHXZ 1001a240 f i CurMdit.obj
 0001:00019270       ?SetActiveObjectType@CObjectMgr@@UAEXH@Z 1001a270 f i CurMdit.obj
 0001:000192a0       ?GetRowList@CObjectMgr@@QAEPAV?$CList@JJ@@XZ 1001a2a0 f i CurMdit.obj
 0001:000192d0       ?GetRowCount@CObjectMgr@@QAEHXZ 1001a2d0 f i CurMdit.obj
 0001:00019300       ?GetActiveRowIndex@CObjectMgr@@QAEHXZ 1001a300 f i CurMdit.obj
 0001:00019330       ?SetActiveRowIndex@CObjectMgr@@QAEXH@Z 1001a330 f i CurMdit.obj
 0001:00019360       ?GetFormat@CObjectMgr@@UAE?AVCString@@XZ 1001a360 f i CurMdit.obj
 0001:000193b0       ?IsMeshGenOn@CObjectMgr@@UAEHXZ 1001a3b0 f i CurMdit.obj
 0001:000193e0       ?SetMeshGenOn@CObjectMgr@@UAEXH@Z 1001a3e0 f i CurMdit.obj
 0001:00019410       ?GetMeshType@CObjectMgr@@UAEIXZ 1001a410 f i CurMdit.obj
 0001:00019440       ?SetMeshType@CObjectMgr@@UAEXI@Z 1001a440 f i CurMdit.obj
 0001:00019470       ?GetCurrentTopLevel@CObjectMgr@@UAEHXZ 1001a470 f i CurMdit.obj
 0001:000194a0       ?SetCurrentTopLevel@CObjectMgr@@UAEXH@Z 1001a4a0 f i CurMdit.obj
 0001:000194d0       ?GetObjectType@CElemInfo@@UAEHXZ 1001a4d0 f i CurMdit.obj
 0001:00019500       ?SetObjectType@CElemInfo@@UAEXH@Z 1001a500 f i CurMdit.obj
 0001:00019530       ?GetElemType@CElemInfo@@UAEHXZ 1001a530 f i CurMdit.obj
 0001:00019560       ?SetElemType@CElemInfo@@UAEXH@Z 1001a560 f i CurMdit.obj
 0001:00019590       ?GetObjectNo@CElemInfo@@UAEJXZ 1001a590 f i CurMdit.obj
 0001:000195c0       ?SetObjectNo@CElemInfo@@UAEXJ@Z 1001a5c0 f i CurMdit.obj
 0001:000195f0       ?GetInfoList@CElemInfo@@UAEPAVCDListMgr@@H@Z 1001a5f0 f i CurMdit.obj
 0001:00019620       ??1CElemInfo@@UAE@XZ       1001a620 f i CurMdit.obj
 0001:000196b0       ??_GCElemInfo@@UAEPAXI@Z   1001a6b0 f i CurMdit.obj
 0001:000196f0       ??_ECElemInfo@@UAEPAXI@Z   1001a6f0 f i CurMdit.obj
 0001:00019790       ??1CMeshRowHint@@UAE@XZ    1001a790 f i CurMdit.obj
 0001:000197c0       ?GetRowList@CMsObjMgr@@QAEPAV?$CList@JJ@@XZ 1001a7c0 f i CurMdit.obj
 0001:000197f0       ?GetRowCount@CMsObjMgr@@QAEHXZ 1001a7f0 f i CurMdit.obj
 0001:00019820       ?GetActiveRowIndex@CMsObjMgr@@QAEHXZ 1001a820 f i CurMdit.obj
 0001:00019850       ?SetActiveRowIndex@CMsObjMgr@@QAEXH@Z 1001a850 f i CurMdit.obj
 0001:00019880       ??1CBaseRowHint@@UAE@XZ    1001a880 f i CurMdit.obj
 0001:000198b0       ?GetCurrentItem@CDbObjMgr@@QAEAAVCString@@XZ 1001a8b0 f i CurMdit.obj
 0001:000198d0       ?SetCurrentItem@CDbObjMgr@@QAEXAAVCString@@@Z 1001a8d0 f i CurMdit.obj
 0001:00019900       ?GetCurrentParent@CDbObjMgr@@QAEAAVCString@@XZ 1001a900 f i CurMdit.obj
 0001:00019920       ?SetCurrentParent@CDbObjMgr@@QAEXAAVCString@@@Z 1001a920 f i CurMdit.obj
 0001:00019950       ??1CAxDataRowHint@@UAE@XZ  1001a950 f i CurMdit.obj
 0001:00019980       ?GetMapFactor@CAxObjMgr@@UAEPAVCMapFactor@@XZ 1001a980 f i CurMdit.obj
 0001:000199b0       ?GetPrecision@CAxObjMgr@@UAEPAVCPrecision@@XZ 1001a9b0 f i CurMdit.obj
 0001:000199e0       ?GetScaleFactor@CAxObjMgr@@UAEPAVCScaleFactor@@XZ 1001a9e0 f i CurMdit.obj
 0001:00019a10       ?GetUnit@CAxObjMgr@@UAEPAVCUnit@@XZ 1001aa10 f i CurMdit.obj
 0001:00019a40       ?GetObjectListFromIndex@CAxObjMgr@@UAEPAVCDListMgr@@H@Z 1001aa40 f i CurMdit.obj
 0001:00019a90       ?IsSceneChanged@CAxObjMgr@@UAEHXZ 1001aa90 f i CurMdit.obj
 0001:00019ac0       ?SetSceneChanged@CAxObjMgr@@UAEXH@Z 1001aac0 f i CurMdit.obj
 0001:00019af0       ?IsViewChanged@CAxObjMgr@@UAEHXZ 1001aaf0 f i CurMdit.obj
 0001:00019b20       ?SetViewChanged@CAxObjMgr@@UAEXH@Z 1001ab20 f i CurMdit.obj
 0001:00019b50       ?GetMasterLastObjectNo@CAxObjMgr@@UAEIXZ 1001ab50 f i CurMdit.obj
 0001:00019b80       ?SetMasterLastObjectNo@CAxObjMgr@@UAEXI@Z 1001ab80 f i CurMdit.obj
 0001:00019bb0       ?GetActiveObjectNo@CAxObjMgr@@UAEIXZ 1001abb0 f i CurMdit.obj
 0001:00019be0       ?SetActiveObjectNo@CAxObjMgr@@UAEXI@Z 1001abe0 f i CurMdit.obj
 0001:00019c10       ?GetActiveListIndex@CAxObjMgr@@UAEHXZ 1001ac10 f i CurMdit.obj
 0001:00019c40       ?SetActiveListIndex@CAxObjMgr@@UAEXH@Z 1001ac40 f i CurMdit.obj
 0001:00019c70       ?GetActiveObjectIndex@CAxObjMgr@@UAEHXZ 1001ac70 f i CurMdit.obj
 0001:00019ca0       ?SetActiveObjectIndex@CAxObjMgr@@UAEXH@Z 1001aca0 f i CurMdit.obj
 0001:00019cd0       ?GetActiveObjectType@CAxObjMgr@@UAEHXZ 1001acd0 f i CurMdit.obj
 0001:00019d00       ?SetActiveObjectType@CAxObjMgr@@UAEXH@Z 1001ad00 f i CurMdit.obj
 0001:00019d30       ?GetRowList@CAxObjMgr@@QAEPAV?$CList@JJ@@XZ 1001ad30 f i CurMdit.obj
 0001:00019d60       ?GetRowCount@CAxObjMgr@@QAEHXZ 1001ad60 f i CurMdit.obj
 0001:00019d90       ?GetActiveRowIndex@CAxObjMgr@@QAEHXZ 1001ad90 f i CurMdit.obj
 0001:00019dc0       ?SetActiveRowIndex@CAxObjMgr@@QAEXH@Z 1001adc0 f i CurMdit.obj
 0001:00019df0       ?GetFormat@CAxObjMgr@@UAE?AVCString@@XZ 1001adf0 f i CurMdit.obj
 0001:00019e40       ?IsMeshGenOn@CAxObjMgr@@UAEHXZ 1001ae40 f i CurMdit.obj
 0001:00019e70       ?SetMeshGenOn@CAxObjMgr@@UAEXH@Z 1001ae70 f i CurMdit.obj
 0001:00019ea0       ?GetMeshType@CAxObjMgr@@UAEIXZ 1001aea0 f i CurMdit.obj
 0001:00019ed0       ?SetMeshType@CAxObjMgr@@UAEXI@Z 1001aed0 f i CurMdit.obj
 0001:00019f00       ?GetCurrentTopLevel@CAxObjMgr@@UAEHXZ 1001af00 f i CurMdit.obj
 0001:00019f30       ?SetCurrentTopLevel@CAxObjMgr@@UAEXH@Z 1001af30 f i CurMdit.obj
 0001:00019f60       ?CreateObject@CCurMdit@@SGPAVCObject@@XZ 1001af60 f   CurMdit.obj
 0001:0001a000       ?_GetBaseClass@CCurMdit@@KGPAUCRuntimeClass@@XZ 1001b000 f   CurMdit.obj
 0001:0001a020       ?GetRuntimeClass@CCurMdit@@UBEPAUCRuntimeClass@@XZ 1001b020 f   CurMdit.obj
 0001:0001a090       ??0AFX_CLASSINIT@@QAE@PAUCRuntimeClass@@@Z 1001b090 f i CurMdit.obj
 0001:0001a0c0       ??5@YGAAVCArchive@@AAV0@AAPAVCCurMdit@@@Z 1001b0c0 f   CurMdit.obj
 0001:0001a0f0       ??0CCurMdit@@QAE@XZ        1001b0f0 f   CurMdit.obj
 0001:0001a140       ??_GCCurMdit@@UAEPAXI@Z    1001b140 f i CurMdit.obj
 0001:0001a140       ??_ECCurMdit@@UAEPAXI@Z    1001b140 f i CurMdit.obj
 0001:0001a180       ??1CCurMdit@@UAE@XZ        1001b180 f   CurMdit.obj
 0001:0001a1b0       ?ElementLeftDown_CUR@CCurMdit@@IAEXXZ 1001b1b0 f   CurMdit.obj
 0001:0001a210       ?GetDocument@CDrGrafApp@@QAEPAVCDrGrafDoc@@XZ 1001b210 f i CurMdit.obj
 0001:0001a240       ?GetObjectMgr@CDrGrafDoc@@QAEPAVCObjectMgr@@XZ 1001b240 f i CurMdit.obj
 0001:0001a270       ?ShowCurveToEdit@CCurMdit@@QAEHPAVCDrMesh1D@@@Z 1001b270 f   CurMdit.obj
 0001:0001a480       ??_GCString@@QAEPAXI@Z     1001b480 f i CurMdit.obj
 0001:0001a4d0       ?OnEBoxLButtonDown_CUR@CCurMdit@@QAEXPAVCClientDC@@PAVCView@@W4GENERATE@@IVCPoint@@@Z 1001b4d0 f   CurMdit.obj
 0001:0001a640       ?GetActiveObjectType@CDrGrafFrame@@QAEHXZ 1001b640 f i CurMdit.obj
 0001:0001a670       ?GetActiveToolType@CDrGrafFrame@@QAEHXZ 1001b670 f i CurMdit.obj
 0001:0001a6a0       ?LeftUp_CURVE@CCurMdit@@IAEHVCPoint@@@Z 1001b6a0 f   CurMdit.obj
 0001:0001aa30       ?ElementLeftUp_CUR@CCurMdit@@IAEXVCPoint@@@Z 1001ba30 f   CurMdit.obj
 0001:0001ab20       ?OnEBoxMouseMove_CUR@CCurMdit@@QAEXPAVCClientDC@@PAVCView@@W4GENERATE@@IVCPoint@@@Z 1001bb20 f   CurMdit.obj
 0001:0001ab80       ?OnEBoxLButtonUp_CUR@CCurMdit@@QAEXPAVCClientDC@@PAVCView@@W4GENERATE@@IVCPoint@@@Z 1001bb80 f   CurMdit.obj
 0001:0001ac40       ?OnEBoxRButtonDown_CUR@CCurMdit@@QAEXPAVCClientDC@@PAVCView@@W4GENERATE@@IVCPoint@@@Z 1001bc40 f   CurMdit.obj
 0001:0001ac90       ?ShowCurveInfo@CCurMdit@@QAEHPAVCDrMesh1D@@@Z 1001bc90 f   CurMdit.obj
 0001:0001acc0       ?OnEBoxRButtonUp_CUR@CCurMdit@@QAEXPAVCClientDC@@PAVCView@@W4GENERATE@@IVCPoint@@@Z 1001bcc0 f   CurMdit.obj
 0001:0001ad10       ?ReSetToolID_CUR@CCurMdit@@QAEIIII@Z 1001bd10 f   CurMdit.obj
 0001:0001af20       ?SetIGenBoxStatus@CDrGrafFrame@@QAEXH@Z 1001bf20 f i CurMdit.obj
 0001:0001af50       ?SetCntlBoxStatus@CDrGrafFrame@@QAEXH@Z 1001bf50 f i CurMdit.obj
 0001:0001af80       ?SetDrawBoxStatus@CDrGrafFrame@@QAEXH@Z 1001bf80 f i CurMdit.obj
 0001:0001afb0       ?SetstrCntlID@CDrGrafFrame@@QAEXAAVCString@@@Z 1001bfb0 f i CurMdit.obj
 0001:0001afe0       ?SetstrIGenID@CDrGrafFrame@@QAEXAAVCString@@@Z 1001bfe0 f i CurMdit.obj
 0001:0001b010       ?SetstrOperID@CDrGrafFrame@@QAEXAAVCString@@@Z 1001c010 f i CurMdit.obj
 0001:0001b040       ?SetstrCurrID@CDrGrafFrame@@QAEXAAVCString@@@Z 1001c040 f i CurMdit.obj
 0001:0001b070       ?Serialize@CCurMdit@@UAEXAAVCArchive@@@Z 1001c070 f   CurMdit.obj
 0001:0001b0d0       ??1?$CList@HH@@UAE@XZ      1001c0d0 f i CurMdit.obj
 0001:0001b170       ?Serialize@?$CList@HH@@UAEXAAVCArchive@@@Z 1001c170 f i CurMdit.obj
 0001:0001b290       ?Dump@?$CList@HH@@UBEXAAVCDumpContext@@@Z 1001c290 f i CurMdit.obj
 0001:0001b350       ?AssertValid@?$CList@HH@@UBEXXZ 1001c350 f i CurMdit.obj
 0001:0001b450       ?GetCount@?$CList@JJ@@QBEHXZ 1001c450 f i CurMdit.obj
 0001:0001b470       ??_E?$CList@HH@@UAEPAXI@Z  1001c470 f i CurMdit.obj
 0001:0001b470       ??_G?$CList@HH@@UAEPAXI@Z  1001c470 f i CurMdit.obj
 0001:0001b4b0       ?AddTail@?$CList@HH@@QAEPAU__POSITION@@H@Z 1001c4b0 f i CurMdit.obj
 0001:0001b540       ?RemoveAll@?$CList@HH@@QAEXXZ 1001c540 f i CurMdit.obj
 0001:0001b5f0       ?GetHeadPosition@?$CList@HH@@QBEPAU__POSITION@@XZ 1001c5f0 f i CurMdit.obj
 0001:0001b610       ?GetNext@?$CList@HH@@QAEAAHAAPAU__POSITION@@@Z 1001c610 f i CurMdit.obj
 0001:0001b680       ?SerializeElements@@YGXAAVCArchive@@PAHH@Z 1001c680 f i CurMdit.obj
 0001:0001b720       ?DumpElements@@YGXAAVCDumpContext@@PBHH@Z 1001c720 f i CurMdit.obj
 0001:0001b780       ?NewNode@?$CList@HH@@IAEPAUCNode@1@PAU21@0@Z 1001c780 f i CurMdit.obj
 0001:0001b8f0       ?DestructElements@@YGXPAHH@Z 1001c8f0 f i CurMdit.obj
 0001:0001b970       ?ConstructElements@@YGXPAHH@Z 1001c970 f i CurMdit.obj
 0001:0001ba20       ??2@YAPAXIPAX@Z            1001ca20 f i CurMdit.obj
 0001:0001ba40       ??1CMlg_ENod@@UAE@XZ       1001ca40 f i MditDlgM.obj
 0001:0001baf0       ??_FCMlg_ENod@@QAEXXZ      1001caf0 f i MditDlgM.obj
 0001:0001bb20       ??1CBitmapButton@@UAE@XZ   1001cb20 f i MditDlgM.obj
 0001:0001bbc0       ?CreateObject@CMditDlgM@@SGPAVCObject@@XZ 1001cbc0 f   MditDlgM.obj
 0001:0001bc50       ?_GetBaseClass@CMditDlgM@@KGPAUCRuntimeClass@@XZ 1001cc50 f   MditDlgM.obj
 0001:0001bc70       ?GetRuntimeClass@CMditDlgM@@UBEPAUCRuntimeClass@@XZ 1001cc70 f   MditDlgM.obj
 0001:0001bce0       ??5@YGAAVCArchive@@AAV0@AAPAVCMditDlgM@@@Z 1001cce0 f   MditDlgM.obj
 0001:0001bd10       ??0CMditDlgM@@QAE@XZ       1001cd10 f   MditDlgM.obj
 0001:0001bd40       ??_GCMditDlgM@@UAEPAXI@Z   1001cd40 f i MditDlgM.obj
 0001:0001bd80       ??_ECMditDlgM@@UAEPAXI@Z   1001cd80 f i MditDlgM.obj
 0001:0001be20       ??1CMditDlgM@@UAE@XZ       1001ce20 f   MditDlgM.obj
 0001:0001be50       ?SetResource@CMditDlgM@@IAEPAUHINSTANCE__@@XZ 1001ce50 f   MditDlgM.obj
 0001:0001bf30       ?RestoreResource@CMditDlgM@@IAEXPAUHINSTANCE__@@@Z 1001cf30 f   MditDlgM.obj
 0001:0001bfd0       ?DoModal_ShowNodeToEdit@CMditDlgM@@QAEIPAVCDrFE0D@@H@Z 1001cfd0 f   MditDlgM.obj
 0001:0001c0a0       ?DoModal_ShowCurveToEdit@CMditDlgM@@QAEIPAVCDrMesh1D@@H@Z 1001d0a0 f   MditDlgM.obj
 0001:0001c0e0       ?DoModal_ShowPatchToEdit@CMditDlgM@@QAEIPAVCDrMesh2D@@H@Z 1001d0e0 f   MditDlgM.obj
 0001:0001c120       ?DoModal_ShowSolidToEdit@CMditDlgM@@QAEIPAVCDrMesh3D@@H@Z 1001d120 f   MditDlgM.obj
 0001:0001c160       ?Serialize@CMditDlgM@@UAEXAAVCArchive@@@Z 1001d160 f   MditDlgM.obj
 0001:0001c1c0       _ExtRawDllMain@12          1001d1c0 f   MditDll.obj
 0001:0001c240       _InitMditDLL@0             1001d240 f   MditDll.obj
 0001:0001c2a0       _DllMain@12                1001d2a0 f   MditDll.obj
 0001:0001c320       ??B?$CTypedSimpleList@PAUCRuntimeClass@@@@QAEPAUCRuntimeClass@@XZ 1001d320 f i MditDll.obj
 0001:0001c350       ??B?$CTypedSimpleList@PAVCOleObjectFactory@@@@QAEPAVCOleObjectFactory@@XZ 1001d350 f i MditDll.obj
 0001:0001c380       ?GetHead@CSimpleList@@QBEPAXXZ 1001d380 f i MditDll.obj
 0001:0001c3a0       ?CreateObject@CMditMgr@@SGPAVCObject@@XZ 1001d3a0 f   MditMgr.obj
 0001:0001c430       ?_GetBaseClass@CMditMgr@@KGPAUCRuntimeClass@@XZ 1001d430 f   MditMgr.obj
 0001:0001c450       ?GetRuntimeClass@CMditMgr@@UBEPAUCRuntimeClass@@XZ 1001d450 f   MditMgr.obj
 0001:0001c4c0       ??5@YGAAVCArchive@@AAV0@AAPAVCMditMgr@@@Z 1001d4c0 f   MditMgr.obj
 0001:0001c4f0       ??0CMditMgr@@QAE@XZ        1001d4f0 f   MditMgr.obj
 0001:0001c6f0       ??_ECMditMgr@@UAEPAXI@Z    1001d6f0 f i MditMgr.obj
 0001:0001c6f0       ??_GCMditMgr@@UAEPAXI@Z    1001d6f0 f i MditMgr.obj
 0001:0001c730       ??1CMditMgr@@UAE@XZ        1001d730 f   MditMgr.obj
 0001:0001c830       ?ReSetToolID@CMditMgr@@QAEIIII@Z 1001d830 f   MditMgr.obj
 0001:0001c8f0       ?GetDLDMouse@CMditMgr@@QAEPAVCSolMdit@@XZ 1001d8f0 f i MditMgr.obj
 0001:0001c910       ?IsMeshMode@CDrGrafFrame@@QAEHXZ 1001d910 f i MditMgr.obj
 0001:0001c940       ?ReSetToolID_Mesh@CMditMgr@@QAEIIII@Z 1001d940 f   MditMgr.obj
 0001:0001c9d0       ?GetMDLDMouse@CMditMgr@@QAEPAVCSolMdit@@XZ 1001d9d0 f i MditMgr.obj
 0001:0001c9f0       ?GetStatusMouseWIC@CMditMgr@@QAE?AULPOINT3@@XZ 1001d9f0 f   MditMgr.obj
 0001:0001ca30       ?SetStatusMouseWIC@CMditMgr@@QAEXULPOINT3@@@Z 1001da30 f   MditMgr.obj
 0001:0001ca80       ?SetViewCursor@CMditMgr@@QAEXH@Z 1001da80 f   MditMgr.obj
 0001:0001cbd0       ?Serialize@CMditMgr@@UAEXAAVCArchive@@@Z 1001dbd0 f   MditMgr.obj
 0001:0001cc80       ??1CMlg_ENoA@@UAE@XZ       1001dc80 f i Mlg_enoA.obj
 0001:0001cdc0       ??_FCMlg_ENoA@@QAEXXZ      1001ddc0 f i Mlg_enoA.obj
 0001:0001cdf0       ??0CMlg_ENoA@@QAE@PAVCWnd@@@Z 1001ddf0 f   Mlg_enoA.obj
 0001:0001d120       ??_GCMlg_ENoA@@UAEPAXI@Z   1001e120 f i Mlg_enoA.obj
 0001:0001d160       ??_ECMlg_ENoA@@UAEPAXI@Z   1001e160 f i Mlg_enoA.obj
 0001:0001d200       ?DoDataExchange@CMlg_ENoA@@MAEXPAVCDataExchange@@@Z 1001e200 f   Mlg_enoA.obj
 0001:0001d370       ?_GetBaseMessageMap@CMlg_ENoA@@KGPBUAFX_MSGMAP@@XZ 1001e370 f   Mlg_enoA.obj
 0001:0001d390       ?GetMessageMap@CMlg_ENoA@@MBEPBUAFX_MSGMAP@@XZ 1001e390 f   Mlg_enoA.obj
 0001:0001d3b0       ?OnInitDialog@CMlg_ENoA@@MAEHXZ 1001e3b0 f   Mlg_enoA.obj
 0001:0001d5f0       ?Init_NodeData@CMlg_ENoA@@QAEXXZ 1001e5f0 f   Mlg_enoA.obj
 0001:0001da80       ?OnCancel@CMlg_ENoA@@MAEXXZ 1001ea80 f   Mlg_enoA.obj
 0001:0001dab0       ?OnStartOver@CMlg_ENoA@@IAEXXZ 1001eab0 f   Mlg_enoA.obj
 0001:0001daf0       ?OnCoord@CMlg_ENoA@@IAEXXZ 1001eaf0 f   Mlg_enoA.obj
 0001:0001dbe0       ?OnDirection@CMlg_ENoA@@IAEXXZ 1001ebe0 f   Mlg_enoA.obj
 0001:0001dd10       ?OnChangeNodeDx@CMlg_ENoA@@IAEXXZ 1001ed10 f   Mlg_enoA.obj
 0001:0001de40       ?OnChangeNodeDy@CMlg_ENoA@@IAEXXZ 1001ee40 f   Mlg_enoA.obj
 0001:0001df70       ?OnChangeNodeDz@CMlg_ENoA@@IAEXXZ 1001ef70 f   Mlg_enoA.obj
 0001:0001e0a0       ?OnSelchangeCnodeFrom@CMlg_ENoA@@IAEXXZ 1001f0a0 f   Mlg_enoA.obj
 0001:0001e0e0       ?OnSelchangeCnodeTo@CMlg_ENoA@@IAEXXZ 1001f0e0 f   Mlg_enoA.obj
 0001:0001e120       ?OnChangeLength@CMlg_ENoA@@IAEXXZ 1001f120 f   Mlg_enoA.obj
 0001:0001e2a0       ?OnSelchangeNodeNidR@CMlg_ENoA@@IAEXXZ 1001f2a0 f   Mlg_enoA.obj
 0001:0001e300       ?ResolveReference_Direction@CMlg_ENoA@@IAEHXZ 1001f300 f   Mlg_enoA.obj
 0001:0001e730       ?ResolveReference_Coords@CMlg_ENoA@@IAEHXZ 1001f730 f   Mlg_enoA.obj
 0001:0001eb30       ?UnitAxisFromEndNodes@CMlg_ENoA@@IAEHPAUWORLD@@@Z 1001fb30 f   Mlg_enoA.obj
 0001:0001f160       ?OnOK@CMlg_ENoA@@MAEXXZ    10020160 f   Mlg_enoA.obj
 0001:0001f3d0       ?OnSelchangeList@CMlg_ENoA@@IAEXXZ 100203d0 f   Mlg_enoA.obj
 0001:0001f5e0       ?FillOthers@CMlg_ENoA@@IAEXH@Z 100205e0 f   Mlg_enoA.obj
 0001:0001fb10       ?FillListAllString@CMlg_ENoA@@IAEXXZ 10020b10 f   Mlg_enoA.obj
 0001:0001fcd0       ?FillListforAllNodeCombos@CMlg_ENoA@@IAEXXZ 10020cd0 f   Mlg_enoA.obj
 0001:0001ff60       ?EmptyListAllString@CMlg_ENoA@@IAEXXZ 10020f60 f   Mlg_enoA.obj
 0001:0001ffd0       ?SetInfoForDataBase@CMlg_ENoA@@QAEXPAVCDrFE0D@@H@Z 10020fd0 f   Mlg_enoA.obj
 0001:000204e0       ?SetInfoForNodeLabel@CMlg_ENoA@@QAEXPAVCDrFE0D@@PAVCDrLabel@@@Z 100214e0 f   Mlg_enoA.obj
 0001:00020720       ?OnHelpInfo@CMlg_ENoA@@IAEHPAUtagHELPINFO@@@Z 10021720 f   Mlg_enoA.obj
 0001:00020750       ??_9@$BMM@AE               10021750 f i Mlg_enoA.obj
 0001:00020760       ??_9@$BNA@AE               10021760 f i Mlg_enoA.obj
 0001:00020770       ??0CMlg_ENod@@QAE@PAVCWnd@@@Z 10021770 f   Mlg_ENod.obj
 0001:00020910       ??_GCMlg_ENod@@UAEPAXI@Z   10021910 f i Mlg_ENod.obj
 0001:00020950       ??_ECMlg_ENod@@UAEPAXI@Z   10021950 f i Mlg_ENod.obj
 0001:000209f0       ?DoDataExchange@CMlg_ENod@@MAEXPAVCDataExchange@@@Z 100219f0 f   Mlg_ENod.obj
 0001:00020a90       ?_GetBaseMessageMap@CMlg_ENod@@KGPBUAFX_MSGMAP@@XZ 10021a90 f   Mlg_ENod.obj
 0001:00020ab0       ?GetMessageMap@CMlg_ENod@@MBEPBUAFX_MSGMAP@@XZ 10021ab0 f   Mlg_ENod.obj
 0001:00020ad0       ?OnInitDialog@CMlg_ENod@@MAEHXZ 10021ad0 f   Mlg_ENod.obj
 0001:00020b80       ?Init_NodeData@CMlg_ENod@@QAEXXZ 10021b80 f   Mlg_ENod.obj
 0001:00020de0       ?OnCancel@CMlg_ENod@@MAEXXZ 10021de0 f   Mlg_ENod.obj
 0001:00020e10       ?OnStartOver@CMlg_ENod@@IAEXXZ 10021e10 f   Mlg_ENod.obj
 0001:00020e50       ?OnOK@CMlg_ENod@@MAEXXZ    10021e50 f   Mlg_ENod.obj
 0001:000211e0       ?FillOthers@CMlg_ENod@@IAEXH@Z 100221e0 f   Mlg_ENod.obj
 0001:00021490       ?OnAdvanced@CMlg_ENod@@IAEXXZ 10022490 f   Mlg_ENod.obj
 0001:00021570       ?SetInfoForDataBase@CMlg_ENod@@QAEXPAVCDrFE0D@@H@Z 10022570 f   Mlg_ENod.obj
 0001:00021920       ?SetInfoForNodeLabel@CMlg_ENod@@QAEXPAVCDrFE0D@@PAVCDrLabel@@@Z 10022920 f   Mlg_ENod.obj
 0001:00021b00       ?OnHelpInfo@CMlg_ENod@@IAEHPAUtagHELPINFO@@@Z 10022b00 f   Mlg_ENod.obj
 0001:00021b30       ?SetParallel@CXForm@@UAEXH@Z 10022b30 f i NodMdit.obj
 0001:00021b60       ?GetParallel@CXForm@@UAEHXZ 10022b60 f i NodMdit.obj
 0001:00021b80       ??1CXForm@@UAE@XZ          10022b80 f i NodMdit.obj
 0001:00021bb0       ??_GCXForm@@UAEPAXI@Z      10022bb0 f i NodMdit.obj
 0001:00021bf0       ??_ECXForm@@UAEPAXI@Z      10022bf0 f i NodMdit.obj
 0001:00021c90       ?Parse_drPipe@CDrFE3D@@UAEXPAVCString@@@Z 10022c90 f i NodMdit.obj
 0001:00021cb0       ?DoFormattedCardView@CDrFE3D@@UAEXPAVCString@@AAV2@@Z 10022cb0 f i NodMdit.obj
 0001:00021cd0       ?DoUnFormattedCardView@CDrFE3D@@UAEXPAVCString@@@Z 10022cd0 f i NodMdit.obj
 0001:00021cf0       ?GetMaxCorners@CDrFE3D@@UAEHXZ 10022cf0 f i NodMdit.obj
 0001:00021d20       ?GetCentroidScreen2D@CDrFE3D@@UAEPAUtagPOINT@@XZ 10022d20 f i NodMdit.obj
 0001:00021d50       ?SetCentroidScreen2D@CDrFE3D@@UAEXUtagPOINT@@@Z 10022d50 f i NodMdit.obj
 0001:00021d90       ?GetCentroidScreen3D@CDrFE3D@@UAEPAUWORLD@@XZ 10022d90 f i NodMdit.obj
 0001:00021dc0       ?SetCentroidScreen3D@CDrFE3D@@UAEXUWORLD@@@Z 10022dc0 f i NodMdit.obj
 0001:00021e00       ?GetCentroidEye@CDrFE3D@@UAEPAUWORLD@@XZ 10022e00 f i NodMdit.obj
 0001:00021e30       ?SetCentroidEye@CDrFE3D@@UAEXUWORLD@@@Z 10022e30 f i NodMdit.obj
 0001:00021e70       ?GetCentroidWorld@CDrFE3D@@UAEPAUWORLD@@XZ 10022e70 f i NodMdit.obj
 0001:00021ea0       ?SetCentroidWorld@CDrFE3D@@UAEXUWORLD@@@Z 10022ea0 f i NodMdit.obj
 0001:00021ee0       ?GetCentroidZdepth@CDrFE3D@@UAENXZ 10022ee0 f i NodMdit.obj
 0001:00021f10       ?SetCentroidZdepth@CDrFE3D@@UAEXN@Z 10022f10 f i NodMdit.obj
 0001:00021f50       ?GetNormalWorld@CDrFE3D@@UAEPAUWORLD@@XZ 10022f50 f i NodMdit.obj
 0001:00021f80       ?SetNormalWorld@CDrFE3D@@UAEXUWORLD@@@Z 10022f80 f i NodMdit.obj
 0001:00021fc0       ?GetNormalEye@CDrFE3D@@UAEPAUWORLD@@XZ 10022fc0 f i NodMdit.obj
 0001:00021ff0       ?SetNormalEye@CDrFE3D@@UAEXUWORLD@@@Z 10022ff0 f i NodMdit.obj
 0001:00022030       ?GetNormalScreen3D@CDrFE3D@@UAEPAUWORLD@@XZ 10023030 f i NodMdit.obj
 0001:00022060       ?SetNormalScreen3D@CDrFE3D@@UAEXUWORLD@@@Z 10023060 f i NodMdit.obj
 0001:000220a0       ?GetNormalScreen2D@CDrFE3D@@UAEPAUtagPOINT@@XZ 100230a0 f i NodMdit.obj
 0001:000220d0       ?SetNormalScreen2D@CDrFE3D@@UAEXUtagPOINT@@@Z 100230d0 f i NodMdit.obj
 0001:00022110       ?IsCulled@CDrFE3D@@UAEHXZ  10023110 f i NodMdit.obj
 0001:00022140       ?SetCulled@CDrFE3D@@UAEXH@Z 10023140 f i NodMdit.obj
 0001:00022170       ?GetnNodes@CDrFE3D@@QAEFXZ 10023170 f i NodMdit.obj
 0001:000221a0       ?SetnNodes@CDrFE3D@@QAEXF@Z 100231a0 f i NodMdit.obj
 0001:000221d0       ?GetElNumID@CDrFE3D@@QAEAAVCString@@XZ 100231d0 f i NodMdit.obj
 0001:00022200       ?SetElNumID@CDrFE3D@@QAEXVCString@@@Z 10023200 f i NodMdit.obj
 0001:00022280       ?GetElTypeID@CDrFE3D@@QAEAAVCString@@XZ 10023280 f i NodMdit.obj
 0001:000222b0       ?SetElTypeID@CDrFE3D@@QAEXVCString@@@Z 100232b0 f i NodMdit.obj
 0001:00022330       ?Getline_id@CDrFE3D@@QAEAAVCString@@XZ 10023330 f i NodMdit.obj
 0001:00022360       ?Setline_id@CDrFE3D@@QAEXVCString@@@Z 10023360 f i NodMdit.obj
 0001:000223e0       ?Getpid@CDrFE3D@@QAEAAVCString@@XZ 100233e0 f i NodMdit.obj
 0001:00022410       ?Setpid@CDrFE3D@@QAEXVCString@@@Z 10023410 f i NodMdit.obj
 0001:00022490       ?Getmid@CDrFE3D@@QAEAAVCString@@XZ 10023490 f i NodMdit.obj
 0001:000224c0       ?Setmid@CDrFE3D@@QAEXVCString@@@Z 100234c0 f i NodMdit.obj
 0001:00022540       ?GetElNum@CDrFE3D@@QAEIXZ  10023540 f i NodMdit.obj
 0001:00022570       ?SetElNum@CDrFE3D@@QAEXI@Z 10023570 f i NodMdit.obj
 0001:000225a0       ?GetElTypeNum@CDrFE3D@@QAEIXZ 100235a0 f i NodMdit.obj
 0001:000225d0       ?SetElTypeNum@CDrFE3D@@QAEXI@Z 100235d0 f i NodMdit.obj
 0001:00022600       ?Getline_no@CDrFE3D@@QAEIXZ 10023600 f i NodMdit.obj
 0001:00022630       ?Setline_no@CDrFE3D@@QAEXI@Z 10023630 f i NodMdit.obj
 0001:00022660       ?Getprop@CDrFE3D@@QAEIXZ   10023660 f i NodMdit.obj
 0001:00022690       ?Setprop@CDrFE3D@@QAEXI@Z  10023690 f i NodMdit.obj
 0001:000226c0       ?Getmat@CDrFE3D@@QAEIXZ    100236c0 f i NodMdit.obj
 0001:000226f0       ?Setmat@CDrFE3D@@QAEXI@Z   100236f0 f i NodMdit.obj
 0001:00022720       ?Getnumseg@CDrFE3D@@QAEIXZ 10023720 f i NodMdit.obj
 0001:00022750       ?Setnumseg@CDrFE3D@@QAEXI@Z 10023750 f i NodMdit.obj
 0001:00022780       ?GetRefTemp@CDrFE3D@@QAENXZ 10023780 f i NodMdit.obj
 0001:000227b0       ?SetRefTemp@CDrFE3D@@QAEXN@Z 100237b0 f i NodMdit.obj
 0001:000227f0       ?GetCardNo@CDrFE3D@@QAEIXZ 100237f0 f i NodMdit.obj
 0001:00022820       ?SetCardNo@CDrFE3D@@QAEXI@Z 10023820 f i NodMdit.obj
 0001:00022850       ?GetCenter@CDrFE3D@@UAE?AUtagPOINT@@XZ 10023850 f i NodMdit.obj
 0001:00022890       ?SetCenter@CDrFE3D@@UAEXUtagPOINT@@@Z 10023890 f i NodMdit.obj
 0001:000228d0       ?IsOnBndry@CDrFE3D@@QAEHXZ 100238d0 f i NodMdit.obj
 0001:00022900       ?SetOnBndry@CDrFE3D@@QAEXH@Z 10023900 f i NodMdit.obj
 0001:00022930       ?GetBndryIndex_C@CDrFE3D@@QAEHXZ 10023930 f i NodMdit.obj
 0001:00022960       ?SetBndryIndex_C@CDrFE3D@@QAEXH@Z 10023960 f i NodMdit.obj
 0001:00022990       ?GetBndryIndex_F@CDrFE3D@@QAEHXZ 10023990 f i NodMdit.obj
 0001:000229c0       ?SetBndryIndex_F@CDrFE3D@@QAEXH@Z 100239c0 f i NodMdit.obj
 0001:000229f0       ?Getrid@CDrFE3D@@UAEAAVCString@@H@Z 100239f0 f i NodMdit.obj
 0001:00022a20       ?Setrid@CDrFE3D@@UAEXVCString@@H@Z 10023a20 f i NodMdit.obj
 0001:00022aa0       ?Getrel@CDrFE3D@@UAEIH@Z   10023aa0 f i NodMdit.obj
 0001:00022ad0       ?Setrel@CDrFE3D@@UAEXIH@Z  10023ad0 f i NodMdit.obj
 0001:00022b00       ?GetnCorners@CDrFE3D@@UAEFXZ 10023b00 f i NodMdit.obj
 0001:00022b30       ?SetnCorners@CDrFE3D@@UAEXF@Z 10023b30 f i NodMdit.obj
 0001:00022b60       ?GetnEdges@CDrFE3D@@UAEFXZ 10023b60 f i NodMdit.obj
 0001:00022b90       ?SetnEdges@CDrFE3D@@UAEXF@Z 10023b90 f i NodMdit.obj
 0001:00022bc0       ?GetElDegree@CDrFE3D@@UAE?AW4ELEM_DEGREE@@XZ 10023bc0 f i NodMdit.obj
 0001:00022bf0       ?SetElDegree@CDrFE3D@@UAEXW4ELEM_DEGREE@@@Z 10023bf0 f i NodMdit.obj
 0001:00022c20       ?GetEdgeDegrees@CDrFE3D@@UAEFH@Z 10023c20 f i NodMdit.obj
 0001:00022c50       ?SetEdgeDegrees@CDrFE3D@@UAEXFH@Z 10023c50 f i NodMdit.obj
 0001:00022c80       ?GetThkness@CDrFE3D@@UAENXZ 10023c80 f i NodMdit.obj
 0001:00022cb0       ?SetThkness@CDrFE3D@@UAEXN@Z 10023cb0 f i NodMdit.obj
 0001:00022cf0       ?CreateObject@CNodMdit@@SGPAVCObject@@XZ 10023cf0 f   NodMdit.obj
 0001:00022d90       ?_GetBaseClass@CNodMdit@@KGPAUCRuntimeClass@@XZ 10023d90 f   NodMdit.obj
 0001:00022db0       ?GetRuntimeClass@CNodMdit@@UBEPAUCRuntimeClass@@XZ 10023db0 f   NodMdit.obj
 0001:00022e20       ??5@YGAAVCArchive@@AAV0@AAPAVCNodMdit@@@Z 10023e20 f   NodMdit.obj
 0001:00022e50       ??0CNodMdit@@QAE@XZ        10023e50 f   NodMdit.obj
 0001:00023020       ??_GCNodMdit@@UAEPAXI@Z    10024020 f i NodMdit.obj
 0001:00023020       ??_ECNodMdit@@UAEPAXI@Z    10024020 f i NodMdit.obj
 0001:00023060       ??1CNodMdit@@UAE@XZ        10024060 f   NodMdit.obj
 0001:000230e0       ?ElementLeftDown_NOD@CNodMdit@@IAEXVCPoint@@@Z 100240e0 f   NodMdit.obj
 0001:00023180       ?ShowNodeToEdit@CNodMdit@@QAEHPAVCDrFE0D@@@Z 10024180 f   NodMdit.obj
 0001:000233b0       ?PrepareFor_Xlation@CNodMdit@@IAEXAAVCNodCreOM@@@Z 100243b0 f   NodMdit.obj
 0001:00023430       ?SetCoordIn@CNodCreOM@@QAEXH@Z 10024430 f i NodMdit.obj
 0001:00023460       ?SetTranPtID@CNodCreOM@@QAEXAAVCString@@@Z 10024460 f i NodMdit.obj
 0001:00023490       ?SetTranPt@CNodCreOM@@QAEXAAUWORLD@@@Z 10024490 f i NodMdit.obj
 0001:000234d0       ?SetTran@CNodCreOM@@QAEXAAUWORLD@@@Z 100244d0 f i NodMdit.obj
 0001:00023510       ?OnEBoxLButtonDown_NOD@CNodMdit@@QAEXPAVCClientDC@@PAVCView@@W4GENERATE@@IVCPoint@@@Z 10024510 f   NodMdit.obj
 0001:000236f0       ?GetCurrentIGenID@CDrGrafFrame@@QAEIXZ 100246f0 f i NodMdit.obj
 0001:00023720       ?LeftUp_NODE@CNodMdit@@IAEHVCPoint@@H@Z 10024720 f   NodMdit.obj
 0001:00024430       ?LeftUp_NODE_PreMove@CNodMdit@@IAEHVCPoint@@H@Z 10025430 f   NodMdit.obj
 0001:000250e0       ?LeftUp_NODE_DoneMove@CNodMdit@@IAEHVCPoint@@H@Z 100260e0 f   NodMdit.obj
 0001:00025380       ?SetText@CStatCntl@@QAEXAAVCString@@@Z 10026380 f i NodMdit.obj
 0001:000253b0       ?GetCurrStat@CDrGrafFrame@@QAEPAVCStatCntl@@XZ 100263b0 f i NodMdit.obj
 0001:000253e0       ?ElementLeftUp_NOD@CNodMdit@@IAEXVCPoint@@@Z 100263e0 f   NodMdit.obj
 0001:000257c0       ?OnEBoxLButtonUp_NOD@CNodMdit@@QAEXPAVCClientDC@@PAVCView@@W4GENERATE@@IVCPoint@@@Z 100267c0 f   NodMdit.obj
 0001:00025880       ?SetMouseWICFromNode@CNodMdit@@IAEXPAVCDrFE0D@@PAULPOINT3@@@Z 10026880 f   NodMdit.obj
 0001:000258f0       ?SetNodeFromMouseWIC@CNodMdit@@IAEXPAVCDrFE0D@@PAULPOINT3@@@Z 100268f0 f   NodMdit.obj
 0001:00025b30       ?SetThirdCoordFromNode@CNodMdit@@IAEHPAVCDrFE0D@@PAJ@Z 10026b30 f   NodMdit.obj
 0001:00025bf0       ?PostLeft@CNodMdit@@IAEXXZ 10026bf0 f   NodMdit.obj
 0001:00025cf0       ?LMovDown_NOD@CNodMdit@@IAEXVCPoint@@@Z 10026cf0 f   NodMdit.obj
 0001:000263d0       ?GetMouseMgr@CDrGrafFrame@@QAEPAVCMouseMgr@@XZ 100273d0 f i NodMdit.obj
 0001:00026400       ?OnEBoxMouseMove_NOD@CNodMdit@@QAEXPAVCClientDC@@PAVCView@@W4GENERATE@@IVCPoint@@@Z 10027400 f   NodMdit.obj
 0001:00026790       ?OnEBoxRButtonDown_NOD@CNodMdit@@QAEXPAVCClientDC@@PAVCView@@W4GENERATE@@IVCPoint@@@Z 10027790 f   NodMdit.obj
 0001:000267b0       ?OnEBoxRButtonUp_NOD@CNodMdit@@QAEXPAVCClientDC@@PAVCView@@W4GENERATE@@IVCPoint@@@Z 100277b0 f   NodMdit.obj
 0001:000267d0       ?ReSetToolID_NOD@CNodMdit@@QAEIIII@Z 100277d0 f   NodMdit.obj
 0001:00026dd0       ?Serialize@CNodMdit@@UAEXAAVCArchive@@@Z 10027dd0 f   NodMdit.obj
 0001:00026fb0       ?CreateObject@CPatMdit@@SGPAVCObject@@XZ 10027fb0 f   PatMdit.obj
 0001:00027050       ?_GetBaseClass@CPatMdit@@KGPAUCRuntimeClass@@XZ 10028050 f   PatMdit.obj
 0001:00027070       ?GetRuntimeClass@CPatMdit@@UBEPAUCRuntimeClass@@XZ 10028070 f   PatMdit.obj
 0001:000270e0       ??5@YGAAVCArchive@@AAV0@AAPAVCPatMdit@@@Z 100280e0 f   PatMdit.obj
 0001:00027110       ??0CPatMdit@@QAE@XZ        10028110 f   PatMdit.obj
 0001:00027160       ??_ECPatMdit@@UAEPAXI@Z    10028160 f i PatMdit.obj
 0001:00027160       ??_GCPatMdit@@UAEPAXI@Z    10028160 f i PatMdit.obj
 0001:000271a0       ??1CPatMdit@@UAE@XZ        100281a0 f   PatMdit.obj
 0001:000271d0       ?ElementLeftDown_PAT@CPatMdit@@IAEXXZ 100281d0 f   PatMdit.obj
 0001:00027230       ?ShowPatchToEdit@CPatMdit@@QAEHPAVCDrMesh2D@@@Z 10028230 f   PatMdit.obj
 0001:00027440       ?OnEBoxLButtonDown_PAT@CPatMdit@@QAEXPAVCClientDC@@PAVCView@@W4GENERATE@@IVCPoint@@@Z 10028440 f   PatMdit.obj
 0001:000275b0       ?LeftUp_Patch@CPatMdit@@IAEHVCPoint@@@Z 100285b0 f   PatMdit.obj
 0001:00027950       ?ElementLeftUp_PAT@CPatMdit@@IAEXVCPoint@@@Z 10028950 f   PatMdit.obj
 0001:00027a60       ?OnEBoxMouseMove_PAT@CPatMdit@@QAEXPAVCClientDC@@PAVCView@@W4GENERATE@@IVCPoint@@@Z 10028a60 f   PatMdit.obj
 0001:00027ab0       ?OnEBoxLButtonUp_PAT@CPatMdit@@QAEXPAVCClientDC@@PAVCView@@W4GENERATE@@IVCPoint@@@Z 10028ab0 f   PatMdit.obj
 0001:00027b70       ?OnEBoxRButtonDown_PAT@CPatMdit@@QAEXPAVCClientDC@@PAVCView@@W4GENERATE@@IVCPoint@@@Z 10028b70 f   PatMdit.obj
 0001:00027bc0       ?ShowPatchInfo@CPatMdit@@QAEHPAVCDrMesh2D@@@Z 10028bc0 f   PatMdit.obj
 0001:00027bf0       ?OnEBoxRButtonUp_PAT@CPatMdit@@QAEXPAVCClientDC@@PAVCView@@W4GENERATE@@IVCPoint@@@Z 10028bf0 f   PatMdit.obj
 0001:00027c40       ?ReSetToolID_PAT@CPatMdit@@QAEIIII@Z 10028c40 f   PatMdit.obj
 0001:00027e50       ?Serialize@CPatMdit@@UAEXAAVCArchive@@@Z 10028e50 f   PatMdit.obj
 0001:00027eb0       ?Setid@CMI_Gang0@@QAEXVCString@@@Z 10028eb0 f i RegenMs1.obj
 0001:00027f20       ?FixMemD@CMI_Gang0@@QAEPANJ@Z 10028f20 f i RegenMs1.obj
 0001:00027f70       ?FreeMemD@CMI_Gang0@@QAEXPAN@Z 10028f70 f i RegenMs1.obj
 0001:00027fa0       ?FixMem@CMI_Gang0@@QAEPAUWORLD@@J@Z 10028fa0 f i RegenMs1.obj
 0001:00027ff0       ?FreeMem@CMI_Gang0@@QAEXPAUWORLD@@@Z 10028ff0 f i RegenMs1.obj
 0001:00028030       ?GetElNumID@CMI_Gang0@@QAEAAVCString@@XZ 10029030 f i RegenMs1.obj
 0001:00028050       ?SetElNumID@CMI_Gang0@@QAEXVCString@@@Z 10029050 f i RegenMs1.obj
 0001:000280c0       ?GetElTypeID@CMI_Gang0@@QAEAAVCString@@XZ 100290c0 f i RegenMs1.obj
 0001:000280e0       ?SetElTypeID@CMI_Gang0@@QAEXVCString@@@Z 100290e0 f i RegenMs1.obj
 0001:00028150       ?Getrid@CMI_Gang0@@QAEAAVCString@@XZ 10029150 f i RegenMs1.obj
 0001:00028170       ?Setrid@CMI_Gang0@@QAEXVCString@@@Z 10029170 f i RegenMs1.obj
 0001:000281e0       ?Getpid@CMI_Gang0@@QAEAAVCString@@XZ 100291e0 f i RegenMs1.obj
 0001:00028200       ?Setpid@CMI_Gang0@@QAEXVCString@@@Z 10029200 f i RegenMs1.obj
 0001:00028270       ?Getmid@CMI_Gang0@@QAEAAVCString@@XZ 10029270 f i RegenMs1.obj
 0001:00028290       ?Setmid@CMI_Gang0@@QAEXVCString@@@Z 10029290 f i RegenMs1.obj
 0001:00028300       ?GetElNum@CMI_Gang0@@QAEIXZ 10029300 f i RegenMs1.obj
 0001:00028320       ?SetElNum@CMI_Gang0@@QAEXI@Z 10029320 f i RegenMs1.obj
 0001:00028350       ?GetElTypeNum@CMI_Gang0@@QAEIXZ 10029350 f i RegenMs1.obj
 0001:00028370       ?SetElTypeNum@CMI_Gang0@@QAEXI@Z 10029370 f i RegenMs1.obj
 0001:000283a0       ?Getrel@CMI_Gang0@@QAEIXZ  100293a0 f i RegenMs1.obj
 0001:000283c0       ?Setrel@CMI_Gang0@@QAEXI@Z 100293c0 f i RegenMs1.obj
 0001:000283f0       ?Getprop@CMI_Gang0@@QAEIXZ 100293f0 f i RegenMs1.obj
 0001:00028420       ?Setprop@CMI_Gang0@@QAEXI@Z 10029420 f i RegenMs1.obj
 0001:00028450       ?Getmat@CMI_Gang0@@QAEIXZ  10029450 f i RegenMs1.obj
 0001:00028480       ?Setmat@CMI_Gang0@@QAEXI@Z 10029480 f i RegenMs1.obj
 0001:000284b0       ?GetRefTemp@CMI_Gang0@@QAENXZ 100294b0 f i RegenMs1.obj
 0001:000284e0       ?SetRefTemp@CMI_Gang0@@QAEXN@Z 100294e0 f i RegenMs1.obj
 0001:00028520       ?GetCardNo@CMI_Gang0@@QAEIXZ 10029520 f i RegenMs1.obj
 0001:00028550       ?SetCardNo@CMI_Gang0@@QAEXI@Z 10029550 f i RegenMs1.obj
 0001:00028580       ?Getline_id@CMI_Gang1@@QAEAAVCString@@XZ 10029580 f i RegenMs1.obj
 0001:000285b0       ?Setline_id@CMI_Gang1@@QAEXVCString@@@Z 100295b0 f i RegenMs1.obj
 0001:00028630       ?Getrid@CMI_Gang1@@QAEAAVCString@@H@Z 10029630 f i RegenMs1.obj
 0001:00028660       ?Setrid@CMI_Gang1@@QAEXVCString@@H@Z 10029660 f i RegenMs1.obj
 0001:000286e0       ?Getline_no@CMI_Gang1@@QAEIXZ 100296e0 f i RegenMs1.obj
 0001:00028710       ?Setline_no@CMI_Gang1@@QAEXI@Z 10029710 f i RegenMs1.obj
 0001:00028740       ?Getrel@CMI_Gang1@@QAEIH@Z 10029740 f i RegenMs1.obj
 0001:00028770       ?Setrel@CMI_Gang1@@QAEXIH@Z 10029770 f i RegenMs1.obj
 0001:000287a0       ?Getnumseg@CMI_Gang1@@QAEIXZ 100297a0 f i RegenMs1.obj
 0001:000287d0       ?Setnumseg@CMI_Gang1@@QAEXI@Z 100297d0 f i RegenMs1.obj
 0001:00028800       ?GetCenter@CMI_Gang1@@QAE?AUtagPOINT@@XZ 10029800 f i RegenMs1.obj
 0001:00028840       ?SetCenter@CMI_Gang1@@QAEXUtagPOINT@@@Z 10029840 f i RegenMs1.obj
 0001:00028880       ?IsOnBndry@CMI_Gang1@@QAEHXZ 10029880 f i RegenMs1.obj
 0001:000288b0       ?SetOnBndry@CMI_Gang1@@QAEXH@Z 100298b0 f i RegenMs1.obj
 0001:000288e0       ?CreateObject@CRegenMs1@@SGPAVCObject@@XZ 100298e0 f   RegenMs1.obj
 0001:00028970       ?_GetBaseClass@CRegenMs1@@KGPAUCRuntimeClass@@XZ 10029970 f   RegenMs1.obj
 0001:00028990       ?GetRuntimeClass@CRegenMs1@@UBEPAUCRuntimeClass@@XZ 10029990 f   RegenMs1.obj
 0001:00028a00       ??5@YGAAVCArchive@@AAV0@AAPAVCRegenMs1@@@Z 10029a00 f   RegenMs1.obj
 0001:00028a30       ??0CRegenMs1@@QAE@XZ       10029a30 f   RegenMs1.obj
 0001:00028a60       ??_GCRegenMs1@@UAEPAXI@Z   10029a60 f i RegenMs1.obj
 0001:00028a60       ??_ECRegenMs1@@UAEPAXI@Z   10029a60 f i RegenMs1.obj
 0001:00028aa0       ??1CRegenMs1@@UAE@XZ       10029aa0 f   RegenMs1.obj
 0001:00028ad0       ?UpdateMeshElemCentroids@CRegenMs1@@QAEHPAVCDrFE0D@@@Z 10029ad0 f   RegenMs1.obj
 0001:00028c00       ?UpdateFE1DCentroid@CRegenMs1@@QAEHPAVCDrFE1D@@@Z 10029c00 f   RegenMs1.obj
 0001:00028da0       ?Serialize@CRegenMs1@@UAEXAAVCArchive@@@Z 10029da0 f   RegenMs1.obj
 0001:00028e00       ?CreateObject@CRegenMs2@@SGPAVCObject@@XZ 10029e00 f   RegenMs2.obj
 0001:00028e90       ?_GetBaseClass@CRegenMs2@@KGPAUCRuntimeClass@@XZ 10029e90 f   RegenMs2.obj
 0001:00028eb0       ?GetRuntimeClass@CRegenMs2@@UBEPAUCRuntimeClass@@XZ 10029eb0 f   RegenMs2.obj
 0001:00028f20       ??5@YGAAVCArchive@@AAV0@AAPAVCRegenMs2@@@Z 10029f20 f   RegenMs2.obj
 0001:00028f50       ??0CRegenMs2@@QAE@XZ       10029f50 f   RegenMs2.obj
 0001:00028f80       ??_GCRegenMs2@@UAEPAXI@Z   10029f80 f i RegenMs2.obj
 0001:00028f80       ??_ECRegenMs2@@UAEPAXI@Z   10029f80 f i RegenMs2.obj
 0001:00028fc0       ??1CRegenMs2@@UAE@XZ       10029fc0 f   RegenMs2.obj
 0001:00028ff0       ?UpdateMeshElemCentroids@CRegenMs2@@QAEHPAVCDrFE0D@@@Z 10029ff0 f   RegenMs2.obj
 0001:000291a0       ?UpdateFE2DCentroid@CRegenMs2@@QAEHPAVCDrFE2D@@@Z 1002a1a0 f   RegenMs2.obj
 0001:00029390       ?Serialize@CRegenMs2@@UAEXAAVCArchive@@@Z 1002a390 f   RegenMs2.obj
 0001:000293f0       ?CreateObject@CRegenMs3@@SGPAVCObject@@XZ 1002a3f0 f   RegenMs3.obj
 0001:00029480       ?_GetBaseClass@CRegenMs3@@KGPAUCRuntimeClass@@XZ 1002a480 f   RegenMs3.obj
 0001:000294a0       ?GetRuntimeClass@CRegenMs3@@UBEPAUCRuntimeClass@@XZ 1002a4a0 f   RegenMs3.obj
 0001:00029510       ??5@YGAAVCArchive@@AAV0@AAPAVCRegenMs3@@@Z 1002a510 f   RegenMs3.obj
 0001:00029540       ??0CRegenMs3@@QAE@XZ       1002a540 f   RegenMs3.obj
 0001:00029570       ??_ECRegenMs3@@UAEPAXI@Z   1002a570 f i RegenMs3.obj
 0001:00029570       ??_GCRegenMs3@@UAEPAXI@Z   1002a570 f i RegenMs3.obj
 0001:000295b0       ??1CRegenMs3@@UAE@XZ       1002a5b0 f   RegenMs3.obj
 0001:000295e0       ?UpdateMeshElemCentroids@CRegenMs3@@QAEHPAVCDrFE0D@@@Z 1002a5e0 f   RegenMs3.obj
 0001:00029810       ?UpdateFE3DCentroid@CRegenMs3@@QAEHPAVCDrFE3D@@@Z 1002a810 f   RegenMs3.obj
 0001:00029a00       ?Serialize@CRegenMs3@@UAEXAAVCArchive@@@Z 1002aa00 f   RegenMs3.obj
 0001:00029a60       ?CreateObject@CSolMdit@@SGPAVCObject@@XZ 1002aa60 f   SolMdit.obj
 0001:00029b00       ?_GetBaseClass@CSolMdit@@KGPAUCRuntimeClass@@XZ 1002ab00 f   SolMdit.obj
 0001:00029b20       ?GetRuntimeClass@CSolMdit@@UBEPAUCRuntimeClass@@XZ 1002ab20 f   SolMdit.obj
 0001:00029b90       ??5@YGAAVCArchive@@AAV0@AAPAVCSolMdit@@@Z 1002ab90 f   SolMdit.obj
 0001:00029bc0       ??0CSolMdit@@QAE@XZ        1002abc0 f   SolMdit.obj
 0001:00029c10       ??_GCSolMdit@@UAEPAXI@Z    1002ac10 f i SolMdit.obj
 0001:00029c10       ??_ECSolMdit@@UAEPAXI@Z    1002ac10 f i SolMdit.obj
 0001:00029c50       ??1CSolMdit@@UAE@XZ        1002ac50 f   SolMdit.obj
 0001:00029c80       ?ElementLeftDown_SOL@CSolMdit@@IAEXXZ 1002ac80 f   SolMdit.obj
 0001:00029ce0       ?ShowSolidToEdit@CSolMdit@@QAEHPAVCDrMesh3D@@@Z 1002ace0 f   SolMdit.obj
 0001:00029ef0       ?OnEBoxLButtonDown_SOL@CSolMdit@@QAEXPAVCClientDC@@PAVCView@@W4GENERATE@@IVCPoint@@@Z 1002aef0 f   SolMdit.obj
 0001:0002a060       ?LeftUp_Solid@CSolMdit@@IAEHVCPoint@@@Z 1002b060 f   SolMdit.obj
 0001:0002a400       ?ElementLeftUp_SOL@CSolMdit@@IAEXVCPoint@@@Z 1002b400 f   SolMdit.obj
 0001:0002a4f0       ?OnEBoxMouseMove_SOL@CSolMdit@@QAEXPAVCClientDC@@PAVCView@@W4GENERATE@@IVCPoint@@@Z 1002b4f0 f   SolMdit.obj
 0001:0002a540       ?OnEBoxLButtonUp_SOL@CSolMdit@@QAEXPAVCClientDC@@PAVCView@@W4GENERATE@@IVCPoint@@@Z 1002b540 f   SolMdit.obj
 0001:0002a600       ?OnEBoxRButtonDown_SOL@CSolMdit@@QAEXPAVCClientDC@@PAVCView@@W4GENERATE@@IVCPoint@@@Z 1002b600 f   SolMdit.obj
 0001:0002a650       ?ShowSolidInfo@CSolMdit@@QAEHPAVCDrMesh3D@@@Z 1002b650 f   SolMdit.obj
 0001:0002a680       ?OnEBoxRButtonUp_SOL@CSolMdit@@QAEXPAVCClientDC@@PAVCView@@W4GENERATE@@IVCPoint@@@Z 1002b680 f   SolMdit.obj
 0001:0002a6d0       ?ReSetToolID_SOL@CSolMdit@@QAEIIII@Z 1002b6d0 f   SolMdit.obj
 0001:0002a8e0       ?Serialize@CSolMdit@@UAEXAAVCArchive@@@Z 1002b8e0 f   SolMdit.obj
 0001:0002a93c       ?GetSpecObject@CObjectMgr@@QAEPAVCDrObject@@H@Z 1002b93c f   OMgr_D32:OMgr_D32.dll
 0001:0002a942       ?ShowObject_On_Off@CObjectMgr@@QAEHPAVCDrObject@@IH@Z 1002b942 f   OMgr_D32:OMgr_D32.dll
 0001:0002a948       ?GetObjectIndexfromKey@CObjectMgr@@QAEHHVCString@@I@Z 1002b948 f   OMgr_D32:OMgr_D32.dll
 0001:0002a94e       ?GetRuntimeClass@CMatObj@@UBEPAUCRuntimeClass@@XZ 1002b94e f   Spec_d32:Spec_D32.dll
 0001:0002a954       ?SetScreen3DCorner@CDrObject@@UAEXPAUWORLD@@H@Z 1002b954 f   Spec_d32:Spec_D32.dll
 0001:0002a95a       ?GetScreen3DCorner@CDrObject@@UAEXPAUWORLD@@H@Z 1002b95a f   Spec_d32:Spec_D32.dll
 0001:0002a960       ?SetEyeCorner@CDrObject@@UAEXPAUWORLD@@H@Z 1002b960 f   Spec_d32:Spec_D32.dll
 0001:0002a966       ?GetEyeCorner@CDrObject@@UAEXPAUWORLD@@H@Z 1002b966 f   Spec_d32:Spec_D32.dll
 0001:0002a96c       ?SetWorldCorner@CDrObject@@UAEXPAUWORLD@@H@Z 1002b96c f   Spec_d32:Spec_D32.dll
 0001:0002a972       ?GetWorldCorner@CDrObject@@UAEXPAUWORLD@@H@Z 1002b972 f   Spec_d32:Spec_D32.dll
 0001:0002a978       ?SetLocalCorner@CDrObject@@UAEXPAUWORLD@@H@Z 1002b978 f   Spec_d32:Spec_D32.dll
 0001:0002a97e       ?GetLocalCorner@CDrObject@@UAEXPAUWORLD@@H@Z 1002b97e f   Spec_d32:Spec_D32.dll
 0001:0002a984       ??1CDrObject@@UAE@XZ       1002b984 f   Spec_d32:Spec_D32.dll
 0001:0002a98a       ?InitBooleans@CBooleans@@UAEXXZ 1002b98a f   Spec_d32:Spec_D32.dll
 0001:0002a990       ?ReadDefaultBooleans@CBooleans@@UAEXXZ 1002b990 f   Spec_d32:Spec_D32.dll
 0001:0002a996       ?ToggleZoom@CBooleans@@UAEHHH@Z 1002b996 f   Spec_d32:Spec_D32.dll
 0001:0002a99c       ?IsZoomOn@CBooleans@@UAEHHH@Z 1002b99c f   Spec_d32:Spec_D32.dll
 0001:0002a9a2       ?SetZoomEnabled@CBooleans@@UAEXHH@Z 1002b9a2 f   Spec_d32:Spec_D32.dll
 0001:0002a9a8       ?IsZoomEnabled@CBooleans@@UAEHH@Z 1002b9a8 f   Spec_d32:Spec_D32.dll
 0001:0002a9ae       ?SetObjectInfo@CBooleans@@UAEXPAVCDrObject@@@Z 1002b9ae f   Spec_d32:Spec_D32.dll
 0001:0002a9b4       ?GetObjectInfo@CBooleans@@UAEXPAVCDrObject@@@Z 1002b9b4 f   Spec_d32:Spec_D32.dll
 0001:0002a9ba       ?Pack_drPipe@CBooleans@@UAEXPAVCString@@@Z 1002b9ba f   Spec_d32:Spec_D32.dll
 0001:0002a9c0       ?DoDataView@CBooleans@@UAEXPAVCDC@@H@Z 1002b9c0 f   Spec_d32:Spec_D32.dll
 0001:0002a9c6       ?Serialize@CBooleans@@UAEXAAVCArchive@@@Z 1002b9c6 f   Spec_d32:Spec_D32.dll
 0001:0002a9cc       ?GetRuntimeClass@CBooleans@@UBEPAUCRuntimeClass@@XZ 1002b9cc f   Spec_d32:Spec_D32.dll
 0001:0002a9d2       ?InitDataWindow@CDataWindow@@UAEXXZ 1002b9d2 f   Spec_d32:Spec_D32.dll
 0001:0002a9d8       ?ReadDefaultDataWindow@CDataWindow@@UAEXXZ 1002b9d8 f   Spec_d32:Spec_D32.dll
 0001:0002a9de       ?SetWinExtWIC@CDataWindow@@UAEXXZ 1002b9de f   Spec_d32:Spec_D32.dll
 0001:0002a9e4       ?SetWinMinMaxWIC@CDataWindow@@UAEXULPOINT3@@@Z 1002b9e4 f   Spec_d32:Spec_D32.dll
 0001:0002a9ea       ?SetObjectInfo@CDataWindow@@UAEXPAVCDrObject@@@Z 1002b9ea f   Spec_d32:Spec_D32.dll
 0001:0002a9f0       ?GetObjectInfo@CDataWindow@@UAEXPAVCDrObject@@@Z 1002b9f0 f   Spec_d32:Spec_D32.dll
 0001:0002a9f6       ?Pack_drPipe@CDataWindow@@UAEXPAVCString@@@Z 1002b9f6 f   Spec_d32:Spec_D32.dll
 0001:0002a9fc       ?DoDataView@CDataWindow@@UAEXPAVCDC@@H@Z 1002b9fc f   Spec_d32:Spec_D32.dll
 0001:0002aa02       ?Serialize@CDataWindow@@UAEXAAVCArchive@@@Z 1002ba02 f   Spec_d32:Spec_D32.dll
 0001:0002aa08       ?GetRuntimeClass@CDataWindow@@UBEPAUCRuntimeClass@@XZ 1002ba08 f   Spec_d32:Spec_D32.dll
 0001:0002aa0e       ?InitDrFont@CDrFont@@UAEXXZ 1002ba0e f   Spec_d32:Spec_D32.dll
 0001:0002aa14       ?ReadDefaultDrFont@CDrFont@@UAEXXZ 1002ba14 f   Spec_d32:Spec_D32.dll
 0001:0002aa1a       ?DoTextFont@CDrFont@@UAEXXZ 1002ba1a f   Spec_d32:Spec_D32.dll
 0001:0002aa20       ?SetObjectInfo@CDrFont@@UAEXPAVCDrObject@@@Z 1002ba20 f   Spec_d32:Spec_D32.dll
 0001:0002aa26       ?GetObjectInfo@CDrFont@@UAEXPAVCDrObject@@@Z 1002ba26 f   Spec_d32:Spec_D32.dll
 0001:0002aa2c       ?Pack_drPipe@CDrFont@@UAEXPAVCString@@@Z 1002ba2c f   Spec_d32:Spec_D32.dll
 0001:0002aa32       ?DoDataView@CDrFont@@UAEXPAVCDC@@H@Z 1002ba32 f   Spec_d32:Spec_D32.dll
 0001:0002aa38       ?Serialize@CDrFont@@UAEXAAVCArchive@@@Z 1002ba38 f   Spec_d32:Spec_D32.dll
 0001:0002aa3e       ?GetRuntimeClass@CDrFont@@UBEPAUCRuntimeClass@@XZ 1002ba3e f   Spec_d32:Spec_D32.dll
 0001:0002aa44       ?InitDrPen@CDrPen@@UAEXXZ  1002ba44 f   Spec_d32:Spec_D32.dll
 0001:0002aa4a       ?ReadDefaultDrPen@CDrPen@@UAEXXZ 1002ba4a f   Spec_d32:Spec_D32.dll
 0001:0002aa50       ?ReplacePen@CDrPen@@UAEXXZ 1002ba50 f   Spec_d32:Spec_D32.dll
 0001:0002aa56       ?SetObjectInfo@CDrPen@@UAEXPAVCDrObject@@@Z 1002ba56 f   Spec_d32:Spec_D32.dll
 0001:0002aa5c       ?GetObjectInfo@CDrPen@@UAEXPAVCDrObject@@@Z 1002ba5c f   Spec_d32:Spec_D32.dll
 0001:0002aa62       ?Pack_drPipe@CDrPen@@UAEXPAVCString@@@Z 1002ba62 f   Spec_d32:Spec_D32.dll
 0001:0002aa68       ?DoDataView@CDrPen@@UAEXPAVCDC@@H@Z 1002ba68 f   Spec_d32:Spec_D32.dll
 0001:0002aa6e       ?Serialize@CDrPen@@UAEXAAVCArchive@@@Z 1002ba6e f   Spec_d32:Spec_D32.dll
 0001:0002aa74       ?GetRuntimeClass@CDrPen@@UBEPAUCRuntimeClass@@XZ 1002ba74 f   Spec_d32:Spec_D32.dll
 0001:0002aa7a       ?SetObjectInfo@CHitNet@@UAEXPAVCDrObject@@@Z 1002ba7a f   Spec_d32:Spec_D32.dll
 0001:0002aa80       ?GetObjectInfo@CHitNet@@UAEXPAVCDrObject@@@Z 1002ba80 f   Spec_d32:Spec_D32.dll
 0001:0002aa86       ?Pack_drPipe@CHitNet@@UAEXPAVCString@@@Z 1002ba86 f   Spec_d32:Spec_D32.dll
 0001:0002aa8c       ?DoDataView@CHitNet@@UAEXPAVCDC@@H@Z 1002ba8c f   Spec_d32:Spec_D32.dll
 0001:0002aa92       ?Serialize@CHitNet@@UAEXAAVCArchive@@@Z 1002ba92 f   Spec_d32:Spec_D32.dll
 0001:0002aa98       ?GetRuntimeClass@CHitNet@@UBEPAUCRuntimeClass@@XZ 1002ba98 f   Spec_d32:Spec_D32.dll
 0001:0002aa9e       ?InitLayer@CLayer@@UAEXXZ  1002ba9e f   Spec_d32:Spec_D32.dll
 0001:0002aaa4       ?ReadDefaultLayer@CLayer@@UAEXXZ 1002baa4 f   Spec_d32:Spec_D32.dll
 0001:0002aaaa       ?SetLayerDefaultArray@CLayer@@UAEXQAY01I@Z 1002baaa f   Spec_d32:Spec_D32.dll
 0001:0002aab0       ?GetLayerDefaultArray@CLayer@@UAEXQAY01I@Z 1002bab0 f   Spec_d32:Spec_D32.dll
 0001:0002aab6       ?SetLayerOldArray@CLayer@@UAEXQAY01I@Z 1002bab6 f   Spec_d32:Spec_D32.dll
 0001:0002aabc       ?GetLayerOldArray@CLayer@@UAEXQAY01I@Z 1002babc f   Spec_d32:Spec_D32.dll
 0001:0002aac2       ?SetLayerArray@CLayer@@UAEXQAY01I@Z 1002bac2 f   Spec_d32:Spec_D32.dll
 0001:0002aac8       ?GetLayerArray@CLayer@@UAEXQAY01I@Z 1002bac8 f   Spec_d32:Spec_D32.dll
 0001:0002aace       ?SetLayerInfo@CLayer@@UAEXII@Z 1002bace f   Spec_d32:Spec_D32.dll
 0001:0002aad4       ?GetLayerInfo@CLayer@@UAE?AVCString@@I@Z 1002bad4 f   Spec_d32:Spec_D32.dll
 0001:0002aada       ?SetObjectInfo@CLayer@@UAEXPAVCDrObject@@@Z 1002bada f   Spec_d32:Spec_D32.dll
 0001:0002aae0       ?GetObjectInfo@CLayer@@UAEXPAVCDrObject@@@Z 1002bae0 f   Spec_d32:Spec_D32.dll
 0001:0002aae6       ?Pack_drPipe@CLayer@@UAEXPAVCString@@@Z 1002bae6 f   Spec_d32:Spec_D32.dll
 0001:0002aaec       ?DoDataView@CLayer@@UAEXPAVCDC@@H@Z 1002baec f   Spec_d32:Spec_D32.dll
 0001:0002aaf2       ?Serialize@CLayer@@UAEXAAVCArchive@@@Z 1002baf2 f   Spec_d32:Spec_D32.dll
 0001:0002aaf8       ?GetRuntimeClass@CLayer@@UBEPAUCRuntimeClass@@XZ 1002baf8 f   Spec_d32:Spec_D32.dll
 0001:0002aafe       ?InitPatchMnu@CPatchMnu@@UAEXXZ 1002bafe f   Spec_d32:Spec_D32.dll
 0001:0002ab04       ?ReadDefaultPatchMnu@CPatchMnu@@UAEXXZ 1002bb04 f   Spec_d32:Spec_D32.dll
 0001:0002ab0a       ?SetPatchMnuDefaultArray@CPatchMnu@@UAEXQAY01I@Z 1002bb0a f   Spec_d32:Spec_D32.dll
 0001:0002ab10       ?GetPatchMnuDefaultArray@CPatchMnu@@UAEXQAY01I@Z 1002bb10 f   Spec_d32:Spec_D32.dll
 0001:0002ab16       ?SetPatchMnuOldArray@CPatchMnu@@UAEXQAY01I@Z 1002bb16 f   Spec_d32:Spec_D32.dll
 0001:0002ab1c       ?GetPatchMnuOldArray@CPatchMnu@@UAEXQAY01I@Z 1002bb1c f   Spec_d32:Spec_D32.dll
 0001:0002ab22       ?SetPatchMnuArray@CPatchMnu@@UAEXQAY01I@Z 1002bb22 f   Spec_d32:Spec_D32.dll
 0001:0002ab28       ?GetPatchMnuArray@CPatchMnu@@UAEXQAY01I@Z 1002bb28 f   Spec_d32:Spec_D32.dll
 0001:0002ab2e       ?SetPatchMnuIDArray@CPatchMnu@@UAEXQAVCString@@@Z 1002bb2e f   Spec_d32:Spec_D32.dll
 0001:0002ab34       ?GetPatchMnuIDArray@CPatchMnu@@UAEXQAVCString@@@Z 1002bb34 f   Spec_d32:Spec_D32.dll
 0001:0002ab3a       ?SetPatchMnuInfo@CPatchMnu@@UAEXII@Z 1002bb3a f   Spec_d32:Spec_D32.dll
 0001:0002ab40       ?GetPatchMnuInfo@CPatchMnu@@UAE?AVCString@@I@Z 1002bb40 f   Spec_d32:Spec_D32.dll
 0001:0002ab46       ?SetObjectInfo@CPatchMnu@@UAEXPAVCDrObject@@@Z 1002bb46 f   Spec_d32:Spec_D32.dll
 0001:0002ab4c       ?GetObjectInfo@CPatchMnu@@UAEXPAVCDrObject@@@Z 1002bb4c f   Spec_d32:Spec_D32.dll
 0001:0002ab52       ?Pack_drPipe@CPatchMnu@@UAEXPAVCString@@@Z 1002bb52 f   Spec_d32:Spec_D32.dll
 0001:0002ab58       ?DoDataView@CPatchMnu@@UAEXPAVCDC@@H@Z 1002bb58 f   Spec_d32:Spec_D32.dll
 0001:0002ab5e       ?Serialize@CPatchMnu@@UAEXAAVCArchive@@@Z 1002bb5e f   Spec_d32:Spec_D32.dll
 0001:0002ab64       ?GetRuntimeClass@CPatchMnu@@UBEPAUCRuntimeClass@@XZ 1002bb64 f   Spec_d32:Spec_D32.dll
 0001:0002ab6a       ?InitObj3DMnu@CObj3DMnu@@UAEXXZ 1002bb6a f   Spec_d32:Spec_D32.dll
 0001:0002ab70       ?ReadDefaultObj3DMnu@CObj3DMnu@@UAEXXZ 1002bb70 f   Spec_d32:Spec_D32.dll
 0001:0002ab76       ?SetObj3DMnuDefaultArray@CObj3DMnu@@UAEXQAY01I@Z 1002bb76 f   Spec_d32:Spec_D32.dll
 0001:0002ab7c       ?GetObj3DMnuDefaultArray@CObj3DMnu@@UAEXQAY01I@Z 1002bb7c f   Spec_d32:Spec_D32.dll
 0001:0002ab82       ?SetObj3DMnuOldArray@CObj3DMnu@@UAEXQAY01I@Z 1002bb82 f   Spec_d32:Spec_D32.dll
 0001:0002ab88       ?GetObj3DMnuOldArray@CObj3DMnu@@UAEXQAY01I@Z 1002bb88 f   Spec_d32:Spec_D32.dll
 0001:0002ab8e       ?SetObj3DMnuArray@CObj3DMnu@@UAEXQAY01I@Z 1002bb8e f   Spec_d32:Spec_D32.dll
 0001:0002ab94       ?GetObj3DMnuArray@CObj3DMnu@@UAEXQAY01I@Z 1002bb94 f   Spec_d32:Spec_D32.dll
 0001:0002ab9a       ?SetObj3DMnuIDArray@CObj3DMnu@@UAEXQAVCString@@@Z 1002bb9a f   Spec_d32:Spec_D32.dll
 0001:0002aba0       ?GetObj3DMnuIDArray@CObj3DMnu@@UAEXQAVCString@@@Z 1002bba0 f   Spec_d32:Spec_D32.dll
 0001:0002aba6       ?SetObj3DMnuInfo@CObj3DMnu@@UAEXII@Z 1002bba6 f   Spec_d32:Spec_D32.dll
 0001:0002abac       ?GetObj3DMnuInfo@CObj3DMnu@@UAE?AVCString@@I@Z 1002bbac f   Spec_d32:Spec_D32.dll
 0001:0002abb2       ?SetObjectInfo@CObj3DMnu@@UAEXPAVCDrObject@@@Z 1002bbb2 f   Spec_d32:Spec_D32.dll
 0001:0002abb8       ?GetObjectInfo@CObj3DMnu@@UAEXPAVCDrObject@@@Z 1002bbb8 f   Spec_d32:Spec_D32.dll
 0001:0002abbe       ?Pack_drPipe@CObj3DMnu@@UAEXPAVCString@@@Z 1002bbbe f   Spec_d32:Spec_D32.dll
 0001:0002abc4       ?DoDataView@CObj3DMnu@@UAEXPAVCDC@@H@Z 1002bbc4 f   Spec_d32:Spec_D32.dll
 0001:0002abca       ?Serialize@CObj3DMnu@@UAEXAAVCArchive@@@Z 1002bbca f   Spec_d32:Spec_D32.dll
 0001:0002abd0       ?GetRuntimeClass@CObj3DMnu@@UBEPAUCRuntimeClass@@XZ 1002bbd0 f   Spec_d32:Spec_D32.dll
 0001:0002abd6       ?InitMapFactor@CMapFactor@@UAEXXZ 1002bbd6 f   Spec_d32:Spec_D32.dll
 0001:0002abdc       ?ReadDefaultMapFactor@CMapFactor@@UAEXXZ 1002bbdc f   Spec_d32:Spec_D32.dll
 0001:0002abe2       ?SetObjectInfo@CMapFactor@@UAEXPAVCDrObject@@@Z 1002bbe2 f   Spec_d32:Spec_D32.dll
 0001:0002abe8       ?GetObjectInfo@CMapFactor@@UAEXPAVCDrObject@@@Z 1002bbe8 f   Spec_d32:Spec_D32.dll
 0001:0002abee       ?Pack_drPipe@CMapFactor@@UAEXPAVCString@@@Z 1002bbee f   Spec_d32:Spec_D32.dll
 0001:0002abf4       ?DoDataView@CMapFactor@@UAEXPAVCDC@@H@Z 1002bbf4 f   Spec_d32:Spec_D32.dll
 0001:0002abfa       ?Serialize@CMapFactor@@UAEXAAVCArchive@@@Z 1002bbfa f   Spec_d32:Spec_D32.dll
 0001:0002ac00       ?GetRuntimeClass@CMapFactor@@UBEPAUCRuntimeClass@@XZ 1002bc00 f   Spec_d32:Spec_D32.dll
 0001:0002ac06       ?InitPrecision@CPrecision@@UAEXXZ 1002bc06 f   Spec_d32:Spec_D32.dll
 0001:0002ac0c       ?ReadDefaultPrecision@CPrecision@@UAEXXZ 1002bc0c f   Spec_d32:Spec_D32.dll
 0001:0002ac12       ?SetObjectInfo@CPrecision@@UAEXPAVCDrObject@@@Z 1002bc12 f   Spec_d32:Spec_D32.dll
 0001:0002ac18       ?GetObjectInfo@CPrecision@@UAEXPAVCDrObject@@@Z 1002bc18 f   Spec_d32:Spec_D32.dll
 0001:0002ac1e       ?Pack_drPipe@CPrecision@@UAEXPAVCString@@@Z 1002bc1e f   Spec_d32:Spec_D32.dll
 0001:0002ac24       ?DoDataView@CPrecision@@UAEXPAVCDC@@H@Z 1002bc24 f   Spec_d32:Spec_D32.dll
 0001:0002ac2a       ?Serialize@CPrecision@@UAEXAAVCArchive@@@Z 1002bc2a f   Spec_d32:Spec_D32.dll
 0001:0002ac30       ?GetRuntimeClass@CPrecision@@UBEPAUCRuntimeClass@@XZ 1002bc30 f   Spec_d32:Spec_D32.dll
 0001:0002ac36       ?InitScaleFactor@CScaleFactor@@UAEXXZ 1002bc36 f   Spec_d32:Spec_D32.dll
 0001:0002ac3c       ?ReadDefaultScaleFactor@CScaleFactor@@UAEXXZ 1002bc3c f   Spec_d32:Spec_D32.dll
 0001:0002ac42       ?SetObjectInfo@CScaleFactor@@UAEXPAVCDrObject@@@Z 1002bc42 f   Spec_d32:Spec_D32.dll
 0001:0002ac48       ?GetObjectInfo@CScaleFactor@@UAEXPAVCDrObject@@@Z 1002bc48 f   Spec_d32:Spec_D32.dll
 0001:0002ac4e       ?Pack_drPipe@CScaleFactor@@UAEXPAVCString@@@Z 1002bc4e f   Spec_d32:Spec_D32.dll
 0001:0002ac54       ?DoDataView@CScaleFactor@@UAEXPAVCDC@@H@Z 1002bc54 f   Spec_d32:Spec_D32.dll
 0001:0002ac5a       ?Serialize@CScaleFactor@@UAEXAAVCArchive@@@Z 1002bc5a f   Spec_d32:Spec_D32.dll
 0001:0002ac60       ?GetRuntimeClass@CScaleFactor@@UBEPAUCRuntimeClass@@XZ 1002bc60 f   Spec_d32:Spec_D32.dll
 0001:0002ac66       ?InitUnit@CUnit@@UAEXXZ    1002bc66 f   Spec_d32:Spec_D32.dll
 0001:0002ac6c       ?ReadDefaultUnit@CUnit@@UAEXXZ 1002bc6c f   Spec_d32:Spec_D32.dll
 0001:0002ac72       ?SetObjectInfo@CUnit@@UAEXPAVCDrObject@@@Z 1002bc72 f   Spec_d32:Spec_D32.dll
 0001:0002ac78       ?GetObjectInfo@CUnit@@UAEXPAVCDrObject@@@Z 1002bc78 f   Spec_d32:Spec_D32.dll
 0001:0002ac7e       ?Pack_drPipe@CUnit@@UAEXPAVCString@@@Z 1002bc7e f   Spec_d32:Spec_D32.dll
 0001:0002ac84       ?DoDataView@CUnit@@UAEXPAVCDC@@H@Z 1002bc84 f   Spec_d32:Spec_D32.dll
 0001:0002ac8a       ?Serialize@CUnit@@UAEXAAVCArchive@@@Z 1002bc8a f   Spec_d32:Spec_D32.dll
 0001:0002ac90       ?GetRuntimeClass@CUnit@@UBEPAUCRuntimeClass@@XZ 1002bc90 f   Spec_d32:Spec_D32.dll
 0001:0002ac96       ??1CDListMgr@@UAE@XZ       1002bc96 f   Spec_d32:Spec_D32.dll
 0001:0002ac9c       ?GetObjectA@CDListMgr@@QAEPAVCObject@@H@Z 1002bc9c f   Spec_d32:Spec_D32.dll
 0001:0002aca2       ?GetSpecificObjectCount@CDListMgr@@QAEHH@Z 1002bca2 f   Spec_d32:Spec_D32.dll
 0001:0002aca8       ?GetObjectIndex@CDListMgr@@QAEHIVCString@@@Z 1002bca8 f   Spec_d32:Spec_D32.dll
 0001:0002acae       ?GetNextObject@CDListMgr@@QAEPAVCObject@@AAPAU__POSITION@@@Z 1002bcae f   Spec_d32:Spec_D32.dll
 0001:0002acb4       ?GetFirstObjectPos@CDListMgr@@QAEPAU__POSITION@@XZ 1002bcb4 f   Spec_d32:Spec_D32.dll
 0001:0002acba       ?SetCorner@CDrLabel@@UAEXUtagPOINT@@H@Z 1002bcba f   Draw_D32:Draw_D32.dll
 0001:0002acc0       ?GetCorner@CDrLabel@@UAE?AUtagPOINT@@H@Z 1002bcc0 f   Draw_D32:Draw_D32.dll
 0001:0002acc6       ?GetObjectInfo@CDrLabel@@UAEXPAVCDrObject@@@Z 1002bcc6 f   Draw_D32:Draw_D32.dll
 0001:0002accc       ?SetObjectInfo@CDrLabel@@UAEXPAVCDrObject@@@Z 1002bccc f   Draw_D32:Draw_D32.dll
 0001:0002acd2       ?Pack_drPipe@CDrLabel@@UAEXPAVCString@@@Z 1002bcd2 f   Draw_D32:Draw_D32.dll
 0001:0002acd8       ?IsKeyMatch@CDrLabel@@UAEHPAVCDrObject@@VCString@@I@Z 1002bcd8 f   Draw_D32:Draw_D32.dll
 0001:0002acde       ?IsObjectHit@CDrLabel@@UAEHPAVCClientDC@@HUtagPOINT@@PAVCRect@@H@Z 1002bcde f   Draw_D32:Draw_D32.dll
 0001:0002ace4       ?GetRawCoords@CDrLabel@@UAEXPAJPAHH@Z 1002bce4 f   Draw_D32:Draw_D32.dll
 0001:0002acea       ?FinishObject@CDrLabel@@UAEXPAVCClientDC@@H@Z 1002bcea f   Draw_D32:Draw_D32.dll
 0001:0002acf0       ?DealObjectDialog@CDrLabel@@UAEHXZ 1002bcf0 f   Draw_D32:Draw_D32.dll
 0001:0002acf6       ?DoDrawView@CDrLabel@@UAEXPAVCDC@@HH@Z 1002bcf6 f   Draw_D32:Draw_D32.dll
 0001:0002acfc       ?Corner_3Dto2D@CDrLabel@@UAEXXZ 1002bcfc f   Draw_D32:Draw_D32.dll
 0001:0002ad02       ?InitDraw@CDrLabel@@UAEXPAVCDC@@HHPAUMATRIX@@1NNN@Z 1002bd02 f   Draw_D32:Draw_D32.dll
 0001:0002ad08       ?DoDataView@CDrLabel@@UAEXPAVCDC@@H@Z 1002bd08 f   Draw_D32:Draw_D32.dll
 0001:0002ad0e       ?Serialize@CDrLabel@@UAEXAAVCArchive@@@Z 1002bd0e f   Draw_D32:Draw_D32.dll
 0001:0002ad14       ?GetRuntimeClass@CDrLabel@@UBEPAUCRuntimeClass@@XZ 1002bd14 f   Draw_D32:Draw_D32.dll
 0001:0002ad1a       ?Init@CElemInfo@@UAEXXZ    1002bd1a f   Elem_D32:Elem_D32.dll
 0001:0002ad20       ?ReadDefault@CElemInfo@@UAEXXZ 1002bd20 f   Elem_D32:Elem_D32.dll
 0001:0002ad26       ?SetObjectInfo@CElemInfo@@UAEXPAVCDrObject@@@Z 1002bd26 f   Elem_D32:Elem_D32.dll
 0001:0002ad2c       ?GetObjectInfo@CElemInfo@@UAEXPAVCDrObject@@@Z 1002bd2c f   Elem_D32:Elem_D32.dll
 0001:0002ad32       ?Pack_drPipe@CElemInfo@@UAEXPAVCString@@@Z 1002bd32 f   Elem_D32:Elem_D32.dll
 0001:0002ad38       ?DoDataView@CElemInfo@@UAEXPAVCDC@@H@Z 1002bd38 f   Elem_D32:Elem_D32.dll
 0001:0002ad3e       ?Serialize@CElemInfo@@UAEXAAVCArchive@@@Z 1002bd3e f   Elem_D32:Elem_D32.dll
 0001:0002ad44       ?GetRuntimeClass@CElemInfo@@UBEPAUCRuntimeClass@@XZ 1002bd44 f   Elem_D32:Elem_D32.dll
 0001:0002ad4a       ?GetRuntimeClass@CTriangle@@UBEPAUCRuntimeClass@@XZ 1002bd4a f   OGen_D32:OGEN_D32.dll
 0001:0002ad50       ?Serialize@C3DMath@@UAEXAAVCArchive@@@Z 1002bd50 f   Dr3D_D32:Dr3D_D32.dll
 0001:0002ad56       ?GetRuntimeClass@C3DMath@@UBEPAUCRuntimeClass@@XZ 1002bd56 f   Dr3D_D32:Dr3D_D32.dll
 0001:0002ad5c       ?BlockCopy@C3DMath@@QAEXPAD0K@Z 1002bd5c f   Dr3D_D32:Dr3D_D32.dll
 0001:0002ad62       ??0C3DMath@@QAE@XZ         1002bd62 f   Dr3D_D32:Dr3D_D32.dll
 0001:0002ad68       ?Normalize@C3DMath@@QAEXPAUWORLD@@0@Z 1002bd68 f   Dr3D_D32:Dr3D_D32.dll
 0001:0002ad6e       ?Sub3DPts@C3DMath@@QAEXPAUWORLD@@00@Z 1002bd6e f   Dr3D_D32:Dr3D_D32.dll
 0001:0002ad74       ?Project@CXForm@@UAEXPAUMATRIX@@PAUWORLD@@1@Z 1002bd74 f   Dr3D_D32:Dr3D_D32.dll
 0001:0002ad7a       ?ComposeWin3DtoScreen3DMATRIX@CXForm@@UAEXPAUMATRIX@@UWORLD@@1@Z 1002bd7a f   Dr3D_D32:Dr3D_D32.dll
 0001:0002ad80       ?TransformPerToParCVV@CXForm@@UAEXNPAUWORLD@@0@Z 1002bd80 f   Dr3D_D32:Dr3D_D32.dll
 0001:0002ad86       ?Transform@CXForm@@UAEXPAUWORLD@@0PAUMATRIX@@@Z 1002bd86 f   Dr3D_D32:Dr3D_D32.dll
 0001:0002ad8c       ?ComposeCombineMATRIX@CXForm@@UAEXPAUMATRIX@@00@Z 1002bd8c f   Dr3D_D32:Dr3D_D32.dll
 0001:0002ad92       ?Per_SetVMMATRIX@CXForm@@UAENPAUMATRIX@@UWORLD@@1NNNN@Z 1002bd92 f   Dr3D_D32:Dr3D_D32.dll
 0001:0002ad98       ?Par_SetVMMATRIX@CXForm@@UAEXPAUMATRIX@@UWORLD@@1NNNN@Z 1002bd98 f   Dr3D_D32:Dr3D_D32.dll
 0001:0002ad9e       ?SetVOMATRIX@CXForm@@UAEXPAUMATRIX@@UWORLD@@11@Z 1002bd9e f   Dr3D_D32:Dr3D_D32.dll
 0001:0002ada4       ?ALT_ComposeViewMATRIX@CXForm@@UAEHPAUMATRIX@@UWORLD@@1111NNNN@Z 1002bda4 f   Dr3D_D32:Dr3D_D32.dll
 0001:0002adaa       ?PerToParCVVMATRIX@CXForm@@UAEXPAUMATRIX@@N@Z 1002bdaa f   Dr3D_D32:Dr3D_D32.dll
 0001:0002adb0       ?ComposeViewMATRIX@CXForm@@UAENPAUMATRIX@@UWORLD@@1111NNNN@Z 1002bdb0 f   Dr3D_D32:Dr3D_D32.dll
 0001:0002adb6       ?ComposeLocalMATRIX@CXForm@@UAEXPAUMATRIX@@NNNNNNNNNNNN@Z 1002bdb6 f   Dr3D_D32:Dr3D_D32.dll
 0001:0002adbc       ?VRCtoWORLDRotationMATRIX@CXForm@@UAEXPAUMATRIX@@PAUWORLD@@1@Z 1002bdbc f   Dr3D_D32:Dr3D_D32.dll
 0001:0002adc2       ?RotateToNewXMATRIX@CXForm@@UAEXPAUWORLD@@PAUMATRIX@@W4XFMODE@@@Z 1002bdc2 f   Dr3D_D32:Dr3D_D32.dll
 0001:0002adc8       ?HeadToNewXLocMATRIX@CXForm@@UAEXPAUWORLD@@0PAUMATRIX@@W4XFMODE@@@Z 1002bdc8 f   Dr3D_D32:Dr3D_D32.dll
 0001:0002adce       ?RotateToNewYMATRIX@CXForm@@UAEXPAUWORLD@@PAUMATRIX@@W4XFMODE@@@Z 1002bdce f   Dr3D_D32:Dr3D_D32.dll
 0001:0002add4       ?HeadToNewYLocMATRIX@CXForm@@UAEXPAUWORLD@@0PAUMATRIX@@W4XFMODE@@@Z 1002bdd4 f   Dr3D_D32:Dr3D_D32.dll
 0001:0002adda       ?RotateToNewZMATRIX@CXForm@@UAEXPAUWORLD@@PAUMATRIX@@W4XFMODE@@@Z 1002bdda f   Dr3D_D32:Dr3D_D32.dll
 0001:0002ade0       ?HeadToNewZLocMATRIX@CXForm@@UAEXPAUWORLD@@0PAUMATRIX@@W4XFMODE@@@Z 1002bde0 f   Dr3D_D32:Dr3D_D32.dll
 0001:0002ade6       ?RotateAboutLineMATRIX@CXForm@@UAEXPAUMATRIX@@PAUWORLD@@1NW4XFMODE@@@Z 1002bde6 f   Dr3D_D32:Dr3D_D32.dll
 0001:0002adec       ?Translate@CXForm@@UAEXPAUMATRIX@@NNNW4XFMODE@@@Z 1002bdec f   Dr3D_D32:Dr3D_D32.dll
 0001:0002adf2       ?Rotate_Z@CXForm@@UAEXPAUMATRIX@@NW4XFMODE@@@Z 1002bdf2 f   Dr3D_D32:Dr3D_D32.dll
 0001:0002adf8       ?Rotate_Y@CXForm@@UAEXPAUMATRIX@@NW4XFMODE@@@Z 1002bdf8 f   Dr3D_D32:Dr3D_D32.dll
 0001:0002adfe       ?Rotate_X@CXForm@@UAEXPAUMATRIX@@NW4XFMODE@@@Z 1002bdfe f   Dr3D_D32:Dr3D_D32.dll
 0001:0002ae04       ?Shear_Z@CXForm@@UAEXPAUMATRIX@@NNW4XFMODE@@@Z 1002be04 f   Dr3D_D32:Dr3D_D32.dll
 0001:0002ae0a       ?Shear_Y@CXForm@@UAEXPAUMATRIX@@NNW4XFMODE@@@Z 1002be0a f   Dr3D_D32:Dr3D_D32.dll
 0001:0002ae10       ?Shear_X@CXForm@@UAEXPAUMATRIX@@NNW4XFMODE@@@Z 1002be10 f   Dr3D_D32:Dr3D_D32.dll
 0001:0002ae16       ?Scale@CXForm@@UAEXPAUMATRIX@@NNNW4XFMODE@@@Z 1002be16 f   Dr3D_D32:Dr3D_D32.dll
 0001:0002ae1c       ?Reflect@CXForm@@UAEXPAUMATRIX@@UWORLD@@N@Z 1002be1c f   Dr3D_D32:Dr3D_D32.dll
 0001:0002ae22       ?Serialize@CXForm@@UAEXAAVCArchive@@@Z 1002be22 f   Dr3D_D32:Dr3D_D32.dll
 0001:0002ae28       ?GetRuntimeClass@CXForm@@UBEPAUCRuntimeClass@@XZ 1002be28 f   Dr3D_D32:Dr3D_D32.dll
 0001:0002ae2e       ?CalcCentroid@CMI_Gang1@@QAEXPAUWORLD@@0H@Z 1002be2e f   MMs1_D32:MMs1_D32.dll
 0001:0002ae34       ?IsObjectHit@CMouse@@IAEHHUtagPOINT@@H@Z 1002be34 f   MMgr_D32:MMgr_D32.dll
 0001:0002ae3a       ?WORtoWOP@CMouse@@QAEXPAN0@Z 1002be3a f   MMgr_D32:MMgr_D32.dll
 0001:0002ae40       ?classCMouse@CMouse@@2UCRuntimeClass@@A 1002be40 f   MMgr_D32:MMgr_D32.dll
 0001:0002ae46       ??1CMouse@@UAE@XZ          1002be46 f   MMgr_D32:MMgr_D32.dll
 0001:0002ae4c       ??0CMouse@@QAE@XZ          1002be4c f   MMgr_D32:MMgr_D32.dll
 0001:0002ae52       ?WORtoWOP@CMouse@@QAEXPAUWORLD@@0@Z 1002be52 f   MMgr_D32:MMgr_D32.dll
 0001:0002ae58       ?LOGtoWIC@CMouse@@IAEXPAULPOINT3@@PAULPOINT@@@Z 1002be58 f   MMgr_D32:MMgr_D32.dll
 0001:0002ae5e       ?SetMouseWIC@CMouse@@QAEXULPOINT3@@@Z 1002be5e f   MMgr_D32:MMgr_D32.dll
 0001:0002ae64       ?SetMouseOldWIC@CMouse@@QAEXULPOINT3@@@Z 1002be64 f   MMgr_D32:MMgr_D32.dll
 0001:0002ae6a       ?WICtoLOG@CMouse@@IAEXPAULPOINT3@@PAULPOINT@@@Z 1002be6a f   MMgr_D32:MMgr_D32.dll
 0001:0002ae70       ?WICtoWOP@CMouse@@QAEXJPAN@Z 1002be70 f   MMgr_D32:MMgr_D32.dll
 0001:0002ae76       ?SetStatusMouseWIC@CMouseMgr@@QAEXULPOINT3@@@Z 1002be76 f   MMgr_D32:MMgr_D32.dll
 0001:0002ae7c       ?Serialize@CMouse@@UAEXAAVCArchive@@@Z 1002be7c f   MMgr_D32:MMgr_D32.dll
 0001:0002ae82       ??1CNodCreOM@@UAE@XZ       1002be82 f   CreM_D32:CreM_D32.dll
 0001:0002ae88       ?ShowNodeToSpawn@CNodCreOM@@QAEHPAVCDrFE0D@@H@Z 1002be88 f   CreM_D32:CreM_D32.dll
 0001:0002ae8e       ??0CNodCreOM@@QAE@XZ       1002be8e f   CreM_D32:CreM_D32.dll
 0001:0002ae94       ?SetUpLocalM_XLATE@CNodCreOM@@QAEXXZ 1002be94 f   CreM_D32:CreM_D32.dll
 0001:0002ae9a       ??1CDialog@@UAE@XZ         1002be9a f   mfc42d:MFC42D.DLL
 0001:0002aea0       ??1CString@@QAE@XZ         1002bea0 f   mfc42d:MFC42D.DLL
 0001:0002aea6       ?Dump@CObject@@UBEXAAVCDumpContext@@@Z 1002bea6 f   mfc42d:MFC42D.DLL
 0001:0002aeac       ?AssertValid@CObject@@UBEXXZ 1002beac f   mfc42d:MFC42D.DLL
 0001:0002aeb2       ??1CObject@@UAE@XZ         1002beb2 f   mfc42d:MFC42D.DLL
 0001:0002aeb8       ??3CObject@@SGXPAX@Z       1002beb8 f   mfc42d:MFC42D.DLL
 0001:0002aebe       ??3@YAXPAX@Z               1002bebe f   mfc42d:MFC42D.DLL
 0001:0002aec4       ??0CString@@QAE@ABV0@@Z    1002bec4 f   mfc42d:MFC42D.DLL
 0001:0002aeca       ??4CString@@QAEABV0@ABV0@@Z 1002beca f   mfc42d:MFC42D.DLL
 0001:0002aed0       ?Serialize@CObject@@UAEXAAVCArchive@@@Z 1002bed0 f   mfc42d:MFC42D.DLL
 0001:0002aed6       ??2@YAPAXI@Z               1002bed6 f   mfc42d:MFC42D.DLL
 0001:0002aedc       ??1CPen@@UAE@XZ            1002bedc f   mfc42d:MFC42D.DLL
 0001:0002aee2       ??3CObject@@SGXPAXPBDH@Z   1002bee2 f   mfc42d:MFC42D.DLL
 0001:0002aee8       ??2CObject@@SGPAXIPBDH@Z   1002bee8 f   mfc42d:MFC42D.DLL
 0001:0002aeee       ?AfxClassInit@@YGXPAUCRuntimeClass@@@Z 1002beee f   mfc42d:MFC42D.DLL
 0001:0002aef4       ?ReadObject@CArchive@@QAEPAVCObject@@PBUCRuntimeClass@@@Z 1002bef4 f   mfc42d:MFC42D.DLL
 0001:0002aefa       ?AfxGetApp@@YGPAVCWinApp@@XZ 1002befa f   mfc42d:MFC42D.DLL
 0001:0002af00       ??3@YAXPAXPBDH@Z           1002bf00 f   mfc42d:MFC42D.DLL
 0001:0002af06       ?AfxMessageBox@@YGHPBDII@Z 1002bf06 f   mfc42d:MFC42D.DLL
 0001:0002af0c       ??BCString@@QBEPBDXZ       1002bf0c f   mfc42d:MFC42D.DLL
 0001:0002af12       ?GetBuffer@CString@@QAEPADH@Z 1002bf12 f   mfc42d:MFC42D.DLL
 0001:0002af18       ??0CString@@QAE@XZ         1002bf18 f   mfc42d:MFC42D.DLL
 0001:0002af1e       ??2@YAPAXIPBDH@Z           1002bf1e f   mfc42d:MFC42D.DLL
 0001:0002af24       ?GetCount@CObList@@QBEHXZ  1002bf24 f   mfc42d:MFC42D.DLL
 0001:0002af2a       ?DPtoLP@CDC@@QBEXPAUtagPOINT@@H@Z 1002bf2a f   mfc42d:MFC42D.DLL
 0001:0002af30       ?AfxGetMainWnd@@YGPAVCWnd@@XZ 1002bf30 f   mfc42d:MFC42D.DLL
 0001:0002af36       ??0CPoint@@QAE@UtagPOINT@@@Z 1002bf36 f   mfc42d:MFC42D.DLL
 0001:0002af3c       ?LPtoDP@CDC@@QBEXPAUtagPOINT@@H@Z 1002bf3c f   mfc42d:MFC42D.DLL
 0001:0002af42       ??YCString@@QAEABV0@PBD@Z  1002bf42 f   mfc42d:MFC42D.DLL
 0001:0002af48       ??4CString@@QAEABV0@PBD@Z  1002bf48 f   mfc42d:MFC42D.DLL
 0001:0002af4e       ?AfxTrace@@YAXPBDZZ        1002bf4e f   mfc42d:MFC42D.DLL
 0001:0002af54       ?IsStoring@CArchive@@QBEHXZ 1002bf54 f   mfc42d:MFC42D.DLL
 0001:0002af5a       ?GetRuntimeClass@CObject@@UBEPAUCRuntimeClass@@XZ 1002bf5a f   mfc42d:MFC42D.DLL
 0001:0002af60       ?AfxAssertFailedLine@@YGHPBDH@Z 1002bf60 f   mfc42d:MFC42D.DLL
 0001:0002af66       ?ReadCount@CArchive@@QAEKXZ 1002bf66 f   mfc42d:MFC42D.DLL
 0001:0002af6c       ?AfxIsValidAddress@@YGHPBXIH@Z 1002bf6c f   mfc42d:MFC42D.DLL
 0001:0002af72       ?WriteCount@CArchive@@QAEXK@Z 1002bf72 f   mfc42d:MFC42D.DLL
 0001:0002af78       ?AfxAssertValidObject@@YGXPBVCObject@@PBDH@Z 1002bf78 f   mfc42d:MFC42D.DLL
 0001:0002af7e       ?GetDepth@CDumpContext@@QBEHXZ 1002bf7e f   mfc42d:MFC42D.DLL
 0001:0002af84       ??6CDumpContext@@QAEAAV0@H@Z 1002bf84 f   mfc42d:MFC42D.DLL
 0001:0002af8a       ??6CDumpContext@@QAEAAV0@PBD@Z 1002bf8a f   mfc42d:MFC42D.DLL
 0001:0002af90       ?FreeDataChain@CPlex@@QAEXXZ 1002bf90 f   mfc42d:MFC42D.DLL
 0001:0002af96       ?Read@CArchive@@QAEIPAXI@Z 1002bf96 f   mfc42d:MFC42D.DLL
 0001:0002af9c       ?Write@CArchive@@QAEXPBXI@Z 1002bf9c f   mfc42d:MFC42D.DLL
 0001:0002afa2       ?Create@CPlex@@SGPAU1@AAPAU1@II@Z 1002bfa2 f   mfc42d:MFC42D.DLL
 0001:0002afa8       ??1CButton@@UAE@XZ         1002bfa8 f   mfc42d:MFC42D.DLL
 0001:0002afae       ??1CBitmap@@UAE@XZ         1002bfae f   mfc42d:MFC42D.DLL
 0001:0002afb4       ??2CObject@@SGPAXI@Z       1002bfb4 f   mfc42d:MFC42D.DLL
 0001:0002afba       ??0CObject@@IAE@XZ         1002bfba f   mfc42d:MFC42D.DLL
 0001:0002afc0       ?AfxSetResourceHandle@@YGXPAUHINSTANCE__@@@Z 1002bfc0 f   mfc42d:MFC42D.DLL
 0001:0002afc6       ?AfxGetResourceHandle@@YGPAUHINSTANCE__@@XZ 1002bfc6 f   mfc42d:MFC42D.DLL
 0001:0002afcc       ?LoadStringA@CString@@QAEHI@Z 1002bfcc f   mfc42d:MFC42D.DLL
 0001:0002afd2       ?DoModal@CDialog@@UAEHXZ   1002bfd2 f   mfc42d:MFC42D.DLL
 0001:0002afd8       ?AfxGetModuleState@@YGPAVAFX_MODULE_STATE@@XZ 1002bfd8 f   mfc42d:MFC42D.DLL
 0001:0002afde       ??0CDynLinkLibrary@@QAE@AAUAFX_EXTENSION_MODULE@@H@Z 1002bfde f   mfc42d:MFC42D.DLL
 0001:0002afe4       ?AfxInitExtensionModule@@YGHAAUAFX_EXTENSION_MODULE@@PAUHINSTANCE__@@@Z 1002bfe4 f   mfc42d:MFC42D.DLL
 0001:0002afea       ?LoadCursorA@CWinApp@@QBEPAUHICON__@@I@Z 1002bfea f   mfc42d:MFC42D.DLL
 0001:0002aff0       ?LoadStandardCursor@CWinApp@@QBEPAUHICON__@@PBD@Z 1002bff0 f   mfc42d:MFC42D.DLL
 0001:0002aff6       ?PreInitDialog@CDialog@@MAEXXZ 1002bff6 f   mfc42d:MFC42D.DLL
 0001:0002affc       ?OnSetFont@CDialog@@UAEXPAVCFont@@@Z 1002bffc f   mfc42d:MFC42D.DLL
 0001:0002b002       ?SetOccDialogInfo@CDialog@@MAEHPAU_AFX_OCC_DIALOG_INFO@@@Z 1002c002 f   mfc42d:MFC42D.DLL
 0001:0002b008       ?IsFrameWnd@CWnd@@UBEHXZ   1002c008 f   mfc42d:MFC42D.DLL
 0001:0002b00e       ?CheckAutoCenter@CDialog@@UAEHXZ 1002c00e f   mfc42d:MFC42D.DLL
 0001:0002b014       ?OnChildNotify@CWnd@@MAEHIIJPAJ@Z 1002c014 f   mfc42d:MFC42D.DLL
 0001:0002b01a       ?PostNcDestroy@CWnd@@MAEXXZ 1002c01a f   mfc42d:MFC42D.DLL
 0001:0002b020       ?DefWindowProcA@CWnd@@MAEJIIJ@Z 1002c020 f   mfc42d:MFC42D.DLL
 0001:0002b026       ?OnWndMsg@CWnd@@MAEHIIJPAJ@Z 1002c026 f   mfc42d:MFC42D.DLL
 0001:0002b02c       ?WindowProc@CWnd@@MAEJIIJ@Z 1002c02c f   mfc42d:MFC42D.DLL
 0001:0002b032       ?OnAmbientProperty@CWnd@@UAEHPAVCOleControlSite@@JPAUtagVARIANT@@@Z 1002c032 f   mfc42d:MFC42D.DLL
 0001:0002b038       ?PreTranslateMessage@CDialog@@UAEHPAUtagMSG@@@Z 1002c038 f   mfc42d:MFC42D.DLL
 0001:0002b03e       ?EndModalState@CWnd@@UAEXXZ 1002c03e f   mfc42d:MFC42D.DLL
 0001:0002b044       ?BeginModalState@CWnd@@UAEXXZ 1002c044 f   mfc42d:MFC42D.DLL
 0001:0002b04a       ?GetSuperWndProcAddr@CWnd@@MAEPAP6GJPAUHWND__@@IIJ@ZXZ 1002c04a f   mfc42d:MFC42D.DLL
 0001:0002b050       ?OnNotify@CWnd@@MAEHIJPAJ@Z 1002c050 f   mfc42d:MFC42D.DLL
 0001:0002b056       ?OnCommand@CWnd@@MAEHIJ@Z  1002c056 f   mfc42d:MFC42D.DLL
 0001:0002b05c       ?EndModalLoop@CWnd@@UAEXH@Z 1002c05c f   mfc42d:MFC42D.DLL
 0001:0002b062       ?ContinueModal@CWnd@@UAEHXZ 1002c062 f   mfc42d:MFC42D.DLL
 0001:0002b068       ?WinHelpA@CWnd@@UAEXKI@Z   1002c068 f   mfc42d:MFC42D.DLL
 0001:0002b06e       ?GetScrollBarCtrl@CWnd@@UBEPAVCScrollBar@@H@Z 1002c06e f   mfc42d:MFC42D.DLL
 0001:0002b074       ?OnToolHitTest@CWnd@@UBEHVCPoint@@PAUtagTOOLINFOA@@@Z 1002c074 f   mfc42d:MFC42D.DLL
 0001:0002b07a       ?CalcWindowRect@CWnd@@UAEXPAUtagRECT@@I@Z 1002c07a f   mfc42d:MFC42D.DLL
 0001:0002b080       ?PreCreateWindow@CWnd@@UAEHAAUtagCREATESTRUCTA@@@Z 1002c080 f   mfc42d:MFC42D.DLL
 0001:0002b086       ?DestroyWindow@CWnd@@UAEHXZ 1002c086 f   mfc42d:MFC42D.DLL
 0001:0002b08c       ?Create@CWnd@@UAEHPBD0KABUtagRECT@@PAV1@IPAUCCreateContext@@@Z 1002c08c f   mfc42d:MFC42D.DLL
 0001:0002b092       ?PreSubclassWindow@CWnd@@UAEXXZ 1002c092 f   mfc42d:MFC42D.DLL
 0001:0002b098       ?GetConnectionHook@CCmdTarget@@MAEPAUIConnectionPoint@@ABU_GUID@@@Z 1002c098 f   mfc42d:MFC42D.DLL
 0001:0002b09e       ?GetExtraConnectionPoints@CCmdTarget@@MAEHPAVCPtrArray@@@Z 1002c09e f   mfc42d:MFC42D.DLL
 0001:0002b0a4       ?GetInterfaceHook@CCmdTarget@@UAEPAUIUnknown@@PBX@Z 1002c0a4 f   mfc42d:MFC42D.DLL
 0001:0002b0aa       ?OnCreateAggregates@CCmdTarget@@UAEHXZ 1002c0aa f   mfc42d:MFC42D.DLL
 0001:0002b0b0       ?GetEventSinkMap@CCmdTarget@@MBEPBUAFX_EVENTSINKMAP@@XZ 1002c0b0 f   mfc42d:MFC42D.DLL
 0001:0002b0b6       ?GetInterfaceMap@CCmdTarget@@MBEPBUAFX_INTERFACEMAP@@XZ 1002c0b6 f   mfc42d:MFC42D.DLL
 0001:0002b0bc       ?GetConnectionMap@CCmdTarget@@MBEPBUAFX_CONNECTIONMAP@@XZ 1002c0bc f   mfc42d:MFC42D.DLL
 0001:0002b0c2       ?GetDispatchMap@CCmdTarget@@MBEPBUAFX_DISPMAP@@XZ 1002c0c2 f   mfc42d:MFC42D.DLL
 0001:0002b0c8       ?GetCommandMap@CCmdTarget@@MBEPBUAFX_OLECMDMAP@@XZ 1002c0c8 f   mfc42d:MFC42D.DLL
 0001:0002b0ce       ?GetTypeLib@CCmdTarget@@UAEJKPAPAUITypeLib@@@Z 1002c0ce f   mfc42d:MFC42D.DLL
 0001:0002b0d4       ?GetTypeLibCache@CCmdTarget@@UAEPAVCTypeLibCache@@XZ 1002c0d4 f   mfc42d:MFC42D.DLL
 0001:0002b0da       ?GetTypeInfoCount@CCmdTarget@@UAEIXZ 1002c0da f   mfc42d:MFC42D.DLL
 0001:0002b0e0       ?GetDispatchIID@CCmdTarget@@UAEHPAU_GUID@@@Z 1002c0e0 f   mfc42d:MFC42D.DLL
 0001:0002b0e6       ?IsInvokeAllowed@CCmdTarget@@UAEHJ@Z 1002c0e6 f   mfc42d:MFC42D.DLL
 0001:0002b0ec       ?OnFinalRelease@CWnd@@UAEXXZ 1002c0ec f   mfc42d:MFC42D.DLL
 0001:0002b0f2       ?OnCmdMsg@CDialog@@UAEHIHPAXPAUAFX_CMDHANDLERINFO@@@Z 1002c0f2 f   mfc42d:MFC42D.DLL
 0001:0002b0f8       ?Dump@CDialog@@UBEXAAVCDumpContext@@@Z 1002c0f8 f   mfc42d:MFC42D.DLL
 0001:0002b0fe       ?AssertValid@CDialog@@UBEXXZ 1002c0fe f   mfc42d:MFC42D.DLL
 0001:0002b104       ?GetRuntimeClass@CDialog@@UBEPAUCRuntimeClass@@XZ 1002c104 f   mfc42d:MFC42D.DLL
 0001:0002b10a       ?LoadBitmaps@CBitmapButton@@QAEHPBD000@Z 1002c10a f   mfc42d:MFC42D.DLL
 0001:0002b110       ??0CBitmapButton@@QAE@XZ   1002c110 f   mfc42d:MFC42D.DLL
 0001:0002b116       ??0CDialog@@QAE@IPAVCWnd@@@Z 1002c116 f   mfc42d:MFC42D.DLL
 0001:0002b11c       ?DDX_Text@@YGXPAVCDataExchange@@HAAN@Z 1002c11c f   mfc42d:MFC42D.DLL
 0001:0002b122       ?DDX_CBString@@YGXPAVCDataExchange@@HAAVCString@@@Z 1002c122 f   mfc42d:MFC42D.DLL
 0001:0002b128       ?DDX_Text@@YGXPAVCDataExchange@@HAAVCString@@@Z 1002c128 f   mfc42d:MFC42D.DLL
 0001:0002b12e       ?DoDataExchange@CWnd@@MAEXPAVCDataExchange@@@Z 1002c12e f   mfc42d:MFC42D.DLL
 0001:0002b134       ?UpdateData@CWnd@@QAEHH@Z  1002c134 f   mfc42d:MFC42D.DLL
 0001:0002b13a       ?SetWindowTextA@CWnd@@QAEXPBD@Z 1002c13a f   mfc42d:MFC42D.DLL
 0001:0002b140       ?SetCheck@CButton@@QAEXH@Z 1002c140 f   mfc42d:MFC42D.DLL
 0001:0002b146       ?GetDlgItem@CWnd@@QBEPAV1@H@Z 1002c146 f   mfc42d:MFC42D.DLL
 0001:0002b14c       ?SizeToContent@CBitmapButton@@QAEXXZ 1002c14c f   mfc42d:MFC42D.DLL
 0001:0002b152       ?SubclassDlgItem@CWnd@@QAEHIPAV1@@Z 1002c152 f   mfc42d:MFC42D.DLL
 0001:0002b158       ?OnInitDialog@CDialog@@UAEHXZ 1002c158 f   mfc42d:MFC42D.DLL
 0001:0002b15e       ?SetCurSel@CComboBox@@QAEHH@Z 1002c15e f   mfc42d:MFC42D.DLL
 0001:0002b164       ?EnableWindow@CWnd@@QAEHH@Z 1002c164 f   mfc42d:MFC42D.DLL
 0001:0002b16a       ?SetCurSel@CListBox@@QAEHH@Z 1002c16a f   mfc42d:MFC42D.DLL
 0001:0002b170       ?FindStringExact@CListBox@@QBEHHPBD@Z 1002c170 f   mfc42d:MFC42D.DLL
 0001:0002b176       ?OnCancel@CDialog@@MAEXXZ  1002c176 f   mfc42d:MFC42D.DLL
 0001:0002b17c       ??8@YG_NABVCString@@PBD@Z  1002c17c f   mfc42d:MFC42D.DLL
 0001:0002b182       ?Left@CString@@QBE?AV1@H@Z 1002c182 f   mfc42d:MFC42D.DLL
 0001:0002b188       ?GetLength@CString@@QBEHXZ 1002c188 f   mfc42d:MFC42D.DLL
 0001:0002b18e       ?TrimLeft@CString@@QAEXXZ  1002c18e f   mfc42d:MFC42D.DLL
 0001:0002b194       ?SetFocus@CWnd@@QAEPAV1@XZ 1002c194 f   mfc42d:MFC42D.DLL
 0001:0002b19a       ??8@YG_NABVCString@@0@Z    1002c19a f   mfc42d:MFC42D.DLL
 0001:0002b1a0       ?OnOK@CDialog@@MAEXXZ      1002c1a0 f   mfc42d:MFC42D.DLL
 0001:0002b1a6       ?GetText@CListBox@@QBEXHAAVCString@@@Z 1002c1a6 f   mfc42d:MFC42D.DLL
 0001:0002b1ac       ?GetCurSel@CListBox@@QBEHXZ 1002c1ac f   mfc42d:MFC42D.DLL
 0001:0002b1b2       ?FindStringExact@CComboBox@@QBEHHPBD@Z 1002c1b2 f   mfc42d:MFC42D.DLL
 0001:0002b1b8       ?AddString@CListBox@@QAEHPBD@Z 1002c1b8 f   mfc42d:MFC42D.DLL
 0001:0002b1be       ?AddString@CComboBox@@QAEHPBD@Z 1002c1be f   mfc42d:MFC42D.DLL
 0001:0002b1c4       ?ResetContent@CComboBox@@QAEXXZ 1002c1c4 f   mfc42d:MFC42D.DLL
 0001:0002b1ca       ?DeleteString@CListBox@@QAEHI@Z 1002c1ca f   mfc42d:MFC42D.DLL
 0001:0002b1d0       ?GetCount@CListBox@@QBEHXZ 1002c1d0 f   mfc42d:MFC42D.DLL
 0001:0002b1d6       ?AddTail@CObList@@QAEPAU__POSITION@@PAVCObject@@@Z 1002c1d6 f   mfc42d:MFC42D.DLL
 0001:0002b1dc       ?OnHelpInfo@CWnd@@IAEHPAUtagHELPINFO@@@Z 1002c1dc f   mfc42d:MFC42D.DLL
 0001:0002b1e2       ??9@YG_NABVCString@@0@Z    1002c1e2 f   mfc42d:MFC42D.DLL
 0001:0002b1e8       ?UpdateAllViews@CDocument@@QAEXPAVCView@@JPAVCObject@@@Z 1002c1e8 f   mfc42d:MFC42D.DLL
 0001:0002b1ee       ??H@YG?AVCString@@ABV0@PBD@Z 1002c1ee f   mfc42d:MFC42D.DLL
 0001:0002b1f4       ??H@YG?AVCString@@PBDABV0@@Z 1002c1f4 f   mfc42d:MFC42D.DLL
 0001:0002b1fa       ?UpdateWindow@CWnd@@QAEXXZ 1002c1fa f   mfc42d:MFC42D.DLL
 0001:0002b200       ?Invalidate@CWnd@@QAEXH@Z  1002c200 f   mfc42d:MFC42D.DLL
 0001:0002b206       ?ClientToScreen@CWnd@@QBEXPAUtagPOINT@@@Z 1002c206 f   mfc42d:MFC42D.DLL
 0001:0002b20c       ?SetCapture@CWnd@@QAEPAV1@XZ 1002c20c f   mfc42d:MFC42D.DLL
 0001:0002b212       ?DeleteObject@CGdiObject@@QAEHXZ 1002c212 f   mfc42d:MFC42D.DLL
 0001:0002b218       ?LineTo@CDC@@QAEHUtagPOINT@@@Z 1002c218 f   mfc42d:MFC42D.DLL
 0001:0002b21e       ?MoveTo@CDC@@QAE?AVCPoint@@UtagPOINT@@@Z 1002c21e f   mfc42d:MFC42D.DLL
 0001:0002b224       ?SetROP2@CDC@@QAEHH@Z      1002c224 f   mfc42d:MFC42D.DLL
 0001:0002b22a       ?SelectObject@CDC@@QAEPAVCPen@@PAV2@@Z 1002c22a f   mfc42d:MFC42D.DLL
 0001:0002b230       ?CreatePen@CPen@@QAEHHHK@Z 1002c230 f   mfc42d:MFC42D.DLL
 0001:0002b236       ?SetBkMode@CDC@@QAEHH@Z    1002c236 f   mfc42d:MFC42D.DLL
 0001:0002b23c       ??0CPen@@QAE@XZ            1002c23c f   mfc42d:MFC42D.DLL
 0001:0002b242       ??5CArchive@@QAEAAV0@AAG@Z 1002c242 f   mfc42d:MFC42D.DLL
 0001:0002b248       ??5CArchive@@QAEAAV0@AAE@Z 1002c248 f   mfc42d:MFC42D.DLL
 0001:0002b24e       ??6CArchive@@QAEAAV0@G@Z   1002c24e f   mfc42d:MFC42D.DLL
 0001:0002b254       ??6CArchive@@QAEAAV0@E@Z   1002c254 f   mfc42d:MFC42D.DLL
 0001:0002b25a       ?GetAt@CObList@@QAEAAPAVCObject@@PAU__POSITION@@@Z 1002c25a f   mfc42d:MFC42D.DLL
 0001:0002b260       ?FindIndex@CObList@@QBEPAU__POSITION@@H@Z 1002c260 f   mfc42d:MFC42D.DLL
 0001:0002b270       ___CxxFrameHandler         1002c270 f   msvcrtd:MSVCRTD.dll
 0001:0002b276       _sqrt                      1002c276 f   msvcrtd:MSVCRTD.dll
 0001:0002b280       ??0type_info@@AAE@ABV0@@Z  1002c280 f   msvcrtd:ti_inst.obj
 0001:0002b2a0       ??_Gtype_info@@UAEPAXI@Z   1002c2a0 f i msvcrtd:ti_inst.obj
 0001:0002b2a0       ??_Etype_info@@UAEPAXI@Z   1002c2a0 f i msvcrtd:ti_inst.obj
 0001:0002b2d0       ??4type_info@@AAEAAV0@ABV0@@Z 1002c2d0 f   msvcrtd:ti_inst.obj
 0001:0002b2e0       ??_M@YGXPAXIHP6EX0@Z@Z     1002c2e0 f   msvcrtd:ehvecdtr.obj
 0001:0002b390       ?__ArrayUnwind@@YGXPAXIHP6EX0@Z@Z 1002c390 f   msvcrtd:ehvecdtr.obj
 0001:0002b43c       _sprintf                   1002c43c f   msvcrtd:MSVCRTD.dll
 0001:0002b442       _memset                    1002c442 f   msvcrtd:MSVCRTD.dll
 0001:0002b448       _atof                      1002c448 f   msvcrtd:MSVCRTD.dll
 0001:0002b44e       __ftol                     1002c44e f   msvcrtd:MSVCRTD.dll
 0001:0002b460       __CRT_INIT@12              1002c460 f   msvcrtd:crtdll.obj
 0001:0002b570       __DllMainCRTStartup@12     1002c570 f   msvcrtd:crtdll.obj
 0001:0002b664       ??1type_info@@UAE@XZ       1002c664 f   msvcrtd:MSVCRTD.dll
 0001:0002b66a       __except_handler3          1002c66a f   msvcrtd:MSVCRTD.dll
 0001:0002b670       ?terminate@@YAXXZ          1002c670 f   msvcrtd:MSVCRTD.dll
 0001:0002b676       __free_dbg                 1002c676 f   msvcrtd:MSVCRTD.dll
 0001:0002b67c       __initterm                 1002c67c f   msvcrtd:MSVCRTD.dll
 0001:0002b690       __onexit                   1002c690 f   msvcrtd:atonexit.obj
 0001:0002b6d0       _atexit                    1002c6d0 f   msvcrtd:atonexit.obj
 0001:0002b6e8       __malloc_dbg               1002c6e8 f   msvcrtd:MSVCRTD.dll
 0001:0002b6ee       ___dllonexit               1002c6ee f   msvcrtd:MSVCRTD.dll
 0001:0002b6f4       _DestroyCursor@4           1002c6f4 f   user32:USER32.dll
 0001:0002b6fa       _SetCursor@4               1002c6fa f   user32:USER32.dll
 0001:0002b700       _MessageBeep@4             1002c700 f   user32:USER32.dll
 0001:0002b706       _ReleaseCapture@0          1002c706 f   user32:USER32.dll
 0001:0002b70c       _SetCursorPos@8            1002c70c f   user32:USER32.dll
 0001:0002c220       ?data@CPlex@@QAEPAXXZ      1002d220 f i CurMdit.obj
 0001:0002fa30       __enc$textbss$begin        10030a30     <linker-defined>
 0001:00091b30       __enc$textbss$end          10092b30     <linker-defined>
 0002:0000001c       ??_C@_08GGOB@CCurMdit?$AA@ 1009301c     CurMdit.obj
 0002:0000002c       ??_7C3DMath@@6B@           1009302c     CurMdit.obj
 0002:00000048       ??_7CMatObj@@6B@           10093048     CurMdit.obj
 0002:00000154       ??_7CDrLabel@@6B@          10093154     CurMdit.obj
 0002:00000344       ??_7CTriangle@@6B@         10093344     CurMdit.obj
 0002:000003e0       ??_7CBooleans@@6B@         100933e0     CurMdit.obj
 0002:00000698       ??_7CDataWindow@@6B@       10093698     CurMdit.obj
 0002:00000858       ??_7CDrFont@@6B@           10093858     CurMdit.obj
 0002:00000a18       ??_7CDrPen@@6B@            10093a18     CurMdit.obj
 0002:00000c4c       ??_7CHitNet@@6B@           10093c4c     CurMdit.obj
 0002:00000de4       ??_7CLayer@@6B@            10093de4     CurMdit.obj
 0002:00000fc8       ??_7CPatchMnu@@6B@         10093fc8     CurMdit.obj
 0002:000011cc       ??_7CObj3DMnu@@6B@         100941cc     CurMdit.obj
 0002:000013d0       ??_7CMapFactor@@6B@        100943d0     CurMdit.obj
 0002:00001584       ??_7CPrecision@@6B@        10094584     CurMdit.obj
 0002:00001760       ??_7CScaleFactor@@6B@      10094760     CurMdit.obj
 0002:00001920       ??_7CUnit@@6B@             10094920     CurMdit.obj
 0002:00001aec       ??_7CElemInfo@@6B@         10094aec     CurMdit.obj
 0002:00001c94       ??_7CCurMdit@@6B@          10094c94     CurMdit.obj
 0002:00001cac       ??_C@_0BG@HNLH@making?5up?5the?5Curve?5?6?$AA@ 10094cac     CurMdit.obj
 0002:00001cc8       ??_C@_0CH@GOBH@modifying?5a?5Curve?5by?5editng?5the?5@ 10094cc8     CurMdit.obj
 0002:00001cf8       ??_C@_0CB@MNHD@However?0?5you?5have?5the?5option?5of?6@ 10094cf8     CurMdit.obj
 0002:00001d20       ??_C@_0CE@INAF@You?5may?5delete?5and?5rebuild?5a?5Cur@ 10094d20     CurMdit.obj
 0002:00001d4c       ??_C@_0CF@DFCB@?6?6Curves?5can?5not?5be?5edited?5direc@ 10094d4c     CurMdit.obj
 0002:00001d78       ??_C@_0BI@BEMN@?$CK?$CK?$CK?$CK?$CK?5Please?5Note?5?$CK?$CK?$CK?$CK?6?$AA@ 10094d78     CurMdit.obj
 0002:00001d94       ??_C@_0DF@MPJL@ERROR?3?6CCurMdit?3?3LeftUp_Node?6Sho@ 10094d94     CurMdit.obj
 0002:00001dd4       ??_C@_0BC@BFID@Click?5on?5a?5Mesh1D?$AA@ 10094dd4     CurMdit.obj
 0002:00001dec       ??_C@_06PCEM@MESH1D?$AA@   10094dec     CurMdit.obj
 0002:00001df4       ??_C@_07BEMM@ELEMENT?$AA@  10094df4     CurMdit.obj
 0002:00001e00       ??_C@_04IGNI@EDIT?$AA@     10094e00     CurMdit.obj
 0002:00001e08       ??_C@_0BM@NIPA@Ready?5for?5Editing?5a?5Mesh1D?$EA?$AA@ 10094e08     CurMdit.obj
 0002:00001e2c       ??_C@_0BG@KJDN@?5CurMdit?3?5?5?5?5Loading?6?$AA@ 10094e2c     CurMdit.obj
 0002:00001e48       ??_C@_0BG@GOGL@?5CurMdit?3?5?5?5?5Storing?6?$AA@ 10094e48     CurMdit.obj
 0002:00001e68       ??_7?$CList@HH@@6B@        10094e68     CurMdit.obj
 0002:00001e80       ??_C@_01BJG@?6?$AA@        10094e80     CurMdit.obj
 0002:00001e84       ??_C@_05KIFI@with?5?$AA@   10094e84     CurMdit.obj
 0002:00001e8c       ??_C@_09LOPF@?5elements?$AA@ 10094e8c     CurMdit.obj
 0002:00001e98       ??_C@_09GBMC@CMditDlgM?$AA@ 10094e98     MditDlgM.obj
 0002:00001ea8       ??_7CMditDlgM@@6B@         10094ea8     MditDlgM.obj
 0002:00001ec0       ??_C@_0BG@LFDF@resource?5string?5?$DN?5?$CFs?6?$AA@ 10094ec0     MditDlgM.obj
 0002:00001edc       ??_C@_0BE@HNIK@?5EditDlgM?7?3Loading?6?$AA@ 10094edc     MditDlgM.obj
 0002:00001ef4       ??_C@_0BE@LKNM@?5EditDlgM?7?3Storing?6?$AA@ 10094ef4     MditDlgM.obj
 0002:00001f0c       ??_C@_0BH@NHPO@Mdit?4DLL?5Terminating?$CB?6?$AA@ 10094f0c     MditDll.obj
 0002:00001f28       ??_C@_02DILL@?$CFs?$AA@    10094f28     MditDll.obj
 0002:00001f2c       ??_C@_0BI@ENEM@Mdit?4DLL?5Initializing?$CB?6?$AA@ 10094f2c     MditDll.obj
 0002:00001f48       ??_C@_08JEIN@CMditMgr?$AA@ 10094f48     MditMgr.obj
 0002:00001f58       ??_7CMditMgr@@6B@          10094f58     MditMgr.obj
 0002:00001f70       ??_C@_0BD@PLEO@?5MditMgr?7?3Loading?6?$AA@ 10094f70     MditMgr.obj
 0002:00001f88       ??_C@_0BD@DMBI@?5MditMgr?7?3Storing?6?$AA@ 10094f88     MditMgr.obj
 0002:00001fa0       ?messageMap@CMlg_ENoA@@1UAFX_MSGMAP@@B 10094fa0     Mlg_enoA.obj
 0002:00001fa8       ?_messageEntries@CMlg_ENoA@@0QBUAFX_MSGMAP_ENTRY@@B 10094fa8     Mlg_enoA.obj
 0002:000021b0       ??_C@_03IPNG@0?40?$AA@     100951b0     Mlg_enoA.obj
 0002:000021b4       ??_C@_00A@?$AA@            100951b4     Mlg_enoA.obj
 0002:000021b8       ??_C@_08OKPH@Image2Up?$AA@ 100951b8     Mlg_enoA.obj
 0002:000021c4       ??_C@_0L@KCBH@Image2Down?$AA@ 100951c4     Mlg_enoA.obj
 0002:000021d4       ??_C@_0M@DMDD@Image2Focus?$AA@ 100951d4     Mlg_enoA.obj
 0002:000021e4       ??_C@_08BMMM@Image1Up?$AA@ 100951e4     Mlg_enoA.obj
 0002:000021f0       ??_C@_0L@ECHI@Image1Down?$AA@ 100951f0     Mlg_enoA.obj
 0002:00002200       ??_C@_0M@ICND@Image1Focus?$AA@ 10095200     Mlg_enoA.obj
 0002:00002214       ??_7CMlg_ENoA@@6B@         10095214     Mlg_enoA.obj
 0002:00002318       ??_C@_0BF@MNNC@Mesh?5Node?5Properties?$AA@ 10095318     Mlg_enoA.obj
 0002:00002334       ??_C@_0BN@PHLI@Mesh?5Control?5Node?5Properties?$AA@ 10095334     Mlg_enoA.obj
 0002:00002358       ??_C@_01GJD@?9?$AA@        10095358     Mlg_enoA.obj
 0002:0000235c       ??_C@_0DA@BMPO@For?5Distinct?5Node?5Entry?6?5Length?5@ 1009535c     Mlg_enoA.obj
 0002:00002398       __real@8@00000000000000000000 10095398     Mlg_enoA.obj
 0002:000023a4       ??_C@_0CN@KECA@Error?3?6CMlg_ENoA?3?3OnSelchangeCno@ 100953a4     Mlg_enoA.obj
 0002:000023dc       ??_C@_0CO@FLHJ@Error?3?6CMlg_ENoA?3?3UnitAxisFromEn@ 100953dc     Mlg_enoA.obj
 0002:00002414       ??_C@_0CP@DDO@Internal?5ERROR?3?6CMlg_ENoA?3?3OnOK?$CI@ 10095414     Mlg_enoA.obj
 0002:0000244c       ??_C@_0CA@JIOB@No?5NodeID?$CB?$CB?6Please?5Select?5an?5ID?$AA@ 1009544c     Mlg_enoA.obj
 0002:00002478       ?messageMap@CMlg_ENod@@1UAFX_MSGMAP@@B 10095478     Mlg_ENod.obj
 0002:00002480       ?_messageEntries@CMlg_ENod@@0QBUAFX_MSGMAP_ENTRY@@B 10095480     Mlg_ENod.obj
 0002:00002550       ??_7CMlg_ENod@@6B@         10095550     Mlg_ENod.obj
 0002:00002654       ??_C@_0CP@OBOH@Internal?5ERROR?3?6CMlg_ENod?3?3OnOK?$CI@ 10095654     Mlg_ENod.obj
 0002:0000268c       ??_C@_0CO@DLLP@NodeID?5Already?5Exists?$CB?6Please?5Se@ 1009568c     Mlg_ENod.obj
 0002:000026c4       ??_C@_08JIEG@CNodMdit?$AA@ 100956c4     NodMdit.obj
 0002:000026d4       ??_7CXForm@@6B@            100956d4     NodMdit.obj
 0002:00002788       ??_7CNodMdit@@6B@          10095788     NodMdit.obj
 0002:000027a0       ??_C@_0DE@HFNH@ERROR?3?6CNodMdit?3?3LeftUp_Node?6Sho@ 100957a0     NodMdit.obj
 0002:000027e0       ??_C@_0CD@NDGH@?6CANCEL?3?7?7Cancel?5Selection?5Proce@ 100957e0     NodMdit.obj
 0002:0000280c       ??_C@_0CF@LG@?6NO?3?7?7Find?5Next?5Node?5with?5same?5T@ 1009580c     NodMdit.obj
 0002:00002838       ??_C@_0BP@HBIO@?6NO?3?7?7Cancel?5Selection?5Process?$AA@ 10095838     NodMdit.obj
 0002:00002860       ??_C@_0BK@NBIC@?6?6YES?3?7?7Edit?5This?5?$CIC?$CJNode?$AA@ 10095860     NodMdit.obj
 0002:00002880       ??_C@_0DO@GJPH@?6Current?5NodeID?5?$DN?5?$CFs?6Coordinates@ 10095880     NodMdit.obj
 0002:000028cc       ??_C@_0DP@OMJH@?6Existing?5NodeID?5?$DN?5?$CFs?6Coordinate@ 100958cc     NodMdit.obj
 0002:00002918       ??_C@_0CO@KJMC@with?5Similar?5Coordinates?5?$CIwith?5?$CF@ 10095918     NodMdit.obj
 0002:00002950       ??_C@_0BP@CELK@?$CK?$CK?$CK?$CK?$CK?5A?5Node?5Hit?5to?5Edit?5?$CK?$CK?$CK?$CK?6?$AA@ 10095950     NodMdit.obj
 0002:00002978       ??_C@_0CB@IMAB@Click?5Down?0?5Hold?5?$CG?5Move?5The?5Node@ 10095978     NodMdit.obj
 0002:000029a0       ??_C@_0BG@FCCC@Ready?5for?5Moving?5Node?$AA@ 100959a0     NodMdit.obj
 0002:000029bc       ??_C@_01KFMA@?$EA?$AA@     100959bc     NodMdit.obj
 0002:000029c0       ??_C@_0BK@MLPP@?6?6YES?3?7?7Move?5This?5?$CIC?$CJNode?$AA@ 100959c0     NodMdit.obj
 0002:000029e0       ??_C@_0BP@PCKK@?$CK?$CK?$CK?$CK?$CK?5A?5Node?5Hit?5to?5Move?5?$CK?$CK?$CK?$CK?6?$AA@ 100959e0     NodMdit.obj
 0002:00002a08       ??_C@_0BA@PLOK@Click?5On?5a?5Node?$AA@ 10095a08     NodMdit.obj
 0002:00002a1c       ??_C@_0BP@EGJP@Ready?5for?5Moving?5Another?5Node?$EA?$AA@ 10095a1c     NodMdit.obj
 0002:00002a44       ??_C@_0DB@NPA@ERROR?3CNodMdit?3?3SetThirdCoordFro@ 10095a44     NodMdit.obj
 0002:00002a80       ??_C@_0BF@BNCI@Drag?5a?5Control?5Node?$EA?$AA@ 10095a80     NodMdit.obj
 0002:00002a9c       ??_C@_0BE@HIMJ@Drag?5a?5Vertex?5Node?$EA?$AA@ 10095a9c     NodMdit.obj
 0002:00002ab4       ??_C@_0BC@GKGI@Drag?5a?5Mesh?5Node?$EA?$AA@ 10095ab4     NodMdit.obj
 0002:00002acc       ??_C@_04HHIJ@MOVE?$AA@     10095acc     NodMdit.obj
 0002:00002ad4       ??_C@_0CB@FODH@Ready?5for?5Moving?5a?5Control?5Node?$EA@ 10095ad4     NodMdit.obj
 0002:00002afc       ??_C@_0CA@GHEA@Ready?5for?5Moving?5a?5Vertex?5Node?$EA?$AA@ 10095afc     NodMdit.obj
 0002:00002b24       ??_C@_0BO@OIHM@Ready?5for?5Moving?5a?5Mesh?5Node?$EA?$AA@ 10095b24     NodMdit.obj
 0002:00002b48       ??_C@_0N@DMAE@UNKNOWN?$EANODE?$AA@ 10095b48     NodMdit.obj
 0002:00002b58       ??_C@_0BJ@OLIL@Click?5on?5a?5Control?5Node?$EA?$AA@ 10095b58     NodMdit.obj
 0002:00002b78       ??_C@_0N@PIKM@Control?$EANODE?$AA@ 10095b78     NodMdit.obj
 0002:00002b88       ??_C@_0BI@NLIH@Click?5on?5a?5Vertex?5Node?$EA?$AA@ 10095b88     NodMdit.obj
 0002:00002ba4       ??_C@_0M@IFMC@Vertex?$EANODE?$AA@ 10095ba4     NodMdit.obj
 0002:00002bb4       ??_C@_0BG@BADI@Click?5on?5a?5Mesh?5Node?$EA?$AA@ 10095bb4     NodMdit.obj
 0002:00002bd0       ??_C@_09OHCC@Mesh?$EANODE?$AA@ 10095bd0     NodMdit.obj
 0002:00002bdc       ??_C@_07CNPM@UNKNOWN?$AA@  10095bdc     NodMdit.obj
 0002:00002be8       ??_C@_0CC@DPMD@Ready?5for?5Editing?5a?5Control?5Node@ 10095be8     NodMdit.obj
 0002:00002c10       ??_C@_0CB@JDEP@Ready?5for?5Editing?5a?5Vertex?5Node?$EA@ 10095c10     NodMdit.obj
 0002:00002c38       ??_C@_0BP@EHGL@Ready?5for?5Editing?5a?5Mesh?5Node?$EA?$AA@ 10095c38     NodMdit.obj
 0002:00002c60       ??_C@_0BG@DEGK@?5NodMdit?3?5?5?5?5Loading?6?$AA@ 10095c60     NodMdit.obj
 0002:00002c7c       ??_C@_0BG@PDDM@?5NodMdit?3?5?5?5?5Storing?6?$AA@ 10095c7c     NodMdit.obj
 0002:00002c98       ??_C@_08DAFI@CPatMdit?$AA@ 10095c98     PatMdit.obj
 0002:00002ca8       ??_7CPatMdit@@6B@          10095ca8     PatMdit.obj
 0002:00002cc0       ??_C@_0BG@EEMM@making?5up?5the?5Patch?5?6?$AA@ 10095cc0     PatMdit.obj
 0002:00002cdc       ??_C@_0CH@LEHK@modifying?5a?5Patch?5by?5editng?5the?5@ 10095cdc     PatMdit.obj
 0002:00002d0c       ??_C@_0CE@PGLJ@You?5may?5delete?5and?5rebuild?5a?5Pat@ 10095d0c     PatMdit.obj
 0002:00002d38       ??_C@_0CG@BFIK@?6?6Patches?5can?5not?5be?5edited?5dire@ 10095d38     PatMdit.obj
 0002:00002d68       ??_C@_0DF@HKBE@ERROR?3?6CPatMdit?3?3LeftUp_Node?6Sho@ 10095d68     PatMdit.obj
 0002:00002da8       ??_C@_06MJLD@MESH2D?$AA@   10095da8     PatMdit.obj
 0002:00002db0       ??_C@_0BM@COML@Ready?5for?5Editing?5a?5Mesh2D?$EA?$AA@ 10095db0     PatMdit.obj
 0002:00002dd4       ??_C@_0BG@DHOO@?5PatMdit?3?5?5?5?5Loading?6?$AA@ 10095dd4     PatMdit.obj
 0002:00002df0       ??_C@_0BG@PALI@?5PatMdit?3?5?5?5?5Storing?6?$AA@ 10095df0     PatMdit.obj
 0002:00002e0c       ??_C@_09EMLA@CRegenMs1?$AA@ 10095e0c     RegenMs1.obj
 0002:00002e1c       ??_7CRegenMs1@@6B@         10095e1c     RegenMs1.obj
 0002:00002e34       ??_C@_0BH@BLOA@?5RegenMs1?3?5?5?5?5Loading?6?$AA@ 10095e34     RegenMs1.obj
 0002:00002e50       ??_C@_0BH@NMLG@?5RegenMs1?3?5?5?5?5Storing?6?$AA@ 10095e50     RegenMs1.obj
 0002:00002e6c       ??_C@_09LDAJ@CRegenMs2?$AA@ 10095e6c     RegenMs2.obj
 0002:00002e7c       ??_7CRegenMs2@@6B@         10095e7c     RegenMs2.obj
 0002:00002e94       ??_C@_09BJJO@CRegenMs3?$AA@ 10095e94     RegenMs3.obj
 0002:00002ea4       ??_7CRegenMs3@@6B@         10095ea4     RegenMs3.obj
 0002:00002ebc       ??_C@_08JAFI@CSolMdit?$AA@ 10095ebc     SolMdit.obj
 0002:00002ecc       ??_7CSolMdit@@6B@          10095ecc     SolMdit.obj
 0002:00002ee4       ??_C@_0BG@FMBH@making?5up?5the?5Solid?5?6?$AA@ 10095ee4     SolMdit.obj
 0002:00002f00       ??_C@_0CH@JOOB@modifying?5a?5Solid?5by?5editng?5the?5@ 10095f00     SolMdit.obj
 0002:00002f30       ??_C@_0CE@CNHL@You?5may?5delete?5and?5rebuild?5a?5Sol@ 10095f30     SolMdit.obj
 0002:00002f5c       ??_C@_0CF@DAI@?6?6Solids?5can?5not?5be?5edited?5direc@ 10095f5c     SolMdit.obj
 0002:00002f88       ??_C@_0DF@KLHC@ERROR?3?6CSolMdit?3?3LeftUp_Node?6Sho@ 10095f88     SolMdit.obj
 0002:00002fc8       ??_C@_0BC@DING@Click?5on?5a?5Mesh3D?$AA@ 10095fc8     SolMdit.obj
 0002:00002fe0       ??_C@_06NPBJ@MESH3D?$AA@   10095fe0     SolMdit.obj
 0002:00002fe8       ??_C@_0BM@HMNN@Ready?5for?5Editing?5a?5Mesh3D?$EA?$AA@ 10095fe8     SolMdit.obj
 0002:0000300c       ??_C@_0BG@PHNM@?5SolMdit?3?5?5?5?5Loading?6?$AA@ 1009600c     SolMdit.obj
 0002:00003028       ??_C@_0BG@DAIK@?5SolMdit?3?5?5?5?5Storing?6?$AA@ 10096028     SolMdit.obj
 0002:00003048       _IID_IDocHostUIHandlerDispatch 10096048     mfcs42d:stdafx.obj
 0002:00003058       _IID_IInternalConnection   10096058     mfcs42d:stdafx.obj
 0002:00003068       _IID_IAxWinAmbientDispatch 10096068     mfcs42d:stdafx.obj
 0002:00003078       _IID_IAxWinHostWindow      10096078     mfcs42d:stdafx.obj
 0002:00003088       _IID_IRegistrar            10096088     mfcs42d:stdafx.obj
 0002:00003098       _CLSID_Registrar           10096098     mfcs42d:stdafx.obj
 0002:000030a8       _LIBID_ATLLib              100960a8     mfcs42d:stdafx.obj
 0002:000030bc       ??_7type_info@@6B@         100960bc     msvcrtd:ti_inst.obj
 0002:000030dc       ??_C@_08JKC@crtdll?4c?$AA@ 100960dc     msvcrtd:crtdll.obj
 0002:00003278       ??_R1A@?0A@A@CObject@@8    10096278     CurMdit.obj
 0002:00003298       ??_R1A@?0A@A@C3DMath@@8    10096298     CurMdit.obj
 0002:000032b8       ??_R2C3DMath@@8            100962b8     CurMdit.obj
 0002:000032c8       ??_R3C3DMath@@8            100962c8     CurMdit.obj
 0002:000032e0       ??_R4C3DMath@@6B@          100962e0     CurMdit.obj
 0002:000032f8       ??_R1A@?0A@A@CMatObj@@8    100962f8     CurMdit.obj
 0002:00003318       ??_R2CMatObj@@8            10096318     CurMdit.obj
 0002:00003328       ??_R3CMatObj@@8            10096328     CurMdit.obj
 0002:00003340       ??_R4CMatObj@@6B@          10096340     CurMdit.obj
 0002:00003358       ??_R1A@?0A@A@CDrObject@@8  10096358     CurMdit.obj
 0002:00003378       ??_R1A@?0A@A@CDrLabel@@8   10096378     CurMdit.obj
 0002:00003398       ??_R2CDrLabel@@8           10096398     CurMdit.obj
 0002:000033a8       ??_R3CDrLabel@@8           100963a8     CurMdit.obj
 0002:000033c0       ??_R4CDrLabel@@6B@         100963c0     CurMdit.obj
 0002:000033d8       ??_R1A@?0A@A@CTriangle@@8  100963d8     CurMdit.obj
 0002:000033f8       ??_R2CTriangle@@8          100963f8     CurMdit.obj
 0002:00003408       ??_R3CTriangle@@8          10096408     CurMdit.obj
 0002:00003420       ??_R4CTriangle@@6B@        10096420     CurMdit.obj
 0002:00003438       ??_R1A@?0A@A@CBooleans@@8  10096438     CurMdit.obj
 0002:00003458       ??_R2CBooleans@@8          10096458     CurMdit.obj
 0002:00003468       ??_R3CBooleans@@8          10096468     CurMdit.obj
 0002:00003480       ??_R4CBooleans@@6B@        10096480     CurMdit.obj
 0002:00003498       ??_R1A@?0A@A@CDataWindow@@8 10096498     CurMdit.obj
 0002:000034b8       ??_R2CDataWindow@@8        100964b8     CurMdit.obj
 0002:000034c8       ??_R3CDataWindow@@8        100964c8     CurMdit.obj
 0002:000034e0       ??_R4CDataWindow@@6B@      100964e0     CurMdit.obj
 0002:000034f8       ??_R1A@?0A@A@CDrFont@@8    100964f8     CurMdit.obj
 0002:00003518       ??_R2CDrFont@@8            10096518     CurMdit.obj
 0002:00003528       ??_R3CDrFont@@8            10096528     CurMdit.obj
 0002:00003540       ??_R4CDrFont@@6B@          10096540     CurMdit.obj
 0002:00003558       ??_R1A@?0A@A@CDrPen@@8     10096558     CurMdit.obj
 0002:00003578       ??_R2CDrPen@@8             10096578     CurMdit.obj
 0002:00003588       ??_R3CDrPen@@8             10096588     CurMdit.obj
 0002:000035a0       ??_R4CDrPen@@6B@           100965a0     CurMdit.obj
 0002:000035b8       ??_R1A@?0A@A@CHitNet@@8    100965b8     CurMdit.obj
 0002:000035d8       ??_R2CHitNet@@8            100965d8     CurMdit.obj
 0002:000035e8       ??_R3CHitNet@@8            100965e8     CurMdit.obj
 0002:00003600       ??_R4CHitNet@@6B@          10096600     CurMdit.obj
 0002:00003618       ??_R1A@?0A@A@CLayer@@8     10096618     CurMdit.obj
 0002:00003638       ??_R2CLayer@@8             10096638     CurMdit.obj
 0002:00003648       ??_R3CLayer@@8             10096648     CurMdit.obj
 0002:00003660       ??_R4CLayer@@6B@           10096660     CurMdit.obj
 0002:00003678       ??_R1A@?0A@A@CPatchMnu@@8  10096678     CurMdit.obj
 0002:00003698       ??_R2CPatchMnu@@8          10096698     CurMdit.obj
 0002:000036a8       ??_R3CPatchMnu@@8          100966a8     CurMdit.obj
 0002:000036c0       ??_R4CPatchMnu@@6B@        100966c0     CurMdit.obj
 0002:000036d8       ??_R1A@?0A@A@CObj3DMnu@@8  100966d8     CurMdit.obj
 0002:000036f8       ??_R2CObj3DMnu@@8          100966f8     CurMdit.obj
 0002:00003708       ??_R3CObj3DMnu@@8          10096708     CurMdit.obj
 0002:00003720       ??_R4CObj3DMnu@@6B@        10096720     CurMdit.obj
 0002:00003738       ??_R1A@?0A@A@CMapFactor@@8 10096738     CurMdit.obj
 0002:00003758       ??_R2CMapFactor@@8         10096758     CurMdit.obj
 0002:00003768       ??_R3CMapFactor@@8         10096768     CurMdit.obj
 0002:00003780       ??_R4CMapFactor@@6B@       10096780     CurMdit.obj
 0002:00003798       ??_R1A@?0A@A@CPrecision@@8 10096798     CurMdit.obj
 0002:000037b8       ??_R2CPrecision@@8         100967b8     CurMdit.obj
 0002:000037c8       ??_R3CPrecision@@8         100967c8     CurMdit.obj
 0002:000037e0       ??_R4CPrecision@@6B@       100967e0     CurMdit.obj
 0002:000037f8       ??_R1A@?0A@A@CScaleFactor@@8 100967f8     CurMdit.obj
 0002:00003818       ??_R2CScaleFactor@@8       10096818     CurMdit.obj
 0002:00003828       ??_R3CScaleFactor@@8       10096828     CurMdit.obj
 0002:00003840       ??_R4CScaleFactor@@6B@     10096840     CurMdit.obj
 0002:00003858       ??_R1A@?0A@A@CUnit@@8      10096858     CurMdit.obj
 0002:00003878       ??_R2CUnit@@8              10096878     CurMdit.obj
 0002:00003888       ??_R3CUnit@@8              10096888     CurMdit.obj
 0002:000038a0       ??_R4CUnit@@6B@            100968a0     CurMdit.obj
 0002:000038b8       ??_R1A@?0A@A@CElemInfo@@8  100968b8     CurMdit.obj
 0002:000038d8       ??_R2CElemInfo@@8          100968d8     CurMdit.obj
 0002:000038e8       ??_R3CElemInfo@@8          100968e8     CurMdit.obj
 0002:00003900       ??_R4CElemInfo@@6B@        10096900     CurMdit.obj
 0002:00003918       ??_R1A@?0A@A@CMouse@@8     10096918     CurMdit.obj
 0002:00003938       ??_R1A@?0A@A@CNodMdit@@8   10096938     CurMdit.obj
 0002:00003958       ??_R1A@?0A@A@CCurMdit@@8   10096958     CurMdit.obj
 0002:00003978       ??_R2CCurMdit@@8           10096978     CurMdit.obj
 0002:00003990       ??_R3CCurMdit@@8           10096990     CurMdit.obj
 0002:000039a8       ??_R4CCurMdit@@6B@         100969a8     CurMdit.obj
 0002:000039c0       ??_R1A@?0A@A@?$CList@HH@@8 100969c0     CurMdit.obj
 0002:000039e0       ??_R2?$CList@HH@@8         100969e0     CurMdit.obj
 0002:000039f0       ??_R3?$CList@HH@@8         100969f0     CurMdit.obj
 0002:00003a08       ??_R4?$CList@HH@@6B@       10096a08     CurMdit.obj
 0002:00003a20       ??_R1A@?0A@A@CMditDlgM@@8  10096a20     MditDlgM.obj
 0002:00003a40       ??_R2CMditDlgM@@8          10096a40     MditDlgM.obj
 0002:00003a50       ??_R3CMditDlgM@@8          10096a50     MditDlgM.obj
 0002:00003a68       ??_R4CMditDlgM@@6B@        10096a68     MditDlgM.obj
 0002:00003a80       ??_R1A@?0A@A@CMditMgr@@8   10096a80     MditMgr.obj
 0002:00003aa0       ??_R2CMditMgr@@8           10096aa0     MditMgr.obj
 0002:00003ab0       ??_R3CMditMgr@@8           10096ab0     MditMgr.obj
 0002:00003ac8       ??_R4CMditMgr@@6B@         10096ac8     MditMgr.obj
 0002:00003ae0       ??_R1A@?0A@A@CCmdTarget@@8 10096ae0     Mlg_enoA.obj
 0002:00003b00       ??_R1A@?0A@A@CWnd@@8       10096b00     Mlg_enoA.obj
 0002:00003b20       ??_R1A@?0A@A@CDialog@@8    10096b20     Mlg_enoA.obj
 0002:00003b40       ??_R1A@?0A@A@CMlg_ENoA@@8  10096b40     Mlg_enoA.obj
 0002:00003b60       ??_R2CMlg_ENoA@@8          10096b60     Mlg_enoA.obj
 0002:00003b80       ??_R3CMlg_ENoA@@8          10096b80     Mlg_enoA.obj
 0002:00003b98       ??_R4CMlg_ENoA@@6B@        10096b98     Mlg_enoA.obj
 0002:00003bb0       ??_R1A@?0A@A@CMlg_ENod@@8  10096bb0     Mlg_ENod.obj
 0002:00003bd0       ??_R2CMlg_ENod@@8          10096bd0     Mlg_ENod.obj
 0002:00003bf0       ??_R3CMlg_ENod@@8          10096bf0     Mlg_ENod.obj
 0002:00003c08       ??_R4CMlg_ENod@@6B@        10096c08     Mlg_ENod.obj
 0002:00003c20       ??_R1A@?0A@A@CXForm@@8     10096c20     NodMdit.obj
 0002:00003c40       ??_R2CXForm@@8             10096c40     NodMdit.obj
 0002:00003c50       ??_R3CXForm@@8             10096c50     NodMdit.obj
 0002:00003c68       ??_R4CXForm@@6B@           10096c68     NodMdit.obj
 0002:00003c80       ??_R2CNodMdit@@8           10096c80     NodMdit.obj
 0002:00003c90       ??_R3CNodMdit@@8           10096c90     NodMdit.obj
 0002:00003ca8       ??_R4CNodMdit@@6B@         10096ca8     NodMdit.obj
 0002:00003cc0       ??_R1A@?0A@A@CPatMdit@@8   10096cc0     PatMdit.obj
 0002:00003ce0       ??_R2CPatMdit@@8           10096ce0     PatMdit.obj
 0002:00003d00       ??_R3CPatMdit@@8           10096d00     PatMdit.obj
 0002:00003d18       ??_R4CPatMdit@@6B@         10096d18     PatMdit.obj
 0002:00003d30       ??_R1A@?0A@A@CRegenMs1@@8  10096d30     RegenMs1.obj
 0002:00003d50       ??_R2CRegenMs1@@8          10096d50     RegenMs1.obj
 0002:00003d60       ??_R3CRegenMs1@@8          10096d60     RegenMs1.obj
 0002:00003d78       ??_R4CRegenMs1@@6B@        10096d78     RegenMs1.obj
 0002:00003d90       ??_R1A@?0A@A@CRegenMs2@@8  10096d90     RegenMs2.obj
 0002:00003db0       ??_R2CRegenMs2@@8          10096db0     RegenMs2.obj
 0002:00003dc0       ??_R3CRegenMs2@@8          10096dc0     RegenMs2.obj
 0002:00003dd8       ??_R4CRegenMs2@@6B@        10096dd8     RegenMs2.obj
 0002:00003df0       ??_R1A@?0A@A@CRegenMs3@@8  10096df0     RegenMs3.obj
 0002:00003e10       ??_R2CRegenMs3@@8          10096e10     RegenMs3.obj
 0002:00003e20       ??_R3CRegenMs3@@8          10096e20     RegenMs3.obj
 0002:00003e38       ??_R4CRegenMs3@@6B@        10096e38     RegenMs3.obj
 0002:00003e50       ??_R1A@?0A@A@CSolMdit@@8   10096e50     SolMdit.obj
 0002:00003e70       ??_R2CSolMdit@@8           10096e70     SolMdit.obj
 0002:00003e90       ??_R3CSolMdit@@8           10096e90     SolMdit.obj
 0002:00003ea8       ??_R4CSolMdit@@6B@         10096ea8     SolMdit.obj
 0002:00003ec0       ??_R1A@?0A@A@type_info@@8  10096ec0     msvcrtd:ti_inst.obj
 0002:00003ed8       ??_R2type_info@@8          10096ed8     msvcrtd:ti_inst.obj
 0002:00003ee0       ??_R3type_info@@8          10096ee0     msvcrtd:ti_inst.obj
 0002:00003ef0       ??_R4type_info@@6B@        10096ef0     msvcrtd:ti_inst.obj
 0003:00000000       ___xc_a                    100b2000     msvcrtd:cinitexe.obj
 0003:00000230       ___xc_z                    100b2230     msvcrtd:cinitexe.obj
 0003:00000334       ___xi_a                    100b2334     msvcrtd:cinitexe.obj
 0003:00000438       ___xi_z                    100b2438     msvcrtd:cinitexe.obj
 0003:00000570       ?classCCurMdit@CCurMdit@@2UCRuntimeClass@@A 100b2570     CurMdit.obj
 0003:00000598       ??_R0?AVCObject@@@8        100b2598     CurMdit.obj
 0003:000005b8       ??_R0?AVC3DMath@@@8        100b25b8     CurMdit.obj
 0003:000005d8       ??_R0?AVCMatObj@@@8        100b25d8     CurMdit.obj
 0003:000005f8       ??_R0?AVCDrObject@@@8      100b25f8     CurMdit.obj
 0003:00000618       ??_R0?AVCDrLabel@@@8       100b2618     CurMdit.obj
 0003:00000638       ??_R0?AVCTriangle@@@8      100b2638     CurMdit.obj
 0003:00000658       ??_R0?AVCBooleans@@@8      100b2658     CurMdit.obj
 0003:00000678       ??_R0?AVCDataWindow@@@8    100b2678     CurMdit.obj
 0003:00000698       ??_R0?AVCDrFont@@@8        100b2698     CurMdit.obj
 0003:000006b8       ??_R0?AVCDrPen@@@8         100b26b8     CurMdit.obj
 0003:000006d8       ??_R0?AVCHitNet@@@8        100b26d8     CurMdit.obj
 0003:000006f8       ??_R0?AVCLayer@@@8         100b26f8     CurMdit.obj
 0003:00000718       ??_R0?AVCPatchMnu@@@8      100b2718     CurMdit.obj
 0003:00000738       ??_R0?AVCObj3DMnu@@@8      100b2738     CurMdit.obj
 0003:00000758       ??_R0?AVCMapFactor@@@8     100b2758     CurMdit.obj
 0003:00000778       ??_R0?AVCPrecision@@@8     100b2778     CurMdit.obj
 0003:00000798       ??_R0?AVCScaleFactor@@@8   100b2798     CurMdit.obj
 0003:000007b8       ??_R0?AVCUnit@@@8          100b27b8     CurMdit.obj
 0003:000007d0       ??_R0?AVCElemInfo@@@8      100b27d0     CurMdit.obj
 0003:000007f0       ??_R0?AVCMouse@@@8         100b27f0     CurMdit.obj
 0003:00000810       ??_R0?AVCNodMdit@@@8       100b2810     CurMdit.obj
 0003:00000830       ??_R0?AVCCurMdit@@@8       100b2830     CurMdit.obj
 0003:0000084c       ?__LINE__Var@?1??ShowCurveToEdit@CCurMdit@@QAEHPAVCDrMesh1D@@@Z@4FA 100b284c     CurMdit.obj
 0003:00000850       ??_R0?AV?$CList@HH@@@8     100b2850     CurMdit.obj
 0003:000008a0       ?classCMditDlgM@CMditDlgM@@2UCRuntimeClass@@A 100b28a0     MditDlgM.obj
 0003:000008c8       ??_R0?AVCMditDlgM@@@8      100b28c8     MditDlgM.obj
 0003:00000908       __pRawDllMain              100b2908     MditDll.obj
 0003:00000948       ?classCMditMgr@CMditMgr@@2UCRuntimeClass@@A 100b2948     MditMgr.obj
 0003:00000970       ??_R0?AVCMditMgr@@@8       100b2970     MditMgr.obj
 0003:000009c8       ??_R0?AVCCmdTarget@@@8     100b29c8     Mlg_enoA.obj
 0003:000009e8       ??_R0?AVCWnd@@@8           100b29e8     Mlg_enoA.obj
 0003:00000a00       ??_R0?AVCDialog@@@8        100b2a00     Mlg_enoA.obj
 0003:00000a20       ??_R0?AVCMlg_ENoA@@@8      100b2a20     Mlg_enoA.obj
 0003:00000a78       ??_R0?AVCMlg_ENod@@@8      100b2a78     Mlg_ENod.obj
 0003:00000ac8       ?classCNodMdit@CNodMdit@@2UCRuntimeClass@@A 100b2ac8     NodMdit.obj
 0003:00000af0       ??_R0?AVCXForm@@@8         100b2af0     NodMdit.obj
 0003:00000b0c       ?__LINE__Var@?1??LeftUp_NODE@CNodMdit@@IAEHVCPoint@@H@Z@4FA 100b2b0c     NodMdit.obj
 0003:00000b10       ?__LINE__Var@?1??LeftUp_NODE_PreMove@CNodMdit@@IAEHVCPoint@@H@Z@4FA 100b2b10     NodMdit.obj
 0003:00000b48       ?classCPatMdit@CPatMdit@@2UCRuntimeClass@@A 100b2b48     PatMdit.obj
 0003:00000b70       ??_R0?AVCPatMdit@@@8       100b2b70     PatMdit.obj
 0003:00000b8c       ?__LINE__Var@?1??ShowPatchToEdit@CPatMdit@@QAEHPAVCDrMesh2D@@@Z@4FA 100b2b8c     PatMdit.obj
 0003:00000bc0       ?classCRegenMs1@CRegenMs1@@2UCRuntimeClass@@A 100b2bc0     RegenMs1.obj
 0003:00000be8       ??_R0?AVCRegenMs1@@@8      100b2be8     RegenMs1.obj
 0003:00000c38       ?classCRegenMs2@CRegenMs2@@2UCRuntimeClass@@A 100b2c38     RegenMs2.obj
 0003:00000c60       ??_R0?AVCRegenMs2@@@8      100b2c60     RegenMs2.obj
 0003:00000c7c       ?__LINE__Var@?1??UpdateFE2DCentroid@CRegenMs2@@QAEHPAVCDrFE2D@@@Z@4FA 100b2c7c     RegenMs2.obj
 0003:00000cb0       ?classCRegenMs3@CRegenMs3@@2UCRuntimeClass@@A 100b2cb0     RegenMs3.obj
 0003:00000cd8       ??_R0?AVCRegenMs3@@@8      100b2cd8     RegenMs3.obj
 0003:00000cf4       ?__LINE__Var@?1??UpdateFE3DCentroid@CRegenMs3@@QAEHPAVCDrFE3D@@@Z@4FA 100b2cf4     RegenMs3.obj
 0003:00000d28       ?classCSolMdit@CSolMdit@@2UCRuntimeClass@@A 100b2d28     SolMdit.obj
 0003:00000d50       ??_R0?AVCSolMdit@@@8       100b2d50     SolMdit.obj
 0003:00000d6c       ?__LINE__Var@?1??ShowSolidToEdit@CSolMdit@@QAEHPAVCDrMesh3D@@@Z@4FA 100b2d6c     SolMdit.obj
 0003:00000d70       ?GUID_ATLVer30@ATL@@3U_GUID@@A 100b2d70     mfcs42d:stdafx.obj
 0003:00000d80       ??_R0?AVtype_info@@@8      100b2d80     msvcrtd:ti_inst.obj
 0003:00000ee0       ?_init_CCurMdit@@3UAFX_CLASSINIT@@A 100b2ee0     CurMdit.obj
 0003:00000ee4       ?_init_CMditDlgM@@3UAFX_CLASSINIT@@A 100b2ee4     MditDlgM.obj
 0003:00000ee8       __afxForceEXTDLL           100b2ee8     MditDll.obj
 0003:00000ef0       ?extensionMdit_DLL@@3UAFX_EXTENSION_MODULE@@A 100b2ef0     MditDll.obj
 0003:00000f0c       ?_init_CMditMgr@@3UAFX_CLASSINIT@@A 100b2f0c     MditMgr.obj
 0003:00000f10       ?_init_CNodMdit@@3UAFX_CLASSINIT@@A 100b2f10     NodMdit.obj
 0003:00000f14       ?_init_CPatMdit@@3UAFX_CLASSINIT@@A 100b2f14     PatMdit.obj
 0003:00000f18       ?_init_CRegenMs1@@3UAFX_CLASSINIT@@A 100b2f18     RegenMs1.obj
 0003:00000f1c       ?_init_CRegenMs2@@3UAFX_CLASSINIT@@A 100b2f1c     RegenMs2.obj
 0003:00000f20       ?_init_CRegenMs3@@3UAFX_CLASSINIT@@A 100b2f20     RegenMs3.obj
 0003:00000f24       ?_init_CSolMdit@@3UAFX_CLASSINIT@@A 100b2f24     SolMdit.obj
 0003:00000f28       __afxForceEXCLUDE          100b2f28     mfcs42d:nolib.obj
 0003:00000f2c       ?ATL_CREATE_OBJECT@CComApartment@ATL@@2IA 100b2f2c     mfcs42d:stdafx.obj
 0003:00000f30       ?m_libid@CComModule@ATL@@2U_GUID@@A 100b2f30     mfcs42d:stdafx.obj
 0003:00000f40       ?_pModule@ATL@@3PAVCComModule@1@A 100b2f40     mfcs42d:stdafx.obj
 0003:00000f44       __afxForceSTDAFX           100b2f44     mfcs42d:stdafx.obj
 0003:00000f4c       __adjust_fdiv              100b2f4c     <common>
 0003:00000f58       ___onexitend               100b2f58     <common>
 0003:00000f68       ___onexitbegin             100b2f68     <common>
 0004:00000000       __IMPORT_DESCRIPTOR_OMgr_D32 100b3000     OMgr_D32:OMgr_D32.dll
 0004:00000014       __IMPORT_DESCRIPTOR_Spec_D32 100b3014     Spec_d32:Spec_D32.dll
 0004:00000028       __IMPORT_DESCRIPTOR_Draw_D32 100b3028     Draw_D32:Draw_D32.dll
 0004:0000003c       __IMPORT_DESCRIPTOR_Elem_D32 100b303c     Elem_D32:Elem_D32.dll
 0004:00000050       __IMPORT_DESCRIPTOR_OGEN_D32 100b3050     OGen_D32:OGEN_D32.dll
 0004:00000064       __IMPORT_DESCRIPTOR_Dr3D_D32 100b3064     Dr3D_D32:Dr3D_D32.dll
 0004:00000078       __IMPORT_DESCRIPTOR_MMs1_D32 100b3078     MMs1_D32:MMs1_D32.dll
 0004:0000008c       __IMPORT_DESCRIPTOR_MMgr_D32 100b308c     MMgr_D32:MMgr_D32.dll
 0004:000000a0       __IMPORT_DESCRIPTOR_CreM_D32 100b30a0     CreM_D32:CreM_D32.dll
 0004:000000b4       __IMPORT_DESCRIPTOR_MFC42D 100b30b4     mfc42d:MFC42D.DLL
 0004:000000c8       __IMPORT_DESCRIPTOR_MSVCRTD 100b30c8     msvcrtd:MSVCRTD.dll
 0004:000000dc       __IMPORT_DESCRIPTOR_USER32 100b30dc     user32:USER32.dll
 0004:000000f0       __NULL_IMPORT_DESCRIPTOR   100b30f0     OMgr_D32:OMgr_D32.dll
 0004:00000ac0       __imp_?ShowNodeToSpawn@CNodCreOM@@QAEHPAVCDrFE0D@@H@Z 100b3ac0     CreM_D32:CreM_D32.dll
 0004:00000ac4       __imp_??0CNodCreOM@@QAE@XZ 100b3ac4     CreM_D32:CreM_D32.dll
 0004:00000ac8       __imp_?SetUpLocalM_XLATE@CNodCreOM@@QAEXXZ 100b3ac8     CreM_D32:CreM_D32.dll
 0004:00000acc       __imp_??1CNodCreOM@@UAE@XZ 100b3acc     CreM_D32:CreM_D32.dll
 0004:00000ad0       \177CreM_D32_NULL_THUNK_DATA 100b3ad0     CreM_D32:CreM_D32.dll
 0004:00000afc       __imp_?GetRuntimeClass@CXForm@@UBEPAUCRuntimeClass@@XZ 100b3afc     Dr3D_D32:Dr3D_D32.dll
 0004:00000b00       __imp_?Serialize@CXForm@@UAEXAAVCArchive@@@Z 100b3b00     Dr3D_D32:Dr3D_D32.dll
 0004:00000b04       __imp_?Reflect@CXForm@@UAEXPAUMATRIX@@UWORLD@@N@Z 100b3b04     Dr3D_D32:Dr3D_D32.dll
 0004:00000b08       __imp_?Shear_X@CXForm@@UAEXPAUMATRIX@@NNW4XFMODE@@@Z 100b3b08     Dr3D_D32:Dr3D_D32.dll
 0004:00000b0c       __imp_?Shear_Y@CXForm@@UAEXPAUMATRIX@@NNW4XFMODE@@@Z 100b3b0c     Dr3D_D32:Dr3D_D32.dll
 0004:00000b10       __imp_?Shear_Z@CXForm@@UAEXPAUMATRIX@@NNW4XFMODE@@@Z 100b3b10     Dr3D_D32:Dr3D_D32.dll
 0004:00000b14       __imp_?Rotate_X@CXForm@@UAEXPAUMATRIX@@NW4XFMODE@@@Z 100b3b14     Dr3D_D32:Dr3D_D32.dll
 0004:00000b18       __imp_?Rotate_Y@CXForm@@UAEXPAUMATRIX@@NW4XFMODE@@@Z 100b3b18     Dr3D_D32:Dr3D_D32.dll
 0004:00000b1c       __imp_?Rotate_Z@CXForm@@UAEXPAUMATRIX@@NW4XFMODE@@@Z 100b3b1c     Dr3D_D32:Dr3D_D32.dll
 0004:00000b20       __imp_?Translate@CXForm@@UAEXPAUMATRIX@@NNNW4XFMODE@@@Z 100b3b20     Dr3D_D32:Dr3D_D32.dll
 0004:00000b24       __imp_?RotateAboutLineMATRIX@CXForm@@UAEXPAUMATRIX@@PAUWORLD@@1NW4XFMODE@@@Z 100b3b24     Dr3D_D32:Dr3D_D32.dll
 0004:00000b28       __imp_?HeadToNewZLocMATRIX@CXForm@@UAEXPAUWORLD@@0PAUMATRIX@@W4XFMODE@@@Z 100b3b28     Dr3D_D32:Dr3D_D32.dll
 0004:00000b2c       __imp_?RotateToNewZMATRIX@CXForm@@UAEXPAUWORLD@@PAUMATRIX@@W4XFMODE@@@Z 100b3b2c     Dr3D_D32:Dr3D_D32.dll
 0004:00000b30       __imp_?HeadToNewYLocMATRIX@CXForm@@UAEXPAUWORLD@@0PAUMATRIX@@W4XFMODE@@@Z 100b3b30     Dr3D_D32:Dr3D_D32.dll
 0004:00000b34       __imp_?RotateToNewYMATRIX@CXForm@@UAEXPAUWORLD@@PAUMATRIX@@W4XFMODE@@@Z 100b3b34     Dr3D_D32:Dr3D_D32.dll
 0004:00000b38       __imp_?HeadToNewXLocMATRIX@CXForm@@UAEXPAUWORLD@@0PAUMATRIX@@W4XFMODE@@@Z 100b3b38     Dr3D_D32:Dr3D_D32.dll
 0004:00000b3c       __imp_?RotateToNewXMATRIX@CXForm@@UAEXPAUWORLD@@PAUMATRIX@@W4XFMODE@@@Z 100b3b3c     Dr3D_D32:Dr3D_D32.dll
 0004:00000b40       __imp_?VRCtoWORLDRotationMATRIX@CXForm@@UAEXPAUMATRIX@@PAUWORLD@@1@Z 100b3b40     Dr3D_D32:Dr3D_D32.dll
 0004:00000b44       __imp_?ComposeLocalMATRIX@CXForm@@UAEXPAUMATRIX@@NNNNNNNNNNNN@Z 100b3b44     Dr3D_D32:Dr3D_D32.dll
 0004:00000b48       __imp_?ComposeViewMATRIX@CXForm@@UAENPAUMATRIX@@UWORLD@@1111NNNN@Z 100b3b48     Dr3D_D32:Dr3D_D32.dll
 0004:00000b4c       __imp_?PerToParCVVMATRIX@CXForm@@UAEXPAUMATRIX@@N@Z 100b3b4c     Dr3D_D32:Dr3D_D32.dll
 0004:00000b50       __imp_?ALT_ComposeViewMATRIX@CXForm@@UAEHPAUMATRIX@@UWORLD@@1111NNNN@Z 100b3b50     Dr3D_D32:Dr3D_D32.dll
 0004:00000b54       __imp_?SetVOMATRIX@CXForm@@UAEXPAUMATRIX@@UWORLD@@11@Z 100b3b54     Dr3D_D32:Dr3D_D32.dll
 0004:00000b58       __imp_?Par_SetVMMATRIX@CXForm@@UAEXPAUMATRIX@@UWORLD@@1NNNN@Z 100b3b58     Dr3D_D32:Dr3D_D32.dll
 0004:00000b5c       __imp_?Per_SetVMMATRIX@CXForm@@UAENPAUMATRIX@@UWORLD@@1NNNN@Z 100b3b5c     Dr3D_D32:Dr3D_D32.dll
 0004:00000b60       __imp_?ComposeCombineMATRIX@CXForm@@UAEXPAUMATRIX@@00@Z 100b3b60     Dr3D_D32:Dr3D_D32.dll
 0004:00000b64       __imp_?Transform@CXForm@@UAEXPAUWORLD@@0PAUMATRIX@@@Z 100b3b64     Dr3D_D32:Dr3D_D32.dll
 0004:00000b68       __imp_?TransformPerToParCVV@CXForm@@UAEXNPAUWORLD@@0@Z 100b3b68     Dr3D_D32:Dr3D_D32.dll
 0004:00000b6c       __imp_?ComposeWin3DtoScreen3DMATRIX@CXForm@@UAEXPAUMATRIX@@UWORLD@@1@Z 100b3b6c     Dr3D_D32:Dr3D_D32.dll
 0004:00000b70       __imp_?Project@CXForm@@UAEXPAUMATRIX@@PAUWORLD@@1@Z 100b3b70     Dr3D_D32:Dr3D_D32.dll
 0004:00000b74       __imp_?Sub3DPts@C3DMath@@QAEXPAUWORLD@@00@Z 100b3b74     Dr3D_D32:Dr3D_D32.dll
 0004:00000b78       __imp_?Normalize@C3DMath@@QAEXPAUWORLD@@0@Z 100b3b78     Dr3D_D32:Dr3D_D32.dll
 0004:00000b7c       __imp_??0C3DMath@@QAE@XZ   100b3b7c     Dr3D_D32:Dr3D_D32.dll
 0004:00000b80       __imp_?BlockCopy@C3DMath@@QAEXPAD0K@Z 100b3b80     Dr3D_D32:Dr3D_D32.dll
 0004:00000b84       __imp_?GetRuntimeClass@C3DMath@@UBEPAUCRuntimeClass@@XZ 100b3b84     Dr3D_D32:Dr3D_D32.dll
 0004:00000b88       __imp_?Serialize@C3DMath@@UAEXAAVCArchive@@@Z 100b3b88     Dr3D_D32:Dr3D_D32.dll
 0004:00000b8c       __imp_?Scale@CXForm@@UAEXPAUMATRIX@@NNNW4XFMODE@@@Z 100b3b8c     Dr3D_D32:Dr3D_D32.dll
 0004:00000b90       \177Dr3D_D32_NULL_THUNK_DATA 100b3b90     Dr3D_D32:Dr3D_D32.dll
 0004:00000bd8       __imp_?InitDraw@CDrLabel@@UAEXPAVCDC@@HHPAUMATRIX@@1NNN@Z 100b3bd8     Draw_D32:Draw_D32.dll
 0004:00000bdc       __imp_?GetCorner@CDrLabel@@UAE?AUtagPOINT@@H@Z 100b3bdc     Draw_D32:Draw_D32.dll
 0004:00000be0       __imp_?GetObjectInfo@CDrLabel@@UAEXPAVCDrObject@@@Z 100b3be0     Draw_D32:Draw_D32.dll
 0004:00000be4       __imp_?SetObjectInfo@CDrLabel@@UAEXPAVCDrObject@@@Z 100b3be4     Draw_D32:Draw_D32.dll
 0004:00000be8       __imp_?Pack_drPipe@CDrLabel@@UAEXPAVCString@@@Z 100b3be8     Draw_D32:Draw_D32.dll
 0004:00000bec       __imp_?IsKeyMatch@CDrLabel@@UAEHPAVCDrObject@@VCString@@I@Z 100b3bec     Draw_D32:Draw_D32.dll
 0004:00000bf0       __imp_?IsObjectHit@CDrLabel@@UAEHPAVCClientDC@@HUtagPOINT@@PAVCRect@@H@Z 100b3bf0     Draw_D32:Draw_D32.dll
 0004:00000bf4       __imp_?GetRawCoords@CDrLabel@@UAEXPAJPAHH@Z 100b3bf4     Draw_D32:Draw_D32.dll
 0004:00000bf8       __imp_?GetRuntimeClass@CDrLabel@@UBEPAUCRuntimeClass@@XZ 100b3bf8     Draw_D32:Draw_D32.dll
 0004:00000bfc       __imp_?Serialize@CDrLabel@@UAEXAAVCArchive@@@Z 100b3bfc     Draw_D32:Draw_D32.dll
 0004:00000c00       __imp_?DoDataView@CDrLabel@@UAEXPAVCDC@@H@Z 100b3c00     Draw_D32:Draw_D32.dll
 0004:00000c04       __imp_?SetCorner@CDrLabel@@UAEXUtagPOINT@@H@Z 100b3c04     Draw_D32:Draw_D32.dll
 0004:00000c08       __imp_?Corner_3Dto2D@CDrLabel@@UAEXXZ 100b3c08     Draw_D32:Draw_D32.dll
 0004:00000c0c       __imp_?DoDrawView@CDrLabel@@UAEXPAVCDC@@HH@Z 100b3c0c     Draw_D32:Draw_D32.dll
 0004:00000c10       __imp_?DealObjectDialog@CDrLabel@@UAEHXZ 100b3c10     Draw_D32:Draw_D32.dll
 0004:00000c14       __imp_?FinishObject@CDrLabel@@UAEXPAVCClientDC@@H@Z 100b3c14     Draw_D32:Draw_D32.dll
 0004:00000c18       \177Draw_D32_NULL_THUNK_DATA 100b3c18     Draw_D32:Draw_D32.dll
 0004:00000c50       __imp_?ReadDefault@CElemInfo@@UAEXXZ 100b3c50     Elem_D32:Elem_D32.dll
 0004:00000c54       __imp_?SetObjectInfo@CElemInfo@@UAEXPAVCDrObject@@@Z 100b3c54     Elem_D32:Elem_D32.dll
 0004:00000c58       __imp_?GetObjectInfo@CElemInfo@@UAEXPAVCDrObject@@@Z 100b3c58     Elem_D32:Elem_D32.dll
 0004:00000c5c       __imp_?Pack_drPipe@CElemInfo@@UAEXPAVCString@@@Z 100b3c5c     Elem_D32:Elem_D32.dll
 0004:00000c60       __imp_?DoDataView@CElemInfo@@UAEXPAVCDC@@H@Z 100b3c60     Elem_D32:Elem_D32.dll
 0004:00000c64       __imp_?Serialize@CElemInfo@@UAEXAAVCArchive@@@Z 100b3c64     Elem_D32:Elem_D32.dll
 0004:00000c68       __imp_?Init@CElemInfo@@UAEXXZ 100b3c68     Elem_D32:Elem_D32.dll
 0004:00000c6c       __imp_?GetRuntimeClass@CElemInfo@@UBEPAUCRuntimeClass@@XZ 100b3c6c     Elem_D32:Elem_D32.dll
 0004:00000c70       \177Elem_D32_NULL_THUNK_DATA 100b3c70     Elem_D32:Elem_D32.dll
 0004:00000ca0       __imp_?SetCheck@CButton@@QAEXH@Z 100b3ca0     mfc42d:MFC42D.DLL
 0004:00000ca4       __imp_?SetWindowTextA@CWnd@@QAEXPBD@Z 100b3ca4     mfc42d:MFC42D.DLL
 0004:00000ca8       __imp_?UpdateData@CWnd@@QAEHH@Z 100b3ca8     mfc42d:MFC42D.DLL
 0004:00000cac       __imp_?messageMap@CDialog@@1UAFX_MSGMAP@@B 100b3cac     mfc42d:MFC42D.DLL
 0004:00000cb0       __imp_?DoDataExchange@CWnd@@MAEXPAVCDataExchange@@@Z 100b3cb0     mfc42d:MFC42D.DLL
 0004:00000cb4       __imp_?DDX_Text@@YGXPAVCDataExchange@@HAAVCString@@@Z 100b3cb4     mfc42d:MFC42D.DLL
 0004:00000cb8       __imp_?DDX_CBString@@YGXPAVCDataExchange@@HAAVCString@@@Z 100b3cb8     mfc42d:MFC42D.DLL
 0004:00000cbc       __imp_?DDX_Text@@YGXPAVCDataExchange@@HAAN@Z 100b3cbc     mfc42d:MFC42D.DLL
 0004:00000cc0       __imp_??0CDialog@@QAE@IPAVCWnd@@@Z 100b3cc0     mfc42d:MFC42D.DLL
 0004:00000cc4       __imp_??0CBitmapButton@@QAE@XZ 100b3cc4     mfc42d:MFC42D.DLL
 0004:00000cc8       __imp_?LoadBitmaps@CBitmapButton@@QAEHPBD000@Z 100b3cc8     mfc42d:MFC42D.DLL
 0004:00000ccc       __imp_?GetRuntimeClass@CDialog@@UBEPAUCRuntimeClass@@XZ 100b3ccc     mfc42d:MFC42D.DLL
 0004:00000cd0       __imp_?AssertValid@CDialog@@UBEXXZ 100b3cd0     mfc42d:MFC42D.DLL
 0004:00000cd4       __imp_?Dump@CDialog@@UBEXAAVCDumpContext@@@Z 100b3cd4     mfc42d:MFC42D.DLL
 0004:00000cd8       __imp_?OnCmdMsg@CDialog@@UAEHIHPAXPAUAFX_CMDHANDLERINFO@@@Z 100b3cd8     mfc42d:MFC42D.DLL
 0004:00000cdc       __imp_?OnFinalRelease@CWnd@@UAEXXZ 100b3cdc     mfc42d:MFC42D.DLL
 0004:00000ce0       __imp_?IsInvokeAllowed@CCmdTarget@@UAEHJ@Z 100b3ce0     mfc42d:MFC42D.DLL
 0004:00000ce4       __imp_?GetDispatchIID@CCmdTarget@@UAEHPAU_GUID@@@Z 100b3ce4     mfc42d:MFC42D.DLL
 0004:00000ce8       __imp_?GetTypeInfoCount@CCmdTarget@@UAEIXZ 100b3ce8     mfc42d:MFC42D.DLL
 0004:00000cec       __imp_?GetTypeLibCache@CCmdTarget@@UAEPAVCTypeLibCache@@XZ 100b3cec     mfc42d:MFC42D.DLL
 0004:00000cf0       __imp_?GetTypeLib@CCmdTarget@@UAEJKPAPAUITypeLib@@@Z 100b3cf0     mfc42d:MFC42D.DLL
 0004:00000cf4       __imp_?GetCommandMap@CCmdTarget@@MBEPBUAFX_OLECMDMAP@@XZ 100b3cf4     mfc42d:MFC42D.DLL
 0004:00000cf8       __imp_?GetDispatchMap@CCmdTarget@@MBEPBUAFX_DISPMAP@@XZ 100b3cf8     mfc42d:MFC42D.DLL
 0004:00000cfc       __imp_?GetConnectionMap@CCmdTarget@@MBEPBUAFX_CONNECTIONMAP@@XZ 100b3cfc     mfc42d:MFC42D.DLL
 0004:00000d00       __imp_?GetInterfaceMap@CCmdTarget@@MBEPBUAFX_INTERFACEMAP@@XZ 100b3d00     mfc42d:MFC42D.DLL
 0004:00000d04       __imp_?GetEventSinkMap@CCmdTarget@@MBEPBUAFX_EVENTSINKMAP@@XZ 100b3d04     mfc42d:MFC42D.DLL
 0004:00000d08       __imp_?OnCreateAggregates@CCmdTarget@@UAEHXZ 100b3d08     mfc42d:MFC42D.DLL
 0004:00000d0c       __imp_?GetInterfaceHook@CCmdTarget@@UAEPAUIUnknown@@PBX@Z 100b3d0c     mfc42d:MFC42D.DLL
 0004:00000d10       __imp_?GetExtraConnectionPoints@CCmdTarget@@MAEHPAVCPtrArray@@@Z 100b3d10     mfc42d:MFC42D.DLL
 0004:00000d14       __imp_?GetConnectionHook@CCmdTarget@@MAEPAUIConnectionPoint@@ABU_GUID@@@Z 100b3d14     mfc42d:MFC42D.DLL
 0004:00000d18       __imp_?PreSubclassWindow@CWnd@@UAEXXZ 100b3d18     mfc42d:MFC42D.DLL
 0004:00000d1c       __imp_?Create@CWnd@@UAEHPBD0KABUtagRECT@@PAV1@IPAUCCreateContext@@@Z 100b3d1c     mfc42d:MFC42D.DLL
 0004:00000d20       __imp_?DestroyWindow@CWnd@@UAEHXZ 100b3d20     mfc42d:MFC42D.DLL
 0004:00000d24       __imp_?PreCreateWindow@CWnd@@UAEHAAUtagCREATESTRUCTA@@@Z 100b3d24     mfc42d:MFC42D.DLL
 0004:00000d28       __imp_?CalcWindowRect@CWnd@@UAEXPAUtagRECT@@I@Z 100b3d28     mfc42d:MFC42D.DLL
 0004:00000d2c       __imp_?OnToolHitTest@CWnd@@UBEHVCPoint@@PAUtagTOOLINFOA@@@Z 100b3d2c     mfc42d:MFC42D.DLL
 0004:00000d30       __imp_?GetScrollBarCtrl@CWnd@@UBEPAVCScrollBar@@H@Z 100b3d30     mfc42d:MFC42D.DLL
 0004:00000d34       __imp_?WinHelpA@CWnd@@UAEXKI@Z 100b3d34     mfc42d:MFC42D.DLL
 0004:00000d38       __imp_?ContinueModal@CWnd@@UAEHXZ 100b3d38     mfc42d:MFC42D.DLL
 0004:00000d3c       __imp_?EndModalLoop@CWnd@@UAEXH@Z 100b3d3c     mfc42d:MFC42D.DLL
 0004:00000d40       __imp_?GetDlgItem@CWnd@@QBEPAV1@H@Z 100b3d40     mfc42d:MFC42D.DLL
 0004:00000d44       __imp_?OnNotify@CWnd@@MAEHIJPAJ@Z 100b3d44     mfc42d:MFC42D.DLL
 0004:00000d48       __imp_?GetSuperWndProcAddr@CWnd@@MAEPAP6GJPAUHWND__@@IIJ@ZXZ 100b3d48     mfc42d:MFC42D.DLL
 0004:00000d4c       __imp_?BeginModalState@CWnd@@UAEXXZ 100b3d4c     mfc42d:MFC42D.DLL
 0004:00000d50       __imp_?EndModalState@CWnd@@UAEXXZ 100b3d50     mfc42d:MFC42D.DLL
 0004:00000d54       __imp_?PreTranslateMessage@CDialog@@UAEHPAUtagMSG@@@Z 100b3d54     mfc42d:MFC42D.DLL
 0004:00000d58       __imp_?OnAmbientProperty@CWnd@@UAEHPAVCOleControlSite@@JPAUtagVARIANT@@@Z 100b3d58     mfc42d:MFC42D.DLL
 0004:00000d5c       __imp_??9@YG_NABVCString@@0@Z 100b3d5c     mfc42d:MFC42D.DLL
 0004:00000d60       __imp_?OnWndMsg@CWnd@@MAEHIIJPAJ@Z 100b3d60     mfc42d:MFC42D.DLL
 0004:00000d64       __imp_?DefWindowProcA@CWnd@@MAEJIIJ@Z 100b3d64     mfc42d:MFC42D.DLL
 0004:00000d68       __imp_?PostNcDestroy@CWnd@@MAEXXZ 100b3d68     mfc42d:MFC42D.DLL
 0004:00000d6c       __imp_?OnChildNotify@CWnd@@MAEHIIJPAJ@Z 100b3d6c     mfc42d:MFC42D.DLL
 0004:00000d70       __imp_?CheckAutoCenter@CDialog@@UAEHXZ 100b3d70     mfc42d:MFC42D.DLL
 0004:00000d74       __imp_?IsFrameWnd@CWnd@@UBEHXZ 100b3d74     mfc42d:MFC42D.DLL
 0004:00000d78       __imp_?SetOccDialogInfo@CDialog@@MAEHPAU_AFX_OCC_DIALOG_INFO@@@Z 100b3d78     mfc42d:MFC42D.DLL
 0004:00000d7c       __imp_?OnSetFont@CDialog@@UAEXPAVCFont@@@Z 100b3d7c     mfc42d:MFC42D.DLL
 0004:00000d80       __imp_?PreInitDialog@CDialog@@MAEXXZ 100b3d80     mfc42d:MFC42D.DLL
 0004:00000d84       __imp_?LoadStandardCursor@CWinApp@@QBEPAUHICON__@@PBD@Z 100b3d84     mfc42d:MFC42D.DLL
 0004:00000d88       __imp_?LoadCursorA@CWinApp@@QBEPAUHICON__@@I@Z 100b3d88     mfc42d:MFC42D.DLL
 0004:00000d8c       __imp_?AfxInitExtensionModule@@YGHAAUAFX_EXTENSION_MODULE@@PAUHINSTANCE__@@@Z 100b3d8c     mfc42d:MFC42D.DLL
 0004:00000d90       __imp_??0CDynLinkLibrary@@QAE@AAUAFX_EXTENSION_MODULE@@H@Z 100b3d90     mfc42d:MFC42D.DLL
 0004:00000d94       __imp_?AfxGetModuleState@@YGPAVAFX_MODULE_STATE@@XZ 100b3d94     mfc42d:MFC42D.DLL
 0004:00000d98       __imp_?DoModal@CDialog@@UAEHXZ 100b3d98     mfc42d:MFC42D.DLL
 0004:00000d9c       __imp_?LoadStringA@CString@@QAEHI@Z 100b3d9c     mfc42d:MFC42D.DLL
 0004:00000da0       __imp_?AfxGetResourceHandle@@YGPAUHINSTANCE__@@XZ 100b3da0     mfc42d:MFC42D.DLL
 0004:00000da4       __imp_?AfxSetResourceHandle@@YGXPAUHINSTANCE__@@@Z 100b3da4     mfc42d:MFC42D.DLL
 0004:00000da8       __imp_??0CObject@@IAE@XZ   100b3da8     mfc42d:MFC42D.DLL
 0004:00000dac       __imp_?classCObject@CObject@@2UCRuntimeClass@@B 100b3dac     mfc42d:MFC42D.DLL
 0004:00000db0       __imp_??2CObject@@SGPAXI@Z 100b3db0     mfc42d:MFC42D.DLL
 0004:00000db4       __imp_??1CBitmap@@UAE@XZ   100b3db4     mfc42d:MFC42D.DLL
 0004:00000db8       __imp_??1CButton@@UAE@XZ   100b3db8     mfc42d:MFC42D.DLL
 0004:00000dbc       __imp_?Create@CPlex@@SGPAU1@AAPAU1@II@Z 100b3dbc     mfc42d:MFC42D.DLL
 0004:00000dc0       __imp_?Write@CArchive@@QAEXPBXI@Z 100b3dc0     mfc42d:MFC42D.DLL
 0004:00000dc4       __imp_?Read@CArchive@@QAEIPAXI@Z 100b3dc4     mfc42d:MFC42D.DLL
 0004:00000dc8       __imp_?FreeDataChain@CPlex@@QAEXXZ 100b3dc8     mfc42d:MFC42D.DLL
 0004:00000dcc       __imp_??6CDumpContext@@QAEAAV0@PBD@Z 100b3dcc     mfc42d:MFC42D.DLL
 0004:00000dd0       __imp_??6CDumpContext@@QAEAAV0@H@Z 100b3dd0     mfc42d:MFC42D.DLL
 0004:00000dd4       __imp_?GetDepth@CDumpContext@@QBEHXZ 100b3dd4     mfc42d:MFC42D.DLL
 0004:00000dd8       __imp_?AfxAssertValidObject@@YGXPBVCObject@@PBDH@Z 100b3dd8     mfc42d:MFC42D.DLL
 0004:00000ddc       __imp_?WriteCount@CArchive@@QAEXK@Z 100b3ddc     mfc42d:MFC42D.DLL
 0004:00000de0       __imp_?AfxIsValidAddress@@YGHPBXIH@Z 100b3de0     mfc42d:MFC42D.DLL
 0004:00000de4       __imp_?ReadCount@CArchive@@QAEKXZ 100b3de4     mfc42d:MFC42D.DLL
 0004:00000de8       __imp_?SizeToContent@CBitmapButton@@QAEXXZ 100b3de8     mfc42d:MFC42D.DLL
 0004:00000dec       __imp_?SubclassDlgItem@CWnd@@QAEHIPAV1@@Z 100b3dec     mfc42d:MFC42D.DLL
 0004:00000df0       __imp_?OnInitDialog@CDialog@@UAEHXZ 100b3df0     mfc42d:MFC42D.DLL
 0004:00000df4       __imp_?SetCurSel@CComboBox@@QAEHH@Z 100b3df4     mfc42d:MFC42D.DLL
 0004:00000df8       __imp_?EnableWindow@CWnd@@QAEHH@Z 100b3df8     mfc42d:MFC42D.DLL
 0004:00000dfc       __imp_?SetCurSel@CListBox@@QAEHH@Z 100b3dfc     mfc42d:MFC42D.DLL
 0004:00000e00       __imp_?FindStringExact@CListBox@@QBEHHPBD@Z 100b3e00     mfc42d:MFC42D.DLL
 0004:00000e04       __imp_?OnCancel@CDialog@@MAEXXZ 100b3e04     mfc42d:MFC42D.DLL
 0004:00000e08       __imp_??8@YG_NABVCString@@PBD@Z 100b3e08     mfc42d:MFC42D.DLL
 0004:00000e0c       __imp_?Left@CString@@QBE?AV1@H@Z 100b3e0c     mfc42d:MFC42D.DLL
 0004:00000e10       __imp_?GetLength@CString@@QBEHXZ 100b3e10     mfc42d:MFC42D.DLL
 0004:00000e14       __imp_?TrimLeft@CString@@QAEXXZ 100b3e14     mfc42d:MFC42D.DLL
 0004:00000e18       __imp_?SetFocus@CWnd@@QAEPAV1@XZ 100b3e18     mfc42d:MFC42D.DLL
 0004:00000e1c       __imp_??8@YG_NABVCString@@0@Z 100b3e1c     mfc42d:MFC42D.DLL
 0004:00000e20       __imp_?OnOK@CDialog@@MAEXXZ 100b3e20     mfc42d:MFC42D.DLL
 0004:00000e24       __imp_?GetText@CListBox@@QBEXHAAVCString@@@Z 100b3e24     mfc42d:MFC42D.DLL
 0004:00000e28       __imp_?GetCurSel@CListBox@@QBEHXZ 100b3e28     mfc42d:MFC42D.DLL
 0004:00000e2c       __imp_?FindStringExact@CComboBox@@QBEHHPBD@Z 100b3e2c     mfc42d:MFC42D.DLL
 0004:00000e30       __imp_?AddString@CListBox@@QAEHPBD@Z 100b3e30     mfc42d:MFC42D.DLL
 0004:00000e34       __imp_?AddString@CComboBox@@QAEHPBD@Z 100b3e34     mfc42d:MFC42D.DLL
 0004:00000e38       __imp_?ResetContent@CComboBox@@QAEXXZ 100b3e38     mfc42d:MFC42D.DLL
 0004:00000e3c       __imp_?DeleteString@CListBox@@QAEHI@Z 100b3e3c     mfc42d:MFC42D.DLL
 0004:00000e40       __imp_?GetCount@CListBox@@QBEHXZ 100b3e40     mfc42d:MFC42D.DLL
 0004:00000e44       __imp_?AddTail@CObList@@QAEPAU__POSITION@@PAVCObject@@@Z 100b3e44     mfc42d:MFC42D.DLL
 0004:00000e48       __imp_?OnCommand@CWnd@@MAEHIJ@Z 100b3e48     mfc42d:MFC42D.DLL
 0004:00000e4c       __imp_?OnHelpInfo@CWnd@@IAEHPAUtagHELPINFO@@@Z 100b3e4c     mfc42d:MFC42D.DLL
 0004:00000e50       __imp_??2CObject@@SGPAXIPBDH@Z 100b3e50     mfc42d:MFC42D.DLL
 0004:00000e54       __imp_??3CObject@@SGXPAXPBDH@Z 100b3e54     mfc42d:MFC42D.DLL
 0004:00000e58       __imp_?UpdateAllViews@CDocument@@QAEXPAVCView@@JPAVCObject@@@Z 100b3e58     mfc42d:MFC42D.DLL
 0004:00000e5c       __imp_??H@YG?AVCString@@ABV0@PBD@Z 100b3e5c     mfc42d:MFC42D.DLL
 0004:00000e60       __imp_??H@YG?AVCString@@PBDABV0@@Z 100b3e60     mfc42d:MFC42D.DLL
 0004:00000e64       __imp_?UpdateWindow@CWnd@@QAEXXZ 100b3e64     mfc42d:MFC42D.DLL
 0004:00000e68       __imp_?Invalidate@CWnd@@QAEXH@Z 100b3e68     mfc42d:MFC42D.DLL
 0004:00000e6c       __imp_?ClientToScreen@CWnd@@QBEXPAUtagPOINT@@@Z 100b3e6c     mfc42d:MFC42D.DLL
 0004:00000e70       __imp_?SetCapture@CWnd@@QAEPAV1@XZ 100b3e70     mfc42d:MFC42D.DLL
 0004:00000e74       __imp_?DeleteObject@CGdiObject@@QAEHXZ 100b3e74     mfc42d:MFC42D.DLL
 0004:00000e78       __imp_?LineTo@CDC@@QAEHUtagPOINT@@@Z 100b3e78     mfc42d:MFC42D.DLL
 0004:00000e7c       __imp_?MoveTo@CDC@@QAE?AVCPoint@@UtagPOINT@@@Z 100b3e7c     mfc42d:MFC42D.DLL
 0004:00000e80       __imp_?SetROP2@CDC@@QAEHH@Z 100b3e80     mfc42d:MFC42D.DLL
 0004:00000e84       __imp_?SelectObject@CDC@@QAEPAVCPen@@PAV2@@Z 100b3e84     mfc42d:MFC42D.DLL
 0004:00000e88       __imp_?CreatePen@CPen@@QAEHHHK@Z 100b3e88     mfc42d:MFC42D.DLL
 0004:00000e8c       __imp_?SetBkMode@CDC@@QAEHH@Z 100b3e8c     mfc42d:MFC42D.DLL
 0004:00000e90       __imp_??0CPen@@QAE@XZ      100b3e90     mfc42d:MFC42D.DLL
 0004:00000e94       __imp_??5CArchive@@QAEAAV0@AAG@Z 100b3e94     mfc42d:MFC42D.DLL
 0004:00000e98       __imp_??5CArchive@@QAEAAV0@AAE@Z 100b3e98     mfc42d:MFC42D.DLL
 0004:00000e9c       __imp_??6CArchive@@QAEAAV0@G@Z 100b3e9c     mfc42d:MFC42D.DLL
 0004:00000ea0       __imp_??6CArchive@@QAEAAV0@E@Z 100b3ea0     mfc42d:MFC42D.DLL
 0004:00000ea4       __imp_?GetAt@CObList@@QAEAAPAVCObject@@PAU__POSITION@@@Z 100b3ea4     mfc42d:MFC42D.DLL
 0004:00000ea8       __imp_?FindIndex@CObList@@QBEPAU__POSITION@@H@Z 100b3ea8     mfc42d:MFC42D.DLL
 0004:00000eac       __imp_?AfxClassInit@@YGXPAUCRuntimeClass@@@Z 100b3eac     mfc42d:MFC42D.DLL
 0004:00000eb0       __imp_?ReadObject@CArchive@@QAEPAVCObject@@PBUCRuntimeClass@@@Z 100b3eb0     mfc42d:MFC42D.DLL
 0004:00000eb4       __imp_?AfxGetApp@@YGPAVCWinApp@@XZ 100b3eb4     mfc42d:MFC42D.DLL
 0004:00000eb8       __imp_??3@YAXPAXPBDH@Z     100b3eb8     mfc42d:MFC42D.DLL
 0004:00000ebc       __imp_?AfxMessageBox@@YGHPBDII@Z 100b3ebc     mfc42d:MFC42D.DLL
 0004:00000ec0       __imp_??BCString@@QBEPBDXZ 100b3ec0     mfc42d:MFC42D.DLL
 0004:00000ec4       __imp_?GetBuffer@CString@@QAEPADH@Z 100b3ec4     mfc42d:MFC42D.DLL
 0004:00000ec8       __imp_??0CString@@QAE@XZ   100b3ec8     mfc42d:MFC42D.DLL
 0004:00000ecc       __imp_??2@YAPAXIPBDH@Z     100b3ecc     mfc42d:MFC42D.DLL
 0004:00000ed0       __imp_?GetCount@CObList@@QBEHXZ 100b3ed0     mfc42d:MFC42D.DLL
 0004:00000ed4       __imp_?DPtoLP@CDC@@QBEXPAUtagPOINT@@H@Z 100b3ed4     mfc42d:MFC42D.DLL
 0004:00000ed8       __imp_??1CPen@@UAE@XZ      100b3ed8     mfc42d:MFC42D.DLL
 0004:00000edc       __imp_?AfxGetMainWnd@@YGPAVCWnd@@XZ 100b3edc     mfc42d:MFC42D.DLL
 0004:00000ee0       __imp_??0CPoint@@QAE@UtagPOINT@@@Z 100b3ee0     mfc42d:MFC42D.DLL
 0004:00000ee4       __imp_?LPtoDP@CDC@@QBEXPAUtagPOINT@@H@Z 100b3ee4     mfc42d:MFC42D.DLL
 0004:00000ee8       __imp_??YCString@@QAEABV0@PBD@Z 100b3ee8     mfc42d:MFC42D.DLL
 0004:00000eec       __imp_??2@YAPAXI@Z         100b3eec     mfc42d:MFC42D.DLL
 0004:00000ef0       __imp_?Serialize@CObject@@UAEXAAVCArchive@@@Z 100b3ef0     mfc42d:MFC42D.DLL
 0004:00000ef4       __imp_??4CString@@QAEABV0@ABV0@@Z 100b3ef4     mfc42d:MFC42D.DLL
 0004:00000ef8       __imp_??0CString@@QAE@ABV0@@Z 100b3ef8     mfc42d:MFC42D.DLL
 0004:00000efc       __imp_??3@YAXPAX@Z         100b3efc     mfc42d:MFC42D.DLL
 0004:00000f00       __imp_??3CObject@@SGXPAX@Z 100b3f00     mfc42d:MFC42D.DLL
 0004:00000f04       __imp_??1CObject@@UAE@XZ   100b3f04     mfc42d:MFC42D.DLL
 0004:00000f08       __imp_?AssertValid@CObject@@UBEXXZ 100b3f08     mfc42d:MFC42D.DLL
 0004:00000f0c       __imp_?Dump@CObject@@UBEXAAVCDumpContext@@@Z 100b3f0c     mfc42d:MFC42D.DLL
 0004:00000f10       __imp_??1CString@@QAE@XZ   100b3f10     mfc42d:MFC42D.DLL
 0004:00000f14       __imp_??1CDialog@@UAE@XZ   100b3f14     mfc42d:MFC42D.DLL
 0004:00000f18       __imp_??4CString@@QAEABV0@PBD@Z 100b3f18     mfc42d:MFC42D.DLL
 0004:00000f1c       __imp_?AfxTrace@@YAXPBDZZ  100b3f1c     mfc42d:MFC42D.DLL
 0004:00000f20       __imp_?IsStoring@CArchive@@QBEHXZ 100b3f20     mfc42d:MFC42D.DLL
 0004:00000f24       __imp_?GetRuntimeClass@CObject@@UBEPAUCRuntimeClass@@XZ 100b3f24     mfc42d:MFC42D.DLL
 0004:00000f28       __imp_?WindowProc@CWnd@@MAEJIIJ@Z 100b3f28     mfc42d:MFC42D.DLL
 0004:00000f2c       __imp_?AfxAssertFailedLine@@YGHPBDH@Z 100b3f2c     mfc42d:MFC42D.DLL
 0004:00000f30       \177MFC42D_NULL_THUNK_DATA 100b3f30     mfc42d:MFC42D.DLL
 0004:00000fdc       __imp_?Serialize@CMouse@@UAEXAAVCArchive@@@Z 100b3fdc     MMgr_D32:MMgr_D32.dll
 0004:00000fe0       __imp_?SetStatusMouseWIC@CMouseMgr@@QAEXULPOINT3@@@Z 100b3fe0     MMgr_D32:MMgr_D32.dll
 0004:00000fe4       __imp_?WICtoWOP@CMouse@@QAEXJPAN@Z 100b3fe4     MMgr_D32:MMgr_D32.dll
 0004:00000fe8       __imp_?WICtoLOG@CMouse@@IAEXPAULPOINT3@@PAULPOINT@@@Z 100b3fe8     MMgr_D32:MMgr_D32.dll
 0004:00000fec       __imp_?SetMouseOldWIC@CMouse@@QAEXULPOINT3@@@Z 100b3fec     MMgr_D32:MMgr_D32.dll
 0004:00000ff0       __imp_?SetMouseWIC@CMouse@@QAEXULPOINT3@@@Z 100b3ff0     MMgr_D32:MMgr_D32.dll
 0004:00000ff4       __imp_?LOGtoWIC@CMouse@@IAEXPAULPOINT3@@PAULPOINT@@@Z 100b3ff4     MMgr_D32:MMgr_D32.dll
 0004:00000ff8       __imp_?WORtoWOP@CMouse@@QAEXPAUWORLD@@0@Z 100b3ff8     MMgr_D32:MMgr_D32.dll
 0004:00000ffc       __imp_??0CMouse@@QAE@XZ    100b3ffc     MMgr_D32:MMgr_D32.dll
 0004:00001000       __imp_??1CMouse@@UAE@XZ    100b4000     MMgr_D32:MMgr_D32.dll
 0004:00001004       __imp_?classCMouse@CMouse@@2UCRuntimeClass@@A 100b4004     MMgr_D32:MMgr_D32.dll
 0004:00001008       __imp_?WORtoWOP@CMouse@@QAEXPAN0@Z 100b4008     MMgr_D32:MMgr_D32.dll
 0004:0000100c       __imp_?IsObjectHit@CMouse@@IAEHHUtagPOINT@@H@Z 100b400c     MMgr_D32:MMgr_D32.dll
 0004:00001010       \177MMgr_D32_NULL_THUNK_DATA 100b4010     MMgr_D32:MMgr_D32.dll
 0004:00001044       __imp_?CalcCentroid@CMI_Gang1@@QAEXPAUWORLD@@0H@Z 100b4044     MMs1_D32:MMs1_D32.dll
 0004:00001048       \177MMs1_D32_NULL_THUNK_DATA 100b4048     MMs1_D32:MMs1_D32.dll
 0004:00001074       __imp____dllonexit         100b4074     msvcrtd:MSVCRTD.dll
 0004:00001078       __imp___onexit             100b4078     msvcrtd:MSVCRTD.dll
 0004:0000107c       __imp__sqrt                100b407c     msvcrtd:MSVCRTD.dll
 0004:00001080       __imp__sprintf             100b4080     msvcrtd:MSVCRTD.dll
 0004:00001084       __imp__memset              100b4084     msvcrtd:MSVCRTD.dll
 0004:00001088       __imp__atof                100b4088     msvcrtd:MSVCRTD.dll
 0004:0000108c       __imp___ftol               100b408c     msvcrtd:MSVCRTD.dll
 0004:00001090       __imp_??1type_info@@UAE@XZ 100b4090     msvcrtd:MSVCRTD.dll
 0004:00001094       __imp___except_handler3    100b4094     msvcrtd:MSVCRTD.dll
 0004:00001098       __imp_?terminate@@YAXXZ    100b4098     msvcrtd:MSVCRTD.dll
 0004:0000109c       __imp___free_dbg           100b409c     msvcrtd:MSVCRTD.dll
 0004:000010a0       __imp___initterm           100b40a0     msvcrtd:MSVCRTD.dll
 0004:000010a4       __imp___malloc_dbg         100b40a4     msvcrtd:MSVCRTD.dll
 0004:000010a8       __imp___adjust_fdiv        100b40a8     msvcrtd:MSVCRTD.dll
 0004:000010ac       __imp____CxxFrameHandler   100b40ac     msvcrtd:MSVCRTD.dll
 0004:000010b0       \177MSVCRTD_NULL_THUNK_DATA 100b40b0     msvcrtd:MSVCRTD.dll
 0004:000010e8       __imp_?GetRuntimeClass@CTriangle@@UBEPAUCRuntimeClass@@XZ 100b40e8     OGen_D32:OGEN_D32.dll
 0004:000010ec       \177OGEN_D32_NULL_THUNK_DATA 100b40ec     OGen_D32:OGEN_D32.dll
 0004:00001118       __imp_?GetObjectIndexfromKey@CObjectMgr@@QAEHHVCString@@I@Z 100b4118     OMgr_D32:OMgr_D32.dll
 0004:0000111c       __imp_?ShowObject_On_Off@CObjectMgr@@QAEHPAVCDrObject@@IH@Z 100b411c     OMgr_D32:OMgr_D32.dll
 0004:00001120       __imp_?GetSpecObject@CObjectMgr@@QAEPAVCDrObject@@H@Z 100b4120     OMgr_D32:OMgr_D32.dll
 0004:00001124       \177OMgr_D32_NULL_THUNK_DATA 100b4124     OMgr_D32:OMgr_D32.dll
 0004:00001150       __imp_?GetFirstObjectPos@CDListMgr@@QAEPAU__POSITION@@XZ 100b4150     Spec_d32:Spec_D32.dll
 0004:00001154       __imp_?GetNextObject@CDListMgr@@QAEPAVCObject@@AAPAU__POSITION@@@Z 100b4154     Spec_d32:Spec_D32.dll
 0004:00001158       __imp_?GetObjectIndex@CDListMgr@@QAEHIVCString@@@Z 100b4158     Spec_d32:Spec_D32.dll
 0004:0000115c       __imp_?GetSpecificObjectCount@CDListMgr@@QAEHH@Z 100b415c     Spec_d32:Spec_D32.dll
 0004:00001160       __imp_?GetObjectA@CDListMgr@@QAEPAVCObject@@H@Z 100b4160     Spec_d32:Spec_D32.dll
 0004:00001164       __imp_??1CDListMgr@@UAE@XZ 100b4164     Spec_d32:Spec_D32.dll
 0004:00001168       __imp_?GetRuntimeClass@CUnit@@UBEPAUCRuntimeClass@@XZ 100b4168     Spec_d32:Spec_D32.dll
 0004:0000116c       __imp_?Serialize@CUnit@@UAEXAAVCArchive@@@Z 100b416c     Spec_d32:Spec_D32.dll
 0004:00001170       __imp_?DoDataView@CUnit@@UAEXPAVCDC@@H@Z 100b4170     Spec_d32:Spec_D32.dll
 0004:00001174       __imp_?Pack_drPipe@CUnit@@UAEXPAVCString@@@Z 100b4174     Spec_d32:Spec_D32.dll
 0004:00001178       __imp_?GetObjectInfo@CUnit@@UAEXPAVCDrObject@@@Z 100b4178     Spec_d32:Spec_D32.dll
 0004:0000117c       __imp_?SetObjectInfo@CUnit@@UAEXPAVCDrObject@@@Z 100b417c     Spec_d32:Spec_D32.dll
 0004:00001180       __imp_?ReadDefaultUnit@CUnit@@UAEXXZ 100b4180     Spec_d32:Spec_D32.dll
 0004:00001184       __imp_?InitUnit@CUnit@@UAEXXZ 100b4184     Spec_d32:Spec_D32.dll
 0004:00001188       __imp_?GetRuntimeClass@CScaleFactor@@UBEPAUCRuntimeClass@@XZ 100b4188     Spec_d32:Spec_D32.dll
 0004:0000118c       __imp_?Serialize@CScaleFactor@@UAEXAAVCArchive@@@Z 100b418c     Spec_d32:Spec_D32.dll
 0004:00001190       __imp_?DoDataView@CScaleFactor@@UAEXPAVCDC@@H@Z 100b4190     Spec_d32:Spec_D32.dll
 0004:00001194       __imp_?Pack_drPipe@CScaleFactor@@UAEXPAVCString@@@Z 100b4194     Spec_d32:Spec_D32.dll
 0004:00001198       __imp_?GetObjectInfo@CScaleFactor@@UAEXPAVCDrObject@@@Z 100b4198     Spec_d32:Spec_D32.dll
 0004:0000119c       __imp_?SetObjectInfo@CScaleFactor@@UAEXPAVCDrObject@@@Z 100b419c     Spec_d32:Spec_D32.dll
 0004:000011a0       __imp_?ReadDefaultScaleFactor@CScaleFactor@@UAEXXZ 100b41a0     Spec_d32:Spec_D32.dll
 0004:000011a4       __imp_?InitScaleFactor@CScaleFactor@@UAEXXZ 100b41a4     Spec_d32:Spec_D32.dll
 0004:000011a8       __imp_?GetRuntimeClass@CPrecision@@UBEPAUCRuntimeClass@@XZ 100b41a8     Spec_d32:Spec_D32.dll
 0004:000011ac       __imp_?Serialize@CPrecision@@UAEXAAVCArchive@@@Z 100b41ac     Spec_d32:Spec_D32.dll
 0004:000011b0       __imp_?DoDataView@CPrecision@@UAEXPAVCDC@@H@Z 100b41b0     Spec_d32:Spec_D32.dll
 0004:000011b4       __imp_?Pack_drPipe@CPrecision@@UAEXPAVCString@@@Z 100b41b4     Spec_d32:Spec_D32.dll
 0004:000011b8       __imp_?GetObjectInfo@CPrecision@@UAEXPAVCDrObject@@@Z 100b41b8     Spec_d32:Spec_D32.dll
 0004:000011bc       __imp_?SetObjectInfo@CPrecision@@UAEXPAVCDrObject@@@Z 100b41bc     Spec_d32:Spec_D32.dll
 0004:000011c0       __imp_?ReadDefaultPrecision@CPrecision@@UAEXXZ 100b41c0     Spec_d32:Spec_D32.dll
 0004:000011c4       __imp_?InitPrecision@CPrecision@@UAEXXZ 100b41c4     Spec_d32:Spec_D32.dll
 0004:000011c8       __imp_?GetRuntimeClass@CMapFactor@@UBEPAUCRuntimeClass@@XZ 100b41c8     Spec_d32:Spec_D32.dll
 0004:000011cc       __imp_?Serialize@CMapFactor@@UAEXAAVCArchive@@@Z 100b41cc     Spec_d32:Spec_D32.dll
 0004:000011d0       __imp_?DoDataView@CMapFactor@@UAEXPAVCDC@@H@Z 100b41d0     Spec_d32:Spec_D32.dll
 0004:000011d4       __imp_?Pack_drPipe@CMapFactor@@UAEXPAVCString@@@Z 100b41d4     Spec_d32:Spec_D32.dll
 0004:000011d8       __imp_?GetObjectInfo@CMapFactor@@UAEXPAVCDrObject@@@Z 100b41d8     Spec_d32:Spec_D32.dll
 0004:000011dc       __imp_?SetObjectInfo@CMapFactor@@UAEXPAVCDrObject@@@Z 100b41dc     Spec_d32:Spec_D32.dll
 0004:000011e0       __imp_?ReadDefaultMapFactor@CMapFactor@@UAEXXZ 100b41e0     Spec_d32:Spec_D32.dll
 0004:000011e4       __imp_?InitMapFactor@CMapFactor@@UAEXXZ 100b41e4     Spec_d32:Spec_D32.dll
 0004:000011e8       __imp_?GetRuntimeClass@CObj3DMnu@@UBEPAUCRuntimeClass@@XZ 100b41e8     Spec_d32:Spec_D32.dll
 0004:000011ec       __imp_?Serialize@CObj3DMnu@@UAEXAAVCArchive@@@Z 100b41ec     Spec_d32:Spec_D32.dll
 0004:000011f0       __imp_?DoDataView@CObj3DMnu@@UAEXPAVCDC@@H@Z 100b41f0     Spec_d32:Spec_D32.dll
 0004:000011f4       __imp_?Pack_drPipe@CObj3DMnu@@UAEXPAVCString@@@Z 100b41f4     Spec_d32:Spec_D32.dll
 0004:000011f8       __imp_?GetObjectInfo@CObj3DMnu@@UAEXPAVCDrObject@@@Z 100b41f8     Spec_d32:Spec_D32.dll
 0004:000011fc       __imp_?SetObjectInfo@CObj3DMnu@@UAEXPAVCDrObject@@@Z 100b41fc     Spec_d32:Spec_D32.dll
 0004:00001200       __imp_?GetObj3DMnuInfo@CObj3DMnu@@UAE?AVCString@@I@Z 100b4200     Spec_d32:Spec_D32.dll
 0004:00001204       __imp_?SetObj3DMnuInfo@CObj3DMnu@@UAEXII@Z 100b4204     Spec_d32:Spec_D32.dll
 0004:00001208       __imp_?GetObj3DMnuIDArray@CObj3DMnu@@UAEXQAVCString@@@Z 100b4208     Spec_d32:Spec_D32.dll
 0004:0000120c       __imp_?SetObj3DMnuIDArray@CObj3DMnu@@UAEXQAVCString@@@Z 100b420c     Spec_d32:Spec_D32.dll
 0004:00001210       __imp_?GetObj3DMnuArray@CObj3DMnu@@UAEXQAY01I@Z 100b4210     Spec_d32:Spec_D32.dll
 0004:00001214       __imp_?SetObj3DMnuArray@CObj3DMnu@@UAEXQAY01I@Z 100b4214     Spec_d32:Spec_D32.dll
 0004:00001218       __imp_?GetObj3DMnuOldArray@CObj3DMnu@@UAEXQAY01I@Z 100b4218     Spec_d32:Spec_D32.dll
 0004:0000121c       __imp_?SetObj3DMnuOldArray@CObj3DMnu@@UAEXQAY01I@Z 100b421c     Spec_d32:Spec_D32.dll
 0004:00001220       __imp_?GetObj3DMnuDefaultArray@CObj3DMnu@@UAEXQAY01I@Z 100b4220     Spec_d32:Spec_D32.dll
 0004:00001224       __imp_?SetObj3DMnuDefaultArray@CObj3DMnu@@UAEXQAY01I@Z 100b4224     Spec_d32:Spec_D32.dll
 0004:00001228       __imp_?ReadDefaultObj3DMnu@CObj3DMnu@@UAEXXZ 100b4228     Spec_d32:Spec_D32.dll
 0004:0000122c       __imp_?InitObj3DMnu@CObj3DMnu@@UAEXXZ 100b422c     Spec_d32:Spec_D32.dll
 0004:00001230       __imp_?GetRuntimeClass@CPatchMnu@@UBEPAUCRuntimeClass@@XZ 100b4230     Spec_d32:Spec_D32.dll
 0004:00001234       __imp_?Serialize@CPatchMnu@@UAEXAAVCArchive@@@Z 100b4234     Spec_d32:Spec_D32.dll
 0004:00001238       __imp_?DoDataView@CPatchMnu@@UAEXPAVCDC@@H@Z 100b4238     Spec_d32:Spec_D32.dll
 0004:0000123c       __imp_?Pack_drPipe@CPatchMnu@@UAEXPAVCString@@@Z 100b423c     Spec_d32:Spec_D32.dll
 0004:00001240       __imp_?GetObjectInfo@CPatchMnu@@UAEXPAVCDrObject@@@Z 100b4240     Spec_d32:Spec_D32.dll
 0004:00001244       __imp_?SetObjectInfo@CPatchMnu@@UAEXPAVCDrObject@@@Z 100b4244     Spec_d32:Spec_D32.dll
 0004:00001248       __imp_?GetPatchMnuInfo@CPatchMnu@@UAE?AVCString@@I@Z 100b4248     Spec_d32:Spec_D32.dll
 0004:0000124c       __imp_?SetPatchMnuInfo@CPatchMnu@@UAEXII@Z 100b424c     Spec_d32:Spec_D32.dll
 0004:00001250       __imp_?GetPatchMnuIDArray@CPatchMnu@@UAEXQAVCString@@@Z 100b4250     Spec_d32:Spec_D32.dll
 0004:00001254       __imp_?SetPatchMnuIDArray@CPatchMnu@@UAEXQAVCString@@@Z 100b4254     Spec_d32:Spec_D32.dll
 0004:00001258       __imp_?GetPatchMnuArray@CPatchMnu@@UAEXQAY01I@Z 100b4258     Spec_d32:Spec_D32.dll
 0004:0000125c       __imp_?SetPatchMnuArray@CPatchMnu@@UAEXQAY01I@Z 100b425c     Spec_d32:Spec_D32.dll
 0004:00001260       __imp_?GetPatchMnuOldArray@CPatchMnu@@UAEXQAY01I@Z 100b4260     Spec_d32:Spec_D32.dll
 0004:00001264       __imp_?SetPatchMnuOldArray@CPatchMnu@@UAEXQAY01I@Z 100b4264     Spec_d32:Spec_D32.dll
 0004:00001268       __imp_?GetPatchMnuDefaultArray@CPatchMnu@@UAEXQAY01I@Z 100b4268     Spec_d32:Spec_D32.dll
 0004:0000126c       __imp_?SetPatchMnuDefaultArray@CPatchMnu@@UAEXQAY01I@Z 100b426c     Spec_d32:Spec_D32.dll
 0004:00001270       __imp_?ReadDefaultPatchMnu@CPatchMnu@@UAEXXZ 100b4270     Spec_d32:Spec_D32.dll
 0004:00001274       __imp_?InitPatchMnu@CPatchMnu@@UAEXXZ 100b4274     Spec_d32:Spec_D32.dll
 0004:00001278       __imp_?GetRuntimeClass@CLayer@@UBEPAUCRuntimeClass@@XZ 100b4278     Spec_d32:Spec_D32.dll
 0004:0000127c       __imp_?Serialize@CLayer@@UAEXAAVCArchive@@@Z 100b427c     Spec_d32:Spec_D32.dll
 0004:00001280       __imp_?DoDataView@CLayer@@UAEXPAVCDC@@H@Z 100b4280     Spec_d32:Spec_D32.dll
 0004:00001284       __imp_?Pack_drPipe@CLayer@@UAEXPAVCString@@@Z 100b4284     Spec_d32:Spec_D32.dll
 0004:00001288       __imp_?GetObjectInfo@CLayer@@UAEXPAVCDrObject@@@Z 100b4288     Spec_d32:Spec_D32.dll
 0004:0000128c       __imp_?SetObjectInfo@CLayer@@UAEXPAVCDrObject@@@Z 100b428c     Spec_d32:Spec_D32.dll
 0004:00001290       __imp_?GetLayerInfo@CLayer@@UAE?AVCString@@I@Z 100b4290     Spec_d32:Spec_D32.dll
 0004:00001294       __imp_?SetLayerInfo@CLayer@@UAEXII@Z 100b4294     Spec_d32:Spec_D32.dll
 0004:00001298       __imp_?GetLayerArray@CLayer@@UAEXQAY01I@Z 100b4298     Spec_d32:Spec_D32.dll
 0004:0000129c       __imp_?SetLayerArray@CLayer@@UAEXQAY01I@Z 100b429c     Spec_d32:Spec_D32.dll
 0004:000012a0       __imp_?GetLayerOldArray@CLayer@@UAEXQAY01I@Z 100b42a0     Spec_d32:Spec_D32.dll
 0004:000012a4       __imp_?SetLayerOldArray@CLayer@@UAEXQAY01I@Z 100b42a4     Spec_d32:Spec_D32.dll
 0004:000012a8       __imp_?GetLayerDefaultArray@CLayer@@UAEXQAY01I@Z 100b42a8     Spec_d32:Spec_D32.dll
 0004:000012ac       __imp_?SetLayerDefaultArray@CLayer@@UAEXQAY01I@Z 100b42ac     Spec_d32:Spec_D32.dll
 0004:000012b0       __imp_?ReadDefaultLayer@CLayer@@UAEXXZ 100b42b0     Spec_d32:Spec_D32.dll
 0004:000012b4       __imp_?InitLayer@CLayer@@UAEXXZ 100b42b4     Spec_d32:Spec_D32.dll
 0004:000012b8       __imp_?GetRuntimeClass@CHitNet@@UBEPAUCRuntimeClass@@XZ 100b42b8     Spec_d32:Spec_D32.dll
 0004:000012bc       __imp_?Serialize@CHitNet@@UAEXAAVCArchive@@@Z 100b42bc     Spec_d32:Spec_D32.dll
 0004:000012c0       __imp_?DoDataView@CHitNet@@UAEXPAVCDC@@H@Z 100b42c0     Spec_d32:Spec_D32.dll
 0004:000012c4       __imp_?Pack_drPipe@CHitNet@@UAEXPAVCString@@@Z 100b42c4     Spec_d32:Spec_D32.dll
 0004:000012c8       __imp_?GetObjectInfo@CHitNet@@UAEXPAVCDrObject@@@Z 100b42c8     Spec_d32:Spec_D32.dll
 0004:000012cc       __imp_?SetObjectInfo@CHitNet@@UAEXPAVCDrObject@@@Z 100b42cc     Spec_d32:Spec_D32.dll
 0004:000012d0       __imp_?GetRuntimeClass@CDrPen@@UBEPAUCRuntimeClass@@XZ 100b42d0     Spec_d32:Spec_D32.dll
 0004:000012d4       __imp_?Serialize@CDrPen@@UAEXAAVCArchive@@@Z 100b42d4     Spec_d32:Spec_D32.dll
 0004:000012d8       __imp_?DoDataView@CDrPen@@UAEXPAVCDC@@H@Z 100b42d8     Spec_d32:Spec_D32.dll
 0004:000012dc       __imp_?Pack_drPipe@CDrPen@@UAEXPAVCString@@@Z 100b42dc     Spec_d32:Spec_D32.dll
 0004:000012e0       __imp_?GetObjectInfo@CDrPen@@UAEXPAVCDrObject@@@Z 100b42e0     Spec_d32:Spec_D32.dll
 0004:000012e4       __imp_?SetObjectInfo@CDrPen@@UAEXPAVCDrObject@@@Z 100b42e4     Spec_d32:Spec_D32.dll
 0004:000012e8       __imp_?ReplacePen@CDrPen@@UAEXXZ 100b42e8     Spec_d32:Spec_D32.dll
 0004:000012ec       __imp_?ReadDefaultDrPen@CDrPen@@UAEXXZ 100b42ec     Spec_d32:Spec_D32.dll
 0004:000012f0       __imp_?InitDrPen@CDrPen@@UAEXXZ 100b42f0     Spec_d32:Spec_D32.dll
 0004:000012f4       __imp_?GetRuntimeClass@CDrFont@@UBEPAUCRuntimeClass@@XZ 100b42f4     Spec_d32:Spec_D32.dll
 0004:000012f8       __imp_?Serialize@CDrFont@@UAEXAAVCArchive@@@Z 100b42f8     Spec_d32:Spec_D32.dll
 0004:000012fc       __imp_?DoDataView@CDrFont@@UAEXPAVCDC@@H@Z 100b42fc     Spec_d32:Spec_D32.dll
 0004:00001300       __imp_?Pack_drPipe@CDrFont@@UAEXPAVCString@@@Z 100b4300     Spec_d32:Spec_D32.dll
 0004:00001304       __imp_?GetObjectInfo@CDrFont@@UAEXPAVCDrObject@@@Z 100b4304     Spec_d32:Spec_D32.dll
 0004:00001308       __imp_?SetObjectInfo@CDrFont@@UAEXPAVCDrObject@@@Z 100b4308     Spec_d32:Spec_D32.dll
 0004:0000130c       __imp_?DoTextFont@CDrFont@@UAEXXZ 100b430c     Spec_d32:Spec_D32.dll
 0004:00001310       __imp_?ReadDefaultDrFont@CDrFont@@UAEXXZ 100b4310     Spec_d32:Spec_D32.dll
 0004:00001314       __imp_?InitDrFont@CDrFont@@UAEXXZ 100b4314     Spec_d32:Spec_D32.dll
 0004:00001318       __imp_?GetRuntimeClass@CDataWindow@@UBEPAUCRuntimeClass@@XZ 100b4318     Spec_d32:Spec_D32.dll
 0004:0000131c       __imp_?Serialize@CDataWindow@@UAEXAAVCArchive@@@Z 100b431c     Spec_d32:Spec_D32.dll
 0004:00001320       __imp_?DoDataView@CDataWindow@@UAEXPAVCDC@@H@Z 100b4320     Spec_d32:Spec_D32.dll
 0004:00001324       __imp_?Pack_drPipe@CDataWindow@@UAEXPAVCString@@@Z 100b4324     Spec_d32:Spec_D32.dll
 0004:00001328       __imp_?GetObjectInfo@CDataWindow@@UAEXPAVCDrObject@@@Z 100b4328     Spec_d32:Spec_D32.dll
 0004:0000132c       __imp_?SetObjectInfo@CDataWindow@@UAEXPAVCDrObject@@@Z 100b432c     Spec_d32:Spec_D32.dll
 0004:00001330       __imp_?SetWinMinMaxWIC@CDataWindow@@UAEXULPOINT3@@@Z 100b4330     Spec_d32:Spec_D32.dll
 0004:00001334       __imp_?SetWinExtWIC@CDataWindow@@UAEXXZ 100b4334     Spec_d32:Spec_D32.dll
 0004:00001338       __imp_?ReadDefaultDataWindow@CDataWindow@@UAEXXZ 100b4338     Spec_d32:Spec_D32.dll
 0004:0000133c       __imp_?InitDataWindow@CDataWindow@@UAEXXZ 100b433c     Spec_d32:Spec_D32.dll
 0004:00001340       __imp_?GetRuntimeClass@CBooleans@@UBEPAUCRuntimeClass@@XZ 100b4340     Spec_d32:Spec_D32.dll
 0004:00001344       __imp_?Serialize@CBooleans@@UAEXAAVCArchive@@@Z 100b4344     Spec_d32:Spec_D32.dll
 0004:00001348       __imp_?DoDataView@CBooleans@@UAEXPAVCDC@@H@Z 100b4348     Spec_d32:Spec_D32.dll
 0004:0000134c       __imp_?Pack_drPipe@CBooleans@@UAEXPAVCString@@@Z 100b434c     Spec_d32:Spec_D32.dll
 0004:00001350       __imp_?GetObjectInfo@CBooleans@@UAEXPAVCDrObject@@@Z 100b4350     Spec_d32:Spec_D32.dll
 0004:00001354       __imp_?SetObjectInfo@CBooleans@@UAEXPAVCDrObject@@@Z 100b4354     Spec_d32:Spec_D32.dll
 0004:00001358       __imp_?IsZoomEnabled@CBooleans@@UAEHH@Z 100b4358     Spec_d32:Spec_D32.dll
 0004:0000135c       __imp_?SetZoomEnabled@CBooleans@@UAEXHH@Z 100b435c     Spec_d32:Spec_D32.dll
 0004:00001360       __imp_?IsZoomOn@CBooleans@@UAEHHH@Z 100b4360     Spec_d32:Spec_D32.dll
 0004:00001364       __imp_?ToggleZoom@CBooleans@@UAEHHH@Z 100b4364     Spec_d32:Spec_D32.dll
 0004:00001368       __imp_?ReadDefaultBooleans@CBooleans@@UAEXXZ 100b4368     Spec_d32:Spec_D32.dll
 0004:0000136c       __imp_?InitBooleans@CBooleans@@UAEXXZ 100b436c     Spec_d32:Spec_D32.dll
 0004:00001370       __imp_??1CDrObject@@UAE@XZ 100b4370     Spec_d32:Spec_D32.dll
 0004:00001374       __imp_?GetLocalCorner@CDrObject@@UAEXPAUWORLD@@H@Z 100b4374     Spec_d32:Spec_D32.dll
 0004:00001378       __imp_?SetLocalCorner@CDrObject@@UAEXPAUWORLD@@H@Z 100b4378     Spec_d32:Spec_D32.dll
 0004:0000137c       __imp_?GetWorldCorner@CDrObject@@UAEXPAUWORLD@@H@Z 100b437c     Spec_d32:Spec_D32.dll
 0004:00001380       __imp_?SetWorldCorner@CDrObject@@UAEXPAUWORLD@@H@Z 100b4380     Spec_d32:Spec_D32.dll
 0004:00001384       __imp_?GetEyeCorner@CDrObject@@UAEXPAUWORLD@@H@Z 100b4384     Spec_d32:Spec_D32.dll
 0004:00001388       __imp_?SetEyeCorner@CDrObject@@UAEXPAUWORLD@@H@Z 100b4388     Spec_d32:Spec_D32.dll
 0004:0000138c       __imp_?GetScreen3DCorner@CDrObject@@UAEXPAUWORLD@@H@Z 100b438c     Spec_d32:Spec_D32.dll
 0004:00001390       __imp_?SetScreen3DCorner@CDrObject@@UAEXPAUWORLD@@H@Z 100b4390     Spec_d32:Spec_D32.dll
 0004:00001394       __imp_?GetRuntimeClass@CMatObj@@UBEPAUCRuntimeClass@@XZ 100b4394     Spec_d32:Spec_D32.dll
 0004:00001398       \177Spec_D32_NULL_THUNK_DATA 100b4398     Spec_d32:Spec_D32.dll
 0004:00001438       __imp__SetCursor@4         100b4438     user32:USER32.dll
 0004:0000143c       __imp__MessageBeep@4       100b443c     user32:USER32.dll
 0004:00001440       __imp__ReleaseCapture@0    100b4440     user32:USER32.dll
 0004:00001444       __imp__SetCursorPos@8      100b4444     user32:USER32.dll
 0004:00001448       __imp__DestroyCursor@4     100b4448     user32:USER32.dll
 0004:0000144c       \177USER32_NULL_THUNK_DATA 100b444c     user32:USER32.dll

 entry point at        0001:0002b570

