 EMgr_d32

 Timestamp is 444d803a (Mon Apr 24 18:49:46 2006)

 Preferred load address is 10000000

 Start         Length     Name                   Class
 0001:00000000 00032a02H .text                   CODE
 0001:00032a10 0000101fH .text$AFX_COL1          CODE
 0001:00033a30 00003056H .text$x                 CODE
 0001:00036a86 0006d10aH .textbss                CODE
 0002:00000000 00004874H .rdata                  DATA
 0002:00004878 00000ef8H .rdata$r                DATA
 0002:00005770 000024f4H .xdata$x                DATA
 0002:00007c70 0001792dH .edata                  DATA
 0003:00000000 00000104H .CRT$XCA                DATA
 0003:00000104 00000130H .CRT$XCU                DATA
 0003:00000234 00000104H .CRT$XCZ                DATA
 0003:00000338 00000104H .CRT$XIA                DATA
 0003:0000043c 00000104H .CRT$XIZ                DATA
 0003:00000540 00000a57H .data                   DATA
 0003:00000f98 00000094H .bss                    DATA
 0004:00000000 00000104H .idata$2                DATA
 0004:00000104 00000014H .idata$3                DATA
 0004:00000118 00000aa4H .idata$4                DATA
 0004:00000bbc 00000aa4H .idata$5                DATA
 0004:00001660 00003703H .idata$6                DATA
 0005:00000000 000008d6H .rsrc$01                DATA
 0005:000008e0 000024d0H .rsrc$02                DATA

  Address         Publics by Value              Rva+Base     Lib:Object

 0001:00004b40       ?GetProbLim@CMouse@@QAE?AW4PROBDIMLIM@@XZ 10005b40 f i CurEdit.obj
 0001:00004b60       ?SetProbLim@CMouse@@QAEXW4PROBDIMLIM@@@Z 10005b60 f i CurEdit.obj
 0001:00004b90       ?GetElemLim@CMouse@@QAE?AW4ELEMDIMLIM@@XZ 10005b90 f i CurEdit.obj
 0001:00004bb0       ?SetElemLim@CMouse@@QAEXW4ELEMDIMLIM@@@Z 10005bb0 f i CurEdit.obj
 0001:00004be0       ?GetCurrentThirdCoord@CMouse@@QAENXZ 10005be0 f i CurEdit.obj
 0001:00004c00       ?SetCurrentThirdCoord@CMouse@@QAEXN@Z 10005c00 f i CurEdit.obj
 0001:00004c30       ?GetMouseWIC@CMouse@@QAE?AULPOINT3@@XZ 10005c30 f i CurEdit.obj
 0001:00004c70       ?GetMouseOldWIC@CMouse@@QAE?AULPOINT3@@XZ 10005c70 f i CurEdit.obj
 0001:00004cb0       ?GetScrolledMouseWIC2D@CMouse@@IAE?AULPOINT@@XZ 10005cb0 f i CurEdit.obj
 0001:00004cf0       ?SetScrolledMouseWIC2D@CMouse@@IAEXULPOINT@@@Z 10005cf0 f i CurEdit.obj
 0001:00004d20       ??1CDlg_NodI@@UAE@XZ       10005d20 f i CurEdit.obj
 0001:00004da0       ?Set3DPts@C3DMath@@QAEXPAULPOINT3@@JJJ@Z 10005da0 f i CurEdit.obj
 0001:00004de0       ?Set3DPts@C3DMath@@QAEXPAUWORLD@@NNN@Z 10005de0 f i CurEdit.obj
 0001:00004e40       ?Len3DPts@C3DMath@@QAENPAUWORLD@@@Z 10005e40 f i CurEdit.obj
 0001:00004ea0       ??1C3DMath@@UAE@XZ         10005ea0 f i CurEdit.obj
 0001:00004ed0       ??_GC3DMath@@UAEPAXI@Z     10005ed0 f i CurEdit.obj
 0001:00004f10       ??_EC3DMath@@UAEPAXI@Z     10005f10 f i CurEdit.obj
 0001:00004fb0       ?GetMatrix@CMatObj@@UAEPAUMATRIX@@XZ 10005fb0 f i CurEdit.obj
 0001:00004fd0       ?SetMatrix@CMatObj@@UAEXPAUMATRIX@@@Z 10005fd0 f i CurEdit.obj
 0001:00005060       ?GetCurveLatch@CMatObj@@UAE?AW4CURVELATCH@@XZ 10006060 f i CurEdit.obj
 0001:00005080       ?SetCurveLatch@CMatObj@@UAEXW4CURVELATCH@@@Z 10006080 f i CurEdit.obj
 0001:000050b0       ?IsInstanced_Prof@CMatObj@@UAEHXZ 100060b0 f i CurEdit.obj
 0001:000050d0       ?SetInstanced_Prof@CMatObj@@UAEXH@Z 100060d0 f i CurEdit.obj
 0001:00005100       ?GetFromID@CMatObj@@UAE?AVCString@@XZ 10006100 f i CurEdit.obj
 0001:00005150       ?SetFromID@CMatObj@@UAEXVCString@@@Z 10006150 f i CurEdit.obj
 0001:000051d0       ?GetFromPt@CMatObj@@UAE?AUWORLD@@XZ 100061d0 f i CurEdit.obj
 0001:00005210       ?SetFromPt@CMatObj@@UAEXUWORLD@@@Z 10006210 f i CurEdit.obj
 0001:00005250       ?GetToID@CMatObj@@UAE?AVCString@@XZ 10006250 f i CurEdit.obj
 0001:000052a0       ?SetToID@CMatObj@@UAEXVCString@@@Z 100062a0 f i CurEdit.obj
 0001:00005320       ?GetToPt@CMatObj@@UAE?AUWORLD@@XZ 10006320 f i CurEdit.obj
 0001:00005360       ?SetToPt@CMatObj@@UAEXUWORLD@@@Z 10006360 f i CurEdit.obj
 0001:000053a0       ?GetRotPtID@CMatObj@@UAE?AVCString@@XZ 100063a0 f i CurEdit.obj
 0001:000053f0       ?SetRotPtID@CMatObj@@UAEXVCString@@@Z 100063f0 f i CurEdit.obj
 0001:00005470       ?GetRotPt@CMatObj@@UAE?AUWORLD@@XZ 10006470 f i CurEdit.obj
 0001:000054b0       ?SetRotPt@CMatObj@@UAEXUWORLD@@@Z 100064b0 f i CurEdit.obj
 0001:000054f0       ?IsCoordIn@CMatObj@@UAEHXZ 100064f0 f i CurEdit.obj
 0001:00005520       ?SetCoordIn@CMatObj@@UAEXH@Z 10006520 f i CurEdit.obj
 0001:00005550       ?GetTranPtID@CMatObj@@UAE?AVCString@@XZ 10006550 f i CurEdit.obj
 0001:000055a0       ?SetTranPtID@CMatObj@@UAEXVCString@@@Z 100065a0 f i CurEdit.obj
 0001:00005620       ?GetTranslation@CMatObj@@UAE?AUWORLD@@XZ 10006620 f i CurEdit.obj
 0001:00005660       ?SetTranslation@CMatObj@@UAEXUWORLD@@@Z 10006660 f i CurEdit.obj
 0001:000056a0       ?IsAngleIn@CMatObj@@UAEHXZ 100066a0 f i CurEdit.obj
 0001:000056d0       ?SetAngleIn@CMatObj@@UAEXH@Z 100066d0 f i CurEdit.obj
 0001:00005700       ?IsDirCos@CMatObj@@UAEHXZ  10006700 f i CurEdit.obj
 0001:00005730       ?SetDirCos@CMatObj@@UAEXH@Z 10006730 f i CurEdit.obj
 0001:00005760       ?GetDirCosDirect@CMatObj@@UAE?AUWORLD@@XZ 10006760 f i CurEdit.obj
 0001:000057a0       ?SetDirCosDirect@CMatObj@@UAEXUWORLD@@@Z 100067a0 f i CurEdit.obj
 0001:000057e0       ?GetRotation@CMatObj@@UAE?AUWORLD@@XZ 100067e0 f i CurEdit.obj
 0001:00005820       ?SetRotation@CMatObj@@UAEXUWORLD@@@Z 10006820 f i CurEdit.obj
 0001:00005860       ?GetScale@CMatObj@@UAE?AUWORLD@@XZ 10006860 f i CurEdit.obj
 0001:000058a0       ?SetScale@CMatObj@@UAEXUWORLD@@@Z 100068a0 f i CurEdit.obj
 0001:000058e0       ?GetShear@CMatObj@@UAE?AUWORLD@@XZ 100068e0 f i CurEdit.obj
 0001:00005920       ?SetShear@CMatObj@@UAEXUWORLD@@@Z 10006920 f i CurEdit.obj
 0001:00005960       ?IsNoRot@CMatObj@@UAEHXZ   10006960 f i CurEdit.obj
 0001:00005990       ?SetNoRot@CMatObj@@UAEXH@Z 10006990 f i CurEdit.obj
 0001:000059c0       ?IsNoTran@CMatObj@@UAEHXZ  100069c0 f i CurEdit.obj
 0001:000059f0       ?SetNoTran@CMatObj@@UAEXH@Z 100069f0 f i CurEdit.obj
 0001:00005a20       ?IsNoScale@CMatObj@@UAEHXZ 10006a20 f i CurEdit.obj
 0001:00005a50       ?SetNoScale@CMatObj@@UAEXH@Z 10006a50 f i CurEdit.obj
 0001:00005a80       ?IsNoShear@CMatObj@@UAEHXZ 10006a80 f i CurEdit.obj
 0001:00005ab0       ?SetNoShear@CMatObj@@UAEXH@Z 10006ab0 f i CurEdit.obj
 0001:00005ae0       ?GetXformType@CMatObj@@UAE?AW4XFORMTYPE@@XZ 10006ae0 f i CurEdit.obj
 0001:00005b10       ?SetXformType@CMatObj@@UAEXW4XFORMTYPE@@@Z 10006b10 f i CurEdit.obj
 0001:00005b40       ?GetSpawnType@CMatObj@@UAE?AW4SPAWNTYPE@@XZ 10006b40 f i CurEdit.obj
 0001:00005b70       ?SetSpawnType@CMatObj@@UAEXW4SPAWNTYPE@@@Z 10006b70 f i CurEdit.obj
 0001:00005ba0       ?GetCreOp@CMatObj@@UAEIXZ  10006ba0 f i CurEdit.obj
 0001:00005bd0       ?SetCreOp@CMatObj@@UAEXI@Z 10006bd0 f i CurEdit.obj
 0001:00005c00       ??1CMatObj@@UAE@XZ         10006c00 f i CurEdit.obj
 0001:00005cc0       ??_GCMatObj@@UAEPAXI@Z     10006cc0 f i CurEdit.obj
 0001:00005d00       ??_ECMatObj@@UAEPAXI@Z     10006d00 f i CurEdit.obj
 0001:00005da0       ?ReadyToDelete@CDrObject@@UAEXXZ 10006da0 f i CurEdit.obj
 0001:00005dc0       ?DoFormattedCardView@CDrObject@@UAEXPAVCString@@AAV2@@Z 10006dc0 f i CurEdit.obj
 0001:00005de0       ?DoUnFormattedCardView@CDrObject@@UAEXPAVCString@@@Z 10006de0 f i CurEdit.obj
 0001:00005e00       ?DoDataView@CDrObject@@UAEXPAVCDC@@H@Z 10006e00 f i CurEdit.obj
 0001:00005e20       ?InitDraw@CDrObject@@UAEXPAVCDC@@HHPAUMATRIX@@1NNN@Z 10006e20 f i CurEdit.obj
 0001:00005e40       ?InitDraw@CDrObject@@UAEXPAVCDC@@HHPAUMATRIX@@1NNNN@Z 10006e40 f i CurEdit.obj
 0001:00005e60       ?Corner_3Dto2D@CDrObject@@UAEXXZ 10006e60 f i CurEdit.obj
 0001:00005e80       ?DoDrawView@CDrObject@@UAEXPAVCDC@@@Z 10006e80 f i CurEdit.obj
 0001:00005ea0       ?DoDrawView@CDrObject@@UAEXPAVCDC@@H@Z 10006ea0 f i CurEdit.obj
 0001:00005ec0       ?DoDrawView@CDrObject@@UAEXPAVCDC@@HH@Z 10006ec0 f i CurEdit.obj
 0001:00005ee0       ?DealObjectDialog@CDrObject@@UAEHXZ 10006ee0 f i CurEdit.obj
 0001:00005f00       ?TransformObjectToWorld@CDrObject@@UAEXPAUMATRIX@@H@Z 10006f00 f i CurEdit.obj
 0001:00005f20       ?TransformObjectToView@CDrObject@@UAEXPAUMATRIX@@@Z 10006f20 f i CurEdit.obj
 0001:00005f40       ?TransformObjectToViewDirect@CDrObject@@UAEXPAUMATRIX@@00H@Z 10006f40 f i CurEdit.obj
 0001:00005f60       ?RemoveHiddenObject@CDrObject@@UAEHPAUMATRIX@@UWORLD@@H@Z 10006f60 f i CurEdit.obj
 0001:00005f80       ?ProjectObject@CDrObject@@UAEXPAUMATRIX@@NN@Z 10006f80 f i CurEdit.obj
 0001:00005fa0       ?Calc_2DBoundsScreen@CDrObject@@UAEHXZ 10006fa0 f i CurEdit.obj
 0001:00005fc0       ?Calc_3DBoundsLocal@CDrObject@@UAEHXZ 10006fc0 f i CurEdit.obj
 0001:00005fe0       ?FinishObject@CDrObject@@UAEXPAVCClientDC@@H@Z 10006fe0 f i CurEdit.obj
 0001:00006000       ?FinishObject@CDrObject@@UAEXH@Z 10007000 f i CurEdit.obj
 0001:00006020       ?FinishObject@CDrObject@@UAEXXZ 10007020 f i CurEdit.obj
 0001:00006040       ?GetMaxCorners@CDrObject@@UAEHXZ 10007040 f i CurEdit.obj
 0001:00006060       ?GetRawCoords@CDrObject@@UAEXPAJPAHH@Z 10007060 f i CurEdit.obj
 0001:00006080       ?SetProjectedCoords@CDrObject@@UAEXUtagPOINT@@H@Z 10007080 f i CurEdit.obj
 0001:000060a0       ?RearrangeProjectedCoords@CDrObject@@UAEXXZ 100070a0 f i CurEdit.obj
 0001:000060c0       ?IsObjectHit@CDrObject@@UAEHNUWORLD@@@Z 100070c0 f i CurEdit.obj
 0001:000060e0       ?IsObjectHit@CDrObject@@UAEHHUtagPOINT@@H@Z 100070e0 f i CurEdit.obj
 0001:00006100       ?IsObjectHit@CDrObject@@UAEHHUtagPOINT@@@Z 10007100 f i CurEdit.obj
 0001:00006120       ?IsObjectHit@CDrObject@@UAEHPAVCClientDC@@HUtagPOINT@@PAVCRect@@H@Z 10007120 f i CurEdit.obj
 0001:00006140       ?IsKeyMatch@CDrObject@@UAEHPAV1@VCString@@I@Z 10007140 f i CurEdit.obj
 0001:00006170       ?IsKeyMatch@CDrObject@@UAEHVCString@@I@Z 10007170 f i CurEdit.obj
 0001:000061a0       ?IsControlShapeNeeded@CDrObject@@UAEHXZ 100071a0 f i CurEdit.obj
 0001:000061c0       ?SetControlShapeNeed@CDrObject@@UAEXH@Z 100071c0 f i CurEdit.obj
 0001:000061e0       ?IsNormalNeeded@CDrObject@@UAEHXZ 100071e0 f i CurEdit.obj
 0001:00006200       ?SetNormalNeed@CDrObject@@UAEXH@Z 10007200 f i CurEdit.obj
 0001:00006220       ?IsCulled@CDrObject@@UAEHXZ 10007220 f i CurEdit.obj
 0001:00006240       ?SetCulled@CDrObject@@UAEXH@Z 10007240 f i CurEdit.obj
 0001:00006260       ?IsSkewed@CDrObject@@UAEHXZ 10007260 f i CurEdit.obj
 0001:00006280       ?SetSkewed@CDrObject@@UAEXH@Z 10007280 f i CurEdit.obj
 0001:000062a0       ?IsLinSpr@CDrObject@@UAEHXZ 100072a0 f i CurEdit.obj
 0001:000062c0       ?SetLinSpr@CDrObject@@UAEXH@Z 100072c0 f i CurEdit.obj
 0001:000062e0       ?IsLinSnu@CDrObject@@UAEHXZ 100072e0 f i CurEdit.obj
 0001:00006300       ?SetLinSnu@CDrObject@@UAEXH@Z 10007300 f i CurEdit.obj
 0001:00006320       ?CullWorld@CDrObject@@UAEHUWORLD@@@Z 10007320 f i CurEdit.obj
 0001:00006340       ?CullScreen@CDrObject@@UAEHPAUMATRIX@@@Z 10007340 f i CurEdit.obj
 0001:00006360       ?Calc_CentroidWorld@CDrObject@@UAEXXZ 10007360 f i CurEdit.obj
 0001:00006380       ?Calc_CentroidEye@CDrObject@@UAEXXZ 10007380 f i CurEdit.obj
 0001:000063a0       ?Calc_CentroidScreen3D@CDrObject@@UAEXNN@Z 100073a0 f i CurEdit.obj
 0001:000063c0       ?Calc_NormalWorld@CDrObject@@UAEXXZ 100073c0 f i CurEdit.obj
 0001:000063e0       ?TransformNormalToEye@CDrObject@@UAEXPAUMATRIX@@@Z 100073e0 f i CurEdit.obj
 0001:00006400       ?ProjectNormalToScreen3D@CDrObject@@UAEXPAUMATRIX@@NN@Z 10007400 f i CurEdit.obj
 0001:00006420       ?GetNormalWorld@CDrObject@@UAEPAUWORLD@@XZ 10007420 f i CurEdit.obj
 0001:00006440       ?SetNormalWorld@CDrObject@@UAEXUWORLD@@@Z 10007440 f i CurEdit.obj
 0001:00006460       ?GetNormalEye@CDrObject@@UAEPAUWORLD@@XZ 10007460 f i CurEdit.obj
 0001:00006480       ?SetNormalEye@CDrObject@@UAEXUWORLD@@@Z 10007480 f i CurEdit.obj
 0001:000064a0       ?GetNormalScreen3D@CDrObject@@UAEPAUWORLD@@XZ 100074a0 f i CurEdit.obj
 0001:000064c0       ?SetNormalScreen3D@CDrObject@@UAEXUWORLD@@@Z 100074c0 f i CurEdit.obj
 0001:000064e0       ?GetNormalScreen2D@CDrObject@@UAEPAUtagPOINT@@XZ 100074e0 f i CurEdit.obj
 0001:00006500       ?SetNormalScreen2D@CDrObject@@UAEXUtagPOINT@@@Z 10007500 f i CurEdit.obj
 0001:00006520       ?GetObjectList@CDrObject@@UAEPAVCDListMgr@@XZ 10007520 f i CurEdit.obj
 0001:00006540       ?GetBoundingRect@CDrObject@@QAE?AVCRect@@XZ 10007540 f i CurEdit.obj
 0001:00006590       ?GetRInfo@CDrObject@@QAEPAURENDINFO@@XZ 10007590 f i CurEdit.obj
 0001:000065b0       ?IsParallel@CDrObject@@QAEHXZ 100075b0 f i CurEdit.obj
 0001:000065e0       ?GetnView@CDrObject@@QAEHXZ 100075e0 f i CurEdit.obj
 0001:00006610       ?GetdzMin@CDrObject@@QAENXZ 10007610 f i CurEdit.obj
 0001:00006640       ?GetdScale_U@CDrObject@@QAENXZ 10007640 f i CurEdit.obj
 0001:00006670       ?GetdScale_V@CDrObject@@QAENXZ 10007670 f i CurEdit.obj
 0001:000066a0       ?GetpViewM@CDrObject@@QAEPAUMATRIX@@XZ 100076a0 f i CurEdit.obj
 0001:000066d0       ?Getpvv3DM@CDrObject@@QAEPAUMATRIX@@XZ 100076d0 f i CurEdit.obj
 0001:00006700       ?GetpComposedM@CDrObject@@QAEPAUMATRIX@@XZ 10007700 f i CurEdit.obj
 0001:00006730       ?SetParallel@CDrObject@@QAEXH@Z 10007730 f i CurEdit.obj
 0001:00006760       ?SetnView@CDrObject@@QAEXH@Z 10007760 f i CurEdit.obj
 0001:00006790       ?SetdzMin@CDrObject@@QAEXN@Z 10007790 f i CurEdit.obj
 0001:000067d0       ?SetdScale_U@CDrObject@@QAEXN@Z 100077d0 f i CurEdit.obj
 0001:00006810       ?SetdScale_V@CDrObject@@QAEXN@Z 10007810 f i CurEdit.obj
 0001:00006850       ?SetpViewM@CDrObject@@QAEXPAUMATRIX@@@Z 10007850 f i CurEdit.obj
 0001:00006890       ?Setpvv3DM@CDrObject@@QAEXPAUMATRIX@@@Z 10007890 f i CurEdit.obj
 0001:000068d0       ?SetpComposedM@CDrObject@@QAEXPAUMATRIX@@@Z 100078d0 f i CurEdit.obj
 0001:00006910       ?GetLevelType@CDrObject@@QAEHXZ 10007910 f i CurEdit.obj
 0001:00006940       ?SetLevelType@CDrObject@@QAEXH@Z 10007940 f i CurEdit.obj
 0001:00006970       ?GetObjectID@CDrObject@@QAE?AVCString@@XZ 10007970 f i CurEdit.obj
 0001:000069c0       ?SetObjectID@CDrObject@@QAEXVCString@@@Z 100079c0 f i CurEdit.obj
 0001:00006a40       ?GetObjectNo@CDrObject@@QAEJXZ 10007a40 f i CurEdit.obj
 0001:00006a70       ?SetObjectNo@CDrObject@@QAEXJ@Z 10007a70 f i CurEdit.obj
 0001:00006aa0       ?GetObjectType@CDrObject@@QAEHXZ 10007aa0 f i CurEdit.obj
 0001:00006ad0       ?SetObjectType@CDrObject@@QAEXH@Z 10007ad0 f i CurEdit.obj
 0001:00006b00       ?GetElemType@CDrObject@@QAEHXZ 10007b00 f i CurEdit.obj
 0001:00006b30       ?SetElemType@CDrObject@@QAEXH@Z 10007b30 f i CurEdit.obj
 0001:00006b60       ?GetPenInfo@CDrObject@@QAEXAAIAAK0@Z 10007b60 f i CurEdit.obj
 0001:00006bb0       ?SetPenInfo@CDrObject@@QAEXIKI@Z 10007bb0 f i CurEdit.obj
 0001:00006c00       ?GetPenInfoHi@CDrObject@@QAEXAAIAAK0@Z 10007c00 f i CurEdit.obj
 0001:00006c50       ?SetPenInfoHi@CDrObject@@QAEXIKI@Z 10007c50 f i CurEdit.obj
 0001:00006ca0       ?GetLayer@CDrObject@@QAEIXZ 10007ca0 f i CurEdit.obj
 0001:00006cd0       ?SetLayer@CDrObject@@QAEXI@Z 10007cd0 f i CurEdit.obj
 0001:00006d00       ?IsClipped@CDrObject@@QAEHXZ 10007d00 f i CurEdit.obj
 0001:00006d30       ?SetClipped@CDrObject@@QAEXH@Z 10007d30 f i CurEdit.obj
 0001:00006d60       ?IsVirtual@CDrObject@@QAEHXZ 10007d60 f i CurEdit.obj
 0001:00006d80       ?SetVirtual@CDrObject@@QAEXH@Z 10007d80 f i CurEdit.obj
 0001:00006db0       ?IsShow@CDrObject@@QAEHXZ  10007db0 f i CurEdit.obj
 0001:00006de0       ?SetShow@CDrObject@@QAEXH@Z 10007de0 f i CurEdit.obj
 0001:00006e10       ?GetParentID@CDrObject@@QAEAAVCString@@XZ 10007e10 f i CurEdit.obj
 0001:00006e30       ?SetParentID@CDrObject@@QAEXAAVCString@@@Z 10007e30 f i CurEdit.obj
 0001:00006e60       ?GetParentType@CDrObject@@QAEIXZ 10007e60 f i CurEdit.obj
 0001:00006e80       ?SetParentType@CDrObject@@QAEXI@Z 10007e80 f i CurEdit.obj
 0001:00006eb0       ?IsInstanced@CDrObject@@QAEHXZ 10007eb0 f i CurEdit.obj
 0001:00006ed0       ?SetInstanced@CDrObject@@QAEXH@Z 10007ed0 f i CurEdit.obj
 0001:00006f00       ?GetMatObj@CDrObject@@QAEPAVCMatObj@@XZ 10007f00 f i CurEdit.obj
 0001:00006f20       ?SetMatObj@CDrObject@@QAEXPAVCMatObj@@@Z 10007f20 f i CurEdit.obj
 0001:00006f50       ?GetSpeLList@CDrObject@@QAEPAVCDListMgr@@XZ 10007f50 f i CurEdit.obj
 0001:00006f80       ?GetDynLList@CDrObject@@QAEPAVCDListMgr@@XZ 10007f80 f i CurEdit.obj
 0001:00006fb0       ?GetStaLList@CDrObject@@QAEPAVCDListMgr@@XZ 10007fb0 f i CurEdit.obj
 0001:00006fe0       ?GetSuppList@CDrObject@@QAEPAVCDListMgr@@XZ 10007fe0 f i CurEdit.obj
 0001:00007010       ?GetElemList@CDrObject@@QAEPAVCDListMgr@@XZ 10008010 f i CurEdit.obj
 0001:00007040       ?GetCurveList@CDrObject@@QAEPAVCDListMgr@@XZ 10008040 f i CurEdit.obj
 0001:00007070       ?GetCProfList@CDrObject@@QAEPAVCDListMgr@@XZ 10008070 f i CurEdit.obj
 0001:000070a0       ?GetPatchList@CDrObject@@QAEPAVCDListMgr@@XZ 100080a0 f i CurEdit.obj
 0001:000070d0       ?GetSolidList@CDrObject@@QAEPAVCDListMgr@@XZ 100080d0 f i CurEdit.obj
 0001:00007100       ?GetObj3DList@CDrObject@@QAEPAVCDListMgr@@XZ 10008100 f i CurEdit.obj
 0001:00007130       ?GetCNodeList@CDrObject@@QAEPAVCDListMgr@@XZ 10008130 f i CurEdit.obj
 0001:00007160       ?GetINodeList@CDrObject@@QAEPAVCDListMgr@@XZ 10008160 f i CurEdit.obj
 0001:00007190       ?GetNodeList@CDrObject@@QAEPAVCDListMgr@@XZ 10008190 f i CurEdit.obj
 0001:000071c0       ?GetLabelList@CDrObject@@QAEPAVCDListMgr@@XZ 100081c0 f i CurEdit.obj
 0001:000071f0       ?GetFE0DList@CDrObject@@QAEPAVCDListMgr@@XZ 100081f0 f i CurEdit.obj
 0001:00007220       ?GetFE1DList@CDrObject@@QAEPAVCDListMgr@@XZ 10008220 f i CurEdit.obj
 0001:00007250       ?GetFE2DList@CDrObject@@QAEPAVCDListMgr@@XZ 10008250 f i CurEdit.obj
 0001:00007280       ?GetFE3DList@CDrObject@@QAEPAVCDListMgr@@XZ 10008280 f i CurEdit.obj
 0001:000072b0       ?GetMs0List@CDrObject@@QAEPAVCDListMgr@@XZ 100082b0 f i CurEdit.obj
 0001:000072e0       ?GetMs1List@CDrObject@@QAEPAVCDListMgr@@XZ 100082e0 f i CurEdit.obj
 0001:00007310       ?GetMs2List@CDrObject@@QAEPAVCDListMgr@@XZ 10008310 f i CurEdit.obj
 0001:00007340       ?GetMs3List@CDrObject@@QAEPAVCDListMgr@@XZ 10008340 f i CurEdit.obj
 0001:00007370       ?GetMbj3DList@CDrObject@@QAEPAVCDListMgr@@XZ 10008370 f i CurEdit.obj
 0001:000073a0       ?GetM2DProfList@CDrObject@@QAEPAVCDListMgr@@XZ 100083a0 f i CurEdit.obj
 0001:000073d0       ?GetM3DProfList@CDrObject@@QAEPAVCDListMgr@@XZ 100083d0 f i CurEdit.obj
 0001:00007400       ?GetMbjProfList@CDrObject@@QAEPAVCDListMgr@@XZ 10008400 f i CurEdit.obj
 0001:00007430       ?GetScreen2DCorner@CDrObject@@UAE?AUtagPOINT@@H@Z 10008430 f i CurEdit.obj
 0001:00007480       ?SetScreen2DCorner@CDrObject@@UAEXUtagPOINT@@H@Z 10008480 f i CurEdit.obj
 0001:000074c0       ?GetSpawnType@CDrObject@@QAE?AW4SPAWNTYPE@@XZ 100084c0 f i CurEdit.obj
 0001:000074e0       ?SetSpawnType@CDrObject@@QAEXW4SPAWNTYPE@@@Z 100084e0 f i CurEdit.obj
 0001:00007510       ?GetCategory@CDrObject@@QAE?AW4CATEGORY@@XZ 10008510 f i CurEdit.obj
 0001:00007530       ?SetCategory@CDrObject@@QAEXW4CATEGORY@@@Z 10008530 f i CurEdit.obj
 0001:00007560       ?GetSubCat@CDrObject@@QAE?AW4SUBCAT@@XZ 10008560 f i CurEdit.obj
 0001:00007580       ?SetSubCat@CDrObject@@QAEXW4SUBCAT@@@Z 10008580 f i CurEdit.obj
 0001:000075b0       ?GetElemDimLim@CDrObject@@QAE?AW4ELEMDIMLIM@@XZ 100085b0 f i CurEdit.obj
 0001:000075d0       ?SetElemDimLim@CDrObject@@QAEXW4ELEMDIMLIM@@@Z 100085d0 f i CurEdit.obj
 0001:00007600       ?IsDirty@CDrObject@@QAEHXZ 10008600 f i CurEdit.obj
 0001:00007630       ?SetDirty@CDrObject@@QAEXH@Z 10008630 f i CurEdit.obj
 0001:00007660       ?IsMoved@CDrObject@@QAEHXZ 10008660 f i CurEdit.obj
 0001:00007690       ?SetMoved@CDrObject@@QAEXH@Z 10008690 f i CurEdit.obj
 0001:000076c0       ?IsEdited@CDrObject@@QAEHXZ 100086c0 f i CurEdit.obj
 0001:000076f0       ?SetEdited@CDrObject@@QAEXH@Z 100086f0 f i CurEdit.obj
 0001:00007720       ?IsPosted@CDrObject@@QAEHXZ 10008720 f i CurEdit.obj
 0001:00007750       ?SetPosted@CDrObject@@QAEXH@Z 10008750 f i CurEdit.obj
 0001:00007780       ?IsDeleted@CDrObject@@QAEHXZ 10008780 f i CurEdit.obj
 0001:000077b0       ?SetDeleted@CDrObject@@QAEXH@Z 100087b0 f i CurEdit.obj
 0001:000077e0       ?IsToBeMoved@CDrObject@@QAEHXZ 100087e0 f i CurEdit.obj
 0001:00007810       ?SetToBeMoved@CDrObject@@QAEXH@Z 10008810 f i CurEdit.obj
 0001:00007830       ?IsToBeEdited@CDrObject@@QAEHXZ 10008830 f i CurEdit.obj
 0001:00007860       ?SetToBeEdited@CDrObject@@QAEXH@Z 10008860 f i CurEdit.obj
 0001:00007880       ?IsToBePosted@CDrObject@@QAEHXZ 10008880 f i CurEdit.obj
 0001:000078b0       ?SetToBePosted@CDrObject@@QAEXH@Z 100088b0 f i CurEdit.obj
 0001:000078d0       ?IsToBeUnPosted@CDrObject@@QAEHXZ 100088d0 f i CurEdit.obj
 0001:00007900       ?SetToBeUnPosted@CDrObject@@QAEXH@Z 10008900 f i CurEdit.obj
 0001:00007920       ?IsToBeDeleted@CDrObject@@QAEHXZ 10008920 f i CurEdit.obj
 0001:00007950       ?SetToBeDeleted@CDrObject@@QAEXH@Z 10008950 f i CurEdit.obj
 0001:00007970       ?IsFormatted@CDrObject@@QAEHXZ 10008970 f i CurEdit.obj
 0001:00007990       ?SetFormatted@CDrObject@@QAEXH@Z 10008990 f i CurEdit.obj
 0001:000079c0       ?Parse_drPipe@CDrNode@@UAEPAUnodecard@@PAVCString@@@Z 100089c0 f i CurEdit.obj
 0001:000079e0       ?GetNodeCard@CDrNode@@UAEPAUnodecard@@XZ 100089e0 f i CurEdit.obj
 0001:00007a10       ?GetCardNo@CDrNode@@UAEHXZ 10008a10 f i CurEdit.obj
 0001:00007a40       ?SetCardNo@CDrNode@@UAEXH@Z 10008a40 f i CurEdit.obj
 0001:00007a70       ?DoFormattedCardView@CDrNode@@UAEXPAVCString@@AAV2@@Z 10008a70 f i CurEdit.obj
 0001:00007a90       ?DoUnFormattedCardView@CDrNode@@UAEXPAVCString@@@Z 10008a90 f i CurEdit.obj
 0001:00007ab0       ?GetMaxCorners@CDrNode@@UAEHXZ 10008ab0 f i CurEdit.obj
 0001:00007ad0       ?GetCategory@CDrNode@@UAE?AW4CATEGORY@@XZ 10008ad0 f i CurEdit.obj
 0001:00007af0       ?SetCategory@CDrNode@@UAEXW4CATEGORY@@@Z 10008af0 f i CurEdit.obj
 0001:00007b20       ?GetPrecision@CDrNode@@UAEHXZ 10008b20 f i CurEdit.obj
 0001:00007b50       ?SetPrecision@CDrNode@@UAEXH@Z 10008b50 f i CurEdit.obj
 0001:00007b80       ?GetFormat@CDrNode@@QAE?AVCString@@XZ 10008b80 f i CurEdit.obj
 0001:00007bd0       ?SetFormat@CDrNode@@QAEXVCString@@@Z 10008bd0 f i CurEdit.obj
 0001:00007c50       ?GetMapFactor@CDrNode@@QAENXZ 10008c50 f i CurEdit.obj
 0001:00007c80       ?SetMapFactor@CDrNode@@QAEXN@Z 10008c80 f i CurEdit.obj
 0001:00007cc0       ?GetScaleFactor@CDrNode@@QAENXZ 10008cc0 f i CurEdit.obj
 0001:00007cf0       ?SetScaleFactor@CDrNode@@QAEXN@Z 10008cf0 f i CurEdit.obj
 0001:00007d30       ?GetMasterMultFac@CDrNode@@QAEJXZ 10008d30 f i CurEdit.obj
 0001:00007d60       ?SetMasterMultFac@CDrNode@@QAEXJ@Z 10008d60 f i CurEdit.obj
 0001:00007d90       ?GetLocalPos@CDrNode@@UAEPAUWORLD@@XZ 10008d90 f i CurEdit.obj
 0001:00007dc0       ?SetLocalPos@CDrNode@@UAEXUWORLD@@@Z 10008dc0 f i CurEdit.obj
 0001:00007e00       ?GetWorldPos@CDrNode@@UAEPAUWORLD@@XZ 10008e00 f i CurEdit.obj
 0001:00007e30       ?SetWorldPos@CDrNode@@UAEXUWORLD@@@Z 10008e30 f i CurEdit.obj
 0001:00007e70       ?GetEyePos@CDrNode@@UAEPAUWORLD@@XZ 10008e70 f i CurEdit.obj
 0001:00007ea0       ?SetEyePos@CDrNode@@UAEXUWORLD@@@Z 10008ea0 f i CurEdit.obj
 0001:00007ee0       ?GetScreenPos3D@CDrNode@@UAEPAUWORLD@@XZ 10008ee0 f i CurEdit.obj
 0001:00007f10       ?SetScreenPos3D@CDrNode@@UAEXUWORLD@@@Z 10008f10 f i CurEdit.obj
 0001:00007f50       ?GetScreenPos2D@CDrNode@@UAEPAUtagPOINT@@XZ 10008f50 f i CurEdit.obj
 0001:00007f80       ?SetScreenPos2D@CDrNode@@UAEXUtagPOINT@@@Z 10008f80 f i CurEdit.obj
 0001:00007fc0       ?GetNormalWorld@CDrNode@@UAEPAUWORLD@@XZ 10008fc0 f i CurEdit.obj
 0001:00007ff0       ?SetNormalWorld@CDrNode@@UAEXUWORLD@@@Z 10008ff0 f i CurEdit.obj
 0001:00008030       ?GetNormalEye@CDrNode@@UAEPAUWORLD@@XZ 10009030 f i CurEdit.obj
 0001:00008060       ?SetNormalEye@CDrNode@@UAEXUWORLD@@@Z 10009060 f i CurEdit.obj
 0001:000080a0       ?GetNormalScreen3D@CDrNode@@UAEPAUWORLD@@XZ 100090a0 f i CurEdit.obj
 0001:000080d0       ?SetNormalScreen3D@CDrNode@@UAEXUWORLD@@@Z 100090d0 f i CurEdit.obj
 0001:00008110       ?GetNormalScreen2D@CDrNode@@UAEPAUtagPOINT@@XZ 10009110 f i CurEdit.obj
 0001:00008140       ?SetNormalScreen2D@CDrNode@@UAEXUtagPOINT@@@Z 10009140 f i CurEdit.obj
 0001:00008180       ?GetLabelNo@CDrNode@@QAEJXZ 10009180 f i CurEdit.obj
 0001:000081b0       ?SetLabelNo@CDrNode@@QAEXJ@Z 100091b0 f i CurEdit.obj
 0001:000081e0       ?IsMeshNode@CDrNode@@QAEHXZ 100091e0 f i CurEdit.obj
 0001:00008210       ?SetMeshNode@CDrNode@@QAEXH@Z 10009210 f i CurEdit.obj
 0001:00008240       ?IsGenerated@CDrNode@@QAEHXZ 10009240 f i CurEdit.obj
 0001:00008270       ?SetGenerated@CDrNode@@QAEXH@Z 10009270 f i CurEdit.obj
 0001:000082a0       ?IsControlNode@CDrNode@@QAEHXZ 100092a0 f i CurEdit.obj
 0001:000082d0       ?SetControlNode@CDrNode@@QAEXH@Z 100092d0 f i CurEdit.obj
 0001:00008310       ?GetInputMode@CDrNode@@QAEHXZ 10009310 f i CurEdit.obj
 0001:00008340       ?SetInputMode@CDrNode@@QAEXH@Z 10009340 f i CurEdit.obj
 0001:00008370       ?GetLength@CDrNode@@QAENXZ 10009370 f i CurEdit.obj
 0001:000083a0       ?SetLength@CDrNode@@QAEXN@Z 100093a0 f i CurEdit.obj
 0001:000083e0       ?GetDelta@CDrNode@@QAEPAUWORLD@@XZ 100093e0 f i CurEdit.obj
 0001:00008410       ?SetDelta@CDrNode@@QAEXUWORLD@@@Z 10009410 f i CurEdit.obj
 0001:00008450       ?GetFromID@CDrNode@@QAE?AVCString@@XZ 10009450 f i CurEdit.obj
 0001:000084a0       ?SetFromID@CDrNode@@QAEXVCString@@@Z 100094a0 f i CurEdit.obj
 0001:00008520       ?GetToID@CDrNode@@QAE?AVCString@@XZ 10009520 f i CurEdit.obj
 0001:00008570       ?SetToID@CDrNode@@QAEXVCString@@@Z 10009570 f i CurEdit.obj
 0001:000085f0       ?IsRefCN@CDrNode@@QAEHXZ   100095f0 f i CurEdit.obj
 0001:00008620       ?SetRefCN@CDrNode@@QAEXH@Z 10009620 f i CurEdit.obj
 0001:00008650       ?IsFromCN@CDrNode@@QAEHXZ  10009650 f i CurEdit.obj
 0001:00008680       ?SetFromCN@CDrNode@@QAEXH@Z 10009680 f i CurEdit.obj
 0001:000086b0       ?IsToCN@CDrNode@@QAEHXZ    100096b0 f i CurEdit.obj
 0001:000086e0       ?SetToCN@CDrNode@@QAEXH@Z  100096e0 f i CurEdit.obj
 0001:00008710       ?IsSkewed@CDrNode@@UAEHXZ  10009710 f i CurEdit.obj
 0001:00008740       ?SetSkewed@CDrNode@@UAEXH@Z 10009740 f i CurEdit.obj
 0001:00008770       ?IsLinSpr@CDrNode@@UAEHXZ  10009770 f i CurEdit.obj
 0001:000087a0       ?SetLinSpr@CDrNode@@UAEXH@Z 100097a0 f i CurEdit.obj
 0001:000087d0       ?IsLinSnu@CDrNode@@UAEHXZ  100097d0 f i CurEdit.obj
 0001:00008800       ?SetLinSnu@CDrNode@@UAEXH@Z 10009800 f i CurEdit.obj
 0001:00008830       ?GetSuppCardList@CDrNode@@QAEPAV?$CList@Usupportcard@@U1@@@XZ 10009830 f i CurEdit.obj
 0001:00008860       ?GetStaLCardList@CDrNode@@QAEPAV?$CList@UstaLcard@@U1@@@XZ 10009860 f i CurEdit.obj
 0001:00008890       ?GetMaxCorners@CDrLabel@@UAEHXZ 10009890 f i CurEdit.obj
 0001:000088b0       ?SetProjectedCoords@CDrLabel@@UAEXUtagPOINT@@H@Z 100098b0 f i CurEdit.obj
 0001:000088f0       ?IsMoved@CDrLabel@@UAEHXZ  100098f0 f i CurEdit.obj
 0001:00008920       ?SetMoved@CDrLabel@@UAEXH@Z 10009920 f i CurEdit.obj
 0001:00008950       ?GetNodePtr@CDrLabel@@UAEPAVCDrNode@@XZ 10009950 f i CurEdit.obj
 0001:00008980       ?SetNodePtr@CDrLabel@@UAEXPAVCDrNode@@@Z 10009980 f i CurEdit.obj
 0001:000089b0       ?GetContextObj@CDrLabel@@UAE?AW4CONTEXTOBJ@@XZ 100099b0 f i CurEdit.obj
 0001:000089e0       ?SetContextObj@CDrLabel@@UAEXW4CONTEXTOBJ@@@Z 100099e0 f i CurEdit.obj
 0001:00008a10       ?GetMeshElemType@CDrLabel@@UAEIXZ 10009a10 f i CurEdit.obj
 0001:00008a40       ?SetMeshElemType@CDrLabel@@UAEXI@Z 10009a40 f i CurEdit.obj
 0001:00008a70       ?GetColor@CDrLabel@@UAEKXZ 10009a70 f i CurEdit.obj
 0001:00008aa0       ?SetColor@CDrLabel@@UAEXK@Z 10009aa0 f i CurEdit.obj
 0001:00008ad0       ?GetViewNum@CDrLabel@@UAEHXZ 10009ad0 f i CurEdit.obj
 0001:00008b00       ?SetViewNum@CDrLabel@@UAEXH@Z 10009b00 f i CurEdit.obj
 0001:00008b30       ?GetType@CDrLabel@@UAEHXZ  10009b30 f i CurEdit.obj
 0001:00008b60       ?SetType@CDrLabel@@UAEXH@Z 10009b60 f i CurEdit.obj
 0001:00008b90       ?GetText@CDrLabel@@UAE?AVCString@@XZ 10009b90 f i CurEdit.obj
 0001:00008be0       ?SetText@CDrLabel@@UAEXVCString@@@Z 10009be0 f i CurEdit.obj
 0001:00008c60       ?SetLogFont@CDrLabel@@UAEXUtagLOGFONTA@@@Z 10009c60 f i CurEdit.obj
 0001:00008ca0       ?GetLogFont@CDrLabel@@UAE?AUtagLOGFONTA@@XZ 10009ca0 f i CurEdit.obj
 0001:00008ce0       ?GetOtherCorner@CDrLabel@@UAE?AUtagPOINT@@XZ 10009ce0 f i CurEdit.obj
 0001:00008d20       ?SetOtherCorner@CDrLabel@@UAEXUtagPOINT@@@Z 10009d20 f i CurEdit.obj
 0001:00008d60       ?GetAngle@CDrLabel@@UAEHXZ 10009d60 f i CurEdit.obj
 0001:00008d90       ?SetAngle@CDrLabel@@UAEXH@Z 10009d90 f i CurEdit.obj
 0001:00008dc0       ??1CDrLabel@@UAE@XZ        10009dc0 f i CurEdit.obj
 0001:00008e40       ??_GCDrLabel@@UAEPAXI@Z    10009e40 f i CurEdit.obj
 0001:00008e80       ??_ECDrLabel@@UAEPAXI@Z    10009e80 f i CurEdit.obj
 0001:00008f20       ??1CDlg_LQCI@@UAE@XZ       10009f20 f i CurEdit.obj
 0001:00008fa0       ??1CDlg_CrcI@@UAE@XZ       10009fa0 f i CurEdit.obj
 0001:00009020       ?IsDirty@CDrCurve@@UAEHXZ  1000a020 f i CurEdit.obj
 0001:00009050       ?SetDirty@CDrCurve@@UAEXH@Z 1000a050 f i CurEdit.obj
 0001:00009080       ?IsControlShapeNeeded@CDrCurve@@UAEHXZ 1000a080 f i CurEdit.obj
 0001:000090b0       ?SetControlShapeNeed@CDrCurve@@UAEXH@Z 1000a0b0 f i CurEdit.obj
 0001:000090e0       ?IsPosted@CDrCurve@@UAEHXZ 1000a0e0 f i CurEdit.obj
 0001:00009110       ?SetPosted@CDrCurve@@UAEXH@Z 1000a110 f i CurEdit.obj
 0001:00009140       ?GetCN_BSList@CDrCurve@@QAEPAVCDListMgr@@XZ 1000a140 f i CurEdit.obj
 0001:00009170       ?GetVNodeList@CDrCurve@@QAEPAVCDListMgr@@XZ 1000a170 f i CurEdit.obj
 0001:000091a0       ?GetMeshElemDim@CDrCurve@@QAEHXZ 1000a1a0 f i CurEdit.obj
 0001:000091d0       ?SetMeshElemDim@CDrCurve@@QAEXH@Z 1000a1d0 f i CurEdit.obj
 0001:00009200       ?IsIso@CDrCurve@@QAEHXZ    1000a200 f i CurEdit.obj
 0001:00009230       ?SetIso@CDrCurve@@QAEXH@Z  1000a230 f i CurEdit.obj
 0001:00009260       ?GetIsoToID@CDrCurve@@QAEAAVCString@@XZ 1000a260 f i CurEdit.obj
 0001:00009290       ?SetIsoToID@CDrCurve@@QAEXAAVCString@@@Z 1000a290 f i CurEdit.obj
 0001:000092c0       ?GetCompoType@CDrCurve@@QAEHXZ 1000a2c0 f i CurEdit.obj
 0001:000092f0       ?SetCompoType@CDrCurve@@QAEXH@Z 1000a2f0 f i CurEdit.obj
 0001:00009320       ?GetCompoID@CDrCurve@@QAEAAVCString@@XZ 1000a320 f i CurEdit.obj
 0001:00009350       ?SetCompoID@CDrCurve@@QAEXAAVCString@@@Z 1000a350 f i CurEdit.obj
 0001:00009380       ?GetClass_S@CDrCurve@@QAEHXZ 1000a380 f i CurEdit.obj
 0001:000093b0       ?SetClass_S@CDrCurve@@QAEXH@Z 1000a3b0 f i CurEdit.obj
 0001:000093e0       ?GetOutSegUnif_S@CDrCurve@@QAEHXZ 1000a3e0 f i CurEdit.obj
 0001:00009410       ?SetOutSegUnif_S@CDrCurve@@QAEXH@Z 1000a410 f i CurEdit.obj
 0001:00009440       ?IsClosed_S@CDrCurve@@QAEHXZ 1000a440 f i CurEdit.obj
 0001:00009470       ?SetClosed_S@CDrCurve@@QAEXH@Z 1000a470 f i CurEdit.obj
 0001:000094a0       ?GetCurveObjectType@CDrCurve@@QAEHXZ 1000a4a0 f i CurEdit.obj
 0001:000094d0       ?SetCurveObjectType@CDrCurve@@QAEXH@Z 1000a4d0 f i CurEdit.obj
 0001:00009500       ?GetMaxINodes_S@CDrCurve@@QAEHXZ 1000a500 f i CurEdit.obj
 0001:00009530       ?SetMaxINodes_S@CDrCurve@@QAEXH@Z 1000a530 f i CurEdit.obj
 0001:00009560       ?GetMaxCNodes_S@CDrCurve@@QAEHXZ 1000a560 f i CurEdit.obj
 0001:00009590       ?SetMaxCNodes_S@CDrCurve@@QAEXH@Z 1000a590 f i CurEdit.obj
 0001:000095c0       ?GetMaxBezSegments_S@CDrCurve@@QAEHXZ 1000a5c0 f i CurEdit.obj
 0001:000095f0       ?SetMaxBezSegments_S@CDrCurve@@QAEXH@Z 1000a5f0 f i CurEdit.obj
 0001:00009620       ?GetMaxOutPts_S@CDrCurve@@QAEHXZ 1000a620 f i CurEdit.obj
 0001:00009650       ?SetMaxOutPts_S@CDrCurve@@QAEXH@Z 1000a650 f i CurEdit.obj
 0001:00009680       ?GetLongOutPts@CDrCurve@@QAEJXZ 1000a680 f i CurEdit.obj
 0001:000096b0       ?SetLongOutPts@CDrCurve@@QAEXJ@Z 1000a6b0 f i CurEdit.obj
 0001:000096e0       ?GetCurveType_S@CDrCurve@@QAE?AW4CURVEPROC@@XZ 1000a6e0 f i CurEdit.obj
 0001:00009710       ?SetCurveType_S@CDrCurve@@QAEXW4CURVEPROC@@@Z 1000a710 f i CurEdit.obj
 0001:00009740       ?GetOutMethod@CDrCurve@@QAE?AW4CURVEOUTPUT@@XZ 1000a740 f i CurEdit.obj
 0001:00009770       ?GetAlfa@CDrCurve@@QAENXZ  1000a770 f i CurEdit.obj
 0001:000097a0       ?GetBias@CDrCurve@@QAENXZ  1000a7a0 f i CurEdit.obj
 0001:000097d0       ?GetTension@CDrCurve@@QAENXZ 1000a7d0 f i CurEdit.obj
 0001:00009800       ?IsUniform_S@CDrCurve@@QAEHXZ 1000a800 f i CurEdit.obj
 0001:00009830       ?SetUniform_S@CDrCurve@@QAEXH@Z 1000a830 f i CurEdit.obj
 0001:00009860       ?SetOutMethod_S@CDrCurve@@QAEXW4CURVEOUTPUT@@@Z 1000a860 f i CurEdit.obj
 0001:00009890       ?GetMaxOutSeg_S@CDrCurve@@QAEHXZ 1000a890 f i CurEdit.obj
 0001:000098c0       ?SetMaxOutSeg_S@CDrCurve@@QAEXH@Z 1000a8c0 f i CurEdit.obj
 0001:000098f0       ?GetDis_AngPointer_S@CDrCurve@@QAEPANXZ 1000a8f0 f i CurEdit.obj
 0001:00009920       ?SetDis_AngPointer_S@CDrCurve@@QAEXPAN@Z 1000a920 f i CurEdit.obj
 0001:00009950       ?GetNum_tPointer_S@CDrCurve@@QAEPAHXZ 1000a950 f i CurEdit.obj
 0001:00009980       ?SetNum_tPointer_S@CDrCurve@@QAEXPAH@Z 1000a980 f i CurEdit.obj
 0001:000099b0       ?GetDis_tPointer_S@CDrCurve@@QAEPANXZ 1000a9b0 f i CurEdit.obj
 0001:000099e0       ?SetDis_tPointer_S@CDrCurve@@QAEXPAN@Z 1000a9e0 f i CurEdit.obj
 0001:00009a10       ?GetNum_tPointer_Ex_S@CDrCurve@@QAEPAHXZ 1000aa10 f i CurEdit.obj
 0001:00009a40       ?SetNum_tPointer_Ex_S@CDrCurve@@QAEXPAH@Z 1000aa40 f i CurEdit.obj
 0001:00009a70       ?GetnBSeg_Ex_S@CDrCurve@@QAEHXZ 1000aa70 f i CurEdit.obj
 0001:00009aa0       ?SetnBSeg_Ex_S@CDrCurve@@QAEXH@Z 1000aaa0 f i CurEdit.obj
 0001:00009ad0       ?GetBSegPointer_Ex_S@CDrCurve@@QAEPAHXZ 1000aad0 f i CurEdit.obj
 0001:00009b00       ?SetBSegPointer_Ex_S@CDrCurve@@QAEXPAH@Z 1000ab00 f i CurEdit.obj
 0001:00009b30       ?SetAlfa@CDrCurve@@QAEXN@Z 1000ab30 f i CurEdit.obj
 0001:00009b70       ?SetBias@CDrCurve@@QAEXN@Z 1000ab70 f i CurEdit.obj
 0001:00009bb0       ?SetTension@CDrCurve@@QAEXN@Z 1000abb0 f i CurEdit.obj
 0001:00009bf0       ?GetMemIn@CDrCurve@@QAEPAUWORLD@@XZ 1000abf0 f i CurEdit.obj
 0001:00009c20       ?GetMemInWts@CDrCurve@@QAEPANXZ 1000ac20 f i CurEdit.obj
 0001:00009c50       ?GetMemInDP@CDrCurve@@QAEPAUtagPOINT@@XZ 1000ac50 f i CurEdit.obj
 0001:00009c80       ?GetMemOut@CDrCurve@@QAEPAUWORLD@@XZ 1000ac80 f i CurEdit.obj
 0001:00009cb0       ?GetMemOutWts@CDrCurve@@QAEPANXZ 1000acb0 f i CurEdit.obj
 0001:00009ce0       ?GetMemOutDP@CDrCurve@@QAEPAUtagPOINT@@XZ 1000ace0 f i CurEdit.obj
 0001:00009d10       ?SetMemIn@CDrCurve@@QAEXPAUWORLD@@@Z 1000ad10 f i CurEdit.obj
 0001:00009d40       ?SetMemInWts@CDrCurve@@QAEXPAN@Z 1000ad40 f i CurEdit.obj
 0001:00009d70       ?SetMemInDP@CDrCurve@@QAEXPAUtagPOINT@@@Z 1000ad70 f i CurEdit.obj
 0001:00009da0       ?SetMemOut@CDrCurve@@QAEXPAUWORLD@@@Z 1000ada0 f i CurEdit.obj
 0001:00009dd0       ?SetMemOutWts@CDrCurve@@QAEXPAN@Z 1000add0 f i CurEdit.obj
 0001:00009e00       ?SetMemOutDP@CDrCurve@@QAEXPAUtagPOINT@@@Z 1000ae00 f i CurEdit.obj
 0001:00009e30       ?FixMemD@CDrCurve@@QAEPANJ@Z 1000ae30 f i CurEdit.obj
 0001:00009e80       ?FreeMemD@CDrCurve@@QAEXPAN@Z 1000ae80 f i CurEdit.obj
 0001:00009eb0       ?FixMem@CDrCurve@@QAEPAUWORLD@@J@Z 1000aeb0 f i CurEdit.obj
 0001:00009f00       ?FreeMem@CDrCurve@@QAEXPAUWORLD@@@Z 1000af00 f i CurEdit.obj
 0001:00009f30       ?FixMemDP@CDrCurve@@QAEPAUtagPOINT@@J@Z 1000af30 f i CurEdit.obj
 0001:00009f80       ?FreeMemDP@CDrCurve@@QAEXPAUtagPOINT@@@Z 1000af80 f i CurEdit.obj
 0001:00009fb0       ?GetData_S@CDrCurve@@QAEHXZ 1000afb0 f i CurEdit.obj
 0001:00009fe0       ?SetData_S@CDrCurve@@QAEXH@Z 1000afe0 f i CurEdit.obj
 0001:0000a010       ?GetOrder_S@CDrCurve@@QAEHXZ 1000b010 f i CurEdit.obj
 0001:0000a040       ?SetOrder_S@CDrCurve@@QAEXH@Z 1000b040 f i CurEdit.obj
 0001:0000a070       ?GetKnotType_S@CDrCurve@@QAE?AW4KNOT@@XZ 1000b070 f i CurEdit.obj
 0001:0000a0a0       ?SetKnotType_S@CDrCurve@@QAEXW4KNOT@@@Z 1000b0a0 f i CurEdit.obj
 0001:0000a0d0       ?GetWtType_S@CDrCurve@@QAE?AW4WEIGHT@@XZ 1000b0d0 f i CurEdit.obj
 0001:0000a100       ?SetWtType_S@CDrCurve@@QAEXW4WEIGHT@@@Z 1000b100 f i CurEdit.obj
 0001:0000a130       ?GetBCL_S@CDrCurve@@QAE?AW4BOUNDARY@@XZ 1000b130 f i CurEdit.obj
 0001:0000a160       ?SetBCL_S@CDrCurve@@QAEXW4BOUNDARY@@@Z 1000b160 f i CurEdit.obj
 0001:0000a190       ?GetBCR_S@CDrCurve@@QAE?AW4BOUNDARY@@XZ 1000b190 f i CurEdit.obj
 0001:0000a1c0       ?SetBCR_S@CDrCurve@@QAEXW4BOUNDARY@@@Z 1000b1c0 f i CurEdit.obj
 0001:0000a1f0       ?GetTanL_S@CDrCurve@@QAE?AUVECTOR@@XZ 1000b1f0 f i CurEdit.obj
 0001:0000a230       ?SetTanL_S@CDrCurve@@QAEXUVECTOR@@@Z 1000b230 f i CurEdit.obj
 0001:0000a270       ?GetTanR_S@CDrCurve@@QAE?AUVECTOR@@XZ 1000b270 f i CurEdit.obj
 0001:0000a2b0       ?SetTanR_S@CDrCurve@@QAEXUVECTOR@@@Z 1000b2b0 f i CurEdit.obj
 0001:0000a2f0       ?GetnCon_BS_S@CDrCurve@@QAEHXZ 1000b2f0 f i CurEdit.obj
 0001:0000a320       ?SetnCon_BS_S@CDrCurve@@QAEXH@Z 1000b320 f i CurEdit.obj
 0001:0000a350       ?GetnCon_BZ_S@CDrCurve@@QAEHXZ 1000b350 f i CurEdit.obj
 0001:0000a380       ?SetnCon_BZ_S@CDrCurve@@QAEXH@Z 1000b380 f i CurEdit.obj
 0001:0000a3b0       ?GetnMKnots_S@CDrCurve@@QAEHXZ 1000b3b0 f i CurEdit.obj
 0001:0000a3e0       ?SetnMKnots_S@CDrCurve@@QAEXH@Z 1000b3e0 f i CurEdit.obj
 0001:0000a410       ?GetnKnots_S@CDrCurve@@QAEHXZ 1000b410 f i CurEdit.obj
 0001:0000a440       ?SetnKnots_S@CDrCurve@@QAEXH@Z 1000b440 f i CurEdit.obj
 0001:0000a470       ?GetnDim_S@CDrCurve@@QAEHXZ 1000b470 f i CurEdit.obj
 0001:0000a4a0       ?SetnDim_S@CDrCurve@@QAEXH@Z 1000b4a0 f i CurEdit.obj
 0001:0000a4d0       ?GetpMKnots_S@CDrCurve@@QAEPANXZ 1000b4d0 f i CurEdit.obj
 0001:0000a500       ?SetpMKnots_S@CDrCurve@@QAEXPAN@Z 1000b500 f i CurEdit.obj
 0001:0000a530       ?GetpWts_BS_S@CDrCurve@@QAEPANXZ 1000b530 f i CurEdit.obj
 0001:0000a560       ?SetpWts_BS_S@CDrCurve@@QAEXPAN@Z 1000b560 f i CurEdit.obj
 0001:0000a590       ?GetpKnots_S@CDrCurve@@QAEPANXZ 1000b590 f i CurEdit.obj
 0001:0000a5c0       ?SetpKnots_S@CDrCurve@@QAEXPAN@Z 1000b5c0 f i CurEdit.obj
 0001:0000a5f0       ?GetpWts_DT_S@CDrCurve@@QAEPANXZ 1000b5f0 f i CurEdit.obj
 0001:0000a620       ?SetpWts_DT_S@CDrCurve@@QAEXPAN@Z 1000b620 f i CurEdit.obj
 0001:0000a650       ?GetpWts_BZ_S@CDrCurve@@QAEPANXZ 1000b650 f i CurEdit.obj
 0001:0000a680       ?SetpWts_BZ_S@CDrCurve@@QAEXPAN@Z 1000b680 f i CurEdit.obj
 0001:0000a6b0       ?GetFromIDNode_S@CDrCurve@@QAEPAVCDrNode@@XZ 1000b6b0 f i CurEdit.obj
 0001:0000a6e0       ?SetFromIDNode_S@CDrCurve@@QAEXPAVCDrNode@@@Z 1000b6e0 f i CurEdit.obj
 0001:0000a710       ?GetToIDNode_S@CDrCurve@@QAEPAVCDrNode@@XZ 1000b710 f i CurEdit.obj
 0001:0000a740       ?SetToIDNode_S@CDrCurve@@QAEXPAVCDrNode@@@Z 1000b740 f i CurEdit.obj
 0001:0000a770       ?GetData_Ex_S@CDrCurve@@QAEHXZ 1000b770 f i CurEdit.obj
 0001:0000a7a0       ?SetData_Ex_S@CDrCurve@@QAEXH@Z 1000b7a0 f i CurEdit.obj
 0001:0000a7d0       ?IsExpanded_S@CDrCurve@@QAEHXZ 1000b7d0 f i CurEdit.obj
 0001:0000a800       ?SetExpanded_S@CDrCurve@@QAEXH@Z 1000b800 f i CurEdit.obj
 0001:0000a830       ?GetMaxENodes_S@CDrCurve@@QAEHXZ 1000b830 f i CurEdit.obj
 0001:0000a860       ?SetMaxENodes_S@CDrCurve@@QAEXH@Z 1000b860 f i CurEdit.obj
 0001:0000a890       ?GetRadius_S@CDrCurve@@QAENXZ 1000b890 f i CurEdit.obj
 0001:0000a8c0       ?SetRadius_S@CDrCurve@@QAEXN@Z 1000b8c0 f i CurEdit.obj
 0001:0000a900       ?GetTheta_S@CDrCurve@@QAENXZ 1000b900 f i CurEdit.obj
 0001:0000a930       ?SetTheta_S@CDrCurve@@QAEXN@Z 1000b930 f i CurEdit.obj
 0001:0000a970       ?GetCenter_S@CDrCurve@@QAE?AUWORLD@@XZ 1000b970 f i CurEdit.obj
 0001:0000a9b0       ?SetCenter_S@CDrCurve@@QAEXUWORLD@@@Z 1000b9b0 f i CurEdit.obj
 0001:0000aa20       ?GetNormal_S@CDrCurve@@QAE?AUWORLD@@XZ 1000ba20 f i CurEdit.obj
 0001:0000aa60       ?SetNormal_S@CDrCurve@@QAEXUWORLD@@@Z 1000ba60 f i CurEdit.obj
 0001:0000aad0       ?GetSegAngle_S@CDrCurve@@QAENXZ 1000bad0 f i CurEdit.obj
 0001:0000ab00       ?SetSegAngle_S@CDrCurve@@QAEXN@Z 1000bb00 f i CurEdit.obj
 0001:0000ab40       ?GetCNode_CC@CDrCurve@@QAEPAVCDrNode@@XZ 1000bb40 f i CurEdit.obj
 0001:0000ab70       ?SetCNode_CC@CDrCurve@@QAEXPAVCDrNode@@@Z 1000bb70 f i CurEdit.obj
 0001:0000aba0       ?GetCNode_TI@CDrCurve@@QAEPAVCDrNode@@XZ 1000bba0 f i CurEdit.obj
 0001:0000abd0       ?SetCNode_TI@CDrCurve@@QAEXPAVCDrNode@@@Z 1000bbd0 f i CurEdit.obj
 0001:0000ac00       ?GetCNode_CA@CDrCurve@@QAEPAVCDrNode@@XZ 1000bc00 f i CurEdit.obj
 0001:0000ac30       ?SetCNode_CA@CDrCurve@@QAEXPAVCDrNode@@@Z 1000bc30 f i CurEdit.obj
 0001:0000ac60       ?GetCNode_CB@CDrCurve@@QAEPAVCDrNode@@XZ 1000bc60 f i CurEdit.obj
 0001:0000ac90       ?SetCNode_CB@CDrCurve@@QAEXPAVCDrNode@@@Z 1000bc90 f i CurEdit.obj
 0001:0000acc0       ?IsHole_S@CDrCurve@@QAEHXZ 1000bcc0 f i CurEdit.obj
 0001:0000acf0       ?SetHole_S@CDrCurve@@QAEXH@Z 1000bcf0 f i CurEdit.obj
 0001:0000ad20       ?GetpTangents_S@CDrCurve@@QAEPAUWORLD@@XZ 1000bd20 f i CurEdit.obj
 0001:0000ad50       ?SetpTangents_S@CDrCurve@@QAEXPAUWORLD@@@Z 1000bd50 f i CurEdit.obj
 0001:0000ad80       ?GetpCurvatures_S@CDrCurve@@QAEPANXZ 1000bd80 f i CurEdit.obj
 0001:0000adb0       ?SetpCurvatures_S@CDrCurve@@QAEXPAN@Z 1000bdb0 f i CurEdit.obj
 0001:0000ade0       ?GetRatio_S@CDrCurve@@QAENXZ 1000bde0 f i CurEdit.obj
 0001:0000ae10       ?SetRatio_S@CDrCurve@@QAEXN@Z 1000be10 f i CurEdit.obj
 0001:0000ae50       ?IsAxisInput@CDrCurve@@QAEHXZ 1000be50 f i CurEdit.obj
 0001:0000ae80       ?SetAxisInput@CDrCurve@@QAEXH@Z 1000be80 f i CurEdit.obj
 0001:0000aeb0       ?GetAxis@CDrCurve@@QAEHXZ  1000beb0 f i CurEdit.obj
 0001:0000aee0       ?SetAxis@CDrCurve@@QAEXH@Z 1000bee0 f i CurEdit.obj
 0001:0000af10       ?IsNegative@CDrCurve@@QAEHXZ 1000bf10 f i CurEdit.obj
 0001:0000af40       ?SetNegative@CDrCurve@@QAEXH@Z 1000bf40 f i CurEdit.obj
 0001:0000af70       ?GetCircleType@CDrCurve@@QAE?AW4CIRCLETYPE@@XZ 1000bf70 f i CurEdit.obj
 0001:0000afa0       ?SetCircleType@CDrCurve@@QAEXW4CIRCLETYPE@@@Z 1000bfa0 f i CurEdit.obj
 0001:0000afd0       ?GetInputType@CDrCurve@@QAEHXZ 1000bfd0 f i CurEdit.obj
 0001:0000b000       ?SetInputType@CDrCurve@@QAEXH@Z 1000c000 f i CurEdit.obj
 0001:0000b030       ?IsArcType@CDrCurve@@QAEHXZ 1000c030 f i CurEdit.obj
 0001:0000b060       ?SetArcType@CDrCurve@@QAEXH@Z 1000c060 f i CurEdit.obj
 0001:0000b090       ?GetElperSegList_S@CDrCurve@@QAEPAV?$CList@HH@@XZ 1000c090 f i CurEdit.obj
 0001:0000b0c0       ?IsSkewed@CDrCurve@@UAEHXZ 1000c0c0 f i CurEdit.obj
 0001:0000b0f0       ?SetSkewed@CDrCurve@@UAEXH@Z 1000c0f0 f i CurEdit.obj
 0001:0000b120       ?IsLinSpr@CDrCurve@@UAEHXZ 1000c120 f i CurEdit.obj
 0001:0000b150       ?SetLinSpr@CDrCurve@@UAEXH@Z 1000c150 f i CurEdit.obj
 0001:0000b180       ?IsLinSnu@CDrCurve@@UAEHXZ 1000c180 f i CurEdit.obj
 0001:0000b1b0       ?SetLinSnu@CDrCurve@@UAEXH@Z 1000c1b0 f i CurEdit.obj
 0001:0000b1e0       ?CullWorld@CDrCurve@@UAEHUWORLD@@@Z 1000c1e0 f i CurEdit.obj
 0001:0000b200       ?CullScreen@CDrCurve@@UAEHPAUMATRIX@@@Z 1000c200 f i CurEdit.obj
 0001:0000b220       ?Calc_CentroidWorld@CDrCurve@@UAEXXZ 1000c220 f i CurEdit.obj
 0001:0000b240       ?Calc_CentroidEye@CDrCurve@@UAEXXZ 1000c240 f i CurEdit.obj
 0001:0000b260       ?Calc_CentroidScreen3D@CDrCurve@@UAEXNN@Z 1000c260 f i CurEdit.obj
 0001:0000b280       ?Calc_NormalWorld@CDrCurve@@UAEXXZ 1000c280 f i CurEdit.obj
 0001:0000b2a0       ?TransformNormalToEye@CDrCurve@@UAEXPAUMATRIX@@@Z 1000c2a0 f i CurEdit.obj
 0001:0000b2c0       ?ProjectNormalToScreen3D@CDrCurve@@UAEXPAUMATRIX@@NN@Z 1000c2c0 f i CurEdit.obj
 0001:0000b2e0       ?GetNormalWorld@CDrCurve@@UAEPAUWORLD@@XZ 1000c2e0 f i CurEdit.obj
 0001:0000b300       ?SetNormalWorld@CDrCurve@@UAEXUWORLD@@@Z 1000c300 f i CurEdit.obj
 0001:0000b320       ?GetNormalEye@CDrCurve@@UAEPAUWORLD@@XZ 1000c320 f i CurEdit.obj
 0001:0000b340       ?SetNormalEye@CDrCurve@@UAEXUWORLD@@@Z 1000c340 f i CurEdit.obj
 0001:0000b360       ?GetNormalScreen3D@CDrCurve@@UAEPAUWORLD@@XZ 1000c360 f i CurEdit.obj
 0001:0000b380       ?SetNormalScreen3D@CDrCurve@@UAEXUWORLD@@@Z 1000c380 f i CurEdit.obj
 0001:0000b3a0       ?GetNormalScreen2D@CDrCurve@@UAEPAUtagPOINT@@XZ 1000c3a0 f i CurEdit.obj
 0001:0000b3c0       ?SetNormalScreen2D@CDrCurve@@UAEXUtagPOINT@@@Z 1000c3c0 f i CurEdit.obj
 0001:0000b3e0       ?GetNodTopoList@CDrCurve@@QAEPAVCDListMgr@@XZ 1000c3e0 f i CurEdit.obj
 0001:0000b410       ?GetSuppCardList@CDrCurve@@QAEPAV?$CList@Usupportcard@@U1@@@XZ 1000c410 f i CurEdit.obj
 0001:0000b440       ?GetStaLCardList@CDrCurve@@QAEPAV?$CList@UstaLcard@@U1@@@XZ 1000c440 f i CurEdit.obj
 0001:0000b470       ?GetBndryPtList@CDrCurve@@QAEPAV?$CList@UWORLD@@U1@@@XZ 1000c470 f i CurEdit.obj
 0001:0000b4a0       ?GetBezierType@CDrCurve@@QAE?AW4BEZIERTYPE@@XZ 1000c4a0 f i CurEdit.obj
 0001:0000b4d0       ?SetBezierType@CDrCurve@@QAEXW4BEZIERTYPE@@@Z 1000c4d0 f i CurEdit.obj
 0001:0000b500       ?IsSubDivided@CTriangle@@UAEHXZ 1000c500 f i CurEdit.obj
 0001:0000b520       ?SetSubDivided@CTriangle@@UAEXH@Z 1000c520 f i CurEdit.obj
 0001:0000b550       ?GetSubTriangleIndex@CTriangle@@UAEHH@Z 1000c550 f i CurEdit.obj
 0001:0000b580       ?SetSubTriangleIndex@CTriangle@@UAEXHH@Z 1000c580 f i CurEdit.obj
 0001:0000b5b0       ?GetType@CTriangle@@UAEHXZ 1000c5b0 f i CurEdit.obj
 0001:0000b5d0       ?SetType@CTriangle@@UAEXH@Z 1000c5d0 f i CurEdit.obj
 0001:0000b600       ?GetCNIndexList@CTriangle@@UAEPAV?$CList@HH@@XZ 1000c600 f i CurEdit.obj
 0001:0000b620       ?GetPatIndex@CTriangle@@UAEHXZ 1000c620 f i CurEdit.obj
 0001:0000b640       ?SetPatIndex@CTriangle@@UAEXH@Z 1000c640 f i CurEdit.obj
 0001:0000b670       ?GetDegree@CTriangle@@UAEHXZ 1000c670 f i CurEdit.obj
 0001:0000b690       ?SetDegree@CTriangle@@UAEXH@Z 1000c690 f i CurEdit.obj
 0001:0000b6c0       ?GetVertexIndex@CTriangle@@UAEHH@Z 1000c6c0 f i CurEdit.obj
 0001:0000b6f0       ?SetVertexIndex@CTriangle@@UAEXHH@Z 1000c6f0 f i CurEdit.obj
 0001:0000b720       ?GetVertexIndex@CTriangle@@UAEPAHXZ 1000c720 f i CurEdit.obj
 0001:0000b740       ?GetNebrVertexIndex@CTriangle@@UAEHH@Z 1000c740 f i CurEdit.obj
 0001:0000b770       ?SetNebrVertexIndex@CTriangle@@UAEXHH@Z 1000c770 f i CurEdit.obj
 0001:0000b7a0       ?GetNebrVertexIndex@CTriangle@@UAEPAHXZ 1000c7a0 f i CurEdit.obj
 0001:0000b7c0       ?GetNebrTriangleIndex@CTriangle@@UAEHH@Z 1000c7c0 f i CurEdit.obj
 0001:0000b7f0       ?SetNebrTriangleIndex@CTriangle@@UAEXHH@Z 1000c7f0 f i CurEdit.obj
 0001:0000b820       ?GetNebrTriangleIndex@CTriangle@@UAEPAHXZ 1000c820 f i CurEdit.obj
 0001:0000b840       ?GetOutSeg@CTriangle@@UAEHXZ 1000c840 f i CurEdit.obj
 0001:0000b860       ?SetOutSeg@CTriangle@@UAEXH@Z 1000c860 f i CurEdit.obj
 0001:0000b890       ?GetiOutGlo@CTriangle@@UAEHXZ 1000c890 f i CurEdit.obj
 0001:0000b8c0       ?SetiOutGlo@CTriangle@@UAEXH@Z 1000c8c0 f i CurEdit.obj
 0001:0000b8f0       ?GetjOutGlo@CTriangle@@UAEHXZ 1000c8f0 f i CurEdit.obj
 0001:0000b920       ?SetjOutGlo@CTriangle@@UAEXH@Z 1000c920 f i CurEdit.obj
 0001:0000b950       ??1CTriangle@@UAE@XZ       1000c950 f i CurEdit.obj
 0001:0000b9d0       ??_GCTriangle@@UAEPAXI@Z   1000c9d0 f i CurEdit.obj
 0001:0000ba10       ??_ECTriangle@@UAEPAXI@Z   1000ca10 f i CurEdit.obj
 0001:0000bab0       ?GetCategory@CDrPatch@@UAE?AW4CATEGORY@@XZ 1000cab0 f i CurEdit.obj
 0001:0000bad0       ?SetCategory@CDrPatch@@UAEXW4CATEGORY@@@Z 1000cad0 f i CurEdit.obj
 0001:0000bb00       ?IsNormalNeeded@CDrPatch@@UAEHXZ 1000cb00 f i CurEdit.obj
 0001:0000bb30       ?SetNormalNeed@CDrPatch@@UAEXH@Z 1000cb30 f i CurEdit.obj
 0001:0000bb60       ?GetCurveType_T@CDrPatch@@QAE?AW4CURVEPROC@@XZ 1000cb60 f i CurEdit.obj
 0001:0000bb90       ?SetCurveType_T@CDrPatch@@QAEXW4CURVEPROC@@@Z 1000cb90 f i CurEdit.obj
 0001:0000bbc0       ?GetOutSegUnif_T@CDrPatch@@QAEHXZ 1000cbc0 f i CurEdit.obj
 0001:0000bbf0       ?SetOutSegUnif_T@CDrPatch@@QAEXH@Z 1000cbf0 f i CurEdit.obj
 0001:0000bc20       ?IsClosed_T@CDrPatch@@QAEHXZ 1000cc20 f i CurEdit.obj
 0001:0000bc50       ?SetClosed_T@CDrPatch@@QAEXH@Z 1000cc50 f i CurEdit.obj
 0001:0000bc80       ?GetMaxBezSegments_T@CDrPatch@@QAEHXZ 1000cc80 f i CurEdit.obj
 0001:0000bcb0       ?SetMaxBezSegments_T@CDrPatch@@QAEXH@Z 1000ccb0 f i CurEdit.obj
 0001:0000bce0       ?GetMaxCNodes_T@CDrPatch@@QAEHXZ 1000cce0 f i CurEdit.obj
 0001:0000bd10       ?SetMaxCNodes_T@CDrPatch@@QAEXH@Z 1000cd10 f i CurEdit.obj
 0001:0000bd40       ?GetMaxOutPts_T@CDrPatch@@QAEHXZ 1000cd40 f i CurEdit.obj
 0001:0000bd70       ?SetMaxOutPts_T@CDrPatch@@QAEXH@Z 1000cd70 f i CurEdit.obj
 0001:0000bda0       ?GetNodes_S@CDrPatch@@QAEHXZ 1000cda0 f i CurEdit.obj
 0001:0000bdd0       ?SetNodes_S@CDrPatch@@QAEXH@Z 1000cdd0 f i CurEdit.obj
 0001:0000be00       ?GetNodes_T@CDrPatch@@QAEHXZ 1000ce00 f i CurEdit.obj
 0001:0000be30       ?SetNodes_T@CDrPatch@@QAEXH@Z 1000ce30 f i CurEdit.obj
 0001:0000be60       ?GetPrimaryDir@CDrPatch@@QAEHXZ 1000ce60 f i CurEdit.obj
 0001:0000be90       ?SetPrimaryDir@CDrPatch@@QAEXH@Z 1000ce90 f i CurEdit.obj
 0001:0000bec0       ?GetBlendCurve@CDrPatch@@QAEPAVCDrCurve@@XZ 1000cec0 f i CurEdit.obj
 0001:0000bef0       ?SetBlendCurve@CDrPatch@@QAEXPAVCDrCurve@@@Z 1000cef0 f i CurEdit.obj
 0001:0000bf20       ?GetBlendCurve_U@CDrPatch@@QAEPAVCDrCurve@@XZ 1000cf20 f i CurEdit.obj
 0001:0000bf50       ?SetBlendCurve_U@CDrPatch@@QAEXPAVCDrCurve@@@Z 1000cf50 f i CurEdit.obj
 0001:0000bf80       ?GetBlendCurve_V@CDrPatch@@QAEPAVCDrCurve@@XZ 1000cf80 f i CurEdit.obj
 0001:0000bfb0       ?SetBlendCurve_V@CDrPatch@@QAEXPAVCDrCurve@@@Z 1000cfb0 f i CurEdit.obj
 0001:0000bfe0       ?GetBlendCurve_W@CDrPatch@@QAEPAVCDrCurve@@XZ 1000cfe0 f i CurEdit.obj
 0001:0000c010       ?SetBlendCurve_W@CDrPatch@@QAEXPAVCDrCurve@@@Z 1000d010 f i CurEdit.obj
 0001:0000c040       ?GetVCurveList@CDrPatch@@QAEPAVCDListMgr@@XZ 1000d040 f i CurEdit.obj
 0001:0000c070       ?GetCurveList_U@CDrPatch@@QAEPAVCDListMgr@@XZ 1000d070 f i CurEdit.obj
 0001:0000c0a0       ?GetCurveList_V@CDrPatch@@QAEPAVCDListMgr@@XZ 1000d0a0 f i CurEdit.obj
 0001:0000c0d0       ?GetCurveList_W@CDrPatch@@QAEPAVCDListMgr@@XZ 1000d0d0 f i CurEdit.obj
 0001:0000c100       ?GetCurveLatchList_U@CDrPatch@@QAEPAV?$CList@W4CURVELATCH@@W41@@@XZ 1000d100 f i CurEdit.obj
 0001:0000c130       ?GetCurveLatchList_V@CDrPatch@@QAEPAV?$CList@W4CURVELATCH@@W41@@@XZ 1000d130 f i CurEdit.obj
 0001:0000c160       ?GetCurveLatchList_W@CDrPatch@@QAEPAV?$CList@W4CURVELATCH@@W41@@@XZ 1000d160 f i CurEdit.obj
 0001:0000c190       ?IsAdvancedEnd_U@CDrPatch@@QAEHXZ 1000d190 f i CurEdit.obj
 0001:0000c1c0       ?SetAdvancedEnd_U@CDrPatch@@QAEXH@Z 1000d1c0 f i CurEdit.obj
 0001:0000c1f0       ?GetCornerTwist_U@CDrPatch@@QAEPAY01UWORLD@@XZ 1000d1f0 f i CurEdit.obj
 0001:0000c220       ?SetCornerTwist_U@CDrPatch@@QAEXPAY01UWORLD@@@Z 1000d220 f i CurEdit.obj
 0001:0000c250       ?GetTwistMethod_U@CDrPatch@@QAE?AW4TWIST@@XZ 1000d250 f i CurEdit.obj
 0001:0000c280       ?SetTwistMethod_U@CDrPatch@@QAEXW4TWIST@@@Z 1000d280 f i CurEdit.obj
 0001:0000c2b0       ?IsAdvancedEnd_V@CDrPatch@@QAEHXZ 1000d2b0 f i CurEdit.obj
 0001:0000c2e0       ?SetAdvancedEnd_V@CDrPatch@@QAEXH@Z 1000d2e0 f i CurEdit.obj
 0001:0000c310       ?GetCornerTwist_V@CDrPatch@@QAEPAY01UWORLD@@XZ 1000d310 f i CurEdit.obj
 0001:0000c340       ?SetCornerTwist_V@CDrPatch@@QAEXPAY01UWORLD@@@Z 1000d340 f i CurEdit.obj
 0001:0000c370       ?GetTwistMethod_V@CDrPatch@@QAE?AW4TWIST@@XZ 1000d370 f i CurEdit.obj
 0001:0000c3a0       ?SetTwistMethod_V@CDrPatch@@QAEXW4TWIST@@@Z 1000d3a0 f i CurEdit.obj
 0001:0000c3d0       ?GetEndList_U@CDrPatch@@QAEPAV?$CList@Ublendend@@U1@@@XZ 1000d3d0 f i CurEdit.obj
 0001:0000c400       ?GetEndList_V@CDrPatch@@QAEPAV?$CList@Ublendend@@U1@@@XZ 1000d400 f i CurEdit.obj
 0001:0000c430       ?GetElperSegList_T@CDrPatch@@QAEPAV?$CList@HH@@XZ 1000d430 f i CurEdit.obj
 0001:0000c460       ?GetCurveID@CDrPatch@@QAE?AVCString@@H@Z 1000d460 f i CurEdit.obj
 0001:0000c4b0       ?SetCurveID@CDrPatch@@QAEXVCString@@H@Z 1000d4b0 f i CurEdit.obj
 0001:0000c530       ?GetBndryCurve@CDrPatch@@QAEPAVCDrCurve@@H@Z 1000d530 f i CurEdit.obj
 0001:0000c560       ?SetCurve@CDrPatch@@QAEXPAVCDrCurve@@H@Z 1000d560 f i CurEdit.obj
 0001:0000c590       ?GetCurveLatch@CDrPatch@@QAE?AW4CURVELATCH@@H@Z 1000d590 f i CurEdit.obj
 0001:0000c5c0       ?SetCurveLatch@CDrPatch@@QAEXW4CURVELATCH@@H@Z 1000d5c0 f i CurEdit.obj
 0001:0000c5f0       ?GetFromIDNode_T@CDrPatch@@QAEPAVCDrNode@@XZ 1000d5f0 f i CurEdit.obj
 0001:0000c620       ?SetFromIDNode_T@CDrPatch@@QAEXPAVCDrNode@@@Z 1000d620 f i CurEdit.obj
 0001:0000c650       ?GetToIDNode_T@CDrPatch@@QAEPAVCDrNode@@XZ 1000d650 f i CurEdit.obj
 0001:0000c680       ?SetToIDNode_T@CDrPatch@@QAEXPAVCDrNode@@@Z 1000d680 f i CurEdit.obj
 0001:0000c6b0       ?GetFromPtLocal_T@CDrPatch@@QAEPAUWORLD@@XZ 1000d6b0 f i CurEdit.obj
 0001:0000c6e0       ?SetFromPtLocal_T@CDrPatch@@QAEXUWORLD@@@Z 1000d6e0 f i CurEdit.obj
 0001:0000c720       ?GetToPtLocal_T@CDrPatch@@QAEPAUWORLD@@XZ 1000d720 f i CurEdit.obj
 0001:0000c750       ?SetToPtLocal_T@CDrPatch@@QAEXUWORLD@@@Z 1000d750 f i CurEdit.obj
 0001:0000c790       ?GetFromPtWorld_T@CDrPatch@@QAEPAUWORLD@@XZ 1000d790 f i CurEdit.obj
 0001:0000c7c0       ?SetFromPtWorld_T@CDrPatch@@QAEXUWORLD@@@Z 1000d7c0 f i CurEdit.obj
 0001:0000c800       ?GetToPtWorld_T@CDrPatch@@QAEPAUWORLD@@XZ 1000d800 f i CurEdit.obj
 0001:0000c830       ?SetToPtWorld_T@CDrPatch@@QAEXUWORLD@@@Z 1000d830 f i CurEdit.obj
 0001:0000c870       ?GetFromPtEye_T@CDrPatch@@QAEPAUWORLD@@XZ 1000d870 f i CurEdit.obj
 0001:0000c8a0       ?SetFromPtEye_T@CDrPatch@@QAEXUWORLD@@@Z 1000d8a0 f i CurEdit.obj
 0001:0000c8e0       ?GetToPtEye_T@CDrPatch@@QAEPAUWORLD@@XZ 1000d8e0 f i CurEdit.obj
 0001:0000c910       ?SetToPtEye_T@CDrPatch@@QAEXUWORLD@@@Z 1000d910 f i CurEdit.obj
 0001:0000c950       ?GetAxis_T@CDrPatch@@QAEPAUWORLD@@XZ 1000d950 f i CurEdit.obj
 0001:0000c980       ?SetAxis_T@CDrPatch@@QAEXUWORLD@@@Z 1000d980 f i CurEdit.obj
 0001:0000c9c0       ?GetExtruType_T@CDrPatch@@QAEHXZ 1000d9c0 f i CurEdit.obj
 0001:0000c9f0       ?SetExtruType_T@CDrPatch@@QAEXH@Z 1000d9f0 f i CurEdit.obj
 0001:0000ca20       ?GetLength_T@CDrPatch@@QAENXZ 1000da20 f i CurEdit.obj
 0001:0000ca50       ?SetLength_T@CDrPatch@@QAEXN@Z 1000da50 f i CurEdit.obj
 0001:0000ca90       ?GetWorldLength_T@CDrPatch@@QAE?AUWORLD@@XZ 1000da90 f i CurEdit.obj
 0001:0000cad0       ?SetWorldLength_T@CDrPatch@@QAEXUWORLD@@@Z 1000dad0 f i CurEdit.obj
 0001:0000cb10       ?GetSegs_T@CDrPatch@@QAEHXZ 1000db10 f i CurEdit.obj
 0001:0000cb40       ?SetSegs_T@CDrPatch@@QAEXH@Z 1000db40 f i CurEdit.obj
 0001:0000cb70       ?IsAxisInput_T@CDrPatch@@QAEHXZ 1000db70 f i CurEdit.obj
 0001:0000cba0       ?SetAxisInput_T@CDrPatch@@QAEXH@Z 1000dba0 f i CurEdit.obj
 0001:0000cbd0       ?GetAxisType_T@CDrPatch@@QAEHXZ 1000dbd0 f i CurEdit.obj
 0001:0000cc00       ?SetAxisType_T@CDrPatch@@QAEXH@Z 1000dc00 f i CurEdit.obj
 0001:0000cc30       ?IsNegative_T@CDrPatch@@QAEHXZ 1000dc30 f i CurEdit.obj
 0001:0000cc60       ?SetNegative_T@CDrPatch@@QAEXH@Z 1000dc60 f i CurEdit.obj
 0001:0000cc90       ?GetCircleType_T@CDrPatch@@QAE?AW4CIRCLETYPE@@XZ 1000dc90 f i CurEdit.obj
 0001:0000ccc0       ?SetCircleType_T@CDrPatch@@QAEXW4CIRCLETYPE@@@Z 1000dcc0 f i CurEdit.obj
 0001:0000ccf0       ?GetAng_1_T@CDrPatch@@QAENXZ 1000dcf0 f i CurEdit.obj
 0001:0000cd20       ?SetAng_1_T@CDrPatch@@QAEXN@Z 1000dd20 f i CurEdit.obj
 0001:0000cd60       ?GetAng_2_T@CDrPatch@@QAENXZ 1000dd60 f i CurEdit.obj
 0001:0000cd90       ?SetAng_2_T@CDrPatch@@QAEXN@Z 1000dd90 f i CurEdit.obj
 0001:0000cdd0       ?GetPatchProc@CDrPatch@@QAE?AW4PATCHPROC@@XZ 1000ddd0 f i CurEdit.obj
 0001:0000ce00       ?SetPatchProc@CDrPatch@@QAEXW4PATCHPROC@@@Z 1000de00 f i CurEdit.obj
 0001:0000ce30       ?GetPatchType@CDrPatch@@QAE?AW4PATCHTYPE@@XZ 1000de30 f i CurEdit.obj
 0001:0000ce60       ?SetPatchType@CDrPatch@@QAEXW4PATCHTYPE@@@Z 1000de60 f i CurEdit.obj
 0001:0000ce90       ?GetPatSubType@CDrPatch@@QAE?AW4PATSUBTYPE@@XZ 1000de90 f i CurEdit.obj
 0001:0000cec0       ?SetPatSubType@CDrPatch@@QAEXW4PATSUBTYPE@@@Z 1000dec0 f i CurEdit.obj
 0001:0000cef0       ?GetOut_S@CDrPatch@@QAEHXZ 1000def0 f i CurEdit.obj
 0001:0000cf20       ?SetOut_S@CDrPatch@@QAEXH@Z 1000df20 f i CurEdit.obj
 0001:0000cf50       ?GetOut_T@CDrPatch@@QAEHXZ 1000df50 f i CurEdit.obj
 0001:0000cf80       ?SetOut_T@CDrPatch@@QAEXH@Z 1000df80 f i CurEdit.obj
 0001:0000cfb0       ?GetTotalElems@CDrPatch@@QAEJXZ 1000dfb0 f i CurEdit.obj
 0001:0000cfe0       ?SetTotalElems@CDrPatch@@QAEXJ@Z 1000dfe0 f i CurEdit.obj
 0001:0000d010       ?GetPtrTangents_S@CDrPatch@@QAEPAUWORLD@@XZ 1000e010 f i CurEdit.obj
 0001:0000d040       ?GetPtrTangents_T@CDrPatch@@QAEPAUWORLD@@XZ 1000e040 f i CurEdit.obj
 0001:0000d070       ?GetPtrNormals@CDrPatch@@QAEPAUWORLD@@XZ 1000e070 f i CurEdit.obj
 0001:0000d0a0       ?GetPtrTwists@CDrPatch@@QAEPAUWORLD@@XZ 1000e0a0 f i CurEdit.obj
 0001:0000d0d0       ?GetMemIn@CDrPatch@@UAEPAUWORLD@@H@Z 1000e0d0 f i CurEdit.obj
 0001:0000d100       ?SetMemIn@CDrPatch@@UAEXPAUWORLD@@H@Z 1000e100 f i CurEdit.obj
 0001:0000d130       ?SetMemIn@CDrPatch@@UAEXPAUWORLD@@@Z 1000e130 f i CurEdit.obj
 0001:0000d160       ?SetMemInDP@CDrPatch@@UAEXPAUtagPOINT@@@Z 1000e160 f i CurEdit.obj
 0001:0000d190       ?SetMemOut@CDrPatch@@UAEXPAUWORLD@@@Z 1000e190 f i CurEdit.obj
 0001:0000d1c0       ?SetMemOutDP@CDrPatch@@UAEXPAUtagPOINT@@@Z 1000e1c0 f i CurEdit.obj
 0001:0000d1f0       ?IsUniform_T@CDrPatch@@QAEHXZ 1000e1f0 f i CurEdit.obj
 0001:0000d220       ?SetUniform_T@CDrPatch@@QAEXH@Z 1000e220 f i CurEdit.obj
 0001:0000d250       ?GetClass_T@CDrPatch@@QAEHXZ 1000e250 f i CurEdit.obj
 0001:0000d280       ?SetClass_T@CDrPatch@@QAEXH@Z 1000e280 f i CurEdit.obj
 0001:0000d2b0       ?GetOrder_T@CDrPatch@@QAEHXZ 1000e2b0 f i CurEdit.obj
 0001:0000d2e0       ?SetOrder_T@CDrPatch@@QAEXH@Z 1000e2e0 f i CurEdit.obj
 0001:0000d310       ?GetnDim_T@CDrPatch@@QAEHXZ 1000e310 f i CurEdit.obj
 0001:0000d340       ?SetnDim_T@CDrPatch@@QAEXH@Z 1000e340 f i CurEdit.obj
 0001:0000d370       ?GetOutMethod_T@CDrPatch@@QAE?AW4PATCHOUTPUT@@XZ 1000e370 f i CurEdit.obj
 0001:0000d3a0       ?SetOutMethod_T@CDrPatch@@QAEXW4PATCHOUTPUT@@@Z 1000e3a0 f i CurEdit.obj
 0001:0000d3d0       ?GetMaxOutSeg_T@CDrPatch@@QAEHXZ 1000e3d0 f i CurEdit.obj
 0001:0000d400       ?SetMaxOutSeg_T@CDrPatch@@QAEXH@Z 1000e400 f i CurEdit.obj
 0001:0000d430       ?GetNum_tPointer_T@CDrPatch@@QAEPAHXZ 1000e430 f i CurEdit.obj
 0001:0000d460       ?SetNum_tPointer_T@CDrPatch@@QAEXPAH@Z 1000e460 f i CurEdit.obj
 0001:0000d490       ?GetDis_tPointer_T@CDrPatch@@QAEPANXZ 1000e490 f i CurEdit.obj
 0001:0000d4c0       ?SetDis_tPointer_T@CDrPatch@@QAEXPAN@Z 1000e4c0 f i CurEdit.obj
 0001:0000d4f0       ?GetNum_tPointer_Ex_T@CDrPatch@@QAEPAHXZ 1000e4f0 f i CurEdit.obj
 0001:0000d520       ?SetNum_tPointer_Ex_T@CDrPatch@@QAEXPAH@Z 1000e520 f i CurEdit.obj
 0001:0000d550       ?GetDis_AngPointer_T@CDrPatch@@QAEPANXZ 1000e550 f i CurEdit.obj
 0001:0000d580       ?SetDis_AngPointer_T@CDrPatch@@QAEXPAN@Z 1000e580 f i CurEdit.obj
 0001:0000d5b0       ?GetData_Ex_T@CDrPatch@@QAEHXZ 1000e5b0 f i CurEdit.obj
 0001:0000d5e0       ?SetData_Ex_T@CDrPatch@@QAEXH@Z 1000e5e0 f i CurEdit.obj
 0001:0000d610       ?IsExpanded_T@CDrPatch@@QAEHXZ 1000e610 f i CurEdit.obj
 0001:0000d640       ?SetExpanded_T@CDrPatch@@QAEXH@Z 1000e640 f i CurEdit.obj
 0001:0000d670       ?GetMaxENodes_T@CDrPatch@@QAEHXZ 1000e670 f i CurEdit.obj
 0001:0000d6a0       ?SetMaxENodes_T@CDrPatch@@QAEXH@Z 1000e6a0 f i CurEdit.obj
 0001:0000d6d0       ?GetRadius_T@CDrPatch@@QAENXZ 1000e6d0 f i CurEdit.obj
 0001:0000d700       ?SetRadius_T@CDrPatch@@QAEXN@Z 1000e700 f i CurEdit.obj
 0001:0000d740       ?GetTheta_T@CDrPatch@@QAENXZ 1000e740 f i CurEdit.obj
 0001:0000d770       ?SetTheta_T@CDrPatch@@QAEXN@Z 1000e770 f i CurEdit.obj
 0001:0000d7b0       ?GetCenter_T@CDrPatch@@QAE?AUWORLD@@XZ 1000e7b0 f i CurEdit.obj
 0001:0000d7f0       ?SetCenter_T@CDrPatch@@QAEXUWORLD@@@Z 1000e7f0 f i CurEdit.obj
 0001:0000d860       ?GetNormal_T@CDrPatch@@QAE?AUWORLD@@XZ 1000e860 f i CurEdit.obj
 0001:0000d8a0       ?SetNormal_T@CDrPatch@@QAEXUWORLD@@@Z 1000e8a0 f i CurEdit.obj
 0001:0000d910       ?GetSegAngle_T@CDrPatch@@QAENXZ 1000e910 f i CurEdit.obj
 0001:0000d940       ?SetSegAngle_T@CDrPatch@@QAEXN@Z 1000e940 f i CurEdit.obj
 0001:0000d980       ?IsHole_T@CDrPatch@@QAEHXZ 1000e980 f i CurEdit.obj
 0001:0000d9b0       ?SetHole_T@CDrPatch@@QAEXH@Z 1000e9b0 f i CurEdit.obj
 0001:0000d9e0       ?GetpTangents_T@CDrPatch@@QAEPAUWORLD@@XZ 1000e9e0 f i CurEdit.obj
 0001:0000da10       ?SetpTangents_T@CDrPatch@@QAEXPAUWORLD@@@Z 1000ea10 f i CurEdit.obj
 0001:0000da40       ?GetpCurvatures_T@CDrPatch@@QAEPANXZ 1000ea40 f i CurEdit.obj
 0001:0000da70       ?SetpCurvatures_T@CDrPatch@@QAEXPAN@Z 1000ea70 f i CurEdit.obj
 0001:0000daa0       ?GetRatio_T@CDrPatch@@QAENXZ 1000eaa0 f i CurEdit.obj
 0001:0000dad0       ?SetRatio_T@CDrPatch@@QAEXN@Z 1000ead0 f i CurEdit.obj
 0001:0000db10       ?GetTwistType_T@CDrPatch@@QAEHXZ 1000eb10 f i CurEdit.obj
 0001:0000db40       ?SetTwistType_T@CDrPatch@@QAEXH@Z 1000eb40 f i CurEdit.obj
 0001:0000db70       ?GetTwistList_T@CDrPatch@@QAEPAV?$CList@NN@@XZ 1000eb70 f i CurEdit.obj
 0001:0000dba0       ?GetScaleType_T@CDrPatch@@QAEHXZ 1000eba0 f i CurEdit.obj
 0001:0000dbd0       ?SetScaleType_T@CDrPatch@@QAEXH@Z 1000ebd0 f i CurEdit.obj
 0001:0000dc00       ?GetScaleList_T@CDrPatch@@QAEPAV?$CList@NN@@XZ 1000ec00 f i CurEdit.obj
 0001:0000dc30       ?IsIncTwist_T@CDrPatch@@QAEHXZ 1000ec30 f i CurEdit.obj
 0001:0000dc60       ?SetIncTwist_T@CDrPatch@@QAEXH@Z 1000ec60 f i CurEdit.obj
 0001:0000dc90       ?GetTwistMult_T@CDrPatch@@QAENXZ 1000ec90 f i CurEdit.obj
 0001:0000dcc0       ?SetTwistMult_T@CDrPatch@@QAEXN@Z 1000ecc0 f i CurEdit.obj
 0001:0000dd00       ?GetTwistStart_T@CDrPatch@@QAENXZ 1000ed00 f i CurEdit.obj
 0001:0000dd30       ?SetTwistStart_T@CDrPatch@@QAEXN@Z 1000ed30 f i CurEdit.obj
 0001:0000dd70       ?IsIncScale_T@CDrPatch@@QAEHXZ 1000ed70 f i CurEdit.obj
 0001:0000dda0       ?SetIncScale_T@CDrPatch@@QAEXH@Z 1000eda0 f i CurEdit.obj
 0001:0000ddd0       ?GetScaleMult_T@CDrPatch@@QAENXZ 1000edd0 f i CurEdit.obj
 0001:0000de00       ?SetScaleMult_T@CDrPatch@@QAEXN@Z 1000ee00 f i CurEdit.obj
 0001:0000de40       ?GetScaleStart_T@CDrPatch@@QAENXZ 1000ee40 f i CurEdit.obj
 0001:0000de70       ?SetScaleStart_T@CDrPatch@@QAEXN@Z 1000ee70 f i CurEdit.obj
 0001:0000deb0       ?GetWorldTwistMult_T@CDrPatch@@QAE?AUWORLD@@XZ 1000eeb0 f i CurEdit.obj
 0001:0000def0       ?SetWorldTwistMult_T@CDrPatch@@QAEXUWORLD@@@Z 1000eef0 f i CurEdit.obj
 0001:0000df30       ?GetWorldTwistStart_T@CDrPatch@@QAE?AUWORLD@@XZ 1000ef30 f i CurEdit.obj
 0001:0000df70       ?SetWorldTwistStart_T@CDrPatch@@QAEXUWORLD@@@Z 1000ef70 f i CurEdit.obj
 0001:0000dfb0       ?GetWorldScaleMult_T@CDrPatch@@QAE?AUWORLD@@XZ 1000efb0 f i CurEdit.obj
 0001:0000dff0       ?SetWorldScaleMult_T@CDrPatch@@QAEXUWORLD@@@Z 1000eff0 f i CurEdit.obj
 0001:0000e030       ?GetWorldScaleStart_T@CDrPatch@@QAE?AUWORLD@@XZ 1000f030 f i CurEdit.obj
 0001:0000e070       ?SetWorldScaleStart_T@CDrPatch@@QAEXUWORLD@@@Z 1000f070 f i CurEdit.obj
 0001:0000e0b0       ?GetTriangleList@CDrPatch@@UAEPAVCDListMgr@@XZ 1000f0b0 f i CurEdit.obj
 0001:0000e0e0       ?GetnOutGlo_S@CDrPatch@@QAEHXZ 1000f0e0 f i CurEdit.obj
 0001:0000e110       ?SetnOutGlo_S@CDrPatch@@QAEXH@Z 1000f110 f i CurEdit.obj
 0001:0000e140       ?IsGenBCurve@CDrPatch@@QAEHXZ 1000f140 f i CurEdit.obj
 0001:0000e170       ?SetGenBCurve@CDrPatch@@QAEXH@Z 1000f170 f i CurEdit.obj
 0001:0000e1a0       ?IsEndCondMode@CSheet_PATI@@QAEHXZ 1000f1a0 f i CurEdit.obj
 0001:0000e1d0       ?SetEndCondMode@CSheet_PATI@@QAEXH@Z 1000f1d0 f i CurEdit.obj
 0001:0000e200       ?Parse_drPipe@CDrFE1D@@UAEXPAVCString@@@Z 1000f200 f i CurEdit.obj
 0001:0000e220       ?DoFormattedCardView@CDrFE1D@@UAEXPAVCString@@AAV2@@Z 1000f220 f i CurEdit.obj
 0001:0000e240       ?DoUnFormattedCardView@CDrFE1D@@UAEXPAVCString@@@Z 1000f240 f i CurEdit.obj
 0001:0000e260       ?GetMaxCorners@CDrFE1D@@UAEHXZ 1000f260 f i CurEdit.obj
 0001:0000e280       ?GetMemIn@CDrFE1D@@UAEPAUWORLD@@XZ 1000f280 f i CurEdit.obj
 0001:0000e2b0       ?GetMemInWts@CDrFE1D@@UAEPANXZ 1000f2b0 f i CurEdit.obj
 0001:0000e2e0       ?GetMemInDP@CDrFE1D@@UAEPAUtagPOINT@@XZ 1000f2e0 f i CurEdit.obj
 0001:0000e310       ?GetMemOut@CDrFE1D@@UAEPAUWORLD@@XZ 1000f310 f i CurEdit.obj
 0001:0000e340       ?GetMemOutWts@CDrFE1D@@UAEPANXZ 1000f340 f i CurEdit.obj
 0001:0000e370       ?GetMemOutDP@CDrFE1D@@UAEPAUtagPOINT@@XZ 1000f370 f i CurEdit.obj
 0001:0000e3a0       ?SetMemIn@CDrFE1D@@UAEXPAUWORLD@@@Z 1000f3a0 f i CurEdit.obj
 0001:0000e3d0       ?SetMemInWts@CDrFE1D@@UAEXPAN@Z 1000f3d0 f i CurEdit.obj
 0001:0000e400       ?SetMemInDP@CDrFE1D@@UAEXPAUtagPOINT@@@Z 1000f400 f i CurEdit.obj
 0001:0000e430       ?SetMemOut@CDrFE1D@@UAEXPAUWORLD@@@Z 1000f430 f i CurEdit.obj
 0001:0000e460       ?SetMemOutWts@CDrFE1D@@UAEXPAN@Z 1000f460 f i CurEdit.obj
 0001:0000e490       ?SetMemOutDP@CDrFE1D@@UAEXPAUtagPOINT@@@Z 1000f490 f i CurEdit.obj
 0001:0000e4c0       ?FixMemD@CDrFE1D@@UAEPANJ@Z 1000f4c0 f i CurEdit.obj
 0001:0000e510       ?FreeMemD@CDrFE1D@@UAEXPAN@Z 1000f510 f i CurEdit.obj
 0001:0000e540       ?FixMem@CDrFE1D@@UAEPAUWORLD@@J@Z 1000f540 f i CurEdit.obj
 0001:0000e590       ?FreeMem@CDrFE1D@@UAEXPAUWORLD@@@Z 1000f590 f i CurEdit.obj
 0001:0000e5c0       ?FixMemDP@CDrFE1D@@UAEPAUtagPOINT@@J@Z 1000f5c0 f i CurEdit.obj
 0001:0000e610       ?FreeMemDP@CDrFE1D@@UAEXPAUtagPOINT@@@Z 1000f610 f i CurEdit.obj
 0001:0000e640       ?GetnNodes@CDrFE1D@@QAEFXZ 1000f640 f i CurEdit.obj
 0001:0000e670       ?SetnNodes@CDrFE1D@@QAEXF@Z 1000f670 f i CurEdit.obj
 0001:0000e6a0       ?GetEdgeDegree@CDrFE1D@@QAEFXZ 1000f6a0 f i CurEdit.obj
 0001:0000e6d0       ?SetEdgeDegree@CDrFE1D@@QAEXF@Z 1000f6d0 f i CurEdit.obj
 0001:0000e700       ?GetElNumID@CDrFE1D@@QAEAAVCString@@XZ 1000f700 f i CurEdit.obj
 0001:0000e730       ?SetElNumID@CDrFE1D@@QAEXVCString@@@Z 1000f730 f i CurEdit.obj
 0001:0000e7b0       ?GetElTypeID@CDrFE1D@@QAEAAVCString@@XZ 1000f7b0 f i CurEdit.obj
 0001:0000e7e0       ?SetElTypeID@CDrFE1D@@QAEXVCString@@@Z 1000f7e0 f i CurEdit.obj
 0001:0000e860       ?Getline_id@CDrFE1D@@QAEAAVCString@@XZ 1000f860 f i CurEdit.obj
 0001:0000e890       ?Setline_id@CDrFE1D@@QAEXVCString@@@Z 1000f890 f i CurEdit.obj
 0001:0000e910       ?Getrid@CDrFE1D@@UAEAAVCString@@H@Z 1000f910 f i CurEdit.obj
 0001:0000e940       ?Setrid@CDrFE1D@@UAEXVCString@@H@Z 1000f940 f i CurEdit.obj
 0001:0000e9c0       ?Getpid@CDrFE1D@@QAEAAVCString@@XZ 1000f9c0 f i CurEdit.obj
 0001:0000e9f0       ?Setpid@CDrFE1D@@QAEXVCString@@@Z 1000f9f0 f i CurEdit.obj
 0001:0000ea70       ?Getmid@CDrFE1D@@QAEAAVCString@@XZ 1000fa70 f i CurEdit.obj
 0001:0000eaa0       ?Setmid@CDrFE1D@@QAEXVCString@@@Z 1000faa0 f i CurEdit.obj
 0001:0000eb20       ?GetElNum@CDrFE1D@@QAEIXZ  1000fb20 f i CurEdit.obj
 0001:0000eb50       ?SetElNum@CDrFE1D@@QAEXI@Z 1000fb50 f i CurEdit.obj
 0001:0000eb80       ?GetElTypeNum@CDrFE1D@@QAEIXZ 1000fb80 f i CurEdit.obj
 0001:0000ebb0       ?SetElTypeNum@CDrFE1D@@QAEXI@Z 1000fbb0 f i CurEdit.obj
 0001:0000ebe0       ?Getline_no@CDrFE1D@@QAEIXZ 1000fbe0 f i CurEdit.obj
 0001:0000ec10       ?Setline_no@CDrFE1D@@QAEXI@Z 1000fc10 f i CurEdit.obj
 0001:0000ec40       ?Getrel@CDrFE1D@@UAEIH@Z   1000fc40 f i CurEdit.obj
 0001:0000ec70       ?Setrel@CDrFE1D@@UAEXIH@Z  1000fc70 f i CurEdit.obj
 0001:0000eca0       ?Getprop@CDrFE1D@@QAEIXZ   1000fca0 f i CurEdit.obj
 0001:0000ecd0       ?Setprop@CDrFE1D@@QAEXI@Z  1000fcd0 f i CurEdit.obj
 0001:0000ed00       ?Getmat@CDrFE1D@@QAEIXZ    1000fd00 f i CurEdit.obj
 0001:0000ed30       ?Setmat@CDrFE1D@@QAEXI@Z   1000fd30 f i CurEdit.obj
 0001:0000ed60       ?Getnumseg@CDrFE1D@@QAEIXZ 1000fd60 f i CurEdit.obj
 0001:0000ed90       ?Setnumseg@CDrFE1D@@QAEXI@Z 1000fd90 f i CurEdit.obj
 0001:0000edc0       ?GetRefTemp@CDrFE1D@@QAENXZ 1000fdc0 f i CurEdit.obj
 0001:0000edf0       ?SetRefTemp@CDrFE1D@@QAEXN@Z 1000fdf0 f i CurEdit.obj
 0001:0000ee30       ?GetCardNo@CDrFE1D@@QAEIXZ 1000fe30 f i CurEdit.obj
 0001:0000ee60       ?SetCardNo@CDrFE1D@@QAEXI@Z 1000fe60 f i CurEdit.obj
 0001:0000ee90       ?GetCenter@CDrFE1D@@UAE?AUtagPOINT@@XZ 1000fe90 f i CurEdit.obj
 0001:0000eed0       ?SetCenter@CDrFE1D@@UAEXUtagPOINT@@@Z 1000fed0 f i CurEdit.obj
 0001:0000ef10       ?Parse_drPipe@CDrFE2D@@UAEXPAVCString@@@Z 1000ff10 f i CurEdit.obj
 0001:0000ef30       ?DoFormattedCardView@CDrFE2D@@UAEXPAVCString@@AAV2@@Z 1000ff30 f i CurEdit.obj
 0001:0000ef50       ?DoUnFormattedCardView@CDrFE2D@@UAEXPAVCString@@@Z 1000ff50 f i CurEdit.obj
 0001:0000ef70       ?GetMaxCorners@CDrFE2D@@UAEHXZ 1000ff70 f i CurEdit.obj
 0001:0000efa0       ?GetCentroidScreen2D@CDrFE2D@@UAEPAUtagPOINT@@XZ 1000ffa0 f i CurEdit.obj
 0001:0000efd0       ?SetCentroidScreen2D@CDrFE2D@@UAEXUtagPOINT@@@Z 1000ffd0 f i CurEdit.obj
 0001:0000f010       ?GetCentroidScreen3D@CDrFE2D@@UAEPAUWORLD@@XZ 10010010 f i CurEdit.obj
 0001:0000f040       ?SetCentroidScreen3D@CDrFE2D@@UAEXUWORLD@@@Z 10010040 f i CurEdit.obj
 0001:0000f080       ?GetCentroidEye@CDrFE2D@@UAEPAUWORLD@@XZ 10010080 f i CurEdit.obj
 0001:0000f0b0       ?SetCentroidEye@CDrFE2D@@UAEXUWORLD@@@Z 100100b0 f i CurEdit.obj
 0001:0000f0f0       ?GetCentroidWorld@CDrFE2D@@UAEPAUWORLD@@XZ 100100f0 f i CurEdit.obj
 0001:0000f120       ?SetCentroidWorld@CDrFE2D@@UAEXUWORLD@@@Z 10010120 f i CurEdit.obj
 0001:0000f160       ?GetCentroidZdepth@CDrFE2D@@UAENXZ 10010160 f i CurEdit.obj
 0001:0000f190       ?SetCentroidZdepth@CDrFE2D@@UAEXN@Z 10010190 f i CurEdit.obj
 0001:0000f1d0       ?GetNormalWorld@CDrFE2D@@UAEPAUWORLD@@XZ 100101d0 f i CurEdit.obj
 0001:0000f200       ?SetNormalWorld@CDrFE2D@@UAEXUWORLD@@@Z 10010200 f i CurEdit.obj
 0001:0000f240       ?GetNormalEye@CDrFE2D@@UAEPAUWORLD@@XZ 10010240 f i CurEdit.obj
 0001:0000f270       ?SetNormalEye@CDrFE2D@@UAEXUWORLD@@@Z 10010270 f i CurEdit.obj
 0001:0000f2b0       ?GetNormalScreen3D@CDrFE2D@@UAEPAUWORLD@@XZ 100102b0 f i CurEdit.obj
 0001:0000f2e0       ?SetNormalScreen3D@CDrFE2D@@UAEXUWORLD@@@Z 100102e0 f i CurEdit.obj
 0001:0000f320       ?GetNormalScreen2D@CDrFE2D@@UAEPAUtagPOINT@@XZ 10010320 f i CurEdit.obj
 0001:0000f350       ?SetNormalScreen2D@CDrFE2D@@UAEXUtagPOINT@@@Z 10010350 f i CurEdit.obj
 0001:0000f390       ?IsCulled@CDrFE2D@@UAEHXZ  10010390 f i CurEdit.obj
 0001:0000f3c0       ?SetCulled@CDrFE2D@@UAEXH@Z 100103c0 f i CurEdit.obj
 0001:0000f3f0       ?GetnNodes@CDrFE2D@@QAEFXZ 100103f0 f i CurEdit.obj
 0001:0000f420       ?SetnNodes@CDrFE2D@@QAEXF@Z 10010420 f i CurEdit.obj
 0001:0000f450       ?GetnEdgeNodes@CDrFE2D@@QAEFXZ 10010450 f i CurEdit.obj
 0001:0000f480       ?SetnEdgeNodes@CDrFE2D@@QAEXF@Z 10010480 f i CurEdit.obj
 0001:0000f4b0       ?GetElNumID@CDrFE2D@@QAEAAVCString@@XZ 100104b0 f i CurEdit.obj
 0001:0000f4e0       ?SetElNumID@CDrFE2D@@QAEXVCString@@@Z 100104e0 f i CurEdit.obj
 0001:0000f560       ?GetElTypeID@CDrFE2D@@QAEAAVCString@@XZ 10010560 f i CurEdit.obj
 0001:0000f590       ?SetElTypeID@CDrFE2D@@QAEXVCString@@@Z 10010590 f i CurEdit.obj
 0001:0000f610       ?Getline_id@CDrFE2D@@QAEAAVCString@@XZ 10010610 f i CurEdit.obj
 0001:0000f640       ?Setline_id@CDrFE2D@@QAEXVCString@@@Z 10010640 f i CurEdit.obj
 0001:0000f6c0       ?Getpid@CDrFE2D@@QAEAAVCString@@XZ 100106c0 f i CurEdit.obj
 0001:0000f6f0       ?Setpid@CDrFE2D@@QAEXVCString@@@Z 100106f0 f i CurEdit.obj
 0001:0000f770       ?Getmid@CDrFE2D@@QAEAAVCString@@XZ 10010770 f i CurEdit.obj
 0001:0000f7a0       ?Setmid@CDrFE2D@@QAEXVCString@@@Z 100107a0 f i CurEdit.obj
 0001:0000f820       ?GetElNum@CDrFE2D@@QAEIXZ  10010820 f i CurEdit.obj
 0001:0000f850       ?SetElNum@CDrFE2D@@QAEXI@Z 10010850 f i CurEdit.obj
 0001:0000f880       ?GetElTypeNum@CDrFE2D@@QAEIXZ 10010880 f i CurEdit.obj
 0001:0000f8b0       ?SetElTypeNum@CDrFE2D@@QAEXI@Z 100108b0 f i CurEdit.obj
 0001:0000f8e0       ?Getline_no@CDrFE2D@@QAEIXZ 100108e0 f i CurEdit.obj
 0001:0000f910       ?Setline_no@CDrFE2D@@QAEXI@Z 10010910 f i CurEdit.obj
 0001:0000f940       ?Getprop@CDrFE2D@@QAEIXZ   10010940 f i CurEdit.obj
 0001:0000f970       ?Setprop@CDrFE2D@@QAEXI@Z  10010970 f i CurEdit.obj
 0001:0000f9a0       ?Getmat@CDrFE2D@@QAEIXZ    100109a0 f i CurEdit.obj
 0001:0000f9d0       ?Setmat@CDrFE2D@@QAEXI@Z   100109d0 f i CurEdit.obj
 0001:0000fa00       ?Getnumseg@CDrFE2D@@QAEIXZ 10010a00 f i CurEdit.obj
 0001:0000fa30       ?Setnumseg@CDrFE2D@@QAEXI@Z 10010a30 f i CurEdit.obj
 0001:0000fa60       ?GetRefTemp@CDrFE2D@@QAENXZ 10010a60 f i CurEdit.obj
 0001:0000fa90       ?SetRefTemp@CDrFE2D@@QAEXN@Z 10010a90 f i CurEdit.obj
 0001:0000fad0       ?GetCardNo@CDrFE2D@@QAEIXZ 10010ad0 f i CurEdit.obj
 0001:0000fb00       ?SetCardNo@CDrFE2D@@QAEXI@Z 10010b00 f i CurEdit.obj
 0001:0000fb30       ?GetCenter@CDrFE2D@@UAE?AUtagPOINT@@XZ 10010b30 f i CurEdit.obj
 0001:0000fb70       ?SetCenter@CDrFE2D@@UAEXUtagPOINT@@@Z 10010b70 f i CurEdit.obj
 0001:0000fbb0       ?IsPosiEdge@CDrFE2D@@QAEHH@Z 10010bb0 f i CurEdit.obj
 0001:0000fbe0       ?SetPosiEdge@CDrFE2D@@QAEXHH@Z 10010be0 f i CurEdit.obj
 0001:0000fc10       ?Getrid@CDrFE2D@@UAEAAVCString@@H@Z 10010c10 f i CurEdit.obj
 0001:0000fc40       ?Setrid@CDrFE2D@@UAEXVCString@@H@Z 10010c40 f i CurEdit.obj
 0001:0000fcc0       ?Getrel@CDrFE2D@@UAEIH@Z   10010cc0 f i CurEdit.obj
 0001:0000fcf0       ?Setrel@CDrFE2D@@UAEXIH@Z  10010cf0 f i CurEdit.obj
 0001:0000fd20       ?GetnCorners@CDrFE2D@@UAEFXZ 10010d20 f i CurEdit.obj
 0001:0000fd50       ?SetnCorners@CDrFE2D@@UAEXF@Z 10010d50 f i CurEdit.obj
 0001:0000fd80       ?GetnEdges@CDrFE2D@@UAEFXZ 10010d80 f i CurEdit.obj
 0001:0000fdb0       ?SetnEdges@CDrFE2D@@UAEXF@Z 10010db0 f i CurEdit.obj
 0001:0000fde0       ?GetElDegree@CDrFE2D@@UAE?AW4ELEM_DEGREE@@XZ 10010de0 f i CurEdit.obj
 0001:0000fe10       ?SetElDegree@CDrFE2D@@UAEXW4ELEM_DEGREE@@@Z 10010e10 f i CurEdit.obj
 0001:0000fe40       ?GetEdgeDegrees@CDrFE2D@@UAEFH@Z 10010e40 f i CurEdit.obj
 0001:0000fe70       ?SetEdgeDegrees@CDrFE2D@@UAEXFH@Z 10010e70 f i CurEdit.obj
 0001:0000fea0       ?GetThkness@CDrFE2D@@UAENXZ 10010ea0 f i CurEdit.obj
 0001:0000fed0       ?SetThkness@CDrFE2D@@UAEXN@Z 10010ed0 f i CurEdit.obj
 0001:0000ff10       ?IsNormalNeeded@CDrSolid@@UAEHXZ 10010f10 f i CurEdit.obj
 0001:0000ff40       ?SetNormalNeed@CDrSolid@@UAEXH@Z 10010f40 f i CurEdit.obj
 0001:0000ff70       ?GetCurveType_R@CDrSolid@@QAE?AW4CURVEPROC@@XZ 10010f70 f i CurEdit.obj
 0001:0000ffa0       ?SetCurveType_R@CDrSolid@@QAEXW4CURVEPROC@@@Z 10010fa0 f i CurEdit.obj
 0001:0000ffd0       ?GetOutSegUnif_R@CDrSolid@@QAEHXZ 10010fd0 f i CurEdit.obj
 0001:00010000       ?SetOutSegUnif_R@CDrSolid@@QAEXH@Z 10011000 f i CurEdit.obj
 0001:00010030       ?IsClosed_R@CDrSolid@@QAEHXZ 10011030 f i CurEdit.obj
 0001:00010060       ?SetClosed_R@CDrSolid@@QAEXH@Z 10011060 f i CurEdit.obj
 0001:00010090       ?GetSolidObjectType@CDrSolid@@QAEHXZ 10011090 f i CurEdit.obj
 0001:000100c0       ?SetSolidObjectType@CDrSolid@@QAEXH@Z 100110c0 f i CurEdit.obj
 0001:000100f0       ?GetMaxBezSegments_R@CDrSolid@@QAEHXZ 100110f0 f i CurEdit.obj
 0001:00010120       ?SetMaxBezSegments_R@CDrSolid@@QAEXH@Z 10011120 f i CurEdit.obj
 0001:00010150       ?GetMaxCNodes_R@CDrSolid@@QAEHXZ 10011150 f i CurEdit.obj
 0001:00010180       ?SetMaxCNodes_R@CDrSolid@@QAEXH@Z 10011180 f i CurEdit.obj
 0001:000101b0       ?GetMaxOutPts_R@CDrSolid@@QAEHXZ 100111b0 f i CurEdit.obj
 0001:000101e0       ?SetMaxOutPts_R@CDrSolid@@QAEXH@Z 100111e0 f i CurEdit.obj
 0001:00010210       ?GetPatchID@CDrSolid@@QAE?AVCString@@H@Z 10011210 f i CurEdit.obj
 0001:00010260       ?SetPatchID@CDrSolid@@QAEXVCString@@H@Z 10011260 f i CurEdit.obj
 0001:000102e0       ?GetFromIDNode_R@CDrSolid@@QAEPAVCDrNode@@XZ 100112e0 f i CurEdit.obj
 0001:00010310       ?SetFromIDNode_R@CDrSolid@@QAEXPAVCDrNode@@@Z 10011310 f i CurEdit.obj
 0001:00010340       ?GetToIDNode_R@CDrSolid@@QAEPAVCDrNode@@XZ 10011340 f i CurEdit.obj
 0001:00010370       ?SetToIDNode_R@CDrSolid@@QAEXPAVCDrNode@@@Z 10011370 f i CurEdit.obj
 0001:000103a0       ?GetFromPtLocal_R@CDrSolid@@QAEPAUWORLD@@XZ 100113a0 f i CurEdit.obj
 0001:000103d0       ?SetFromPtLocal_R@CDrSolid@@QAEXUWORLD@@@Z 100113d0 f i CurEdit.obj
 0001:00010410       ?GetToPtLocal_R@CDrSolid@@QAEPAUWORLD@@XZ 10011410 f i CurEdit.obj
 0001:00010440       ?SetToPtLocal_R@CDrSolid@@QAEXUWORLD@@@Z 10011440 f i CurEdit.obj
 0001:00010480       ?GetFromPtWorld_R@CDrSolid@@QAEPAUWORLD@@XZ 10011480 f i CurEdit.obj
 0001:000104b0       ?SetFromPtWorld_R@CDrSolid@@QAEXUWORLD@@@Z 100114b0 f i CurEdit.obj
 0001:000104f0       ?GetToPtWorld_R@CDrSolid@@QAEPAUWORLD@@XZ 100114f0 f i CurEdit.obj
 0001:00010520       ?SetToPtWorld_R@CDrSolid@@QAEXUWORLD@@@Z 10011520 f i CurEdit.obj
 0001:00010560       ?GetFromPtEye_R@CDrSolid@@QAEPAUWORLD@@XZ 10011560 f i CurEdit.obj
 0001:00010590       ?SetFromPtEye_R@CDrSolid@@QAEXUWORLD@@@Z 10011590 f i CurEdit.obj
 0001:000105d0       ?GetToPtEye_R@CDrSolid@@QAEPAUWORLD@@XZ 100115d0 f i CurEdit.obj
 0001:00010600       ?SetToPtEye_R@CDrSolid@@QAEXUWORLD@@@Z 10011600 f i CurEdit.obj
 0001:00010640       ?GetAxis_R@CDrSolid@@QAEPAUWORLD@@XZ 10011640 f i CurEdit.obj
 0001:00010670       ?SetAxis_R@CDrSolid@@QAEXUWORLD@@@Z 10011670 f i CurEdit.obj
 0001:000106b0       ?GetExtruType_R@CDrSolid@@QAEHXZ 100116b0 f i CurEdit.obj
 0001:000106e0       ?SetExtruType_R@CDrSolid@@QAEXH@Z 100116e0 f i CurEdit.obj
 0001:00010710       ?GetLength_R@CDrSolid@@QAENXZ 10011710 f i CurEdit.obj
 0001:00010740       ?SetLength_R@CDrSolid@@QAEXN@Z 10011740 f i CurEdit.obj
 0001:00010780       ?GetWorldLength_R@CDrSolid@@QAE?AUWORLD@@XZ 10011780 f i CurEdit.obj
 0001:000107c0       ?SetWorldLength_R@CDrSolid@@QAEXUWORLD@@@Z 100117c0 f i CurEdit.obj
 0001:00010800       ?GetSegs_R@CDrSolid@@QAEHXZ 10011800 f i CurEdit.obj
 0001:00010830       ?SetSegs_R@CDrSolid@@QAEXH@Z 10011830 f i CurEdit.obj
 0001:00010860       ?GetSolidProc@CDrSolid@@QAE?AW4SOLIDPROC@@XZ 10011860 f i CurEdit.obj
 0001:00010890       ?SetSolidProc@CDrSolid@@QAEXW4SOLIDPROC@@@Z 10011890 f i CurEdit.obj
 0001:000108c0       ?GetSolidType@CDrSolid@@QAE?AW4SOLIDTYPE@@XZ 100118c0 f i CurEdit.obj
 0001:000108f0       ?SetSolidType@CDrSolid@@QAEXW4SOLIDTYPE@@@Z 100118f0 f i CurEdit.obj
 0001:00010920       ?GetSolSubType@CDrSolid@@QAE?AW4SOLSUBTYPE@@XZ 10011920 f i CurEdit.obj
 0001:00010950       ?SetSolSubType@CDrSolid@@QAEXW4SOLSUBTYPE@@@Z 10011950 f i CurEdit.obj
 0001:00010980       ?GetOut_R@CDrSolid@@QAEHXZ 10011980 f i CurEdit.obj
 0001:000109b0       ?SetOut_R@CDrSolid@@QAEXH@Z 100119b0 f i CurEdit.obj
 0001:000109e0       ?IsUniform_R@CDrSolid@@QAEHXZ 100119e0 f i CurEdit.obj
 0001:00010a10       ?SetUniform_R@CDrSolid@@QAEXH@Z 10011a10 f i CurEdit.obj
 0001:00010a40       ?GetOrder_R@CDrSolid@@QAEHXZ 10011a40 f i CurEdit.obj
 0001:00010a70       ?SetOrder_R@CDrSolid@@QAEXH@Z 10011a70 f i CurEdit.obj
 0001:00010aa0       ?GetnDim_R@CDrSolid@@QAEHXZ 10011aa0 f i CurEdit.obj
 0001:00010ad0       ?SetnDim_R@CDrSolid@@QAEXH@Z 10011ad0 f i CurEdit.obj
 0001:00010b00       ?GetOutMethod_R@CDrSolid@@QAE?AW4SOLIDOUTPUT@@XZ 10011b00 f i CurEdit.obj
 0001:00010b30       ?SetOutMethod_R@CDrSolid@@QAEXW4SOLIDOUTPUT@@@Z 10011b30 f i CurEdit.obj
 0001:00010b60       ?GetMaxOutSeg_R@CDrSolid@@QAEHXZ 10011b60 f i CurEdit.obj
 0001:00010b90       ?SetMaxOutSeg_R@CDrSolid@@QAEXH@Z 10011b90 f i CurEdit.obj
 0001:00010bc0       ?GetNum_tPointer_R@CDrSolid@@QAEPAHXZ 10011bc0 f i CurEdit.obj
 0001:00010bf0       ?SetNum_tPointer_R@CDrSolid@@QAEXPAH@Z 10011bf0 f i CurEdit.obj
 0001:00010c20       ?GetDis_tPointer_R@CDrSolid@@QAEPANXZ 10011c20 f i CurEdit.obj
 0001:00010c50       ?SetDis_tPointer_R@CDrSolid@@QAEXPAN@Z 10011c50 f i CurEdit.obj
 0001:00010c80       ?GetNum_tPointer_Ex_R@CDrSolid@@QAEPAHXZ 10011c80 f i CurEdit.obj
 0001:00010cb0       ?SetNum_tPointer_Ex_R@CDrSolid@@QAEXPAH@Z 10011cb0 f i CurEdit.obj
 0001:00010ce0       ?GetDis_AngPointer_R@CDrSolid@@QAEPANXZ 10011ce0 f i CurEdit.obj
 0001:00010d10       ?SetDis_AngPointer_R@CDrSolid@@QAEXPAN@Z 10011d10 f i CurEdit.obj
 0001:00010d40       ?GetNum_tPointer_ST@CDrSolid@@QAEPAHXZ 10011d40 f i CurEdit.obj
 0001:00010d70       ?SetNum_tPointer_ST@CDrSolid@@QAEXPAH@Z 10011d70 f i CurEdit.obj
 0001:00010da0       ?GetDis_tPointer_ST@CDrSolid@@QAEPANXZ 10011da0 f i CurEdit.obj
 0001:00010dd0       ?SetDis_tPointer_ST@CDrSolid@@QAEXPAN@Z 10011dd0 f i CurEdit.obj
 0001:00010e00       ?GetNum_tPointer_Ex_ST@CDrSolid@@QAEPAHXZ 10011e00 f i CurEdit.obj
 0001:00010e30       ?SetNum_tPointer_Ex_ST@CDrSolid@@QAEXPAH@Z 10011e30 f i CurEdit.obj
 0001:00010e60       ?GetDis_AngPointer_ST@CDrSolid@@QAEPANXZ 10011e60 f i CurEdit.obj
 0001:00010e90       ?SetDis_AngPointer_ST@CDrSolid@@QAEXPAN@Z 10011e90 f i CurEdit.obj
 0001:00010ec0       ?GetData_Ex_R@CDrSolid@@QAEHXZ 10011ec0 f i CurEdit.obj
 0001:00010ef0       ?SetData_Ex_R@CDrSolid@@QAEXH@Z 10011ef0 f i CurEdit.obj
 0001:00010f20       ?IsExpanded_R@CDrSolid@@QAEHXZ 10011f20 f i CurEdit.obj
 0001:00010f50       ?SetExpanded_R@CDrSolid@@QAEXH@Z 10011f50 f i CurEdit.obj
 0001:00010f80       ?GetMaxENodes_R@CDrSolid@@QAEHXZ 10011f80 f i CurEdit.obj
 0001:00010fb0       ?SetMaxENodes_R@CDrSolid@@QAEXH@Z 10011fb0 f i CurEdit.obj
 0001:00010fe0       ?GetRadius_R@CDrSolid@@QAENXZ 10011fe0 f i CurEdit.obj
 0001:00011010       ?SetRadius_R@CDrSolid@@QAEXN@Z 10012010 f i CurEdit.obj
 0001:00011050       ?GetTheta_R@CDrSolid@@QAENXZ 10012050 f i CurEdit.obj
 0001:00011080       ?SetTheta_R@CDrSolid@@QAEXN@Z 10012080 f i CurEdit.obj
 0001:000110c0       ?GetCenter_R@CDrSolid@@QAE?AUWORLD@@XZ 100120c0 f i CurEdit.obj
 0001:00011100       ?SetCenter_R@CDrSolid@@QAEXUWORLD@@@Z 10012100 f i CurEdit.obj
 0001:00011170       ?GetNormal_R@CDrSolid@@QAE?AUWORLD@@XZ 10012170 f i CurEdit.obj
 0001:000111b0       ?SetNormal_R@CDrSolid@@QAEXUWORLD@@@Z 100121b0 f i CurEdit.obj
 0001:00011220       ?GetSegAngle_R@CDrSolid@@QAENXZ 10012220 f i CurEdit.obj
 0001:00011250       ?SetSegAngle_R@CDrSolid@@QAEXN@Z 10012250 f i CurEdit.obj
 0001:00011290       ?IsHole_R@CDrSolid@@QAEHXZ 10012290 f i CurEdit.obj
 0001:000112c0       ?SetHole_R@CDrSolid@@QAEXH@Z 100122c0 f i CurEdit.obj
 0001:000112f0       ?GetpTangents_R@CDrSolid@@QAEPAUWORLD@@XZ 100122f0 f i CurEdit.obj
 0001:00011320       ?SetpTangents_R@CDrSolid@@QAEXPAUWORLD@@@Z 10012320 f i CurEdit.obj
 0001:00011350       ?GetpCurvatures_R@CDrSolid@@QAEPANXZ 10012350 f i CurEdit.obj
 0001:00011380       ?SetpCurvatures_R@CDrSolid@@QAEXPAN@Z 10012380 f i CurEdit.obj
 0001:000113b0       ?GetRatio_R@CDrSolid@@QAENXZ 100123b0 f i CurEdit.obj
 0001:000113e0       ?SetRatio_R@CDrSolid@@QAEXN@Z 100123e0 f i CurEdit.obj
 0001:00011420       ?GetTwistType_R@CDrSolid@@QAEHXZ 10012420 f i CurEdit.obj
 0001:00011450       ?SetTwistType_R@CDrSolid@@QAEXH@Z 10012450 f i CurEdit.obj
 0001:00011480       ?GetTwistList_R@CDrSolid@@QAEPAV?$CList@NN@@XZ 10012480 f i CurEdit.obj
 0001:000114b0       ?GetScaleType_R@CDrSolid@@QAEHXZ 100124b0 f i CurEdit.obj
 0001:000114e0       ?SetScaleType_R@CDrSolid@@QAEXH@Z 100124e0 f i CurEdit.obj
 0001:00011510       ?GetScaleList_R@CDrSolid@@QAEPAV?$CList@NN@@XZ 10012510 f i CurEdit.obj
 0001:00011540       ?IsIncTwist_R@CDrSolid@@QAEHXZ 10012540 f i CurEdit.obj
 0001:00011570       ?SetIncTwist_R@CDrSolid@@QAEXH@Z 10012570 f i CurEdit.obj
 0001:000115a0       ?GetTwistMult_R@CDrSolid@@QAENXZ 100125a0 f i CurEdit.obj
 0001:000115d0       ?SetTwistMult_R@CDrSolid@@QAEXN@Z 100125d0 f i CurEdit.obj
 0001:00011610       ?GetTwistStart_R@CDrSolid@@QAENXZ 10012610 f i CurEdit.obj
 0001:00011640       ?SetTwistStart_R@CDrSolid@@QAEXN@Z 10012640 f i CurEdit.obj
 0001:00011680       ?IsIncScale_R@CDrSolid@@QAEHXZ 10012680 f i CurEdit.obj
 0001:000116b0       ?SetIncScale_R@CDrSolid@@QAEXH@Z 100126b0 f i CurEdit.obj
 0001:000116e0       ?GetScaleMult_R@CDrSolid@@QAENXZ 100126e0 f i CurEdit.obj
 0001:00011710       ?SetScaleMult_R@CDrSolid@@QAEXN@Z 10012710 f i CurEdit.obj
 0001:00011750       ?GetScaleStart_R@CDrSolid@@QAENXZ 10012750 f i CurEdit.obj
 0001:00011780       ?SetScaleStart_R@CDrSolid@@QAEXN@Z 10012780 f i CurEdit.obj
 0001:000117c0       ?GetPentaList@CDrSolid@@QAEPAVCDListMgr@@XZ 100127c0 f i CurEdit.obj
 0001:000117f0       ?GetnTriangles_ST@CDrSolid@@QAEHXZ 100127f0 f i CurEdit.obj
 0001:00011820       ?SetnTriangles_ST@CDrSolid@@QAEXH@Z 10012820 f i CurEdit.obj
 0001:00011850       ?GetElperSegList_R@CDrSolid@@QAEPAV?$CList@HH@@XZ 10012850 f i CurEdit.obj
 0001:00011880       ?IsGenBPatch@CDrSolid@@QAEHXZ 10012880 f i CurEdit.obj
 0001:000118b0       ?SetGenBPatch@CDrSolid@@QAEXH@Z 100128b0 f i CurEdit.obj
 0001:000118e0       ?GetVPatchList@CDrSolid@@QAEPAVCDListMgr@@XZ 100128e0 f i CurEdit.obj
 0001:00011910       ?GetPatchList_U@CDrSolid@@QAEPAVCDListMgr@@XZ 10012910 f i CurEdit.obj
 0001:00011940       ?GetPatchList_V@CDrSolid@@QAEPAVCDListMgr@@XZ 10012940 f i CurEdit.obj
 0001:00011970       ?GetPatchList_W@CDrSolid@@QAEPAVCDListMgr@@XZ 10012970 f i CurEdit.obj
 0001:000119a0       ?GetPatchLatchList_U@CDrSolid@@QAEPAV?$CList@W4PATCHLATCH@@W41@@@XZ 100129a0 f i CurEdit.obj
 0001:000119d0       ?GetPatchLatchList_V@CDrSolid@@QAEPAV?$CList@W4PATCHLATCH@@W41@@@XZ 100129d0 f i CurEdit.obj
 0001:00011a00       ?GetPatchLatchList_W@CDrSolid@@QAEPAV?$CList@W4PATCHLATCH@@W41@@@XZ 10012a00 f i CurEdit.obj
 0001:00011a30       ?IsAxisInput_R@CDrSolid@@QAEHXZ 10012a30 f i CurEdit.obj
 0001:00011a60       ?SetAxisInput_R@CDrSolid@@QAEXH@Z 10012a60 f i CurEdit.obj
 0001:00011a90       ?GetAxisType_R@CDrSolid@@QAEHXZ 10012a90 f i CurEdit.obj
 0001:00011ac0       ?SetAxisType_R@CDrSolid@@QAEXH@Z 10012ac0 f i CurEdit.obj
 0001:00011af0       ?IsNegative_R@CDrSolid@@QAEHXZ 10012af0 f i CurEdit.obj
 0001:00011b20       ?SetNegative_R@CDrSolid@@QAEXH@Z 10012b20 f i CurEdit.obj
 0001:00011b50       ?GetCircleType_R@CDrSolid@@QAE?AW4CIRCLETYPE@@XZ 10012b50 f i CurEdit.obj
 0001:00011b80       ?SetCircleType_R@CDrSolid@@QAEXW4CIRCLETYPE@@@Z 10012b80 f i CurEdit.obj
 0001:00011bb0       ?GetAng_1_R@CDrSolid@@QAENXZ 10012bb0 f i CurEdit.obj
 0001:00011be0       ?SetAng_1_R@CDrSolid@@QAEXN@Z 10012be0 f i CurEdit.obj
 0001:00011c20       ?GetAng_2_R@CDrSolid@@QAENXZ 10012c20 f i CurEdit.obj
 0001:00011c50       ?SetAng_2_R@CDrSolid@@QAEXN@Z 10012c50 f i CurEdit.obj
 0001:00011c90       ?IsEndCondMode@CSheet_SOLI@@QAEHXZ 10012c90 f i CurEdit.obj
 0001:00011cc0       ?SetEndCondMode@CSheet_SOLI@@QAEXH@Z 10012cc0 f i CurEdit.obj
 0001:00011cf0       ?IsTackled@CDrObj3D@@QAEHXZ 10012cf0 f i CurEdit.obj
 0001:00011d20       ?SetTackled@CDrObj3D@@QAEXH@Z 10012d20 f i CurEdit.obj
 0001:00011d50       ??1CDlg_O3DI@@UAE@XZ       10012d50 f i CurEdit.obj
 0001:00011dc0       ??1CDlg_SupI@@UAE@XZ       10012dc0 f i CurEdit.obj
 0001:00011e30       ?Parse_drPipe@CDrLinSup@@UAEPAUsupportcard@@PAVCString@@@Z 10012e30 f i CurEdit.obj
 0001:00011e50       ?GetSuppCard@CDrLinSup@@UAEPAUsupportcard@@XZ 10012e50 f i CurEdit.obj
 0001:00011e80       ?GetCardNo@CDrLinSup@@UAEHXZ 10012e80 f i CurEdit.obj
 0001:00011eb0       ?SetCardNo@CDrLinSup@@UAEXH@Z 10012eb0 f i CurEdit.obj
 0001:00011ee0       ?GetLabelNo@CDrLinSup@@QAEJXZ 10012ee0 f i CurEdit.obj
 0001:00011f10       ?SetLabelNo@CDrLinSup@@QAEXJ@Z 10012f10 f i CurEdit.obj
 0001:00011f40       ?GetnPts@CDrLinSup@@QAEHH@Z 10012f40 f i CurEdit.obj
 0001:00011f70       ?GetpLoc@CDrLinSup@@QAEPAUWORLD@@H@Z 10012f70 f i CurEdit.obj
 0001:00011fa0       ?IsSkewed@CDrLinSup@@UAEHXZ 10012fa0 f i CurEdit.obj
 0001:00011fd0       ?SetSkewed@CDrLinSup@@UAEXH@Z 10012fd0 f i CurEdit.obj
 0001:00012000       ?GetSkewMat@CDrLinSup@@QAEPAUMATRIX@@XZ 10013000 f i CurEdit.obj
 0001:00012030       ?SetSkewMat@CDrLinSup@@QAEXPAUMATRIX@@@Z 10013030 f i CurEdit.obj
 0001:00012070       ?GetCreateBase@CDrLinSup@@QAEIXZ 10013070 f i CurEdit.obj
 0001:000120a0       ?SetCreateBase@CDrLinSup@@QAEXI@Z 100130a0 f i CurEdit.obj
 0001:000120d0       ?IsTriangle@CDrLinSup@@QAEHXZ 100130d0 f i CurEdit.obj
 0001:00012100       ?SetTriangle@CDrLinSup@@QAEXH@Z 10013100 f i CurEdit.obj
 0001:00012130       ?IsPentaHed@CDrLinSup@@QAEHXZ 10013130 f i CurEdit.obj
 0001:00012160       ?SetPentaHed@CDrLinSup@@QAEXH@Z 10013160 f i CurEdit.obj
 0001:00012190       ?GetCreate_i@CDrLinSup@@QAEHXZ 10013190 f i CurEdit.obj
 0001:000121c0       ?SetCreate_i@CDrLinSup@@QAEXH@Z 100131c0 f i CurEdit.obj
 0001:000121f0       ?GetCreate_j@CDrLinSup@@QAEHXZ 100131f0 f i CurEdit.obj
 0001:00012220       ?SetCreate_j@CDrLinSup@@QAEXH@Z 10013220 f i CurEdit.obj
 0001:00012250       ?GetCreate_k@CDrLinSup@@QAEHXZ 10013250 f i CurEdit.obj
 0001:00012280       ?SetCreate_k@CDrLinSup@@QAEXH@Z 10013280 f i CurEdit.obj
 0001:000122b0       ?GetNodPos@CDrLinSup@@QAEPAUWORLD@@XZ 100132b0 f i CurEdit.obj
 0001:000122e0       ?SetNodPos@CDrLinSup@@QAEXAAUWORLD@@@Z 100132e0 f i CurEdit.obj
 0001:00012320       ?Parse_drPipe@CDrStatic@@UAEPAUstaLcard@@PAVCString@@@Z 10013320 f i CurEdit.obj
 0001:00012340       ?GetCardNo@CDrStatic@@QAEHXZ 10013340 f i CurEdit.obj
 0001:00012370       ?SetCardNo@CDrStatic@@QAEXH@Z 10013370 f i CurEdit.obj
 0001:000123a0       ?GetStaLCard@CDrStatic@@QAEPAUstaLcard@@XZ 100133a0 f i CurEdit.obj
 0001:000123d0       ?GetNodeList@CDrStatic@@QAEPAVCDListMgr@@XZ 100133d0 f i CurEdit.obj
 0001:00012400       ?GetCurveList@CDrStatic@@QAEPAVCDListMgr@@XZ 10013400 f i CurEdit.obj
 0001:00012430       ?GetPatchList@CDrStatic@@QAEPAVCDListMgr@@XZ 10013430 f i CurEdit.obj
 0001:00012460       ?GetSolidList@CDrStatic@@QAEPAVCDListMgr@@XZ 10013460 f i CurEdit.obj
 0001:00012490       ?GetLabelNode@CDrStatic@@QAEPAVCDrNode@@XZ 10013490 f i CurEdit.obj
 0001:000124c0       ?SetLabelNode@CDrStatic@@QAEXPAVCDrNode@@@Z 100134c0 f i CurEdit.obj
 0001:000124f0       ?GetLabelPtr@CDrStatic@@QAEPAVCDrLabel@@XZ 100134f0 f i CurEdit.obj
 0001:00012520       ?SetLabelPtr@CDrStatic@@QAEXPAVCDrLabel@@@Z 10013520 f i CurEdit.obj
 0001:00012550       ?GetLabelNo@CDrStatic@@QAEJXZ 10013550 f i CurEdit.obj
 0001:00012580       ?SetLabelNo@CDrStatic@@QAEXJ@Z 10013580 f i CurEdit.obj
 0001:000125b0       ?GetLocalM@CDrStatic@@QAEPAUMATRIX@@XZ 100135b0 f i CurEdit.obj
 0001:000125e0       ?SetLocalM@CDrStatic@@QAEXPAUMATRIX@@@Z 100135e0 f i CurEdit.obj
 0001:00012620       ?GetnPts@CDrStatic@@QAEHH@Z 10013620 f i CurEdit.obj
 0001:00012650       ?GetpLoc@CDrStatic@@QAEPAUWORLD@@H@Z 10013650 f i CurEdit.obj
 0001:00012680       ?IsSkewed@CDrStatic@@UAEHXZ 10013680 f i CurEdit.obj
 0001:000126b0       ?SetSkewed@CDrStatic@@UAEXH@Z 100136b0 f i CurEdit.obj
 0001:000126e0       ?GetSkewMat@CDrStatic@@QAEPAUMATRIX@@XZ 100136e0 f i CurEdit.obj
 0001:00012710       ?SetSkewMat@CDrStatic@@QAEXPAUMATRIX@@@Z 10013710 f i CurEdit.obj
 0001:00012750       ?GetCreateBase@CDrStatic@@QAEIXZ 10013750 f i CurEdit.obj
 0001:00012780       ?SetCreateBase@CDrStatic@@QAEXI@Z 10013780 f i CurEdit.obj
 0001:000127b0       ?IsTriangle@CDrStatic@@QAEHXZ 100137b0 f i CurEdit.obj
 0001:000127e0       ?SetTriangle@CDrStatic@@QAEXH@Z 100137e0 f i CurEdit.obj
 0001:00012810       ?IsPentaHed@CDrStatic@@QAEHXZ 10013810 f i CurEdit.obj
 0001:00012840       ?SetPentaHed@CDrStatic@@QAEXH@Z 10013840 f i CurEdit.obj
 0001:00012870       ?GetCreate_i@CDrStatic@@QAEHXZ 10013870 f i CurEdit.obj
 0001:000128a0       ?SetCreate_i@CDrStatic@@QAEXH@Z 100138a0 f i CurEdit.obj
 0001:000128d0       ?GetCreate_j@CDrStatic@@QAEHXZ 100138d0 f i CurEdit.obj
 0001:00012900       ?SetCreate_j@CDrStatic@@QAEXH@Z 10013900 f i CurEdit.obj
 0001:00012930       ?GetCreate_k@CDrStatic@@QAEHXZ 10013930 f i CurEdit.obj
 0001:00012960       ?SetCreate_k@CDrStatic@@QAEXH@Z 10013960 f i CurEdit.obj
 0001:00012990       ?GetNodPos@CDrStatic@@QAEPAUWORLD@@XZ 10013990 f i CurEdit.obj
 0001:000129c0       ?SetNodPos@CDrStatic@@QAEXAAUWORLD@@@Z 100139c0 f i CurEdit.obj
 0001:00012a00       ?SetCurrentNode@CSLDNod@@QAEXPAVCDrNode@@@Z 10013a00 f i CurEdit.obj
 0001:00012a30       ?SetCurrentLabel@CSLDNod@@QAEXPAVCDrLabel@@@Z 10013a30 f i CurEdit.obj
 0001:00012a60       ??1CDlg_StLI@@UAE@XZ       10013a60 f i CurEdit.obj
 0001:00012b00       ??1CDlg_CrOI@@UAE@XZ       10013b00 f i CurEdit.obj
 0001:00012b80       ?GetCurveList@CDrProf_C@@QAEPAVCDListMgr@@XZ 10013b80 f i CurEdit.obj
 0001:00012bb0       ?GetLMList@CDrProf_C@@QAEPAVCDListMgr@@XZ 10013bb0 f i CurEdit.obj
 0001:00012be0       ?GetCurve@CDrProf_C@@QAEPAVCDrCurve@@XZ 10013be0 f i CurEdit.obj
 0001:00012c10       ?SetCurve@CDrProf_C@@QAEXPAVCDrCurve@@@Z 10013c10 f i CurEdit.obj
 0001:00012c40       ?GetProfileType@CDrProf_C@@QAE?AW4PROFILETYPE@@XZ 10013c40 f i CurEdit.obj
 0001:00012c70       ?SetProfileType@CDrProf_C@@QAEXW4PROFILETYPE@@@Z 10013c70 f i CurEdit.obj
 0001:00012ca0       ?GetElNumID@CDrFE0D@@QAEAAVCString@@XZ 10013ca0 f i CurEdit.obj
 0001:00012cd0       ?SetElNumID@CDrFE0D@@QAEXVCString@@@Z 10013cd0 f i CurEdit.obj
 0001:00012d50       ?GetElTypeID@CDrFE0D@@QAEAAVCString@@XZ 10013d50 f i CurEdit.obj
 0001:00012d80       ?SetElTypeID@CDrFE0D@@QAEXVCString@@@Z 10013d80 f i CurEdit.obj
 0001:00012e00       ?Getrid@CDrFE0D@@QAEAAVCString@@XZ 10013e00 f i CurEdit.obj
 0001:00012e30       ?Setrid@CDrFE0D@@QAEXVCString@@@Z 10013e30 f i CurEdit.obj
 0001:00012eb0       ?Getpid@CDrFE0D@@QAEAAVCString@@XZ 10013eb0 f i CurEdit.obj
 0001:00012ee0       ?Setpid@CDrFE0D@@QAEXVCString@@@Z 10013ee0 f i CurEdit.obj
 0001:00012f60       ?Getmid@CDrFE0D@@QAEAAVCString@@XZ 10013f60 f i CurEdit.obj
 0001:00012f90       ?Setmid@CDrFE0D@@QAEXVCString@@@Z 10013f90 f i CurEdit.obj
 0001:00013010       ?GetElNum@CDrFE0D@@QAEIXZ  10014010 f i CurEdit.obj
 0001:00013040       ?SetElNum@CDrFE0D@@QAEXI@Z 10014040 f i CurEdit.obj
 0001:00013070       ?GetElTypeNum@CDrFE0D@@QAEIXZ 10014070 f i CurEdit.obj
 0001:000130a0       ?SetElTypeNum@CDrFE0D@@QAEXI@Z 100140a0 f i CurEdit.obj
 0001:000130d0       ?Getrel@CDrFE0D@@QAEIXZ    100140d0 f i CurEdit.obj
 0001:00013100       ?Setrel@CDrFE0D@@QAEXI@Z   10014100 f i CurEdit.obj
 0001:00013130       ?Getprop@CDrFE0D@@QAEIXZ   10014130 f i CurEdit.obj
 0001:00013160       ?Setprop@CDrFE0D@@QAEXI@Z  10014160 f i CurEdit.obj
 0001:00013190       ?Getmat@CDrFE0D@@QAEIXZ    10014190 f i CurEdit.obj
 0001:000131c0       ?Setmat@CDrFE0D@@QAEXI@Z   100141c0 f i CurEdit.obj
 0001:000131f0       ?GetRefTemp@CDrFE0D@@QAENXZ 100141f0 f i CurEdit.obj
 0001:00013220       ?SetRefTemp@CDrFE0D@@QAEXN@Z 10014220 f i CurEdit.obj
 0001:00013260       ?GetNormalWorld@CDrFE0D@@UAEPAUWORLD@@XZ 10014260 f i CurEdit.obj
 0001:00013290       ?SetNormalWorld@CDrFE0D@@UAEXUWORLD@@@Z 10014290 f i CurEdit.obj
 0001:000132d0       ?GetNormalEye@CDrFE0D@@UAEPAUWORLD@@XZ 100142d0 f i CurEdit.obj
 0001:00013300       ?SetNormalEye@CDrFE0D@@UAEXUWORLD@@@Z 10014300 f i CurEdit.obj
 0001:00013340       ?GetNormalScreen3D@CDrFE0D@@UAEPAUWORLD@@XZ 10014340 f i CurEdit.obj
 0001:00013370       ?SetNormalScreen3D@CDrFE0D@@UAEXUWORLD@@@Z 10014370 f i CurEdit.obj
 0001:000133b0       ?GetNormalScreen2D@CDrFE0D@@UAEPAUtagPOINT@@XZ 100143b0 f i CurEdit.obj
 0001:000133e0       ?SetNormalScreen2D@CDrFE0D@@UAEXUtagPOINT@@@Z 100143e0 f i CurEdit.obj
 0001:00013420       ?IsMeshNode@CDrFE0D@@UAEHXZ 10014420 f i CurEdit.obj
 0001:00013450       ?SetMeshNode@CDrFE0D@@UAEXH@Z 10014450 f i CurEdit.obj
 0001:00013480       ?GetHist_S@CDrFE0D@@QAEHXZ 10014480 f i CurEdit.obj
 0001:000134b0       ?SetHist_S@CDrFE0D@@QAEXH@Z 100144b0 f i CurEdit.obj
 0001:000134e0       ?GetHist_T@CDrFE0D@@QAEHXZ 100144e0 f i CurEdit.obj
 0001:00013510       ?SetHist_T@CDrFE0D@@QAEXH@Z 10014510 f i CurEdit.obj
 0001:00013540       ?GetHist_R@CDrFE0D@@QAEHXZ 10014540 f i CurEdit.obj
 0001:00013570       ?SetHist_R@CDrFE0D@@QAEXH@Z 10014570 f i CurEdit.obj
 0001:000135a0       ??1CMlg_CrOI@@UAE@XZ       100145a0 f i CurEdit.obj
 0001:00013620       ?GetGenObj@CDrMesh1D@@QAEPAVCDrCurve@@XZ 10014620 f i CurEdit.obj
 0001:00013650       ?SetGenObj@CDrMesh1D@@QAEXPAVCDrCurve@@@Z 10014650 f i CurEdit.obj
 0001:00013680       ?GetRefQuad@CDrMesh2D@@UAE?AW4REF_QUAD@@XZ 10014680 f i CurEdit.obj
 0001:000136b0       ?SetRefQuad@CDrMesh2D@@UAEXW4REF_QUAD@@@Z 100146b0 f i CurEdit.obj
 0001:000136e0       ?GetRefTri@CDrMesh2D@@UAE?AW4REF_TRI@@XZ 100146e0 f i CurEdit.obj
 0001:00013710       ?SetRefTri@CDrMesh2D@@UAEXW4REF_TRI@@@Z 10014710 f i CurEdit.obj
 0001:00013740       ?GetOrient@CDrMesh2D@@UAE?AW4ORIENT@@XZ 10014740 f i CurEdit.obj
 0001:00013770       ?SetOrient@CDrMesh2D@@UAEXW4ORIENT@@@Z 10014770 f i CurEdit.obj
 0001:000137a0       ?GetGenObj@CDrMesh2D@@QAEPAVCDrPatch@@XZ 100147a0 f i CurEdit.obj
 0001:000137d0       ?SetGenObj@CDrMesh2D@@QAEXPAVCDrPatch@@@Z 100147d0 f i CurEdit.obj
 0001:00013800       ?IsReversed_ST@CDrMesh2D@@QAEHXZ 10014800 f i CurEdit.obj
 0001:00013830       ?SetReversed_ST@CDrMesh2D@@QAEXH@Z 10014830 f i CurEdit.obj
 0001:00013860       ?GetEdgeList@CDrMesh2D@@QAEPAVCDListMgr@@XZ 10014860 f i CurEdit.obj
 0001:00013890       ?GetEdgeList@CDrMesh3D@@QAEPAVCDListMgr@@XZ 10014890 f i CurEdit.obj
 0001:000138c0       ?GetFaceList@CDrMesh3D@@QAEPAVCDListMgr@@XZ 100148c0 f i CurEdit.obj
 0001:000138f0       ?GetGenObj@CDrMesh3D@@QAEPAVCDrSolid@@XZ 100148f0 f i CurEdit.obj
 0001:00013920       ?SetGenObj@CDrMesh3D@@QAEXPAVCDrSolid@@@Z 10014920 f i CurEdit.obj
 0001:00013950       ??1CDlg_FE0I@@UAE@XZ       10014950 f i CurEdit.obj
 0001:000139d0       ?Parse_drPipe@CDrPipe@@UAEXPAVCString@@@Z 100149d0 f i CurEdit.obj
 0001:000139f0       ?GetMaxCorners@CDrPipe@@UAEHXZ 100149f0 f i CurEdit.obj
 0001:00013a10       ?GetSIid@CDrPipe@@QAEAAVCString@@H@Z 10014a10 f i CurEdit.obj
 0001:00013a40       ?SetSIid@CDrPipe@@QAEXVCString@@H@Z 10014a40 f i CurEdit.obj
 0001:00013ac0       ?IsValve@CDrPipe@@QAEHXZ   10014ac0 f i CurEdit.obj
 0001:00013af0       ?SetValve@CDrPipe@@QAEXH@Z 10014af0 f i CurEdit.obj
 0001:00013b20       ?Parse_drPipe@CDrBeam@@UAEXPAVCString@@@Z 10014b20 f i CurEdit.obj
 0001:00013b40       ?GetMaxCorners@CDrBeam@@UAEHXZ 10014b40 f i CurEdit.obj
 0001:00013b60       ?GetKNodeID@CDrBeam@@UAEAAVCString@@XZ 10014b60 f i CurEdit.obj
 0001:00013b90       ?SetKNodeID@CDrBeam@@UAEXAAVCString@@@Z 10014b90 f i CurEdit.obj
 0001:00013bc0       ?Parse_drPipe@CDrTruss@@UAEXPAVCString@@@Z 10014bc0 f i CurEdit.obj
 0001:00013be0       ?GetMaxCorners@CDrTruss@@UAEHXZ 10014be0 f i CurEdit.obj
 0001:00013c00       ?Parse_drPipe@CDrElbow@@UAEXPAVCString@@@Z 10014c00 f i CurEdit.obj
 0001:00013c20       ?GetMaxCorners@CDrElbow@@UAEHXZ 10014c20 f i CurEdit.obj
 0001:00013c40       ?GetSIid@CDrElbow@@QAEAAVCString@@H@Z 10014c40 f i CurEdit.obj
 0001:00013c70       ?SetSIid@CDrElbow@@QAEXVCString@@H@Z 10014c70 f i CurEdit.obj
 0001:00013cf0       ?GetCCID@CDrElbow@@QAEAAVCString@@H@Z 10014cf0 f i CurEdit.obj
 0001:00013d20       ?SetCCID@CDrElbow@@QAEXVCString@@@Z 10014d20 f i CurEdit.obj
 0001:00013da0       ?GetTIID@CDrElbow@@QAEAAVCString@@H@Z 10014da0 f i CurEdit.obj
 0001:00013dd0       ?SetTIID@CDrElbow@@QAEXVCString@@@Z 10014dd0 f i CurEdit.obj
 0001:00013e50       ?GetCAID@CDrElbow@@QAEAAVCString@@H@Z 10014e50 f i CurEdit.obj
 0001:00013e80       ?SetCAID@CDrElbow@@QAEXVCString@@@Z 10014e80 f i CurEdit.obj
 0001:00013f00       ?GetCBID@CDrElbow@@QAEAAVCString@@H@Z 10014f00 f i CurEdit.obj
 0001:00013f30       ?SetCBID@CDrElbow@@QAEXVCString@@@Z 10014f30 f i CurEdit.obj
 0001:00013fb0       ??1CDlg_FE1I@@UAE@XZ       10014fb0 f i CurEdit.obj
 0001:00014090       ?GetDrFace@CFaceInfo@@QAEPAVCObject@@XZ 10015090 f i CurEdit.obj
 0001:000140b0       ?SetDrFace@CFaceInfo@@QAEXPAVCObject@@@Z 100150b0 f i CurEdit.obj
 0001:000140e0       ?GetFaceType@CFaceInfo@@QAEIXZ 100150e0 f i CurEdit.obj
 0001:00014100       ?SetFaceType@CFaceInfo@@QAEXI@Z 10015100 f i CurEdit.obj
 0001:00014130       ?GetGenObj@CFaceInfo@@QAEPAVCObject@@XZ 10015130 f i CurEdit.obj
 0001:00014150       ?SetGenObj@CFaceInfo@@QAEXPAVCObject@@@Z 10015150 f i CurEdit.obj
 0001:00014180       ?GetGenType@CFaceInfo@@QAEIXZ 10015180 f i CurEdit.obj
 0001:000141a0       ?SetGenType@CFaceInfo@@QAEXI@Z 100151a0 f i CurEdit.obj
 0001:000141d0       ?GetFaceDim@CFaceInfo@@QAEIXZ 100151d0 f i CurEdit.obj
 0001:000141f0       ?SetFaceDim@CFaceInfo@@QAEXI@Z 100151f0 f i CurEdit.obj
 0001:00014220       ?GetObjectID@CDrEdge@@QAEAAVCString@@XZ 10015220 f i CurEdit.obj
 0001:00014240       ?SetObjectID@CDrEdge@@QAEXAAVCString@@@Z 10015240 f i CurEdit.obj
 0001:00014270       ?GetVrtxIndex@CDrEdge@@QAEHH@Z 10015270 f i CurEdit.obj
 0001:000142a0       ?SetVrtxIndex@CDrEdge@@QAEXHH@Z 100152a0 f i CurEdit.obj
 0001:000142d0       ?GetFaceInfoList@CDrEdge@@QAEPAVCDListMgr@@XZ 100152d0 f i CurEdit.obj
 0001:000142f0       ?GetHist_RCH@CDrEdge@@QAEHXZ 100152f0 f i CurEdit.obj
 0001:00014310       ?SetHist_RCH@CDrEdge@@QAEXH@Z 10015310 f i CurEdit.obj
 0001:00014340       ?GetHistType@CDrEdge@@QAEHXZ 10015340 f i CurEdit.obj
 0001:00014360       ?SetHistType@CDrEdge@@QAEXH@Z 10015360 f i CurEdit.obj
 0001:00014390       ?GetMesh@CDrEdge@@QAEPAVCDrObject@@XZ 10015390 f i CurEdit.obj
 0001:000143b0       ?SetMesh@CDrEdge@@QAEXPAVCDrObject@@@Z 100153b0 f i CurEdit.obj
 0001:000143e0       ?GetMeshType@CDrEdge@@QAEIXZ 100153e0 f i CurEdit.obj
 0001:00014400       ?SetMeshType@CDrEdge@@QAEXI@Z 10015400 f i CurEdit.obj
 0001:00014430       ?IsOnBndry@CDrEdge@@QAEHXZ 10015430 f i CurEdit.obj
 0001:00014450       ?SetOnBndry@CDrEdge@@QAEXH@Z 10015450 f i CurEdit.obj
 0001:00014480       ??1CDlg_FE2I@@UAE@XZ       10015480 f i CurEdit.obj
 0001:00014560       ?GetMesh1DList@CDrProf_1@@UAEPAVCDListMgr@@XZ 10015560 f i CurEdit.obj
 0001:00014590       ?GetLMList@CDrProf_1@@UAEPAVCDListMgr@@XZ 10015590 f i CurEdit.obj
 0001:000145c0       ?GetMesh1D@CDrProf_1@@UAEPAVCDrMesh1D@@XZ 100155c0 f i CurEdit.obj
 0001:000145f0       ?SetMesh1D@CDrProf_1@@UAEXPAVCDrMesh1D@@@Z 100155f0 f i CurEdit.obj
 0001:00014620       ?GetObjectType@CBooleans@@UAEHXZ 10015620 f i CurEdit.obj
 0001:00014650       ?SetObjectType@CBooleans@@UAEXH@Z 10015650 f i CurEdit.obj
 0001:00014680       ?GetElemType@CBooleans@@UAEHXZ 10015680 f i CurEdit.obj
 0001:000146b0       ?SetElemType@CBooleans@@UAEXH@Z 100156b0 f i CurEdit.obj
 0001:000146e0       ?GetObjectNo@CBooleans@@UAEJXZ 100156e0 f i CurEdit.obj
 0001:00014710       ?SetObjectNo@CBooleans@@UAEXJ@Z 10015710 f i CurEdit.obj
 0001:00014740       ?IsSoundOn@CBooleans@@UAEHXZ 10015740 f i CurEdit.obj
 0001:00014770       ?ToggleSoundOn@CBooleans@@UAEXXZ 10015770 f i CurEdit.obj
 0001:000147b0       ?IsCoonSocksOff@CBooleans@@UAEHXZ 100157b0 f i CurEdit.obj
 0001:000147e0       ?ToggleCoonSocksOff@CBooleans@@UAEXXZ 100157e0 f i CurEdit.obj
 0001:00014820       ?IsSnapOn@CBooleans@@UAEHXZ 10015820 f i CurEdit.obj
 0001:00014850       ?ToggleSnapOn@CBooleans@@UAEXXZ 10015850 f i CurEdit.obj
 0001:00014890       ?IsHorSnapOn@CBooleans@@UAEHXZ 10015890 f i CurEdit.obj
 0001:000148c0       ?ToggleHorSnapOn@CBooleans@@UAEXXZ 100158c0 f i CurEdit.obj
 0001:00014900       ?IsVerSnapOn@CBooleans@@UAEHXZ 10015900 f i CurEdit.obj
 0001:00014930       ?ToggleVerSnapOn@CBooleans@@UAEXXZ 10015930 f i CurEdit.obj
 0001:00014970       ?IsSpawnOn@CBooleans@@UAEHXZ 10015970 f i CurEdit.obj
 0001:000149a0       ?ToggleSpawnOn@CBooleans@@UAEXXZ 100159a0 f i CurEdit.obj
 0001:000149e0       ?IsBLineOn@CBooleans@@UAEHXZ 100159e0 f i CurEdit.obj
 0001:00014a10       ?ToggleBLineOn@CBooleans@@UAEXXZ 10015a10 f i CurEdit.obj
 0001:00014a50       ?IsSingleSegOn@CBooleans@@UAEHXZ 10015a50 f i CurEdit.obj
 0001:00014a80       ?ToggleSingleSegOn@CBooleans@@UAEXXZ 10015a80 f i CurEdit.obj
 0001:00014ac0       ?IsAutoAcceptOn@CBooleans@@UAEHXZ 10015ac0 f i CurEdit.obj
 0001:00014af0       ?ToggleAutoAcceptOn@CBooleans@@UAEXXZ 10015af0 f i CurEdit.obj
 0001:00014b30       ?IsDialogOn@CBooleans@@UAEHXZ 10015b30 f i CurEdit.obj
 0001:00014b60       ?ToggleDialogOn@CBooleans@@UAEXXZ 10015b60 f i CurEdit.obj
 0001:00014ba0       ?IsElementOn@CBooleans@@UAEHXZ 10015ba0 f i CurEdit.obj
 0001:00014bd0       ?ToggleElementOn@CBooleans@@UAEXXZ 10015bd0 f i CurEdit.obj
 0001:00014c10       ?IsDragOn@CBooleans@@UAEHXZ 10015c10 f i CurEdit.obj
 0001:00014c40       ?ToggleDragOn@CBooleans@@UAEXXZ 10015c40 f i CurEdit.obj
 0001:00014c80       ?IsRefreshOn@CBooleans@@UAEHXZ 10015c80 f i CurEdit.obj
 0001:00014cb0       ?ToggleRefreshOn@CBooleans@@UAEXXZ 10015cb0 f i CurEdit.obj
 0001:00014cf0       ?IsRubberBandOn@CBooleans@@UAEHXZ 10015cf0 f i CurEdit.obj
 0001:00014d20       ?ToggleRubberBandOn@CBooleans@@UAEXXZ 10015d20 f i CurEdit.obj
 0001:00014d60       ?IsStViewActive@CBooleans@@UAEHXZ 10015d60 f i CurEdit.obj
 0001:00014d90       ?ToggleStViewActive@CBooleans@@UAEXXZ 10015d90 f i CurEdit.obj
 0001:00014dd0       ?IsSpViewActive@CBooleans@@UAEHXZ 10015dd0 f i CurEdit.obj
 0001:00014e00       ?ToggleSpViewActive@CBooleans@@UAEXXZ 10015e00 f i CurEdit.obj
 0001:00014e40       ?IsHsViewActive@CBooleans@@UAEHXZ 10015e40 f i CurEdit.obj
 0001:00014e70       ?ToggleHsViewActive@CBooleans@@UAEXXZ 10015e70 f i CurEdit.obj
 0001:00014eb0       ?Is12ViewActive@CBooleans@@UAEHXZ 10015eb0 f i CurEdit.obj
 0001:00014ee0       ?Toggle12ViewActive@CBooleans@@UAEXXZ 10015ee0 f i CurEdit.obj
 0001:00014f20       ?Is23ViewActive@CBooleans@@UAEHXZ 10015f20 f i CurEdit.obj
 0001:00014f50       ?Toggle23ViewActive@CBooleans@@UAEXXZ 10015f50 f i CurEdit.obj
 0001:00014f90       ?Is31ViewActive@CBooleans@@UAEHXZ 10015f90 f i CurEdit.obj
 0001:00014fc0       ?Toggle31ViewActive@CBooleans@@UAEXXZ 10015fc0 f i CurEdit.obj
 0001:00015000       ?IsIsoViewActive@CBooleans@@UAEHXZ 10016000 f i CurEdit.obj
 0001:00015030       ?ToggleIsoViewActive@CBooleans@@UAEXXZ 10016030 f i CurEdit.obj
 0001:00015070       ?IsDataViewActive@CBooleans@@UAEHXZ 10016070 f i CurEdit.obj
 0001:000150a0       ?ToggleDataViewActive@CBooleans@@UAEXXZ 100160a0 f i CurEdit.obj
 0001:000150e0       ?IsMeshDataViewActive@CBooleans@@UAEHXZ 100160e0 f i CurEdit.obj
 0001:00015110       ?ToggleMeshDataViewActive@CBooleans@@UAEXXZ 10016110 f i CurEdit.obj
 0001:00015150       ?IsDeckViewActive@CBooleans@@UAEHXZ 10016150 f i CurEdit.obj
 0001:00015180       ?ToggleDeckViewActive@CBooleans@@UAEXXZ 10016180 f i CurEdit.obj
 0001:000151c0       ?IsFormDataViewActive@CBooleans@@UAEHXZ 100161c0 f i CurEdit.obj
 0001:000151f0       ?ToggleFormDataViewActive@CBooleans@@UAEXXZ 100161f0 f i CurEdit.obj
 0001:00015230       ?IsInputMode@CBooleans@@UAEHXZ 10016230 f i CurEdit.obj
 0001:00015260       ?SetInputMode@CBooleans@@UAEXH@Z 10016260 f i CurEdit.obj
 0001:00015290       ?IsOutputMode@CBooleans@@UAEHXZ 10016290 f i CurEdit.obj
 0001:000152c0       ?SetOutputMode@CBooleans@@UAEXH@Z 100162c0 f i CurEdit.obj
 0001:000152f0       ??1CBooleans@@UAE@XZ       100162f0 f i CurEdit.obj
 0001:00015320       ??_GCBooleans@@UAEPAXI@Z   10016320 f i CurEdit.obj
 0001:00015360       ??_ECBooleans@@UAEPAXI@Z   10016360 f i CurEdit.obj
 0001:00015400       ?GetObjectType@CDataWindow@@UAEHXZ 10016400 f i CurEdit.obj
 0001:00015430       ?SetObjectType@CDataWindow@@UAEXH@Z 10016430 f i CurEdit.obj
 0001:00015460       ?GetElemType@CDataWindow@@UAEHXZ 10016460 f i CurEdit.obj
 0001:00015490       ?SetElemType@CDataWindow@@UAEXH@Z 10016490 f i CurEdit.obj
 0001:000154c0       ?GetObjectNo@CDataWindow@@UAEJXZ 100164c0 f i CurEdit.obj
 0001:000154f0       ?SetObjectNo@CDataWindow@@UAEXJ@Z 100164f0 f i CurEdit.obj
 0001:00015520       ?GetWinOrgWIC@CDataWindow@@UAE?AULPOINT3@@XZ 10016520 f i CurEdit.obj
 0001:00015560       ?GetWinMinWIC@CDataWindow@@UAE?AULPOINT3@@XZ 10016560 f i CurEdit.obj
 0001:000155a0       ?GetWinMaxWIC@CDataWindow@@UAE?AULPOINT3@@XZ 100165a0 f i CurEdit.obj
 0001:000155e0       ?GetWinExtWIC@CDataWindow@@UAE?AULPOINT3@@XZ 100165e0 f i CurEdit.obj
 0001:00015620       ??1CDataWindow@@UAE@XZ     10016620 f i CurEdit.obj
 0001:00015650       ??_GCDataWindow@@UAEPAXI@Z 10016650 f i CurEdit.obj
 0001:00015690       ??_ECDataWindow@@UAEPAXI@Z 10016690 f i CurEdit.obj
 0001:00015730       ?GetObjectType@CDrFont@@UAEHXZ 10016730 f i CurEdit.obj
 0001:00015760       ?SetObjectType@CDrFont@@UAEXH@Z 10016760 f i CurEdit.obj
 0001:00015790       ?GetElemType@CDrFont@@UAEHXZ 10016790 f i CurEdit.obj
 0001:000157c0       ?SetElemType@CDrFont@@UAEXH@Z 100167c0 f i CurEdit.obj
 0001:000157f0       ?GetObjectNo@CDrFont@@UAEJXZ 100167f0 f i CurEdit.obj
 0001:00015820       ?SetObjectNo@CDrFont@@UAEXJ@Z 10016820 f i CurEdit.obj
 0001:00015850       ?IsFontSelected@CDrFont@@UAEHXZ 10016850 f i CurEdit.obj
 0001:00015880       ?GetTextColor@CDrFont@@UAEKXZ 10016880 f i CurEdit.obj
 0001:000158b0       ?SetTextColor@CDrFont@@UAEXK@Z 100168b0 f i CurEdit.obj
 0001:000158e0       ?GetCurrentLogFont@CDrFont@@UAE?AUtagLOGFONTA@@XZ 100168e0 f i CurEdit.obj
 0001:00015920       ?SetCurrentLogFont@CDrFont@@UAEXUtagLOGFONTA@@@Z 10016920 f i CurEdit.obj
 0001:00015960       ??1CDrFont@@UAE@XZ         10016960 f i CurEdit.obj
 0001:00015990       ??_GCDrFont@@UAEPAXI@Z     10016990 f i CurEdit.obj
 0001:000159d0       ??_ECDrFont@@UAEPAXI@Z     100169d0 f i CurEdit.obj
 0001:00015a70       ?GetObjectType@CDrPen@@UAEHXZ 10016a70 f i CurEdit.obj
 0001:00015aa0       ?SetObjectType@CDrPen@@UAEXH@Z 10016aa0 f i CurEdit.obj
 0001:00015ad0       ?GetElemType@CDrPen@@UAEHXZ 10016ad0 f i CurEdit.obj
 0001:00015b00       ?SetElemType@CDrPen@@UAEXH@Z 10016b00 f i CurEdit.obj
 0001:00015b30       ?GetObjectNo@CDrPen@@UAEJXZ 10016b30 f i CurEdit.obj
 0001:00015b60       ?SetObjectNo@CDrPen@@UAEXJ@Z 10016b60 f i CurEdit.obj
 0001:00015b90       ?GetCurrentPen@CDrPen@@UAEPAVCPen@@XZ 10016b90 f i CurEdit.obj
 0001:00015bc0       ?GetStyle@CDrPen@@UAEHXZ   10016bc0 f i CurEdit.obj
 0001:00015bf0       ?SetStyle@CDrPen@@UAEXH@Z  10016bf0 f i CurEdit.obj
 0001:00015c20       ?GetStyleOld@CDrPen@@UAEHXZ 10016c20 f i CurEdit.obj
 0001:00015c50       ?SetStyleOld@CDrPen@@UAEXH@Z 10016c50 f i CurEdit.obj
 0001:00015c80       ?GetStyleDefault@CDrPen@@UAEHXZ 10016c80 f i CurEdit.obj
 0001:00015cb0       ?SetStyleDefault@CDrPen@@UAEXH@Z 10016cb0 f i CurEdit.obj
 0001:00015ce0       ?GetWidth@CDrPen@@UAEHXZ   10016ce0 f i CurEdit.obj
 0001:00015d10       ?SetWidth@CDrPen@@UAEXH@Z  10016d10 f i CurEdit.obj
 0001:00015d40       ?GetWidthOld@CDrPen@@UAEHXZ 10016d40 f i CurEdit.obj
 0001:00015d70       ?SetWidthOld@CDrPen@@UAEXH@Z 10016d70 f i CurEdit.obj
 0001:00015da0       ?GetWidthDefault@CDrPen@@UAEHXZ 10016da0 f i CurEdit.obj
 0001:00015dd0       ?SetWidthDefault@CDrPen@@UAEXH@Z 10016dd0 f i CurEdit.obj
 0001:00015e00       ?GetColor@CDrPen@@UAEKXZ   10016e00 f i CurEdit.obj
 0001:00015e30       ?SetColor@CDrPen@@UAEXK@Z  10016e30 f i CurEdit.obj
 0001:00015e60       ?GetColorOld@CDrPen@@UAEKXZ 10016e60 f i CurEdit.obj
 0001:00015e90       ?SetColorOld@CDrPen@@UAEXK@Z 10016e90 f i CurEdit.obj
 0001:00015ec0       ?GetColorDefault@CDrPen@@UAEKXZ 10016ec0 f i CurEdit.obj
 0001:00015ef0       ?SetColorDefault@CDrPen@@UAEXK@Z 10016ef0 f i CurEdit.obj
 0001:00015f20       ?GetIndex@CDrPen@@UAEIXZ   10016f20 f i CurEdit.obj
 0001:00015f50       ?SetIndex@CDrPen@@UAEXI@Z  10016f50 f i CurEdit.obj
 0001:00015f80       ?GetIndexOld@CDrPen@@UAEIXZ 10016f80 f i CurEdit.obj
 0001:00015fb0       ?SetIndexOld@CDrPen@@UAEXI@Z 10016fb0 f i CurEdit.obj
 0001:00015fe0       ?GetIndexDefault@CDrPen@@UAEIXZ 10016fe0 f i CurEdit.obj
 0001:00016010       ?SetIndexDefault@CDrPen@@UAEXI@Z 10017010 f i CurEdit.obj
 0001:00016040       ?GetStyleNameCount@CDrPen@@UAEIXZ 10017040 f i CurEdit.obj
 0001:00016070       ?SetStyleNameCount@CDrPen@@UAEXI@Z 10017070 f i CurEdit.obj
 0001:000160a0       ?GetStyleName@CDrPen@@UAE?AVCString@@I@Z 100170a0 f i CurEdit.obj
 0001:000160f0       ?GetStyleConstant@CDrPen@@UAEII@Z 100170f0 f i CurEdit.obj
 0001:00016120       ??1CDrPen@@UAE@XZ          10017120 f i CurEdit.obj
 0001:000161c0       ??_GCDrPen@@UAEPAXI@Z      100171c0 f i CurEdit.obj
 0001:00016200       ??_ECDrPen@@UAEPAXI@Z      10017200 f i CurEdit.obj
 0001:000162a0       ?GetObjectType@CHitNet@@UAEHXZ 100172a0 f i CurEdit.obj
 0001:000162d0       ?SetObjectType@CHitNet@@UAEXH@Z 100172d0 f i CurEdit.obj
 0001:00016300       ?GetElemType@CHitNet@@UAEHXZ 10017300 f i CurEdit.obj
 0001:00016330       ?SetElemType@CHitNet@@UAEXH@Z 10017330 f i CurEdit.obj
 0001:00016360       ?GetObjectNo@CHitNet@@UAEJXZ 10017360 f i CurEdit.obj
 0001:00016390       ?SetObjectNo@CHitNet@@UAEXJ@Z 10017390 f i CurEdit.obj
 0001:000163c0       ?GetSearchNet@CHitNet@@QAEHXZ 100173c0 f i CurEdit.obj
 0001:000163f0       ?SetSearchNet@CHitNet@@QAEXH@Z 100173f0 f i CurEdit.obj
 0001:00016420       ?GetSearchNetOld@CHitNet@@QAEHXZ 10017420 f i CurEdit.obj
 0001:00016450       ?SetSearchNetOld@CHitNet@@QAEXH@Z 10017450 f i CurEdit.obj
 0001:00016480       ?GetSearchNetDefault@CHitNet@@QAEHXZ 10017480 f i CurEdit.obj
 0001:000164b0       ?SetSearchNetDefault@CHitNet@@QAEXH@Z 100174b0 f i CurEdit.obj
 0001:000164e0       ?GetSearchDet@CHitNet@@QAENXZ 100174e0 f i CurEdit.obj
 0001:00016510       ?SetSearchDet@CHitNet@@QAEXN@Z 10017510 f i CurEdit.obj
 0001:00016550       ?GetSearchDetOld@CHitNet@@QAENXZ 10017550 f i CurEdit.obj
 0001:00016580       ?SetSearchDetOld@CHitNet@@QAEXN@Z 10017580 f i CurEdit.obj
 0001:000165c0       ?GetSearchDetDefault@CHitNet@@QAENXZ 100175c0 f i CurEdit.obj
 0001:000165f0       ?SetSearchDetDefault@CHitNet@@QAEXN@Z 100175f0 f i CurEdit.obj
 0001:00016630       ?GetDblRatio@CHitNet@@QAENXZ 10017630 f i CurEdit.obj
 0001:00016660       ?SetDblRatio@CHitNet@@QAEXN@Z 10017660 f i CurEdit.obj
 0001:000166a0       ?GetDblRatioOld@CHitNet@@QAENXZ 100176a0 f i CurEdit.obj
 0001:000166d0       ?SetDblRatioOld@CHitNet@@QAEXN@Z 100176d0 f i CurEdit.obj
 0001:00016710       ?GetDblRatioDefault@CHitNet@@QAENXZ 10017710 f i CurEdit.obj
 0001:00016740       ?SetDblRatioDefault@CHitNet@@QAEXN@Z 10017740 f i CurEdit.obj
 0001:00016780       ?GetCoLinear@CHitNet@@QAENXZ 10017780 f i CurEdit.obj
 0001:000167b0       ?SetCoLinear@CHitNet@@QAEXN@Z 100177b0 f i CurEdit.obj
 0001:000167f0       ?GetCoLinearOld@CHitNet@@QAENXZ 100177f0 f i CurEdit.obj
 0001:00016820       ?SetCoLinearOld@CHitNet@@QAEXN@Z 10017820 f i CurEdit.obj
 0001:00016860       ?GetCoLinearDefault@CHitNet@@QAENXZ 10017860 f i CurEdit.obj
 0001:00016890       ?SetCoLinearDefault@CHitNet@@QAEXN@Z 10017890 f i CurEdit.obj
 0001:000168d0       ?GetCoPlanar@CHitNet@@QAENXZ 100178d0 f i CurEdit.obj
 0001:00016900       ?SetCoPlanar@CHitNet@@QAEXN@Z 10017900 f i CurEdit.obj
 0001:00016940       ?GetCoPlanarOld@CHitNet@@QAENXZ 10017940 f i CurEdit.obj
 0001:00016970       ?SetCoPlanarOld@CHitNet@@QAEXN@Z 10017970 f i CurEdit.obj
 0001:000169b0       ?GetCoPlanarDefault@CHitNet@@QAENXZ 100179b0 f i CurEdit.obj
 0001:000169e0       ?SetCoPlanarDefault@CHitNet@@QAEXN@Z 100179e0 f i CurEdit.obj
 0001:00016a20       ?GetMergeNode_X@CHitNet@@QAENXZ 10017a20 f i CurEdit.obj
 0001:00016a50       ?SetMergeNode_X@CHitNet@@QAEXN@Z 10017a50 f i CurEdit.obj
 0001:00016a90       ?GetMergeNode_XOld@CHitNet@@QAENXZ 10017a90 f i CurEdit.obj
 0001:00016ac0       ?SetMergeNode_XOld@CHitNet@@QAEXN@Z 10017ac0 f i CurEdit.obj
 0001:00016b00       ?GetMergeNode_XDefault@CHitNet@@QAENXZ 10017b00 f i CurEdit.obj
 0001:00016b30       ?SetMergeNode_XDefault@CHitNet@@QAEXN@Z 10017b30 f i CurEdit.obj
 0001:00016b70       ?GetMergeNode_Y@CHitNet@@QAENXZ 10017b70 f i CurEdit.obj
 0001:00016ba0       ?SetMergeNode_Y@CHitNet@@QAEXN@Z 10017ba0 f i CurEdit.obj
 0001:00016be0       ?GetMergeNode_YOld@CHitNet@@QAENXZ 10017be0 f i CurEdit.obj
 0001:00016c10       ?SetMergeNode_YOld@CHitNet@@QAEXN@Z 10017c10 f i CurEdit.obj
 0001:00016c50       ?GetMergeNode_YDefault@CHitNet@@QAENXZ 10017c50 f i CurEdit.obj
 0001:00016c80       ?SetMergeNode_YDefault@CHitNet@@QAEXN@Z 10017c80 f i CurEdit.obj
 0001:00016cc0       ?GetMergeNode_Z@CHitNet@@QAENXZ 10017cc0 f i CurEdit.obj
 0001:00016cf0       ?SetMergeNode_Z@CHitNet@@QAEXN@Z 10017cf0 f i CurEdit.obj
 0001:00016d30       ?GetMergeNode_ZOld@CHitNet@@QAENXZ 10017d30 f i CurEdit.obj
 0001:00016d60       ?SetMergeNode_ZOld@CHitNet@@QAEXN@Z 10017d60 f i CurEdit.obj
 0001:00016da0       ?GetMergeNode_ZDefault@CHitNet@@QAENXZ 10017da0 f i CurEdit.obj
 0001:00016dd0       ?SetMergeNode_ZDefault@CHitNet@@QAEXN@Z 10017dd0 f i CurEdit.obj
 0001:00016e10       ??1CHitNet@@UAE@XZ         10017e10 f i CurEdit.obj
 0001:00016e40       ??_GCHitNet@@UAEPAXI@Z     10017e40 f i CurEdit.obj
 0001:00016e80       ??_ECHitNet@@UAEPAXI@Z     10017e80 f i CurEdit.obj
 0001:00016f20       ?GetObjectType@CLayer@@UAEHXZ 10017f20 f i CurEdit.obj
 0001:00016f50       ?SetObjectType@CLayer@@UAEXH@Z 10017f50 f i CurEdit.obj
 0001:00016f80       ?GetElemType@CLayer@@UAEHXZ 10017f80 f i CurEdit.obj
 0001:00016fb0       ?SetElemType@CLayer@@UAEXH@Z 10017fb0 f i CurEdit.obj
 0001:00016fe0       ?GetObjectNo@CLayer@@UAEJXZ 10017fe0 f i CurEdit.obj
 0001:00017010       ?SetObjectNo@CLayer@@UAEXJ@Z 10018010 f i CurEdit.obj
 0001:00017040       ?GetCurrentLayer@CLayer@@UAEIXZ 10018040 f i CurEdit.obj
 0001:00017070       ?SetCurrentLayer@CLayer@@UAEXI@Z 10018070 f i CurEdit.obj
 0001:000170a0       ?GetCurrentLayerOld@CLayer@@UAEIXZ 100180a0 f i CurEdit.obj
 0001:000170d0       ?SetCurrentLayerOld@CLayer@@UAEXI@Z 100180d0 f i CurEdit.obj
 0001:00017100       ?GetCurrentLayerDefault@CLayer@@UAEIXZ 10018100 f i CurEdit.obj
 0001:00017130       ?SetCurrentLayerDefault@CLayer@@UAEXI@Z 10018130 f i CurEdit.obj
 0001:00017160       ??1CLayer@@UAE@XZ          10018160 f i CurEdit.obj
 0001:00017190       ??_GCLayer@@UAEPAXI@Z      10018190 f i CurEdit.obj
 0001:000171d0       ??_ECLayer@@UAEPAXI@Z      100181d0 f i CurEdit.obj
 0001:00017270       ?GetObjectType@CPatchMnu@@UAEHXZ 10018270 f i CurEdit.obj
 0001:000172a0       ?SetObjectType@CPatchMnu@@UAEXH@Z 100182a0 f i CurEdit.obj
 0001:000172d0       ?GetElemType@CPatchMnu@@UAEHXZ 100182d0 f i CurEdit.obj
 0001:00017300       ?SetElemType@CPatchMnu@@UAEXH@Z 10018300 f i CurEdit.obj
 0001:00017330       ?GetObjectNo@CPatchMnu@@UAEJXZ 10018330 f i CurEdit.obj
 0001:00017360       ?SetObjectNo@CPatchMnu@@UAEXJ@Z 10018360 f i CurEdit.obj
 0001:00017390       ?GetCurrentPatchMnu@CPatchMnu@@UAEIXZ 10018390 f i CurEdit.obj
 0001:000173c0       ?SetCurrentPatchMnu@CPatchMnu@@UAEXI@Z 100183c0 f i CurEdit.obj
 0001:000173f0       ?GetCurrentPatchMnuOld@CPatchMnu@@UAEIXZ 100183f0 f i CurEdit.obj
 0001:00017420       ?SetCurrentPatchMnuOld@CPatchMnu@@UAEXI@Z 10018420 f i CurEdit.obj
 0001:00017450       ?GetCurrentPatchMnuDefault@CPatchMnu@@UAEIXZ 10018450 f i CurEdit.obj
 0001:00017480       ?SetCurrentPatchMnuDefault@CPatchMnu@@UAEXI@Z 10018480 f i CurEdit.obj
 0001:000174b0       ?GetPatchMnuID@CPatchMnu@@UAE?AVCString@@I@Z 100184b0 f i CurEdit.obj
 0001:00017500       ?SetPatchMnuID@CPatchMnu@@UAEXVCString@@I@Z 10018500 f i CurEdit.obj
 0001:00017580       ?GetCurrentID@CPatchMnu@@UAE?AVCString@@XZ 10018580 f i CurEdit.obj
 0001:000175d0       ?SetCurrentID@CPatchMnu@@UAEXVCString@@@Z 100185d0 f i CurEdit.obj
 0001:00017650       ??1CPatchMnu@@UAE@XZ       10018650 f i CurEdit.obj
 0001:00017710       ??_GCPatchMnu@@UAEPAXI@Z   10018710 f i CurEdit.obj
 0001:00017750       ??_ECPatchMnu@@UAEPAXI@Z   10018750 f i CurEdit.obj
 0001:000177f0       ?GetObjectType@CObj3DMnu@@UAEHXZ 100187f0 f i CurEdit.obj
 0001:00017820       ?SetObjectType@CObj3DMnu@@UAEXH@Z 10018820 f i CurEdit.obj
 0001:00017850       ?GetElemType@CObj3DMnu@@UAEHXZ 10018850 f i CurEdit.obj
 0001:00017880       ?SetElemType@CObj3DMnu@@UAEXH@Z 10018880 f i CurEdit.obj
 0001:000178b0       ?GetObjectNo@CObj3DMnu@@UAEJXZ 100188b0 f i CurEdit.obj
 0001:000178e0       ?SetObjectNo@CObj3DMnu@@UAEXJ@Z 100188e0 f i CurEdit.obj
 0001:00017910       ?GetCurrentObj3DMnu@CObj3DMnu@@UAEIXZ 10018910 f i CurEdit.obj
 0001:00017940       ?SetCurrentObj3DMnu@CObj3DMnu@@UAEXI@Z 10018940 f i CurEdit.obj
 0001:00017970       ?GetCurrentObj3DMnuOld@CObj3DMnu@@UAEIXZ 10018970 f i CurEdit.obj
 0001:000179a0       ?SetCurrentObj3DMnuOld@CObj3DMnu@@UAEXI@Z 100189a0 f i CurEdit.obj
 0001:000179d0       ?GetCurrentObj3DMnuDefault@CObj3DMnu@@UAEIXZ 100189d0 f i CurEdit.obj
 0001:00017a00       ?SetCurrentObj3DMnuDefault@CObj3DMnu@@UAEXI@Z 10018a00 f i CurEdit.obj
 0001:00017a30       ?GetObj3DMnuID@CObj3DMnu@@UAE?AVCString@@I@Z 10018a30 f i CurEdit.obj
 0001:00017a80       ?SetObj3DMnuID@CObj3DMnu@@UAEXVCString@@I@Z 10018a80 f i CurEdit.obj
 0001:00017b00       ?GetCurrentID@CObj3DMnu@@UAE?AVCString@@XZ 10018b00 f i CurEdit.obj
 0001:00017b50       ?SetCurrentID@CObj3DMnu@@UAEXVCString@@@Z 10018b50 f i CurEdit.obj
 0001:00017bd0       ??1CObj3DMnu@@UAE@XZ       10018bd0 f i CurEdit.obj
 0001:00017c90       ??_GCObj3DMnu@@UAEPAXI@Z   10018c90 f i CurEdit.obj
 0001:00017cd0       ??_ECObj3DMnu@@UAEPAXI@Z   10018cd0 f i CurEdit.obj
 0001:00017d70       ?GetObjectType@CMapFactor@@UAEHXZ 10018d70 f i CurEdit.obj
 0001:00017da0       ?SetObjectType@CMapFactor@@UAEXH@Z 10018da0 f i CurEdit.obj
 0001:00017dd0       ?GetElemType@CMapFactor@@UAEHXZ 10018dd0 f i CurEdit.obj
 0001:00017e00       ?SetElemType@CMapFactor@@UAEXH@Z 10018e00 f i CurEdit.obj
 0001:00017e30       ?GetObjectNo@CMapFactor@@UAEJXZ 10018e30 f i CurEdit.obj
 0001:00017e60       ?SetObjectNo@CMapFactor@@UAEXJ@Z 10018e60 f i CurEdit.obj
 0001:00017e90       ?GetMapFactor@CMapFactor@@UAENXZ 10018e90 f i CurEdit.obj
 0001:00017ec0       ?SetMapFactor@CMapFactor@@UAEXN@Z 10018ec0 f i CurEdit.obj
 0001:00017f00       ?GetMapModeIndex@CMapFactor@@UAEHXZ 10018f00 f i CurEdit.obj
 0001:00017f30       ?SetMapModeIndex@CMapFactor@@UAEXH@Z 10018f30 f i CurEdit.obj
 0001:00017f60       ??1CMapFactor@@UAE@XZ      10018f60 f i CurEdit.obj
 0001:00017f90       ??_GCMapFactor@@UAEPAXI@Z  10018f90 f i CurEdit.obj
 0001:00017fd0       ??_ECMapFactor@@UAEPAXI@Z  10018fd0 f i CurEdit.obj
 0001:00018070       ?GetObjectType@CPrecision@@UAEHXZ 10019070 f i CurEdit.obj
 0001:000180a0       ?SetObjectType@CPrecision@@UAEXH@Z 100190a0 f i CurEdit.obj
 0001:000180d0       ?GetElemType@CPrecision@@UAEHXZ 100190d0 f i CurEdit.obj
 0001:00018100       ?SetElemType@CPrecision@@UAEXH@Z 10019100 f i CurEdit.obj
 0001:00018130       ?GetObjectNo@CPrecision@@UAEJXZ 10019130 f i CurEdit.obj
 0001:00018160       ?SetObjectNo@CPrecision@@UAEXJ@Z 10019160 f i CurEdit.obj
 0001:00018190       ?GetPrecision@CPrecision@@UAEIXZ 10019190 f i CurEdit.obj
 0001:000181c0       ?SetPrecision@CPrecision@@UAEXI@Z 100191c0 f i CurEdit.obj
 0001:000181f0       ?GetPrecisionOld@CPrecision@@UAEIXZ 100191f0 f i CurEdit.obj
 0001:00018220       ?SetPrecisionOld@CPrecision@@UAEXI@Z 10019220 f i CurEdit.obj
 0001:00018250       ?GetPrecisionDefault@CPrecision@@UAEIXZ 10019250 f i CurEdit.obj
 0001:00018280       ?SetPrecisionDefault@CPrecision@@UAEXI@Z 10019280 f i CurEdit.obj
 0001:000182b0       ?GetWorldBase@CPrecision@@UAEJXZ 100192b0 f i CurEdit.obj
 0001:000182e0       ?SetWorldBase@CPrecision@@UAEXJ@Z 100192e0 f i CurEdit.obj
 0001:00018310       ?GetWorldBaseOld@CPrecision@@UAEJXZ 10019310 f i CurEdit.obj
 0001:00018340       ?SetWorldBaseOld@CPrecision@@UAEXJ@Z 10019340 f i CurEdit.obj
 0001:00018370       ?GetWorldBaseDefault@CPrecision@@UAEJXZ 10019370 f i CurEdit.obj
 0001:000183a0       ?SetWorldBaseDefault@CPrecision@@UAEXJ@Z 100193a0 f i CurEdit.obj
 0001:000183d0       ??1CPrecision@@UAE@XZ      100193d0 f i CurEdit.obj
 0001:00018400       ??_GCPrecision@@UAEPAXI@Z  10019400 f i CurEdit.obj
 0001:00018440       ??_ECPrecision@@UAEPAXI@Z  10019440 f i CurEdit.obj
 0001:000184e0       ?GetObjectType@CScaleFactor@@UAEHXZ 100194e0 f i CurEdit.obj
 0001:00018510       ?SetObjectType@CScaleFactor@@UAEXH@Z 10019510 f i CurEdit.obj
 0001:00018540       ?GetElemType@CScaleFactor@@UAEHXZ 10019540 f i CurEdit.obj
 0001:00018570       ?SetElemType@CScaleFactor@@UAEXH@Z 10019570 f i CurEdit.obj
 0001:000185a0       ?GetObjectNo@CScaleFactor@@UAEJXZ 100195a0 f i CurEdit.obj
 0001:000185d0       ?SetObjectNo@CScaleFactor@@UAEXJ@Z 100195d0 f i CurEdit.obj
 0001:00018600       ?GetScaleFactor@CScaleFactor@@UAENXZ 10019600 f i CurEdit.obj
 0001:00018630       ?SetScaleFactor@CScaleFactor@@UAEXN@Z 10019630 f i CurEdit.obj
 0001:00018670       ?GetScaleFactorOld@CScaleFactor@@UAENXZ 10019670 f i CurEdit.obj
 0001:000186a0       ?SetScaleFactorOld@CScaleFactor@@UAEXN@Z 100196a0 f i CurEdit.obj
 0001:000186e0       ?GetScaleFactorDefault@CScaleFactor@@UAENXZ 100196e0 f i CurEdit.obj
 0001:00018710       ?SetScaleFactorDefault@CScaleFactor@@UAEXN@Z 10019710 f i CurEdit.obj
 0001:00018750       ??1CScaleFactor@@UAE@XZ    10019750 f i CurEdit.obj
 0001:00018780       ??_GCScaleFactor@@UAEPAXI@Z 10019780 f i CurEdit.obj
 0001:000187c0       ??_ECScaleFactor@@UAEPAXI@Z 100197c0 f i CurEdit.obj
 0001:00018860       ?GetObjectType@CUnit@@UAEHXZ 10019860 f i CurEdit.obj
 0001:00018890       ?SetObjectType@CUnit@@UAEXH@Z 10019890 f i CurEdit.obj
 0001:000188c0       ?GetElemType@CUnit@@UAEHXZ 100198c0 f i CurEdit.obj
 0001:000188f0       ?SetElemType@CUnit@@UAEXH@Z 100198f0 f i CurEdit.obj
 0001:00018920       ?GetObjectNo@CUnit@@UAEJXZ 10019920 f i CurEdit.obj
 0001:00018950       ?SetObjectNo@CUnit@@UAEXJ@Z 10019950 f i CurEdit.obj
 0001:00018980       ?GetUnitName@CUnit@@UAE?AVCString@@I@Z 10019980 f i CurEdit.obj
 0001:000189d0       ?GetUnitIndex@CUnit@@UAEIXZ 100199d0 f i CurEdit.obj
 0001:00018a00       ?SetUnitIndex@CUnit@@UAEXI@Z 10019a00 f i CurEdit.obj
 0001:00018a30       ?GetUnitIndexOld@CUnit@@UAEIXZ 10019a30 f i CurEdit.obj
 0001:00018a60       ?SetUnitIndexOld@CUnit@@UAEXI@Z 10019a60 f i CurEdit.obj
 0001:00018a90       ?GetUnitIndexDefault@CUnit@@UAEIXZ 10019a90 f i CurEdit.obj
 0001:00018ac0       ?SetUnitIndexDefault@CUnit@@UAEXI@Z 10019ac0 f i CurEdit.obj
 0001:00018af0       ?GetUnitNameCount@CUnit@@UAEIXZ 10019af0 f i CurEdit.obj
 0001:00018b20       ?SetUnitNameCount@CUnit@@UAEXI@Z 10019b20 f i CurEdit.obj
 0001:00018b50       ??1CUnit@@UAE@XZ           10019b50 f i CurEdit.obj
 0001:00018be0       ??_GCUnit@@UAEPAXI@Z       10019be0 f i CurEdit.obj
 0001:00018c20       ??_ECUnit@@UAEPAXI@Z       10019c20 f i CurEdit.obj
 0001:00018cc0       ??1CDataRowHint@@UAE@XZ    10019cc0 f i CurEdit.obj
 0001:00018cf0       ?GetMapFactor@CObjectMgr@@UAEPAVCMapFactor@@XZ 10019cf0 f i CurEdit.obj
 0001:00018d20       ?GetPrecision@CObjectMgr@@UAEPAVCPrecision@@XZ 10019d20 f i CurEdit.obj
 0001:00018d50       ?GetScaleFactor@CObjectMgr@@UAEPAVCScaleFactor@@XZ 10019d50 f i CurEdit.obj
 0001:00018d80       ?GetUnit@CObjectMgr@@UAEPAVCUnit@@XZ 10019d80 f i CurEdit.obj
 0001:00018db0       ?GetObjectListFromIndex@CObjectMgr@@UAEPAVCDListMgr@@H@Z 10019db0 f i CurEdit.obj
 0001:00018e00       ?IsSceneChanged@CObjectMgr@@UAEHXZ 10019e00 f i CurEdit.obj
 0001:00018e30       ?SetSceneChanged@CObjectMgr@@UAEXH@Z 10019e30 f i CurEdit.obj
 0001:00018e60       ?IsViewChanged@CObjectMgr@@UAEHXZ 10019e60 f i CurEdit.obj
 0001:00018e90       ?SetViewChanged@CObjectMgr@@UAEXH@Z 10019e90 f i CurEdit.obj
 0001:00018ec0       ?GetMasterLastObjectNo@CObjectMgr@@UAEIXZ 10019ec0 f i CurEdit.obj
 0001:00018ef0       ?SetMasterLastObjectNo@CObjectMgr@@UAEXI@Z 10019ef0 f i CurEdit.obj
 0001:00018f20       ?GetActiveObjectNo@CObjectMgr@@UAEIXZ 10019f20 f i CurEdit.obj
 0001:00018f50       ?SetActiveObjectNo@CObjectMgr@@UAEXI@Z 10019f50 f i CurEdit.obj
 0001:00018f80       ?GetActiveListIndex@CObjectMgr@@UAEHXZ 10019f80 f i CurEdit.obj
 0001:00018fb0       ?SetActiveListIndex@CObjectMgr@@UAEXH@Z 10019fb0 f i CurEdit.obj
 0001:00018fe0       ?GetActiveObjectIndex@CObjectMgr@@UAEHXZ 10019fe0 f i CurEdit.obj
 0001:00019010       ?SetActiveObjectIndex@CObjectMgr@@UAEXH@Z 1001a010 f i CurEdit.obj
 0001:00019040       ?GetActiveObjectType@CObjectMgr@@UAEHXZ 1001a040 f i CurEdit.obj
 0001:00019070       ?SetActiveObjectType@CObjectMgr@@UAEXH@Z 1001a070 f i CurEdit.obj
 0001:000190a0       ?GetRowList@CObjectMgr@@QAEPAV?$CList@JJ@@XZ 1001a0a0 f i CurEdit.obj
 0001:000190d0       ?GetRowCount@CObjectMgr@@QAEHXZ 1001a0d0 f i CurEdit.obj
 0001:00019100       ?GetActiveRowIndex@CObjectMgr@@QAEHXZ 1001a100 f i CurEdit.obj
 0001:00019130       ?SetActiveRowIndex@CObjectMgr@@QAEXH@Z 1001a130 f i CurEdit.obj
 0001:00019160       ?GetFormat@CObjectMgr@@UAE?AVCString@@XZ 1001a160 f i CurEdit.obj
 0001:000191b0       ?IsMeshGenOn@CObjectMgr@@UAEHXZ 1001a1b0 f i CurEdit.obj
 0001:000191e0       ?SetMeshGenOn@CObjectMgr@@UAEXH@Z 1001a1e0 f i CurEdit.obj
 0001:00019210       ?GetMeshType@CObjectMgr@@UAEIXZ 1001a210 f i CurEdit.obj
 0001:00019240       ?SetMeshType@CObjectMgr@@UAEXI@Z 1001a240 f i CurEdit.obj
 0001:00019270       ?GetCurrentTopLevel@CObjectMgr@@UAEHXZ 1001a270 f i CurEdit.obj
 0001:000192a0       ?SetCurrentTopLevel@CObjectMgr@@UAEXH@Z 1001a2a0 f i CurEdit.obj
 0001:000192d0       ?GetObjectType@CElemInfo@@UAEHXZ 1001a2d0 f i CurEdit.obj
 0001:00019300       ?SetObjectType@CElemInfo@@UAEXH@Z 1001a300 f i CurEdit.obj
 0001:00019330       ?GetElemType@CElemInfo@@UAEHXZ 1001a330 f i CurEdit.obj
 0001:00019360       ?SetElemType@CElemInfo@@UAEXH@Z 1001a360 f i CurEdit.obj
 0001:00019390       ?GetObjectNo@CElemInfo@@UAEJXZ 1001a390 f i CurEdit.obj
 0001:000193c0       ?SetObjectNo@CElemInfo@@UAEXJ@Z 1001a3c0 f i CurEdit.obj
 0001:000193f0       ?GetInfoList@CElemInfo@@UAEPAVCDListMgr@@H@Z 1001a3f0 f i CurEdit.obj
 0001:00019420       ??1CElemInfo@@UAE@XZ       1001a420 f i CurEdit.obj
 0001:000194b0       ??_GCElemInfo@@UAEPAXI@Z   1001a4b0 f i CurEdit.obj
 0001:000194f0       ??_ECElemInfo@@UAEPAXI@Z   1001a4f0 f i CurEdit.obj
 0001:00019590       ??1CMeshRowHint@@UAE@XZ    1001a590 f i CurEdit.obj
 0001:000195c0       ?GetRowList@CMsObjMgr@@QAEPAV?$CList@JJ@@XZ 1001a5c0 f i CurEdit.obj
 0001:000195f0       ?GetRowCount@CMsObjMgr@@QAEHXZ 1001a5f0 f i CurEdit.obj
 0001:00019620       ?GetActiveRowIndex@CMsObjMgr@@QAEHXZ 1001a620 f i CurEdit.obj
 0001:00019650       ?SetActiveRowIndex@CMsObjMgr@@QAEXH@Z 1001a650 f i CurEdit.obj
 0001:00019680       ??1CBaseRowHint@@UAE@XZ    1001a680 f i CurEdit.obj
 0001:000196b0       ?GetCurrentItem@CDbObjMgr@@QAEAAVCString@@XZ 1001a6b0 f i CurEdit.obj
 0001:000196d0       ?SetCurrentItem@CDbObjMgr@@QAEXAAVCString@@@Z 1001a6d0 f i CurEdit.obj
 0001:00019700       ?GetCurrentParent@CDbObjMgr@@QAEAAVCString@@XZ 1001a700 f i CurEdit.obj
 0001:00019720       ?SetCurrentParent@CDbObjMgr@@QAEXAAVCString@@@Z 1001a720 f i CurEdit.obj
 0001:00019750       ??1CAxDataRowHint@@UAE@XZ  1001a750 f i CurEdit.obj
 0001:00019780       ?GetMapFactor@CAxObjMgr@@UAEPAVCMapFactor@@XZ 1001a780 f i CurEdit.obj
 0001:000197b0       ?GetPrecision@CAxObjMgr@@UAEPAVCPrecision@@XZ 1001a7b0 f i CurEdit.obj
 0001:000197e0       ?GetScaleFactor@CAxObjMgr@@UAEPAVCScaleFactor@@XZ 1001a7e0 f i CurEdit.obj
 0001:00019810       ?GetUnit@CAxObjMgr@@UAEPAVCUnit@@XZ 1001a810 f i CurEdit.obj
 0001:00019840       ?GetObjectListFromIndex@CAxObjMgr@@UAEPAVCDListMgr@@H@Z 1001a840 f i CurEdit.obj
 0001:00019890       ?IsSceneChanged@CAxObjMgr@@UAEHXZ 1001a890 f i CurEdit.obj
 0001:000198c0       ?SetSceneChanged@CAxObjMgr@@UAEXH@Z 1001a8c0 f i CurEdit.obj
 0001:000198f0       ?IsViewChanged@CAxObjMgr@@UAEHXZ 1001a8f0 f i CurEdit.obj
 0001:00019920       ?SetViewChanged@CAxObjMgr@@UAEXH@Z 1001a920 f i CurEdit.obj
 0001:00019950       ?GetMasterLastObjectNo@CAxObjMgr@@UAEIXZ 1001a950 f i CurEdit.obj
 0001:00019980       ?SetMasterLastObjectNo@CAxObjMgr@@UAEXI@Z 1001a980 f i CurEdit.obj
 0001:000199b0       ?GetActiveObjectNo@CAxObjMgr@@UAEIXZ 1001a9b0 f i CurEdit.obj
 0001:000199e0       ?SetActiveObjectNo@CAxObjMgr@@UAEXI@Z 1001a9e0 f i CurEdit.obj
 0001:00019a10       ?GetActiveListIndex@CAxObjMgr@@UAEHXZ 1001aa10 f i CurEdit.obj
 0001:00019a40       ?SetActiveListIndex@CAxObjMgr@@UAEXH@Z 1001aa40 f i CurEdit.obj
 0001:00019a70       ?GetActiveObjectIndex@CAxObjMgr@@UAEHXZ 1001aa70 f i CurEdit.obj
 0001:00019aa0       ?SetActiveObjectIndex@CAxObjMgr@@UAEXH@Z 1001aaa0 f i CurEdit.obj
 0001:00019ad0       ?GetActiveObjectType@CAxObjMgr@@UAEHXZ 1001aad0 f i CurEdit.obj
 0001:00019b00       ?SetActiveObjectType@CAxObjMgr@@UAEXH@Z 1001ab00 f i CurEdit.obj
 0001:00019b30       ?GetRowList@CAxObjMgr@@QAEPAV?$CList@JJ@@XZ 1001ab30 f i CurEdit.obj
 0001:00019b60       ?GetRowCount@CAxObjMgr@@QAEHXZ 1001ab60 f i CurEdit.obj
 0001:00019b90       ?GetActiveRowIndex@CAxObjMgr@@QAEHXZ 1001ab90 f i CurEdit.obj
 0001:00019bc0       ?SetActiveRowIndex@CAxObjMgr@@QAEXH@Z 1001abc0 f i CurEdit.obj
 0001:00019bf0       ?GetFormat@CAxObjMgr@@UAE?AVCString@@XZ 1001abf0 f i CurEdit.obj
 0001:00019c40       ?IsMeshGenOn@CAxObjMgr@@UAEHXZ 1001ac40 f i CurEdit.obj
 0001:00019c70       ?SetMeshGenOn@CAxObjMgr@@UAEXH@Z 1001ac70 f i CurEdit.obj
 0001:00019ca0       ?GetMeshType@CAxObjMgr@@UAEIXZ 1001aca0 f i CurEdit.obj
 0001:00019cd0       ?SetMeshType@CAxObjMgr@@UAEXI@Z 1001acd0 f i CurEdit.obj
 0001:00019d00       ?GetCurrentTopLevel@CAxObjMgr@@UAEHXZ 1001ad00 f i CurEdit.obj
 0001:00019d30       ?SetCurrentTopLevel@CAxObjMgr@@UAEXH@Z 1001ad30 f i CurEdit.obj
 0001:00019d60       ?CreateObject@CCurEdit@@SGPAVCObject@@XZ 1001ad60 f   CurEdit.obj
 0001:00019e00       ?_GetBaseClass@CCurEdit@@KGPAUCRuntimeClass@@XZ 1001ae00 f   CurEdit.obj
 0001:00019e20       ?GetRuntimeClass@CCurEdit@@UBEPAUCRuntimeClass@@XZ 1001ae20 f   CurEdit.obj
 0001:00019e90       ??0AFX_CLASSINIT@@QAE@PAUCRuntimeClass@@@Z 1001ae90 f i CurEdit.obj
 0001:00019ec0       ??5@YGAAVCArchive@@AAV0@AAPAVCCurEdit@@@Z 1001aec0 f   CurEdit.obj
 0001:00019ef0       ??0CCurEdit@@QAE@XZ        1001aef0 f   CurEdit.obj
 0001:00019f40       ??_ECCurEdit@@UAEPAXI@Z    1001af40 f i CurEdit.obj
 0001:00019f40       ??_GCCurEdit@@UAEPAXI@Z    1001af40 f i CurEdit.obj
 0001:00019f80       ??1CCurEdit@@UAE@XZ        1001af80 f   CurEdit.obj
 0001:00019fb0       ?ElementLeftDown_CUR@CCurEdit@@IAEXXZ 1001afb0 f   CurEdit.obj
 0001:0001a010       ?GetDocument@CDrGrafApp@@QAEPAVCDrGrafDoc@@XZ 1001b010 f i CurEdit.obj
 0001:0001a040       ?GetObjectMgr@CDrGrafDoc@@QAEPAVCObjectMgr@@XZ 1001b040 f i CurEdit.obj
 0001:0001a070       ?ShowCurveToEdit@CCurEdit@@QAEHPAVCDrCurve@@@Z 1001b070 f   CurEdit.obj
 0001:0001a280       ??_GCString@@QAEPAXI@Z     1001b280 f i CurEdit.obj
 0001:0001a2d0       ?OnEBoxLButtonDown_CUR@CCurEdit@@QAEXPAVCClientDC@@PAVCView@@W4GENERATE@@IVCPoint@@@Z 1001b2d0 f   CurEdit.obj
 0001:0001a440       ?GetActiveObjectType@CDrGrafFrame@@QAEHXZ 1001b440 f i CurEdit.obj
 0001:0001a470       ?GetActiveToolType@CDrGrafFrame@@QAEHXZ 1001b470 f i CurEdit.obj
 0001:0001a4a0       ?LeftUp_CURVE@CCurEdit@@IAEHVCPoint@@@Z 1001b4a0 f   CurEdit.obj
 0001:0001a950       ?ElementLeftUp_CUR@CCurEdit@@IAEXVCPoint@@@Z 1001b950 f   CurEdit.obj
 0001:0001aa40       ?OnEBoxMouseMove_CUR@CCurEdit@@QAEXPAVCClientDC@@PAVCView@@W4GENERATE@@IVCPoint@@@Z 1001ba40 f   CurEdit.obj
 0001:0001aaa0       ?OnEBoxLButtonUp_CUR@CCurEdit@@QAEXPAVCClientDC@@PAVCView@@W4GENERATE@@IVCPoint@@@Z 1001baa0 f   CurEdit.obj
 0001:0001ab60       ?OnEBoxRButtonDown_CUR@CCurEdit@@QAEXPAVCClientDC@@PAVCView@@W4GENERATE@@IVCPoint@@@Z 1001bb60 f   CurEdit.obj
 0001:0001abb0       ?ShowCurveInfo@CCurEdit@@QAEHPAVCDrCurve@@@Z 1001bbb0 f   CurEdit.obj
 0001:0001b660       ?OnEBoxRButtonUp_CUR@CCurEdit@@QAEXPAVCClientDC@@PAVCView@@W4GENERATE@@IVCPoint@@@Z 1001c660 f   CurEdit.obj
 0001:0001b6b0       ?ReSetToolID_CUR@CCurEdit@@QAEIIII@Z 1001c6b0 f   CurEdit.obj
 0001:0001b8c0       ?SetIGenBoxStatus@CDrGrafFrame@@QAEXH@Z 1001c8c0 f i CurEdit.obj
 0001:0001b8f0       ?SetCntlBoxStatus@CDrGrafFrame@@QAEXH@Z 1001c8f0 f i CurEdit.obj
 0001:0001b920       ?SetDrawBoxStatus@CDrGrafFrame@@QAEXH@Z 1001c920 f i CurEdit.obj
 0001:0001b950       ?SetstrCntlID@CDrGrafFrame@@QAEXAAVCString@@@Z 1001c950 f i CurEdit.obj
 0001:0001b980       ?SetstrIGenID@CDrGrafFrame@@QAEXAAVCString@@@Z 1001c980 f i CurEdit.obj
 0001:0001b9b0       ?SetstrOperID@CDrGrafFrame@@QAEXAAVCString@@@Z 1001c9b0 f i CurEdit.obj
 0001:0001b9e0       ?SetstrCurrID@CDrGrafFrame@@QAEXAAVCString@@@Z 1001c9e0 f i CurEdit.obj
 0001:0001ba10       ?Serialize@CCurEdit@@UAEXAAVCArchive@@@Z 1001ca10 f   CurEdit.obj
 0001:0001ba70       ?IsEmpty@?$CList@HH@@QBEHXZ 1001ca70 f i CurEdit.obj
 0001:0001baa0       ?GetHeadPosition@?$CList@HH@@QBEPAU__POSITION@@XZ 1001caa0 f i CurEdit.obj
 0001:0001bac0       ?GetNext@?$CList@HH@@QAEAAHAAPAU__POSITION@@@Z 1001cac0 f i CurEdit.obj
 0001:0001bb30       ??1?$CList@HH@@UAE@XZ      1001cb30 f i CurEdit.obj
 0001:0001bbd0       ?Serialize@?$CList@HH@@UAEXAAVCArchive@@@Z 1001cbd0 f i CurEdit.obj
 0001:0001bcf0       ?Dump@?$CList@HH@@UBEXAAVCDumpContext@@@Z 1001ccf0 f i CurEdit.obj
 0001:0001bdb0       ?AssertValid@?$CList@HH@@UBEXXZ 1001cdb0 f i CurEdit.obj
 0001:0001beb0       ?GetCount@?$CList@JJ@@QBEHXZ 1001ceb0 f i CurEdit.obj
 0001:0001bed0       ??_G?$CList@HH@@UAEPAXI@Z  1001ced0 f i CurEdit.obj
 0001:0001bed0       ??_E?$CList@HH@@UAEPAXI@Z  1001ced0 f i CurEdit.obj
 0001:0001bf10       ?AddTail@?$CList@HH@@QAEPAU__POSITION@@H@Z 1001cf10 f i CurEdit.obj
 0001:0001bfa0       ?RemoveAll@?$CList@HH@@QAEXXZ 1001cfa0 f i CurEdit.obj
 0001:0001c050       ?SerializeElements@@YGXAAVCArchive@@PAHH@Z 1001d050 f i CurEdit.obj
 0001:0001c0f0       ?DumpElements@@YGXAAVCDumpContext@@PBHH@Z 1001d0f0 f i CurEdit.obj
 0001:0001c150       ?NewNode@?$CList@HH@@IAEPAUCNode@1@PAU21@0@Z 1001d150 f i CurEdit.obj
 0001:0001c2c0       ?DestructElements@@YGXPAHH@Z 1001d2c0 f i CurEdit.obj
 0001:0001c340       ?ConstructElements@@YGXPAHH@Z 1001d340 f i CurEdit.obj
 0001:0001c3f0       ??2@YAPAXIPAX@Z            1001d3f0 f i CurEdit.obj
 0001:0001c410       ?CreateObject@CDLDEdit@@SGPAVCObject@@XZ 1001d410 f   DLDEdit.obj
 0001:0001c4b0       ?_GetBaseClass@CDLDEdit@@KGPAUCRuntimeClass@@XZ 1001d4b0 f   DLDEdit.obj
 0001:0001c4d0       ?GetRuntimeClass@CDLDEdit@@UBEPAUCRuntimeClass@@XZ 1001d4d0 f   DLDEdit.obj
 0001:0001c540       ??5@YGAAVCArchive@@AAV0@AAPAVCDLDEdit@@@Z 1001d540 f   DLDEdit.obj
 0001:0001c570       ??0CDLDEdit@@QAE@XZ        1001d570 f   DLDEdit.obj
 0001:0001c5a0       ??_GCDLDEdit@@UAEPAXI@Z    1001d5a0 f i DLDEdit.obj
 0001:0001c5a0       ??_ECDLDEdit@@UAEPAXI@Z    1001d5a0 f i DLDEdit.obj
 0001:0001c5e0       ??1CDLDEdit@@UAE@XZ        1001d5e0 f   DLDEdit.obj
 0001:0001c610       ?Serialize@CDLDEdit@@UAEXAAVCArchive@@@Z 1001d610 f   DLDEdit.obj
 0001:0001c670       ??1CDlg_ENoA@@UAE@XZ       1001d670 f i dlg_enoA.obj
 0001:0001c7b0       ??_FCDlg_ENoA@@QAEXXZ      1001d7b0 f i dlg_enoA.obj
 0001:0001c7e0       ??1CBitmapButton@@UAE@XZ   1001d7e0 f i dlg_enoA.obj
 0001:0001c880       ??0CDlg_ENoA@@QAE@PAVCWnd@@@Z 1001d880 f   dlg_enoA.obj
 0001:0001cbb0       ??_GCDlg_ENoA@@UAEPAXI@Z   1001dbb0 f i dlg_enoA.obj
 0001:0001cbf0       ??_ECDlg_ENoA@@UAEPAXI@Z   1001dbf0 f i dlg_enoA.obj
 0001:0001cc90       ?DoDataExchange@CDlg_ENoA@@MAEXPAVCDataExchange@@@Z 1001dc90 f   dlg_enoA.obj
 0001:0001ce00       ?_GetBaseMessageMap@CDlg_ENoA@@KGPBUAFX_MSGMAP@@XZ 1001de00 f   dlg_enoA.obj
 0001:0001ce20       ?GetMessageMap@CDlg_ENoA@@MBEPBUAFX_MSGMAP@@XZ 1001de20 f   dlg_enoA.obj
 0001:0001ce40       ?OnInitDialog@CDlg_ENoA@@MAEHXZ 1001de40 f   dlg_enoA.obj
 0001:0001d010       ?Init_NodeData@CDlg_ENoA@@QAEXXZ 1001e010 f   dlg_enoA.obj
 0001:0001d370       ?OnCancel@CDlg_ENoA@@MAEXXZ 1001e370 f   dlg_enoA.obj
 0001:0001d3a0       ?OnStartOver@CDlg_ENoA@@IAEXXZ 1001e3a0 f   dlg_enoA.obj
 0001:0001d3e0       ?OnCoord@CDlg_ENoA@@IAEXXZ 1001e3e0 f   dlg_enoA.obj
 0001:0001d4d0       ?OnDirection@CDlg_ENoA@@IAEXXZ 1001e4d0 f   dlg_enoA.obj
 0001:0001d600       ?OnChangeNodeDx@CDlg_ENoA@@IAEXXZ 1001e600 f   dlg_enoA.obj
 0001:0001d730       ?OnChangeNodeDy@CDlg_ENoA@@IAEXXZ 1001e730 f   dlg_enoA.obj
 0001:0001d860       ?OnChangeNodeDz@CDlg_ENoA@@IAEXXZ 1001e860 f   dlg_enoA.obj
 0001:0001d990       ?OnSelchangeCnodeFrom@CDlg_ENoA@@IAEXXZ 1001e990 f   dlg_enoA.obj
 0001:0001d9d0       ?OnSelchangeCnodeTo@CDlg_ENoA@@IAEXXZ 1001e9d0 f   dlg_enoA.obj
 0001:0001da10       ?OnChangeLength@CDlg_ENoA@@IAEXXZ 1001ea10 f   dlg_enoA.obj
 0001:0001db90       ?OnSelchangeNodeNidR@CDlg_ENoA@@IAEXXZ 1001eb90 f   dlg_enoA.obj
 0001:0001dbf0       ?ResolveReference_Direction@CDlg_ENoA@@IAEHXZ 1001ebf0 f   dlg_enoA.obj
 0001:0001ded0       ?ResolveReference_Coords@CDlg_ENoA@@IAEHXZ 1001eed0 f   dlg_enoA.obj
 0001:0001e1a0       ?UnitAxisFromEndNodes@CDlg_ENoA@@IAEHPAUWORLD@@@Z 1001f1a0 f   dlg_enoA.obj
 0001:0001e650       ?OnOK@CDlg_ENoA@@MAEXXZ    1001f650 f   dlg_enoA.obj
 0001:0001e840       ?OnSelchangeList@CDlg_ENoA@@IAEXXZ 1001f840 f   dlg_enoA.obj
 0001:0001e9d0       ?FillOthers@CDlg_ENoA@@IAEXH@Z 1001f9d0 f   dlg_enoA.obj
 0001:0001ee80       ?FillListAllString@CDlg_ENoA@@IAEXXZ 1001fe80 f   dlg_enoA.obj
 0001:0001efd0       ?FillListforAllNodeCombos@CDlg_ENoA@@IAEXXZ 1001ffd0 f   dlg_enoA.obj
 0001:0001f1e0       ?EmptyListAllString@CDlg_ENoA@@IAEXXZ 100201e0 f   dlg_enoA.obj
 0001:0001f250       ?SetInfoForDataBase@CDlg_ENoA@@QAEXPAVCDrNode@@H@Z 10020250 f   dlg_enoA.obj
 0001:0001f760       ?SetInfoForNodeLabel@CDlg_ENoA@@QAEXPAVCDrNode@@PAVCDrLabel@@@Z 10020760 f   dlg_enoA.obj
 0001:0001f9a0       ?OnHelpInfo@CDlg_ENoA@@IAEHPAUtagHELPINFO@@@Z 100209a0 f   dlg_enoA.obj
 0001:0001f9d0       ??_9@$BMM@AE               100209d0 f i dlg_enoA.obj
 0001:0001f9e0       ??_9@$BNA@AE               100209e0 f i dlg_enoA.obj
 0001:0001f9f0       ??1CDlg_ENod@@UAE@XZ       100209f0 f i dlg_ENod.obj
 0001:0001faa0       ??_FCDlg_ENod@@QAEXXZ      10020aa0 f i dlg_ENod.obj
 0001:0001fad0       ??0CDlg_ENod@@QAE@PAVCWnd@@@Z 10020ad0 f   dlg_ENod.obj
 0001:0001fc70       ??_GCDlg_ENod@@UAEPAXI@Z   10020c70 f i dlg_ENod.obj
 0001:0001fcb0       ??_ECDlg_ENod@@UAEPAXI@Z   10020cb0 f i dlg_ENod.obj
 0001:0001fd50       ?DoDataExchange@CDlg_ENod@@MAEXPAVCDataExchange@@@Z 10020d50 f   dlg_ENod.obj
 0001:0001fdf0       ?_GetBaseMessageMap@CDlg_ENod@@KGPBUAFX_MSGMAP@@XZ 10020df0 f   dlg_ENod.obj
 0001:0001fe10       ?GetMessageMap@CDlg_ENod@@MBEPBUAFX_MSGMAP@@XZ 10020e10 f   dlg_ENod.obj
 0001:0001fe30       ?OnInitDialog@CDlg_ENod@@MAEHXZ 10020e30 f   dlg_ENod.obj
 0001:0001fee0       ?Init_NodeData@CDlg_ENod@@QAEXXZ 10020ee0 f   dlg_ENod.obj
 0001:00020000       ?OnCancel@CDlg_ENod@@MAEXXZ 10021000 f   dlg_ENod.obj
 0001:00020030       ?OnStartOver@CDlg_ENod@@IAEXXZ 10021030 f   dlg_ENod.obj
 0001:00020070       ?OnOK@CDlg_ENod@@MAEXXZ    10021070 f   dlg_ENod.obj
 0001:000202d0       ?FillOthers@CDlg_ENod@@IAEXH@Z 100212d0 f   dlg_ENod.obj
 0001:00020510       ?OnAdvanced@CDlg_ENod@@IAEXXZ 10021510 f   dlg_ENod.obj
 0001:000205f0       ?SetInfoForDataBase@CDlg_ENod@@QAEXPAVCDrNode@@H@Z 100215f0 f   dlg_ENod.obj
 0001:000209a0       ?SetInfoForNodeLabel@CDlg_ENod@@QAEXPAVCDrNode@@PAVCDrLabel@@@Z 100219a0 f   dlg_ENod.obj
 0001:00020b80       ?OnHelpInfo@CDlg_ENod@@IAEHPAUtagHELPINFO@@@Z 10021b80 f   dlg_ENod.obj
 0001:00020bb0       ?CreateObject@CEditDlgM@@SGPAVCObject@@XZ 10021bb0 f   EditDlgM.obj
 0001:00020c40       ?_GetBaseClass@CEditDlgM@@KGPAUCRuntimeClass@@XZ 10021c40 f   EditDlgM.obj
 0001:00020c60       ?GetRuntimeClass@CEditDlgM@@UBEPAUCRuntimeClass@@XZ 10021c60 f   EditDlgM.obj
 0001:00020cd0       ??5@YGAAVCArchive@@AAV0@AAPAVCEditDlgM@@@Z 10021cd0 f   EditDlgM.obj
 0001:00020d00       ??0CEditDlgM@@QAE@XZ       10021d00 f   EditDlgM.obj
 0001:00020d30       ??_GCEditDlgM@@UAEPAXI@Z   10021d30 f i EditDlgM.obj
 0001:00020d70       ??_ECEditDlgM@@UAEPAXI@Z   10021d70 f i EditDlgM.obj
 0001:00020e10       ??1CEditDlgM@@UAE@XZ       10021e10 f   EditDlgM.obj
 0001:00020e40       ?SetResource@CEditDlgM@@IAEPAUHINSTANCE__@@XZ 10021e40 f   EditDlgM.obj
 0001:00020f20       ?RestoreResource@CEditDlgM@@IAEXPAUHINSTANCE__@@@Z 10021f20 f   EditDlgM.obj
 0001:00020fc0       ?DoModal_ShowNodeToEdit@CEditDlgM@@QAEIPAVCDrNode@@H@Z 10021fc0 f   EditDlgM.obj
 0001:00021090       ?DoModal_ShowCurveToEdit@CEditDlgM@@QAEIPAVCDrCurve@@H@Z 10022090 f   EditDlgM.obj
 0001:000210d0       ?DoModal_ShowPatchToEdit@CEditDlgM@@QAEIPAVCDrPatch@@H@Z 100220d0 f   EditDlgM.obj
 0001:00021110       ?DoModal_ShowSolidToEdit@CEditDlgM@@QAEIPAVCDrSolid@@H@Z 10022110 f   EditDlgM.obj
 0001:00021150       ?Serialize@CEditDlgM@@UAEXAAVCArchive@@@Z 10022150 f   EditDlgM.obj
 0001:000211b0       ?CreateObject@CEditMgr@@SGPAVCObject@@XZ 100221b0 f   EditMgr.obj
 0001:00021240       ?_GetBaseClass@CEditMgr@@KGPAUCRuntimeClass@@XZ 10022240 f   EditMgr.obj
 0001:00021260       ?GetRuntimeClass@CEditMgr@@UBEPAUCRuntimeClass@@XZ 10022260 f   EditMgr.obj
 0001:000212d0       ??5@YGAAVCArchive@@AAV0@AAPAVCEditMgr@@@Z 100222d0 f   EditMgr.obj
 0001:00021300       ??0CEditMgr@@QAE@XZ        10022300 f   EditMgr.obj
 0001:00021500       ??_GCEditMgr@@UAEPAXI@Z    10022500 f i EditMgr.obj
 0001:00021500       ??_ECEditMgr@@UAEPAXI@Z    10022500 f i EditMgr.obj
 0001:00021540       ??1CEditMgr@@UAE@XZ        10022540 f   EditMgr.obj
 0001:00021640       ?ReSetToolID@CEditMgr@@QAEIIII@Z 10022640 f   EditMgr.obj
 0001:000218d0       ?GetDLDMouse@CEditMgr@@QAEPAVCDLDEdit@@XZ 100228d0 f i EditMgr.obj
 0001:000218f0       ?IsMeshMode@CDrGrafFrame@@QAEHXZ 100228f0 f i EditMgr.obj
 0001:00021920       ?GetStatusMouseWIC@CEditMgr@@QAE?AULPOINT3@@XZ 10022920 f   EditMgr.obj
 0001:00021960       ?SetStatusMouseWIC@CEditMgr@@QAEXULPOINT3@@@Z 10022960 f   EditMgr.obj
 0001:000219b0       ?SetViewCursor@CEditMgr@@QAEXH@Z 100229b0 f   EditMgr.obj
 0001:00021b00       ?Serialize@CEditMgr@@UAEXAAVCArchive@@@Z 10022b00 f   EditMgr.obj
 0001:00021bb0       _ExtRawDllMain@12          10022bb0 f   EmgrDll.obj
 0001:00021c30       _InitEMgrDLL@0             10022c30 f   EmgrDll.obj
 0001:00021c90       _DllMain@12                10022c90 f   EmgrDll.obj
 0001:00021d10       ??B?$CTypedSimpleList@PAUCRuntimeClass@@@@QAEPAUCRuntimeClass@@XZ 10022d10 f i EmgrDll.obj
 0001:00021d40       ??B?$CTypedSimpleList@PAVCOleObjectFactory@@@@QAEPAVCOleObjectFactory@@XZ 10022d40 f i EmgrDll.obj
 0001:00021d70       ?GetHead@CSimpleList@@QBEPAXXZ 10022d70 f i EmgrDll.obj
 0001:00021d90       ?SetParallel@CXForm@@UAEXH@Z 10022d90 f i NodEdit.obj
 0001:00021dc0       ?GetParallel@CXForm@@UAEHXZ 10022dc0 f i NodEdit.obj
 0001:00021de0       ??1CXForm@@UAE@XZ          10022de0 f i NodEdit.obj
 0001:00021e10       ??_GCXForm@@UAEPAXI@Z      10022e10 f i NodEdit.obj
 0001:00021e50       ??_ECXForm@@UAEPAXI@Z      10022e50 f i NodEdit.obj
 0001:00021ef0       ?SetCurrentView@CRegenNod@@QAEXPAVCView@@@Z 10022ef0 f i NodEdit.obj
 0001:00021f20       ?SetCurrentView@CRegenCur@@QAEXPAVCView@@@Z 10022f20 f i NodEdit.obj
 0001:00021f50       ?SetCurrentView@CRegenPat@@QAEXPAVCView@@@Z 10022f50 f i NodEdit.obj
 0001:00021f80       ?SetCurrentView@CRegenSol@@QAEXPAVCView@@@Z 10022f80 f i NodEdit.obj
 0001:00021fb0       ?CreateObject@CNodEdit@@SGPAVCObject@@XZ 10022fb0 f   NodEdit.obj
 0001:00022050       ?_GetBaseClass@CNodEdit@@KGPAUCRuntimeClass@@XZ 10023050 f   NodEdit.obj
 0001:00022070       ?GetRuntimeClass@CNodEdit@@UBEPAUCRuntimeClass@@XZ 10023070 f   NodEdit.obj
 0001:000220e0       ??5@YGAAVCArchive@@AAV0@AAPAVCNodEdit@@@Z 100230e0 f   NodEdit.obj
 0001:00022110       ??0CNodEdit@@QAE@XZ        10023110 f   NodEdit.obj
 0001:000222e0       ??_GCNodEdit@@UAEPAXI@Z    100232e0 f i NodEdit.obj
 0001:000222e0       ??_ECNodEdit@@UAEPAXI@Z    100232e0 f i NodEdit.obj
 0001:00022320       ??1CNodEdit@@UAE@XZ        10023320 f   NodEdit.obj
 0001:000223a0       ?ElementLeftDown_NOD@CNodEdit@@IAEXVCPoint@@@Z 100233a0 f   NodEdit.obj
 0001:00022440       ?ShowNodeToEdit@CNodEdit@@QAEHPAVCDrNode@@@Z 10023440 f   NodEdit.obj
 0001:00022700       ?PrepareFor_Xlation@CNodEdit@@IAEXAAVCNodCreOp@@@Z 10023700 f   NodEdit.obj
 0001:00022780       ?SetCoordIn@CNodCreOp@@QAEXH@Z 10023780 f i NodEdit.obj
 0001:000227b0       ?SetTranPtID@CNodCreOp@@QAEXAAVCString@@@Z 100237b0 f i NodEdit.obj
 0001:000227e0       ?SetTranPt@CNodCreOp@@QAEXAAUWORLD@@@Z 100237e0 f i NodEdit.obj
 0001:00022820       ?SetTran@CNodCreOp@@QAEXAAUWORLD@@@Z 10023820 f i NodEdit.obj
 0001:00022860       ?OnEBoxLButtonDown_NOD@CNodEdit@@QAEXPAVCClientDC@@PAVCView@@W4GENERATE@@IVCPoint@@@Z 10023860 f   NodEdit.obj
 0001:00022a20       ?GetCurrentIGenID@CDrGrafFrame@@QAEIXZ 10023a20 f i NodEdit.obj
 0001:00022a50       ?LeftUp_NODE@CNodEdit@@IAEHVCPoint@@H@Z 10023a50 f   NodEdit.obj
 0001:00023590       ?LeftUp_NODE_PreMove@CNodEdit@@IAEHVCPoint@@H@Z 10024590 f   NodEdit.obj
 0001:00024070       ?LeftUp_NODE_DoneMove@CNodEdit@@IAEHVCPoint@@H@Z 10025070 f   NodEdit.obj
 0001:000242e0       ?UpdateCurrStat@CDrGrafFrame@@QAEXAAVCString@@@Z 100252e0 f i NodEdit.obj
 0001:00024340       ?SetText@CStatCntl@@QAEXAAVCString@@@Z 10025340 f i NodEdit.obj
 0001:00024370       ?ElementLeftUp_NOD@CNodEdit@@IAEXVCPoint@@@Z 10025370 f   NodEdit.obj
 0001:000245f0       ?OnEBoxLButtonUp_NOD@CNodEdit@@QAEXPAVCClientDC@@PAVCView@@W4GENERATE@@IVCPoint@@@Z 100255f0 f   NodEdit.obj
 0001:000246b0       ?SetMouseWICFromNode@CNodEdit@@IAEXPAVCDrNode@@PAULPOINT3@@@Z 100256b0 f   NodEdit.obj
 0001:00024720       ?SetNodeFromMouseWIC@CNodEdit@@IAEXPAVCDrNode@@PAULPOINT3@@@Z 10025720 f   NodEdit.obj
 0001:00024960       ?SetThirdCoordFromNode@CNodEdit@@IAEHPAVCDrNode@@PAJ@Z 10025960 f   NodEdit.obj
 0001:00024a20       ?PostLeft@CNodEdit@@IAEXXZ 10025a20 f   NodEdit.obj
 0001:00024b20       ?LMovDown_NOD@CNodEdit@@IAEXVCPoint@@@Z 10025b20 f   NodEdit.obj
 0001:00025080       ?GetMouseMgr@CDrGrafFrame@@QAEPAVCMouseMgr@@XZ 10026080 f i NodEdit.obj
 0001:000250b0       ?OnEBoxMouseMove_NOD@CNodEdit@@QAEXPAVCClientDC@@PAVCView@@W4GENERATE@@IVCPoint@@@Z 100260b0 f   NodEdit.obj
 0001:00025440       ?OnEBoxRButtonDown_NOD@CNodEdit@@QAEXPAVCClientDC@@PAVCView@@W4GENERATE@@IVCPoint@@@Z 10026440 f   NodEdit.obj
 0001:00025460       ?OnEBoxRButtonUp_NOD@CNodEdit@@QAEXPAVCClientDC@@PAVCView@@W4GENERATE@@IVCPoint@@@Z 10026460 f   NodEdit.obj
 0001:00025480       ?ReSetToolID_NOD@CNodEdit@@QAEIIII@Z 10026480 f   NodEdit.obj
 0001:000258b0       ?Serialize@CNodEdit@@UAEXAAVCArchive@@@Z 100268b0 f   NodEdit.obj
 0001:00025a90       ?CreateObject@CPatEdit@@SGPAVCObject@@XZ 10026a90 f   PatEdit.obj
 0001:00025b30       ?_GetBaseClass@CPatEdit@@KGPAUCRuntimeClass@@XZ 10026b30 f   PatEdit.obj
 0001:00025b50       ?GetRuntimeClass@CPatEdit@@UBEPAUCRuntimeClass@@XZ 10026b50 f   PatEdit.obj
 0001:00025bc0       ??5@YGAAVCArchive@@AAV0@AAPAVCPatEdit@@@Z 10026bc0 f   PatEdit.obj
 0001:00025bf0       ??0CPatEdit@@QAE@XZ        10026bf0 f   PatEdit.obj
 0001:00025c40       ??_GCPatEdit@@UAEPAXI@Z    10026c40 f i PatEdit.obj
 0001:00025c40       ??_ECPatEdit@@UAEPAXI@Z    10026c40 f i PatEdit.obj
 0001:00025c80       ??1CPatEdit@@UAE@XZ        10026c80 f   PatEdit.obj
 0001:00025cb0       ?ElementLeftDown_PAT@CPatEdit@@IAEXXZ 10026cb0 f   PatEdit.obj
 0001:00025d10       ?ShowPatchToEdit@CPatEdit@@QAEHPAVCDrPatch@@@Z 10026d10 f   PatEdit.obj
 0001:00025f20       ?OnEBoxLButtonDown_PAT@CPatEdit@@QAEXPAVCClientDC@@PAVCView@@W4GENERATE@@IVCPoint@@@Z 10026f20 f   PatEdit.obj
 0001:00026090       ?LeftUp_Patch@CPatEdit@@IAEHVCPoint@@@Z 10027090 f   PatEdit.obj
 0001:00026550       ?ElementLeftUp_PAT@CPatEdit@@IAEXVCPoint@@@Z 10027550 f   PatEdit.obj
 0001:00026660       ?OnEBoxMouseMove_PAT@CPatEdit@@QAEXPAVCClientDC@@PAVCView@@W4GENERATE@@IVCPoint@@@Z 10027660 f   PatEdit.obj
 0001:000266b0       ?OnEBoxLButtonUp_PAT@CPatEdit@@QAEXPAVCClientDC@@PAVCView@@W4GENERATE@@IVCPoint@@@Z 100276b0 f   PatEdit.obj
 0001:00026770       ?OnEBoxRButtonDown_PAT@CPatEdit@@QAEXPAVCClientDC@@PAVCView@@W4GENERATE@@IVCPoint@@@Z 10027770 f   PatEdit.obj
 0001:000267c0       ?ShowPatchInfo@CPatEdit@@QAEHPAVCDrPatch@@@Z 100277c0 f   PatEdit.obj
 0001:00026b90       ?OnEBoxRButtonUp_PAT@CPatEdit@@QAEXPAVCClientDC@@PAVCView@@W4GENERATE@@IVCPoint@@@Z 10027b90 f   PatEdit.obj
 0001:00026be0       ?ReSetToolID_PAT@CPatEdit@@QAEIIII@Z 10027be0 f   PatEdit.obj
 0001:00026df0       ?Serialize@CPatEdit@@UAEXAAVCArchive@@@Z 10027df0 f   PatEdit.obj
 0001:00026e50       ?Setid@CMI_GangN@@QAEXVCString@@@Z 10027e50 f i SLDEdit.obj
 0001:00026ec0       ?FixMemD@CMI_GangN@@QAEPANJ@Z 10027ec0 f i SLDEdit.obj
 0001:00026f10       ?FreeMemD@CMI_GangN@@QAEXPAN@Z 10027f10 f i SLDEdit.obj
 0001:00026f40       ?FixMem@CMI_GangN@@QAEPAUWORLD@@J@Z 10027f40 f i SLDEdit.obj
 0001:00026f90       ?FreeMem@CMI_GangN@@QAEXPAUWORLD@@@Z 10027f90 f i SLDEdit.obj
 0001:00026fd0       ?IsNoDefault@CMI_GangC@@QAEHXZ 10027fd0 f i SLDEdit.obj
 0001:00026ff0       ?SetNoDefault@CMI_GangC@@QAEXH@Z 10027ff0 f i SLDEdit.obj
 0001:00027020       ?IsAxisInput@CMI_GangC@@QAEHXZ 10028020 f i SLDEdit.obj
 0001:00027050       ?SetAxisInput@CMI_GangC@@QAEXH@Z 10028050 f i SLDEdit.obj
 0001:00027080       ?GetAxis@CMI_GangC@@QAEHXZ 10028080 f i SLDEdit.obj
 0001:000270b0       ?SetAxis@CMI_GangC@@QAEXH@Z 100280b0 f i SLDEdit.obj
 0001:000270e0       ?IsNegative@CMI_GangC@@QAEHXZ 100280e0 f i SLDEdit.obj
 0001:00027110       ?SetNegative@CMI_GangC@@QAEXH@Z 10028110 f i SLDEdit.obj
 0001:00027140       ?GetbBack@CMI_GangC@@QAEHXZ 10028140 f i SLDEdit.obj
 0001:00027170       ?SetbBack@CMI_GangC@@QAEXH@Z 10028170 f i SLDEdit.obj
 0001:000271a0       ?GetBezierType@CMI_GangC@@QAE?AW4BEZIERTYPE@@XZ 100281a0 f i SLDEdit.obj
 0001:000271c0       ?SetBezierType@CMI_GangC@@QAEXW4BEZIERTYPE@@@Z 100281c0 f i SLDEdit.obj
 0001:000271f0       ?CreateObject@CSLDEdit@@SGPAVCObject@@XZ 100281f0 f   SLDEdit.obj
 0001:00027290       ?_GetBaseClass@CSLDEdit@@KGPAUCRuntimeClass@@XZ 10028290 f   SLDEdit.obj
 0001:000272b0       ?GetRuntimeClass@CSLDEdit@@UBEPAUCRuntimeClass@@XZ 100282b0 f   SLDEdit.obj
 0001:00027320       ??5@YGAAVCArchive@@AAV0@AAPAVCSLDEdit@@@Z 10028320 f   SLDEdit.obj
 0001:00027350       ??0CSLDEdit@@QAE@XZ        10028350 f   SLDEdit.obj
 0001:00027520       ??_GCSLDEdit@@UAEPAXI@Z    10028520 f i SLDEdit.obj
 0001:00027520       ??_ECSLDEdit@@UAEPAXI@Z    10028520 f i SLDEdit.obj
 0001:00027560       ??1CSLDEdit@@UAE@XZ        10028560 f   SLDEdit.obj
 0001:00027730       ?ElementLeftDown_SLD@CSLDEdit@@MAEXXZ 10028730 f   SLDEdit.obj
 0001:00027820       ?OnEBoxLButtonDown_SLD@CSLDEdit@@QAEXPAVCClientDC@@PAVCView@@W4GENERATE@@IVCPoint@@@Z 10028820 f   SLDEdit.obj
 0001:00027990       ?FillStaticInfo@CSLDEdit@@IAEXPAVCDrStatic@@@Z 10028990 f   SLDEdit.obj
 0001:00027d70       ?UpdateSLEObjInfo@CSLDEdit@@IAEXXZ 10028d70 f   SLDEdit.obj
 0001:00028210       ?LeftUp_NodeStatic@CSLDEdit@@IAEHVCPoint@@@Z 10029210 f   SLDEdit.obj
 0001:00028e00       ?LeftUp_CurveStatic@CSLDEdit@@IAEHVCPoint@@@Z 10029e00 f   SLDEdit.obj
 0001:00029ba0       ?LeftUp_PatchStatic@CSLDEdit@@IAEHVCPoint@@@Z 1002aba0 f   SLDEdit.obj
 0001:0002a8f0       ?ElementLeftUp_SLD@CSLDEdit@@MAEXVCPoint@@@Z 1002b8f0 f   SLDEdit.obj
 0001:0002ab90       ?OnEBoxMouseMove_SLD@CSLDEdit@@QAEXPAVCClientDC@@PAVCView@@W4GENERATE@@IVCPoint@@@Z 1002bb90 f   SLDEdit.obj
 0001:0002abe0       ?OnEBoxLButtonUp_SLD@CSLDEdit@@QAEXPAVCClientDC@@PAVCView@@W4GENERATE@@IVCPoint@@@Z 1002bbe0 f   SLDEdit.obj
 0001:0002aca0       ?OnEBoxRButtonDown_SLD@CSLDEdit@@QAEXPAVCClientDC@@PAVCView@@W4GENERATE@@IVCPoint@@@Z 1002bca0 f   SLDEdit.obj
 0001:0002acf0       ?OnEBoxRButtonUp_SLD@CSLDEdit@@QAEXPAVCClientDC@@PAVCView@@W4GENERATE@@IVCPoint@@@Z 1002bcf0 f   SLDEdit.obj
 0001:0002ad40       ?ReSetToolID_SLD@CSLDEdit@@QAEIIII@Z 1002bd40 f   SLDEdit.obj
 0001:0002bbd0       ?SetMouseBoxType@CDrGrafFrame@@QAEXI@Z 1002cbd0 f i SLDEdit.obj
 0001:0002bc00       ?SetMainType_SLD@CSLDEdit@@IAEXXZ 1002cc00 f   SLDEdit.obj
 0001:0002bc50       ?Serialize@CSLDEdit@@UAEXAAVCArchive@@@Z 1002cc50 f   SLDEdit.obj
 0001:0002bcb0       ?CreateObject@CSolEdit@@SGPAVCObject@@XZ 1002ccb0 f   SolEdit.obj
 0001:0002bd50       ?_GetBaseClass@CSolEdit@@KGPAUCRuntimeClass@@XZ 1002cd50 f   SolEdit.obj
 0001:0002bd70       ?GetRuntimeClass@CSolEdit@@UBEPAUCRuntimeClass@@XZ 1002cd70 f   SolEdit.obj
 0001:0002bde0       ??5@YGAAVCArchive@@AAV0@AAPAVCSolEdit@@@Z 1002cde0 f   SolEdit.obj
 0001:0002be10       ??0CSolEdit@@QAE@XZ        1002ce10 f   SolEdit.obj
 0001:0002be60       ??_GCSolEdit@@UAEPAXI@Z    1002ce60 f i SolEdit.obj
 0001:0002be60       ??_ECSolEdit@@UAEPAXI@Z    1002ce60 f i SolEdit.obj
 0001:0002bea0       ??1CSolEdit@@UAE@XZ        1002cea0 f   SolEdit.obj
 0001:0002bed0       ?ElementLeftDown_SOL@CSolEdit@@IAEXXZ 1002ced0 f   SolEdit.obj
 0001:0002bf30       ?ShowSolidToEdit@CSolEdit@@QAEHPAVCDrSolid@@@Z 1002cf30 f   SolEdit.obj
 0001:0002c140       ?OnEBoxLButtonDown_SOL@CSolEdit@@QAEXPAVCClientDC@@PAVCView@@W4GENERATE@@IVCPoint@@@Z 1002d140 f   SolEdit.obj
 0001:0002c2b0       ?LeftUp_Solid@CSolEdit@@IAEHVCPoint@@@Z 1002d2b0 f   SolEdit.obj
 0001:0002c770       ?ElementLeftUp_SOL@CSolEdit@@IAEXVCPoint@@@Z 1002d770 f   SolEdit.obj
 0001:0002c860       ?OnEBoxMouseMove_SOL@CSolEdit@@QAEXPAVCClientDC@@PAVCView@@W4GENERATE@@IVCPoint@@@Z 1002d860 f   SolEdit.obj
 0001:0002c8b0       ?OnEBoxLButtonUp_SOL@CSolEdit@@QAEXPAVCClientDC@@PAVCView@@W4GENERATE@@IVCPoint@@@Z 1002d8b0 f   SolEdit.obj
 0001:0002c970       ?OnEBoxRButtonDown_SOL@CSolEdit@@QAEXPAVCClientDC@@PAVCView@@W4GENERATE@@IVCPoint@@@Z 1002d970 f   SolEdit.obj
 0001:0002c9c0       ?ShowSolidInfo@CSolEdit@@QAEHPAVCDrSolid@@@Z 1002d9c0 f   SolEdit.obj
 0001:0002c9f0       ?OnEBoxRButtonUp_SOL@CSolEdit@@QAEXPAVCClientDC@@PAVCView@@W4GENERATE@@IVCPoint@@@Z 1002d9f0 f   SolEdit.obj
 0001:0002ca40       ?ReSetToolID_SOL@CSolEdit@@QAEIIII@Z 1002da40 f   SolEdit.obj
 0001:0002cc50       ?Serialize@CSolEdit@@UAEXAAVCArchive@@@Z 1002dc50 f   SolEdit.obj
 0001:0002ccb0       ?CreateObject@CSpLEdit@@SGPAVCObject@@XZ 1002dcb0 f   SpLEdit.obj
 0001:0002cd50       ?_GetBaseClass@CSpLEdit@@KGPAUCRuntimeClass@@XZ 1002dd50 f   SpLEdit.obj
 0001:0002cd70       ?GetRuntimeClass@CSpLEdit@@UBEPAUCRuntimeClass@@XZ 1002dd70 f   SpLEdit.obj
 0001:0002cde0       ??5@YGAAVCArchive@@AAV0@AAPAVCSpLEdit@@@Z 1002dde0 f   SpLEdit.obj
 0001:0002ce10       ??0CSpLEdit@@QAE@XZ        1002de10 f   SpLEdit.obj
 0001:0002ce40       ??_GCSpLEdit@@UAEPAXI@Z    1002de40 f i SpLEdit.obj
 0001:0002ce40       ??_ECSpLEdit@@UAEPAXI@Z    1002de40 f i SpLEdit.obj
 0001:0002ce80       ??1CSpLEdit@@UAE@XZ        1002de80 f   SpLEdit.obj
 0001:0002ceb0       ?Serialize@CSpLEdit@@UAEXAAVCArchive@@@Z 1002deb0 f   SpLEdit.obj
 0001:0002cf10       ?CreateObject@CSupEdit@@SGPAVCObject@@XZ 1002df10 f   SupEdit.obj
 0001:0002cfb0       ?_GetBaseClass@CSupEdit@@KGPAUCRuntimeClass@@XZ 1002dfb0 f   SupEdit.obj
 0001:0002cfd0       ?GetRuntimeClass@CSupEdit@@UBEPAUCRuntimeClass@@XZ 1002dfd0 f   SupEdit.obj
 0001:0002d040       ??5@YGAAVCArchive@@AAV0@AAPAVCSupEdit@@@Z 1002e040 f   SupEdit.obj
 0001:0002d070       ??0CSupEdit@@QAE@XZ        1002e070 f   SupEdit.obj
 0001:0002d0a0       ??_GCSupEdit@@UAEPAXI@Z    1002e0a0 f i SupEdit.obj
 0001:0002d0a0       ??_ECSupEdit@@UAEPAXI@Z    1002e0a0 f i SupEdit.obj
 0001:0002d0e0       ??1CSupEdit@@UAE@XZ        1002e0e0 f   SupEdit.obj
 0001:0002d110       ?ElementLeftDown_SUP@CSupEdit@@MAEXXZ 1002e110 f   SupEdit.obj
 0001:0002d160       ?NoRigidEdit_Msg@CSupEdit@@IAEXXZ 1002e160 f   SupEdit.obj
 0001:0002d310       ?ShowNodeLinSuppToEdit@CSupEdit@@IAEHXZ 1002e310 f   SupEdit.obj
 0001:0002d450       ?ShowCurveLinSuppToEdit@CSupEdit@@IAEHXZ 1002e450 f   SupEdit.obj
 0001:0002d590       ?ShowPatchLinSuppToEdit@CSupEdit@@IAEHXZ 1002e590 f   SupEdit.obj
 0001:0002d720       ?ShowSolidLinSuppToEdit@CSupEdit@@IAEHXZ 1002e720 f   SupEdit.obj
 0001:0002d740       ?OnEBoxLButtonDown_SUP@CSupEdit@@QAEXPAVCClientDC@@PAVCView@@W4GENERATE@@IVCPoint@@@Z 1002e740 f   SupEdit.obj
 0001:0002d8b0       ?ShowInfo_NodeLinSupport@CSupEdit@@IAEHPAVCDrNode@@PADH@Z 1002e8b0 f   SupEdit.obj
 0001:0002dbc0       ??0supportcard@@QAE@XZ     1002ebc0 f i SupEdit.obj
 0001:0002dc60       ??1supportcard@@QAE@XZ     1002ec60 f i SupEdit.obj
 0001:0002dd00       ??4supportcard@@QAEAAU0@ABU0@@Z 1002ed00 f i SupEdit.obj
 0001:0002df90       ??0supportcard@@QAE@ABU0@@Z 1002ef90 f i SupEdit.obj
 0001:0002e200       ?FillInfo_Rigid@CSupEdit@@IAEHUsupportcard@@PADH@Z 1002f200 f   SupEdit.obj
 0001:0002e2a0       ?FillInfo_SprOrSnu@CSupEdit@@IAEHAAVCString@@Usupportcard@@PADHH@Z 1002f2a0 f   SupEdit.obj
 0001:0002ea00       ?LeftUp_NodeLinSupp@CSupEdit@@IAEHVCPoint@@@Z 1002fa00 f   SupEdit.obj
 0001:0002f290       ?ShowInfo_CurveLinSupport@CSupEdit@@IAEHPAVCDrCurve@@PADH@Z 10030290 f   SupEdit.obj
 0001:0002f5a0       ?LeftUp_CurveLinSupp@CSupEdit@@IAEHVCPoint@@@Z 100305a0 f   SupEdit.obj
 0001:0002fe00       ?ShowInfo_PatchLinSupport@CSupEdit@@IAEHPAVCDrPatch@@PADH@Z 10030e00 f   SupEdit.obj
 0001:00030110       ?LeftUp_PatchLinSupp@CSupEdit@@IAEHVCPoint@@@Z 10031110 f   SupEdit.obj
 0001:000308a0       ?ShowInfo_SolidLinSupport@CSupEdit@@IAEHPAVCDrSolid@@PADH@Z 100318a0 f   SupEdit.obj
 0001:000308c0       ?LeftUp_SolidLinSupp@CSupEdit@@IAEHVCPoint@@@Z 100318c0 f   SupEdit.obj
 0001:000308e0       ?ElementLeftUp_SUP@CSupEdit@@MAEXVCPoint@@@Z 100318e0 f   SupEdit.obj
 0001:00030a50       ?OnEBoxMouseMove_SUP@CSupEdit@@QAEXPAVCClientDC@@PAVCView@@W4GENERATE@@IVCPoint@@@Z 10031a50 f   SupEdit.obj
 0001:00030aa0       ?OnEBoxLButtonUp_SUP@CSupEdit@@QAEXPAVCClientDC@@PAVCView@@W4GENERATE@@IVCPoint@@@Z 10031aa0 f   SupEdit.obj
 0001:00030b60       ?OnEBoxRButtonDown_SUP@CSupEdit@@QAEXPAVCClientDC@@PAVCView@@W4GENERATE@@IVCPoint@@@Z 10031b60 f   SupEdit.obj
 0001:00030bb0       ?OnEBoxRButtonUp_SUP@CSupEdit@@QAEXPAVCClientDC@@PAVCView@@W4GENERATE@@IVCPoint@@@Z 10031bb0 f   SupEdit.obj
 0001:00030c00       ?ReSetToolID_SUP@CSupEdit@@QAEIIII@Z 10031c00 f   SupEdit.obj
 0001:00030f40       ?SetMainType_SUP@CSupEdit@@IAEXXZ 10031f40 f   SupEdit.obj
 0001:00030f90       ?Serialize@CSupEdit@@UAEXAAVCArchive@@@Z 10031f90 f   SupEdit.obj
 0001:00030fec       ?GetSpecObject@CObjectMgr@@QAEPAVCDrObject@@H@Z 10031fec f   OMgr_D32:OMgr_D32.dll
 0001:00030ff2       ?UpdateAllViewsWithActiveIndex@CObjectMgr@@QAEXPAVCView@@IH@Z 10031ff2 f   OMgr_D32:OMgr_D32.dll
 0001:00030ff8       ?GetObjectIndexfromKey@CObjectMgr@@QAEHHVCString@@I@Z 10031ff8 f   OMgr_D32:OMgr_D32.dll
 0001:00030ffe       ?ShowObject_On_Off@CObjectMgr@@QAEHPAVCDrObject@@IH@Z 10031ffe f   OMgr_D32:OMgr_D32.dll
 0001:00031004       ?GetRuntimeClass@CMatObj@@UBEPAUCRuntimeClass@@XZ 10032004 f   Spec_d32:Spec_D32.dll
 0001:0003100a       ?SetScreen3DCorner@CDrObject@@UAEXPAUWORLD@@H@Z 1003200a f   Spec_d32:Spec_D32.dll
 0001:00031010       ?GetScreen3DCorner@CDrObject@@UAEXPAUWORLD@@H@Z 10032010 f   Spec_d32:Spec_D32.dll
 0001:00031016       ?SetEyeCorner@CDrObject@@UAEXPAUWORLD@@H@Z 10032016 f   Spec_d32:Spec_D32.dll
 0001:0003101c       ?GetEyeCorner@CDrObject@@UAEXPAUWORLD@@H@Z 1003201c f   Spec_d32:Spec_D32.dll
 0001:00031022       ?SetWorldCorner@CDrObject@@UAEXPAUWORLD@@H@Z 10032022 f   Spec_d32:Spec_D32.dll
 0001:00031028       ?GetWorldCorner@CDrObject@@UAEXPAUWORLD@@H@Z 10032028 f   Spec_d32:Spec_D32.dll
 0001:0003102e       ?SetLocalCorner@CDrObject@@UAEXPAUWORLD@@H@Z 1003202e f   Spec_d32:Spec_D32.dll
 0001:00031034       ?GetLocalCorner@CDrObject@@UAEXPAUWORLD@@H@Z 10032034 f   Spec_d32:Spec_D32.dll
 0001:0003103a       ??1CDrObject@@UAE@XZ       1003203a f   Spec_d32:Spec_D32.dll
 0001:00031040       ?InitBooleans@CBooleans@@UAEXXZ 10032040 f   Spec_d32:Spec_D32.dll
 0001:00031046       ?ReadDefaultBooleans@CBooleans@@UAEXXZ 10032046 f   Spec_d32:Spec_D32.dll
 0001:0003104c       ?ToggleZoom@CBooleans@@UAEHHH@Z 1003204c f   Spec_d32:Spec_D32.dll
 0001:00031052       ?IsZoomOn@CBooleans@@UAEHHH@Z 10032052 f   Spec_d32:Spec_D32.dll
 0001:00031058       ?SetZoomEnabled@CBooleans@@UAEXHH@Z 10032058 f   Spec_d32:Spec_D32.dll
 0001:0003105e       ?IsZoomEnabled@CBooleans@@UAEHH@Z 1003205e f   Spec_d32:Spec_D32.dll
 0001:00031064       ?SetObjectInfo@CBooleans@@UAEXPAVCDrObject@@@Z 10032064 f   Spec_d32:Spec_D32.dll
 0001:0003106a       ?GetObjectInfo@CBooleans@@UAEXPAVCDrObject@@@Z 1003206a f   Spec_d32:Spec_D32.dll
 0001:00031070       ?Pack_drPipe@CBooleans@@UAEXPAVCString@@@Z 10032070 f   Spec_d32:Spec_D32.dll
 0001:00031076       ?DoDataView@CBooleans@@UAEXPAVCDC@@H@Z 10032076 f   Spec_d32:Spec_D32.dll
 0001:0003107c       ?Serialize@CBooleans@@UAEXAAVCArchive@@@Z 1003207c f   Spec_d32:Spec_D32.dll
 0001:00031082       ?GetRuntimeClass@CBooleans@@UBEPAUCRuntimeClass@@XZ 10032082 f   Spec_d32:Spec_D32.dll
 0001:00031088       ?InitDataWindow@CDataWindow@@UAEXXZ 10032088 f   Spec_d32:Spec_D32.dll
 0001:0003108e       ?ReadDefaultDataWindow@CDataWindow@@UAEXXZ 1003208e f   Spec_d32:Spec_D32.dll
 0001:00031094       ?SetWinExtWIC@CDataWindow@@UAEXXZ 10032094 f   Spec_d32:Spec_D32.dll
 0001:0003109a       ?SetWinMinMaxWIC@CDataWindow@@UAEXULPOINT3@@@Z 1003209a f   Spec_d32:Spec_D32.dll
 0001:000310a0       ?SetObjectInfo@CDataWindow@@UAEXPAVCDrObject@@@Z 100320a0 f   Spec_d32:Spec_D32.dll
 0001:000310a6       ?GetObjectInfo@CDataWindow@@UAEXPAVCDrObject@@@Z 100320a6 f   Spec_d32:Spec_D32.dll
 0001:000310ac       ?Pack_drPipe@CDataWindow@@UAEXPAVCString@@@Z 100320ac f   Spec_d32:Spec_D32.dll
 0001:000310b2       ?DoDataView@CDataWindow@@UAEXPAVCDC@@H@Z 100320b2 f   Spec_d32:Spec_D32.dll
 0001:000310b8       ?Serialize@CDataWindow@@UAEXAAVCArchive@@@Z 100320b8 f   Spec_d32:Spec_D32.dll
 0001:000310be       ?GetRuntimeClass@CDataWindow@@UBEPAUCRuntimeClass@@XZ 100320be f   Spec_d32:Spec_D32.dll
 0001:000310c4       ?InitDrFont@CDrFont@@UAEXXZ 100320c4 f   Spec_d32:Spec_D32.dll
 0001:000310ca       ?ReadDefaultDrFont@CDrFont@@UAEXXZ 100320ca f   Spec_d32:Spec_D32.dll
 0001:000310d0       ?DoTextFont@CDrFont@@UAEXXZ 100320d0 f   Spec_d32:Spec_D32.dll
 0001:000310d6       ?SetObjectInfo@CDrFont@@UAEXPAVCDrObject@@@Z 100320d6 f   Spec_d32:Spec_D32.dll
 0001:000310dc       ?GetObjectInfo@CDrFont@@UAEXPAVCDrObject@@@Z 100320dc f   Spec_d32:Spec_D32.dll
 0001:000310e2       ?Pack_drPipe@CDrFont@@UAEXPAVCString@@@Z 100320e2 f   Spec_d32:Spec_D32.dll
 0001:000310e8       ?DoDataView@CDrFont@@UAEXPAVCDC@@H@Z 100320e8 f   Spec_d32:Spec_D32.dll
 0001:000310ee       ?Serialize@CDrFont@@UAEXAAVCArchive@@@Z 100320ee f   Spec_d32:Spec_D32.dll
 0001:000310f4       ?GetRuntimeClass@CDrFont@@UBEPAUCRuntimeClass@@XZ 100320f4 f   Spec_d32:Spec_D32.dll
 0001:000310fa       ?InitDrPen@CDrPen@@UAEXXZ  100320fa f   Spec_d32:Spec_D32.dll
 0001:00031100       ?ReadDefaultDrPen@CDrPen@@UAEXXZ 10032100 f   Spec_d32:Spec_D32.dll
 0001:00031106       ?ReplacePen@CDrPen@@UAEXXZ 10032106 f   Spec_d32:Spec_D32.dll
 0001:0003110c       ?SetObjectInfo@CDrPen@@UAEXPAVCDrObject@@@Z 1003210c f   Spec_d32:Spec_D32.dll
 0001:00031112       ?GetObjectInfo@CDrPen@@UAEXPAVCDrObject@@@Z 10032112 f   Spec_d32:Spec_D32.dll
 0001:00031118       ?Pack_drPipe@CDrPen@@UAEXPAVCString@@@Z 10032118 f   Spec_d32:Spec_D32.dll
 0001:0003111e       ?DoDataView@CDrPen@@UAEXPAVCDC@@H@Z 1003211e f   Spec_d32:Spec_D32.dll
 0001:00031124       ?Serialize@CDrPen@@UAEXAAVCArchive@@@Z 10032124 f   Spec_d32:Spec_D32.dll
 0001:0003112a       ?GetRuntimeClass@CDrPen@@UBEPAUCRuntimeClass@@XZ 1003212a f   Spec_d32:Spec_D32.dll
 0001:00031130       ?SetObjectInfo@CHitNet@@UAEXPAVCDrObject@@@Z 10032130 f   Spec_d32:Spec_D32.dll
 0001:00031136       ?GetObjectInfo@CHitNet@@UAEXPAVCDrObject@@@Z 10032136 f   Spec_d32:Spec_D32.dll
 0001:0003113c       ?Pack_drPipe@CHitNet@@UAEXPAVCString@@@Z 1003213c f   Spec_d32:Spec_D32.dll
 0001:00031142       ?DoDataView@CHitNet@@UAEXPAVCDC@@H@Z 10032142 f   Spec_d32:Spec_D32.dll
 0001:00031148       ?Serialize@CHitNet@@UAEXAAVCArchive@@@Z 10032148 f   Spec_d32:Spec_D32.dll
 0001:0003114e       ?GetRuntimeClass@CHitNet@@UBEPAUCRuntimeClass@@XZ 1003214e f   Spec_d32:Spec_D32.dll
 0001:00031154       ?InitLayer@CLayer@@UAEXXZ  10032154 f   Spec_d32:Spec_D32.dll
 0001:0003115a       ?ReadDefaultLayer@CLayer@@UAEXXZ 1003215a f   Spec_d32:Spec_D32.dll
 0001:00031160       ?SetLayerDefaultArray@CLayer@@UAEXQAY01I@Z 10032160 f   Spec_d32:Spec_D32.dll
 0001:00031166       ?GetLayerDefaultArray@CLayer@@UAEXQAY01I@Z 10032166 f   Spec_d32:Spec_D32.dll
 0001:0003116c       ?SetLayerOldArray@CLayer@@UAEXQAY01I@Z 1003216c f   Spec_d32:Spec_D32.dll
 0001:00031172       ?GetLayerOldArray@CLayer@@UAEXQAY01I@Z 10032172 f   Spec_d32:Spec_D32.dll
 0001:00031178       ?SetLayerArray@CLayer@@UAEXQAY01I@Z 10032178 f   Spec_d32:Spec_D32.dll
 0001:0003117e       ?GetLayerArray@CLayer@@UAEXQAY01I@Z 1003217e f   Spec_d32:Spec_D32.dll
 0001:00031184       ?SetLayerInfo@CLayer@@UAEXII@Z 10032184 f   Spec_d32:Spec_D32.dll
 0001:0003118a       ?GetLayerInfo@CLayer@@UAE?AVCString@@I@Z 1003218a f   Spec_d32:Spec_D32.dll
 0001:00031190       ?SetObjectInfo@CLayer@@UAEXPAVCDrObject@@@Z 10032190 f   Spec_d32:Spec_D32.dll
 0001:00031196       ?GetObjectInfo@CLayer@@UAEXPAVCDrObject@@@Z 10032196 f   Spec_d32:Spec_D32.dll
 0001:0003119c       ?Pack_drPipe@CLayer@@UAEXPAVCString@@@Z 1003219c f   Spec_d32:Spec_D32.dll
 0001:000311a2       ?DoDataView@CLayer@@UAEXPAVCDC@@H@Z 100321a2 f   Spec_d32:Spec_D32.dll
 0001:000311a8       ?Serialize@CLayer@@UAEXAAVCArchive@@@Z 100321a8 f   Spec_d32:Spec_D32.dll
 0001:000311ae       ?GetRuntimeClass@CLayer@@UBEPAUCRuntimeClass@@XZ 100321ae f   Spec_d32:Spec_D32.dll
 0001:000311b4       ?InitPatchMnu@CPatchMnu@@UAEXXZ 100321b4 f   Spec_d32:Spec_D32.dll
 0001:000311ba       ?ReadDefaultPatchMnu@CPatchMnu@@UAEXXZ 100321ba f   Spec_d32:Spec_D32.dll
 0001:000311c0       ?SetPatchMnuDefaultArray@CPatchMnu@@UAEXQAY01I@Z 100321c0 f   Spec_d32:Spec_D32.dll
 0001:000311c6       ?GetPatchMnuDefaultArray@CPatchMnu@@UAEXQAY01I@Z 100321c6 f   Spec_d32:Spec_D32.dll
 0001:000311cc       ?SetPatchMnuOldArray@CPatchMnu@@UAEXQAY01I@Z 100321cc f   Spec_d32:Spec_D32.dll
 0001:000311d2       ?GetPatchMnuOldArray@CPatchMnu@@UAEXQAY01I@Z 100321d2 f   Spec_d32:Spec_D32.dll
 0001:000311d8       ?SetPatchMnuArray@CPatchMnu@@UAEXQAY01I@Z 100321d8 f   Spec_d32:Spec_D32.dll
 0001:000311de       ?GetPatchMnuArray@CPatchMnu@@UAEXQAY01I@Z 100321de f   Spec_d32:Spec_D32.dll
 0001:000311e4       ?SetPatchMnuIDArray@CPatchMnu@@UAEXQAVCString@@@Z 100321e4 f   Spec_d32:Spec_D32.dll
 0001:000311ea       ?GetPatchMnuIDArray@CPatchMnu@@UAEXQAVCString@@@Z 100321ea f   Spec_d32:Spec_D32.dll
 0001:000311f0       ?SetPatchMnuInfo@CPatchMnu@@UAEXII@Z 100321f0 f   Spec_d32:Spec_D32.dll
 0001:000311f6       ?GetPatchMnuInfo@CPatchMnu@@UAE?AVCString@@I@Z 100321f6 f   Spec_d32:Spec_D32.dll
 0001:000311fc       ?SetObjectInfo@CPatchMnu@@UAEXPAVCDrObject@@@Z 100321fc f   Spec_d32:Spec_D32.dll
 0001:00031202       ?GetObjectInfo@CPatchMnu@@UAEXPAVCDrObject@@@Z 10032202 f   Spec_d32:Spec_D32.dll
 0001:00031208       ?Pack_drPipe@CPatchMnu@@UAEXPAVCString@@@Z 10032208 f   Spec_d32:Spec_D32.dll
 0001:0003120e       ?DoDataView@CPatchMnu@@UAEXPAVCDC@@H@Z 1003220e f   Spec_d32:Spec_D32.dll
 0001:00031214       ?Serialize@CPatchMnu@@UAEXAAVCArchive@@@Z 10032214 f   Spec_d32:Spec_D32.dll
 0001:0003121a       ?GetRuntimeClass@CPatchMnu@@UBEPAUCRuntimeClass@@XZ 1003221a f   Spec_d32:Spec_D32.dll
 0001:00031220       ?InitObj3DMnu@CObj3DMnu@@UAEXXZ 10032220 f   Spec_d32:Spec_D32.dll
 0001:00031226       ?ReadDefaultObj3DMnu@CObj3DMnu@@UAEXXZ 10032226 f   Spec_d32:Spec_D32.dll
 0001:0003122c       ?SetObj3DMnuDefaultArray@CObj3DMnu@@UAEXQAY01I@Z 1003222c f   Spec_d32:Spec_D32.dll
 0001:00031232       ?GetObj3DMnuDefaultArray@CObj3DMnu@@UAEXQAY01I@Z 10032232 f   Spec_d32:Spec_D32.dll
 0001:00031238       ?SetObj3DMnuOldArray@CObj3DMnu@@UAEXQAY01I@Z 10032238 f   Spec_d32:Spec_D32.dll
 0001:0003123e       ?GetObj3DMnuOldArray@CObj3DMnu@@UAEXQAY01I@Z 1003223e f   Spec_d32:Spec_D32.dll
 0001:00031244       ?SetObj3DMnuArray@CObj3DMnu@@UAEXQAY01I@Z 10032244 f   Spec_d32:Spec_D32.dll
 0001:0003124a       ?GetObj3DMnuArray@CObj3DMnu@@UAEXQAY01I@Z 1003224a f   Spec_d32:Spec_D32.dll
 0001:00031250       ?SetObj3DMnuIDArray@CObj3DMnu@@UAEXQAVCString@@@Z 10032250 f   Spec_d32:Spec_D32.dll
 0001:00031256       ?GetObj3DMnuIDArray@CObj3DMnu@@UAEXQAVCString@@@Z 10032256 f   Spec_d32:Spec_D32.dll
 0001:0003125c       ?SetObj3DMnuInfo@CObj3DMnu@@UAEXII@Z 1003225c f   Spec_d32:Spec_D32.dll
 0001:00031262       ?GetObj3DMnuInfo@CObj3DMnu@@UAE?AVCString@@I@Z 10032262 f   Spec_d32:Spec_D32.dll
 0001:00031268       ?SetObjectInfo@CObj3DMnu@@UAEXPAVCDrObject@@@Z 10032268 f   Spec_d32:Spec_D32.dll
 0001:0003126e       ?GetObjectInfo@CObj3DMnu@@UAEXPAVCDrObject@@@Z 1003226e f   Spec_d32:Spec_D32.dll
 0001:00031274       ?Pack_drPipe@CObj3DMnu@@UAEXPAVCString@@@Z 10032274 f   Spec_d32:Spec_D32.dll
 0001:0003127a       ?DoDataView@CObj3DMnu@@UAEXPAVCDC@@H@Z 1003227a f   Spec_d32:Spec_D32.dll
 0001:00031280       ?Serialize@CObj3DMnu@@UAEXAAVCArchive@@@Z 10032280 f   Spec_d32:Spec_D32.dll
 0001:00031286       ?GetRuntimeClass@CObj3DMnu@@UBEPAUCRuntimeClass@@XZ 10032286 f   Spec_d32:Spec_D32.dll
 0001:0003128c       ?InitMapFactor@CMapFactor@@UAEXXZ 1003228c f   Spec_d32:Spec_D32.dll
 0001:00031292       ?ReadDefaultMapFactor@CMapFactor@@UAEXXZ 10032292 f   Spec_d32:Spec_D32.dll
 0001:00031298       ?SetObjectInfo@CMapFactor@@UAEXPAVCDrObject@@@Z 10032298 f   Spec_d32:Spec_D32.dll
 0001:0003129e       ?GetObjectInfo@CMapFactor@@UAEXPAVCDrObject@@@Z 1003229e f   Spec_d32:Spec_D32.dll
 0001:000312a4       ?Pack_drPipe@CMapFactor@@UAEXPAVCString@@@Z 100322a4 f   Spec_d32:Spec_D32.dll
 0001:000312aa       ?DoDataView@CMapFactor@@UAEXPAVCDC@@H@Z 100322aa f   Spec_d32:Spec_D32.dll
 0001:000312b0       ?Serialize@CMapFactor@@UAEXAAVCArchive@@@Z 100322b0 f   Spec_d32:Spec_D32.dll
 0001:000312b6       ?GetRuntimeClass@CMapFactor@@UBEPAUCRuntimeClass@@XZ 100322b6 f   Spec_d32:Spec_D32.dll
 0001:000312bc       ?InitPrecision@CPrecision@@UAEXXZ 100322bc f   Spec_d32:Spec_D32.dll
 0001:000312c2       ?ReadDefaultPrecision@CPrecision@@UAEXXZ 100322c2 f   Spec_d32:Spec_D32.dll
 0001:000312c8       ?SetObjectInfo@CPrecision@@UAEXPAVCDrObject@@@Z 100322c8 f   Spec_d32:Spec_D32.dll
 0001:000312ce       ?GetObjectInfo@CPrecision@@UAEXPAVCDrObject@@@Z 100322ce f   Spec_d32:Spec_D32.dll
 0001:000312d4       ?Pack_drPipe@CPrecision@@UAEXPAVCString@@@Z 100322d4 f   Spec_d32:Spec_D32.dll
 0001:000312da       ?DoDataView@CPrecision@@UAEXPAVCDC@@H@Z 100322da f   Spec_d32:Spec_D32.dll
 0001:000312e0       ?Serialize@CPrecision@@UAEXAAVCArchive@@@Z 100322e0 f   Spec_d32:Spec_D32.dll
 0001:000312e6       ?GetRuntimeClass@CPrecision@@UBEPAUCRuntimeClass@@XZ 100322e6 f   Spec_d32:Spec_D32.dll
 0001:000312ec       ?InitScaleFactor@CScaleFactor@@UAEXXZ 100322ec f   Spec_d32:Spec_D32.dll
 0001:000312f2       ?ReadDefaultScaleFactor@CScaleFactor@@UAEXXZ 100322f2 f   Spec_d32:Spec_D32.dll
 0001:000312f8       ?SetObjectInfo@CScaleFactor@@UAEXPAVCDrObject@@@Z 100322f8 f   Spec_d32:Spec_D32.dll
 0001:000312fe       ?GetObjectInfo@CScaleFactor@@UAEXPAVCDrObject@@@Z 100322fe f   Spec_d32:Spec_D32.dll
 0001:00031304       ?Pack_drPipe@CScaleFactor@@UAEXPAVCString@@@Z 10032304 f   Spec_d32:Spec_D32.dll
 0001:0003130a       ?DoDataView@CScaleFactor@@UAEXPAVCDC@@H@Z 1003230a f   Spec_d32:Spec_D32.dll
 0001:00031310       ?Serialize@CScaleFactor@@UAEXAAVCArchive@@@Z 10032310 f   Spec_d32:Spec_D32.dll
 0001:00031316       ?GetRuntimeClass@CScaleFactor@@UBEPAUCRuntimeClass@@XZ 10032316 f   Spec_d32:Spec_D32.dll
 0001:0003131c       ?InitUnit@CUnit@@UAEXXZ    1003231c f   Spec_d32:Spec_D32.dll
 0001:00031322       ?ReadDefaultUnit@CUnit@@UAEXXZ 10032322 f   Spec_d32:Spec_D32.dll
 0001:00031328       ?SetObjectInfo@CUnit@@UAEXPAVCDrObject@@@Z 10032328 f   Spec_d32:Spec_D32.dll
 0001:0003132e       ?GetObjectInfo@CUnit@@UAEXPAVCDrObject@@@Z 1003232e f   Spec_d32:Spec_D32.dll
 0001:00031334       ?Pack_drPipe@CUnit@@UAEXPAVCString@@@Z 10032334 f   Spec_d32:Spec_D32.dll
 0001:0003133a       ?DoDataView@CUnit@@UAEXPAVCDC@@H@Z 1003233a f   Spec_d32:Spec_D32.dll
 0001:00031340       ?Serialize@CUnit@@UAEXAAVCArchive@@@Z 10032340 f   Spec_d32:Spec_D32.dll
 0001:00031346       ?GetRuntimeClass@CUnit@@UBEPAUCRuntimeClass@@XZ 10032346 f   Spec_d32:Spec_D32.dll
 0001:0003134c       ??1CDListMgr@@UAE@XZ       1003234c f   Spec_d32:Spec_D32.dll
 0001:00031352       ?GetObjectIndex@CDListMgr@@QAEHIVCString@@@Z 10032352 f   Spec_d32:Spec_D32.dll
 0001:00031358       ?GetObjectA@CDListMgr@@QAEPAVCObject@@H@Z 10032358 f   Spec_d32:Spec_D32.dll
 0001:0003135e       ?GetNextObject@CDListMgr@@QAEPAVCObject@@AAPAU__POSITION@@@Z 1003235e f   Spec_d32:Spec_D32.dll
 0001:00031364       ?GetSpecificObjectCount@CDListMgr@@QAEHH@Z 10032364 f   Spec_d32:Spec_D32.dll
 0001:0003136a       ?GetFirstObjectPos@CDListMgr@@QAEPAU__POSITION@@XZ 1003236a f   Spec_d32:Spec_D32.dll
 0001:00031370       ?SetCorner@CDrLabel@@UAEXUtagPOINT@@H@Z 10032370 f   Draw_D32:Draw_D32.dll
 0001:00031376       ?GetCorner@CDrLabel@@UAE?AUtagPOINT@@H@Z 10032376 f   Draw_D32:Draw_D32.dll
 0001:0003137c       ?GetObjectInfo@CDrLabel@@UAEXPAVCDrObject@@@Z 1003237c f   Draw_D32:Draw_D32.dll
 0001:00031382       ?SetObjectInfo@CDrLabel@@UAEXPAVCDrObject@@@Z 10032382 f   Draw_D32:Draw_D32.dll
 0001:00031388       ?Pack_drPipe@CDrLabel@@UAEXPAVCString@@@Z 10032388 f   Draw_D32:Draw_D32.dll
 0001:0003138e       ?IsKeyMatch@CDrLabel@@UAEHPAVCDrObject@@VCString@@I@Z 1003238e f   Draw_D32:Draw_D32.dll
 0001:00031394       ?IsObjectHit@CDrLabel@@UAEHPAVCClientDC@@HUtagPOINT@@PAVCRect@@H@Z 10032394 f   Draw_D32:Draw_D32.dll
 0001:0003139a       ?GetRawCoords@CDrLabel@@UAEXPAJPAHH@Z 1003239a f   Draw_D32:Draw_D32.dll
 0001:000313a0       ?FinishObject@CDrLabel@@UAEXPAVCClientDC@@H@Z 100323a0 f   Draw_D32:Draw_D32.dll
 0001:000313a6       ?DealObjectDialog@CDrLabel@@UAEHXZ 100323a6 f   Draw_D32:Draw_D32.dll
 0001:000313ac       ?DoDrawView@CDrLabel@@UAEXPAVCDC@@HH@Z 100323ac f   Draw_D32:Draw_D32.dll
 0001:000313b2       ?Corner_3Dto2D@CDrLabel@@UAEXXZ 100323b2 f   Draw_D32:Draw_D32.dll
 0001:000313b8       ?InitDraw@CDrLabel@@UAEXPAVCDC@@HHPAUMATRIX@@1NNN@Z 100323b8 f   Draw_D32:Draw_D32.dll
 0001:000313be       ?DoDataView@CDrLabel@@UAEXPAVCDC@@H@Z 100323be f   Draw_D32:Draw_D32.dll
 0001:000313c4       ?Serialize@CDrLabel@@UAEXAAVCArchive@@@Z 100323c4 f   Draw_D32:Draw_D32.dll
 0001:000313ca       ?GetRuntimeClass@CDrLabel@@UBEPAUCRuntimeClass@@XZ 100323ca f   Draw_D32:Draw_D32.dll
 0001:000313d0       ?Init@CElemInfo@@UAEXXZ    100323d0 f   Elem_D32:Elem_D32.dll
 0001:000313d6       ?ReadDefault@CElemInfo@@UAEXXZ 100323d6 f   Elem_D32:Elem_D32.dll
 0001:000313dc       ?SetObjectInfo@CElemInfo@@UAEXPAVCDrObject@@@Z 100323dc f   Elem_D32:Elem_D32.dll
 0001:000313e2       ?GetObjectInfo@CElemInfo@@UAEXPAVCDrObject@@@Z 100323e2 f   Elem_D32:Elem_D32.dll
 0001:000313e8       ?Pack_drPipe@CElemInfo@@UAEXPAVCString@@@Z 100323e8 f   Elem_D32:Elem_D32.dll
 0001:000313ee       ?DoDataView@CElemInfo@@UAEXPAVCDC@@H@Z 100323ee f   Elem_D32:Elem_D32.dll
 0001:000313f4       ?Serialize@CElemInfo@@UAEXAAVCArchive@@@Z 100323f4 f   Elem_D32:Elem_D32.dll
 0001:000313fa       ?GetRuntimeClass@CElemInfo@@UBEPAUCRuntimeClass@@XZ 100323fa f   Elem_D32:Elem_D32.dll
 0001:00031400       ?GetRuntimeClass@CTriangle@@UBEPAUCRuntimeClass@@XZ 10032400 f   OGen_D32:OGEN_D32.dll
 0001:00031406       ?Serialize@C3DMath@@UAEXAAVCArchive@@@Z 10032406 f   Dr3D_D32:Dr3D_D32.dll
 0001:0003140c       ?GetRuntimeClass@C3DMath@@UBEPAUCRuntimeClass@@XZ 1003240c f   Dr3D_D32:Dr3D_D32.dll
 0001:00031412       ?BlockCopy@C3DMath@@QAEXPAD0K@Z 10032412 f   Dr3D_D32:Dr3D_D32.dll
 0001:00031418       ??0C3DMath@@QAE@XZ         10032418 f   Dr3D_D32:Dr3D_D32.dll
 0001:0003141e       ?Normalize@C3DMath@@QAEXPAUWORLD@@0@Z 1003241e f   Dr3D_D32:Dr3D_D32.dll
 0001:00031424       ?Sub3DPts@C3DMath@@QAEXPAUWORLD@@00@Z 10032424 f   Dr3D_D32:Dr3D_D32.dll
 0001:0003142a       ?Project@CXForm@@UAEXPAUMATRIX@@PAUWORLD@@1@Z 1003242a f   Dr3D_D32:Dr3D_D32.dll
 0001:00031430       ?ComposeWin3DtoScreen3DMATRIX@CXForm@@UAEXPAUMATRIX@@UWORLD@@1@Z 10032430 f   Dr3D_D32:Dr3D_D32.dll
 0001:00031436       ?TransformPerToParCVV@CXForm@@UAEXNPAUWORLD@@0@Z 10032436 f   Dr3D_D32:Dr3D_D32.dll
 0001:0003143c       ?Transform@CXForm@@UAEXPAUWORLD@@0PAUMATRIX@@@Z 1003243c f   Dr3D_D32:Dr3D_D32.dll
 0001:00031442       ?ComposeCombineMATRIX@CXForm@@UAEXPAUMATRIX@@00@Z 10032442 f   Dr3D_D32:Dr3D_D32.dll
 0001:00031448       ?Per_SetVMMATRIX@CXForm@@UAENPAUMATRIX@@UWORLD@@1NNNN@Z 10032448 f   Dr3D_D32:Dr3D_D32.dll
 0001:0003144e       ?Par_SetVMMATRIX@CXForm@@UAEXPAUMATRIX@@UWORLD@@1NNNN@Z 1003244e f   Dr3D_D32:Dr3D_D32.dll
 0001:00031454       ?SetVOMATRIX@CXForm@@UAEXPAUMATRIX@@UWORLD@@11@Z 10032454 f   Dr3D_D32:Dr3D_D32.dll
 0001:0003145a       ?ALT_ComposeViewMATRIX@CXForm@@UAEHPAUMATRIX@@UWORLD@@1111NNNN@Z 1003245a f   Dr3D_D32:Dr3D_D32.dll
 0001:00031460       ?PerToParCVVMATRIX@CXForm@@UAEXPAUMATRIX@@N@Z 10032460 f   Dr3D_D32:Dr3D_D32.dll
 0001:00031466       ?ComposeViewMATRIX@CXForm@@UAENPAUMATRIX@@UWORLD@@1111NNNN@Z 10032466 f   Dr3D_D32:Dr3D_D32.dll
 0001:0003146c       ?ComposeLocalMATRIX@CXForm@@UAEXPAUMATRIX@@NNNNNNNNNNNN@Z 1003246c f   Dr3D_D32:Dr3D_D32.dll
 0001:00031472       ?VRCtoWORLDRotationMATRIX@CXForm@@UAEXPAUMATRIX@@PAUWORLD@@1@Z 10032472 f   Dr3D_D32:Dr3D_D32.dll
 0001:00031478       ?RotateToNewXMATRIX@CXForm@@UAEXPAUWORLD@@PAUMATRIX@@W4XFMODE@@@Z 10032478 f   Dr3D_D32:Dr3D_D32.dll
 0001:0003147e       ?HeadToNewXLocMATRIX@CXForm@@UAEXPAUWORLD@@0PAUMATRIX@@W4XFMODE@@@Z 1003247e f   Dr3D_D32:Dr3D_D32.dll
 0001:00031484       ?RotateToNewYMATRIX@CXForm@@UAEXPAUWORLD@@PAUMATRIX@@W4XFMODE@@@Z 10032484 f   Dr3D_D32:Dr3D_D32.dll
 0001:0003148a       ?HeadToNewYLocMATRIX@CXForm@@UAEXPAUWORLD@@0PAUMATRIX@@W4XFMODE@@@Z 1003248a f   Dr3D_D32:Dr3D_D32.dll
 0001:00031490       ?RotateToNewZMATRIX@CXForm@@UAEXPAUWORLD@@PAUMATRIX@@W4XFMODE@@@Z 10032490 f   Dr3D_D32:Dr3D_D32.dll
 0001:00031496       ?HeadToNewZLocMATRIX@CXForm@@UAEXPAUWORLD@@0PAUMATRIX@@W4XFMODE@@@Z 10032496 f   Dr3D_D32:Dr3D_D32.dll
 0001:0003149c       ?RotateAboutLineMATRIX@CXForm@@UAEXPAUMATRIX@@PAUWORLD@@1NW4XFMODE@@@Z 1003249c f   Dr3D_D32:Dr3D_D32.dll
 0001:000314a2       ?Translate@CXForm@@UAEXPAUMATRIX@@NNNW4XFMODE@@@Z 100324a2 f   Dr3D_D32:Dr3D_D32.dll
 0001:000314a8       ?Rotate_Z@CXForm@@UAEXPAUMATRIX@@NW4XFMODE@@@Z 100324a8 f   Dr3D_D32:Dr3D_D32.dll
 0001:000314ae       ?Rotate_Y@CXForm@@UAEXPAUMATRIX@@NW4XFMODE@@@Z 100324ae f   Dr3D_D32:Dr3D_D32.dll
 0001:000314b4       ?Rotate_X@CXForm@@UAEXPAUMATRIX@@NW4XFMODE@@@Z 100324b4 f   Dr3D_D32:Dr3D_D32.dll
 0001:000314ba       ?Shear_Z@CXForm@@UAEXPAUMATRIX@@NNW4XFMODE@@@Z 100324ba f   Dr3D_D32:Dr3D_D32.dll
 0001:000314c0       ?Shear_Y@CXForm@@UAEXPAUMATRIX@@NNW4XFMODE@@@Z 100324c0 f   Dr3D_D32:Dr3D_D32.dll
 0001:000314c6       ?Shear_X@CXForm@@UAEXPAUMATRIX@@NNW4XFMODE@@@Z 100324c6 f   Dr3D_D32:Dr3D_D32.dll
 0001:000314cc       ?Scale@CXForm@@UAEXPAUMATRIX@@NNNW4XFMODE@@@Z 100324cc f   Dr3D_D32:Dr3D_D32.dll
 0001:000314d2       ?Reflect@CXForm@@UAEXPAUMATRIX@@UWORLD@@N@Z 100324d2 f   Dr3D_D32:Dr3D_D32.dll
 0001:000314d8       ?Serialize@CXForm@@UAEXAAVCArchive@@@Z 100324d8 f   Dr3D_D32:Dr3D_D32.dll
 0001:000314de       ?GetRuntimeClass@CXForm@@UBEPAUCRuntimeClass@@XZ 100324de f   Dr3D_D32:Dr3D_D32.dll
 0001:000314e4       ??1CMI_LSupp@@UAE@XZ       100324e4 f   MSup_D32:MSup_D32.dll
 0001:000314ea       ?RegenNodeBased@CMI_LSupp@@QAEHPAVCDrNode@@@Z 100324ea f   MSup_D32:MSup_D32.dll
 0001:000314f0       ??0CMI_LSupp@@QAE@XZ       100324f0 f   MSup_D32:MSup_D32.dll
 0001:000314f6       ?DoModal_SupToEdit@CMSupMgr@@QAEIPAVCDrLinSup@@@Z 100324f6 f   MSup_D32:MSup_D32.dll
 0001:000314fc       ?RegenCurveBased@CMI_LSupp@@QAEHPAVCDrCurve@@@Z 100324fc f   MSup_D32:MSup_D32.dll
 0001:00031502       ?RegenPatchBased_3@CMI_LSupp@@QAEHPAVCDrPatch@@@Z 10032502 f   MSup_D32:MSup_D32.dll
 0001:00031508       ?RegenPatchBased_4@CMI_LSupp@@QAEHPAVCDrPatch@@@Z 10032508 f   MSup_D32:MSup_D32.dll
 0001:0003150e       ??1CSLDPat@@UAE@XZ         1003250e f   MStL_D32:MStL_D32.dll
 0001:00031514       ??0CSLDPat@@QAE@XZ         10032514 f   MStL_D32:MStL_D32.dll
 0001:0003151a       ?ShowNodeStaticLoad@CSLDNod@@QAEHPAVCDrNode@@PAVCString@@@Z 1003251a f   MStL_D32:MStL_D32.dll
 0001:00031520       ?Get_Values@CSLDObj@@QAEHW4STALPROC@@AAVCString@@@Z 10032520 f   MStL_D32:MStL_D32.dll
 0001:00031526       ?ShowInfo_NodeStaticLoad@CSLDNod@@QAEHPAVCDrNode@@PADHAAVCString@@@Z 10032526 f   MStL_D32:MStL_D32.dll
 0001:0003152c       ?ShowCurveStaticLoad@CSLDCur@@QAEHPAVCDrCurve@@PAVCString@@@Z 1003252c f   MStL_D32:MStL_D32.dll
 0001:00031532       ?Get_Values_NonIso_Cur@CSLDCur@@QAEHW4STALPROC@@@Z 10032532 f   MStL_D32:MStL_D32.dll
 0001:00031538       ?Generate_IsoCurveControls@CSLDCur@@QAEHPAVCDrCurve@@HPAVCString@@H@Z 10032538 f   MStL_D32:MStL_D32.dll
 0001:0003153e       ?Get_Values_Iso_Cur@CSLDCur@@QAEHPAVCDrCurve@@W4STALPROC@@HH@Z 1003253e f   MStL_D32:MStL_D32.dll
 0001:00031544       ?ShowInfo_CurveStaticLoad@CSLDCur@@QAEHPAVCDrCurve@@PADHAAVCString@@@Z 10032544 f   MStL_D32:MStL_D32.dll
 0001:0003154a       ?ShowPatchStaticLoad@CSLDPat@@QAEHPAVCDrPatch@@PAVCString@@@Z 1003254a f   MStL_D32:MStL_D32.dll
 0001:00031550       ?Get_Values_NonIso_Pat@CSLDPat@@QAEHW4STALPROC@@@Z 10032550 f   MStL_D32:MStL_D32.dll
 0001:00031556       ?Generate_IsoPatchControls@CSLDPat@@QAEHPAVCDrPatch@@PAVCString@@H@Z 10032556 f   MStL_D32:MStL_D32.dll
 0001:0003155c       ?Get_Values_Iso_Pat@CSLDPat@@QAEHPAVCDrPatch@@W4STALPROC@@AAVCString@@@Z 1003255c f   MStL_D32:MStL_D32.dll
 0001:00031562       ?ShowInfo_PatchStaticLoad@CSLDPat@@QAEHPAVCDrPatch@@PADHAAVCString@@@Z 10032562 f   MStL_D32:MStL_D32.dll
 0001:00031568       ?IsObjectHit@CMouse@@IAEHHUtagPOINT@@H@Z 10032568 f   MMgr_D32:MMgr_D32.dll
 0001:0003156e       ?WORtoWOP@CMouse@@QAEXPAN0@Z 1003256e f   MMgr_D32:MMgr_D32.dll
 0001:00031574       ?classCMouse@CMouse@@2UCRuntimeClass@@A 10032574 f   MMgr_D32:MMgr_D32.dll
 0001:0003157a       ??1CMouse@@UAE@XZ          1003257a f   MMgr_D32:MMgr_D32.dll
 0001:00031580       ??0CMouse@@QAE@XZ          10032580 f   MMgr_D32:MMgr_D32.dll
 0001:00031586       ?WORtoWOP@CMouse@@QAEXPAUWORLD@@0@Z 10032586 f   MMgr_D32:MMgr_D32.dll
 0001:0003158c       ?LOGtoWIC@CMouse@@IAEXPAULPOINT3@@PAULPOINT@@@Z 1003258c f   MMgr_D32:MMgr_D32.dll
 0001:00031592       ?SetMouseWIC@CMouse@@QAEXULPOINT3@@@Z 10032592 f   MMgr_D32:MMgr_D32.dll
 0001:00031598       ?SetMouseOldWIC@CMouse@@QAEXULPOINT3@@@Z 10032598 f   MMgr_D32:MMgr_D32.dll
 0001:0003159e       ?WICtoLOG@CMouse@@IAEXPAULPOINT3@@PAULPOINT@@@Z 1003259e f   MMgr_D32:MMgr_D32.dll
 0001:000315a4       ?WICtoWOP@CMouse@@QAEXJPAN@Z 100325a4 f   MMgr_D32:MMgr_D32.dll
 0001:000315aa       ?SetStatusMouseWIC@CMouseMgr@@QAEXULPOINT3@@@Z 100325aa f   MMgr_D32:MMgr_D32.dll
 0001:000315b0       ?Serialize@CMouse@@UAEXAAVCArchive@@@Z 100325b0 f   MMgr_D32:MMgr_D32.dll
 0001:000315b6       ??1CRegenNod@@UAE@XZ       100325b6 f   CMgr_D32:CMgr_D32.dll
 0001:000315bc       ??1CRegenCur@@UAE@XZ       100325bc f   CMgr_D32:CMgr_D32.dll
 0001:000315c2       ??1CRegenPat@@UAE@XZ       100325c2 f   CMgr_D32:CMgr_D32.dll
 0001:000315c8       ??1CRegenSol@@UAE@XZ       100325c8 f   CMgr_D32:CMgr_D32.dll
 0001:000315ce       ?UpdateSolids@CRegenSol@@QAEHPAVCDrNode@@@Z 100325ce f   CMgr_D32:CMgr_D32.dll
 0001:000315d4       ??0CRegenSol@@QAE@XZ       100325d4 f   CMgr_D32:CMgr_D32.dll
 0001:000315da       ?UpdatePatches@CRegenPat@@QAEHPAVCDrNode@@@Z 100325da f   CMgr_D32:CMgr_D32.dll
 0001:000315e0       ??0CRegenPat@@QAE@XZ       100325e0 f   CMgr_D32:CMgr_D32.dll
 0001:000315e6       ?UpdateCurves@CRegenCur@@QAEHPAVCDrNode@@@Z 100325e6 f   CMgr_D32:CMgr_D32.dll
 0001:000315ec       ??0CRegenCur@@QAE@XZ       100325ec f   CMgr_D32:CMgr_D32.dll
 0001:000315f2       ?UpdateNode@CRegenNod@@QAEHPAVCDrNode@@@Z 100325f2 f   CMgr_D32:CMgr_D32.dll
 0001:000315f8       ??0CRegenNod@@QAE@XZ       100325f8 f   CMgr_D32:CMgr_D32.dll
 0001:000315fe       ??1CNodCreOp@@UAE@XZ       100325fe f   CMgr_D32:CMgr_D32.dll
 0001:00031604       ?ShowNodeToSpawn@CNodCreOp@@QAEHPAVCDrNode@@H@Z 10032604 f   CMgr_D32:CMgr_D32.dll
 0001:0003160a       ??0CNodCreOp@@QAE@XZ       1003260a f   CMgr_D32:CMgr_D32.dll
 0001:00031610       ?SetUpLocalM_XLATE@CNodCreOp@@QAEXXZ 10032610 f   CMgr_D32:CMgr_D32.dll
 0001:00031616       ??1CDialog@@UAE@XZ         10032616 f   mfc42d:MFC42D.DLL
 0001:0003161c       ??1CString@@QAE@XZ         1003261c f   mfc42d:MFC42D.DLL
 0001:00031622       ?Dump@CObject@@UBEXAAVCDumpContext@@@Z 10032622 f   mfc42d:MFC42D.DLL
 0001:00031628       ?AssertValid@CObject@@UBEXXZ 10032628 f   mfc42d:MFC42D.DLL
 0001:0003162e       ??1CObject@@UAE@XZ         1003262e f   mfc42d:MFC42D.DLL
 0001:00031634       ??3CObject@@SGXPAX@Z       10032634 f   mfc42d:MFC42D.DLL
 0001:0003163a       ??3@YAXPAX@Z               1003263a f   mfc42d:MFC42D.DLL
 0001:00031640       ??0CString@@QAE@ABV0@@Z    10032640 f   mfc42d:MFC42D.DLL
 0001:00031646       ??4CString@@QAEABV0@ABV0@@Z 10032646 f   mfc42d:MFC42D.DLL
 0001:0003164c       ?Serialize@CObject@@UAEXAAVCArchive@@@Z 1003264c f   mfc42d:MFC42D.DLL
 0001:00031652       ??2@YAPAXI@Z               10032652 f   mfc42d:MFC42D.DLL
 0001:00031658       ??1CPen@@UAE@XZ            10032658 f   mfc42d:MFC42D.DLL
 0001:0003165e       ??3CObject@@SGXPAXPBDH@Z   1003265e f   mfc42d:MFC42D.DLL
 0001:00031664       ??2CObject@@SGPAXIPBDH@Z   10032664 f   mfc42d:MFC42D.DLL
 0001:0003166a       ?AfxClassInit@@YGXPAUCRuntimeClass@@@Z 1003266a f   mfc42d:MFC42D.DLL
 0001:00031670       ?ReadObject@CArchive@@QAEPAVCObject@@PBUCRuntimeClass@@@Z 10032670 f   mfc42d:MFC42D.DLL
 0001:00031676       ?AfxGetApp@@YGPAVCWinApp@@XZ 10032676 f   mfc42d:MFC42D.DLL
 0001:0003167c       ??3@YAXPAXPBDH@Z           1003267c f   mfc42d:MFC42D.DLL
 0001:00031682       ?AfxMessageBox@@YGHPBDII@Z 10032682 f   mfc42d:MFC42D.DLL
 0001:00031688       ??BCString@@QBEPBDXZ       10032688 f   mfc42d:MFC42D.DLL
 0001:0003168e       ?GetBuffer@CString@@QAEPADH@Z 1003268e f   mfc42d:MFC42D.DLL
 0001:00031694       ??0CString@@QAE@XZ         10032694 f   mfc42d:MFC42D.DLL
 0001:0003169a       ??2@YAPAXIPBDH@Z           1003269a f   mfc42d:MFC42D.DLL
 0001:000316a0       ?GetCount@CObList@@QBEHXZ  100326a0 f   mfc42d:MFC42D.DLL
 0001:000316a6       ?DPtoLP@CDC@@QBEXPAUtagPOINT@@H@Z 100326a6 f   mfc42d:MFC42D.DLL
 0001:000316ac       ?AfxGetMainWnd@@YGPAVCWnd@@XZ 100326ac f   mfc42d:MFC42D.DLL
 0001:000316b2       ??0CPoint@@QAE@UtagPOINT@@@Z 100326b2 f   mfc42d:MFC42D.DLL
 0001:000316b8       ?LPtoDP@CDC@@QBEXPAUtagPOINT@@H@Z 100326b8 f   mfc42d:MFC42D.DLL
 0001:000316be       ?GetHeadPosition@CObList@@QBEPAU__POSITION@@XZ 100326be f   mfc42d:MFC42D.DLL
 0001:000316c4       ??0CString@@QAE@PBD@Z      100326c4 f   mfc42d:MFC42D.DLL
 0001:000316ca       ??YCString@@QAEABV0@PBD@Z  100326ca f   mfc42d:MFC42D.DLL
 0001:000316d0       ??4CString@@QAEABV0@PBD@Z  100326d0 f   mfc42d:MFC42D.DLL
 0001:000316d6       ?AfxTrace@@YAXPBDZZ        100326d6 f   mfc42d:MFC42D.DLL
 0001:000316dc       ?IsStoring@CArchive@@QBEHXZ 100326dc f   mfc42d:MFC42D.DLL
 0001:000316e2       ?AfxAssertFailedLine@@YGHPBDH@Z 100326e2 f   mfc42d:MFC42D.DLL
 0001:000316e8       ?AfxIsValidAddress@@YGHPBXIH@Z 100326e8 f   mfc42d:MFC42D.DLL
 0001:000316ee       ?GetRuntimeClass@CObject@@UBEPAUCRuntimeClass@@XZ 100326ee f   mfc42d:MFC42D.DLL
 0001:000316f4       ?ReadCount@CArchive@@QAEKXZ 100326f4 f   mfc42d:MFC42D.DLL
 0001:000316fa       ?WriteCount@CArchive@@QAEXK@Z 100326fa f   mfc42d:MFC42D.DLL
 0001:00031700       ?AfxAssertValidObject@@YGXPBVCObject@@PBDH@Z 10032700 f   mfc42d:MFC42D.DLL
 0001:00031706       ?GetDepth@CDumpContext@@QBEHXZ 10032706 f   mfc42d:MFC42D.DLL
 0001:0003170c       ??6CDumpContext@@QAEAAV0@H@Z 1003270c f   mfc42d:MFC42D.DLL
 0001:00031712       ??6CDumpContext@@QAEAAV0@PBD@Z 10032712 f   mfc42d:MFC42D.DLL
 0001:00031718       ?FreeDataChain@CPlex@@QAEXXZ 10032718 f   mfc42d:MFC42D.DLL
 0001:0003171e       ?Read@CArchive@@QAEIPAXI@Z 1003271e f   mfc42d:MFC42D.DLL
 0001:00031724       ?Write@CArchive@@QAEXPBXI@Z 10032724 f   mfc42d:MFC42D.DLL
 0001:0003172a       ?Create@CPlex@@SGPAU1@AAPAU1@II@Z 1003272a f   mfc42d:MFC42D.DLL
 0001:00031730       ??1CButton@@UAE@XZ         10032730 f   mfc42d:MFC42D.DLL
 0001:00031736       ??1CBitmap@@UAE@XZ         10032736 f   mfc42d:MFC42D.DLL
 0001:0003173c       ?PreInitDialog@CDialog@@MAEXXZ 1003273c f   mfc42d:MFC42D.DLL
 0001:00031742       ?OnSetFont@CDialog@@UAEXPAVCFont@@@Z 10032742 f   mfc42d:MFC42D.DLL
 0001:00031748       ?DoModal@CDialog@@UAEHXZ   10032748 f   mfc42d:MFC42D.DLL
 0001:0003174e       ?SetOccDialogInfo@CDialog@@MAEHPAU_AFX_OCC_DIALOG_INFO@@@Z 1003274e f   mfc42d:MFC42D.DLL
 0001:00031754       ?IsFrameWnd@CWnd@@UBEHXZ   10032754 f   mfc42d:MFC42D.DLL
 0001:0003175a       ?CheckAutoCenter@CDialog@@UAEHXZ 1003275a f   mfc42d:MFC42D.DLL
 0001:00031760       ?OnChildNotify@CWnd@@MAEHIIJPAJ@Z 10032760 f   mfc42d:MFC42D.DLL
 0001:00031766       ?PostNcDestroy@CWnd@@MAEXXZ 10032766 f   mfc42d:MFC42D.DLL
 0001:0003176c       ?DefWindowProcA@CWnd@@MAEJIIJ@Z 1003276c f   mfc42d:MFC42D.DLL
 0001:00031772       ?OnWndMsg@CWnd@@MAEHIIJPAJ@Z 10032772 f   mfc42d:MFC42D.DLL
 0001:00031778       ?WindowProc@CWnd@@MAEJIIJ@Z 10032778 f   mfc42d:MFC42D.DLL
 0001:0003177e       ?OnAmbientProperty@CWnd@@UAEHPAVCOleControlSite@@JPAUtagVARIANT@@@Z 1003277e f   mfc42d:MFC42D.DLL
 0001:00031784       ?PreTranslateMessage@CDialog@@UAEHPAUtagMSG@@@Z 10032784 f   mfc42d:MFC42D.DLL
 0001:0003178a       ?EndModalState@CWnd@@UAEXXZ 1003278a f   mfc42d:MFC42D.DLL
 0001:00031790       ?BeginModalState@CWnd@@UAEXXZ 10032790 f   mfc42d:MFC42D.DLL
 0001:00031796       ?GetSuperWndProcAddr@CWnd@@MAEPAP6GJPAUHWND__@@IIJ@ZXZ 10032796 f   mfc42d:MFC42D.DLL
 0001:0003179c       ?OnNotify@CWnd@@MAEHIJPAJ@Z 1003279c f   mfc42d:MFC42D.DLL
 0001:000317a2       ?OnCommand@CWnd@@MAEHIJ@Z  100327a2 f   mfc42d:MFC42D.DLL
 0001:000317a8       ?EndModalLoop@CWnd@@UAEXH@Z 100327a8 f   mfc42d:MFC42D.DLL
 0001:000317ae       ?ContinueModal@CWnd@@UAEHXZ 100327ae f   mfc42d:MFC42D.DLL
 0001:000317b4       ?WinHelpA@CWnd@@UAEXKI@Z   100327b4 f   mfc42d:MFC42D.DLL
 0001:000317ba       ?GetScrollBarCtrl@CWnd@@UBEPAVCScrollBar@@H@Z 100327ba f   mfc42d:MFC42D.DLL
 0001:000317c0       ?OnToolHitTest@CWnd@@UBEHVCPoint@@PAUtagTOOLINFOA@@@Z 100327c0 f   mfc42d:MFC42D.DLL
 0001:000317c6       ?CalcWindowRect@CWnd@@UAEXPAUtagRECT@@I@Z 100327c6 f   mfc42d:MFC42D.DLL
 0001:000317cc       ?PreCreateWindow@CWnd@@UAEHAAUtagCREATESTRUCTA@@@Z 100327cc f   mfc42d:MFC42D.DLL
 0001:000317d2       ?DestroyWindow@CWnd@@UAEHXZ 100327d2 f   mfc42d:MFC42D.DLL
 0001:000317d8       ?Create@CWnd@@UAEHPBD0KABUtagRECT@@PAV1@IPAUCCreateContext@@@Z 100327d8 f   mfc42d:MFC42D.DLL
 0001:000317de       ?PreSubclassWindow@CWnd@@UAEXXZ 100327de f   mfc42d:MFC42D.DLL
 0001:000317e4       ?GetConnectionHook@CCmdTarget@@MAEPAUIConnectionPoint@@ABU_GUID@@@Z 100327e4 f   mfc42d:MFC42D.DLL
 0001:000317ea       ?GetExtraConnectionPoints@CCmdTarget@@MAEHPAVCPtrArray@@@Z 100327ea f   mfc42d:MFC42D.DLL
 0001:000317f0       ?GetInterfaceHook@CCmdTarget@@UAEPAUIUnknown@@PBX@Z 100327f0 f   mfc42d:MFC42D.DLL
 0001:000317f6       ?OnCreateAggregates@CCmdTarget@@UAEHXZ 100327f6 f   mfc42d:MFC42D.DLL
 0001:000317fc       ?GetEventSinkMap@CCmdTarget@@MBEPBUAFX_EVENTSINKMAP@@XZ 100327fc f   mfc42d:MFC42D.DLL
 0001:00031802       ?GetInterfaceMap@CCmdTarget@@MBEPBUAFX_INTERFACEMAP@@XZ 10032802 f   mfc42d:MFC42D.DLL
 0001:00031808       ?GetConnectionMap@CCmdTarget@@MBEPBUAFX_CONNECTIONMAP@@XZ 10032808 f   mfc42d:MFC42D.DLL
 0001:0003180e       ?GetDispatchMap@CCmdTarget@@MBEPBUAFX_DISPMAP@@XZ 1003280e f   mfc42d:MFC42D.DLL
 0001:00031814       ?GetCommandMap@CCmdTarget@@MBEPBUAFX_OLECMDMAP@@XZ 10032814 f   mfc42d:MFC42D.DLL
 0001:0003181a       ?GetTypeLib@CCmdTarget@@UAEJKPAPAUITypeLib@@@Z 1003281a f   mfc42d:MFC42D.DLL
 0001:00031820       ?GetTypeLibCache@CCmdTarget@@UAEPAVCTypeLibCache@@XZ 10032820 f   mfc42d:MFC42D.DLL
 0001:00031826       ?GetTypeInfoCount@CCmdTarget@@UAEIXZ 10032826 f   mfc42d:MFC42D.DLL
 0001:0003182c       ?GetDispatchIID@CCmdTarget@@UAEHPAU_GUID@@@Z 1003282c f   mfc42d:MFC42D.DLL
 0001:00031832       ?IsInvokeAllowed@CCmdTarget@@UAEHJ@Z 10032832 f   mfc42d:MFC42D.DLL
 0001:00031838       ?OnFinalRelease@CWnd@@UAEXXZ 10032838 f   mfc42d:MFC42D.DLL
 0001:0003183e       ?OnCmdMsg@CDialog@@UAEHIHPAXPAUAFX_CMDHANDLERINFO@@@Z 1003283e f   mfc42d:MFC42D.DLL
 0001:00031844       ?Dump@CDialog@@UBEXAAVCDumpContext@@@Z 10032844 f   mfc42d:MFC42D.DLL
 0001:0003184a       ?AssertValid@CDialog@@UBEXXZ 1003284a f   mfc42d:MFC42D.DLL
 0001:00031850       ?GetRuntimeClass@CDialog@@UBEPAUCRuntimeClass@@XZ 10032850 f   mfc42d:MFC42D.DLL
 0001:00031856       ?LoadBitmaps@CBitmapButton@@QAEHPBD000@Z 10032856 f   mfc42d:MFC42D.DLL
 0001:0003185c       ??0CBitmapButton@@QAE@XZ   1003285c f   mfc42d:MFC42D.DLL
 0001:00031862       ??0CDialog@@QAE@IPAVCWnd@@@Z 10032862 f   mfc42d:MFC42D.DLL
 0001:00031868       ?DDX_Text@@YGXPAVCDataExchange@@HAAN@Z 10032868 f   mfc42d:MFC42D.DLL
 0001:0003186e       ?DDX_CBString@@YGXPAVCDataExchange@@HAAVCString@@@Z 1003286e f   mfc42d:MFC42D.DLL
 0001:00031874       ?DDX_Text@@YGXPAVCDataExchange@@HAAVCString@@@Z 10032874 f   mfc42d:MFC42D.DLL
 0001:0003187a       ?DoDataExchange@CWnd@@MAEXPAVCDataExchange@@@Z 1003287a f   mfc42d:MFC42D.DLL
 0001:00031880       ?UpdateData@CWnd@@QAEHH@Z  10032880 f   mfc42d:MFC42D.DLL
 0001:00031886       ?SetWindowTextA@CWnd@@QAEXPBD@Z 10032886 f   mfc42d:MFC42D.DLL
 0001:0003188c       ?SetCheck@CButton@@QAEXH@Z 1003288c f   mfc42d:MFC42D.DLL
 0001:00031892       ?GetDlgItem@CWnd@@QBEPAV1@H@Z 10032892 f   mfc42d:MFC42D.DLL
 0001:00031898       ?SizeToContent@CBitmapButton@@QAEXXZ 10032898 f   mfc42d:MFC42D.DLL
 0001:0003189e       ?SubclassDlgItem@CWnd@@QAEHIPAV1@@Z 1003289e f   mfc42d:MFC42D.DLL
 0001:000318a4       ?OnInitDialog@CDialog@@UAEHXZ 100328a4 f   mfc42d:MFC42D.DLL
 0001:000318aa       ?SetCurSel@CComboBox@@QAEHH@Z 100328aa f   mfc42d:MFC42D.DLL
 0001:000318b0       ?EnableWindow@CWnd@@QAEHH@Z 100328b0 f   mfc42d:MFC42D.DLL
 0001:000318b6       ?SetCurSel@CListBox@@QAEHH@Z 100328b6 f   mfc42d:MFC42D.DLL
 0001:000318bc       ?FindStringExact@CListBox@@QBEHHPBD@Z 100328bc f   mfc42d:MFC42D.DLL
 0001:000318c2       ?OnCancel@CDialog@@MAEXXZ  100328c2 f   mfc42d:MFC42D.DLL
 0001:000318c8       ??8@YG_NABVCString@@PBD@Z  100328c8 f   mfc42d:MFC42D.DLL
 0001:000318ce       ?Left@CString@@QBE?AV1@H@Z 100328ce f   mfc42d:MFC42D.DLL
 0001:000318d4       ?GetLength@CString@@QBEHXZ 100328d4 f   mfc42d:MFC42D.DLL
 0001:000318da       ?TrimLeft@CString@@QAEXXZ  100328da f   mfc42d:MFC42D.DLL
 0001:000318e0       ?SetFocus@CWnd@@QAEPAV1@XZ 100328e0 f   mfc42d:MFC42D.DLL
 0001:000318e6       ??8@YG_NABVCString@@0@Z    100328e6 f   mfc42d:MFC42D.DLL
 0001:000318ec       ?OnOK@CDialog@@MAEXXZ      100328ec f   mfc42d:MFC42D.DLL
 0001:000318f2       ?GetText@CListBox@@QBEXHAAVCString@@@Z 100328f2 f   mfc42d:MFC42D.DLL
 0001:000318f8       ?GetCurSel@CListBox@@QBEHXZ 100328f8 f   mfc42d:MFC42D.DLL
 0001:000318fe       ?FindStringExact@CComboBox@@QBEHHPBD@Z 100328fe f   mfc42d:MFC42D.DLL
 0001:00031904       ?AddString@CListBox@@QAEHPBD@Z 10032904 f   mfc42d:MFC42D.DLL
 0001:0003190a       ?AddString@CComboBox@@QAEHPBD@Z 1003290a f   mfc42d:MFC42D.DLL
 0001:00031910       ?ResetContent@CComboBox@@QAEXXZ 10032910 f   mfc42d:MFC42D.DLL
 0001:00031916       ?DeleteString@CListBox@@QAEHI@Z 10032916 f   mfc42d:MFC42D.DLL
 0001:0003191c       ?GetCount@CListBox@@QBEHXZ 1003291c f   mfc42d:MFC42D.DLL
 0001:00031922       ?AddTail@CObList@@QAEPAU__POSITION@@PAVCObject@@@Z 10032922 f   mfc42d:MFC42D.DLL
 0001:00031928       ?OnHelpInfo@CWnd@@IAEHPAUtagHELPINFO@@@Z 10032928 f   mfc42d:MFC42D.DLL
 0001:0003192e       ??9@YG_NABVCString@@0@Z    1003292e f   mfc42d:MFC42D.DLL
 0001:00031934       ??2CObject@@SGPAXI@Z       10032934 f   mfc42d:MFC42D.DLL
 0001:0003193a       ??0CObject@@IAE@XZ         1003293a f   mfc42d:MFC42D.DLL
 0001:00031940       ?AfxSetResourceHandle@@YGXPAUHINSTANCE__@@@Z 10032940 f   mfc42d:MFC42D.DLL
 0001:00031946       ?AfxGetResourceHandle@@YGPAUHINSTANCE__@@XZ 10032946 f   mfc42d:MFC42D.DLL
 0001:0003194c       ?LoadStringA@CString@@QAEHI@Z 1003294c f   mfc42d:MFC42D.DLL
 0001:00031952       ?LoadCursorA@CWinApp@@QBEPAUHICON__@@I@Z 10032952 f   mfc42d:MFC42D.DLL
 0001:00031958       ?LoadStandardCursor@CWinApp@@QBEPAUHICON__@@PBD@Z 10032958 f   mfc42d:MFC42D.DLL
 0001:0003195e       ?AfxGetModuleState@@YGPAVAFX_MODULE_STATE@@XZ 1003295e f   mfc42d:MFC42D.DLL
 0001:00031964       ??0CDynLinkLibrary@@QAE@AAUAFX_EXTENSION_MODULE@@H@Z 10032964 f   mfc42d:MFC42D.DLL
 0001:0003196a       ?AfxInitExtensionModule@@YGHAAUAFX_EXTENSION_MODULE@@PAUHINSTANCE__@@@Z 1003296a f   mfc42d:MFC42D.DLL
 0001:00031970       ?UpdateAllViews@CDocument@@QAEXPAVCView@@JPAVCObject@@@Z 10032970 f   mfc42d:MFC42D.DLL
 0001:00031976       ??H@YG?AVCString@@ABV0@PBD@Z 10032976 f   mfc42d:MFC42D.DLL
 0001:0003197c       ??H@YG?AVCString@@PBDABV0@@Z 1003297c f   mfc42d:MFC42D.DLL
 0001:00031982       ?UpdateWindow@CWnd@@QAEXXZ 10032982 f   mfc42d:MFC42D.DLL
 0001:00031988       ?Invalidate@CWnd@@QAEXH@Z  10032988 f   mfc42d:MFC42D.DLL
 0001:0003198e       ?ClientToScreen@CWnd@@QBEXPAUtagPOINT@@@Z 1003298e f   mfc42d:MFC42D.DLL
 0001:00031994       ?SetCapture@CWnd@@QAEPAV1@XZ 10032994 f   mfc42d:MFC42D.DLL
 0001:0003199a       ?DeleteObject@CGdiObject@@QAEHXZ 1003299a f   mfc42d:MFC42D.DLL
 0001:000319a0       ?LineTo@CDC@@QAEHUtagPOINT@@@Z 100329a0 f   mfc42d:MFC42D.DLL
 0001:000319a6       ?MoveTo@CDC@@QAE?AVCPoint@@UtagPOINT@@@Z 100329a6 f   mfc42d:MFC42D.DLL
 0001:000319ac       ?SetROP2@CDC@@QAEHH@Z      100329ac f   mfc42d:MFC42D.DLL
 0001:000319b2       ?SelectObject@CDC@@QAEPAVCPen@@PAV2@@Z 100329b2 f   mfc42d:MFC42D.DLL
 0001:000319b8       ?CreatePen@CPen@@QAEHHHK@Z 100329b8 f   mfc42d:MFC42D.DLL
 0001:000319be       ?SetBkMode@CDC@@QAEHH@Z    100329be f   mfc42d:MFC42D.DLL
 0001:000319c4       ??0CPen@@QAE@XZ            100329c4 f   mfc42d:MFC42D.DLL
 0001:000319ca       ??5CArchive@@QAEAAV0@AAG@Z 100329ca f   mfc42d:MFC42D.DLL
 0001:000319d0       ??5CArchive@@QAEAAV0@AAE@Z 100329d0 f   mfc42d:MFC42D.DLL
 0001:000319d6       ??6CArchive@@QAEAAV0@G@Z   100329d6 f   mfc42d:MFC42D.DLL
 0001:000319dc       ??6CArchive@@QAEAAV0@E@Z   100329dc f   mfc42d:MFC42D.DLL
 0001:000319e2       ?IsEmpty@CObList@@QBEHXZ   100329e2 f   mfc42d:MFC42D.DLL
 0001:000319e8       ??YCString@@QAEABV0@ABV0@@Z 100329e8 f   mfc42d:MFC42D.DLL
 0001:000319ee       ?GetHead@CObList@@QAEAAPAVCObject@@XZ 100329ee f   mfc42d:MFC42D.DLL
 0001:000319f4       ?GetTail@CObList@@QAEAAPAVCObject@@XZ 100329f4 f   mfc42d:MFC42D.DLL
 0001:000319fa       ??9@YG_NABVCString@@PBD@Z  100329fa f   mfc42d:MFC42D.DLL
 0001:00031a00       ___CxxFrameHandler         10032a00 f   msvcrtd:MSVCRTD.dll
 0001:00031a06       _sqrt                      10032a06 f   msvcrtd:MSVCRTD.dll
 0001:00031a10       ??0type_info@@AAE@ABV0@@Z  10032a10 f   msvcrtd:ti_inst.obj
 0001:00031a30       ??_Etype_info@@UAEPAXI@Z   10032a30 f i msvcrtd:ti_inst.obj
 0001:00031a30       ??_Gtype_info@@UAEPAXI@Z   10032a30 f i msvcrtd:ti_inst.obj
 0001:00031a60       ??4type_info@@AAEAAV0@ABV0@@Z 10032a60 f   msvcrtd:ti_inst.obj
 0001:00031a70       ??_M@YGXPAXIHP6EX0@Z@Z     10032a70 f   msvcrtd:ehvecdtr.obj
 0001:00031b20       ?__ArrayUnwind@@YGXPAXIHP6EX0@Z@Z 10032b20 f   msvcrtd:ehvecdtr.obj
 0001:00031bcc       _sprintf                   10032bcc f   msvcrtd:MSVCRTD.dll
 0001:00031bd2       _memset                    10032bd2 f   msvcrtd:MSVCRTD.dll
 0001:00031bd8       _atof                      10032bd8 f   msvcrtd:MSVCRTD.dll
 0001:00031bde       __ftol                     10032bde f   msvcrtd:MSVCRTD.dll
 0001:00031bf0       __CRT_INIT@12              10032bf0 f   msvcrtd:crtdll.obj
 0001:00031d00       __DllMainCRTStartup@12     10032d00 f   msvcrtd:crtdll.obj
 0001:00031df4       ??1type_info@@UAE@XZ       10032df4 f   msvcrtd:MSVCRTD.dll
 0001:00031dfa       __except_handler3          10032dfa f   msvcrtd:MSVCRTD.dll
 0001:00031e00       ?terminate@@YAXXZ          10032e00 f   msvcrtd:MSVCRTD.dll
 0001:00031e06       __free_dbg                 10032e06 f   msvcrtd:MSVCRTD.dll
 0001:00031e0c       __initterm                 10032e0c f   msvcrtd:MSVCRTD.dll
 0001:00031e20       __onexit                   10032e20 f   msvcrtd:atonexit.obj
 0001:00031e60       _atexit                    10032e60 f   msvcrtd:atonexit.obj
 0001:00031e78       __malloc_dbg               10032e78 f   msvcrtd:MSVCRTD.dll
 0001:00031e7e       ___dllonexit               10032e7e f   msvcrtd:MSVCRTD.dll
 0001:00031e84       _MessageBeep@4             10032e84 f   user32:USER32.dll
 0001:00031e8a       _DestroyCursor@4           10032e8a f   user32:USER32.dll
 0001:00031e90       _SetCursor@4               10032e90 f   user32:USER32.dll
 0001:00031e96       _ReleaseCapture@0          10032e96 f   user32:USER32.dll
 0001:00031e9c       _SetCursorPos@8            10032e9c f   user32:USER32.dll
 0001:00032a10       ?data@CPlex@@QAEPAXXZ      10033a10 f i CurEdit.obj
 0001:00036a90       __enc$textbss$begin        10037a90     <linker-defined>
 0001:000a3b90       __enc$textbss$end          100a4b90     <linker-defined>
 0002:0000001c       ??_C@_08EMHB@CCurEdit?$AA@ 100a501c     CurEdit.obj
 0002:0000002c       ??_7C3DMath@@6B@           100a502c     CurEdit.obj
 0002:00000048       ??_7CMatObj@@6B@           100a5048     CurEdit.obj
 0002:00000154       ??_7CDrLabel@@6B@          100a5154     CurEdit.obj
 0002:00000344       ??_7CTriangle@@6B@         100a5344     CurEdit.obj
 0002:000003e0       ??_7CBooleans@@6B@         100a53e0     CurEdit.obj
 0002:00000698       ??_7CDataWindow@@6B@       100a5698     CurEdit.obj
 0002:00000858       ??_7CDrFont@@6B@           100a5858     CurEdit.obj
 0002:00000a18       ??_7CDrPen@@6B@            100a5a18     CurEdit.obj
 0002:00000c4c       ??_7CHitNet@@6B@           100a5c4c     CurEdit.obj
 0002:00000de4       ??_7CLayer@@6B@            100a5de4     CurEdit.obj
 0002:00000fc8       ??_7CPatchMnu@@6B@         100a5fc8     CurEdit.obj
 0002:000011cc       ??_7CObj3DMnu@@6B@         100a61cc     CurEdit.obj
 0002:000013d0       ??_7CMapFactor@@6B@        100a63d0     CurEdit.obj
 0002:00001584       ??_7CPrecision@@6B@        100a6584     CurEdit.obj
 0002:00001760       ??_7CScaleFactor@@6B@      100a6760     CurEdit.obj
 0002:00001920       ??_7CUnit@@6B@             100a6920     CurEdit.obj
 0002:00001aec       ??_7CElemInfo@@6B@         100a6aec     CurEdit.obj
 0002:00001c94       ??_7CCurEdit@@6B@          100a6c94     CurEdit.obj
 0002:00001cac       ??_C@_0BG@HNLH@making?5up?5the?5Curve?5?6?$AA@ 100a6cac     CurEdit.obj
 0002:00001cc8       ??_C@_0CH@GOBH@modifying?5a?5Curve?5by?5editng?5the?5@ 100a6cc8     CurEdit.obj
 0002:00001cf8       ??_C@_0CB@MNHD@However?0?5you?5have?5the?5option?5of?6@ 100a6cf8     CurEdit.obj
 0002:00001d20       ??_C@_0CE@INAF@You?5may?5delete?5and?5rebuild?5a?5Cur@ 100a6d20     CurEdit.obj
 0002:00001d4c       ??_C@_0CF@DFCB@?6?6Curves?5can?5not?5be?5edited?5direc@ 100a6d4c     CurEdit.obj
 0002:00001d78       ??_C@_0BI@BEMN@?$CK?$CK?$CK?$CK?$CK?5Please?5Note?5?$CK?$CK?$CK?$CK?6?$AA@ 100a6d78     CurEdit.obj
 0002:00001d94       ??_C@_0DF@GEBF@ERROR?3?6CCurEdit?3?3LeftUp_Node?6Sho@ 100a6d94     CurEdit.obj
 0002:00001dd4       ??_C@_0CD@NDGH@?6CANCEL?3?7?7Cancel?5Selection?5Proce@ 100a6dd4     CurEdit.obj
 0002:00001e00       ??_C@_0CO@IKCN@?6NO?3?7?7Find?5Next?5Curve?5with?5Inter@ 100a6e00     CurEdit.obj
 0002:00001e38       ??_C@_0BH@IAEJ@?6YES?3?7?7Edit?5This?5Curve?$AA@ 100a6e38     CurEdit.obj
 0002:00001e54       ??_C@_01FAJB@?$DL?$AA@     100a6e54     CurEdit.obj
 0002:00001e58       ??_C@_04GCDK@?$CFs?0?5?$AA@ 100a6e58     CurEdit.obj
 0002:00001e60       ??_C@_07FKCA@Nodes?3?6?$AA@ 100a6e60     CurEdit.obj
 0002:00001e6c       ??_C@_0DB@EPIA@Curve?5?$CFs?5contains?3?6?7?$CFd?5Input?5Nod@ 100a6e6c     CurEdit.obj
 0002:00001ea8       ??_C@_0BB@FKHB@?7?$CFs?5is?5CNode_CB?6?$AA@ 100a6ea8     CurEdit.obj
 0002:00001ebc       ??_C@_0BB@GBIO@?7?$CFs?5is?5CNode_CA?6?$AA@ 100a6ebc     CurEdit.obj
 0002:00001ed0       ??_C@_0DE@HPFA@2?5Control?5Nodes?5on?5Tangents?5?$CG?6Ta@ 100a6ed0     CurEdit.obj
 0002:00001f10       ??_C@_0DP@OLB@Circle?5?$CFs?5contains?3?6?7?$CFd?5InPut?5No@ 100a6f10     CurEdit.obj
 0002:00001f5c       ??_C@_0BE@HBGA@?7?$CFs?5is?5Center?5Node?6?$AA@ 100a6f5c     CurEdit.obj
 0002:00001f74       ??_C@_0BG@EGFA@2?5End?5Nodes?5?$CG?5Center?6?$AA@ 100a6f74     CurEdit.obj
 0002:00001f90       ??_C@_0CC@HMDN@?7?$CFs?5is?5Tangent?5Intersection?5Node@ 100a6f90     CurEdit.obj
 0002:00001fb8       ??_C@_0CE@CCOB@2?5End?5Nodes?5?$CG?5Tangent?5Intersecti@ 100a6fb8     CurEdit.obj
 0002:00001fe4       ??_C@_0BE@BEPD@?7Arc?5upto?53rd?5Node?6?$AA@ 100a6fe4     CurEdit.obj
 0002:00001ffc       ??_C@_0DC@KEJB@Circle?5?$CFs?5contains?3?6?7?$CFd?5Input?5No@ 100a6ffc     CurEdit.obj
 0002:00002038       ??_C@_0BK@DFNO@?7?$CFf?5is?5Angle?5of?5Rotation?6?$AA@ 100a7038     CurEdit.obj
 0002:00002058       ??_C@_0BA@PJPF@?7Closed?5Circle?6?$AA@ 100a7058     CurEdit.obj
 0002:0000206c       ??_C@_0BL@JCCE@?7?$CFs?5and?5?$CFs?5are?5Axis?5Nodes?6?$AA@ 100a706c     CurEdit.obj
 0002:0000208c       ??_C@_0DK@NDNM@Circle?5?$CFs?5contains?3?6?7?$CFd?5InputNod@ 100a708c     CurEdit.obj
 0002:000020d4       ??_C@_0BI@OCBK@?$CK?$CK?$CK?$CK?$CK?5A?5Curve?5Hit?5?$CK?$CK?$CK?$CK?6?$AA@ 100a70d4     CurEdit.obj
 0002:000020f0       ??_C@_00A@?$AA@            100a70f0     CurEdit.obj
 0002:000020f4       ??_C@_0BB@NHJN@Click?5on?5a?5Curve?$AA@ 100a70f4     CurEdit.obj
 0002:00002108       ??_C@_05EKJA@CURVE?$AA@    100a7108     CurEdit.obj
 0002:00002110       ??_C@_07BEMM@ELEMENT?$AA@  100a7110     CurEdit.obj
 0002:0000211c       ??_C@_04IGNI@EDIT?$AA@     100a711c     CurEdit.obj
 0002:00002124       ??_C@_0BL@KKGI@Ready?5for?5Editing?5a?5Curve?$EA?$AA@ 100a7124     CurEdit.obj
 0002:00002144       ??_C@_0BG@IDD@?5CurEdit?3?5?5?5?5Loading?6?$AA@ 100a7144     CurEdit.obj
 0002:00002160       ??_C@_0BG@MPGF@?5CurEdit?3?5?5?5?5Storing?6?$AA@ 100a7160     CurEdit.obj
 0002:00002180       ??_7?$CList@HH@@6B@        100a7180     CurEdit.obj
 0002:00002198       ??_C@_01BJG@?6?$AA@        100a7198     CurEdit.obj
 0002:0000219c       ??_C@_05KIFI@with?5?$AA@   100a719c     CurEdit.obj
 0002:000021a4       ??_C@_09LOPF@?5elements?$AA@ 100a71a4     CurEdit.obj
 0002:000021b0       ??_C@_08JFBO@CDLDEdit?$AA@ 100a71b0     DLDEdit.obj
 0002:000021c0       ??_7CDLDEdit@@6B@          100a71c0     DLDEdit.obj
 0002:000021ec       ??_C@_0BG@HDGM@?5DLDEdit?3?5?5?5?5Loading?6?$AA@ 100a71ec     DLDEdit.obj
 0002:00002208       ??_C@_0BG@LEDK@?5DLDEdit?3?5?5?5?5Storing?6?$AA@ 100a7208     DLDEdit.obj
 0002:00002228       ?messageMap@CDlg_ENoA@@1UAFX_MSGMAP@@B 100a7228     dlg_enoA.obj
 0002:00002230       ?_messageEntries@CDlg_ENoA@@0QBUAFX_MSGMAP_ENTRY@@B 100a7230     dlg_enoA.obj
 0002:00002438       ??_C@_03IPNG@0?40?$AA@     100a7438     dlg_enoA.obj
 0002:0000243c       ??_C@_08OKPH@Image2Up?$AA@ 100a743c     dlg_enoA.obj
 0002:00002448       ??_C@_0L@KCBH@Image2Down?$AA@ 100a7448     dlg_enoA.obj
 0002:00002458       ??_C@_0M@DMDD@Image2Focus?$AA@ 100a7458     dlg_enoA.obj
 0002:00002468       ??_C@_08BMMM@Image1Up?$AA@ 100a7468     dlg_enoA.obj
 0002:00002474       ??_C@_0L@ECHI@Image1Down?$AA@ 100a7474     dlg_enoA.obj
 0002:00002484       ??_C@_0M@ICND@Image1Focus?$AA@ 100a7484     dlg_enoA.obj
 0002:00002498       ??_7CDlg_ENoA@@6B@         100a7498     dlg_enoA.obj
 0002:0000259c       ??_C@_0BA@JHOA@Node?5Properties?$AA@ 100a759c     dlg_enoA.obj
 0002:000025b0       ??_C@_0BB@IFAP@CNode?5Properties?$AA@ 100a75b0     dlg_enoA.obj
 0002:000025c4       ??_C@_01GJD@?9?$AA@        100a75c4     dlg_enoA.obj
 0002:000025c8       ??_C@_0DA@BMPO@For?5Distinct?5Node?5Entry?6?5Length?5@ 100a75c8     dlg_enoA.obj
 0002:00002608       __real@8@00000000000000000000 100a7608     dlg_enoA.obj
 0002:00002614       ??_C@_0CN@DGCI@Error?3?6CDlg_ENoA?3?3OnSelchangeCno@ 100a7614     dlg_enoA.obj
 0002:0000264c       ??_C@_0CM@FBLO@Error?3?6CDlg_ENoA?3?3UnitAxisFromEn@ 100a764c     dlg_enoA.obj
 0002:00002680       ??_C@_0CO@IFOL@Error?3?6CDlg_ENoA?3?3UnitAxisFromEn@ 100a7680     dlg_enoA.obj
 0002:000026b8       ??_C@_0CP@ELGK@Internal?5ERROR?3?6CDlg_ENoA?3?3OnOK?$CI@ 100a76b8     dlg_enoA.obj
 0002:000026f0       ??_C@_0CA@JIOB@No?5NodeID?$CB?$CB?6Please?5Select?5an?5ID?$AA@ 100a76f0     dlg_enoA.obj
 0002:00002718       ?messageMap@CDlg_ENod@@1UAFX_MSGMAP@@B 100a7718     dlg_ENod.obj
 0002:00002720       ?_messageEntries@CDlg_ENod@@0QBUAFX_MSGMAP_ENTRY@@B 100a7720     dlg_ENod.obj
 0002:000027f0       ??_7CDlg_ENod@@6B@         100a77f0     dlg_ENod.obj
 0002:000028f4       ??_C@_0CP@KJLD@Internal?5ERROR?3?6CDlg_ENod?3?3OnOK?$CI@ 100a78f4     dlg_ENod.obj
 0002:0000292c       ??_C@_0CO@DLLP@NodeID?5Already?5Exists?$CB?6Please?5Se@ 100a792c     dlg_ENod.obj
 0002:00002964       ??_C@_09CALG@CEditDlgM?$AA@ 100a7964     EditDlgM.obj
 0002:00002974       ??_7CEditDlgM@@6B@         100a7974     EditDlgM.obj
 0002:0000298c       ??_C@_0BG@LFDF@resource?5string?5?$DN?5?$CFs?6?$AA@ 100a798c     EditDlgM.obj
 0002:000029a8       ??_C@_0BE@HNIK@?5EditDlgM?7?3Loading?6?$AA@ 100a79a8     EditDlgM.obj
 0002:000029c0       ??_C@_0BE@LKNM@?5EditDlgM?7?3Storing?6?$AA@ 100a79c0     EditDlgM.obj
 0002:000029d8       ??_C@_08OACA@CEditMgr?$AA@ 100a79d8     EditMgr.obj
 0002:000029e8       ??_7CEditMgr@@6B@          100a79e8     EditMgr.obj
 0002:00002a00       ??_C@_0BD@FKEA@?5EditMgr?7?3Loading?6?$AA@ 100a7a00     EditMgr.obj
 0002:00002a18       ??_C@_0BD@JNBG@?5EditMgr?7?3Storing?6?$AA@ 100a7a18     EditMgr.obj
 0002:00002a30       ??_C@_0BH@IKNH@EMgr?4DLL?5Terminating?$CB?6?$AA@ 100a7a30     EmgrDll.obj
 0002:00002a4c       ??_C@_02DILL@?$CFs?$AA@    100a7a4c     EmgrDll.obj
 0002:00002a50       ??_C@_0BI@GEBB@EMgr?4DLL?5Initializing?$CB?6?$AA@ 100a7a50     EmgrDll.obj
 0002:00002a6c       ??_C@_08LCNG@CNodEdit?$AA@ 100a7a6c     NodEdit.obj
 0002:00002a7c       ??_7CXForm@@6B@            100a7a7c     NodEdit.obj
 0002:00002b30       ??_7CNodEdit@@6B@          100a7b30     NodEdit.obj
 0002:00002b48       ??_C@_0DE@PLFA@ERROR?3?6CNodEdit?3?3LeftUp_Node?6Sho@ 100a7b48     NodEdit.obj
 0002:00002b88       ??_C@_0CF@LG@?6NO?3?7?7Find?5Next?5Node?5with?5same?5T@ 100a7b88     NodEdit.obj
 0002:00002bb4       ??_C@_0BP@HBIO@?6NO?3?7?7Cancel?5Selection?5Process?$AA@ 100a7bb4     NodEdit.obj
 0002:00002bdc       ??_C@_0BK@NBIC@?6?6YES?3?7?7Edit?5This?5?$CIC?$CJNode?$AA@ 100a7bdc     NodEdit.obj
 0002:00002bfc       ??_C@_0DO@GJPH@?6Current?5NodeID?5?$DN?5?$CFs?6Coordinates@ 100a7bfc     NodEdit.obj
 0002:00002c48       ??_C@_0DP@OMJH@?6Existing?5NodeID?5?$DN?5?$CFs?6Coordinate@ 100a7c48     NodEdit.obj
 0002:00002c94       ??_C@_0CO@KJMC@with?5Similar?5Coordinates?5?$CIwith?5?$CF@ 100a7c94     NodEdit.obj
 0002:00002ccc       ??_C@_0BP@CELK@?$CK?$CK?$CK?$CK?$CK?5A?5Node?5Hit?5to?5Edit?5?$CK?$CK?$CK?$CK?6?$AA@ 100a7ccc     NodEdit.obj
 0002:00002cf4       ??_C@_0CB@IMAB@Click?5Down?0?5Hold?5?$CG?5Move?5The?5Node@ 100a7cf4     NodEdit.obj
 0002:00002d1c       ??_C@_0BG@FCCC@Ready?5for?5Moving?5Node?$AA@ 100a7d1c     NodEdit.obj
 0002:00002d38       ??_C@_01KFMA@?$EA?$AA@     100a7d38     NodEdit.obj
 0002:00002d3c       ??_C@_0BK@MLPP@?6?6YES?3?7?7Move?5This?5?$CIC?$CJNode?$AA@ 100a7d3c     NodEdit.obj
 0002:00002d5c       ??_C@_0BP@PCKK@?$CK?$CK?$CK?$CK?$CK?5A?5Node?5Hit?5to?5Move?5?$CK?$CK?$CK?$CK?6?$AA@ 100a7d5c     NodEdit.obj
 0002:00002d84       ??_C@_0BA@PLOK@Click?5On?5a?5Node?$AA@ 100a7d84     NodEdit.obj
 0002:00002d98       ??_C@_0BP@EGJP@Ready?5for?5Moving?5Another?5Node?$EA?$AA@ 100a7d98     NodEdit.obj
 0002:00002dc0       ??_C@_0DB@BJKE@ERROR?3CNodEdit?3?3SetThirdCoordFro@ 100a7dc0     NodEdit.obj
 0002:00002dfc       ??_C@_0BE@OIHB@Drag?5a?5Control?5Node?$AA@ 100a7dfc     NodEdit.obj
 0002:00002e14       ??_C@_0BD@OBIP@Drag?5an?5Input?5Node?$AA@ 100a7e14     NodEdit.obj
 0002:00002e2c       ??_C@_04HHIJ@MOVE?$AA@     100a7e2c     NodEdit.obj
 0002:00002e34       ??_C@_0BJ@ILND@Ready?5for?5Moving?5a?5Node?$EA?$AA@ 100a7e34     NodEdit.obj
 0002:00002e54       ??_C@_0N@DMAE@UNKNOWN?$EANODE?$AA@ 100a7e54     NodEdit.obj
 0002:00002e64       ??_C@_0BI@ELDP@Click?5on?5a?5Control?5Node?$AA@ 100a7e64     NodEdit.obj
 0002:00002e80       ??_C@_0N@PIKM@Control?$EANODE?$AA@ 100a7e80     NodEdit.obj
 0002:00002e90       ??_C@_0BH@KPPF@Click?5on?5an?5Input?5Node?$AA@ 100a7e90     NodEdit.obj
 0002:00002eac       ??_C@_0L@EFDO@Input?$EANODE?$AA@ 100a7eac     NodEdit.obj
 0002:00002ebc       ??_C@_0BK@HCKG@Ready?5for?5Editing?5a?5Node?$EA?$AA@ 100a7ebc     NodEdit.obj
 0002:00002edc       ??_C@_0BG@JFGE@?5NodEdit?3?5?5?5?5Loading?6?$AA@ 100a7edc     NodEdit.obj
 0002:00002ef8       ??_C@_0BG@FCDC@?5NodEdit?3?5?5?5?5Storing?6?$AA@ 100a7ef8     NodEdit.obj
 0002:00002f14       ??_C@_08BKMI@CPatEdit?$AA@ 100a7f14     PatEdit.obj
 0002:00002f24       ??_7CPatEdit@@6B@          100a7f24     PatEdit.obj
 0002:00002f3c       ??_C@_0BG@EEMM@making?5up?5the?5Patch?5?6?$AA@ 100a7f3c     PatEdit.obj
 0002:00002f58       ??_C@_0CH@LEHK@modifying?5a?5Patch?5by?5editng?5the?5@ 100a7f58     PatEdit.obj
 0002:00002f88       ??_C@_0CE@PGLJ@You?5may?5delete?5and?5rebuild?5a?5Pat@ 100a7f88     PatEdit.obj
 0002:00002fb4       ??_C@_0CG@BFIK@?6?6Patches?5can?5not?5be?5edited?5dire@ 100a7fb4     PatEdit.obj
 0002:00002fe4       ??_C@_0DF@NBJK@ERROR?3?6CPatEdit?3?3LeftUp_Node?6Sho@ 100a7fe4     PatEdit.obj
 0002:00003024       ??_C@_0CO@DPFM@?6NO?3?7?7Find?5Next?5Patch?5with?5Inter@ 100a8024     PatEdit.obj
 0002:0000305c       ??_C@_0BH@DMLH@?6YES?3?7?7Edit?5This?5Patch?$AA@ 100a805c     PatEdit.obj
 0002:00003078       ??_C@_0CD@LABE@Patch?5?$CFs?6Quadrilateral?5Coons?5Typ@ 100a8078     PatEdit.obj
 0002:000030a4       ??_C@_0CA@FDIN@Patch?5?$CFs?6Triangular?5Coons?5Type?6?$AA@ 100a80a4     PatEdit.obj
 0002:000030cc       ??_C@_0CA@GMCH@Patch?5?$CFs?6Generated?5by?6Sweeping?6?$AA@ 100a80cc     PatEdit.obj
 0002:000030f4       ??_C@_0BP@HCEK@Patch?5?$CFs?6Generated?5by?5Ducting?6?$AA@ 100a80f4     PatEdit.obj
 0002:0000311c       ??_C@_0BP@DAMC@Patch?5?$CFs?6Generated?5by?5Lofting?6?$AA@ 100a811c     PatEdit.obj
 0002:00003144       ??_C@_0CE@IOJC@Patch?5?$CFs?5was?5Generated?5by?5Rotati@ 100a8144     PatEdit.obj
 0002:00003170       ??_C@_0CF@HFNP@Patch?5?$CFs?5was?5Generated?5by?5Extrus@ 100a8170     PatEdit.obj
 0002:0000319c       ??_C@_0BI@PMOG@?$CK?$CK?$CK?$CK?$CK?5A?5Patch?5Hit?5?$CK?$CK?$CK?$CK?6?$AA@ 100a819c     PatEdit.obj
 0002:000031b8       ??_C@_07CNPM@UNKNOWN?$AA@  100a81b8     PatEdit.obj
 0002:000031c4       ??_C@_0BB@GLGD@Click?5on?5a?5Patch?$AA@ 100a81c4     PatEdit.obj
 0002:000031d8       ??_C@_05PGGO@PATCH?$AA@    100a81d8     PatEdit.obj
 0002:000031e0       ??_C@_0BL@NBNE@Ready?5for?5Editing?5a?5Patch?$EA?$AA@ 100a81e0     PatEdit.obj
 0002:00003200       ??_C@_0BG@JGOA@?5PatEdit?3?5?5?5?5Loading?6?$AA@ 100a8200     PatEdit.obj
 0002:0000321c       ??_C@_0BG@FBLG@?5PatEdit?3?5?5?5?5Storing?6?$AA@ 100a821c     PatEdit.obj
 0002:00003238       ??_C@_08LFKM@CSLDEdit?$AA@ 100a8238     SLDEdit.obj
 0002:00003248       ??_7CSLDEdit@@6B@          100a8248     SLDEdit.obj
 0002:00003274       ??_C@_0BE@GLKA@Another?5Static?5Node?$AA@ 100a8274     SLDEdit.obj
 0002:0000328c       ??_C@_0BD@KEDD@Ready?5for?5Editing?$EA?$AA@ 100a828c     SLDEdit.obj
 0002:000032a4       ??_C@_0DO@DPCG@ERROR?3?6CSLDEdit?3?3LeftUp_NodeStat@ 100a82a4     SLDEdit.obj
 0002:000032f0       ??_C@_0BA@HIEC@Please?5Sit?5Back?$AA@ 100a82f0     SLDEdit.obj
 0002:00003304       ??_C@_0BF@PDPJ@Done?5with?5Edit?5Data?$EA?$AA@ 100a8304     SLDEdit.obj
 0002:00003320       ??_C@_06GAHD@?$EANode?5?$AA@ 100a8320     SLDEdit.obj
 0002:00003328       ??_C@_0CJ@EJOD@?6?6YES?3?7?7Edit?5This?5Node?9Based?5Sta@ 100a8328     SLDEdit.obj
 0002:0000335c       ??_C@_0DG@LFJF@?6NodeID?5?$DN?5?$CFs?6Coordinates?3?6?7?5X?5?$DN?5@ 100a835c     SLDEdit.obj
 0002:0000339c       ??_C@_0CN@NNAA@?$CK?$CK?$CK?$CK?$CK?5Selected?5Node?5Static?5Load?5@ 100a839c     SLDEdit.obj
 0002:000033d4       ??_C@_0BF@BBEE@Another?5Static?5Curve?$AA@ 100a83d4     SLDEdit.obj
 0002:000033f0       ??_C@_0EA@LPIM@ERROR?3?6CSLEEdit?3?3LeftUp_CurveSta@ 100a83f0     SLDEdit.obj
 0002:0000343c       ??_C@_07NGKN@?$EACurve?5?$AA@ 100a843c     SLDEdit.obj
 0002:00003448       ??_C@_02ENJD@_R?$AA@       100a8448     SLDEdit.obj
 0002:0000344c       ??_C@_02LCOB@_T?$AA@       100a844c     SLDEdit.obj
 0002:00003450       ??_C@_03EBDH@_CC?$AA@      100a8450     SLDEdit.obj
 0002:00003454       ??_C@_0CA@PDFF@?6YES?3?7?7Edit?5This?5Existing?5Curve?$AA@ 100a8454     SLDEdit.obj
 0002:0000347c       ??_C@_0DI@PAJP@Curve?5?$CFs?5contains?3?6?7?$CFd?5Interpola@ 100a847c     SLDEdit.obj
 0002:000034c0       ??_C@_0CC@GHBK@?$CK?$CK?$CK?$CK?$CK?5A?5Loaded?5Curve?5Hit?5?5?$CK?$CK?$CK?$CK?$CK?6@ 100a84c0     SLDEdit.obj
 0002:000034e8       ??_C@_0BF@KNLK@Another?5Static?5Patch?$AA@ 100a84e8     SLDEdit.obj
 0002:00003504       ??_C@_0BG@KOPL@Ready?5for?5Generation?$EA?$AA@ 100a8504     SLDEdit.obj
 0002:00003520       ??_C@_0EA@IOHN@ERROR?3?6CSLDEdit?3?3LeftUp_PatchSta@ 100a8520     SLDEdit.obj
 0002:0000356c       ??_C@_0BG@NIII@Done?5with?5Patch?5Data?$EA?$AA@ 100a856c     SLDEdit.obj
 0002:00003588       ??_C@_07KNBB@?$EAPatch?5?$AA@ 100a8588     SLDEdit.obj
 0002:00003594       ??_C@_03EGKI@_PP?$AA@      100a8594     SLDEdit.obj
 0002:00003598       ??_C@_0CA@EPKL@?6YES?3?7?7Edit?5This?5Existing?5Patch?$AA@ 100a8598     SLDEdit.obj
 0002:000035c0       ??_C@_0BP@CCIB@Patch?5?$CFs?5is?5?6?7Triangular?5Type?6?$AA@ 100a85c0     SLDEdit.obj
 0002:000035e8       ??_C@_0CC@NMAN@Patch?5?$CFs?5is?5?6?7Quadrilateral?5Type@ 100a85e8     SLDEdit.obj
 0002:00003610       ??_C@_0CC@JBOL@?$CK?$CK?$CK?$CK?$CK?5A?5Loaded?5Patch?5Hit?5?5?$CK?$CK?$CK?$CK?$CK?6@ 100a8610     SLDEdit.obj
 0002:00003638       ??_C@_0BN@LDGK@A?5Solid?5with?5Assigned?5LumpWt?$AA@ 100a8638     SLDEdit.obj
 0002:0000365c       ??_C@_0BN@JJPB@A?5Patch?5with?5Assigned?5LumpWt?$AA@ 100a865c     SLDEdit.obj
 0002:00003680       ??_C@_0BN@EDJM@A?5Curve?5with?5Assigned?5LumpWt?$AA@ 100a8680     SLDEdit.obj
 0002:000036a4       ??_C@_0BM@MAOE@A?5Node?5with?5Assigned?5LumpWt?$AA@ 100a86a4     SLDEdit.obj
 0002:000036c8       ??_C@_06NFED@LUMPWT?$AA@   100a86c8     SLDEdit.obj
 0002:000036d0       ??_C@_0BN@HMLP@A?5Solid?5with?5Thermal?5Loading?$AA@ 100a86d0     SLDEdit.obj
 0002:000036f4       ??_C@_0BN@FGCE@A?5Patch?5with?5Thermal?5Loading?$AA@ 100a86f4     SLDEdit.obj
 0002:00003718       ??_C@_0BN@IMEJ@A?5Curve?5with?5Thermal?5Loading?$AA@ 100a8718     SLDEdit.obj
 0002:0000373c       ??_C@_0BM@PDB@A?5Node?5with?5Thermal?5Loading?$AA@ 100a873c     SLDEdit.obj
 0002:00003760       ??_C@_07LJPA@THERMAL?$AA@  100a8760     SLDEdit.obj
 0002:0000376c       ??_C@_0BO@ODOC@A?5Solid?5with?5Imposed?5Pressure?$AA@ 100a876c     SLDEdit.obj
 0002:00003790       ??_C@_0BO@LPMI@A?5Patch?5with?5Imposed?5Pressure?$AA@ 100a8790     SLDEdit.obj
 0002:000037b4       ??_C@_0BO@PBBC@A?5Curve?5with?5Imposed?5Pressure?$AA@ 100a87b4     SLDEdit.obj
 0002:000037d8       ??_C@_0BN@BBJB@A?5Node?5with?5Imposed?5Pressure?$AA@ 100a87d8     SLDEdit.obj
 0002:000037fc       ??_C@_08EAJO@PRESSURE?$AA@ 100a87fc     SLDEdit.obj
 0002:00003808       ??_C@_0CC@NBOG@A?5Solid?5with?5Imposed?5Displacemen@ 100a8808     SLDEdit.obj
 0002:00003830       ??_C@_0CC@BDIJ@A?5Patch?5with?5Imposed?5Displacemen@ 100a8830     SLDEdit.obj
 0002:00003858       ??_C@_0CC@DNDA@A?5Curve?5with?5Imposed?5Displacemen@ 100a8858     SLDEdit.obj
 0002:00003880       ??_C@_0CB@DIOH@A?5Node?5with?5Imposed?5Displacement@ 100a8880     SLDEdit.obj
 0002:000038a8       ??_C@_08FLBF@DISPLACE?$AA@ 100a88a8     SLDEdit.obj
 0002:000038b4       ??_C@_0CK@BNHL@Select?5Node?0?5Curve?0?5Patch?5or?5Sol@ 100a88b4     SLDEdit.obj
 0002:000038e8       ??_C@_0BL@PCIM@A?5Solid?5with?5Imposed?5Force?$AA@ 100a88e8     SLDEdit.obj
 0002:00003908       ??_C@_0BL@NMLF@A?5Patch?5with?5Imposed?5Force?$AA@ 100a8908     SLDEdit.obj
 0002:00003928       ??_C@_0BL@KOIL@A?5Curve?5with?5Imposed?5Force?$AA@ 100a8928     SLDEdit.obj
 0002:00003948       ??_C@_0BK@KKAB@A?5Node?5with?5Imposed?5Force?$AA@ 100a8948     SLDEdit.obj
 0002:00003968       ??_C@_0BE@NLOA@To?5Edit?3?5?5Click?5On?$EA?$AA@ 100a8968     SLDEdit.obj
 0002:00003980       ??_C@_05HJJM@FORCE?$AA@    100a8980     SLDEdit.obj
 0002:00003988       ??_C@_0CJ@JLMA@Select?5Node?0?5Curve?0?5Patch?5or?5Sol@ 100a8988     SLDEdit.obj
 0002:000039bc       ??_C@_0CB@GEHN@To?5Edit?5Solid?9based?5Static?5Load?$EA@ 100a89bc     SLDEdit.obj
 0002:000039e4       ??_C@_05DEEH@SOLID?$AA@    100a89e4     SLDEdit.obj
 0002:000039ec       ??_C@_0CB@EKEE@To?5Edit?5Patch?9based?5Static?5Load?$EA@ 100a89ec     SLDEdit.obj
 0002:00003a14       ??_C@_0CB@DIHK@To?5Edit?5Curve?9based?5Static?5Load?$EA@ 100a8a14     SLDEdit.obj
 0002:00003a3c       ??_C@_0BK@PNEL@Select?5A?5Static?5Load?5Type?$AA@ 100a8a3c     SLDEdit.obj
 0002:00003a5c       ??_C@_0CA@BFAJ@To?5Edit?5Node?9based?5Static?5Load?$EA?$AA@ 100a8a5c     SLDEdit.obj
 0002:00003a84       ??_C@_04FPID@NODE?$AA@     100a8a84     SLDEdit.obj
 0002:00003a8c       ??_C@_0M@DKIC@Static?$EALoad?$AA@ 100a8a8c     SLDEdit.obj
 0002:00003a9c       ??_C@_0BM@FIOI@Ready?5to?5Edit?5Static?5Loads?$EA?$AA@ 100a8a9c     SLDEdit.obj
 0002:00003ac0       ??_C@_0BG@IHHH@?5SLDEdit?3?5?5?5?5Loading?6?$AA@ 100a8ac0     SLDEdit.obj
 0002:00003adc       ??_C@_0BG@EACB@?5SLDEdit?3?5?5?5?5Storing?6?$AA@ 100a8adc     SLDEdit.obj
 0002:00003af8       ??_C@_08LKMI@CSolEdit?$AA@ 100a8af8     SolEdit.obj
 0002:00003b08       ??_7CSolEdit@@6B@          100a8b08     SolEdit.obj
 0002:00003b20       ??_C@_0BG@FMBH@making?5up?5the?5Solid?5?6?$AA@ 100a8b20     SolEdit.obj
 0002:00003b3c       ??_C@_0CH@JOOB@modifying?5a?5Solid?5by?5editng?5the?5@ 100a8b3c     SolEdit.obj
 0002:00003b6c       ??_C@_0CE@CNHL@You?5may?5delete?5and?5rebuild?5a?5Sol@ 100a8b6c     SolEdit.obj
 0002:00003b98       ??_C@_0CF@DAI@?6?6Solids?5can?5not?5be?5edited?5direc@ 100a8b98     SolEdit.obj
 0002:00003bc4       ??_C@_0DF@PM@ERROR?3?6CSolEdit?3?3LeftUp_Node?6Sho@ 100a8bc4     SolEdit.obj
 0002:00003c04       ??_C@_0BB@KJEK@Click?5on?5a?5Solid?$AA@ 100a8c04     SolEdit.obj
 0002:00003c18       ??_C@_0BL@KBG@Ready?5for?5Editing?5a?5Solid?$EA?$AA@ 100a8c18     SolEdit.obj
 0002:00003c38       ??_C@_0BG@FGNC@?5SolEdit?3?5?5?5?5Loading?6?$AA@ 100a8c38     SolEdit.obj
 0002:00003c54       ??_C@_0BG@JBIE@?5SolEdit?3?5?5?5?5Storing?6?$AA@ 100a8c54     SolEdit.obj
 0002:00003c70       ??_C@_08KBAB@CSpLEdit?$AA@ 100a8c70     SpLEdit.obj
 0002:00003c80       ??_7CSpLEdit@@6B@          100a8c80     SpLEdit.obj
 0002:00003cac       ??_C@_0BG@MBHB@?5SPLEdit?3?5?5?5?5Loading?6?$AA@ 100a8cac     SpLEdit.obj
 0002:00003cc8       ??_C@_0BG@GCH@?5SPLEdit?3?5?5?5?5Storing?6?$AA@ 100a8cc8     SpLEdit.obj
 0002:00003ce4       ??_C@_08OFGB@CSupEdit?$AA@ 100a8ce4     SupEdit.obj
 0002:00003cf4       ??_7CSupEdit@@6B@          100a8cf4     SupEdit.obj
 0002:00003d18       ??_C@_0CF@KPJI@?6?7then?5Create?5new?5Support?5Type?5h@ 100a8d18     SupEdit.obj
 0002:00003d44       ??_C@_0CF@BOID@?6?7You?5may?5First?5Delete?5this?5Supp@ 100a8d44     SupEdit.obj
 0002:00003d70       ??_C@_0O@LIEN@?6If?5you?5want?3?$AA@ 100a8d70     SupEdit.obj
 0002:00003d80       ??_C@_0CH@OOBF@?6?6Nothing?5to?5Edit?5for?5a?5Rigid?5Su@ 100a8d80     SupEdit.obj
 0002:00003db0       ??_C@_0DA@NDOO@?$CK?$CK?$CK?$CK?$CK?5Selected?5Support?5is?5RIGID?5@ 100a8db0     SupEdit.obj
 0002:00003dec       ??_C@_0EB@KJGA@Internal?5ERROR?3?6CSupEdit?3?3FillIn@ 100a8dec     SupEdit.obj
 0002:00003e3c       ??_C@_0EI@LLEO@Internal?5ERROR?3?6CSupEdit?3?3FillIn@ 100a8e3c     SupEdit.obj
 0002:00003e94       ??_C@_0BB@PPH@?6Stiffness?5?$DN?5?$CFf?6?$AA@ 100a8e94     SupEdit.obj
 0002:00003ea8       ??_C@_0BB@LGBE@?6SupportID?5?$DN?5?$CFs?6?$AA@ 100a8ea8     SupEdit.obj
 0002:00003ebc       ??_C@_0BG@OJEE@?7Direction?5?$CFs?5?$DN?5NONE?6?$AA@ 100a8ebc     SupEdit.obj
 0002:00003ed8       ??_C@_0BF@KNEI@?7Direction?5?$CFs?5?$DN?5GAP?6?$AA@ 100a8ed8     SupEdit.obj
 0002:00003ef4       ??_C@_0CC@JEGI@?6Support?5Modeled?5as?5PseudoGap?$CIs?$CJ@ 100a8ef4     SupEdit.obj
 0002:00003f1c       ??_C@_0CA@GFDM@X?9axis?5along?5Tangents?5to?5Curve?6?$AA@ 100a8f1c     SupEdit.obj
 0002:00003f44       ??_C@_0CH@LCOC@X?0?5Y?9axes?5along?5Iso?9Curves?5to?5Su@ 100a8f44     SupEdit.obj
 0002:00003f74       ??_C@_0CB@NDIE@Z?9axis?5along?5Normals?5to?5Surface?6@ 100a8f74     SupEdit.obj
 0002:00003f9c       ??_C@_0M@EPPH@?7?$CFs?5and?5?$CFs?6?$AA@ 100a8f9c     SupEdit.obj
 0002:00003fac       ??_C@_0BK@JPIO@X?9axis?5defined?5by?5Nodes?3?6?$AA@ 100a8fac     SupEdit.obj
 0002:00003fcc       ??_C@_0CC@OHLN@?6Joint?5Coordinate?5is?5Skewed?5with@ 100a8fcc     SupEdit.obj
 0002:00003ff4       ??_C@_0O@IBMN@?6Rotational?3?6?$AA@ 100a8ff4     SupEdit.obj
 0002:00004004       ??_C@_0BN@HIA@?7Direction?5?$CFs?5?$DN?5UNSUPPORTED?6?$AA@ 100a9004     SupEdit.obj
 0002:00004028       ??_C@_0BL@FFJB@?7Direction?5?$CFs?5?$DN?5SUPPORTED?6?$AA@ 100a9028     SupEdit.obj
 0002:00004048       ??_C@_0BB@HOJN@?6Translational?3?6?$AA@ 100a9048     SupEdit.obj
 0002:0000405c       ??_C@_0CA@EADN@?6?6SupportType?5?$DN?5LINEAR?5SNUBBER?6?$AA@ 100a905c     SupEdit.obj
 0002:00004084       ??_C@_0BP@KJNJ@?6?6SupportType?5?$DN?5LINEAR?5SPRING?6?$AA@ 100a9084     SupEdit.obj
 0002:000040ac       ??_C@_01NCG@Z?$AA@         100a90ac     SupEdit.obj
 0002:000040b0       ??_C@_01PCJP@Y?$AA@        100a90b0     SupEdit.obj
 0002:000040b4       ??_C@_01FIAI@X?$AA@        100a90b4     SupEdit.obj
 0002:000040b8       ??_C@_0DD@JPNJ@ERROR?3?6CSupEdit?3?3LeftUp_NodeSup?6@ 100a90b8     SupEdit.obj
 0002:000040f8       ??_C@_0CF@FIHL@?6?6YES?3?7?7Edit?5This?5Node?9Based?5Sup@ 100a90f8     SupEdit.obj
 0002:00004124       ??_C@_0CJ@KJLN@?$CK?$CK?$CK?$CK?$CK?5Selected?5Node?5Support?5Info@ 100a9124     SupEdit.obj
 0002:00004158       ??_C@_0EC@BIIN@Internal?5ERROR?3?6CSupEdit?3?3ShowIn@ 100a9158     SupEdit.obj
 0002:000041a8       ??_C@_0EJ@ODFN@Internal?5ERROR?3?6CSupEdit?3?3ShowIn@ 100a91a8     SupEdit.obj
 0002:00004200       ??_C@_0DE@MHJE@ERROR?3?6CSupEdit?3?3LeftUp_CurveSup@ 100a9200     SupEdit.obj
 0002:00004240       ??_C@_0CJ@KGCN@?6NO?3?7?7Find?5Next?5Curve?5with?5simil@ 100a9240     SupEdit.obj
 0002:00004274       ??_C@_0CG@IAHO@?6?6YES?3?7?7Edit?5This?5Curve?9Based?5Su@ 100a9274     SupEdit.obj
 0002:000042a4       ??_C@_0CL@JEGK@?$CK?$CK?$CK?$CK?$CK?5Selected?5Curve?5Support?5Inf@ 100a92a4     SupEdit.obj
 0002:000042d8       ??_C@_0EC@KBDI@Internal?5ERROR?3?6CSupEdit?3?3ShowIn@ 100a92d8     SupEdit.obj
 0002:00004328       ??_C@_0EJ@NFBP@Internal?5ERROR?3?6CSupEdit?3?3ShowIn@ 100a9328     SupEdit.obj
 0002:00004380       ??_C@_0DE@IJEO@ERROR?3?6CSupEdit?3?3LeftUp_PatchSup@ 100a9380     SupEdit.obj
 0002:000043c0       ??_C@_0BP@KKBD@?6NO?3?7?7Find?5Next?5Matching?5Patch?$AA@ 100a93c0     SupEdit.obj
 0002:000043e8       ??_C@_0CG@DEII@?6?6YES?3?7?7Edit?5This?5Patch?9Based?5Su@ 100a93e8     SupEdit.obj
 0002:00004418       ??_C@_0CL@NKLA@?$CK?$CK?$CK?$CK?$CK?5Selected?5Patch?5Support?5Inf@ 100a9418     SupEdit.obj
 0002:0000444c       ??_C@_0BL@BENI@Click?5on?5A?5Supported?5Solid?$AA@ 100a944c     SupEdit.obj
 0002:0000446c       ??_C@_0CE@GLI@Ready?5for?5Solid?9based?5Support?5Ed@ 100a946c     SupEdit.obj
 0002:00004498       ??_C@_0BL@NGPB@Click?5on?5A?5Supported?5Patch?$AA@ 100a9498     SupEdit.obj
 0002:000044b8       ??_C@_0CE@JNJG@Ready?5for?5Patch?9based?5Support?5Ed@ 100a94b8     SupEdit.obj
 0002:000044e4       ??_C@_0BL@GKAP@Click?5on?5A?5Supported?5Curve?$AA@ 100a94e4     SupEdit.obj
 0002:00004504       ??_C@_0CE@PAOE@Ready?5for?5Curve?9based?5Support?5Ed@ 100a9504     SupEdit.obj
 0002:00004530       ??_C@_0BK@CACD@Click?5on?5A?5Supported?5Node?$AA@ 100a9530     SupEdit.obj
 0002:00004550       ??_C@_0CD@IBJN@Ready?5for?5Node?9based?5Support?5Edi@ 100a9550     SupEdit.obj
 0002:0000457c       ??_C@_07PLEC@Support?$AA@  100a957c     SupEdit.obj
 0002:00004588       ??_C@_0BI@NNLD@Ready?5to?5Edit?5Supports?$EA?$AA@ 100a9588     SupEdit.obj
 0002:000045a4       ??_C@_0BG@BMDK@?5SupEdit?3?5?5?5?5Loading?6?$AA@ 100a95a4     SupEdit.obj
 0002:000045c0       ??_C@_0BG@NLGM@?5SupEdit?3?5?5?5?5Storing?6?$AA@ 100a95c0     SupEdit.obj
 0002:000045e0       _IID_IDocHostUIHandlerDispatch 100a95e0     mfcs42d:stdafx.obj
 0002:000045f0       _IID_IInternalConnection   100a95f0     mfcs42d:stdafx.obj
 0002:00004600       _IID_IAxWinAmbientDispatch 100a9600     mfcs42d:stdafx.obj
 0002:00004610       _IID_IAxWinHostWindow      100a9610     mfcs42d:stdafx.obj
 0002:00004620       _IID_IRegistrar            100a9620     mfcs42d:stdafx.obj
 0002:00004630       _CLSID_Registrar           100a9630     mfcs42d:stdafx.obj
 0002:00004640       _LIBID_ATLLib              100a9640     mfcs42d:stdafx.obj
 0002:00004654       ??_7type_info@@6B@         100a9654     msvcrtd:ti_inst.obj
 0002:00004674       ??_C@_08JKC@crtdll?4c?$AA@ 100a9674     msvcrtd:crtdll.obj
 0002:00004878       ??_R1A@?0A@A@CObject@@8    100a9878     CurEdit.obj
 0002:00004898       ??_R1A@?0A@A@C3DMath@@8    100a9898     CurEdit.obj
 0002:000048b8       ??_R2C3DMath@@8            100a98b8     CurEdit.obj
 0002:000048c8       ??_R3C3DMath@@8            100a98c8     CurEdit.obj
 0002:000048e0       ??_R4C3DMath@@6B@          100a98e0     CurEdit.obj
 0002:000048f8       ??_R1A@?0A@A@CMatObj@@8    100a98f8     CurEdit.obj
 0002:00004918       ??_R2CMatObj@@8            100a9918     CurEdit.obj
 0002:00004928       ??_R3CMatObj@@8            100a9928     CurEdit.obj
 0002:00004940       ??_R4CMatObj@@6B@          100a9940     CurEdit.obj
 0002:00004958       ??_R1A@?0A@A@CDrObject@@8  100a9958     CurEdit.obj
 0002:00004978       ??_R1A@?0A@A@CDrLabel@@8   100a9978     CurEdit.obj
 0002:00004998       ??_R2CDrLabel@@8           100a9998     CurEdit.obj
 0002:000049a8       ??_R3CDrLabel@@8           100a99a8     CurEdit.obj
 0002:000049c0       ??_R4CDrLabel@@6B@         100a99c0     CurEdit.obj
 0002:000049d8       ??_R1A@?0A@A@CTriangle@@8  100a99d8     CurEdit.obj
 0002:000049f8       ??_R2CTriangle@@8          100a99f8     CurEdit.obj
 0002:00004a08       ??_R3CTriangle@@8          100a9a08     CurEdit.obj
 0002:00004a20       ??_R4CTriangle@@6B@        100a9a20     CurEdit.obj
 0002:00004a38       ??_R1A@?0A@A@CBooleans@@8  100a9a38     CurEdit.obj
 0002:00004a58       ??_R2CBooleans@@8          100a9a58     CurEdit.obj
 0002:00004a68       ??_R3CBooleans@@8          100a9a68     CurEdit.obj
 0002:00004a80       ??_R4CBooleans@@6B@        100a9a80     CurEdit.obj
 0002:00004a98       ??_R1A@?0A@A@CDataWindow@@8 100a9a98     CurEdit.obj
 0002:00004ab8       ??_R2CDataWindow@@8        100a9ab8     CurEdit.obj
 0002:00004ac8       ??_R3CDataWindow@@8        100a9ac8     CurEdit.obj
 0002:00004ae0       ??_R4CDataWindow@@6B@      100a9ae0     CurEdit.obj
 0002:00004af8       ??_R1A@?0A@A@CDrFont@@8    100a9af8     CurEdit.obj
 0002:00004b18       ??_R2CDrFont@@8            100a9b18     CurEdit.obj
 0002:00004b28       ??_R3CDrFont@@8            100a9b28     CurEdit.obj
 0002:00004b40       ??_R4CDrFont@@6B@          100a9b40     CurEdit.obj
 0002:00004b58       ??_R1A@?0A@A@CDrPen@@8     100a9b58     CurEdit.obj
 0002:00004b78       ??_R2CDrPen@@8             100a9b78     CurEdit.obj
 0002:00004b88       ??_R3CDrPen@@8             100a9b88     CurEdit.obj
 0002:00004ba0       ??_R4CDrPen@@6B@           100a9ba0     CurEdit.obj
 0002:00004bb8       ??_R1A@?0A@A@CHitNet@@8    100a9bb8     CurEdit.obj
 0002:00004bd8       ??_R2CHitNet@@8            100a9bd8     CurEdit.obj
 0002:00004be8       ??_R3CHitNet@@8            100a9be8     CurEdit.obj
 0002:00004c00       ??_R4CHitNet@@6B@          100a9c00     CurEdit.obj
 0002:00004c18       ??_R1A@?0A@A@CLayer@@8     100a9c18     CurEdit.obj
 0002:00004c38       ??_R2CLayer@@8             100a9c38     CurEdit.obj
 0002:00004c48       ??_R3CLayer@@8             100a9c48     CurEdit.obj
 0002:00004c60       ??_R4CLayer@@6B@           100a9c60     CurEdit.obj
 0002:00004c78       ??_R1A@?0A@A@CPatchMnu@@8  100a9c78     CurEdit.obj
 0002:00004c98       ??_R2CPatchMnu@@8          100a9c98     CurEdit.obj
 0002:00004ca8       ??_R3CPatchMnu@@8          100a9ca8     CurEdit.obj
 0002:00004cc0       ??_R4CPatchMnu@@6B@        100a9cc0     CurEdit.obj
 0002:00004cd8       ??_R1A@?0A@A@CObj3DMnu@@8  100a9cd8     CurEdit.obj
 0002:00004cf8       ??_R2CObj3DMnu@@8          100a9cf8     CurEdit.obj
 0002:00004d08       ??_R3CObj3DMnu@@8          100a9d08     CurEdit.obj
 0002:00004d20       ??_R4CObj3DMnu@@6B@        100a9d20     CurEdit.obj
 0002:00004d38       ??_R1A@?0A@A@CMapFactor@@8 100a9d38     CurEdit.obj
 0002:00004d58       ??_R2CMapFactor@@8         100a9d58     CurEdit.obj
 0002:00004d68       ??_R3CMapFactor@@8         100a9d68     CurEdit.obj
 0002:00004d80       ??_R4CMapFactor@@6B@       100a9d80     CurEdit.obj
 0002:00004d98       ??_R1A@?0A@A@CPrecision@@8 100a9d98     CurEdit.obj
 0002:00004db8       ??_R2CPrecision@@8         100a9db8     CurEdit.obj
 0002:00004dc8       ??_R3CPrecision@@8         100a9dc8     CurEdit.obj
 0002:00004de0       ??_R4CPrecision@@6B@       100a9de0     CurEdit.obj
 0002:00004df8       ??_R1A@?0A@A@CScaleFactor@@8 100a9df8     CurEdit.obj
 0002:00004e18       ??_R2CScaleFactor@@8       100a9e18     CurEdit.obj
 0002:00004e28       ??_R3CScaleFactor@@8       100a9e28     CurEdit.obj
 0002:00004e40       ??_R4CScaleFactor@@6B@     100a9e40     CurEdit.obj
 0002:00004e58       ??_R1A@?0A@A@CUnit@@8      100a9e58     CurEdit.obj
 0002:00004e78       ??_R2CUnit@@8              100a9e78     CurEdit.obj
 0002:00004e88       ??_R3CUnit@@8              100a9e88     CurEdit.obj
 0002:00004ea0       ??_R4CUnit@@6B@            100a9ea0     CurEdit.obj
 0002:00004eb8       ??_R1A@?0A@A@CElemInfo@@8  100a9eb8     CurEdit.obj
 0002:00004ed8       ??_R2CElemInfo@@8          100a9ed8     CurEdit.obj
 0002:00004ee8       ??_R3CElemInfo@@8          100a9ee8     CurEdit.obj
 0002:00004f00       ??_R4CElemInfo@@6B@        100a9f00     CurEdit.obj
 0002:00004f18       ??_R1A@?0A@A@CMouse@@8     100a9f18     CurEdit.obj
 0002:00004f38       ??_R1A@?0A@A@CNodEdit@@8   100a9f38     CurEdit.obj
 0002:00004f58       ??_R1A@?0A@A@CCurEdit@@8   100a9f58     CurEdit.obj
 0002:00004f78       ??_R2CCurEdit@@8           100a9f78     CurEdit.obj
 0002:00004f90       ??_R3CCurEdit@@8           100a9f90     CurEdit.obj
 0002:00004fa8       ??_R4CCurEdit@@6B@         100a9fa8     CurEdit.obj
 0002:00004fc0       ??_R1A@?0A@A@?$CList@HH@@8 100a9fc0     CurEdit.obj
 0002:00004fe0       ??_R2?$CList@HH@@8         100a9fe0     CurEdit.obj
 0002:00004ff0       ??_R3?$CList@HH@@8         100a9ff0     CurEdit.obj
 0002:00005008       ??_R4?$CList@HH@@6B@       100aa008     CurEdit.obj
 0002:00005020       ??_R1A@?0A@A@CPatEdit@@8   100aa020     DLDEdit.obj
 0002:00005040       ??_R1A@?0A@A@CSolEdit@@8   100aa040     DLDEdit.obj
 0002:00005060       ??_R1A@?0A@A@CSupEdit@@8   100aa060     DLDEdit.obj
 0002:00005080       ??_R1A@?0A@A@CSLDEdit@@8   100aa080     DLDEdit.obj
 0002:000050a0       ??_R1A@?0A@A@CSpLEdit@@8   100aa0a0     DLDEdit.obj
 0002:000050c0       ??_R1A@?0A@A@CDLDEdit@@8   100aa0c0     DLDEdit.obj
 0002:000050e0       ??_R2CDLDEdit@@8           100aa0e0     DLDEdit.obj
 0002:00005118       ??_R3CDLDEdit@@8           100aa118     DLDEdit.obj
 0002:00005130       ??_R4CDLDEdit@@6B@         100aa130     DLDEdit.obj
 0002:00005148       ??_R1A@?0A@A@CCmdTarget@@8 100aa148     dlg_enoA.obj
 0002:00005168       ??_R1A@?0A@A@CWnd@@8       100aa168     dlg_enoA.obj
 0002:00005188       ??_R1A@?0A@A@CDialog@@8    100aa188     dlg_enoA.obj
 0002:000051a8       ??_R1A@?0A@A@CDlg_ENoA@@8  100aa1a8     dlg_enoA.obj
 0002:000051c8       ??_R2CDlg_ENoA@@8          100aa1c8     dlg_enoA.obj
 0002:000051e8       ??_R3CDlg_ENoA@@8          100aa1e8     dlg_enoA.obj
 0002:00005200       ??_R4CDlg_ENoA@@6B@        100aa200     dlg_enoA.obj
 0002:00005218       ??_R1A@?0A@A@CDlg_ENod@@8  100aa218     dlg_ENod.obj
 0002:00005238       ??_R2CDlg_ENod@@8          100aa238     dlg_ENod.obj
 0002:00005258       ??_R3CDlg_ENod@@8          100aa258     dlg_ENod.obj
 0002:00005270       ??_R4CDlg_ENod@@6B@        100aa270     dlg_ENod.obj
 0002:00005288       ??_R1A@?0A@A@CEditDlgM@@8  100aa288     EditDlgM.obj
 0002:000052a8       ??_R2CEditDlgM@@8          100aa2a8     EditDlgM.obj
 0002:000052b8       ??_R3CEditDlgM@@8          100aa2b8     EditDlgM.obj
 0002:000052d0       ??_R4CEditDlgM@@6B@        100aa2d0     EditDlgM.obj
 0002:000052e8       ??_R1A@?0A@A@CEditMgr@@8   100aa2e8     EditMgr.obj
 0002:00005308       ??_R2CEditMgr@@8           100aa308     EditMgr.obj
 0002:00005318       ??_R3CEditMgr@@8           100aa318     EditMgr.obj
 0002:00005330       ??_R4CEditMgr@@6B@         100aa330     EditMgr.obj
 0002:00005348       ??_R1A@?0A@A@CXForm@@8     100aa348     NodEdit.obj
 0002:00005368       ??_R2CXForm@@8             100aa368     NodEdit.obj
 0002:00005378       ??_R3CXForm@@8             100aa378     NodEdit.obj
 0002:00005390       ??_R4CXForm@@6B@           100aa390     NodEdit.obj
 0002:000053a8       ??_R2CNodEdit@@8           100aa3a8     NodEdit.obj
 0002:000053b8       ??_R3CNodEdit@@8           100aa3b8     NodEdit.obj
 0002:000053d0       ??_R4CNodEdit@@6B@         100aa3d0     NodEdit.obj
 0002:000053e8       ??_R2CPatEdit@@8           100aa3e8     PatEdit.obj
 0002:00005408       ??_R3CPatEdit@@8           100aa408     PatEdit.obj
 0002:00005420       ??_R4CPatEdit@@6B@         100aa420     PatEdit.obj
 0002:00005438       ??_R2CSLDEdit@@8           100aa438     SLDEdit.obj
 0002:00005460       ??_R3CSLDEdit@@8           100aa460     SLDEdit.obj
 0002:00005478       ??_R4CSLDEdit@@6B@         100aa478     SLDEdit.obj
 0002:00005490       ??_R2CSolEdit@@8           100aa490     SolEdit.obj
 0002:000054b0       ??_R3CSolEdit@@8           100aa4b0     SolEdit.obj
 0002:000054c8       ??_R4CSolEdit@@6B@         100aa4c8     SolEdit.obj
 0002:000054e0       ??_R2CSpLEdit@@8           100aa4e0     SpLEdit.obj
 0002:00005510       ??_R3CSpLEdit@@8           100aa510     SpLEdit.obj
 0002:00005528       ??_R4CSpLEdit@@6B@         100aa528     SpLEdit.obj
 0002:00005540       ??_R2CSupEdit@@8           100aa540     SupEdit.obj
 0002:00005568       ??_R3CSupEdit@@8           100aa568     SupEdit.obj
 0002:00005580       ??_R4CSupEdit@@6B@         100aa580     SupEdit.obj
 0002:00005598       ??_R1A@?0A@A@type_info@@8  100aa598     msvcrtd:ti_inst.obj
 0002:000055b0       ??_R2type_info@@8          100aa5b0     msvcrtd:ti_inst.obj
 0002:000055b8       ??_R3type_info@@8          100aa5b8     msvcrtd:ti_inst.obj
 0002:000055c8       ??_R4type_info@@6B@        100aa5c8     msvcrtd:ti_inst.obj
 0003:00000000       ___xc_a                    100c5000     msvcrtd:cinitexe.obj
 0003:00000234       ___xc_z                    100c5234     msvcrtd:cinitexe.obj
 0003:00000338       ___xi_a                    100c5338     msvcrtd:cinitexe.obj
 0003:0000043c       ___xi_z                    100c543c     msvcrtd:cinitexe.obj
 0003:00000570       ?classCCurEdit@CCurEdit@@2UCRuntimeClass@@A 100c5570     CurEdit.obj
 0003:00000598       ??_R0?AVCObject@@@8        100c5598     CurEdit.obj
 0003:000005b8       ??_R0?AVC3DMath@@@8        100c55b8     CurEdit.obj
 0003:000005d8       ??_R0?AVCMatObj@@@8        100c55d8     CurEdit.obj
 0003:000005f8       ??_R0?AVCDrObject@@@8      100c55f8     CurEdit.obj
 0003:00000618       ??_R0?AVCDrLabel@@@8       100c5618     CurEdit.obj
 0003:00000638       ??_R0?AVCTriangle@@@8      100c5638     CurEdit.obj
 0003:00000658       ??_R0?AVCBooleans@@@8      100c5658     CurEdit.obj
 0003:00000678       ??_R0?AVCDataWindow@@@8    100c5678     CurEdit.obj
 0003:00000698       ??_R0?AVCDrFont@@@8        100c5698     CurEdit.obj
 0003:000006b8       ??_R0?AVCDrPen@@@8         100c56b8     CurEdit.obj
 0003:000006d8       ??_R0?AVCHitNet@@@8        100c56d8     CurEdit.obj
 0003:000006f8       ??_R0?AVCLayer@@@8         100c56f8     CurEdit.obj
 0003:00000718       ??_R0?AVCPatchMnu@@@8      100c5718     CurEdit.obj
 0003:00000738       ??_R0?AVCObj3DMnu@@@8      100c5738     CurEdit.obj
 0003:00000758       ??_R0?AVCMapFactor@@@8     100c5758     CurEdit.obj
 0003:00000778       ??_R0?AVCPrecision@@@8     100c5778     CurEdit.obj
 0003:00000798       ??_R0?AVCScaleFactor@@@8   100c5798     CurEdit.obj
 0003:000007b8       ??_R0?AVCUnit@@@8          100c57b8     CurEdit.obj
 0003:000007d0       ??_R0?AVCElemInfo@@@8      100c57d0     CurEdit.obj
 0003:000007f0       ??_R0?AVCMouse@@@8         100c57f0     CurEdit.obj
 0003:00000810       ??_R0?AVCNodEdit@@@8       100c5810     CurEdit.obj
 0003:00000830       ??_R0?AVCCurEdit@@@8       100c5830     CurEdit.obj
 0003:0000084c       ?__LINE__Var@?1??ShowCurveToEdit@CCurEdit@@QAEHPAVCDrCurve@@@Z@4FA 100c584c     CurEdit.obj
 0003:00000850       ?__LINE__Var@?1??ShowCurveInfo@CCurEdit@@QAEHPAVCDrCurve@@@Z@4FA 100c5850     CurEdit.obj
 0003:00000858       ??_R0?AV?$CList@HH@@@8     100c5858     CurEdit.obj
 0003:000008a8       ?classCDLDEdit@CDLDEdit@@2UCRuntimeClass@@A 100c58a8     DLDEdit.obj
 0003:000008d0       ??_R0?AVCPatEdit@@@8       100c58d0     DLDEdit.obj
 0003:000008f0       ??_R0?AVCSolEdit@@@8       100c58f0     DLDEdit.obj
 0003:00000910       ??_R0?AVCSupEdit@@@8       100c5910     DLDEdit.obj
 0003:00000930       ??_R0?AVCSLDEdit@@@8       100c5930     DLDEdit.obj
 0003:00000950       ??_R0?AVCSpLEdit@@@8       100c5950     DLDEdit.obj
 0003:00000970       ??_R0?AVCDLDEdit@@@8       100c5970     DLDEdit.obj
 0003:000009c8       ??_R0?AVCCmdTarget@@@8     100c59c8     dlg_enoA.obj
 0003:000009e8       ??_R0?AVCWnd@@@8           100c59e8     dlg_enoA.obj
 0003:00000a00       ??_R0?AVCDialog@@@8        100c5a00     dlg_enoA.obj
 0003:00000a20       ??_R0?AVCDlg_ENoA@@@8      100c5a20     dlg_enoA.obj
 0003:00000a78       ??_R0?AVCDlg_ENod@@@8      100c5a78     dlg_ENod.obj
 0003:00000ac8       ?classCEditDlgM@CEditDlgM@@2UCRuntimeClass@@A 100c5ac8     EditDlgM.obj
 0003:00000af0       ??_R0?AVCEditDlgM@@@8      100c5af0     EditDlgM.obj
 0003:00000b40       ?classCEditMgr@CEditMgr@@2UCRuntimeClass@@A 100c5b40     EditMgr.obj
 0003:00000b68       ??_R0?AVCEditMgr@@@8       100c5b68     EditMgr.obj
 0003:00000ba8       __pRawDllMain              100c5ba8     EmgrDll.obj
 0003:00000be8       ?classCNodEdit@CNodEdit@@2UCRuntimeClass@@A 100c5be8     NodEdit.obj
 0003:00000c10       ??_R0?AVCXForm@@@8         100c5c10     NodEdit.obj
 0003:00000c2c       ?__LINE__Var@?1??LeftUp_NODE@CNodEdit@@IAEHVCPoint@@H@Z@4FA 100c5c2c     NodEdit.obj
 0003:00000c30       ?__LINE__Var@?1??LeftUp_NODE_PreMove@CNodEdit@@IAEHVCPoint@@H@Z@4FA 100c5c30     NodEdit.obj
 0003:00000c68       ?classCPatEdit@CPatEdit@@2UCRuntimeClass@@A 100c5c68     PatEdit.obj
 0003:00000c90       ?__LINE__Var@?1??ShowPatchToEdit@CPatEdit@@QAEHPAVCDrPatch@@@Z@4FA 100c5c90     PatEdit.obj
 0003:00000c94       ?__LINE__Var@?1??ShowPatchInfo@CPatEdit@@QAEHPAVCDrPatch@@@Z@4FA 100c5c94     PatEdit.obj
 0003:00000cc8       ?classCSLDEdit@CSLDEdit@@2UCRuntimeClass@@A 100c5cc8     SLDEdit.obj
 0003:00000cf0       ?__LINE__Var@?1??LeftUp_NodeStatic@CSLDEdit@@IAEHVCPoint@@@Z@4FA 100c5cf0     SLDEdit.obj
 0003:00000cf4       ?__LINE__Var@?1??LeftUp_CurveStatic@CSLDEdit@@IAEHVCPoint@@@Z@4FA 100c5cf4     SLDEdit.obj
 0003:00000cf8       ?__LINE__Var@?1??LeftUp_PatchStatic@CSLDEdit@@IAEHVCPoint@@@Z@4FA 100c5cf8     SLDEdit.obj
 0003:00000d30       ?classCSolEdit@CSolEdit@@2UCRuntimeClass@@A 100c5d30     SolEdit.obj
 0003:00000d58       ?__LINE__Var@?1??ShowSolidToEdit@CSolEdit@@QAEHPAVCDrSolid@@@Z@4FA 100c5d58     SolEdit.obj
 0003:00000d90       ?classCSpLEdit@CSpLEdit@@2UCRuntimeClass@@A 100c5d90     SpLEdit.obj
 0003:00000de8       ?classCSupEdit@CSupEdit@@2UCRuntimeClass@@A 100c5de8     SupEdit.obj
 0003:00000e10       ?__LINE__Var@?1??NoRigidEdit_Msg@CSupEdit@@IAEXXZ@4FA 100c5e10     SupEdit.obj
 0003:00000e14       ?__LINE__Var@?1??LeftUp_NodeLinSupp@CSupEdit@@IAEHVCPoint@@@Z@4FA 100c5e14     SupEdit.obj
 0003:00000e18       ?__LINE__Var@?1??LeftUp_CurveLinSupp@CSupEdit@@IAEHVCPoint@@@Z@4FA 100c5e18     SupEdit.obj
 0003:00000e1c       ?__LINE__Var@?1??LeftUp_PatchLinSupp@CSupEdit@@IAEHVCPoint@@@Z@4FA 100c5e1c     SupEdit.obj
 0003:00000e20       ?GUID_ATLVer30@ATL@@3U_GUID@@A 100c5e20     mfcs42d:stdafx.obj
 0003:00000e30       ??_R0?AVtype_info@@@8      100c5e30     msvcrtd:ti_inst.obj
 0003:00000f98       ?_init_CCurEdit@@3UAFX_CLASSINIT@@A 100c5f98     CurEdit.obj
 0003:00000f9c       ?_init_CDLDEdit@@3UAFX_CLASSINIT@@A 100c5f9c     DLDEdit.obj
 0003:00000fa0       ?_init_CEditDlgM@@3UAFX_CLASSINIT@@A 100c5fa0     EditDlgM.obj
 0003:00000fa4       ?_init_CEditMgr@@3UAFX_CLASSINIT@@A 100c5fa4     EditMgr.obj
 0003:00000fa8       __afxForceEXTDLL           100c5fa8     EmgrDll.obj
 0003:00000fb0       ?extensionEMgr_DLL@@3UAFX_EXTENSION_MODULE@@A 100c5fb0     EmgrDll.obj
 0003:00000fcc       ?_init_CNodEdit@@3UAFX_CLASSINIT@@A 100c5fcc     NodEdit.obj
 0003:00000fd0       ?_init_CPatEdit@@3UAFX_CLASSINIT@@A 100c5fd0     PatEdit.obj
 0003:00000fd4       ?_init_CSLDEdit@@3UAFX_CLASSINIT@@A 100c5fd4     SLDEdit.obj
 0003:00000fd8       ?_init_CSolEdit@@3UAFX_CLASSINIT@@A 100c5fd8     SolEdit.obj
 0003:00000fdc       ?_init_CSpLEdit@@3UAFX_CLASSINIT@@A 100c5fdc     SpLEdit.obj
 0003:00000fe0       ?_init_CSupEdit@@3UAFX_CLASSINIT@@A 100c5fe0     SupEdit.obj
 0003:00000fe4       __afxForceEXCLUDE          100c5fe4     mfcs42d:nolib.obj
 0003:00000fe8       ?ATL_CREATE_OBJECT@CComApartment@ATL@@2IA 100c5fe8     mfcs42d:stdafx.obj
 0003:00000ff0       ?m_libid@CComModule@ATL@@2U_GUID@@A 100c5ff0     mfcs42d:stdafx.obj
 0003:00001000       ?_pModule@ATL@@3PAVCComModule@1@A 100c6000     mfcs42d:stdafx.obj
 0003:00001004       __afxForceSTDAFX           100c6004     mfcs42d:stdafx.obj
 0003:0000100c       __adjust_fdiv              100c600c     <common>
 0003:00001018       ___onexitend               100c6018     <common>
 0003:00001028       ___onexitbegin             100c6028     <common>
 0004:00000000       __IMPORT_DESCRIPTOR_OMgr_D32 100c7000     OMgr_D32:OMgr_D32.dll
 0004:00000014       __IMPORT_DESCRIPTOR_Spec_D32 100c7014     Spec_d32:Spec_D32.dll
 0004:00000028       __IMPORT_DESCRIPTOR_Draw_D32 100c7028     Draw_D32:Draw_D32.dll
 0004:0000003c       __IMPORT_DESCRIPTOR_Elem_D32 100c703c     Elem_D32:Elem_D32.dll
 0004:00000050       __IMPORT_DESCRIPTOR_OGEN_D32 100c7050     OGen_D32:OGEN_D32.dll
 0004:00000064       __IMPORT_DESCRIPTOR_Dr3D_D32 100c7064     Dr3D_D32:Dr3D_D32.dll
 0004:00000078       __IMPORT_DESCRIPTOR_MSup_D32 100c7078     MSup_D32:MSup_D32.dll
 0004:0000008c       __IMPORT_DESCRIPTOR_MStL_D32 100c708c     MStL_D32:MStL_D32.dll
 0004:000000a0       __IMPORT_DESCRIPTOR_MMgr_D32 100c70a0     MMgr_D32:MMgr_D32.dll
 0004:000000b4       __IMPORT_DESCRIPTOR_CMgr_D32 100c70b4     CMgr_D32:CMgr_D32.dll
 0004:000000c8       __IMPORT_DESCRIPTOR_MFC42D 100c70c8     mfc42d:MFC42D.DLL
 0004:000000dc       __IMPORT_DESCRIPTOR_MSVCRTD 100c70dc     msvcrtd:MSVCRTD.dll
 0004:000000f0       __IMPORT_DESCRIPTOR_USER32 100c70f0     user32:USER32.dll
 0004:00000104       __NULL_IMPORT_DESCRIPTOR   100c7104     OMgr_D32:OMgr_D32.dll
 0004:00000bbc       __imp_??1CRegenNod@@UAE@XZ 100c7bbc     CMgr_D32:CMgr_D32.dll
 0004:00000bc0       __imp_??1CRegenCur@@UAE@XZ 100c7bc0     CMgr_D32:CMgr_D32.dll
 0004:00000bc4       __imp_??1CRegenPat@@UAE@XZ 100c7bc4     CMgr_D32:CMgr_D32.dll
 0004:00000bc8       __imp_??1CRegenSol@@UAE@XZ 100c7bc8     CMgr_D32:CMgr_D32.dll
 0004:00000bcc       __imp_?UpdateSolids@CRegenSol@@QAEHPAVCDrNode@@@Z 100c7bcc     CMgr_D32:CMgr_D32.dll
 0004:00000bd0       __imp_??0CRegenSol@@QAE@XZ 100c7bd0     CMgr_D32:CMgr_D32.dll
 0004:00000bd4       __imp_?UpdatePatches@CRegenPat@@QAEHPAVCDrNode@@@Z 100c7bd4     CMgr_D32:CMgr_D32.dll
 0004:00000bd8       __imp_??0CRegenPat@@QAE@XZ 100c7bd8     CMgr_D32:CMgr_D32.dll
 0004:00000bdc       __imp_?UpdateCurves@CRegenCur@@QAEHPAVCDrNode@@@Z 100c7bdc     CMgr_D32:CMgr_D32.dll
 0004:00000be0       __imp_??0CRegenCur@@QAE@XZ 100c7be0     CMgr_D32:CMgr_D32.dll
 0004:00000be4       __imp_?UpdateNode@CRegenNod@@QAEHPAVCDrNode@@@Z 100c7be4     CMgr_D32:CMgr_D32.dll
 0004:00000be8       __imp_??0CRegenNod@@QAE@XZ 100c7be8     CMgr_D32:CMgr_D32.dll
 0004:00000bec       __imp_??1CNodCreOp@@UAE@XZ 100c7bec     CMgr_D32:CMgr_D32.dll
 0004:00000bf0       __imp_?ShowNodeToSpawn@CNodCreOp@@QAEHPAVCDrNode@@H@Z 100c7bf0     CMgr_D32:CMgr_D32.dll
 0004:00000bf4       __imp_??0CNodCreOp@@QAE@XZ 100c7bf4     CMgr_D32:CMgr_D32.dll
 0004:00000bf8       __imp_?SetUpLocalM_XLATE@CNodCreOp@@QAEXXZ 100c7bf8     CMgr_D32:CMgr_D32.dll
 0004:00000bfc       \177CMgr_D32_NULL_THUNK_DATA 100c7bfc     CMgr_D32:CMgr_D32.dll
 0004:00000c34       __imp_?GetRuntimeClass@CXForm@@UBEPAUCRuntimeClass@@XZ 100c7c34     Dr3D_D32:Dr3D_D32.dll
 0004:00000c38       __imp_?Serialize@CXForm@@UAEXAAVCArchive@@@Z 100c7c38     Dr3D_D32:Dr3D_D32.dll
 0004:00000c3c       __imp_?Reflect@CXForm@@UAEXPAUMATRIX@@UWORLD@@N@Z 100c7c3c     Dr3D_D32:Dr3D_D32.dll
 0004:00000c40       __imp_?Scale@CXForm@@UAEXPAUMATRIX@@NNNW4XFMODE@@@Z 100c7c40     Dr3D_D32:Dr3D_D32.dll
 0004:00000c44       __imp_?Shear_X@CXForm@@UAEXPAUMATRIX@@NNW4XFMODE@@@Z 100c7c44     Dr3D_D32:Dr3D_D32.dll
 0004:00000c48       __imp_?Shear_Y@CXForm@@UAEXPAUMATRIX@@NNW4XFMODE@@@Z 100c7c48     Dr3D_D32:Dr3D_D32.dll
 0004:00000c4c       __imp_?Shear_Z@CXForm@@UAEXPAUMATRIX@@NNW4XFMODE@@@Z 100c7c4c     Dr3D_D32:Dr3D_D32.dll
 0004:00000c50       __imp_?Rotate_X@CXForm@@UAEXPAUMATRIX@@NW4XFMODE@@@Z 100c7c50     Dr3D_D32:Dr3D_D32.dll
 0004:00000c54       __imp_?Rotate_Y@CXForm@@UAEXPAUMATRIX@@NW4XFMODE@@@Z 100c7c54     Dr3D_D32:Dr3D_D32.dll
 0004:00000c58       __imp_?Rotate_Z@CXForm@@UAEXPAUMATRIX@@NW4XFMODE@@@Z 100c7c58     Dr3D_D32:Dr3D_D32.dll
 0004:00000c5c       __imp_?Translate@CXForm@@UAEXPAUMATRIX@@NNNW4XFMODE@@@Z 100c7c5c     Dr3D_D32:Dr3D_D32.dll
 0004:00000c60       __imp_?RotateAboutLineMATRIX@CXForm@@UAEXPAUMATRIX@@PAUWORLD@@1NW4XFMODE@@@Z 100c7c60     Dr3D_D32:Dr3D_D32.dll
 0004:00000c64       __imp_?HeadToNewZLocMATRIX@CXForm@@UAEXPAUWORLD@@0PAUMATRIX@@W4XFMODE@@@Z 100c7c64     Dr3D_D32:Dr3D_D32.dll
 0004:00000c68       __imp_?RotateToNewZMATRIX@CXForm@@UAEXPAUWORLD@@PAUMATRIX@@W4XFMODE@@@Z 100c7c68     Dr3D_D32:Dr3D_D32.dll
 0004:00000c6c       __imp_?HeadToNewYLocMATRIX@CXForm@@UAEXPAUWORLD@@0PAUMATRIX@@W4XFMODE@@@Z 100c7c6c     Dr3D_D32:Dr3D_D32.dll
 0004:00000c70       __imp_?RotateToNewYMATRIX@CXForm@@UAEXPAUWORLD@@PAUMATRIX@@W4XFMODE@@@Z 100c7c70     Dr3D_D32:Dr3D_D32.dll
 0004:00000c74       __imp_?HeadToNewXLocMATRIX@CXForm@@UAEXPAUWORLD@@0PAUMATRIX@@W4XFMODE@@@Z 100c7c74     Dr3D_D32:Dr3D_D32.dll
 0004:00000c78       __imp_?RotateToNewXMATRIX@CXForm@@UAEXPAUWORLD@@PAUMATRIX@@W4XFMODE@@@Z 100c7c78     Dr3D_D32:Dr3D_D32.dll
 0004:00000c7c       __imp_?VRCtoWORLDRotationMATRIX@CXForm@@UAEXPAUMATRIX@@PAUWORLD@@1@Z 100c7c7c     Dr3D_D32:Dr3D_D32.dll
 0004:00000c80       __imp_?ComposeLocalMATRIX@CXForm@@UAEXPAUMATRIX@@NNNNNNNNNNNN@Z 100c7c80     Dr3D_D32:Dr3D_D32.dll
 0004:00000c84       __imp_?ComposeViewMATRIX@CXForm@@UAENPAUMATRIX@@UWORLD@@1111NNNN@Z 100c7c84     Dr3D_D32:Dr3D_D32.dll
 0004:00000c88       __imp_?PerToParCVVMATRIX@CXForm@@UAEXPAUMATRIX@@N@Z 100c7c88     Dr3D_D32:Dr3D_D32.dll
 0004:00000c8c       __imp_?ALT_ComposeViewMATRIX@CXForm@@UAEHPAUMATRIX@@UWORLD@@1111NNNN@Z 100c7c8c     Dr3D_D32:Dr3D_D32.dll
 0004:00000c90       __imp_?SetVOMATRIX@CXForm@@UAEXPAUMATRIX@@UWORLD@@11@Z 100c7c90     Dr3D_D32:Dr3D_D32.dll
 0004:00000c94       __imp_?Par_SetVMMATRIX@CXForm@@UAEXPAUMATRIX@@UWORLD@@1NNNN@Z 100c7c94     Dr3D_D32:Dr3D_D32.dll
 0004:00000c98       __imp_?Per_SetVMMATRIX@CXForm@@UAENPAUMATRIX@@UWORLD@@1NNNN@Z 100c7c98     Dr3D_D32:Dr3D_D32.dll
 0004:00000c9c       __imp_?ComposeCombineMATRIX@CXForm@@UAEXPAUMATRIX@@00@Z 100c7c9c     Dr3D_D32:Dr3D_D32.dll
 0004:00000ca0       __imp_?Transform@CXForm@@UAEXPAUWORLD@@0PAUMATRIX@@@Z 100c7ca0     Dr3D_D32:Dr3D_D32.dll
 0004:00000ca4       __imp_?TransformPerToParCVV@CXForm@@UAEXNPAUWORLD@@0@Z 100c7ca4     Dr3D_D32:Dr3D_D32.dll
 0004:00000ca8       __imp_?ComposeWin3DtoScreen3DMATRIX@CXForm@@UAEXPAUMATRIX@@UWORLD@@1@Z 100c7ca8     Dr3D_D32:Dr3D_D32.dll
 0004:00000cac       __imp_?Project@CXForm@@UAEXPAUMATRIX@@PAUWORLD@@1@Z 100c7cac     Dr3D_D32:Dr3D_D32.dll
 0004:00000cb0       __imp_?Sub3DPts@C3DMath@@QAEXPAUWORLD@@00@Z 100c7cb0     Dr3D_D32:Dr3D_D32.dll
 0004:00000cb4       __imp_?Normalize@C3DMath@@QAEXPAUWORLD@@0@Z 100c7cb4     Dr3D_D32:Dr3D_D32.dll
 0004:00000cb8       __imp_??0C3DMath@@QAE@XZ   100c7cb8     Dr3D_D32:Dr3D_D32.dll
 0004:00000cbc       __imp_?BlockCopy@C3DMath@@QAEXPAD0K@Z 100c7cbc     Dr3D_D32:Dr3D_D32.dll
 0004:00000cc0       __imp_?GetRuntimeClass@C3DMath@@UBEPAUCRuntimeClass@@XZ 100c7cc0     Dr3D_D32:Dr3D_D32.dll
 0004:00000cc4       __imp_?Serialize@C3DMath@@UAEXAAVCArchive@@@Z 100c7cc4     Dr3D_D32:Dr3D_D32.dll
 0004:00000cc8       \177Dr3D_D32_NULL_THUNK_DATA 100c7cc8     Dr3D_D32:Dr3D_D32.dll
 0004:00000d10       __imp_?GetRuntimeClass@CDrLabel@@UBEPAUCRuntimeClass@@XZ 100c7d10     Draw_D32:Draw_D32.dll
 0004:00000d14       __imp_?Serialize@CDrLabel@@UAEXAAVCArchive@@@Z 100c7d14     Draw_D32:Draw_D32.dll
 0004:00000d18       __imp_?DoDataView@CDrLabel@@UAEXPAVCDC@@H@Z 100c7d18     Draw_D32:Draw_D32.dll
 0004:00000d1c       __imp_?InitDraw@CDrLabel@@UAEXPAVCDC@@HHPAUMATRIX@@1NNN@Z 100c7d1c     Draw_D32:Draw_D32.dll
 0004:00000d20       __imp_?Corner_3Dto2D@CDrLabel@@UAEXXZ 100c7d20     Draw_D32:Draw_D32.dll
 0004:00000d24       __imp_?DoDrawView@CDrLabel@@UAEXPAVCDC@@HH@Z 100c7d24     Draw_D32:Draw_D32.dll
 0004:00000d28       __imp_?DealObjectDialog@CDrLabel@@UAEHXZ 100c7d28     Draw_D32:Draw_D32.dll
 0004:00000d2c       __imp_?FinishObject@CDrLabel@@UAEXPAVCClientDC@@H@Z 100c7d2c     Draw_D32:Draw_D32.dll
 0004:00000d30       __imp_?GetRawCoords@CDrLabel@@UAEXPAJPAHH@Z 100c7d30     Draw_D32:Draw_D32.dll
 0004:00000d34       __imp_?IsObjectHit@CDrLabel@@UAEHPAVCClientDC@@HUtagPOINT@@PAVCRect@@H@Z 100c7d34     Draw_D32:Draw_D32.dll
 0004:00000d38       __imp_?IsKeyMatch@CDrLabel@@UAEHPAVCDrObject@@VCString@@I@Z 100c7d38     Draw_D32:Draw_D32.dll
 0004:00000d3c       __imp_?SetObjectInfo@CDrLabel@@UAEXPAVCDrObject@@@Z 100c7d3c     Draw_D32:Draw_D32.dll
 0004:00000d40       __imp_?GetObjectInfo@CDrLabel@@UAEXPAVCDrObject@@@Z 100c7d40     Draw_D32:Draw_D32.dll
 0004:00000d44       __imp_?GetCorner@CDrLabel@@UAE?AUtagPOINT@@H@Z 100c7d44     Draw_D32:Draw_D32.dll
 0004:00000d48       __imp_?SetCorner@CDrLabel@@UAEXUtagPOINT@@H@Z 100c7d48     Draw_D32:Draw_D32.dll
 0004:00000d4c       __imp_?Pack_drPipe@CDrLabel@@UAEXPAVCString@@@Z 100c7d4c     Draw_D32:Draw_D32.dll
 0004:00000d50       \177Draw_D32_NULL_THUNK_DATA 100c7d50     Draw_D32:Draw_D32.dll
 0004:00000d88       __imp_?Serialize@CElemInfo@@UAEXAAVCArchive@@@Z 100c7d88     Elem_D32:Elem_D32.dll
 0004:00000d8c       __imp_?DoDataView@CElemInfo@@UAEXPAVCDC@@H@Z 100c7d8c     Elem_D32:Elem_D32.dll
 0004:00000d90       __imp_?Pack_drPipe@CElemInfo@@UAEXPAVCString@@@Z 100c7d90     Elem_D32:Elem_D32.dll
 0004:00000d94       __imp_?GetObjectInfo@CElemInfo@@UAEXPAVCDrObject@@@Z 100c7d94     Elem_D32:Elem_D32.dll
 0004:00000d98       __imp_?SetObjectInfo@CElemInfo@@UAEXPAVCDrObject@@@Z 100c7d98     Elem_D32:Elem_D32.dll
 0004:00000d9c       __imp_?ReadDefault@CElemInfo@@UAEXXZ 100c7d9c     Elem_D32:Elem_D32.dll
 0004:00000da0       __imp_?Init@CElemInfo@@UAEXXZ 100c7da0     Elem_D32:Elem_D32.dll
 0004:00000da4       __imp_?GetRuntimeClass@CElemInfo@@UBEPAUCRuntimeClass@@XZ 100c7da4     Elem_D32:Elem_D32.dll
 0004:00000da8       \177Elem_D32_NULL_THUNK_DATA 100c7da8     Elem_D32:Elem_D32.dll
 0004:00000dd8       __imp_?SubclassDlgItem@CWnd@@QAEHIPAV1@@Z 100c7dd8     mfc42d:MFC42D.DLL
 0004:00000ddc       __imp_?SizeToContent@CBitmapButton@@QAEXXZ 100c7ddc     mfc42d:MFC42D.DLL
 0004:00000de0       __imp_?GetDlgItem@CWnd@@QBEPAV1@H@Z 100c7de0     mfc42d:MFC42D.DLL
 0004:00000de4       __imp_?SetCheck@CButton@@QAEXH@Z 100c7de4     mfc42d:MFC42D.DLL
 0004:00000de8       __imp_?SetWindowTextA@CWnd@@QAEXPBD@Z 100c7de8     mfc42d:MFC42D.DLL
 0004:00000dec       __imp_?UpdateData@CWnd@@QAEHH@Z 100c7dec     mfc42d:MFC42D.DLL
 0004:00000df0       __imp_?messageMap@CDialog@@1UAFX_MSGMAP@@B 100c7df0     mfc42d:MFC42D.DLL
 0004:00000df4       __imp_?DoDataExchange@CWnd@@MAEXPAVCDataExchange@@@Z 100c7df4     mfc42d:MFC42D.DLL
 0004:00000df8       __imp_?DDX_Text@@YGXPAVCDataExchange@@HAAVCString@@@Z 100c7df8     mfc42d:MFC42D.DLL
 0004:00000dfc       __imp_?DDX_CBString@@YGXPAVCDataExchange@@HAAVCString@@@Z 100c7dfc     mfc42d:MFC42D.DLL
 0004:00000e00       __imp_?DDX_Text@@YGXPAVCDataExchange@@HAAN@Z 100c7e00     mfc42d:MFC42D.DLL
 0004:00000e04       __imp_??0CDialog@@QAE@IPAVCWnd@@@Z 100c7e04     mfc42d:MFC42D.DLL
 0004:00000e08       __imp_??0CBitmapButton@@QAE@XZ 100c7e08     mfc42d:MFC42D.DLL
 0004:00000e0c       __imp_?LoadBitmaps@CBitmapButton@@QAEHPBD000@Z 100c7e0c     mfc42d:MFC42D.DLL
 0004:00000e10       __imp_?GetRuntimeClass@CDialog@@UBEPAUCRuntimeClass@@XZ 100c7e10     mfc42d:MFC42D.DLL
 0004:00000e14       __imp_?AssertValid@CDialog@@UBEXXZ 100c7e14     mfc42d:MFC42D.DLL
 0004:00000e18       __imp_?Dump@CDialog@@UBEXAAVCDumpContext@@@Z 100c7e18     mfc42d:MFC42D.DLL
 0004:00000e1c       __imp_?OnCmdMsg@CDialog@@UAEHIHPAXPAUAFX_CMDHANDLERINFO@@@Z 100c7e1c     mfc42d:MFC42D.DLL
 0004:00000e20       __imp_?OnFinalRelease@CWnd@@UAEXXZ 100c7e20     mfc42d:MFC42D.DLL
 0004:00000e24       __imp_?IsInvokeAllowed@CCmdTarget@@UAEHJ@Z 100c7e24     mfc42d:MFC42D.DLL
 0004:00000e28       __imp_?GetDispatchIID@CCmdTarget@@UAEHPAU_GUID@@@Z 100c7e28     mfc42d:MFC42D.DLL
 0004:00000e2c       __imp_?GetTypeInfoCount@CCmdTarget@@UAEIXZ 100c7e2c     mfc42d:MFC42D.DLL
 0004:00000e30       __imp_?GetTypeLibCache@CCmdTarget@@UAEPAVCTypeLibCache@@XZ 100c7e30     mfc42d:MFC42D.DLL
 0004:00000e34       __imp_?GetTypeLib@CCmdTarget@@UAEJKPAPAUITypeLib@@@Z 100c7e34     mfc42d:MFC42D.DLL
 0004:00000e38       __imp_?GetCommandMap@CCmdTarget@@MBEPBUAFX_OLECMDMAP@@XZ 100c7e38     mfc42d:MFC42D.DLL
 0004:00000e3c       __imp_?GetDispatchMap@CCmdTarget@@MBEPBUAFX_DISPMAP@@XZ 100c7e3c     mfc42d:MFC42D.DLL
 0004:00000e40       __imp_?GetConnectionMap@CCmdTarget@@MBEPBUAFX_CONNECTIONMAP@@XZ 100c7e40     mfc42d:MFC42D.DLL
 0004:00000e44       __imp_?GetInterfaceMap@CCmdTarget@@MBEPBUAFX_INTERFACEMAP@@XZ 100c7e44     mfc42d:MFC42D.DLL
 0004:00000e48       __imp_?GetEventSinkMap@CCmdTarget@@MBEPBUAFX_EVENTSINKMAP@@XZ 100c7e48     mfc42d:MFC42D.DLL
 0004:00000e4c       __imp_?OnCreateAggregates@CCmdTarget@@UAEHXZ 100c7e4c     mfc42d:MFC42D.DLL
 0004:00000e50       __imp_?GetInterfaceHook@CCmdTarget@@UAEPAUIUnknown@@PBX@Z 100c7e50     mfc42d:MFC42D.DLL
 0004:00000e54       __imp_?GetExtraConnectionPoints@CCmdTarget@@MAEHPAVCPtrArray@@@Z 100c7e54     mfc42d:MFC42D.DLL
 0004:00000e58       __imp_?GetConnectionHook@CCmdTarget@@MAEPAUIConnectionPoint@@ABU_GUID@@@Z 100c7e58     mfc42d:MFC42D.DLL
 0004:00000e5c       __imp_?PreSubclassWindow@CWnd@@UAEXXZ 100c7e5c     mfc42d:MFC42D.DLL
 0004:00000e60       __imp_?Create@CWnd@@UAEHPBD0KABUtagRECT@@PAV1@IPAUCCreateContext@@@Z 100c7e60     mfc42d:MFC42D.DLL
 0004:00000e64       __imp_?DestroyWindow@CWnd@@UAEHXZ 100c7e64     mfc42d:MFC42D.DLL
 0004:00000e68       __imp_?PreCreateWindow@CWnd@@UAEHAAUtagCREATESTRUCTA@@@Z 100c7e68     mfc42d:MFC42D.DLL
 0004:00000e6c       __imp_?CalcWindowRect@CWnd@@UAEXPAUtagRECT@@I@Z 100c7e6c     mfc42d:MFC42D.DLL
 0004:00000e70       __imp_?OnToolHitTest@CWnd@@UBEHVCPoint@@PAUtagTOOLINFOA@@@Z 100c7e70     mfc42d:MFC42D.DLL
 0004:00000e74       __imp_?GetScrollBarCtrl@CWnd@@UBEPAVCScrollBar@@H@Z 100c7e74     mfc42d:MFC42D.DLL
 0004:00000e78       __imp_?WinHelpA@CWnd@@UAEXKI@Z 100c7e78     mfc42d:MFC42D.DLL
 0004:00000e7c       __imp_?ContinueModal@CWnd@@UAEHXZ 100c7e7c     mfc42d:MFC42D.DLL
 0004:00000e80       __imp_?EndModalLoop@CWnd@@UAEXH@Z 100c7e80     mfc42d:MFC42D.DLL
 0004:00000e84       __imp_?OnInitDialog@CDialog@@UAEHXZ 100c7e84     mfc42d:MFC42D.DLL
 0004:00000e88       __imp_?TrimLeft@CString@@QAEXXZ 100c7e88     mfc42d:MFC42D.DLL
 0004:00000e8c       __imp_?GetSuperWndProcAddr@CWnd@@MAEPAP6GJPAUHWND__@@IIJ@ZXZ 100c7e8c     mfc42d:MFC42D.DLL
 0004:00000e90       __imp_?BeginModalState@CWnd@@UAEXXZ 100c7e90     mfc42d:MFC42D.DLL
 0004:00000e94       __imp_?EndModalState@CWnd@@UAEXXZ 100c7e94     mfc42d:MFC42D.DLL
 0004:00000e98       __imp_?PreTranslateMessage@CDialog@@UAEHPAUtagMSG@@@Z 100c7e98     mfc42d:MFC42D.DLL
 0004:00000e9c       __imp_?OnAmbientProperty@CWnd@@UAEHPAVCOleControlSite@@JPAUtagVARIANT@@@Z 100c7e9c     mfc42d:MFC42D.DLL
 0004:00000ea0       __imp_?WindowProc@CWnd@@MAEJIIJ@Z 100c7ea0     mfc42d:MFC42D.DLL
 0004:00000ea4       __imp_?OnWndMsg@CWnd@@MAEHIIJPAJ@Z 100c7ea4     mfc42d:MFC42D.DLL
 0004:00000ea8       __imp_?DefWindowProcA@CWnd@@MAEJIIJ@Z 100c7ea8     mfc42d:MFC42D.DLL
 0004:00000eac       __imp_?PostNcDestroy@CWnd@@MAEXXZ 100c7eac     mfc42d:MFC42D.DLL
 0004:00000eb0       __imp_?OnChildNotify@CWnd@@MAEHIIJPAJ@Z 100c7eb0     mfc42d:MFC42D.DLL
 0004:00000eb4       __imp_?CheckAutoCenter@CDialog@@UAEHXZ 100c7eb4     mfc42d:MFC42D.DLL
 0004:00000eb8       __imp_?IsFrameWnd@CWnd@@UBEHXZ 100c7eb8     mfc42d:MFC42D.DLL
 0004:00000ebc       __imp_?SetOccDialogInfo@CDialog@@MAEHPAU_AFX_OCC_DIALOG_INFO@@@Z 100c7ebc     mfc42d:MFC42D.DLL
 0004:00000ec0       __imp_?DoModal@CDialog@@UAEHXZ 100c7ec0     mfc42d:MFC42D.DLL
 0004:00000ec4       __imp_?OnSetFont@CDialog@@UAEXPAVCFont@@@Z 100c7ec4     mfc42d:MFC42D.DLL
 0004:00000ec8       __imp_?PreInitDialog@CDialog@@MAEXXZ 100c7ec8     mfc42d:MFC42D.DLL
 0004:00000ecc       __imp_??1CBitmap@@UAE@XZ   100c7ecc     mfc42d:MFC42D.DLL
 0004:00000ed0       __imp_??1CButton@@UAE@XZ   100c7ed0     mfc42d:MFC42D.DLL
 0004:00000ed4       __imp_?Create@CPlex@@SGPAU1@AAPAU1@II@Z 100c7ed4     mfc42d:MFC42D.DLL
 0004:00000ed8       __imp_?Write@CArchive@@QAEXPBXI@Z 100c7ed8     mfc42d:MFC42D.DLL
 0004:00000edc       __imp_?Read@CArchive@@QAEIPAXI@Z 100c7edc     mfc42d:MFC42D.DLL
 0004:00000ee0       __imp_?FreeDataChain@CPlex@@QAEXXZ 100c7ee0     mfc42d:MFC42D.DLL
 0004:00000ee4       __imp_??6CDumpContext@@QAEAAV0@PBD@Z 100c7ee4     mfc42d:MFC42D.DLL
 0004:00000ee8       __imp_??6CDumpContext@@QAEAAV0@H@Z 100c7ee8     mfc42d:MFC42D.DLL
 0004:00000eec       __imp_?GetDepth@CDumpContext@@QBEHXZ 100c7eec     mfc42d:MFC42D.DLL
 0004:00000ef0       __imp_?AfxAssertValidObject@@YGXPBVCObject@@PBDH@Z 100c7ef0     mfc42d:MFC42D.DLL
 0004:00000ef4       __imp_?SetFocus@CWnd@@QAEPAV1@XZ 100c7ef4     mfc42d:MFC42D.DLL
 0004:00000ef8       __imp_??8@YG_NABVCString@@0@Z 100c7ef8     mfc42d:MFC42D.DLL
 0004:00000efc       __imp_?OnOK@CDialog@@MAEXXZ 100c7efc     mfc42d:MFC42D.DLL
 0004:00000f00       __imp_?GetText@CListBox@@QBEXHAAVCString@@@Z 100c7f00     mfc42d:MFC42D.DLL
 0004:00000f04       __imp_?WriteCount@CArchive@@QAEXK@Z 100c7f04     mfc42d:MFC42D.DLL
 0004:00000f08       __imp_?GetCurSel@CListBox@@QBEHXZ 100c7f08     mfc42d:MFC42D.DLL
 0004:00000f0c       __imp_?FindStringExact@CComboBox@@QBEHHPBD@Z 100c7f0c     mfc42d:MFC42D.DLL
 0004:00000f10       __imp_?AddString@CListBox@@QAEHPBD@Z 100c7f10     mfc42d:MFC42D.DLL
 0004:00000f14       __imp_?AddString@CComboBox@@QAEHPBD@Z 100c7f14     mfc42d:MFC42D.DLL
 0004:00000f18       __imp_?ResetContent@CComboBox@@QAEXXZ 100c7f18     mfc42d:MFC42D.DLL
 0004:00000f1c       __imp_?DeleteString@CListBox@@QAEHI@Z 100c7f1c     mfc42d:MFC42D.DLL
 0004:00000f20       __imp_?GetCount@CListBox@@QBEHXZ 100c7f20     mfc42d:MFC42D.DLL
 0004:00000f24       __imp_?AddTail@CObList@@QAEPAU__POSITION@@PAVCObject@@@Z 100c7f24     mfc42d:MFC42D.DLL
 0004:00000f28       __imp_?OnHelpInfo@CWnd@@IAEHPAUtagHELPINFO@@@Z 100c7f28     mfc42d:MFC42D.DLL
 0004:00000f2c       __imp_??9@YG_NABVCString@@0@Z 100c7f2c     mfc42d:MFC42D.DLL
 0004:00000f30       __imp_??2CObject@@SGPAXI@Z 100c7f30     mfc42d:MFC42D.DLL
 0004:00000f34       __imp_?classCObject@CObject@@2UCRuntimeClass@@B 100c7f34     mfc42d:MFC42D.DLL
 0004:00000f38       __imp_?SetCurSel@CComboBox@@QAEHH@Z 100c7f38     mfc42d:MFC42D.DLL
 0004:00000f3c       __imp_?EnableWindow@CWnd@@QAEHH@Z 100c7f3c     mfc42d:MFC42D.DLL
 0004:00000f40       __imp_?SetCurSel@CListBox@@QAEHH@Z 100c7f40     mfc42d:MFC42D.DLL
 0004:00000f44       __imp_?FindStringExact@CListBox@@QBEHHPBD@Z 100c7f44     mfc42d:MFC42D.DLL
 0004:00000f48       __imp_?OnCancel@CDialog@@MAEXXZ 100c7f48     mfc42d:MFC42D.DLL
 0004:00000f4c       __imp_??8@YG_NABVCString@@PBD@Z 100c7f4c     mfc42d:MFC42D.DLL
 0004:00000f50       __imp_?Left@CString@@QBE?AV1@H@Z 100c7f50     mfc42d:MFC42D.DLL
 0004:00000f54       __imp_?OnCommand@CWnd@@MAEHIJ@Z 100c7f54     mfc42d:MFC42D.DLL
 0004:00000f58       __imp_?GetLength@CString@@QBEHXZ 100c7f58     mfc42d:MFC42D.DLL
 0004:00000f5c       __imp_??3@YAXPAXPBDH@Z     100c7f5c     mfc42d:MFC42D.DLL
 0004:00000f60       __imp_?AfxGetApp@@YGPAVCWinApp@@XZ 100c7f60     mfc42d:MFC42D.DLL
 0004:00000f64       __imp_??0CObject@@IAE@XZ   100c7f64     mfc42d:MFC42D.DLL
 0004:00000f68       __imp_?AfxSetResourceHandle@@YGXPAUHINSTANCE__@@@Z 100c7f68     mfc42d:MFC42D.DLL
 0004:00000f6c       __imp_?AfxGetResourceHandle@@YGPAUHINSTANCE__@@XZ 100c7f6c     mfc42d:MFC42D.DLL
 0004:00000f70       __imp_?LoadStringA@CString@@QAEHI@Z 100c7f70     mfc42d:MFC42D.DLL
 0004:00000f74       __imp_?LoadCursorA@CWinApp@@QBEPAUHICON__@@I@Z 100c7f74     mfc42d:MFC42D.DLL
 0004:00000f78       __imp_?LoadStandardCursor@CWinApp@@QBEPAUHICON__@@PBD@Z 100c7f78     mfc42d:MFC42D.DLL
 0004:00000f7c       __imp_?AfxGetModuleState@@YGPAVAFX_MODULE_STATE@@XZ 100c7f7c     mfc42d:MFC42D.DLL
 0004:00000f80       __imp_??0CDynLinkLibrary@@QAE@AAUAFX_EXTENSION_MODULE@@H@Z 100c7f80     mfc42d:MFC42D.DLL
 0004:00000f84       __imp_?AfxInitExtensionModule@@YGHAAUAFX_EXTENSION_MODULE@@PAUHINSTANCE__@@@Z 100c7f84     mfc42d:MFC42D.DLL
 0004:00000f88       __imp_?UpdateAllViews@CDocument@@QAEXPAVCView@@JPAVCObject@@@Z 100c7f88     mfc42d:MFC42D.DLL
 0004:00000f8c       __imp_??H@YG?AVCString@@ABV0@PBD@Z 100c7f8c     mfc42d:MFC42D.DLL
 0004:00000f90       __imp_??H@YG?AVCString@@PBDABV0@@Z 100c7f90     mfc42d:MFC42D.DLL
 0004:00000f94       __imp_?UpdateWindow@CWnd@@QAEXXZ 100c7f94     mfc42d:MFC42D.DLL
 0004:00000f98       __imp_?Invalidate@CWnd@@QAEXH@Z 100c7f98     mfc42d:MFC42D.DLL
 0004:00000f9c       __imp_?ClientToScreen@CWnd@@QBEXPAUtagPOINT@@@Z 100c7f9c     mfc42d:MFC42D.DLL
 0004:00000fa0       __imp_?SetCapture@CWnd@@QAEPAV1@XZ 100c7fa0     mfc42d:MFC42D.DLL
 0004:00000fa4       __imp_?DeleteObject@CGdiObject@@QAEHXZ 100c7fa4     mfc42d:MFC42D.DLL
 0004:00000fa8       __imp_?LineTo@CDC@@QAEHUtagPOINT@@@Z 100c7fa8     mfc42d:MFC42D.DLL
 0004:00000fac       __imp_?MoveTo@CDC@@QAE?AVCPoint@@UtagPOINT@@@Z 100c7fac     mfc42d:MFC42D.DLL
 0004:00000fb0       __imp_?SetROP2@CDC@@QAEHH@Z 100c7fb0     mfc42d:MFC42D.DLL
 0004:00000fb4       __imp_?SelectObject@CDC@@QAEPAVCPen@@PAV2@@Z 100c7fb4     mfc42d:MFC42D.DLL
 0004:00000fb8       __imp_?CreatePen@CPen@@QAEHHHK@Z 100c7fb8     mfc42d:MFC42D.DLL
 0004:00000fbc       __imp_?SetBkMode@CDC@@QAEHH@Z 100c7fbc     mfc42d:MFC42D.DLL
 0004:00000fc0       __imp_??0CPen@@QAE@XZ      100c7fc0     mfc42d:MFC42D.DLL
 0004:00000fc4       __imp_??5CArchive@@QAEAAV0@AAG@Z 100c7fc4     mfc42d:MFC42D.DLL
 0004:00000fc8       __imp_??5CArchive@@QAEAAV0@AAE@Z 100c7fc8     mfc42d:MFC42D.DLL
 0004:00000fcc       __imp_??6CArchive@@QAEAAV0@G@Z 100c7fcc     mfc42d:MFC42D.DLL
 0004:00000fd0       __imp_??6CArchive@@QAEAAV0@E@Z 100c7fd0     mfc42d:MFC42D.DLL
 0004:00000fd4       __imp_?IsEmpty@CObList@@QBEHXZ 100c7fd4     mfc42d:MFC42D.DLL
 0004:00000fd8       __imp_??YCString@@QAEABV0@ABV0@@Z 100c7fd8     mfc42d:MFC42D.DLL
 0004:00000fdc       __imp_?GetHead@CObList@@QAEAAPAVCObject@@XZ 100c7fdc     mfc42d:MFC42D.DLL
 0004:00000fe0       __imp_?GetTail@CObList@@QAEAAPAVCObject@@XZ 100c7fe0     mfc42d:MFC42D.DLL
 0004:00000fe4       __imp_??9@YG_NABVCString@@PBD@Z 100c7fe4     mfc42d:MFC42D.DLL
 0004:00000fe8       __imp_?AfxMessageBox@@YGHPBDII@Z 100c7fe8     mfc42d:MFC42D.DLL
 0004:00000fec       __imp_??BCString@@QBEPBDXZ 100c7fec     mfc42d:MFC42D.DLL
 0004:00000ff0       __imp_?GetBuffer@CString@@QAEPADH@Z 100c7ff0     mfc42d:MFC42D.DLL
 0004:00000ff4       __imp_??0CString@@QAE@XZ   100c7ff4     mfc42d:MFC42D.DLL
 0004:00000ff8       __imp_?ReadObject@CArchive@@QAEPAVCObject@@PBUCRuntimeClass@@@Z 100c7ff8     mfc42d:MFC42D.DLL
 0004:00000ffc       __imp_?AfxClassInit@@YGXPAUCRuntimeClass@@@Z 100c7ffc     mfc42d:MFC42D.DLL
 0004:00001000       __imp_??2CObject@@SGPAXIPBDH@Z 100c8000     mfc42d:MFC42D.DLL
 0004:00001004       __imp_??3CObject@@SGXPAXPBDH@Z 100c8004     mfc42d:MFC42D.DLL
 0004:00001008       __imp_??1CPen@@UAE@XZ      100c8008     mfc42d:MFC42D.DLL
 0004:0000100c       __imp_??2@YAPAXI@Z         100c800c     mfc42d:MFC42D.DLL
 0004:00001010       __imp_?Serialize@CObject@@UAEXAAVCArchive@@@Z 100c8010     mfc42d:MFC42D.DLL
 0004:00001014       __imp_??4CString@@QAEABV0@ABV0@@Z 100c8014     mfc42d:MFC42D.DLL
 0004:00001018       __imp_??0CString@@QAE@ABV0@@Z 100c8018     mfc42d:MFC42D.DLL
 0004:0000101c       __imp_??3@YAXPAX@Z         100c801c     mfc42d:MFC42D.DLL
 0004:00001020       __imp_??3CObject@@SGXPAX@Z 100c8020     mfc42d:MFC42D.DLL
 0004:00001024       __imp_??1CObject@@UAE@XZ   100c8024     mfc42d:MFC42D.DLL
 0004:00001028       __imp_?AssertValid@CObject@@UBEXXZ 100c8028     mfc42d:MFC42D.DLL
 0004:0000102c       __imp_?Dump@CObject@@UBEXAAVCDumpContext@@@Z 100c802c     mfc42d:MFC42D.DLL
 0004:00001030       __imp_??1CString@@QAE@XZ   100c8030     mfc42d:MFC42D.DLL
 0004:00001034       __imp_??1CDialog@@UAE@XZ   100c8034     mfc42d:MFC42D.DLL
 0004:00001038       __imp_??2@YAPAXIPBDH@Z     100c8038     mfc42d:MFC42D.DLL
 0004:0000103c       __imp_?GetCount@CObList@@QBEHXZ 100c803c     mfc42d:MFC42D.DLL
 0004:00001040       __imp_?DPtoLP@CDC@@QBEXPAUtagPOINT@@H@Z 100c8040     mfc42d:MFC42D.DLL
 0004:00001044       __imp_?AfxGetMainWnd@@YGPAVCWnd@@XZ 100c8044     mfc42d:MFC42D.DLL
 0004:00001048       __imp_??0CPoint@@QAE@UtagPOINT@@@Z 100c8048     mfc42d:MFC42D.DLL
 0004:0000104c       __imp_?LPtoDP@CDC@@QBEXPAUtagPOINT@@H@Z 100c804c     mfc42d:MFC42D.DLL
 0004:00001050       __imp_?GetHeadPosition@CObList@@QBEPAU__POSITION@@XZ 100c8050     mfc42d:MFC42D.DLL
 0004:00001054       __imp_??0CString@@QAE@PBD@Z 100c8054     mfc42d:MFC42D.DLL
 0004:00001058       __imp_??YCString@@QAEABV0@PBD@Z 100c8058     mfc42d:MFC42D.DLL
 0004:0000105c       __imp_??4CString@@QAEABV0@PBD@Z 100c805c     mfc42d:MFC42D.DLL
 0004:00001060       __imp_?AfxTrace@@YAXPBDZZ  100c8060     mfc42d:MFC42D.DLL
 0004:00001064       __imp_?IsStoring@CArchive@@QBEHXZ 100c8064     mfc42d:MFC42D.DLL
 0004:00001068       __imp_?AfxAssertFailedLine@@YGHPBDH@Z 100c8068     mfc42d:MFC42D.DLL
 0004:0000106c       __imp_?AfxIsValidAddress@@YGHPBXIH@Z 100c806c     mfc42d:MFC42D.DLL
 0004:00001070       __imp_?GetRuntimeClass@CObject@@UBEPAUCRuntimeClass@@XZ 100c8070     mfc42d:MFC42D.DLL
 0004:00001074       __imp_?ReadCount@CArchive@@QAEKXZ 100c8074     mfc42d:MFC42D.DLL
 0004:00001078       __imp_?OnNotify@CWnd@@MAEHIJPAJ@Z 100c8078     mfc42d:MFC42D.DLL
 0004:0000107c       \177MFC42D_NULL_THUNK_DATA 100c807c     mfc42d:MFC42D.DLL
 0004:0000112c       __imp_?WICtoLOG@CMouse@@IAEXPAULPOINT3@@PAULPOINT@@@Z 100c812c     MMgr_D32:MMgr_D32.dll
 0004:00001130       __imp_?WICtoWOP@CMouse@@QAEXJPAN@Z 100c8130     MMgr_D32:MMgr_D32.dll
 0004:00001134       __imp_?SetStatusMouseWIC@CMouseMgr@@QAEXULPOINT3@@@Z 100c8134     MMgr_D32:MMgr_D32.dll
 0004:00001138       __imp_?Serialize@CMouse@@UAEXAAVCArchive@@@Z 100c8138     MMgr_D32:MMgr_D32.dll
 0004:0000113c       __imp_?SetMouseOldWIC@CMouse@@QAEXULPOINT3@@@Z 100c813c     MMgr_D32:MMgr_D32.dll
 0004:00001140       __imp_?SetMouseWIC@CMouse@@QAEXULPOINT3@@@Z 100c8140     MMgr_D32:MMgr_D32.dll
 0004:00001144       __imp_?LOGtoWIC@CMouse@@IAEXPAULPOINT3@@PAULPOINT@@@Z 100c8144     MMgr_D32:MMgr_D32.dll
 0004:00001148       __imp_?WORtoWOP@CMouse@@QAEXPAUWORLD@@0@Z 100c8148     MMgr_D32:MMgr_D32.dll
 0004:0000114c       __imp_??0CMouse@@QAE@XZ    100c814c     MMgr_D32:MMgr_D32.dll
 0004:00001150       __imp_??1CMouse@@UAE@XZ    100c8150     MMgr_D32:MMgr_D32.dll
 0004:00001154       __imp_?classCMouse@CMouse@@2UCRuntimeClass@@A 100c8154     MMgr_D32:MMgr_D32.dll
 0004:00001158       __imp_?WORtoWOP@CMouse@@QAEXPAN0@Z 100c8158     MMgr_D32:MMgr_D32.dll
 0004:0000115c       __imp_?IsObjectHit@CMouse@@IAEHHUtagPOINT@@H@Z 100c815c     MMgr_D32:MMgr_D32.dll
 0004:00001160       \177MMgr_D32_NULL_THUNK_DATA 100c8160     MMgr_D32:MMgr_D32.dll
 0004:00001194       __imp__atof                100c8194     msvcrtd:MSVCRTD.dll
 0004:00001198       __imp__memset              100c8198     msvcrtd:MSVCRTD.dll
 0004:0000119c       __imp__sprintf             100c819c     msvcrtd:MSVCRTD.dll
 0004:000011a0       __imp__sqrt                100c81a0     msvcrtd:MSVCRTD.dll
 0004:000011a4       __imp____CxxFrameHandler   100c81a4     msvcrtd:MSVCRTD.dll
 0004:000011a8       __imp_??1type_info@@UAE@XZ 100c81a8     msvcrtd:MSVCRTD.dll
 0004:000011ac       __imp___except_handler3    100c81ac     msvcrtd:MSVCRTD.dll
 0004:000011b0       __imp_?terminate@@YAXXZ    100c81b0     msvcrtd:MSVCRTD.dll
 0004:000011b4       __imp___free_dbg           100c81b4     msvcrtd:MSVCRTD.dll
 0004:000011b8       __imp___onexit             100c81b8     msvcrtd:MSVCRTD.dll
 0004:000011bc       __imp___initterm           100c81bc     msvcrtd:MSVCRTD.dll
 0004:000011c0       __imp___malloc_dbg         100c81c0     msvcrtd:MSVCRTD.dll
 0004:000011c4       __imp___adjust_fdiv        100c81c4     msvcrtd:MSVCRTD.dll
 0004:000011c8       __imp____dllonexit         100c81c8     msvcrtd:MSVCRTD.dll
 0004:000011cc       __imp___ftol               100c81cc     msvcrtd:MSVCRTD.dll
 0004:000011d0       \177MSVCRTD_NULL_THUNK_DATA 100c81d0     msvcrtd:MSVCRTD.dll
 0004:00001208       __imp_?Get_Values_NonIso_Cur@CSLDCur@@QAEHW4STALPROC@@@Z 100c8208     MStL_D32:MStL_D32.dll
 0004:0000120c       __imp_??0CSLDPat@@QAE@XZ   100c820c     MStL_D32:MStL_D32.dll
 0004:00001210       __imp_?ShowNodeStaticLoad@CSLDNod@@QAEHPAVCDrNode@@PAVCString@@@Z 100c8210     MStL_D32:MStL_D32.dll
 0004:00001214       __imp_?Get_Values@CSLDObj@@QAEHW4STALPROC@@AAVCString@@@Z 100c8214     MStL_D32:MStL_D32.dll
 0004:00001218       __imp_?ShowInfo_NodeStaticLoad@CSLDNod@@QAEHPAVCDrNode@@PADHAAVCString@@@Z 100c8218     MStL_D32:MStL_D32.dll
 0004:0000121c       __imp_?ShowCurveStaticLoad@CSLDCur@@QAEHPAVCDrCurve@@PAVCString@@@Z 100c821c     MStL_D32:MStL_D32.dll
 0004:00001220       __imp_?Generate_IsoCurveControls@CSLDCur@@QAEHPAVCDrCurve@@HPAVCString@@H@Z 100c8220     MStL_D32:MStL_D32.dll
 0004:00001224       __imp_?Get_Values_Iso_Cur@CSLDCur@@QAEHPAVCDrCurve@@W4STALPROC@@HH@Z 100c8224     MStL_D32:MStL_D32.dll
 0004:00001228       __imp_?ShowInfo_CurveStaticLoad@CSLDCur@@QAEHPAVCDrCurve@@PADHAAVCString@@@Z 100c8228     MStL_D32:MStL_D32.dll
 0004:0000122c       __imp_?ShowPatchStaticLoad@CSLDPat@@QAEHPAVCDrPatch@@PAVCString@@@Z 100c822c     MStL_D32:MStL_D32.dll
 0004:00001230       __imp_?Get_Values_NonIso_Pat@CSLDPat@@QAEHW4STALPROC@@@Z 100c8230     MStL_D32:MStL_D32.dll
 0004:00001234       __imp_?Generate_IsoPatchControls@CSLDPat@@QAEHPAVCDrPatch@@PAVCString@@H@Z 100c8234     MStL_D32:MStL_D32.dll
 0004:00001238       __imp_?Get_Values_Iso_Pat@CSLDPat@@QAEHPAVCDrPatch@@W4STALPROC@@AAVCString@@@Z 100c8238     MStL_D32:MStL_D32.dll
 0004:0000123c       __imp_?ShowInfo_PatchStaticLoad@CSLDPat@@QAEHPAVCDrPatch@@PADHAAVCString@@@Z 100c823c     MStL_D32:MStL_D32.dll
 0004:00001240       __imp_??1CSLDPat@@UAE@XZ   100c8240     MStL_D32:MStL_D32.dll
 0004:00001244       \177MStL_D32_NULL_THUNK_DATA 100c8244     MStL_D32:MStL_D32.dll
 0004:0000127c       __imp_?RegenPatchBased_3@CMI_LSupp@@QAEHPAVCDrPatch@@@Z 100c827c     MSup_D32:MSup_D32.dll
 0004:00001280       __imp_?RegenPatchBased_4@CMI_LSupp@@QAEHPAVCDrPatch@@@Z 100c8280     MSup_D32:MSup_D32.dll
 0004:00001284       __imp_??1CMI_LSupp@@UAE@XZ 100c8284     MSup_D32:MSup_D32.dll
 0004:00001288       __imp_?RegenNodeBased@CMI_LSupp@@QAEHPAVCDrNode@@@Z 100c8288     MSup_D32:MSup_D32.dll
 0004:0000128c       __imp_??0CMI_LSupp@@QAE@XZ 100c828c     MSup_D32:MSup_D32.dll
 0004:00001290       __imp_?DoModal_SupToEdit@CMSupMgr@@QAEIPAVCDrLinSup@@@Z 100c8290     MSup_D32:MSup_D32.dll
 0004:00001294       __imp_?RegenCurveBased@CMI_LSupp@@QAEHPAVCDrCurve@@@Z 100c8294     MSup_D32:MSup_D32.dll
 0004:00001298       \177MSup_D32_NULL_THUNK_DATA 100c8298     MSup_D32:MSup_D32.dll
 0004:000012c8       __imp_?GetRuntimeClass@CTriangle@@UBEPAUCRuntimeClass@@XZ 100c82c8     OGen_D32:OGEN_D32.dll
 0004:000012cc       \177OGEN_D32_NULL_THUNK_DATA 100c82cc     OGen_D32:OGEN_D32.dll
 0004:000012f8       __imp_?ShowObject_On_Off@CObjectMgr@@QAEHPAVCDrObject@@IH@Z 100c82f8     OMgr_D32:OMgr_D32.dll
 0004:000012fc       __imp_?GetObjectIndexfromKey@CObjectMgr@@QAEHHVCString@@I@Z 100c82fc     OMgr_D32:OMgr_D32.dll
 0004:00001300       __imp_?UpdateAllViewsWithActiveIndex@CObjectMgr@@QAEXPAVCView@@IH@Z 100c8300     OMgr_D32:OMgr_D32.dll
 0004:00001304       __imp_?GetSpecObject@CObjectMgr@@QAEPAVCDrObject@@H@Z 100c8304     OMgr_D32:OMgr_D32.dll
 0004:00001308       \177OMgr_D32_NULL_THUNK_DATA 100c8308     OMgr_D32:OMgr_D32.dll
 0004:00001334       __imp_?GetFirstObjectPos@CDListMgr@@QAEPAU__POSITION@@XZ 100c8334     Spec_d32:Spec_D32.dll
 0004:00001338       __imp_?GetSpecificObjectCount@CDListMgr@@QAEHH@Z 100c8338     Spec_d32:Spec_D32.dll
 0004:0000133c       __imp_?GetNextObject@CDListMgr@@QAEPAVCObject@@AAPAU__POSITION@@@Z 100c833c     Spec_d32:Spec_D32.dll
 0004:00001340       __imp_?GetObjectA@CDListMgr@@QAEPAVCObject@@H@Z 100c8340     Spec_d32:Spec_D32.dll
 0004:00001344       __imp_?GetObjectIndex@CDListMgr@@QAEHIVCString@@@Z 100c8344     Spec_d32:Spec_D32.dll
 0004:00001348       __imp_??1CDListMgr@@UAE@XZ 100c8348     Spec_d32:Spec_D32.dll
 0004:0000134c       __imp_?GetRuntimeClass@CUnit@@UBEPAUCRuntimeClass@@XZ 100c834c     Spec_d32:Spec_D32.dll
 0004:00001350       __imp_?Serialize@CUnit@@UAEXAAVCArchive@@@Z 100c8350     Spec_d32:Spec_D32.dll
 0004:00001354       __imp_?DoDataView@CUnit@@UAEXPAVCDC@@H@Z 100c8354     Spec_d32:Spec_D32.dll
 0004:00001358       __imp_?Pack_drPipe@CUnit@@UAEXPAVCString@@@Z 100c8358     Spec_d32:Spec_D32.dll
 0004:0000135c       __imp_?GetObjectInfo@CUnit@@UAEXPAVCDrObject@@@Z 100c835c     Spec_d32:Spec_D32.dll
 0004:00001360       __imp_?SetObjectInfo@CUnit@@UAEXPAVCDrObject@@@Z 100c8360     Spec_d32:Spec_D32.dll
 0004:00001364       __imp_?ReadDefaultUnit@CUnit@@UAEXXZ 100c8364     Spec_d32:Spec_D32.dll
 0004:00001368       __imp_?InitUnit@CUnit@@UAEXXZ 100c8368     Spec_d32:Spec_D32.dll
 0004:0000136c       __imp_?GetRuntimeClass@CScaleFactor@@UBEPAUCRuntimeClass@@XZ 100c836c     Spec_d32:Spec_D32.dll
 0004:00001370       __imp_?Serialize@CScaleFactor@@UAEXAAVCArchive@@@Z 100c8370     Spec_d32:Spec_D32.dll
 0004:00001374       __imp_?DoDataView@CScaleFactor@@UAEXPAVCDC@@H@Z 100c8374     Spec_d32:Spec_D32.dll
 0004:00001378       __imp_?Pack_drPipe@CScaleFactor@@UAEXPAVCString@@@Z 100c8378     Spec_d32:Spec_D32.dll
 0004:0000137c       __imp_?GetObjectInfo@CScaleFactor@@UAEXPAVCDrObject@@@Z 100c837c     Spec_d32:Spec_D32.dll
 0004:00001380       __imp_?SetObjectInfo@CScaleFactor@@UAEXPAVCDrObject@@@Z 100c8380     Spec_d32:Spec_D32.dll
 0004:00001384       __imp_?ReadDefaultScaleFactor@CScaleFactor@@UAEXXZ 100c8384     Spec_d32:Spec_D32.dll
 0004:00001388       __imp_?InitScaleFactor@CScaleFactor@@UAEXXZ 100c8388     Spec_d32:Spec_D32.dll
 0004:0000138c       __imp_?GetRuntimeClass@CPrecision@@UBEPAUCRuntimeClass@@XZ 100c838c     Spec_d32:Spec_D32.dll
 0004:00001390       __imp_?Serialize@CPrecision@@UAEXAAVCArchive@@@Z 100c8390     Spec_d32:Spec_D32.dll
 0004:00001394       __imp_?DoDataView@CPrecision@@UAEXPAVCDC@@H@Z 100c8394     Spec_d32:Spec_D32.dll
 0004:00001398       __imp_?Pack_drPipe@CPrecision@@UAEXPAVCString@@@Z 100c8398     Spec_d32:Spec_D32.dll
 0004:0000139c       __imp_?GetObjectInfo@CPrecision@@UAEXPAVCDrObject@@@Z 100c839c     Spec_d32:Spec_D32.dll
 0004:000013a0       __imp_?SetObjectInfo@CPrecision@@UAEXPAVCDrObject@@@Z 100c83a0     Spec_d32:Spec_D32.dll
 0004:000013a4       __imp_?ReadDefaultPrecision@CPrecision@@UAEXXZ 100c83a4     Spec_d32:Spec_D32.dll
 0004:000013a8       __imp_?InitPrecision@CPrecision@@UAEXXZ 100c83a8     Spec_d32:Spec_D32.dll
 0004:000013ac       __imp_?GetRuntimeClass@CMapFactor@@UBEPAUCRuntimeClass@@XZ 100c83ac     Spec_d32:Spec_D32.dll
 0004:000013b0       __imp_?Serialize@CMapFactor@@UAEXAAVCArchive@@@Z 100c83b0     Spec_d32:Spec_D32.dll
 0004:000013b4       __imp_?DoDataView@CMapFactor@@UAEXPAVCDC@@H@Z 100c83b4     Spec_d32:Spec_D32.dll
 0004:000013b8       __imp_?Pack_drPipe@CMapFactor@@UAEXPAVCString@@@Z 100c83b8     Spec_d32:Spec_D32.dll
 0004:000013bc       __imp_?GetObjectInfo@CMapFactor@@UAEXPAVCDrObject@@@Z 100c83bc     Spec_d32:Spec_D32.dll
 0004:000013c0       __imp_?SetObjectInfo@CMapFactor@@UAEXPAVCDrObject@@@Z 100c83c0     Spec_d32:Spec_D32.dll
 0004:000013c4       __imp_?ReadDefaultMapFactor@CMapFactor@@UAEXXZ 100c83c4     Spec_d32:Spec_D32.dll
 0004:000013c8       __imp_?InitMapFactor@CMapFactor@@UAEXXZ 100c83c8     Spec_d32:Spec_D32.dll
 0004:000013cc       __imp_?GetRuntimeClass@CObj3DMnu@@UBEPAUCRuntimeClass@@XZ 100c83cc     Spec_d32:Spec_D32.dll
 0004:000013d0       __imp_?Serialize@CObj3DMnu@@UAEXAAVCArchive@@@Z 100c83d0     Spec_d32:Spec_D32.dll
 0004:000013d4       __imp_?DoDataView@CObj3DMnu@@UAEXPAVCDC@@H@Z 100c83d4     Spec_d32:Spec_D32.dll
 0004:000013d8       __imp_?Pack_drPipe@CObj3DMnu@@UAEXPAVCString@@@Z 100c83d8     Spec_d32:Spec_D32.dll
 0004:000013dc       __imp_?GetObjectInfo@CObj3DMnu@@UAEXPAVCDrObject@@@Z 100c83dc     Spec_d32:Spec_D32.dll
 0004:000013e0       __imp_?SetObjectInfo@CObj3DMnu@@UAEXPAVCDrObject@@@Z 100c83e0     Spec_d32:Spec_D32.dll
 0004:000013e4       __imp_?GetObj3DMnuInfo@CObj3DMnu@@UAE?AVCString@@I@Z 100c83e4     Spec_d32:Spec_D32.dll
 0004:000013e8       __imp_?SetObj3DMnuInfo@CObj3DMnu@@UAEXII@Z 100c83e8     Spec_d32:Spec_D32.dll
 0004:000013ec       __imp_?GetObj3DMnuIDArray@CObj3DMnu@@UAEXQAVCString@@@Z 100c83ec     Spec_d32:Spec_D32.dll
 0004:000013f0       __imp_?SetObj3DMnuIDArray@CObj3DMnu@@UAEXQAVCString@@@Z 100c83f0     Spec_d32:Spec_D32.dll
 0004:000013f4       __imp_?GetObj3DMnuArray@CObj3DMnu@@UAEXQAY01I@Z 100c83f4     Spec_d32:Spec_D32.dll
 0004:000013f8       __imp_?SetObj3DMnuArray@CObj3DMnu@@UAEXQAY01I@Z 100c83f8     Spec_d32:Spec_D32.dll
 0004:000013fc       __imp_?GetObj3DMnuOldArray@CObj3DMnu@@UAEXQAY01I@Z 100c83fc     Spec_d32:Spec_D32.dll
 0004:00001400       __imp_?SetObj3DMnuOldArray@CObj3DMnu@@UAEXQAY01I@Z 100c8400     Spec_d32:Spec_D32.dll
 0004:00001404       __imp_?GetObj3DMnuDefaultArray@CObj3DMnu@@UAEXQAY01I@Z 100c8404     Spec_d32:Spec_D32.dll
 0004:00001408       __imp_?SetObj3DMnuDefaultArray@CObj3DMnu@@UAEXQAY01I@Z 100c8408     Spec_d32:Spec_D32.dll
 0004:0000140c       __imp_?ReadDefaultObj3DMnu@CObj3DMnu@@UAEXXZ 100c840c     Spec_d32:Spec_D32.dll
 0004:00001410       __imp_?InitObj3DMnu@CObj3DMnu@@UAEXXZ 100c8410     Spec_d32:Spec_D32.dll
 0004:00001414       __imp_?GetRuntimeClass@CPatchMnu@@UBEPAUCRuntimeClass@@XZ 100c8414     Spec_d32:Spec_D32.dll
 0004:00001418       __imp_?Serialize@CPatchMnu@@UAEXAAVCArchive@@@Z 100c8418     Spec_d32:Spec_D32.dll
 0004:0000141c       __imp_?DoDataView@CPatchMnu@@UAEXPAVCDC@@H@Z 100c841c     Spec_d32:Spec_D32.dll
 0004:00001420       __imp_?Pack_drPipe@CPatchMnu@@UAEXPAVCString@@@Z 100c8420     Spec_d32:Spec_D32.dll
 0004:00001424       __imp_?GetObjectInfo@CPatchMnu@@UAEXPAVCDrObject@@@Z 100c8424     Spec_d32:Spec_D32.dll
 0004:00001428       __imp_?SetObjectInfo@CPatchMnu@@UAEXPAVCDrObject@@@Z 100c8428     Spec_d32:Spec_D32.dll
 0004:0000142c       __imp_?GetPatchMnuInfo@CPatchMnu@@UAE?AVCString@@I@Z 100c842c     Spec_d32:Spec_D32.dll
 0004:00001430       __imp_?SetPatchMnuInfo@CPatchMnu@@UAEXII@Z 100c8430     Spec_d32:Spec_D32.dll
 0004:00001434       __imp_?GetPatchMnuIDArray@CPatchMnu@@UAEXQAVCString@@@Z 100c8434     Spec_d32:Spec_D32.dll
 0004:00001438       __imp_?SetPatchMnuIDArray@CPatchMnu@@UAEXQAVCString@@@Z 100c8438     Spec_d32:Spec_D32.dll
 0004:0000143c       __imp_?GetPatchMnuArray@CPatchMnu@@UAEXQAY01I@Z 100c843c     Spec_d32:Spec_D32.dll
 0004:00001440       __imp_?SetPatchMnuArray@CPatchMnu@@UAEXQAY01I@Z 100c8440     Spec_d32:Spec_D32.dll
 0004:00001444       __imp_?GetPatchMnuOldArray@CPatchMnu@@UAEXQAY01I@Z 100c8444     Spec_d32:Spec_D32.dll
 0004:00001448       __imp_?SetPatchMnuOldArray@CPatchMnu@@UAEXQAY01I@Z 100c8448     Spec_d32:Spec_D32.dll
 0004:0000144c       __imp_?GetPatchMnuDefaultArray@CPatchMnu@@UAEXQAY01I@Z 100c844c     Spec_d32:Spec_D32.dll
 0004:00001450       __imp_?SetPatchMnuDefaultArray@CPatchMnu@@UAEXQAY01I@Z 100c8450     Spec_d32:Spec_D32.dll
 0004:00001454       __imp_?ReadDefaultPatchMnu@CPatchMnu@@UAEXXZ 100c8454     Spec_d32:Spec_D32.dll
 0004:00001458       __imp_?InitPatchMnu@CPatchMnu@@UAEXXZ 100c8458     Spec_d32:Spec_D32.dll
 0004:0000145c       __imp_?GetRuntimeClass@CLayer@@UBEPAUCRuntimeClass@@XZ 100c845c     Spec_d32:Spec_D32.dll
 0004:00001460       __imp_?Serialize@CLayer@@UAEXAAVCArchive@@@Z 100c8460     Spec_d32:Spec_D32.dll
 0004:00001464       __imp_?DoDataView@CLayer@@UAEXPAVCDC@@H@Z 100c8464     Spec_d32:Spec_D32.dll
 0004:00001468       __imp_?Pack_drPipe@CLayer@@UAEXPAVCString@@@Z 100c8468     Spec_d32:Spec_D32.dll
 0004:0000146c       __imp_?GetObjectInfo@CLayer@@UAEXPAVCDrObject@@@Z 100c846c     Spec_d32:Spec_D32.dll
 0004:00001470       __imp_?SetObjectInfo@CLayer@@UAEXPAVCDrObject@@@Z 100c8470     Spec_d32:Spec_D32.dll
 0004:00001474       __imp_?GetLayerInfo@CLayer@@UAE?AVCString@@I@Z 100c8474     Spec_d32:Spec_D32.dll
 0004:00001478       __imp_?SetLayerInfo@CLayer@@UAEXII@Z 100c8478     Spec_d32:Spec_D32.dll
 0004:0000147c       __imp_?GetLayerArray@CLayer@@UAEXQAY01I@Z 100c847c     Spec_d32:Spec_D32.dll
 0004:00001480       __imp_?SetLayerArray@CLayer@@UAEXQAY01I@Z 100c8480     Spec_d32:Spec_D32.dll
 0004:00001484       __imp_?GetLayerOldArray@CLayer@@UAEXQAY01I@Z 100c8484     Spec_d32:Spec_D32.dll
 0004:00001488       __imp_?SetLayerOldArray@CLayer@@UAEXQAY01I@Z 100c8488     Spec_d32:Spec_D32.dll
 0004:0000148c       __imp_?GetLayerDefaultArray@CLayer@@UAEXQAY01I@Z 100c848c     Spec_d32:Spec_D32.dll
 0004:00001490       __imp_?SetLayerDefaultArray@CLayer@@UAEXQAY01I@Z 100c8490     Spec_d32:Spec_D32.dll
 0004:00001494       __imp_?ReadDefaultLayer@CLayer@@UAEXXZ 100c8494     Spec_d32:Spec_D32.dll
 0004:00001498       __imp_?InitLayer@CLayer@@UAEXXZ 100c8498     Spec_d32:Spec_D32.dll
 0004:0000149c       __imp_?GetRuntimeClass@CHitNet@@UBEPAUCRuntimeClass@@XZ 100c849c     Spec_d32:Spec_D32.dll
 0004:000014a0       __imp_?Serialize@CHitNet@@UAEXAAVCArchive@@@Z 100c84a0     Spec_d32:Spec_D32.dll
 0004:000014a4       __imp_?DoDataView@CHitNet@@UAEXPAVCDC@@H@Z 100c84a4     Spec_d32:Spec_D32.dll
 0004:000014a8       __imp_?Pack_drPipe@CHitNet@@UAEXPAVCString@@@Z 100c84a8     Spec_d32:Spec_D32.dll
 0004:000014ac       __imp_?GetObjectInfo@CHitNet@@UAEXPAVCDrObject@@@Z 100c84ac     Spec_d32:Spec_D32.dll
 0004:000014b0       __imp_?SetObjectInfo@CHitNet@@UAEXPAVCDrObject@@@Z 100c84b0     Spec_d32:Spec_D32.dll
 0004:000014b4       __imp_?GetRuntimeClass@CDrPen@@UBEPAUCRuntimeClass@@XZ 100c84b4     Spec_d32:Spec_D32.dll
 0004:000014b8       __imp_?Serialize@CDrPen@@UAEXAAVCArchive@@@Z 100c84b8     Spec_d32:Spec_D32.dll
 0004:000014bc       __imp_?DoDataView@CDrPen@@UAEXPAVCDC@@H@Z 100c84bc     Spec_d32:Spec_D32.dll
 0004:000014c0       __imp_?Pack_drPipe@CDrPen@@UAEXPAVCString@@@Z 100c84c0     Spec_d32:Spec_D32.dll
 0004:000014c4       __imp_?GetObjectInfo@CDrPen@@UAEXPAVCDrObject@@@Z 100c84c4     Spec_d32:Spec_D32.dll
 0004:000014c8       __imp_?SetObjectInfo@CDrPen@@UAEXPAVCDrObject@@@Z 100c84c8     Spec_d32:Spec_D32.dll
 0004:000014cc       __imp_?ReplacePen@CDrPen@@UAEXXZ 100c84cc     Spec_d32:Spec_D32.dll
 0004:000014d0       __imp_?ReadDefaultDrPen@CDrPen@@UAEXXZ 100c84d0     Spec_d32:Spec_D32.dll
 0004:000014d4       __imp_?InitDrPen@CDrPen@@UAEXXZ 100c84d4     Spec_d32:Spec_D32.dll
 0004:000014d8       __imp_?GetRuntimeClass@CDrFont@@UBEPAUCRuntimeClass@@XZ 100c84d8     Spec_d32:Spec_D32.dll
 0004:000014dc       __imp_?Serialize@CDrFont@@UAEXAAVCArchive@@@Z 100c84dc     Spec_d32:Spec_D32.dll
 0004:000014e0       __imp_?DoDataView@CDrFont@@UAEXPAVCDC@@H@Z 100c84e0     Spec_d32:Spec_D32.dll
 0004:000014e4       __imp_?Pack_drPipe@CDrFont@@UAEXPAVCString@@@Z 100c84e4     Spec_d32:Spec_D32.dll
 0004:000014e8       __imp_?GetObjectInfo@CDrFont@@UAEXPAVCDrObject@@@Z 100c84e8     Spec_d32:Spec_D32.dll
 0004:000014ec       __imp_?SetObjectInfo@CDrFont@@UAEXPAVCDrObject@@@Z 100c84ec     Spec_d32:Spec_D32.dll
 0004:000014f0       __imp_?DoTextFont@CDrFont@@UAEXXZ 100c84f0     Spec_d32:Spec_D32.dll
 0004:000014f4       __imp_?ReadDefaultDrFont@CDrFont@@UAEXXZ 100c84f4     Spec_d32:Spec_D32.dll
 0004:000014f8       __imp_?InitDrFont@CDrFont@@UAEXXZ 100c84f8     Spec_d32:Spec_D32.dll
 0004:000014fc       __imp_?GetRuntimeClass@CDataWindow@@UBEPAUCRuntimeClass@@XZ 100c84fc     Spec_d32:Spec_D32.dll
 0004:00001500       __imp_?Serialize@CDataWindow@@UAEXAAVCArchive@@@Z 100c8500     Spec_d32:Spec_D32.dll
 0004:00001504       __imp_?DoDataView@CDataWindow@@UAEXPAVCDC@@H@Z 100c8504     Spec_d32:Spec_D32.dll
 0004:00001508       __imp_?Pack_drPipe@CDataWindow@@UAEXPAVCString@@@Z 100c8508     Spec_d32:Spec_D32.dll
 0004:0000150c       __imp_?GetObjectInfo@CDataWindow@@UAEXPAVCDrObject@@@Z 100c850c     Spec_d32:Spec_D32.dll
 0004:00001510       __imp_?SetObjectInfo@CDataWindow@@UAEXPAVCDrObject@@@Z 100c8510     Spec_d32:Spec_D32.dll
 0004:00001514       __imp_?SetWinMinMaxWIC@CDataWindow@@UAEXULPOINT3@@@Z 100c8514     Spec_d32:Spec_D32.dll
 0004:00001518       __imp_?SetWinExtWIC@CDataWindow@@UAEXXZ 100c8518     Spec_d32:Spec_D32.dll
 0004:0000151c       __imp_?ReadDefaultDataWindow@CDataWindow@@UAEXXZ 100c851c     Spec_d32:Spec_D32.dll
 0004:00001520       __imp_?InitDataWindow@CDataWindow@@UAEXXZ 100c8520     Spec_d32:Spec_D32.dll
 0004:00001524       __imp_?GetRuntimeClass@CBooleans@@UBEPAUCRuntimeClass@@XZ 100c8524     Spec_d32:Spec_D32.dll
 0004:00001528       __imp_?Serialize@CBooleans@@UAEXAAVCArchive@@@Z 100c8528     Spec_d32:Spec_D32.dll
 0004:0000152c       __imp_?DoDataView@CBooleans@@UAEXPAVCDC@@H@Z 100c852c     Spec_d32:Spec_D32.dll
 0004:00001530       __imp_?Pack_drPipe@CBooleans@@UAEXPAVCString@@@Z 100c8530     Spec_d32:Spec_D32.dll
 0004:00001534       __imp_?GetObjectInfo@CBooleans@@UAEXPAVCDrObject@@@Z 100c8534     Spec_d32:Spec_D32.dll
 0004:00001538       __imp_?SetObjectInfo@CBooleans@@UAEXPAVCDrObject@@@Z 100c8538     Spec_d32:Spec_D32.dll
 0004:0000153c       __imp_?IsZoomEnabled@CBooleans@@UAEHH@Z 100c853c     Spec_d32:Spec_D32.dll
 0004:00001540       __imp_?SetZoomEnabled@CBooleans@@UAEXHH@Z 100c8540     Spec_d32:Spec_D32.dll
 0004:00001544       __imp_?IsZoomOn@CBooleans@@UAEHHH@Z 100c8544     Spec_d32:Spec_D32.dll
 0004:00001548       __imp_?ToggleZoom@CBooleans@@UAEHHH@Z 100c8548     Spec_d32:Spec_D32.dll
 0004:0000154c       __imp_?ReadDefaultBooleans@CBooleans@@UAEXXZ 100c854c     Spec_d32:Spec_D32.dll
 0004:00001550       __imp_?InitBooleans@CBooleans@@UAEXXZ 100c8550     Spec_d32:Spec_D32.dll
 0004:00001554       __imp_??1CDrObject@@UAE@XZ 100c8554     Spec_d32:Spec_D32.dll
 0004:00001558       __imp_?GetLocalCorner@CDrObject@@UAEXPAUWORLD@@H@Z 100c8558     Spec_d32:Spec_D32.dll
 0004:0000155c       __imp_?SetLocalCorner@CDrObject@@UAEXPAUWORLD@@H@Z 100c855c     Spec_d32:Spec_D32.dll
 0004:00001560       __imp_?GetWorldCorner@CDrObject@@UAEXPAUWORLD@@H@Z 100c8560     Spec_d32:Spec_D32.dll
 0004:00001564       __imp_?SetWorldCorner@CDrObject@@UAEXPAUWORLD@@H@Z 100c8564     Spec_d32:Spec_D32.dll
 0004:00001568       __imp_?GetEyeCorner@CDrObject@@UAEXPAUWORLD@@H@Z 100c8568     Spec_d32:Spec_D32.dll
 0004:0000156c       __imp_?SetEyeCorner@CDrObject@@UAEXPAUWORLD@@H@Z 100c856c     Spec_d32:Spec_D32.dll
 0004:00001570       __imp_?GetScreen3DCorner@CDrObject@@UAEXPAUWORLD@@H@Z 100c8570     Spec_d32:Spec_D32.dll
 0004:00001574       __imp_?SetScreen3DCorner@CDrObject@@UAEXPAUWORLD@@H@Z 100c8574     Spec_d32:Spec_D32.dll
 0004:00001578       __imp_?GetRuntimeClass@CMatObj@@UBEPAUCRuntimeClass@@XZ 100c8578     Spec_d32:Spec_D32.dll
 0004:0000157c       \177Spec_D32_NULL_THUNK_DATA 100c857c     Spec_d32:Spec_D32.dll
 0004:0000161c       __imp__DestroyCursor@4     100c861c     user32:USER32.dll
 0004:00001620       __imp__SetCursor@4         100c8620     user32:USER32.dll
 0004:00001624       __imp__ReleaseCapture@0    100c8624     user32:USER32.dll
 0004:00001628       __imp__SetCursorPos@8      100c8628     user32:USER32.dll
 0004:0000162c       __imp__MessageBeep@4       100c862c     user32:USER32.dll
 0004:00001630       \177USER32_NULL_THUNK_DATA 100c8630     user32:USER32.dll

 entry point at        0001:00031d00

