 PMgr_D32

 Timestamp is 444d80b6 (Mon Apr 24 18:51:50 2006)

 Preferred load address is 10000000

 Start         Length     Name                   Class
 0001:00000000 0002cd38H .text                   CODE
 0001:0002cd40 0000101fH .text$AFX_COL1          CODE
 0001:0002dd60 00002b94H .text$x                 CODE
 0001:000308f4 0002e10cH .textbss                CODE
 0002:00000000 00003211H .rdata                  DATA
 0002:00003218 00000ac9H .rdata$r                DATA
 0002:00003ce8 000021ddH .xdata$x                DATA
 0002:00005ed0 0001702eH .edata                  DATA
 0003:00000000 00000104H .CRT$XCA                DATA
 0003:00000104 00000113H .CRT$XCU                DATA
 0003:00000218 00000104H .CRT$XCZ                DATA
 0003:0000031c 00000104H .CRT$XIA                DATA
 0003:00000420 00000104H .CRT$XIZ                DATA
 0003:00000530 00000660H .data                   DATA
 0003:00000b90 000000a4H .bss                    DATA
 0004:00000000 0000012cH .idata$2                DATA
 0004:0000012c 00000014H .idata$3                DATA
 0004:00000140 00000874H .idata$4                DATA
 0004:000009b4 00000874H .idata$5                DATA
 0004:00001228 00002e15H .idata$6                DATA
 0005:00000000 00000439H .rsrc$01                DATA
 0005:00000440 00000cf6H .rsrc$02                DATA

  Address         Publics by Value              Rva+Base     Lib:Object

 0001:00004960       ?GetProbLim@CMouse@@QAE?AW4PROBDIMLIM@@XZ 10005960 f i CurPost.obj
 0001:00004980       ?SetProbLim@CMouse@@QAEXW4PROBDIMLIM@@@Z 10005980 f i CurPost.obj
 0001:000049b0       ?GetElemLim@CMouse@@QAE?AW4ELEMDIMLIM@@XZ 100059b0 f i CurPost.obj
 0001:000049d0       ?SetElemLim@CMouse@@QAEXW4ELEMDIMLIM@@@Z 100059d0 f i CurPost.obj
 0001:00004a00       ?GetCurrentThirdCoord@CMouse@@QAENXZ 10005a00 f i CurPost.obj
 0001:00004a20       ?SetCurrentThirdCoord@CMouse@@QAEXN@Z 10005a20 f i CurPost.obj
 0001:00004a50       ?GetMouseWIC@CMouse@@QAE?AULPOINT3@@XZ 10005a50 f i CurPost.obj
 0001:00004a90       ?GetMouseOldWIC@CMouse@@QAE?AULPOINT3@@XZ 10005a90 f i CurPost.obj
 0001:00004ad0       ?GetScrolledMouseWIC2D@CMouse@@IAE?AULPOINT@@XZ 10005ad0 f i CurPost.obj
 0001:00004b10       ?SetScrolledMouseWIC2D@CMouse@@IAEXULPOINT@@@Z 10005b10 f i CurPost.obj
 0001:00004b40       ??1CDlg_NodI@@UAE@XZ       10005b40 f i CurPost.obj
 0001:00004bc0       ?Set3DPts@C3DMath@@QAEXPAULPOINT3@@JJJ@Z 10005bc0 f i CurPost.obj
 0001:00004c00       ?Set3DPts@C3DMath@@QAEXPAUWORLD@@NNN@Z 10005c00 f i CurPost.obj
 0001:00004c60       ?Len3DPts@C3DMath@@QAENPAUWORLD@@@Z 10005c60 f i CurPost.obj
 0001:00004cc0       ??1C3DMath@@UAE@XZ         10005cc0 f i CurPost.obj
 0001:00004cf0       ??_GC3DMath@@UAEPAXI@Z     10005cf0 f i CurPost.obj
 0001:00004d30       ??_EC3DMath@@UAEPAXI@Z     10005d30 f i CurPost.obj
 0001:00004dd0       ?GetMatrix@CMatObj@@UAEPAUMATRIX@@XZ 10005dd0 f i CurPost.obj
 0001:00004df0       ?SetMatrix@CMatObj@@UAEXPAUMATRIX@@@Z 10005df0 f i CurPost.obj
 0001:00004e80       ?GetCurveLatch@CMatObj@@UAE?AW4CURVELATCH@@XZ 10005e80 f i CurPost.obj
 0001:00004ea0       ?SetCurveLatch@CMatObj@@UAEXW4CURVELATCH@@@Z 10005ea0 f i CurPost.obj
 0001:00004ed0       ?IsInstanced_Prof@CMatObj@@UAEHXZ 10005ed0 f i CurPost.obj
 0001:00004ef0       ?SetInstanced_Prof@CMatObj@@UAEXH@Z 10005ef0 f i CurPost.obj
 0001:00004f20       ?GetFromID@CMatObj@@UAE?AVCString@@XZ 10005f20 f i CurPost.obj
 0001:00004f70       ?SetFromID@CMatObj@@UAEXVCString@@@Z 10005f70 f i CurPost.obj
 0001:00004ff0       ?GetFromPt@CMatObj@@UAE?AUWORLD@@XZ 10005ff0 f i CurPost.obj
 0001:00005030       ?SetFromPt@CMatObj@@UAEXUWORLD@@@Z 10006030 f i CurPost.obj
 0001:00005070       ?GetToID@CMatObj@@UAE?AVCString@@XZ 10006070 f i CurPost.obj
 0001:000050c0       ?SetToID@CMatObj@@UAEXVCString@@@Z 100060c0 f i CurPost.obj
 0001:00005140       ?GetToPt@CMatObj@@UAE?AUWORLD@@XZ 10006140 f i CurPost.obj
 0001:00005180       ?SetToPt@CMatObj@@UAEXUWORLD@@@Z 10006180 f i CurPost.obj
 0001:000051c0       ?GetRotPtID@CMatObj@@UAE?AVCString@@XZ 100061c0 f i CurPost.obj
 0001:00005210       ?SetRotPtID@CMatObj@@UAEXVCString@@@Z 10006210 f i CurPost.obj
 0001:00005290       ?GetRotPt@CMatObj@@UAE?AUWORLD@@XZ 10006290 f i CurPost.obj
 0001:000052d0       ?SetRotPt@CMatObj@@UAEXUWORLD@@@Z 100062d0 f i CurPost.obj
 0001:00005310       ?IsCoordIn@CMatObj@@UAEHXZ 10006310 f i CurPost.obj
 0001:00005340       ?SetCoordIn@CMatObj@@UAEXH@Z 10006340 f i CurPost.obj
 0001:00005370       ?GetTranPtID@CMatObj@@UAE?AVCString@@XZ 10006370 f i CurPost.obj
 0001:000053c0       ?SetTranPtID@CMatObj@@UAEXVCString@@@Z 100063c0 f i CurPost.obj
 0001:00005440       ?GetTranslation@CMatObj@@UAE?AUWORLD@@XZ 10006440 f i CurPost.obj
 0001:00005480       ?SetTranslation@CMatObj@@UAEXUWORLD@@@Z 10006480 f i CurPost.obj
 0001:000054c0       ?IsAngleIn@CMatObj@@UAEHXZ 100064c0 f i CurPost.obj
 0001:000054f0       ?SetAngleIn@CMatObj@@UAEXH@Z 100064f0 f i CurPost.obj
 0001:00005520       ?IsDirCos@CMatObj@@UAEHXZ  10006520 f i CurPost.obj
 0001:00005550       ?SetDirCos@CMatObj@@UAEXH@Z 10006550 f i CurPost.obj
 0001:00005580       ?GetDirCosDirect@CMatObj@@UAE?AUWORLD@@XZ 10006580 f i CurPost.obj
 0001:000055c0       ?SetDirCosDirect@CMatObj@@UAEXUWORLD@@@Z 100065c0 f i CurPost.obj
 0001:00005600       ?GetRotation@CMatObj@@UAE?AUWORLD@@XZ 10006600 f i CurPost.obj
 0001:00005640       ?SetRotation@CMatObj@@UAEXUWORLD@@@Z 10006640 f i CurPost.obj
 0001:00005680       ?GetScale@CMatObj@@UAE?AUWORLD@@XZ 10006680 f i CurPost.obj
 0001:000056c0       ?SetScale@CMatObj@@UAEXUWORLD@@@Z 100066c0 f i CurPost.obj
 0001:00005700       ?GetShear@CMatObj@@UAE?AUWORLD@@XZ 10006700 f i CurPost.obj
 0001:00005740       ?SetShear@CMatObj@@UAEXUWORLD@@@Z 10006740 f i CurPost.obj
 0001:00005780       ?IsNoRot@CMatObj@@UAEHXZ   10006780 f i CurPost.obj
 0001:000057b0       ?SetNoRot@CMatObj@@UAEXH@Z 100067b0 f i CurPost.obj
 0001:000057e0       ?IsNoTran@CMatObj@@UAEHXZ  100067e0 f i CurPost.obj
 0001:00005810       ?SetNoTran@CMatObj@@UAEXH@Z 10006810 f i CurPost.obj
 0001:00005840       ?IsNoScale@CMatObj@@UAEHXZ 10006840 f i CurPost.obj
 0001:00005870       ?SetNoScale@CMatObj@@UAEXH@Z 10006870 f i CurPost.obj
 0001:000058a0       ?IsNoShear@CMatObj@@UAEHXZ 100068a0 f i CurPost.obj
 0001:000058d0       ?SetNoShear@CMatObj@@UAEXH@Z 100068d0 f i CurPost.obj
 0001:00005900       ?GetXformType@CMatObj@@UAE?AW4XFORMTYPE@@XZ 10006900 f i CurPost.obj
 0001:00005930       ?SetXformType@CMatObj@@UAEXW4XFORMTYPE@@@Z 10006930 f i CurPost.obj
 0001:00005960       ?GetSpawnType@CMatObj@@UAE?AW4SPAWNTYPE@@XZ 10006960 f i CurPost.obj
 0001:00005990       ?SetSpawnType@CMatObj@@UAEXW4SPAWNTYPE@@@Z 10006990 f i CurPost.obj
 0001:000059c0       ?GetCreOp@CMatObj@@UAEIXZ  100069c0 f i CurPost.obj
 0001:000059f0       ?SetCreOp@CMatObj@@UAEXI@Z 100069f0 f i CurPost.obj
 0001:00005a20       ??1CMatObj@@UAE@XZ         10006a20 f i CurPost.obj
 0001:00005ae0       ??_GCMatObj@@UAEPAXI@Z     10006ae0 f i CurPost.obj
 0001:00005b20       ??_ECMatObj@@UAEPAXI@Z     10006b20 f i CurPost.obj
 0001:00005bc0       ?ReadyToDelete@CDrObject@@UAEXXZ 10006bc0 f i CurPost.obj
 0001:00005be0       ?DoFormattedCardView@CDrObject@@UAEXPAVCString@@AAV2@@Z 10006be0 f i CurPost.obj
 0001:00005c00       ?DoUnFormattedCardView@CDrObject@@UAEXPAVCString@@@Z 10006c00 f i CurPost.obj
 0001:00005c20       ?DoDataView@CDrObject@@UAEXPAVCDC@@H@Z 10006c20 f i CurPost.obj
 0001:00005c40       ?InitDraw@CDrObject@@UAEXPAVCDC@@HHPAUMATRIX@@1NNN@Z 10006c40 f i CurPost.obj
 0001:00005c60       ?InitDraw@CDrObject@@UAEXPAVCDC@@HHPAUMATRIX@@1NNNN@Z 10006c60 f i CurPost.obj
 0001:00005c80       ?Corner_3Dto2D@CDrObject@@UAEXXZ 10006c80 f i CurPost.obj
 0001:00005ca0       ?DoDrawView@CDrObject@@UAEXPAVCDC@@@Z 10006ca0 f i CurPost.obj
 0001:00005cc0       ?DoDrawView@CDrObject@@UAEXPAVCDC@@H@Z 10006cc0 f i CurPost.obj
 0001:00005ce0       ?DoDrawView@CDrObject@@UAEXPAVCDC@@HH@Z 10006ce0 f i CurPost.obj
 0001:00005d00       ?DealObjectDialog@CDrObject@@UAEHXZ 10006d00 f i CurPost.obj
 0001:00005d20       ?TransformObjectToWorld@CDrObject@@UAEXPAUMATRIX@@H@Z 10006d20 f i CurPost.obj
 0001:00005d40       ?TransformObjectToView@CDrObject@@UAEXPAUMATRIX@@@Z 10006d40 f i CurPost.obj
 0001:00005d60       ?TransformObjectToViewDirect@CDrObject@@UAEXPAUMATRIX@@00H@Z 10006d60 f i CurPost.obj
 0001:00005d80       ?RemoveHiddenObject@CDrObject@@UAEHPAUMATRIX@@UWORLD@@H@Z 10006d80 f i CurPost.obj
 0001:00005da0       ?ProjectObject@CDrObject@@UAEXPAUMATRIX@@NN@Z 10006da0 f i CurPost.obj
 0001:00005dc0       ?Calc_2DBoundsScreen@CDrObject@@UAEHXZ 10006dc0 f i CurPost.obj
 0001:00005de0       ?Calc_3DBoundsLocal@CDrObject@@UAEHXZ 10006de0 f i CurPost.obj
 0001:00005e00       ?FinishObject@CDrObject@@UAEXPAVCClientDC@@H@Z 10006e00 f i CurPost.obj
 0001:00005e20       ?FinishObject@CDrObject@@UAEXH@Z 10006e20 f i CurPost.obj
 0001:00005e40       ?FinishObject@CDrObject@@UAEXXZ 10006e40 f i CurPost.obj
 0001:00005e60       ?GetMaxCorners@CDrObject@@UAEHXZ 10006e60 f i CurPost.obj
 0001:00005e80       ?GetRawCoords@CDrObject@@UAEXPAJPAHH@Z 10006e80 f i CurPost.obj
 0001:00005ea0       ?SetProjectedCoords@CDrObject@@UAEXUtagPOINT@@H@Z 10006ea0 f i CurPost.obj
 0001:00005ec0       ?RearrangeProjectedCoords@CDrObject@@UAEXXZ 10006ec0 f i CurPost.obj
 0001:00005ee0       ?IsObjectHit@CDrObject@@UAEHNUWORLD@@@Z 10006ee0 f i CurPost.obj
 0001:00005f00       ?IsObjectHit@CDrObject@@UAEHHUtagPOINT@@H@Z 10006f00 f i CurPost.obj
 0001:00005f20       ?IsObjectHit@CDrObject@@UAEHHUtagPOINT@@@Z 10006f20 f i CurPost.obj
 0001:00005f40       ?IsObjectHit@CDrObject@@UAEHPAVCClientDC@@HUtagPOINT@@PAVCRect@@H@Z 10006f40 f i CurPost.obj
 0001:00005f60       ?IsKeyMatch@CDrObject@@UAEHPAV1@VCString@@I@Z 10006f60 f i CurPost.obj
 0001:00005f90       ?IsKeyMatch@CDrObject@@UAEHVCString@@I@Z 10006f90 f i CurPost.obj
 0001:00005fc0       ?IsControlShapeNeeded@CDrObject@@UAEHXZ 10006fc0 f i CurPost.obj
 0001:00005fe0       ?SetControlShapeNeed@CDrObject@@UAEXH@Z 10006fe0 f i CurPost.obj
 0001:00006000       ?IsNormalNeeded@CDrObject@@UAEHXZ 10007000 f i CurPost.obj
 0001:00006020       ?SetNormalNeed@CDrObject@@UAEXH@Z 10007020 f i CurPost.obj
 0001:00006040       ?IsCulled@CDrObject@@UAEHXZ 10007040 f i CurPost.obj
 0001:00006060       ?SetCulled@CDrObject@@UAEXH@Z 10007060 f i CurPost.obj
 0001:00006080       ?IsSkewed@CDrObject@@UAEHXZ 10007080 f i CurPost.obj
 0001:000060a0       ?SetSkewed@CDrObject@@UAEXH@Z 100070a0 f i CurPost.obj
 0001:000060c0       ?IsLinSpr@CDrObject@@UAEHXZ 100070c0 f i CurPost.obj
 0001:000060e0       ?SetLinSpr@CDrObject@@UAEXH@Z 100070e0 f i CurPost.obj
 0001:00006100       ?IsLinSnu@CDrObject@@UAEHXZ 10007100 f i CurPost.obj
 0001:00006120       ?SetLinSnu@CDrObject@@UAEXH@Z 10007120 f i CurPost.obj
 0001:00006140       ?CullWorld@CDrObject@@UAEHUWORLD@@@Z 10007140 f i CurPost.obj
 0001:00006160       ?CullScreen@CDrObject@@UAEHPAUMATRIX@@@Z 10007160 f i CurPost.obj
 0001:00006180       ?Calc_CentroidWorld@CDrObject@@UAEXXZ 10007180 f i CurPost.obj
 0001:000061a0       ?Calc_CentroidEye@CDrObject@@UAEXXZ 100071a0 f i CurPost.obj
 0001:000061c0       ?Calc_CentroidScreen3D@CDrObject@@UAEXNN@Z 100071c0 f i CurPost.obj
 0001:000061e0       ?Calc_NormalWorld@CDrObject@@UAEXXZ 100071e0 f i CurPost.obj
 0001:00006200       ?TransformNormalToEye@CDrObject@@UAEXPAUMATRIX@@@Z 10007200 f i CurPost.obj
 0001:00006220       ?ProjectNormalToScreen3D@CDrObject@@UAEXPAUMATRIX@@NN@Z 10007220 f i CurPost.obj
 0001:00006240       ?GetNormalWorld@CDrObject@@UAEPAUWORLD@@XZ 10007240 f i CurPost.obj
 0001:00006260       ?SetNormalWorld@CDrObject@@UAEXUWORLD@@@Z 10007260 f i CurPost.obj
 0001:00006280       ?GetNormalEye@CDrObject@@UAEPAUWORLD@@XZ 10007280 f i CurPost.obj
 0001:000062a0       ?SetNormalEye@CDrObject@@UAEXUWORLD@@@Z 100072a0 f i CurPost.obj
 0001:000062c0       ?GetNormalScreen3D@CDrObject@@UAEPAUWORLD@@XZ 100072c0 f i CurPost.obj
 0001:000062e0       ?SetNormalScreen3D@CDrObject@@UAEXUWORLD@@@Z 100072e0 f i CurPost.obj
 0001:00006300       ?GetNormalScreen2D@CDrObject@@UAEPAUtagPOINT@@XZ 10007300 f i CurPost.obj
 0001:00006320       ?SetNormalScreen2D@CDrObject@@UAEXUtagPOINT@@@Z 10007320 f i CurPost.obj
 0001:00006340       ?GetObjectList@CDrObject@@UAEPAVCDListMgr@@XZ 10007340 f i CurPost.obj
 0001:00006360       ?GetBoundingRect@CDrObject@@QAE?AVCRect@@XZ 10007360 f i CurPost.obj
 0001:000063b0       ?GetRInfo@CDrObject@@QAEPAURENDINFO@@XZ 100073b0 f i CurPost.obj
 0001:000063d0       ?IsParallel@CDrObject@@QAEHXZ 100073d0 f i CurPost.obj
 0001:00006400       ?GetnView@CDrObject@@QAEHXZ 10007400 f i CurPost.obj
 0001:00006430       ?GetdzMin@CDrObject@@QAENXZ 10007430 f i CurPost.obj
 0001:00006460       ?GetdScale_U@CDrObject@@QAENXZ 10007460 f i CurPost.obj
 0001:00006490       ?GetdScale_V@CDrObject@@QAENXZ 10007490 f i CurPost.obj
 0001:000064c0       ?GetpViewM@CDrObject@@QAEPAUMATRIX@@XZ 100074c0 f i CurPost.obj
 0001:000064f0       ?Getpvv3DM@CDrObject@@QAEPAUMATRIX@@XZ 100074f0 f i CurPost.obj
 0001:00006520       ?GetpComposedM@CDrObject@@QAEPAUMATRIX@@XZ 10007520 f i CurPost.obj
 0001:00006550       ?SetParallel@CDrObject@@QAEXH@Z 10007550 f i CurPost.obj
 0001:00006580       ?SetnView@CDrObject@@QAEXH@Z 10007580 f i CurPost.obj
 0001:000065b0       ?SetdzMin@CDrObject@@QAEXN@Z 100075b0 f i CurPost.obj
 0001:000065f0       ?SetdScale_U@CDrObject@@QAEXN@Z 100075f0 f i CurPost.obj
 0001:00006630       ?SetdScale_V@CDrObject@@QAEXN@Z 10007630 f i CurPost.obj
 0001:00006670       ?SetpViewM@CDrObject@@QAEXPAUMATRIX@@@Z 10007670 f i CurPost.obj
 0001:000066b0       ?Setpvv3DM@CDrObject@@QAEXPAUMATRIX@@@Z 100076b0 f i CurPost.obj
 0001:000066f0       ?SetpComposedM@CDrObject@@QAEXPAUMATRIX@@@Z 100076f0 f i CurPost.obj
 0001:00006730       ?GetLevelType@CDrObject@@QAEHXZ 10007730 f i CurPost.obj
 0001:00006760       ?SetLevelType@CDrObject@@QAEXH@Z 10007760 f i CurPost.obj
 0001:00006790       ?GetObjectID@CDrObject@@QAE?AVCString@@XZ 10007790 f i CurPost.obj
 0001:000067e0       ?SetObjectID@CDrObject@@QAEXVCString@@@Z 100077e0 f i CurPost.obj
 0001:00006860       ?GetObjectNo@CDrObject@@QAEJXZ 10007860 f i CurPost.obj
 0001:00006890       ?SetObjectNo@CDrObject@@QAEXJ@Z 10007890 f i CurPost.obj
 0001:000068c0       ?GetObjectType@CDrObject@@QAEHXZ 100078c0 f i CurPost.obj
 0001:000068f0       ?SetObjectType@CDrObject@@QAEXH@Z 100078f0 f i CurPost.obj
 0001:00006920       ?GetElemType@CDrObject@@QAEHXZ 10007920 f i CurPost.obj
 0001:00006950       ?SetElemType@CDrObject@@QAEXH@Z 10007950 f i CurPost.obj
 0001:00006980       ?GetPenInfo@CDrObject@@QAEXAAIAAK0@Z 10007980 f i CurPost.obj
 0001:000069d0       ?SetPenInfo@CDrObject@@QAEXIKI@Z 100079d0 f i CurPost.obj
 0001:00006a20       ?GetPenInfoHi@CDrObject@@QAEXAAIAAK0@Z 10007a20 f i CurPost.obj
 0001:00006a70       ?SetPenInfoHi@CDrObject@@QAEXIKI@Z 10007a70 f i CurPost.obj
 0001:00006ac0       ?GetLayer@CDrObject@@QAEIXZ 10007ac0 f i CurPost.obj
 0001:00006af0       ?SetLayer@CDrObject@@QAEXI@Z 10007af0 f i CurPost.obj
 0001:00006b20       ?IsClipped@CDrObject@@QAEHXZ 10007b20 f i CurPost.obj
 0001:00006b50       ?SetClipped@CDrObject@@QAEXH@Z 10007b50 f i CurPost.obj
 0001:00006b80       ?IsVirtual@CDrObject@@QAEHXZ 10007b80 f i CurPost.obj
 0001:00006ba0       ?SetVirtual@CDrObject@@QAEXH@Z 10007ba0 f i CurPost.obj
 0001:00006bd0       ?IsShow@CDrObject@@QAEHXZ  10007bd0 f i CurPost.obj
 0001:00006c00       ?SetShow@CDrObject@@QAEXH@Z 10007c00 f i CurPost.obj
 0001:00006c30       ?GetParentID@CDrObject@@QAEAAVCString@@XZ 10007c30 f i CurPost.obj
 0001:00006c50       ?SetParentID@CDrObject@@QAEXAAVCString@@@Z 10007c50 f i CurPost.obj
 0001:00006c80       ?GetParentType@CDrObject@@QAEIXZ 10007c80 f i CurPost.obj
 0001:00006ca0       ?SetParentType@CDrObject@@QAEXI@Z 10007ca0 f i CurPost.obj
 0001:00006cd0       ?IsInstanced@CDrObject@@QAEHXZ 10007cd0 f i CurPost.obj
 0001:00006cf0       ?SetInstanced@CDrObject@@QAEXH@Z 10007cf0 f i CurPost.obj
 0001:00006d20       ?GetMatObj@CDrObject@@QAEPAVCMatObj@@XZ 10007d20 f i CurPost.obj
 0001:00006d40       ?SetMatObj@CDrObject@@QAEXPAVCMatObj@@@Z 10007d40 f i CurPost.obj
 0001:00006d70       ?GetSpeLList@CDrObject@@QAEPAVCDListMgr@@XZ 10007d70 f i CurPost.obj
 0001:00006da0       ?GetDynLList@CDrObject@@QAEPAVCDListMgr@@XZ 10007da0 f i CurPost.obj
 0001:00006dd0       ?GetStaLList@CDrObject@@QAEPAVCDListMgr@@XZ 10007dd0 f i CurPost.obj
 0001:00006e00       ?GetSuppList@CDrObject@@QAEPAVCDListMgr@@XZ 10007e00 f i CurPost.obj
 0001:00006e30       ?GetElemList@CDrObject@@QAEPAVCDListMgr@@XZ 10007e30 f i CurPost.obj
 0001:00006e60       ?GetCurveList@CDrObject@@QAEPAVCDListMgr@@XZ 10007e60 f i CurPost.obj
 0001:00006e90       ?GetCProfList@CDrObject@@QAEPAVCDListMgr@@XZ 10007e90 f i CurPost.obj
 0001:00006ec0       ?GetPatchList@CDrObject@@QAEPAVCDListMgr@@XZ 10007ec0 f i CurPost.obj
 0001:00006ef0       ?GetSolidList@CDrObject@@QAEPAVCDListMgr@@XZ 10007ef0 f i CurPost.obj
 0001:00006f20       ?GetObj3DList@CDrObject@@QAEPAVCDListMgr@@XZ 10007f20 f i CurPost.obj
 0001:00006f50       ?GetCNodeList@CDrObject@@QAEPAVCDListMgr@@XZ 10007f50 f i CurPost.obj
 0001:00006f80       ?GetINodeList@CDrObject@@QAEPAVCDListMgr@@XZ 10007f80 f i CurPost.obj
 0001:00006fb0       ?GetNodeList@CDrObject@@QAEPAVCDListMgr@@XZ 10007fb0 f i CurPost.obj
 0001:00006fe0       ?GetLabelList@CDrObject@@QAEPAVCDListMgr@@XZ 10007fe0 f i CurPost.obj
 0001:00007010       ?GetFE0DList@CDrObject@@QAEPAVCDListMgr@@XZ 10008010 f i CurPost.obj
 0001:00007040       ?GetFE1DList@CDrObject@@QAEPAVCDListMgr@@XZ 10008040 f i CurPost.obj
 0001:00007070       ?GetFE2DList@CDrObject@@QAEPAVCDListMgr@@XZ 10008070 f i CurPost.obj
 0001:000070a0       ?GetFE3DList@CDrObject@@QAEPAVCDListMgr@@XZ 100080a0 f i CurPost.obj
 0001:000070d0       ?GetMs0List@CDrObject@@QAEPAVCDListMgr@@XZ 100080d0 f i CurPost.obj
 0001:00007100       ?GetMs1List@CDrObject@@QAEPAVCDListMgr@@XZ 10008100 f i CurPost.obj
 0001:00007130       ?GetMs2List@CDrObject@@QAEPAVCDListMgr@@XZ 10008130 f i CurPost.obj
 0001:00007160       ?GetMs3List@CDrObject@@QAEPAVCDListMgr@@XZ 10008160 f i CurPost.obj
 0001:00007190       ?GetMbj3DList@CDrObject@@QAEPAVCDListMgr@@XZ 10008190 f i CurPost.obj
 0001:000071c0       ?GetM2DProfList@CDrObject@@QAEPAVCDListMgr@@XZ 100081c0 f i CurPost.obj
 0001:000071f0       ?GetM3DProfList@CDrObject@@QAEPAVCDListMgr@@XZ 100081f0 f i CurPost.obj
 0001:00007220       ?GetMbjProfList@CDrObject@@QAEPAVCDListMgr@@XZ 10008220 f i CurPost.obj
 0001:00007250       ?GetScreen2DCorner@CDrObject@@UAE?AUtagPOINT@@H@Z 10008250 f i CurPost.obj
 0001:000072a0       ?SetScreen2DCorner@CDrObject@@UAEXUtagPOINT@@H@Z 100082a0 f i CurPost.obj
 0001:000072e0       ?GetSpawnType@CDrObject@@QAE?AW4SPAWNTYPE@@XZ 100082e0 f i CurPost.obj
 0001:00007300       ?SetSpawnType@CDrObject@@QAEXW4SPAWNTYPE@@@Z 10008300 f i CurPost.obj
 0001:00007330       ?GetCategory@CDrObject@@QAE?AW4CATEGORY@@XZ 10008330 f i CurPost.obj
 0001:00007350       ?SetCategory@CDrObject@@QAEXW4CATEGORY@@@Z 10008350 f i CurPost.obj
 0001:00007380       ?GetSubCat@CDrObject@@QAE?AW4SUBCAT@@XZ 10008380 f i CurPost.obj
 0001:000073a0       ?SetSubCat@CDrObject@@QAEXW4SUBCAT@@@Z 100083a0 f i CurPost.obj
 0001:000073d0       ?GetElemDimLim@CDrObject@@QAE?AW4ELEMDIMLIM@@XZ 100083d0 f i CurPost.obj
 0001:000073f0       ?SetElemDimLim@CDrObject@@QAEXW4ELEMDIMLIM@@@Z 100083f0 f i CurPost.obj
 0001:00007420       ?IsDirty@CDrObject@@QAEHXZ 10008420 f i CurPost.obj
 0001:00007450       ?SetDirty@CDrObject@@QAEXH@Z 10008450 f i CurPost.obj
 0001:00007480       ?IsMoved@CDrObject@@QAEHXZ 10008480 f i CurPost.obj
 0001:000074b0       ?SetMoved@CDrObject@@QAEXH@Z 100084b0 f i CurPost.obj
 0001:000074e0       ?IsEdited@CDrObject@@QAEHXZ 100084e0 f i CurPost.obj
 0001:00007510       ?SetEdited@CDrObject@@QAEXH@Z 10008510 f i CurPost.obj
 0001:00007540       ?IsPosted@CDrObject@@QAEHXZ 10008540 f i CurPost.obj
 0001:00007570       ?SetPosted@CDrObject@@QAEXH@Z 10008570 f i CurPost.obj
 0001:000075a0       ?IsDeleted@CDrObject@@QAEHXZ 100085a0 f i CurPost.obj
 0001:000075d0       ?SetDeleted@CDrObject@@QAEXH@Z 100085d0 f i CurPost.obj
 0001:00007600       ?IsToBeMoved@CDrObject@@QAEHXZ 10008600 f i CurPost.obj
 0001:00007630       ?SetToBeMoved@CDrObject@@QAEXH@Z 10008630 f i CurPost.obj
 0001:00007650       ?IsToBeEdited@CDrObject@@QAEHXZ 10008650 f i CurPost.obj
 0001:00007680       ?SetToBeEdited@CDrObject@@QAEXH@Z 10008680 f i CurPost.obj
 0001:000076a0       ?IsToBePosted@CDrObject@@QAEHXZ 100086a0 f i CurPost.obj
 0001:000076d0       ?SetToBePosted@CDrObject@@QAEXH@Z 100086d0 f i CurPost.obj
 0001:000076f0       ?IsToBeUnPosted@CDrObject@@QAEHXZ 100086f0 f i CurPost.obj
 0001:00007720       ?SetToBeUnPosted@CDrObject@@QAEXH@Z 10008720 f i CurPost.obj
 0001:00007740       ?IsToBeDeleted@CDrObject@@QAEHXZ 10008740 f i CurPost.obj
 0001:00007770       ?SetToBeDeleted@CDrObject@@QAEXH@Z 10008770 f i CurPost.obj
 0001:00007790       ?IsFormatted@CDrObject@@QAEHXZ 10008790 f i CurPost.obj
 0001:000077b0       ?SetFormatted@CDrObject@@QAEXH@Z 100087b0 f i CurPost.obj
 0001:000077e0       ?Parse_drPipe@CDrNode@@UAEPAUnodecard@@PAVCString@@@Z 100087e0 f i CurPost.obj
 0001:00007800       ?GetNodeCard@CDrNode@@UAEPAUnodecard@@XZ 10008800 f i CurPost.obj
 0001:00007830       ?GetCardNo@CDrNode@@UAEHXZ 10008830 f i CurPost.obj
 0001:00007860       ?SetCardNo@CDrNode@@UAEXH@Z 10008860 f i CurPost.obj
 0001:00007890       ?DoFormattedCardView@CDrNode@@UAEXPAVCString@@AAV2@@Z 10008890 f i CurPost.obj
 0001:000078b0       ?DoUnFormattedCardView@CDrNode@@UAEXPAVCString@@@Z 100088b0 f i CurPost.obj
 0001:000078d0       ?GetMaxCorners@CDrNode@@UAEHXZ 100088d0 f i CurPost.obj
 0001:000078f0       ?GetCategory@CDrNode@@UAE?AW4CATEGORY@@XZ 100088f0 f i CurPost.obj
 0001:00007910       ?SetCategory@CDrNode@@UAEXW4CATEGORY@@@Z 10008910 f i CurPost.obj
 0001:00007940       ?GetPrecision@CDrNode@@UAEHXZ 10008940 f i CurPost.obj
 0001:00007970       ?SetPrecision@CDrNode@@UAEXH@Z 10008970 f i CurPost.obj
 0001:000079a0       ?GetFormat@CDrNode@@QAE?AVCString@@XZ 100089a0 f i CurPost.obj
 0001:000079f0       ?SetFormat@CDrNode@@QAEXVCString@@@Z 100089f0 f i CurPost.obj
 0001:00007a70       ?GetMapFactor@CDrNode@@QAENXZ 10008a70 f i CurPost.obj
 0001:00007aa0       ?SetMapFactor@CDrNode@@QAEXN@Z 10008aa0 f i CurPost.obj
 0001:00007ae0       ?GetScaleFactor@CDrNode@@QAENXZ 10008ae0 f i CurPost.obj
 0001:00007b10       ?SetScaleFactor@CDrNode@@QAEXN@Z 10008b10 f i CurPost.obj
 0001:00007b50       ?GetMasterMultFac@CDrNode@@QAEJXZ 10008b50 f i CurPost.obj
 0001:00007b80       ?SetMasterMultFac@CDrNode@@QAEXJ@Z 10008b80 f i CurPost.obj
 0001:00007bb0       ?GetLocalPos@CDrNode@@UAEPAUWORLD@@XZ 10008bb0 f i CurPost.obj
 0001:00007be0       ?SetLocalPos@CDrNode@@UAEXUWORLD@@@Z 10008be0 f i CurPost.obj
 0001:00007c20       ?GetWorldPos@CDrNode@@UAEPAUWORLD@@XZ 10008c20 f i CurPost.obj
 0001:00007c50       ?SetWorldPos@CDrNode@@UAEXUWORLD@@@Z 10008c50 f i CurPost.obj
 0001:00007c90       ?GetEyePos@CDrNode@@UAEPAUWORLD@@XZ 10008c90 f i CurPost.obj
 0001:00007cc0       ?SetEyePos@CDrNode@@UAEXUWORLD@@@Z 10008cc0 f i CurPost.obj
 0001:00007d00       ?GetScreenPos3D@CDrNode@@UAEPAUWORLD@@XZ 10008d00 f i CurPost.obj
 0001:00007d30       ?SetScreenPos3D@CDrNode@@UAEXUWORLD@@@Z 10008d30 f i CurPost.obj
 0001:00007d70       ?GetScreenPos2D@CDrNode@@UAEPAUtagPOINT@@XZ 10008d70 f i CurPost.obj
 0001:00007da0       ?SetScreenPos2D@CDrNode@@UAEXUtagPOINT@@@Z 10008da0 f i CurPost.obj
 0001:00007de0       ?GetNormalWorld@CDrNode@@UAEPAUWORLD@@XZ 10008de0 f i CurPost.obj
 0001:00007e10       ?SetNormalWorld@CDrNode@@UAEXUWORLD@@@Z 10008e10 f i CurPost.obj
 0001:00007e50       ?GetNormalEye@CDrNode@@UAEPAUWORLD@@XZ 10008e50 f i CurPost.obj
 0001:00007e80       ?SetNormalEye@CDrNode@@UAEXUWORLD@@@Z 10008e80 f i CurPost.obj
 0001:00007ec0       ?GetNormalScreen3D@CDrNode@@UAEPAUWORLD@@XZ 10008ec0 f i CurPost.obj
 0001:00007ef0       ?SetNormalScreen3D@CDrNode@@UAEXUWORLD@@@Z 10008ef0 f i CurPost.obj
 0001:00007f30       ?GetNormalScreen2D@CDrNode@@UAEPAUtagPOINT@@XZ 10008f30 f i CurPost.obj
 0001:00007f60       ?SetNormalScreen2D@CDrNode@@UAEXUtagPOINT@@@Z 10008f60 f i CurPost.obj
 0001:00007fa0       ?GetLabelNo@CDrNode@@QAEJXZ 10008fa0 f i CurPost.obj
 0001:00007fd0       ?SetLabelNo@CDrNode@@QAEXJ@Z 10008fd0 f i CurPost.obj
 0001:00008000       ?IsMeshNode@CDrNode@@QAEHXZ 10009000 f i CurPost.obj
 0001:00008030       ?SetMeshNode@CDrNode@@QAEXH@Z 10009030 f i CurPost.obj
 0001:00008060       ?IsGenerated@CDrNode@@QAEHXZ 10009060 f i CurPost.obj
 0001:00008090       ?SetGenerated@CDrNode@@QAEXH@Z 10009090 f i CurPost.obj
 0001:000080c0       ?IsControlNode@CDrNode@@QAEHXZ 100090c0 f i CurPost.obj
 0001:000080f0       ?SetControlNode@CDrNode@@QAEXH@Z 100090f0 f i CurPost.obj
 0001:00008130       ?GetInputMode@CDrNode@@QAEHXZ 10009130 f i CurPost.obj
 0001:00008160       ?SetInputMode@CDrNode@@QAEXH@Z 10009160 f i CurPost.obj
 0001:00008190       ?GetLength@CDrNode@@QAENXZ 10009190 f i CurPost.obj
 0001:000081c0       ?SetLength@CDrNode@@QAEXN@Z 100091c0 f i CurPost.obj
 0001:00008200       ?GetDelta@CDrNode@@QAEPAUWORLD@@XZ 10009200 f i CurPost.obj
 0001:00008230       ?SetDelta@CDrNode@@QAEXUWORLD@@@Z 10009230 f i CurPost.obj
 0001:00008270       ?GetFromID@CDrNode@@QAE?AVCString@@XZ 10009270 f i CurPost.obj
 0001:000082c0       ?SetFromID@CDrNode@@QAEXVCString@@@Z 100092c0 f i CurPost.obj
 0001:00008340       ?GetToID@CDrNode@@QAE?AVCString@@XZ 10009340 f i CurPost.obj
 0001:00008390       ?SetToID@CDrNode@@QAEXVCString@@@Z 10009390 f i CurPost.obj
 0001:00008410       ?IsRefCN@CDrNode@@QAEHXZ   10009410 f i CurPost.obj
 0001:00008440       ?SetRefCN@CDrNode@@QAEXH@Z 10009440 f i CurPost.obj
 0001:00008470       ?IsFromCN@CDrNode@@QAEHXZ  10009470 f i CurPost.obj
 0001:000084a0       ?SetFromCN@CDrNode@@QAEXH@Z 100094a0 f i CurPost.obj
 0001:000084d0       ?IsToCN@CDrNode@@QAEHXZ    100094d0 f i CurPost.obj
 0001:00008500       ?SetToCN@CDrNode@@QAEXH@Z  10009500 f i CurPost.obj
 0001:00008530       ?IsSkewed@CDrNode@@UAEHXZ  10009530 f i CurPost.obj
 0001:00008560       ?SetSkewed@CDrNode@@UAEXH@Z 10009560 f i CurPost.obj
 0001:00008590       ?IsLinSpr@CDrNode@@UAEHXZ  10009590 f i CurPost.obj
 0001:000085c0       ?SetLinSpr@CDrNode@@UAEXH@Z 100095c0 f i CurPost.obj
 0001:000085f0       ?IsLinSnu@CDrNode@@UAEHXZ  100095f0 f i CurPost.obj
 0001:00008620       ?SetLinSnu@CDrNode@@UAEXH@Z 10009620 f i CurPost.obj
 0001:00008650       ?GetSuppCardList@CDrNode@@QAEPAV?$CList@Usupportcard@@U1@@@XZ 10009650 f i CurPost.obj
 0001:00008680       ?GetStaLCardList@CDrNode@@QAEPAV?$CList@UstaLcard@@U1@@@XZ 10009680 f i CurPost.obj
 0001:000086b0       ?GetMaxCorners@CDrLabel@@UAEHXZ 100096b0 f i CurPost.obj
 0001:000086d0       ?SetProjectedCoords@CDrLabel@@UAEXUtagPOINT@@H@Z 100096d0 f i CurPost.obj
 0001:00008710       ?IsMoved@CDrLabel@@UAEHXZ  10009710 f i CurPost.obj
 0001:00008740       ?SetMoved@CDrLabel@@UAEXH@Z 10009740 f i CurPost.obj
 0001:00008770       ?GetNodePtr@CDrLabel@@UAEPAVCDrNode@@XZ 10009770 f i CurPost.obj
 0001:000087a0       ?SetNodePtr@CDrLabel@@UAEXPAVCDrNode@@@Z 100097a0 f i CurPost.obj
 0001:000087d0       ?GetContextObj@CDrLabel@@UAE?AW4CONTEXTOBJ@@XZ 100097d0 f i CurPost.obj
 0001:00008800       ?SetContextObj@CDrLabel@@UAEXW4CONTEXTOBJ@@@Z 10009800 f i CurPost.obj
 0001:00008830       ?GetMeshElemType@CDrLabel@@UAEIXZ 10009830 f i CurPost.obj
 0001:00008860       ?SetMeshElemType@CDrLabel@@UAEXI@Z 10009860 f i CurPost.obj
 0001:00008890       ?GetColor@CDrLabel@@UAEKXZ 10009890 f i CurPost.obj
 0001:000088c0       ?SetColor@CDrLabel@@UAEXK@Z 100098c0 f i CurPost.obj
 0001:000088f0       ?GetViewNum@CDrLabel@@UAEHXZ 100098f0 f i CurPost.obj
 0001:00008920       ?SetViewNum@CDrLabel@@UAEXH@Z 10009920 f i CurPost.obj
 0001:00008950       ?GetType@CDrLabel@@UAEHXZ  10009950 f i CurPost.obj
 0001:00008980       ?SetType@CDrLabel@@UAEXH@Z 10009980 f i CurPost.obj
 0001:000089b0       ?GetText@CDrLabel@@UAE?AVCString@@XZ 100099b0 f i CurPost.obj
 0001:00008a00       ?SetText@CDrLabel@@UAEXVCString@@@Z 10009a00 f i CurPost.obj
 0001:00008a80       ?SetLogFont@CDrLabel@@UAEXUtagLOGFONTA@@@Z 10009a80 f i CurPost.obj
 0001:00008ac0       ?GetLogFont@CDrLabel@@UAE?AUtagLOGFONTA@@XZ 10009ac0 f i CurPost.obj
 0001:00008b00       ?GetOtherCorner@CDrLabel@@UAE?AUtagPOINT@@XZ 10009b00 f i CurPost.obj
 0001:00008b40       ?SetOtherCorner@CDrLabel@@UAEXUtagPOINT@@@Z 10009b40 f i CurPost.obj
 0001:00008b80       ?GetAngle@CDrLabel@@UAEHXZ 10009b80 f i CurPost.obj
 0001:00008bb0       ?SetAngle@CDrLabel@@UAEXH@Z 10009bb0 f i CurPost.obj
 0001:00008be0       ??1CDrLabel@@UAE@XZ        10009be0 f i CurPost.obj
 0001:00008c60       ??_GCDrLabel@@UAEPAXI@Z    10009c60 f i CurPost.obj
 0001:00008ca0       ??_ECDrLabel@@UAEPAXI@Z    10009ca0 f i CurPost.obj
 0001:00008d40       ??1CDlg_LQCI@@UAE@XZ       10009d40 f i CurPost.obj
 0001:00008dc0       ??1CDlg_CrcI@@UAE@XZ       10009dc0 f i CurPost.obj
 0001:00008e40       ?IsDirty@CDrCurve@@UAEHXZ  10009e40 f i CurPost.obj
 0001:00008e70       ?SetDirty@CDrCurve@@UAEXH@Z 10009e70 f i CurPost.obj
 0001:00008ea0       ?IsControlShapeNeeded@CDrCurve@@UAEHXZ 10009ea0 f i CurPost.obj
 0001:00008ed0       ?SetControlShapeNeed@CDrCurve@@UAEXH@Z 10009ed0 f i CurPost.obj
 0001:00008f00       ?IsPosted@CDrCurve@@UAEHXZ 10009f00 f i CurPost.obj
 0001:00008f30       ?SetPosted@CDrCurve@@UAEXH@Z 10009f30 f i CurPost.obj
 0001:00008f60       ?GetCN_BSList@CDrCurve@@QAEPAVCDListMgr@@XZ 10009f60 f i CurPost.obj
 0001:00008f90       ?GetVNodeList@CDrCurve@@QAEPAVCDListMgr@@XZ 10009f90 f i CurPost.obj
 0001:00008fc0       ?GetMeshElemDim@CDrCurve@@QAEHXZ 10009fc0 f i CurPost.obj
 0001:00008ff0       ?SetMeshElemDim@CDrCurve@@QAEXH@Z 10009ff0 f i CurPost.obj
 0001:00009020       ?IsIso@CDrCurve@@QAEHXZ    1000a020 f i CurPost.obj
 0001:00009050       ?SetIso@CDrCurve@@QAEXH@Z  1000a050 f i CurPost.obj
 0001:00009080       ?GetIsoToID@CDrCurve@@QAEAAVCString@@XZ 1000a080 f i CurPost.obj
 0001:000090b0       ?SetIsoToID@CDrCurve@@QAEXAAVCString@@@Z 1000a0b0 f i CurPost.obj
 0001:000090e0       ?GetCompoType@CDrCurve@@QAEHXZ 1000a0e0 f i CurPost.obj
 0001:00009110       ?SetCompoType@CDrCurve@@QAEXH@Z 1000a110 f i CurPost.obj
 0001:00009140       ?GetCompoID@CDrCurve@@QAEAAVCString@@XZ 1000a140 f i CurPost.obj
 0001:00009170       ?SetCompoID@CDrCurve@@QAEXAAVCString@@@Z 1000a170 f i CurPost.obj
 0001:000091a0       ?GetClass_S@CDrCurve@@QAEHXZ 1000a1a0 f i CurPost.obj
 0001:000091d0       ?SetClass_S@CDrCurve@@QAEXH@Z 1000a1d0 f i CurPost.obj
 0001:00009200       ?GetOutSegUnif_S@CDrCurve@@QAEHXZ 1000a200 f i CurPost.obj
 0001:00009230       ?SetOutSegUnif_S@CDrCurve@@QAEXH@Z 1000a230 f i CurPost.obj
 0001:00009260       ?IsClosed_S@CDrCurve@@QAEHXZ 1000a260 f i CurPost.obj
 0001:00009290       ?SetClosed_S@CDrCurve@@QAEXH@Z 1000a290 f i CurPost.obj
 0001:000092c0       ?GetCurveObjectType@CDrCurve@@QAEHXZ 1000a2c0 f i CurPost.obj
 0001:000092f0       ?SetCurveObjectType@CDrCurve@@QAEXH@Z 1000a2f0 f i CurPost.obj
 0001:00009320       ?GetMaxINodes_S@CDrCurve@@QAEHXZ 1000a320 f i CurPost.obj
 0001:00009350       ?SetMaxINodes_S@CDrCurve@@QAEXH@Z 1000a350 f i CurPost.obj
 0001:00009380       ?GetMaxCNodes_S@CDrCurve@@QAEHXZ 1000a380 f i CurPost.obj
 0001:000093b0       ?SetMaxCNodes_S@CDrCurve@@QAEXH@Z 1000a3b0 f i CurPost.obj
 0001:000093e0       ?GetMaxBezSegments_S@CDrCurve@@QAEHXZ 1000a3e0 f i CurPost.obj
 0001:00009410       ?SetMaxBezSegments_S@CDrCurve@@QAEXH@Z 1000a410 f i CurPost.obj
 0001:00009440       ?GetMaxOutPts_S@CDrCurve@@QAEHXZ 1000a440 f i CurPost.obj
 0001:00009470       ?SetMaxOutPts_S@CDrCurve@@QAEXH@Z 1000a470 f i CurPost.obj
 0001:000094a0       ?GetLongOutPts@CDrCurve@@QAEJXZ 1000a4a0 f i CurPost.obj
 0001:000094d0       ?SetLongOutPts@CDrCurve@@QAEXJ@Z 1000a4d0 f i CurPost.obj
 0001:00009500       ?GetCurveType_S@CDrCurve@@QAE?AW4CURVEPROC@@XZ 1000a500 f i CurPost.obj
 0001:00009530       ?SetCurveType_S@CDrCurve@@QAEXW4CURVEPROC@@@Z 1000a530 f i CurPost.obj
 0001:00009560       ?GetOutMethod@CDrCurve@@QAE?AW4CURVEOUTPUT@@XZ 1000a560 f i CurPost.obj
 0001:00009590       ?GetAlfa@CDrCurve@@QAENXZ  1000a590 f i CurPost.obj
 0001:000095c0       ?GetBias@CDrCurve@@QAENXZ  1000a5c0 f i CurPost.obj
 0001:000095f0       ?GetTension@CDrCurve@@QAENXZ 1000a5f0 f i CurPost.obj
 0001:00009620       ?IsUniform_S@CDrCurve@@QAEHXZ 1000a620 f i CurPost.obj
 0001:00009650       ?SetUniform_S@CDrCurve@@QAEXH@Z 1000a650 f i CurPost.obj
 0001:00009680       ?SetOutMethod_S@CDrCurve@@QAEXW4CURVEOUTPUT@@@Z 1000a680 f i CurPost.obj
 0001:000096b0       ?GetMaxOutSeg_S@CDrCurve@@QAEHXZ 1000a6b0 f i CurPost.obj
 0001:000096e0       ?SetMaxOutSeg_S@CDrCurve@@QAEXH@Z 1000a6e0 f i CurPost.obj
 0001:00009710       ?GetDis_AngPointer_S@CDrCurve@@QAEPANXZ 1000a710 f i CurPost.obj
 0001:00009740       ?SetDis_AngPointer_S@CDrCurve@@QAEXPAN@Z 1000a740 f i CurPost.obj
 0001:00009770       ?GetNum_tPointer_S@CDrCurve@@QAEPAHXZ 1000a770 f i CurPost.obj
 0001:000097a0       ?SetNum_tPointer_S@CDrCurve@@QAEXPAH@Z 1000a7a0 f i CurPost.obj
 0001:000097d0       ?GetDis_tPointer_S@CDrCurve@@QAEPANXZ 1000a7d0 f i CurPost.obj
 0001:00009800       ?SetDis_tPointer_S@CDrCurve@@QAEXPAN@Z 1000a800 f i CurPost.obj
 0001:00009830       ?GetNum_tPointer_Ex_S@CDrCurve@@QAEPAHXZ 1000a830 f i CurPost.obj
 0001:00009860       ?SetNum_tPointer_Ex_S@CDrCurve@@QAEXPAH@Z 1000a860 f i CurPost.obj
 0001:00009890       ?GetnBSeg_Ex_S@CDrCurve@@QAEHXZ 1000a890 f i CurPost.obj
 0001:000098c0       ?SetnBSeg_Ex_S@CDrCurve@@QAEXH@Z 1000a8c0 f i CurPost.obj
 0001:000098f0       ?GetBSegPointer_Ex_S@CDrCurve@@QAEPAHXZ 1000a8f0 f i CurPost.obj
 0001:00009920       ?SetBSegPointer_Ex_S@CDrCurve@@QAEXPAH@Z 1000a920 f i CurPost.obj
 0001:00009950       ?SetAlfa@CDrCurve@@QAEXN@Z 1000a950 f i CurPost.obj
 0001:00009990       ?SetBias@CDrCurve@@QAEXN@Z 1000a990 f i CurPost.obj
 0001:000099d0       ?SetTension@CDrCurve@@QAEXN@Z 1000a9d0 f i CurPost.obj
 0001:00009a10       ?GetMemIn@CDrCurve@@QAEPAUWORLD@@XZ 1000aa10 f i CurPost.obj
 0001:00009a40       ?GetMemInWts@CDrCurve@@QAEPANXZ 1000aa40 f i CurPost.obj
 0001:00009a70       ?GetMemInDP@CDrCurve@@QAEPAUtagPOINT@@XZ 1000aa70 f i CurPost.obj
 0001:00009aa0       ?GetMemOut@CDrCurve@@QAEPAUWORLD@@XZ 1000aaa0 f i CurPost.obj
 0001:00009ad0       ?GetMemOutWts@CDrCurve@@QAEPANXZ 1000aad0 f i CurPost.obj
 0001:00009b00       ?GetMemOutDP@CDrCurve@@QAEPAUtagPOINT@@XZ 1000ab00 f i CurPost.obj
 0001:00009b30       ?SetMemIn@CDrCurve@@QAEXPAUWORLD@@@Z 1000ab30 f i CurPost.obj
 0001:00009b60       ?SetMemInWts@CDrCurve@@QAEXPAN@Z 1000ab60 f i CurPost.obj
 0001:00009b90       ?SetMemInDP@CDrCurve@@QAEXPAUtagPOINT@@@Z 1000ab90 f i CurPost.obj
 0001:00009bc0       ?SetMemOut@CDrCurve@@QAEXPAUWORLD@@@Z 1000abc0 f i CurPost.obj
 0001:00009bf0       ?SetMemOutWts@CDrCurve@@QAEXPAN@Z 1000abf0 f i CurPost.obj
 0001:00009c20       ?SetMemOutDP@CDrCurve@@QAEXPAUtagPOINT@@@Z 1000ac20 f i CurPost.obj
 0001:00009c50       ?FixMemD@CDrCurve@@QAEPANJ@Z 1000ac50 f i CurPost.obj
 0001:00009ca0       ?FreeMemD@CDrCurve@@QAEXPAN@Z 1000aca0 f i CurPost.obj
 0001:00009cd0       ?FixMem@CDrCurve@@QAEPAUWORLD@@J@Z 1000acd0 f i CurPost.obj
 0001:00009d20       ?FreeMem@CDrCurve@@QAEXPAUWORLD@@@Z 1000ad20 f i CurPost.obj
 0001:00009d50       ?FixMemDP@CDrCurve@@QAEPAUtagPOINT@@J@Z 1000ad50 f i CurPost.obj
 0001:00009da0       ?FreeMemDP@CDrCurve@@QAEXPAUtagPOINT@@@Z 1000ada0 f i CurPost.obj
 0001:00009dd0       ?GetData_S@CDrCurve@@QAEHXZ 1000add0 f i CurPost.obj
 0001:00009e00       ?SetData_S@CDrCurve@@QAEXH@Z 1000ae00 f i CurPost.obj
 0001:00009e30       ?GetOrder_S@CDrCurve@@QAEHXZ 1000ae30 f i CurPost.obj
 0001:00009e60       ?SetOrder_S@CDrCurve@@QAEXH@Z 1000ae60 f i CurPost.obj
 0001:00009e90       ?GetKnotType_S@CDrCurve@@QAE?AW4KNOT@@XZ 1000ae90 f i CurPost.obj
 0001:00009ec0       ?SetKnotType_S@CDrCurve@@QAEXW4KNOT@@@Z 1000aec0 f i CurPost.obj
 0001:00009ef0       ?GetWtType_S@CDrCurve@@QAE?AW4WEIGHT@@XZ 1000aef0 f i CurPost.obj
 0001:00009f20       ?SetWtType_S@CDrCurve@@QAEXW4WEIGHT@@@Z 1000af20 f i CurPost.obj
 0001:00009f50       ?GetBCL_S@CDrCurve@@QAE?AW4BOUNDARY@@XZ 1000af50 f i CurPost.obj
 0001:00009f80       ?SetBCL_S@CDrCurve@@QAEXW4BOUNDARY@@@Z 1000af80 f i CurPost.obj
 0001:00009fb0       ?GetBCR_S@CDrCurve@@QAE?AW4BOUNDARY@@XZ 1000afb0 f i CurPost.obj
 0001:00009fe0       ?SetBCR_S@CDrCurve@@QAEXW4BOUNDARY@@@Z 1000afe0 f i CurPost.obj
 0001:0000a010       ?GetTanL_S@CDrCurve@@QAE?AUVECTOR@@XZ 1000b010 f i CurPost.obj
 0001:0000a050       ?SetTanL_S@CDrCurve@@QAEXUVECTOR@@@Z 1000b050 f i CurPost.obj
 0001:0000a090       ?GetTanR_S@CDrCurve@@QAE?AUVECTOR@@XZ 1000b090 f i CurPost.obj
 0001:0000a0d0       ?SetTanR_S@CDrCurve@@QAEXUVECTOR@@@Z 1000b0d0 f i CurPost.obj
 0001:0000a110       ?GetnCon_BS_S@CDrCurve@@QAEHXZ 1000b110 f i CurPost.obj
 0001:0000a140       ?SetnCon_BS_S@CDrCurve@@QAEXH@Z 1000b140 f i CurPost.obj
 0001:0000a170       ?GetnCon_BZ_S@CDrCurve@@QAEHXZ 1000b170 f i CurPost.obj
 0001:0000a1a0       ?SetnCon_BZ_S@CDrCurve@@QAEXH@Z 1000b1a0 f i CurPost.obj
 0001:0000a1d0       ?GetnMKnots_S@CDrCurve@@QAEHXZ 1000b1d0 f i CurPost.obj
 0001:0000a200       ?SetnMKnots_S@CDrCurve@@QAEXH@Z 1000b200 f i CurPost.obj
 0001:0000a230       ?GetnKnots_S@CDrCurve@@QAEHXZ 1000b230 f i CurPost.obj
 0001:0000a260       ?SetnKnots_S@CDrCurve@@QAEXH@Z 1000b260 f i CurPost.obj
 0001:0000a290       ?GetnDim_S@CDrCurve@@QAEHXZ 1000b290 f i CurPost.obj
 0001:0000a2c0       ?SetnDim_S@CDrCurve@@QAEXH@Z 1000b2c0 f i CurPost.obj
 0001:0000a2f0       ?GetpMKnots_S@CDrCurve@@QAEPANXZ 1000b2f0 f i CurPost.obj
 0001:0000a320       ?SetpMKnots_S@CDrCurve@@QAEXPAN@Z 1000b320 f i CurPost.obj
 0001:0000a350       ?GetpWts_BS_S@CDrCurve@@QAEPANXZ 1000b350 f i CurPost.obj
 0001:0000a380       ?SetpWts_BS_S@CDrCurve@@QAEXPAN@Z 1000b380 f i CurPost.obj
 0001:0000a3b0       ?GetpKnots_S@CDrCurve@@QAEPANXZ 1000b3b0 f i CurPost.obj
 0001:0000a3e0       ?SetpKnots_S@CDrCurve@@QAEXPAN@Z 1000b3e0 f i CurPost.obj
 0001:0000a410       ?GetpWts_DT_S@CDrCurve@@QAEPANXZ 1000b410 f i CurPost.obj
 0001:0000a440       ?SetpWts_DT_S@CDrCurve@@QAEXPAN@Z 1000b440 f i CurPost.obj
 0001:0000a470       ?GetpWts_BZ_S@CDrCurve@@QAEPANXZ 1000b470 f i CurPost.obj
 0001:0000a4a0       ?SetpWts_BZ_S@CDrCurve@@QAEXPAN@Z 1000b4a0 f i CurPost.obj
 0001:0000a4d0       ?GetFromIDNode_S@CDrCurve@@QAEPAVCDrNode@@XZ 1000b4d0 f i CurPost.obj
 0001:0000a500       ?SetFromIDNode_S@CDrCurve@@QAEXPAVCDrNode@@@Z 1000b500 f i CurPost.obj
 0001:0000a530       ?GetToIDNode_S@CDrCurve@@QAEPAVCDrNode@@XZ 1000b530 f i CurPost.obj
 0001:0000a560       ?SetToIDNode_S@CDrCurve@@QAEXPAVCDrNode@@@Z 1000b560 f i CurPost.obj
 0001:0000a590       ?GetData_Ex_S@CDrCurve@@QAEHXZ 1000b590 f i CurPost.obj
 0001:0000a5c0       ?SetData_Ex_S@CDrCurve@@QAEXH@Z 1000b5c0 f i CurPost.obj
 0001:0000a5f0       ?IsExpanded_S@CDrCurve@@QAEHXZ 1000b5f0 f i CurPost.obj
 0001:0000a620       ?SetExpanded_S@CDrCurve@@QAEXH@Z 1000b620 f i CurPost.obj
 0001:0000a650       ?GetMaxENodes_S@CDrCurve@@QAEHXZ 1000b650 f i CurPost.obj
 0001:0000a680       ?SetMaxENodes_S@CDrCurve@@QAEXH@Z 1000b680 f i CurPost.obj
 0001:0000a6b0       ?GetRadius_S@CDrCurve@@QAENXZ 1000b6b0 f i CurPost.obj
 0001:0000a6e0       ?SetRadius_S@CDrCurve@@QAEXN@Z 1000b6e0 f i CurPost.obj
 0001:0000a720       ?GetTheta_S@CDrCurve@@QAENXZ 1000b720 f i CurPost.obj
 0001:0000a750       ?SetTheta_S@CDrCurve@@QAEXN@Z 1000b750 f i CurPost.obj
 0001:0000a790       ?GetCenter_S@CDrCurve@@QAE?AUWORLD@@XZ 1000b790 f i CurPost.obj
 0001:0000a7d0       ?SetCenter_S@CDrCurve@@QAEXUWORLD@@@Z 1000b7d0 f i CurPost.obj
 0001:0000a840       ?GetNormal_S@CDrCurve@@QAE?AUWORLD@@XZ 1000b840 f i CurPost.obj
 0001:0000a880       ?SetNormal_S@CDrCurve@@QAEXUWORLD@@@Z 1000b880 f i CurPost.obj
 0001:0000a8f0       ?GetSegAngle_S@CDrCurve@@QAENXZ 1000b8f0 f i CurPost.obj
 0001:0000a920       ?SetSegAngle_S@CDrCurve@@QAEXN@Z 1000b920 f i CurPost.obj
 0001:0000a960       ?GetCNode_CC@CDrCurve@@QAEPAVCDrNode@@XZ 1000b960 f i CurPost.obj
 0001:0000a990       ?SetCNode_CC@CDrCurve@@QAEXPAVCDrNode@@@Z 1000b990 f i CurPost.obj
 0001:0000a9c0       ?GetCNode_TI@CDrCurve@@QAEPAVCDrNode@@XZ 1000b9c0 f i CurPost.obj
 0001:0000a9f0       ?SetCNode_TI@CDrCurve@@QAEXPAVCDrNode@@@Z 1000b9f0 f i CurPost.obj
 0001:0000aa20       ?GetCNode_CA@CDrCurve@@QAEPAVCDrNode@@XZ 1000ba20 f i CurPost.obj
 0001:0000aa50       ?SetCNode_CA@CDrCurve@@QAEXPAVCDrNode@@@Z 1000ba50 f i CurPost.obj
 0001:0000aa80       ?GetCNode_CB@CDrCurve@@QAEPAVCDrNode@@XZ 1000ba80 f i CurPost.obj
 0001:0000aab0       ?SetCNode_CB@CDrCurve@@QAEXPAVCDrNode@@@Z 1000bab0 f i CurPost.obj
 0001:0000aae0       ?IsHole_S@CDrCurve@@QAEHXZ 1000bae0 f i CurPost.obj
 0001:0000ab10       ?SetHole_S@CDrCurve@@QAEXH@Z 1000bb10 f i CurPost.obj
 0001:0000ab40       ?GetpTangents_S@CDrCurve@@QAEPAUWORLD@@XZ 1000bb40 f i CurPost.obj
 0001:0000ab70       ?SetpTangents_S@CDrCurve@@QAEXPAUWORLD@@@Z 1000bb70 f i CurPost.obj
 0001:0000aba0       ?GetpCurvatures_S@CDrCurve@@QAEPANXZ 1000bba0 f i CurPost.obj
 0001:0000abd0       ?SetpCurvatures_S@CDrCurve@@QAEXPAN@Z 1000bbd0 f i CurPost.obj
 0001:0000ac00       ?GetRatio_S@CDrCurve@@QAENXZ 1000bc00 f i CurPost.obj
 0001:0000ac30       ?SetRatio_S@CDrCurve@@QAEXN@Z 1000bc30 f i CurPost.obj
 0001:0000ac70       ?IsAxisInput@CDrCurve@@QAEHXZ 1000bc70 f i CurPost.obj
 0001:0000aca0       ?SetAxisInput@CDrCurve@@QAEXH@Z 1000bca0 f i CurPost.obj
 0001:0000acd0       ?GetAxis@CDrCurve@@QAEHXZ  1000bcd0 f i CurPost.obj
 0001:0000ad00       ?SetAxis@CDrCurve@@QAEXH@Z 1000bd00 f i CurPost.obj
 0001:0000ad30       ?IsNegative@CDrCurve@@QAEHXZ 1000bd30 f i CurPost.obj
 0001:0000ad60       ?SetNegative@CDrCurve@@QAEXH@Z 1000bd60 f i CurPost.obj
 0001:0000ad90       ?GetCircleType@CDrCurve@@QAE?AW4CIRCLETYPE@@XZ 1000bd90 f i CurPost.obj
 0001:0000adc0       ?SetCircleType@CDrCurve@@QAEXW4CIRCLETYPE@@@Z 1000bdc0 f i CurPost.obj
 0001:0000adf0       ?GetInputType@CDrCurve@@QAEHXZ 1000bdf0 f i CurPost.obj
 0001:0000ae20       ?SetInputType@CDrCurve@@QAEXH@Z 1000be20 f i CurPost.obj
 0001:0000ae50       ?IsArcType@CDrCurve@@QAEHXZ 1000be50 f i CurPost.obj
 0001:0000ae80       ?SetArcType@CDrCurve@@QAEXH@Z 1000be80 f i CurPost.obj
 0001:0000aeb0       ?GetElperSegList_S@CDrCurve@@QAEPAV?$CList@HH@@XZ 1000beb0 f i CurPost.obj
 0001:0000aee0       ?IsSkewed@CDrCurve@@UAEHXZ 1000bee0 f i CurPost.obj
 0001:0000af10       ?SetSkewed@CDrCurve@@UAEXH@Z 1000bf10 f i CurPost.obj
 0001:0000af40       ?IsLinSpr@CDrCurve@@UAEHXZ 1000bf40 f i CurPost.obj
 0001:0000af70       ?SetLinSpr@CDrCurve@@UAEXH@Z 1000bf70 f i CurPost.obj
 0001:0000afa0       ?IsLinSnu@CDrCurve@@UAEHXZ 1000bfa0 f i CurPost.obj
 0001:0000afd0       ?SetLinSnu@CDrCurve@@UAEXH@Z 1000bfd0 f i CurPost.obj
 0001:0000b000       ?CullWorld@CDrCurve@@UAEHUWORLD@@@Z 1000c000 f i CurPost.obj
 0001:0000b020       ?CullScreen@CDrCurve@@UAEHPAUMATRIX@@@Z 1000c020 f i CurPost.obj
 0001:0000b040       ?Calc_CentroidWorld@CDrCurve@@UAEXXZ 1000c040 f i CurPost.obj
 0001:0000b060       ?Calc_CentroidEye@CDrCurve@@UAEXXZ 1000c060 f i CurPost.obj
 0001:0000b080       ?Calc_CentroidScreen3D@CDrCurve@@UAEXNN@Z 1000c080 f i CurPost.obj
 0001:0000b0a0       ?Calc_NormalWorld@CDrCurve@@UAEXXZ 1000c0a0 f i CurPost.obj
 0001:0000b0c0       ?TransformNormalToEye@CDrCurve@@UAEXPAUMATRIX@@@Z 1000c0c0 f i CurPost.obj
 0001:0000b0e0       ?ProjectNormalToScreen3D@CDrCurve@@UAEXPAUMATRIX@@NN@Z 1000c0e0 f i CurPost.obj
 0001:0000b100       ?GetNormalWorld@CDrCurve@@UAEPAUWORLD@@XZ 1000c100 f i CurPost.obj
 0001:0000b120       ?SetNormalWorld@CDrCurve@@UAEXUWORLD@@@Z 1000c120 f i CurPost.obj
 0001:0000b140       ?GetNormalEye@CDrCurve@@UAEPAUWORLD@@XZ 1000c140 f i CurPost.obj
 0001:0000b160       ?SetNormalEye@CDrCurve@@UAEXUWORLD@@@Z 1000c160 f i CurPost.obj
 0001:0000b180       ?GetNormalScreen3D@CDrCurve@@UAEPAUWORLD@@XZ 1000c180 f i CurPost.obj
 0001:0000b1a0       ?SetNormalScreen3D@CDrCurve@@UAEXUWORLD@@@Z 1000c1a0 f i CurPost.obj
 0001:0000b1c0       ?GetNormalScreen2D@CDrCurve@@UAEPAUtagPOINT@@XZ 1000c1c0 f i CurPost.obj
 0001:0000b1e0       ?SetNormalScreen2D@CDrCurve@@UAEXUtagPOINT@@@Z 1000c1e0 f i CurPost.obj
 0001:0000b200       ?GetNodTopoList@CDrCurve@@QAEPAVCDListMgr@@XZ 1000c200 f i CurPost.obj
 0001:0000b230       ?GetSuppCardList@CDrCurve@@QAEPAV?$CList@Usupportcard@@U1@@@XZ 1000c230 f i CurPost.obj
 0001:0000b260       ?GetStaLCardList@CDrCurve@@QAEPAV?$CList@UstaLcard@@U1@@@XZ 1000c260 f i CurPost.obj
 0001:0000b290       ?GetBndryPtList@CDrCurve@@QAEPAV?$CList@UWORLD@@U1@@@XZ 1000c290 f i CurPost.obj
 0001:0000b2c0       ?GetBezierType@CDrCurve@@QAE?AW4BEZIERTYPE@@XZ 1000c2c0 f i CurPost.obj
 0001:0000b2f0       ?SetBezierType@CDrCurve@@QAEXW4BEZIERTYPE@@@Z 1000c2f0 f i CurPost.obj
 0001:0000b320       ?IsSubDivided@CTriangle@@UAEHXZ 1000c320 f i CurPost.obj
 0001:0000b340       ?SetSubDivided@CTriangle@@UAEXH@Z 1000c340 f i CurPost.obj
 0001:0000b370       ?GetSubTriangleIndex@CTriangle@@UAEHH@Z 1000c370 f i CurPost.obj
 0001:0000b3a0       ?SetSubTriangleIndex@CTriangle@@UAEXHH@Z 1000c3a0 f i CurPost.obj
 0001:0000b3d0       ?GetType@CTriangle@@UAEHXZ 1000c3d0 f i CurPost.obj
 0001:0000b3f0       ?SetType@CTriangle@@UAEXH@Z 1000c3f0 f i CurPost.obj
 0001:0000b420       ?GetCNIndexList@CTriangle@@UAEPAV?$CList@HH@@XZ 1000c420 f i CurPost.obj
 0001:0000b440       ?GetPatIndex@CTriangle@@UAEHXZ 1000c440 f i CurPost.obj
 0001:0000b460       ?SetPatIndex@CTriangle@@UAEXH@Z 1000c460 f i CurPost.obj
 0001:0000b490       ?GetDegree@CTriangle@@UAEHXZ 1000c490 f i CurPost.obj
 0001:0000b4b0       ?SetDegree@CTriangle@@UAEXH@Z 1000c4b0 f i CurPost.obj
 0001:0000b4e0       ?GetVertexIndex@CTriangle@@UAEHH@Z 1000c4e0 f i CurPost.obj
 0001:0000b510       ?SetVertexIndex@CTriangle@@UAEXHH@Z 1000c510 f i CurPost.obj
 0001:0000b540       ?GetVertexIndex@CTriangle@@UAEPAHXZ 1000c540 f i CurPost.obj
 0001:0000b560       ?GetNebrVertexIndex@CTriangle@@UAEHH@Z 1000c560 f i CurPost.obj
 0001:0000b590       ?SetNebrVertexIndex@CTriangle@@UAEXHH@Z 1000c590 f i CurPost.obj
 0001:0000b5c0       ?GetNebrVertexIndex@CTriangle@@UAEPAHXZ 1000c5c0 f i CurPost.obj
 0001:0000b5e0       ?GetNebrTriangleIndex@CTriangle@@UAEHH@Z 1000c5e0 f i CurPost.obj
 0001:0000b610       ?SetNebrTriangleIndex@CTriangle@@UAEXHH@Z 1000c610 f i CurPost.obj
 0001:0000b640       ?GetNebrTriangleIndex@CTriangle@@UAEPAHXZ 1000c640 f i CurPost.obj
 0001:0000b660       ?GetOutSeg@CTriangle@@UAEHXZ 1000c660 f i CurPost.obj
 0001:0000b680       ?SetOutSeg@CTriangle@@UAEXH@Z 1000c680 f i CurPost.obj
 0001:0000b6b0       ?GetiOutGlo@CTriangle@@UAEHXZ 1000c6b0 f i CurPost.obj
 0001:0000b6e0       ?SetiOutGlo@CTriangle@@UAEXH@Z 1000c6e0 f i CurPost.obj
 0001:0000b710       ?GetjOutGlo@CTriangle@@UAEHXZ 1000c710 f i CurPost.obj
 0001:0000b740       ?SetjOutGlo@CTriangle@@UAEXH@Z 1000c740 f i CurPost.obj
 0001:0000b770       ??1CTriangle@@UAE@XZ       1000c770 f i CurPost.obj
 0001:0000b7f0       ??_GCTriangle@@UAEPAXI@Z   1000c7f0 f i CurPost.obj
 0001:0000b830       ??_ECTriangle@@UAEPAXI@Z   1000c830 f i CurPost.obj
 0001:0000b8d0       ?GetCategory@CDrPatch@@UAE?AW4CATEGORY@@XZ 1000c8d0 f i CurPost.obj
 0001:0000b8f0       ?SetCategory@CDrPatch@@UAEXW4CATEGORY@@@Z 1000c8f0 f i CurPost.obj
 0001:0000b920       ?IsNormalNeeded@CDrPatch@@UAEHXZ 1000c920 f i CurPost.obj
 0001:0000b950       ?SetNormalNeed@CDrPatch@@UAEXH@Z 1000c950 f i CurPost.obj
 0001:0000b980       ?GetCurveType_T@CDrPatch@@QAE?AW4CURVEPROC@@XZ 1000c980 f i CurPost.obj
 0001:0000b9b0       ?SetCurveType_T@CDrPatch@@QAEXW4CURVEPROC@@@Z 1000c9b0 f i CurPost.obj
 0001:0000b9e0       ?GetOutSegUnif_T@CDrPatch@@QAEHXZ 1000c9e0 f i CurPost.obj
 0001:0000ba10       ?SetOutSegUnif_T@CDrPatch@@QAEXH@Z 1000ca10 f i CurPost.obj
 0001:0000ba40       ?IsClosed_T@CDrPatch@@QAEHXZ 1000ca40 f i CurPost.obj
 0001:0000ba70       ?SetClosed_T@CDrPatch@@QAEXH@Z 1000ca70 f i CurPost.obj
 0001:0000baa0       ?GetMaxBezSegments_T@CDrPatch@@QAEHXZ 1000caa0 f i CurPost.obj
 0001:0000bad0       ?SetMaxBezSegments_T@CDrPatch@@QAEXH@Z 1000cad0 f i CurPost.obj
 0001:0000bb00       ?GetMaxCNodes_T@CDrPatch@@QAEHXZ 1000cb00 f i CurPost.obj
 0001:0000bb30       ?SetMaxCNodes_T@CDrPatch@@QAEXH@Z 1000cb30 f i CurPost.obj
 0001:0000bb60       ?GetMaxOutPts_T@CDrPatch@@QAEHXZ 1000cb60 f i CurPost.obj
 0001:0000bb90       ?SetMaxOutPts_T@CDrPatch@@QAEXH@Z 1000cb90 f i CurPost.obj
 0001:0000bbc0       ?GetNodes_S@CDrPatch@@QAEHXZ 1000cbc0 f i CurPost.obj
 0001:0000bbf0       ?SetNodes_S@CDrPatch@@QAEXH@Z 1000cbf0 f i CurPost.obj
 0001:0000bc20       ?GetNodes_T@CDrPatch@@QAEHXZ 1000cc20 f i CurPost.obj
 0001:0000bc50       ?SetNodes_T@CDrPatch@@QAEXH@Z 1000cc50 f i CurPost.obj
 0001:0000bc80       ?GetPrimaryDir@CDrPatch@@QAEHXZ 1000cc80 f i CurPost.obj
 0001:0000bcb0       ?SetPrimaryDir@CDrPatch@@QAEXH@Z 1000ccb0 f i CurPost.obj
 0001:0000bce0       ?GetBlendCurve@CDrPatch@@QAEPAVCDrCurve@@XZ 1000cce0 f i CurPost.obj
 0001:0000bd10       ?SetBlendCurve@CDrPatch@@QAEXPAVCDrCurve@@@Z 1000cd10 f i CurPost.obj
 0001:0000bd40       ?GetBlendCurve_U@CDrPatch@@QAEPAVCDrCurve@@XZ 1000cd40 f i CurPost.obj
 0001:0000bd70       ?SetBlendCurve_U@CDrPatch@@QAEXPAVCDrCurve@@@Z 1000cd70 f i CurPost.obj
 0001:0000bda0       ?GetBlendCurve_V@CDrPatch@@QAEPAVCDrCurve@@XZ 1000cda0 f i CurPost.obj
 0001:0000bdd0       ?SetBlendCurve_V@CDrPatch@@QAEXPAVCDrCurve@@@Z 1000cdd0 f i CurPost.obj
 0001:0000be00       ?GetBlendCurve_W@CDrPatch@@QAEPAVCDrCurve@@XZ 1000ce00 f i CurPost.obj
 0001:0000be30       ?SetBlendCurve_W@CDrPatch@@QAEXPAVCDrCurve@@@Z 1000ce30 f i CurPost.obj
 0001:0000be60       ?GetVCurveList@CDrPatch@@QAEPAVCDListMgr@@XZ 1000ce60 f i CurPost.obj
 0001:0000be90       ?GetCurveList_U@CDrPatch@@QAEPAVCDListMgr@@XZ 1000ce90 f i CurPost.obj
 0001:0000bec0       ?GetCurveList_V@CDrPatch@@QAEPAVCDListMgr@@XZ 1000cec0 f i CurPost.obj
 0001:0000bef0       ?GetCurveList_W@CDrPatch@@QAEPAVCDListMgr@@XZ 1000cef0 f i CurPost.obj
 0001:0000bf20       ?GetCurveLatchList_U@CDrPatch@@QAEPAV?$CList@W4CURVELATCH@@W41@@@XZ 1000cf20 f i CurPost.obj
 0001:0000bf50       ?GetCurveLatchList_V@CDrPatch@@QAEPAV?$CList@W4CURVELATCH@@W41@@@XZ 1000cf50 f i CurPost.obj
 0001:0000bf80       ?GetCurveLatchList_W@CDrPatch@@QAEPAV?$CList@W4CURVELATCH@@W41@@@XZ 1000cf80 f i CurPost.obj
 0001:0000bfb0       ?IsAdvancedEnd_U@CDrPatch@@QAEHXZ 1000cfb0 f i CurPost.obj
 0001:0000bfe0       ?SetAdvancedEnd_U@CDrPatch@@QAEXH@Z 1000cfe0 f i CurPost.obj
 0001:0000c010       ?GetCornerTwist_U@CDrPatch@@QAEPAY01UWORLD@@XZ 1000d010 f i CurPost.obj
 0001:0000c040       ?SetCornerTwist_U@CDrPatch@@QAEXPAY01UWORLD@@@Z 1000d040 f i CurPost.obj
 0001:0000c070       ?GetTwistMethod_U@CDrPatch@@QAE?AW4TWIST@@XZ 1000d070 f i CurPost.obj
 0001:0000c0a0       ?SetTwistMethod_U@CDrPatch@@QAEXW4TWIST@@@Z 1000d0a0 f i CurPost.obj
 0001:0000c0d0       ?IsAdvancedEnd_V@CDrPatch@@QAEHXZ 1000d0d0 f i CurPost.obj
 0001:0000c100       ?SetAdvancedEnd_V@CDrPatch@@QAEXH@Z 1000d100 f i CurPost.obj
 0001:0000c130       ?GetCornerTwist_V@CDrPatch@@QAEPAY01UWORLD@@XZ 1000d130 f i CurPost.obj
 0001:0000c160       ?SetCornerTwist_V@CDrPatch@@QAEXPAY01UWORLD@@@Z 1000d160 f i CurPost.obj
 0001:0000c190       ?GetTwistMethod_V@CDrPatch@@QAE?AW4TWIST@@XZ 1000d190 f i CurPost.obj
 0001:0000c1c0       ?SetTwistMethod_V@CDrPatch@@QAEXW4TWIST@@@Z 1000d1c0 f i CurPost.obj
 0001:0000c1f0       ?GetEndList_U@CDrPatch@@QAEPAV?$CList@Ublendend@@U1@@@XZ 1000d1f0 f i CurPost.obj
 0001:0000c220       ?GetEndList_V@CDrPatch@@QAEPAV?$CList@Ublendend@@U1@@@XZ 1000d220 f i CurPost.obj
 0001:0000c250       ?GetElperSegList_T@CDrPatch@@QAEPAV?$CList@HH@@XZ 1000d250 f i CurPost.obj
 0001:0000c280       ?GetCurveID@CDrPatch@@QAE?AVCString@@H@Z 1000d280 f i CurPost.obj
 0001:0000c2d0       ?SetCurveID@CDrPatch@@QAEXVCString@@H@Z 1000d2d0 f i CurPost.obj
 0001:0000c350       ?GetBndryCurve@CDrPatch@@QAEPAVCDrCurve@@H@Z 1000d350 f i CurPost.obj
 0001:0000c380       ?SetCurve@CDrPatch@@QAEXPAVCDrCurve@@H@Z 1000d380 f i CurPost.obj
 0001:0000c3b0       ?GetCurveLatch@CDrPatch@@QAE?AW4CURVELATCH@@H@Z 1000d3b0 f i CurPost.obj
 0001:0000c3e0       ?SetCurveLatch@CDrPatch@@QAEXW4CURVELATCH@@H@Z 1000d3e0 f i CurPost.obj
 0001:0000c410       ?GetFromIDNode_T@CDrPatch@@QAEPAVCDrNode@@XZ 1000d410 f i CurPost.obj
 0001:0000c440       ?SetFromIDNode_T@CDrPatch@@QAEXPAVCDrNode@@@Z 1000d440 f i CurPost.obj
 0001:0000c470       ?GetToIDNode_T@CDrPatch@@QAEPAVCDrNode@@XZ 1000d470 f i CurPost.obj
 0001:0000c4a0       ?SetToIDNode_T@CDrPatch@@QAEXPAVCDrNode@@@Z 1000d4a0 f i CurPost.obj
 0001:0000c4d0       ?GetFromPtLocal_T@CDrPatch@@QAEPAUWORLD@@XZ 1000d4d0 f i CurPost.obj
 0001:0000c500       ?SetFromPtLocal_T@CDrPatch@@QAEXUWORLD@@@Z 1000d500 f i CurPost.obj
 0001:0000c540       ?GetToPtLocal_T@CDrPatch@@QAEPAUWORLD@@XZ 1000d540 f i CurPost.obj
 0001:0000c570       ?SetToPtLocal_T@CDrPatch@@QAEXUWORLD@@@Z 1000d570 f i CurPost.obj
 0001:0000c5b0       ?GetFromPtWorld_T@CDrPatch@@QAEPAUWORLD@@XZ 1000d5b0 f i CurPost.obj
 0001:0000c5e0       ?SetFromPtWorld_T@CDrPatch@@QAEXUWORLD@@@Z 1000d5e0 f i CurPost.obj
 0001:0000c620       ?GetToPtWorld_T@CDrPatch@@QAEPAUWORLD@@XZ 1000d620 f i CurPost.obj
 0001:0000c650       ?SetToPtWorld_T@CDrPatch@@QAEXUWORLD@@@Z 1000d650 f i CurPost.obj
 0001:0000c690       ?GetFromPtEye_T@CDrPatch@@QAEPAUWORLD@@XZ 1000d690 f i CurPost.obj
 0001:0000c6c0       ?SetFromPtEye_T@CDrPatch@@QAEXUWORLD@@@Z 1000d6c0 f i CurPost.obj
 0001:0000c700       ?GetToPtEye_T@CDrPatch@@QAEPAUWORLD@@XZ 1000d700 f i CurPost.obj
 0001:0000c730       ?SetToPtEye_T@CDrPatch@@QAEXUWORLD@@@Z 1000d730 f i CurPost.obj
 0001:0000c770       ?GetAxis_T@CDrPatch@@QAEPAUWORLD@@XZ 1000d770 f i CurPost.obj
 0001:0000c7a0       ?SetAxis_T@CDrPatch@@QAEXUWORLD@@@Z 1000d7a0 f i CurPost.obj
 0001:0000c7e0       ?GetExtruType_T@CDrPatch@@QAEHXZ 1000d7e0 f i CurPost.obj
 0001:0000c810       ?SetExtruType_T@CDrPatch@@QAEXH@Z 1000d810 f i CurPost.obj
 0001:0000c840       ?GetLength_T@CDrPatch@@QAENXZ 1000d840 f i CurPost.obj
 0001:0000c870       ?SetLength_T@CDrPatch@@QAEXN@Z 1000d870 f i CurPost.obj
 0001:0000c8b0       ?GetWorldLength_T@CDrPatch@@QAE?AUWORLD@@XZ 1000d8b0 f i CurPost.obj
 0001:0000c8f0       ?SetWorldLength_T@CDrPatch@@QAEXUWORLD@@@Z 1000d8f0 f i CurPost.obj
 0001:0000c930       ?GetSegs_T@CDrPatch@@QAEHXZ 1000d930 f i CurPost.obj
 0001:0000c960       ?SetSegs_T@CDrPatch@@QAEXH@Z 1000d960 f i CurPost.obj
 0001:0000c990       ?IsAxisInput_T@CDrPatch@@QAEHXZ 1000d990 f i CurPost.obj
 0001:0000c9c0       ?SetAxisInput_T@CDrPatch@@QAEXH@Z 1000d9c0 f i CurPost.obj
 0001:0000c9f0       ?GetAxisType_T@CDrPatch@@QAEHXZ 1000d9f0 f i CurPost.obj
 0001:0000ca20       ?SetAxisType_T@CDrPatch@@QAEXH@Z 1000da20 f i CurPost.obj
 0001:0000ca50       ?IsNegative_T@CDrPatch@@QAEHXZ 1000da50 f i CurPost.obj
 0001:0000ca80       ?SetNegative_T@CDrPatch@@QAEXH@Z 1000da80 f i CurPost.obj
 0001:0000cab0       ?GetCircleType_T@CDrPatch@@QAE?AW4CIRCLETYPE@@XZ 1000dab0 f i CurPost.obj
 0001:0000cae0       ?SetCircleType_T@CDrPatch@@QAEXW4CIRCLETYPE@@@Z 1000dae0 f i CurPost.obj
 0001:0000cb10       ?GetAng_1_T@CDrPatch@@QAENXZ 1000db10 f i CurPost.obj
 0001:0000cb40       ?SetAng_1_T@CDrPatch@@QAEXN@Z 1000db40 f i CurPost.obj
 0001:0000cb80       ?GetAng_2_T@CDrPatch@@QAENXZ 1000db80 f i CurPost.obj
 0001:0000cbb0       ?SetAng_2_T@CDrPatch@@QAEXN@Z 1000dbb0 f i CurPost.obj
 0001:0000cbf0       ?GetPatchProc@CDrPatch@@QAE?AW4PATCHPROC@@XZ 1000dbf0 f i CurPost.obj
 0001:0000cc20       ?SetPatchProc@CDrPatch@@QAEXW4PATCHPROC@@@Z 1000dc20 f i CurPost.obj
 0001:0000cc50       ?GetPatchType@CDrPatch@@QAE?AW4PATCHTYPE@@XZ 1000dc50 f i CurPost.obj
 0001:0000cc80       ?SetPatchType@CDrPatch@@QAEXW4PATCHTYPE@@@Z 1000dc80 f i CurPost.obj
 0001:0000ccb0       ?GetPatSubType@CDrPatch@@QAE?AW4PATSUBTYPE@@XZ 1000dcb0 f i CurPost.obj
 0001:0000cce0       ?SetPatSubType@CDrPatch@@QAEXW4PATSUBTYPE@@@Z 1000dce0 f i CurPost.obj
 0001:0000cd10       ?GetOut_S@CDrPatch@@QAEHXZ 1000dd10 f i CurPost.obj
 0001:0000cd40       ?SetOut_S@CDrPatch@@QAEXH@Z 1000dd40 f i CurPost.obj
 0001:0000cd70       ?GetOut_T@CDrPatch@@QAEHXZ 1000dd70 f i CurPost.obj
 0001:0000cda0       ?SetOut_T@CDrPatch@@QAEXH@Z 1000dda0 f i CurPost.obj
 0001:0000cdd0       ?GetTotalElems@CDrPatch@@QAEJXZ 1000ddd0 f i CurPost.obj
 0001:0000ce00       ?SetTotalElems@CDrPatch@@QAEXJ@Z 1000de00 f i CurPost.obj
 0001:0000ce30       ?GetPtrTangents_S@CDrPatch@@QAEPAUWORLD@@XZ 1000de30 f i CurPost.obj
 0001:0000ce60       ?GetPtrTangents_T@CDrPatch@@QAEPAUWORLD@@XZ 1000de60 f i CurPost.obj
 0001:0000ce90       ?GetPtrNormals@CDrPatch@@QAEPAUWORLD@@XZ 1000de90 f i CurPost.obj
 0001:0000cec0       ?GetPtrTwists@CDrPatch@@QAEPAUWORLD@@XZ 1000dec0 f i CurPost.obj
 0001:0000cef0       ?GetMemIn@CDrPatch@@UAEPAUWORLD@@H@Z 1000def0 f i CurPost.obj
 0001:0000cf20       ?SetMemIn@CDrPatch@@UAEXPAUWORLD@@H@Z 1000df20 f i CurPost.obj
 0001:0000cf50       ?SetMemIn@CDrPatch@@UAEXPAUWORLD@@@Z 1000df50 f i CurPost.obj
 0001:0000cf80       ?SetMemInDP@CDrPatch@@UAEXPAUtagPOINT@@@Z 1000df80 f i CurPost.obj
 0001:0000cfb0       ?SetMemOut@CDrPatch@@UAEXPAUWORLD@@@Z 1000dfb0 f i CurPost.obj
 0001:0000cfe0       ?SetMemOutDP@CDrPatch@@UAEXPAUtagPOINT@@@Z 1000dfe0 f i CurPost.obj
 0001:0000d010       ?IsUniform_T@CDrPatch@@QAEHXZ 1000e010 f i CurPost.obj
 0001:0000d040       ?SetUniform_T@CDrPatch@@QAEXH@Z 1000e040 f i CurPost.obj
 0001:0000d070       ?GetClass_T@CDrPatch@@QAEHXZ 1000e070 f i CurPost.obj
 0001:0000d0a0       ?SetClass_T@CDrPatch@@QAEXH@Z 1000e0a0 f i CurPost.obj
 0001:0000d0d0       ?GetOrder_T@CDrPatch@@QAEHXZ 1000e0d0 f i CurPost.obj
 0001:0000d100       ?SetOrder_T@CDrPatch@@QAEXH@Z 1000e100 f i CurPost.obj
 0001:0000d130       ?GetnDim_T@CDrPatch@@QAEHXZ 1000e130 f i CurPost.obj
 0001:0000d160       ?SetnDim_T@CDrPatch@@QAEXH@Z 1000e160 f i CurPost.obj
 0001:0000d190       ?GetOutMethod_T@CDrPatch@@QAE?AW4PATCHOUTPUT@@XZ 1000e190 f i CurPost.obj
 0001:0000d1c0       ?SetOutMethod_T@CDrPatch@@QAEXW4PATCHOUTPUT@@@Z 1000e1c0 f i CurPost.obj
 0001:0000d1f0       ?GetMaxOutSeg_T@CDrPatch@@QAEHXZ 1000e1f0 f i CurPost.obj
 0001:0000d220       ?SetMaxOutSeg_T@CDrPatch@@QAEXH@Z 1000e220 f i CurPost.obj
 0001:0000d250       ?GetNum_tPointer_T@CDrPatch@@QAEPAHXZ 1000e250 f i CurPost.obj
 0001:0000d280       ?SetNum_tPointer_T@CDrPatch@@QAEXPAH@Z 1000e280 f i CurPost.obj
 0001:0000d2b0       ?GetDis_tPointer_T@CDrPatch@@QAEPANXZ 1000e2b0 f i CurPost.obj
 0001:0000d2e0       ?SetDis_tPointer_T@CDrPatch@@QAEXPAN@Z 1000e2e0 f i CurPost.obj
 0001:0000d310       ?GetNum_tPointer_Ex_T@CDrPatch@@QAEPAHXZ 1000e310 f i CurPost.obj
 0001:0000d340       ?SetNum_tPointer_Ex_T@CDrPatch@@QAEXPAH@Z 1000e340 f i CurPost.obj
 0001:0000d370       ?GetDis_AngPointer_T@CDrPatch@@QAEPANXZ 1000e370 f i CurPost.obj
 0001:0000d3a0       ?SetDis_AngPointer_T@CDrPatch@@QAEXPAN@Z 1000e3a0 f i CurPost.obj
 0001:0000d3d0       ?GetData_Ex_T@CDrPatch@@QAEHXZ 1000e3d0 f i CurPost.obj
 0001:0000d400       ?SetData_Ex_T@CDrPatch@@QAEXH@Z 1000e400 f i CurPost.obj
 0001:0000d430       ?IsExpanded_T@CDrPatch@@QAEHXZ 1000e430 f i CurPost.obj
 0001:0000d460       ?SetExpanded_T@CDrPatch@@QAEXH@Z 1000e460 f i CurPost.obj
 0001:0000d490       ?GetMaxENodes_T@CDrPatch@@QAEHXZ 1000e490 f i CurPost.obj
 0001:0000d4c0       ?SetMaxENodes_T@CDrPatch@@QAEXH@Z 1000e4c0 f i CurPost.obj
 0001:0000d4f0       ?GetRadius_T@CDrPatch@@QAENXZ 1000e4f0 f i CurPost.obj
 0001:0000d520       ?SetRadius_T@CDrPatch@@QAEXN@Z 1000e520 f i CurPost.obj
 0001:0000d560       ?GetTheta_T@CDrPatch@@QAENXZ 1000e560 f i CurPost.obj
 0001:0000d590       ?SetTheta_T@CDrPatch@@QAEXN@Z 1000e590 f i CurPost.obj
 0001:0000d5d0       ?GetCenter_T@CDrPatch@@QAE?AUWORLD@@XZ 1000e5d0 f i CurPost.obj
 0001:0000d610       ?SetCenter_T@CDrPatch@@QAEXUWORLD@@@Z 1000e610 f i CurPost.obj
 0001:0000d680       ?GetNormal_T@CDrPatch@@QAE?AUWORLD@@XZ 1000e680 f i CurPost.obj
 0001:0000d6c0       ?SetNormal_T@CDrPatch@@QAEXUWORLD@@@Z 1000e6c0 f i CurPost.obj
 0001:0000d730       ?GetSegAngle_T@CDrPatch@@QAENXZ 1000e730 f i CurPost.obj
 0001:0000d760       ?SetSegAngle_T@CDrPatch@@QAEXN@Z 1000e760 f i CurPost.obj
 0001:0000d7a0       ?IsHole_T@CDrPatch@@QAEHXZ 1000e7a0 f i CurPost.obj
 0001:0000d7d0       ?SetHole_T@CDrPatch@@QAEXH@Z 1000e7d0 f i CurPost.obj
 0001:0000d800       ?GetpTangents_T@CDrPatch@@QAEPAUWORLD@@XZ 1000e800 f i CurPost.obj
 0001:0000d830       ?SetpTangents_T@CDrPatch@@QAEXPAUWORLD@@@Z 1000e830 f i CurPost.obj
 0001:0000d860       ?GetpCurvatures_T@CDrPatch@@QAEPANXZ 1000e860 f i CurPost.obj
 0001:0000d890       ?SetpCurvatures_T@CDrPatch@@QAEXPAN@Z 1000e890 f i CurPost.obj
 0001:0000d8c0       ?GetRatio_T@CDrPatch@@QAENXZ 1000e8c0 f i CurPost.obj
 0001:0000d8f0       ?SetRatio_T@CDrPatch@@QAEXN@Z 1000e8f0 f i CurPost.obj
 0001:0000d930       ?GetTwistType_T@CDrPatch@@QAEHXZ 1000e930 f i CurPost.obj
 0001:0000d960       ?SetTwistType_T@CDrPatch@@QAEXH@Z 1000e960 f i CurPost.obj
 0001:0000d990       ?GetTwistList_T@CDrPatch@@QAEPAV?$CList@NN@@XZ 1000e990 f i CurPost.obj
 0001:0000d9c0       ?GetScaleType_T@CDrPatch@@QAEHXZ 1000e9c0 f i CurPost.obj
 0001:0000d9f0       ?SetScaleType_T@CDrPatch@@QAEXH@Z 1000e9f0 f i CurPost.obj
 0001:0000da20       ?GetScaleList_T@CDrPatch@@QAEPAV?$CList@NN@@XZ 1000ea20 f i CurPost.obj
 0001:0000da50       ?IsIncTwist_T@CDrPatch@@QAEHXZ 1000ea50 f i CurPost.obj
 0001:0000da80       ?SetIncTwist_T@CDrPatch@@QAEXH@Z 1000ea80 f i CurPost.obj
 0001:0000dab0       ?GetTwistMult_T@CDrPatch@@QAENXZ 1000eab0 f i CurPost.obj
 0001:0000dae0       ?SetTwistMult_T@CDrPatch@@QAEXN@Z 1000eae0 f i CurPost.obj
 0001:0000db20       ?GetTwistStart_T@CDrPatch@@QAENXZ 1000eb20 f i CurPost.obj
 0001:0000db50       ?SetTwistStart_T@CDrPatch@@QAEXN@Z 1000eb50 f i CurPost.obj
 0001:0000db90       ?IsIncScale_T@CDrPatch@@QAEHXZ 1000eb90 f i CurPost.obj
 0001:0000dbc0       ?SetIncScale_T@CDrPatch@@QAEXH@Z 1000ebc0 f i CurPost.obj
 0001:0000dbf0       ?GetScaleMult_T@CDrPatch@@QAENXZ 1000ebf0 f i CurPost.obj
 0001:0000dc20       ?SetScaleMult_T@CDrPatch@@QAEXN@Z 1000ec20 f i CurPost.obj
 0001:0000dc60       ?GetScaleStart_T@CDrPatch@@QAENXZ 1000ec60 f i CurPost.obj
 0001:0000dc90       ?SetScaleStart_T@CDrPatch@@QAEXN@Z 1000ec90 f i CurPost.obj
 0001:0000dcd0       ?GetWorldTwistMult_T@CDrPatch@@QAE?AUWORLD@@XZ 1000ecd0 f i CurPost.obj
 0001:0000dd10       ?SetWorldTwistMult_T@CDrPatch@@QAEXUWORLD@@@Z 1000ed10 f i CurPost.obj
 0001:0000dd50       ?GetWorldTwistStart_T@CDrPatch@@QAE?AUWORLD@@XZ 1000ed50 f i CurPost.obj
 0001:0000dd90       ?SetWorldTwistStart_T@CDrPatch@@QAEXUWORLD@@@Z 1000ed90 f i CurPost.obj
 0001:0000ddd0       ?GetWorldScaleMult_T@CDrPatch@@QAE?AUWORLD@@XZ 1000edd0 f i CurPost.obj
 0001:0000de10       ?SetWorldScaleMult_T@CDrPatch@@QAEXUWORLD@@@Z 1000ee10 f i CurPost.obj
 0001:0000de50       ?GetWorldScaleStart_T@CDrPatch@@QAE?AUWORLD@@XZ 1000ee50 f i CurPost.obj
 0001:0000de90       ?SetWorldScaleStart_T@CDrPatch@@QAEXUWORLD@@@Z 1000ee90 f i CurPost.obj
 0001:0000ded0       ?GetTriangleList@CDrPatch@@UAEPAVCDListMgr@@XZ 1000eed0 f i CurPost.obj
 0001:0000df00       ?GetnOutGlo_S@CDrPatch@@QAEHXZ 1000ef00 f i CurPost.obj
 0001:0000df30       ?SetnOutGlo_S@CDrPatch@@QAEXH@Z 1000ef30 f i CurPost.obj
 0001:0000df60       ?IsGenBCurve@CDrPatch@@QAEHXZ 1000ef60 f i CurPost.obj
 0001:0000df90       ?SetGenBCurve@CDrPatch@@QAEXH@Z 1000ef90 f i CurPost.obj
 0001:0000dfc0       ?IsEndCondMode@CSheet_PATI@@QAEHXZ 1000efc0 f i CurPost.obj
 0001:0000dff0       ?SetEndCondMode@CSheet_PATI@@QAEXH@Z 1000eff0 f i CurPost.obj
 0001:0000e020       ?Parse_drPipe@CDrFE1D@@UAEXPAVCString@@@Z 1000f020 f i CurPost.obj
 0001:0000e040       ?DoFormattedCardView@CDrFE1D@@UAEXPAVCString@@AAV2@@Z 1000f040 f i CurPost.obj
 0001:0000e060       ?DoUnFormattedCardView@CDrFE1D@@UAEXPAVCString@@@Z 1000f060 f i CurPost.obj
 0001:0000e080       ?GetMaxCorners@CDrFE1D@@UAEHXZ 1000f080 f i CurPost.obj
 0001:0000e0a0       ?GetMemIn@CDrFE1D@@UAEPAUWORLD@@XZ 1000f0a0 f i CurPost.obj
 0001:0000e0d0       ?GetMemInWts@CDrFE1D@@UAEPANXZ 1000f0d0 f i CurPost.obj
 0001:0000e100       ?GetMemInDP@CDrFE1D@@UAEPAUtagPOINT@@XZ 1000f100 f i CurPost.obj
 0001:0000e130       ?GetMemOut@CDrFE1D@@UAEPAUWORLD@@XZ 1000f130 f i CurPost.obj
 0001:0000e160       ?GetMemOutWts@CDrFE1D@@UAEPANXZ 1000f160 f i CurPost.obj
 0001:0000e190       ?GetMemOutDP@CDrFE1D@@UAEPAUtagPOINT@@XZ 1000f190 f i CurPost.obj
 0001:0000e1c0       ?SetMemIn@CDrFE1D@@UAEXPAUWORLD@@@Z 1000f1c0 f i CurPost.obj
 0001:0000e1f0       ?SetMemInWts@CDrFE1D@@UAEXPAN@Z 1000f1f0 f i CurPost.obj
 0001:0000e220       ?SetMemInDP@CDrFE1D@@UAEXPAUtagPOINT@@@Z 1000f220 f i CurPost.obj
 0001:0000e250       ?SetMemOut@CDrFE1D@@UAEXPAUWORLD@@@Z 1000f250 f i CurPost.obj
 0001:0000e280       ?SetMemOutWts@CDrFE1D@@UAEXPAN@Z 1000f280 f i CurPost.obj
 0001:0000e2b0       ?SetMemOutDP@CDrFE1D@@UAEXPAUtagPOINT@@@Z 1000f2b0 f i CurPost.obj
 0001:0000e2e0       ?FixMemD@CDrFE1D@@UAEPANJ@Z 1000f2e0 f i CurPost.obj
 0001:0000e330       ?FreeMemD@CDrFE1D@@UAEXPAN@Z 1000f330 f i CurPost.obj
 0001:0000e360       ?FixMem@CDrFE1D@@UAEPAUWORLD@@J@Z 1000f360 f i CurPost.obj
 0001:0000e3b0       ?FreeMem@CDrFE1D@@UAEXPAUWORLD@@@Z 1000f3b0 f i CurPost.obj
 0001:0000e3e0       ?FixMemDP@CDrFE1D@@UAEPAUtagPOINT@@J@Z 1000f3e0 f i CurPost.obj
 0001:0000e430       ?FreeMemDP@CDrFE1D@@UAEXPAUtagPOINT@@@Z 1000f430 f i CurPost.obj
 0001:0000e460       ?GetnNodes@CDrFE1D@@QAEFXZ 1000f460 f i CurPost.obj
 0001:0000e490       ?SetnNodes@CDrFE1D@@QAEXF@Z 1000f490 f i CurPost.obj
 0001:0000e4c0       ?GetEdgeDegree@CDrFE1D@@QAEFXZ 1000f4c0 f i CurPost.obj
 0001:0000e4f0       ?SetEdgeDegree@CDrFE1D@@QAEXF@Z 1000f4f0 f i CurPost.obj
 0001:0000e520       ?GetElNumID@CDrFE1D@@QAEAAVCString@@XZ 1000f520 f i CurPost.obj
 0001:0000e550       ?SetElNumID@CDrFE1D@@QAEXVCString@@@Z 1000f550 f i CurPost.obj
 0001:0000e5d0       ?GetElTypeID@CDrFE1D@@QAEAAVCString@@XZ 1000f5d0 f i CurPost.obj
 0001:0000e600       ?SetElTypeID@CDrFE1D@@QAEXVCString@@@Z 1000f600 f i CurPost.obj
 0001:0000e680       ?Getline_id@CDrFE1D@@QAEAAVCString@@XZ 1000f680 f i CurPost.obj
 0001:0000e6b0       ?Setline_id@CDrFE1D@@QAEXVCString@@@Z 1000f6b0 f i CurPost.obj
 0001:0000e730       ?Getrid@CDrFE1D@@UAEAAVCString@@H@Z 1000f730 f i CurPost.obj
 0001:0000e760       ?Setrid@CDrFE1D@@UAEXVCString@@H@Z 1000f760 f i CurPost.obj
 0001:0000e7e0       ?Getpid@CDrFE1D@@QAEAAVCString@@XZ 1000f7e0 f i CurPost.obj
 0001:0000e810       ?Setpid@CDrFE1D@@QAEXVCString@@@Z 1000f810 f i CurPost.obj
 0001:0000e890       ?Getmid@CDrFE1D@@QAEAAVCString@@XZ 1000f890 f i CurPost.obj
 0001:0000e8c0       ?Setmid@CDrFE1D@@QAEXVCString@@@Z 1000f8c0 f i CurPost.obj
 0001:0000e940       ?GetElNum@CDrFE1D@@QAEIXZ  1000f940 f i CurPost.obj
 0001:0000e970       ?SetElNum@CDrFE1D@@QAEXI@Z 1000f970 f i CurPost.obj
 0001:0000e9a0       ?GetElTypeNum@CDrFE1D@@QAEIXZ 1000f9a0 f i CurPost.obj
 0001:0000e9d0       ?SetElTypeNum@CDrFE1D@@QAEXI@Z 1000f9d0 f i CurPost.obj
 0001:0000ea00       ?Getline_no@CDrFE1D@@QAEIXZ 1000fa00 f i CurPost.obj
 0001:0000ea30       ?Setline_no@CDrFE1D@@QAEXI@Z 1000fa30 f i CurPost.obj
 0001:0000ea60       ?Getrel@CDrFE1D@@UAEIH@Z   1000fa60 f i CurPost.obj
 0001:0000ea90       ?Setrel@CDrFE1D@@UAEXIH@Z  1000fa90 f i CurPost.obj
 0001:0000eac0       ?Getprop@CDrFE1D@@QAEIXZ   1000fac0 f i CurPost.obj
 0001:0000eaf0       ?Setprop@CDrFE1D@@QAEXI@Z  1000faf0 f i CurPost.obj
 0001:0000eb20       ?Getmat@CDrFE1D@@QAEIXZ    1000fb20 f i CurPost.obj
 0001:0000eb50       ?Setmat@CDrFE1D@@QAEXI@Z   1000fb50 f i CurPost.obj
 0001:0000eb80       ?Getnumseg@CDrFE1D@@QAEIXZ 1000fb80 f i CurPost.obj
 0001:0000ebb0       ?Setnumseg@CDrFE1D@@QAEXI@Z 1000fbb0 f i CurPost.obj
 0001:0000ebe0       ?GetRefTemp@CDrFE1D@@QAENXZ 1000fbe0 f i CurPost.obj
 0001:0000ec10       ?SetRefTemp@CDrFE1D@@QAEXN@Z 1000fc10 f i CurPost.obj
 0001:0000ec50       ?GetCardNo@CDrFE1D@@QAEIXZ 1000fc50 f i CurPost.obj
 0001:0000ec80       ?SetCardNo@CDrFE1D@@QAEXI@Z 1000fc80 f i CurPost.obj
 0001:0000ecb0       ?GetCenter@CDrFE1D@@UAE?AUtagPOINT@@XZ 1000fcb0 f i CurPost.obj
 0001:0000ecf0       ?SetCenter@CDrFE1D@@UAEXUtagPOINT@@@Z 1000fcf0 f i CurPost.obj
 0001:0000ed30       ?Parse_drPipe@CDrFE2D@@UAEXPAVCString@@@Z 1000fd30 f i CurPost.obj
 0001:0000ed50       ?DoFormattedCardView@CDrFE2D@@UAEXPAVCString@@AAV2@@Z 1000fd50 f i CurPost.obj
 0001:0000ed70       ?DoUnFormattedCardView@CDrFE2D@@UAEXPAVCString@@@Z 1000fd70 f i CurPost.obj
 0001:0000ed90       ?GetMaxCorners@CDrFE2D@@UAEHXZ 1000fd90 f i CurPost.obj
 0001:0000edc0       ?GetCentroidScreen2D@CDrFE2D@@UAEPAUtagPOINT@@XZ 1000fdc0 f i CurPost.obj
 0001:0000edf0       ?SetCentroidScreen2D@CDrFE2D@@UAEXUtagPOINT@@@Z 1000fdf0 f i CurPost.obj
 0001:0000ee30       ?GetCentroidScreen3D@CDrFE2D@@UAEPAUWORLD@@XZ 1000fe30 f i CurPost.obj
 0001:0000ee60       ?SetCentroidScreen3D@CDrFE2D@@UAEXUWORLD@@@Z 1000fe60 f i CurPost.obj
 0001:0000eea0       ?GetCentroidEye@CDrFE2D@@UAEPAUWORLD@@XZ 1000fea0 f i CurPost.obj
 0001:0000eed0       ?SetCentroidEye@CDrFE2D@@UAEXUWORLD@@@Z 1000fed0 f i CurPost.obj
 0001:0000ef10       ?GetCentroidWorld@CDrFE2D@@UAEPAUWORLD@@XZ 1000ff10 f i CurPost.obj
 0001:0000ef40       ?SetCentroidWorld@CDrFE2D@@UAEXUWORLD@@@Z 1000ff40 f i CurPost.obj
 0001:0000ef80       ?GetCentroidZdepth@CDrFE2D@@UAENXZ 1000ff80 f i CurPost.obj
 0001:0000efb0       ?SetCentroidZdepth@CDrFE2D@@UAEXN@Z 1000ffb0 f i CurPost.obj
 0001:0000eff0       ?GetNormalWorld@CDrFE2D@@UAEPAUWORLD@@XZ 1000fff0 f i CurPost.obj
 0001:0000f020       ?SetNormalWorld@CDrFE2D@@UAEXUWORLD@@@Z 10010020 f i CurPost.obj
 0001:0000f060       ?GetNormalEye@CDrFE2D@@UAEPAUWORLD@@XZ 10010060 f i CurPost.obj
 0001:0000f090       ?SetNormalEye@CDrFE2D@@UAEXUWORLD@@@Z 10010090 f i CurPost.obj
 0001:0000f0d0       ?GetNormalScreen3D@CDrFE2D@@UAEPAUWORLD@@XZ 100100d0 f i CurPost.obj
 0001:0000f100       ?SetNormalScreen3D@CDrFE2D@@UAEXUWORLD@@@Z 10010100 f i CurPost.obj
 0001:0000f140       ?GetNormalScreen2D@CDrFE2D@@UAEPAUtagPOINT@@XZ 10010140 f i CurPost.obj
 0001:0000f170       ?SetNormalScreen2D@CDrFE2D@@UAEXUtagPOINT@@@Z 10010170 f i CurPost.obj
 0001:0000f1b0       ?IsCulled@CDrFE2D@@UAEHXZ  100101b0 f i CurPost.obj
 0001:0000f1e0       ?SetCulled@CDrFE2D@@UAEXH@Z 100101e0 f i CurPost.obj
 0001:0000f210       ?GetnNodes@CDrFE2D@@QAEFXZ 10010210 f i CurPost.obj
 0001:0000f240       ?SetnNodes@CDrFE2D@@QAEXF@Z 10010240 f i CurPost.obj
 0001:0000f270       ?GetnEdgeNodes@CDrFE2D@@QAEFXZ 10010270 f i CurPost.obj
 0001:0000f2a0       ?SetnEdgeNodes@CDrFE2D@@QAEXF@Z 100102a0 f i CurPost.obj
 0001:0000f2d0       ?GetElNumID@CDrFE2D@@QAEAAVCString@@XZ 100102d0 f i CurPost.obj
 0001:0000f300       ?SetElNumID@CDrFE2D@@QAEXVCString@@@Z 10010300 f i CurPost.obj
 0001:0000f380       ?GetElTypeID@CDrFE2D@@QAEAAVCString@@XZ 10010380 f i CurPost.obj
 0001:0000f3b0       ?SetElTypeID@CDrFE2D@@QAEXVCString@@@Z 100103b0 f i CurPost.obj
 0001:0000f430       ?Getline_id@CDrFE2D@@QAEAAVCString@@XZ 10010430 f i CurPost.obj
 0001:0000f460       ?Setline_id@CDrFE2D@@QAEXVCString@@@Z 10010460 f i CurPost.obj
 0001:0000f4e0       ?Getpid@CDrFE2D@@QAEAAVCString@@XZ 100104e0 f i CurPost.obj
 0001:0000f510       ?Setpid@CDrFE2D@@QAEXVCString@@@Z 10010510 f i CurPost.obj
 0001:0000f590       ?Getmid@CDrFE2D@@QAEAAVCString@@XZ 10010590 f i CurPost.obj
 0001:0000f5c0       ?Setmid@CDrFE2D@@QAEXVCString@@@Z 100105c0 f i CurPost.obj
 0001:0000f640       ?GetElNum@CDrFE2D@@QAEIXZ  10010640 f i CurPost.obj
 0001:0000f670       ?SetElNum@CDrFE2D@@QAEXI@Z 10010670 f i CurPost.obj
 0001:0000f6a0       ?GetElTypeNum@CDrFE2D@@QAEIXZ 100106a0 f i CurPost.obj
 0001:0000f6d0       ?SetElTypeNum@CDrFE2D@@QAEXI@Z 100106d0 f i CurPost.obj
 0001:0000f700       ?Getline_no@CDrFE2D@@QAEIXZ 10010700 f i CurPost.obj
 0001:0000f730       ?Setline_no@CDrFE2D@@QAEXI@Z 10010730 f i CurPost.obj
 0001:0000f760       ?Getprop@CDrFE2D@@QAEIXZ   10010760 f i CurPost.obj
 0001:0000f790       ?Setprop@CDrFE2D@@QAEXI@Z  10010790 f i CurPost.obj
 0001:0000f7c0       ?Getmat@CDrFE2D@@QAEIXZ    100107c0 f i CurPost.obj
 0001:0000f7f0       ?Setmat@CDrFE2D@@QAEXI@Z   100107f0 f i CurPost.obj
 0001:0000f820       ?Getnumseg@CDrFE2D@@QAEIXZ 10010820 f i CurPost.obj
 0001:0000f850       ?Setnumseg@CDrFE2D@@QAEXI@Z 10010850 f i CurPost.obj
 0001:0000f880       ?GetRefTemp@CDrFE2D@@QAENXZ 10010880 f i CurPost.obj
 0001:0000f8b0       ?SetRefTemp@CDrFE2D@@QAEXN@Z 100108b0 f i CurPost.obj
 0001:0000f8f0       ?GetCardNo@CDrFE2D@@QAEIXZ 100108f0 f i CurPost.obj
 0001:0000f920       ?SetCardNo@CDrFE2D@@QAEXI@Z 10010920 f i CurPost.obj
 0001:0000f950       ?GetCenter@CDrFE2D@@UAE?AUtagPOINT@@XZ 10010950 f i CurPost.obj
 0001:0000f990       ?SetCenter@CDrFE2D@@UAEXUtagPOINT@@@Z 10010990 f i CurPost.obj
 0001:0000f9d0       ?IsPosiEdge@CDrFE2D@@QAEHH@Z 100109d0 f i CurPost.obj
 0001:0000fa00       ?SetPosiEdge@CDrFE2D@@QAEXHH@Z 10010a00 f i CurPost.obj
 0001:0000fa30       ?Getrid@CDrFE2D@@UAEAAVCString@@H@Z 10010a30 f i CurPost.obj
 0001:0000fa60       ?Setrid@CDrFE2D@@UAEXVCString@@H@Z 10010a60 f i CurPost.obj
 0001:0000fae0       ?Getrel@CDrFE2D@@UAEIH@Z   10010ae0 f i CurPost.obj
 0001:0000fb10       ?Setrel@CDrFE2D@@UAEXIH@Z  10010b10 f i CurPost.obj
 0001:0000fb40       ?GetnCorners@CDrFE2D@@UAEFXZ 10010b40 f i CurPost.obj
 0001:0000fb70       ?SetnCorners@CDrFE2D@@UAEXF@Z 10010b70 f i CurPost.obj
 0001:0000fba0       ?GetnEdges@CDrFE2D@@UAEFXZ 10010ba0 f i CurPost.obj
 0001:0000fbd0       ?SetnEdges@CDrFE2D@@UAEXF@Z 10010bd0 f i CurPost.obj
 0001:0000fc00       ?GetElDegree@CDrFE2D@@UAE?AW4ELEM_DEGREE@@XZ 10010c00 f i CurPost.obj
 0001:0000fc30       ?SetElDegree@CDrFE2D@@UAEXW4ELEM_DEGREE@@@Z 10010c30 f i CurPost.obj
 0001:0000fc60       ?GetEdgeDegrees@CDrFE2D@@UAEFH@Z 10010c60 f i CurPost.obj
 0001:0000fc90       ?SetEdgeDegrees@CDrFE2D@@UAEXFH@Z 10010c90 f i CurPost.obj
 0001:0000fcc0       ?GetThkness@CDrFE2D@@UAENXZ 10010cc0 f i CurPost.obj
 0001:0000fcf0       ?SetThkness@CDrFE2D@@UAEXN@Z 10010cf0 f i CurPost.obj
 0001:0000fd30       ?IsNormalNeeded@CDrSolid@@UAEHXZ 10010d30 f i CurPost.obj
 0001:0000fd60       ?SetNormalNeed@CDrSolid@@UAEXH@Z 10010d60 f i CurPost.obj
 0001:0000fd90       ?GetCurveType_R@CDrSolid@@QAE?AW4CURVEPROC@@XZ 10010d90 f i CurPost.obj
 0001:0000fdc0       ?SetCurveType_R@CDrSolid@@QAEXW4CURVEPROC@@@Z 10010dc0 f i CurPost.obj
 0001:0000fdf0       ?GetOutSegUnif_R@CDrSolid@@QAEHXZ 10010df0 f i CurPost.obj
 0001:0000fe20       ?SetOutSegUnif_R@CDrSolid@@QAEXH@Z 10010e20 f i CurPost.obj
 0001:0000fe50       ?IsClosed_R@CDrSolid@@QAEHXZ 10010e50 f i CurPost.obj
 0001:0000fe80       ?SetClosed_R@CDrSolid@@QAEXH@Z 10010e80 f i CurPost.obj
 0001:0000feb0       ?GetSolidObjectType@CDrSolid@@QAEHXZ 10010eb0 f i CurPost.obj
 0001:0000fee0       ?SetSolidObjectType@CDrSolid@@QAEXH@Z 10010ee0 f i CurPost.obj
 0001:0000ff10       ?GetMaxBezSegments_R@CDrSolid@@QAEHXZ 10010f10 f i CurPost.obj
 0001:0000ff40       ?SetMaxBezSegments_R@CDrSolid@@QAEXH@Z 10010f40 f i CurPost.obj
 0001:0000ff70       ?GetMaxCNodes_R@CDrSolid@@QAEHXZ 10010f70 f i CurPost.obj
 0001:0000ffa0       ?SetMaxCNodes_R@CDrSolid@@QAEXH@Z 10010fa0 f i CurPost.obj
 0001:0000ffd0       ?GetMaxOutPts_R@CDrSolid@@QAEHXZ 10010fd0 f i CurPost.obj
 0001:00010000       ?SetMaxOutPts_R@CDrSolid@@QAEXH@Z 10011000 f i CurPost.obj
 0001:00010030       ?GetPatchID@CDrSolid@@QAE?AVCString@@H@Z 10011030 f i CurPost.obj
 0001:00010080       ?SetPatchID@CDrSolid@@QAEXVCString@@H@Z 10011080 f i CurPost.obj
 0001:00010100       ?GetFromIDNode_R@CDrSolid@@QAEPAVCDrNode@@XZ 10011100 f i CurPost.obj
 0001:00010130       ?SetFromIDNode_R@CDrSolid@@QAEXPAVCDrNode@@@Z 10011130 f i CurPost.obj
 0001:00010160       ?GetToIDNode_R@CDrSolid@@QAEPAVCDrNode@@XZ 10011160 f i CurPost.obj
 0001:00010190       ?SetToIDNode_R@CDrSolid@@QAEXPAVCDrNode@@@Z 10011190 f i CurPost.obj
 0001:000101c0       ?GetFromPtLocal_R@CDrSolid@@QAEPAUWORLD@@XZ 100111c0 f i CurPost.obj
 0001:000101f0       ?SetFromPtLocal_R@CDrSolid@@QAEXUWORLD@@@Z 100111f0 f i CurPost.obj
 0001:00010230       ?GetToPtLocal_R@CDrSolid@@QAEPAUWORLD@@XZ 10011230 f i CurPost.obj
 0001:00010260       ?SetToPtLocal_R@CDrSolid@@QAEXUWORLD@@@Z 10011260 f i CurPost.obj
 0001:000102a0       ?GetFromPtWorld_R@CDrSolid@@QAEPAUWORLD@@XZ 100112a0 f i CurPost.obj
 0001:000102d0       ?SetFromPtWorld_R@CDrSolid@@QAEXUWORLD@@@Z 100112d0 f i CurPost.obj
 0001:00010310       ?GetToPtWorld_R@CDrSolid@@QAEPAUWORLD@@XZ 10011310 f i CurPost.obj
 0001:00010340       ?SetToPtWorld_R@CDrSolid@@QAEXUWORLD@@@Z 10011340 f i CurPost.obj
 0001:00010380       ?GetFromPtEye_R@CDrSolid@@QAEPAUWORLD@@XZ 10011380 f i CurPost.obj
 0001:000103b0       ?SetFromPtEye_R@CDrSolid@@QAEXUWORLD@@@Z 100113b0 f i CurPost.obj
 0001:000103f0       ?GetToPtEye_R@CDrSolid@@QAEPAUWORLD@@XZ 100113f0 f i CurPost.obj
 0001:00010420       ?SetToPtEye_R@CDrSolid@@QAEXUWORLD@@@Z 10011420 f i CurPost.obj
 0001:00010460       ?GetAxis_R@CDrSolid@@QAEPAUWORLD@@XZ 10011460 f i CurPost.obj
 0001:00010490       ?SetAxis_R@CDrSolid@@QAEXUWORLD@@@Z 10011490 f i CurPost.obj
 0001:000104d0       ?GetExtruType_R@CDrSolid@@QAEHXZ 100114d0 f i CurPost.obj
 0001:00010500       ?SetExtruType_R@CDrSolid@@QAEXH@Z 10011500 f i CurPost.obj
 0001:00010530       ?GetLength_R@CDrSolid@@QAENXZ 10011530 f i CurPost.obj
 0001:00010560       ?SetLength_R@CDrSolid@@QAEXN@Z 10011560 f i CurPost.obj
 0001:000105a0       ?GetWorldLength_R@CDrSolid@@QAE?AUWORLD@@XZ 100115a0 f i CurPost.obj
 0001:000105e0       ?SetWorldLength_R@CDrSolid@@QAEXUWORLD@@@Z 100115e0 f i CurPost.obj
 0001:00010620       ?GetSegs_R@CDrSolid@@QAEHXZ 10011620 f i CurPost.obj
 0001:00010650       ?SetSegs_R@CDrSolid@@QAEXH@Z 10011650 f i CurPost.obj
 0001:00010680       ?GetSolidProc@CDrSolid@@QAE?AW4SOLIDPROC@@XZ 10011680 f i CurPost.obj
 0001:000106b0       ?SetSolidProc@CDrSolid@@QAEXW4SOLIDPROC@@@Z 100116b0 f i CurPost.obj
 0001:000106e0       ?GetSolidType@CDrSolid@@QAE?AW4SOLIDTYPE@@XZ 100116e0 f i CurPost.obj
 0001:00010710       ?SetSolidType@CDrSolid@@QAEXW4SOLIDTYPE@@@Z 10011710 f i CurPost.obj
 0001:00010740       ?GetSolSubType@CDrSolid@@QAE?AW4SOLSUBTYPE@@XZ 10011740 f i CurPost.obj
 0001:00010770       ?SetSolSubType@CDrSolid@@QAEXW4SOLSUBTYPE@@@Z 10011770 f i CurPost.obj
 0001:000107a0       ?GetOut_R@CDrSolid@@QAEHXZ 100117a0 f i CurPost.obj
 0001:000107d0       ?SetOut_R@CDrSolid@@QAEXH@Z 100117d0 f i CurPost.obj
 0001:00010800       ?IsUniform_R@CDrSolid@@QAEHXZ 10011800 f i CurPost.obj
 0001:00010830       ?SetUniform_R@CDrSolid@@QAEXH@Z 10011830 f i CurPost.obj
 0001:00010860       ?GetOrder_R@CDrSolid@@QAEHXZ 10011860 f i CurPost.obj
 0001:00010890       ?SetOrder_R@CDrSolid@@QAEXH@Z 10011890 f i CurPost.obj
 0001:000108c0       ?GetnDim_R@CDrSolid@@QAEHXZ 100118c0 f i CurPost.obj
 0001:000108f0       ?SetnDim_R@CDrSolid@@QAEXH@Z 100118f0 f i CurPost.obj
 0001:00010920       ?GetOutMethod_R@CDrSolid@@QAE?AW4SOLIDOUTPUT@@XZ 10011920 f i CurPost.obj
 0001:00010950       ?SetOutMethod_R@CDrSolid@@QAEXW4SOLIDOUTPUT@@@Z 10011950 f i CurPost.obj
 0001:00010980       ?GetMaxOutSeg_R@CDrSolid@@QAEHXZ 10011980 f i CurPost.obj
 0001:000109b0       ?SetMaxOutSeg_R@CDrSolid@@QAEXH@Z 100119b0 f i CurPost.obj
 0001:000109e0       ?GetNum_tPointer_R@CDrSolid@@QAEPAHXZ 100119e0 f i CurPost.obj
 0001:00010a10       ?SetNum_tPointer_R@CDrSolid@@QAEXPAH@Z 10011a10 f i CurPost.obj
 0001:00010a40       ?GetDis_tPointer_R@CDrSolid@@QAEPANXZ 10011a40 f i CurPost.obj
 0001:00010a70       ?SetDis_tPointer_R@CDrSolid@@QAEXPAN@Z 10011a70 f i CurPost.obj
 0001:00010aa0       ?GetNum_tPointer_Ex_R@CDrSolid@@QAEPAHXZ 10011aa0 f i CurPost.obj
 0001:00010ad0       ?SetNum_tPointer_Ex_R@CDrSolid@@QAEXPAH@Z 10011ad0 f i CurPost.obj
 0001:00010b00       ?GetDis_AngPointer_R@CDrSolid@@QAEPANXZ 10011b00 f i CurPost.obj
 0001:00010b30       ?SetDis_AngPointer_R@CDrSolid@@QAEXPAN@Z 10011b30 f i CurPost.obj
 0001:00010b60       ?GetNum_tPointer_ST@CDrSolid@@QAEPAHXZ 10011b60 f i CurPost.obj
 0001:00010b90       ?SetNum_tPointer_ST@CDrSolid@@QAEXPAH@Z 10011b90 f i CurPost.obj
 0001:00010bc0       ?GetDis_tPointer_ST@CDrSolid@@QAEPANXZ 10011bc0 f i CurPost.obj
 0001:00010bf0       ?SetDis_tPointer_ST@CDrSolid@@QAEXPAN@Z 10011bf0 f i CurPost.obj
 0001:00010c20       ?GetNum_tPointer_Ex_ST@CDrSolid@@QAEPAHXZ 10011c20 f i CurPost.obj
 0001:00010c50       ?SetNum_tPointer_Ex_ST@CDrSolid@@QAEXPAH@Z 10011c50 f i CurPost.obj
 0001:00010c80       ?GetDis_AngPointer_ST@CDrSolid@@QAEPANXZ 10011c80 f i CurPost.obj
 0001:00010cb0       ?SetDis_AngPointer_ST@CDrSolid@@QAEXPAN@Z 10011cb0 f i CurPost.obj
 0001:00010ce0       ?GetData_Ex_R@CDrSolid@@QAEHXZ 10011ce0 f i CurPost.obj
 0001:00010d10       ?SetData_Ex_R@CDrSolid@@QAEXH@Z 10011d10 f i CurPost.obj
 0001:00010d40       ?IsExpanded_R@CDrSolid@@QAEHXZ 10011d40 f i CurPost.obj
 0001:00010d70       ?SetExpanded_R@CDrSolid@@QAEXH@Z 10011d70 f i CurPost.obj
 0001:00010da0       ?GetMaxENodes_R@CDrSolid@@QAEHXZ 10011da0 f i CurPost.obj
 0001:00010dd0       ?SetMaxENodes_R@CDrSolid@@QAEXH@Z 10011dd0 f i CurPost.obj
 0001:00010e00       ?GetRadius_R@CDrSolid@@QAENXZ 10011e00 f i CurPost.obj
 0001:00010e30       ?SetRadius_R@CDrSolid@@QAEXN@Z 10011e30 f i CurPost.obj
 0001:00010e70       ?GetTheta_R@CDrSolid@@QAENXZ 10011e70 f i CurPost.obj
 0001:00010ea0       ?SetTheta_R@CDrSolid@@QAEXN@Z 10011ea0 f i CurPost.obj
 0001:00010ee0       ?GetCenter_R@CDrSolid@@QAE?AUWORLD@@XZ 10011ee0 f i CurPost.obj
 0001:00010f20       ?SetCenter_R@CDrSolid@@QAEXUWORLD@@@Z 10011f20 f i CurPost.obj
 0001:00010f90       ?GetNormal_R@CDrSolid@@QAE?AUWORLD@@XZ 10011f90 f i CurPost.obj
 0001:00010fd0       ?SetNormal_R@CDrSolid@@QAEXUWORLD@@@Z 10011fd0 f i CurPost.obj
 0001:00011040       ?GetSegAngle_R@CDrSolid@@QAENXZ 10012040 f i CurPost.obj
 0001:00011070       ?SetSegAngle_R@CDrSolid@@QAEXN@Z 10012070 f i CurPost.obj
 0001:000110b0       ?IsHole_R@CDrSolid@@QAEHXZ 100120b0 f i CurPost.obj
 0001:000110e0       ?SetHole_R@CDrSolid@@QAEXH@Z 100120e0 f i CurPost.obj
 0001:00011110       ?GetpTangents_R@CDrSolid@@QAEPAUWORLD@@XZ 10012110 f i CurPost.obj
 0001:00011140       ?SetpTangents_R@CDrSolid@@QAEXPAUWORLD@@@Z 10012140 f i CurPost.obj
 0001:00011170       ?GetpCurvatures_R@CDrSolid@@QAEPANXZ 10012170 f i CurPost.obj
 0001:000111a0       ?SetpCurvatures_R@CDrSolid@@QAEXPAN@Z 100121a0 f i CurPost.obj
 0001:000111d0       ?GetRatio_R@CDrSolid@@QAENXZ 100121d0 f i CurPost.obj
 0001:00011200       ?SetRatio_R@CDrSolid@@QAEXN@Z 10012200 f i CurPost.obj
 0001:00011240       ?GetTwistType_R@CDrSolid@@QAEHXZ 10012240 f i CurPost.obj
 0001:00011270       ?SetTwistType_R@CDrSolid@@QAEXH@Z 10012270 f i CurPost.obj
 0001:000112a0       ?GetTwistList_R@CDrSolid@@QAEPAV?$CList@NN@@XZ 100122a0 f i CurPost.obj
 0001:000112d0       ?GetScaleType_R@CDrSolid@@QAEHXZ 100122d0 f i CurPost.obj
 0001:00011300       ?SetScaleType_R@CDrSolid@@QAEXH@Z 10012300 f i CurPost.obj
 0001:00011330       ?GetScaleList_R@CDrSolid@@QAEPAV?$CList@NN@@XZ 10012330 f i CurPost.obj
 0001:00011360       ?IsIncTwist_R@CDrSolid@@QAEHXZ 10012360 f i CurPost.obj
 0001:00011390       ?SetIncTwist_R@CDrSolid@@QAEXH@Z 10012390 f i CurPost.obj
 0001:000113c0       ?GetTwistMult_R@CDrSolid@@QAENXZ 100123c0 f i CurPost.obj
 0001:000113f0       ?SetTwistMult_R@CDrSolid@@QAEXN@Z 100123f0 f i CurPost.obj
 0001:00011430       ?GetTwistStart_R@CDrSolid@@QAENXZ 10012430 f i CurPost.obj
 0001:00011460       ?SetTwistStart_R@CDrSolid@@QAEXN@Z 10012460 f i CurPost.obj
 0001:000114a0       ?IsIncScale_R@CDrSolid@@QAEHXZ 100124a0 f i CurPost.obj
 0001:000114d0       ?SetIncScale_R@CDrSolid@@QAEXH@Z 100124d0 f i CurPost.obj
 0001:00011500       ?GetScaleMult_R@CDrSolid@@QAENXZ 10012500 f i CurPost.obj
 0001:00011530       ?SetScaleMult_R@CDrSolid@@QAEXN@Z 10012530 f i CurPost.obj
 0001:00011570       ?GetScaleStart_R@CDrSolid@@QAENXZ 10012570 f i CurPost.obj
 0001:000115a0       ?SetScaleStart_R@CDrSolid@@QAEXN@Z 100125a0 f i CurPost.obj
 0001:000115e0       ?GetPentaList@CDrSolid@@QAEPAVCDListMgr@@XZ 100125e0 f i CurPost.obj
 0001:00011610       ?GetnTriangles_ST@CDrSolid@@QAEHXZ 10012610 f i CurPost.obj
 0001:00011640       ?SetnTriangles_ST@CDrSolid@@QAEXH@Z 10012640 f i CurPost.obj
 0001:00011670       ?GetElperSegList_R@CDrSolid@@QAEPAV?$CList@HH@@XZ 10012670 f i CurPost.obj
 0001:000116a0       ?IsGenBPatch@CDrSolid@@QAEHXZ 100126a0 f i CurPost.obj
 0001:000116d0       ?SetGenBPatch@CDrSolid@@QAEXH@Z 100126d0 f i CurPost.obj
 0001:00011700       ?GetVPatchList@CDrSolid@@QAEPAVCDListMgr@@XZ 10012700 f i CurPost.obj
 0001:00011730       ?GetPatchList_U@CDrSolid@@QAEPAVCDListMgr@@XZ 10012730 f i CurPost.obj
 0001:00011760       ?GetPatchList_V@CDrSolid@@QAEPAVCDListMgr@@XZ 10012760 f i CurPost.obj
 0001:00011790       ?GetPatchList_W@CDrSolid@@QAEPAVCDListMgr@@XZ 10012790 f i CurPost.obj
 0001:000117c0       ?GetPatchLatchList_U@CDrSolid@@QAEPAV?$CList@W4PATCHLATCH@@W41@@@XZ 100127c0 f i CurPost.obj
 0001:000117f0       ?GetPatchLatchList_V@CDrSolid@@QAEPAV?$CList@W4PATCHLATCH@@W41@@@XZ 100127f0 f i CurPost.obj
 0001:00011820       ?GetPatchLatchList_W@CDrSolid@@QAEPAV?$CList@W4PATCHLATCH@@W41@@@XZ 10012820 f i CurPost.obj
 0001:00011850       ?IsAxisInput_R@CDrSolid@@QAEHXZ 10012850 f i CurPost.obj
 0001:00011880       ?SetAxisInput_R@CDrSolid@@QAEXH@Z 10012880 f i CurPost.obj
 0001:000118b0       ?GetAxisType_R@CDrSolid@@QAEHXZ 100128b0 f i CurPost.obj
 0001:000118e0       ?SetAxisType_R@CDrSolid@@QAEXH@Z 100128e0 f i CurPost.obj
 0001:00011910       ?IsNegative_R@CDrSolid@@QAEHXZ 10012910 f i CurPost.obj
 0001:00011940       ?SetNegative_R@CDrSolid@@QAEXH@Z 10012940 f i CurPost.obj
 0001:00011970       ?GetCircleType_R@CDrSolid@@QAE?AW4CIRCLETYPE@@XZ 10012970 f i CurPost.obj
 0001:000119a0       ?SetCircleType_R@CDrSolid@@QAEXW4CIRCLETYPE@@@Z 100129a0 f i CurPost.obj
 0001:000119d0       ?GetAng_1_R@CDrSolid@@QAENXZ 100129d0 f i CurPost.obj
 0001:00011a00       ?SetAng_1_R@CDrSolid@@QAEXN@Z 10012a00 f i CurPost.obj
 0001:00011a40       ?GetAng_2_R@CDrSolid@@QAENXZ 10012a40 f i CurPost.obj
 0001:00011a70       ?SetAng_2_R@CDrSolid@@QAEXN@Z 10012a70 f i CurPost.obj
 0001:00011ab0       ?IsEndCondMode@CSheet_SOLI@@QAEHXZ 10012ab0 f i CurPost.obj
 0001:00011ae0       ?SetEndCondMode@CSheet_SOLI@@QAEXH@Z 10012ae0 f i CurPost.obj
 0001:00011b10       ?IsTackled@CDrObj3D@@QAEHXZ 10012b10 f i CurPost.obj
 0001:00011b40       ?SetTackled@CDrObj3D@@QAEXH@Z 10012b40 f i CurPost.obj
 0001:00011b70       ??1CDlg_O3DI@@UAE@XZ       10012b70 f i CurPost.obj
 0001:00011be0       ??1CDlg_SupI@@UAE@XZ       10012be0 f i CurPost.obj
 0001:00011c50       ?Parse_drPipe@CDrLinSup@@UAEPAUsupportcard@@PAVCString@@@Z 10012c50 f i CurPost.obj
 0001:00011c70       ?GetSuppCard@CDrLinSup@@UAEPAUsupportcard@@XZ 10012c70 f i CurPost.obj
 0001:00011ca0       ?GetCardNo@CDrLinSup@@UAEHXZ 10012ca0 f i CurPost.obj
 0001:00011cd0       ?SetCardNo@CDrLinSup@@UAEXH@Z 10012cd0 f i CurPost.obj
 0001:00011d00       ?GetLabelNo@CDrLinSup@@QAEJXZ 10012d00 f i CurPost.obj
 0001:00011d30       ?SetLabelNo@CDrLinSup@@QAEXJ@Z 10012d30 f i CurPost.obj
 0001:00011d60       ?GetnPts@CDrLinSup@@QAEHH@Z 10012d60 f i CurPost.obj
 0001:00011d90       ?GetpLoc@CDrLinSup@@QAEPAUWORLD@@H@Z 10012d90 f i CurPost.obj
 0001:00011dc0       ?IsSkewed@CDrLinSup@@UAEHXZ 10012dc0 f i CurPost.obj
 0001:00011df0       ?SetSkewed@CDrLinSup@@UAEXH@Z 10012df0 f i CurPost.obj
 0001:00011e20       ?GetSkewMat@CDrLinSup@@QAEPAUMATRIX@@XZ 10012e20 f i CurPost.obj
 0001:00011e50       ?SetSkewMat@CDrLinSup@@QAEXPAUMATRIX@@@Z 10012e50 f i CurPost.obj
 0001:00011e90       ?GetCreateBase@CDrLinSup@@QAEIXZ 10012e90 f i CurPost.obj
 0001:00011ec0       ?SetCreateBase@CDrLinSup@@QAEXI@Z 10012ec0 f i CurPost.obj
 0001:00011ef0       ?IsTriangle@CDrLinSup@@QAEHXZ 10012ef0 f i CurPost.obj
 0001:00011f20       ?SetTriangle@CDrLinSup@@QAEXH@Z 10012f20 f i CurPost.obj
 0001:00011f50       ?IsPentaHed@CDrLinSup@@QAEHXZ 10012f50 f i CurPost.obj
 0001:00011f80       ?SetPentaHed@CDrLinSup@@QAEXH@Z 10012f80 f i CurPost.obj
 0001:00011fb0       ?GetCreate_i@CDrLinSup@@QAEHXZ 10012fb0 f i CurPost.obj
 0001:00011fe0       ?SetCreate_i@CDrLinSup@@QAEXH@Z 10012fe0 f i CurPost.obj
 0001:00012010       ?GetCreate_j@CDrLinSup@@QAEHXZ 10013010 f i CurPost.obj
 0001:00012040       ?SetCreate_j@CDrLinSup@@QAEXH@Z 10013040 f i CurPost.obj
 0001:00012070       ?GetCreate_k@CDrLinSup@@QAEHXZ 10013070 f i CurPost.obj
 0001:000120a0       ?SetCreate_k@CDrLinSup@@QAEXH@Z 100130a0 f i CurPost.obj
 0001:000120d0       ?GetNodPos@CDrLinSup@@QAEPAUWORLD@@XZ 100130d0 f i CurPost.obj
 0001:00012100       ?SetNodPos@CDrLinSup@@QAEXAAUWORLD@@@Z 10013100 f i CurPost.obj
 0001:00012140       ?Parse_drPipe@CDrStatic@@UAEPAUstaLcard@@PAVCString@@@Z 10013140 f i CurPost.obj
 0001:00012160       ?GetCardNo@CDrStatic@@QAEHXZ 10013160 f i CurPost.obj
 0001:00012190       ?SetCardNo@CDrStatic@@QAEXH@Z 10013190 f i CurPost.obj
 0001:000121c0       ?GetStaLCard@CDrStatic@@QAEPAUstaLcard@@XZ 100131c0 f i CurPost.obj
 0001:000121f0       ?GetNodeList@CDrStatic@@QAEPAVCDListMgr@@XZ 100131f0 f i CurPost.obj
 0001:00012220       ?GetCurveList@CDrStatic@@QAEPAVCDListMgr@@XZ 10013220 f i CurPost.obj
 0001:00012250       ?GetPatchList@CDrStatic@@QAEPAVCDListMgr@@XZ 10013250 f i CurPost.obj
 0001:00012280       ?GetSolidList@CDrStatic@@QAEPAVCDListMgr@@XZ 10013280 f i CurPost.obj
 0001:000122b0       ?GetLabelNode@CDrStatic@@QAEPAVCDrNode@@XZ 100132b0 f i CurPost.obj
 0001:000122e0       ?SetLabelNode@CDrStatic@@QAEXPAVCDrNode@@@Z 100132e0 f i CurPost.obj
 0001:00012310       ?GetLabelPtr@CDrStatic@@QAEPAVCDrLabel@@XZ 10013310 f i CurPost.obj
 0001:00012340       ?SetLabelPtr@CDrStatic@@QAEXPAVCDrLabel@@@Z 10013340 f i CurPost.obj
 0001:00012370       ?GetLabelNo@CDrStatic@@QAEJXZ 10013370 f i CurPost.obj
 0001:000123a0       ?SetLabelNo@CDrStatic@@QAEXJ@Z 100133a0 f i CurPost.obj
 0001:000123d0       ?GetLocalM@CDrStatic@@QAEPAUMATRIX@@XZ 100133d0 f i CurPost.obj
 0001:00012400       ?SetLocalM@CDrStatic@@QAEXPAUMATRIX@@@Z 10013400 f i CurPost.obj
 0001:00012440       ?GetnPts@CDrStatic@@QAEHH@Z 10013440 f i CurPost.obj
 0001:00012470       ?GetpLoc@CDrStatic@@QAEPAUWORLD@@H@Z 10013470 f i CurPost.obj
 0001:000124a0       ?IsSkewed@CDrStatic@@UAEHXZ 100134a0 f i CurPost.obj
 0001:000124d0       ?SetSkewed@CDrStatic@@UAEXH@Z 100134d0 f i CurPost.obj
 0001:00012500       ?GetSkewMat@CDrStatic@@QAEPAUMATRIX@@XZ 10013500 f i CurPost.obj
 0001:00012530       ?SetSkewMat@CDrStatic@@QAEXPAUMATRIX@@@Z 10013530 f i CurPost.obj
 0001:00012570       ?GetCreateBase@CDrStatic@@QAEIXZ 10013570 f i CurPost.obj
 0001:000125a0       ?SetCreateBase@CDrStatic@@QAEXI@Z 100135a0 f i CurPost.obj
 0001:000125d0       ?IsTriangle@CDrStatic@@QAEHXZ 100135d0 f i CurPost.obj
 0001:00012600       ?SetTriangle@CDrStatic@@QAEXH@Z 10013600 f i CurPost.obj
 0001:00012630       ?IsPentaHed@CDrStatic@@QAEHXZ 10013630 f i CurPost.obj
 0001:00012660       ?SetPentaHed@CDrStatic@@QAEXH@Z 10013660 f i CurPost.obj
 0001:00012690       ?GetCreate_i@CDrStatic@@QAEHXZ 10013690 f i CurPost.obj
 0001:000126c0       ?SetCreate_i@CDrStatic@@QAEXH@Z 100136c0 f i CurPost.obj
 0001:000126f0       ?GetCreate_j@CDrStatic@@QAEHXZ 100136f0 f i CurPost.obj
 0001:00012720       ?SetCreate_j@CDrStatic@@QAEXH@Z 10013720 f i CurPost.obj
 0001:00012750       ?GetCreate_k@CDrStatic@@QAEHXZ 10013750 f i CurPost.obj
 0001:00012780       ?SetCreate_k@CDrStatic@@QAEXH@Z 10013780 f i CurPost.obj
 0001:000127b0       ?GetNodPos@CDrStatic@@QAEPAUWORLD@@XZ 100137b0 f i CurPost.obj
 0001:000127e0       ?SetNodPos@CDrStatic@@QAEXAAUWORLD@@@Z 100137e0 f i CurPost.obj
 0001:00012820       ?SetCurrentNode@CSLDNod@@QAEXPAVCDrNode@@@Z 10013820 f i CurPost.obj
 0001:00012850       ?SetCurrentLabel@CSLDNod@@QAEXPAVCDrLabel@@@Z 10013850 f i CurPost.obj
 0001:00012880       ??1CDlg_StLI@@UAE@XZ       10013880 f i CurPost.obj
 0001:00012920       ??1CDlg_CrOI@@UAE@XZ       10013920 f i CurPost.obj
 0001:000129a0       ?GetCurveList@CDrProf_C@@QAEPAVCDListMgr@@XZ 100139a0 f i CurPost.obj
 0001:000129d0       ?GetLMList@CDrProf_C@@QAEPAVCDListMgr@@XZ 100139d0 f i CurPost.obj
 0001:00012a00       ?GetCurve@CDrProf_C@@QAEPAVCDrCurve@@XZ 10013a00 f i CurPost.obj
 0001:00012a30       ?SetCurve@CDrProf_C@@QAEXPAVCDrCurve@@@Z 10013a30 f i CurPost.obj
 0001:00012a60       ?GetProfileType@CDrProf_C@@QAE?AW4PROFILETYPE@@XZ 10013a60 f i CurPost.obj
 0001:00012a90       ?SetProfileType@CDrProf_C@@QAEXW4PROFILETYPE@@@Z 10013a90 f i CurPost.obj
 0001:00012ac0       ?GetElNumID@CDrFE0D@@QAEAAVCString@@XZ 10013ac0 f i CurPost.obj
 0001:00012af0       ?SetElNumID@CDrFE0D@@QAEXVCString@@@Z 10013af0 f i CurPost.obj
 0001:00012b70       ?GetElTypeID@CDrFE0D@@QAEAAVCString@@XZ 10013b70 f i CurPost.obj
 0001:00012ba0       ?SetElTypeID@CDrFE0D@@QAEXVCString@@@Z 10013ba0 f i CurPost.obj
 0001:00012c20       ?Getrid@CDrFE0D@@QAEAAVCString@@XZ 10013c20 f i CurPost.obj
 0001:00012c50       ?Setrid@CDrFE0D@@QAEXVCString@@@Z 10013c50 f i CurPost.obj
 0001:00012cd0       ?Getpid@CDrFE0D@@QAEAAVCString@@XZ 10013cd0 f i CurPost.obj
 0001:00012d00       ?Setpid@CDrFE0D@@QAEXVCString@@@Z 10013d00 f i CurPost.obj
 0001:00012d80       ?Getmid@CDrFE0D@@QAEAAVCString@@XZ 10013d80 f i CurPost.obj
 0001:00012db0       ?Setmid@CDrFE0D@@QAEXVCString@@@Z 10013db0 f i CurPost.obj
 0001:00012e30       ?GetElNum@CDrFE0D@@QAEIXZ  10013e30 f i CurPost.obj
 0001:00012e60       ?SetElNum@CDrFE0D@@QAEXI@Z 10013e60 f i CurPost.obj
 0001:00012e90       ?GetElTypeNum@CDrFE0D@@QAEIXZ 10013e90 f i CurPost.obj
 0001:00012ec0       ?SetElTypeNum@CDrFE0D@@QAEXI@Z 10013ec0 f i CurPost.obj
 0001:00012ef0       ?Getrel@CDrFE0D@@QAEIXZ    10013ef0 f i CurPost.obj
 0001:00012f20       ?Setrel@CDrFE0D@@QAEXI@Z   10013f20 f i CurPost.obj
 0001:00012f50       ?Getprop@CDrFE0D@@QAEIXZ   10013f50 f i CurPost.obj
 0001:00012f80       ?Setprop@CDrFE0D@@QAEXI@Z  10013f80 f i CurPost.obj
 0001:00012fb0       ?Getmat@CDrFE0D@@QAEIXZ    10013fb0 f i CurPost.obj
 0001:00012fe0       ?Setmat@CDrFE0D@@QAEXI@Z   10013fe0 f i CurPost.obj
 0001:00013010       ?GetRefTemp@CDrFE0D@@QAENXZ 10014010 f i CurPost.obj
 0001:00013040       ?SetRefTemp@CDrFE0D@@QAEXN@Z 10014040 f i CurPost.obj
 0001:00013080       ?GetNormalWorld@CDrFE0D@@UAEPAUWORLD@@XZ 10014080 f i CurPost.obj
 0001:000130b0       ?SetNormalWorld@CDrFE0D@@UAEXUWORLD@@@Z 100140b0 f i CurPost.obj
 0001:000130f0       ?GetNormalEye@CDrFE0D@@UAEPAUWORLD@@XZ 100140f0 f i CurPost.obj
 0001:00013120       ?SetNormalEye@CDrFE0D@@UAEXUWORLD@@@Z 10014120 f i CurPost.obj
 0001:00013160       ?GetNormalScreen3D@CDrFE0D@@UAEPAUWORLD@@XZ 10014160 f i CurPost.obj
 0001:00013190       ?SetNormalScreen3D@CDrFE0D@@UAEXUWORLD@@@Z 10014190 f i CurPost.obj
 0001:000131d0       ?GetNormalScreen2D@CDrFE0D@@UAEPAUtagPOINT@@XZ 100141d0 f i CurPost.obj
 0001:00013200       ?SetNormalScreen2D@CDrFE0D@@UAEXUtagPOINT@@@Z 10014200 f i CurPost.obj
 0001:00013240       ?IsMeshNode@CDrFE0D@@UAEHXZ 10014240 f i CurPost.obj
 0001:00013270       ?SetMeshNode@CDrFE0D@@UAEXH@Z 10014270 f i CurPost.obj
 0001:000132a0       ?GetHist_S@CDrFE0D@@QAEHXZ 100142a0 f i CurPost.obj
 0001:000132d0       ?SetHist_S@CDrFE0D@@QAEXH@Z 100142d0 f i CurPost.obj
 0001:00013300       ?GetHist_T@CDrFE0D@@QAEHXZ 10014300 f i CurPost.obj
 0001:00013330       ?SetHist_T@CDrFE0D@@QAEXH@Z 10014330 f i CurPost.obj
 0001:00013360       ?GetHist_R@CDrFE0D@@QAEHXZ 10014360 f i CurPost.obj
 0001:00013390       ?SetHist_R@CDrFE0D@@QAEXH@Z 10014390 f i CurPost.obj
 0001:000133c0       ??1CMlg_CrOI@@UAE@XZ       100143c0 f i CurPost.obj
 0001:00013440       ?GetGenObj@CDrMesh1D@@QAEPAVCDrCurve@@XZ 10014440 f i CurPost.obj
 0001:00013470       ?SetGenObj@CDrMesh1D@@QAEXPAVCDrCurve@@@Z 10014470 f i CurPost.obj
 0001:000134a0       ?GetRefQuad@CDrMesh2D@@UAE?AW4REF_QUAD@@XZ 100144a0 f i CurPost.obj
 0001:000134d0       ?SetRefQuad@CDrMesh2D@@UAEXW4REF_QUAD@@@Z 100144d0 f i CurPost.obj
 0001:00013500       ?GetRefTri@CDrMesh2D@@UAE?AW4REF_TRI@@XZ 10014500 f i CurPost.obj
 0001:00013530       ?SetRefTri@CDrMesh2D@@UAEXW4REF_TRI@@@Z 10014530 f i CurPost.obj
 0001:00013560       ?GetOrient@CDrMesh2D@@UAE?AW4ORIENT@@XZ 10014560 f i CurPost.obj
 0001:00013590       ?SetOrient@CDrMesh2D@@UAEXW4ORIENT@@@Z 10014590 f i CurPost.obj
 0001:000135c0       ?GetGenObj@CDrMesh2D@@QAEPAVCDrPatch@@XZ 100145c0 f i CurPost.obj
 0001:000135f0       ?SetGenObj@CDrMesh2D@@QAEXPAVCDrPatch@@@Z 100145f0 f i CurPost.obj
 0001:00013620       ?IsReversed_ST@CDrMesh2D@@QAEHXZ 10014620 f i CurPost.obj
 0001:00013650       ?SetReversed_ST@CDrMesh2D@@QAEXH@Z 10014650 f i CurPost.obj
 0001:00013680       ?GetEdgeList@CDrMesh2D@@QAEPAVCDListMgr@@XZ 10014680 f i CurPost.obj
 0001:000136b0       ?GetEdgeList@CDrMesh3D@@QAEPAVCDListMgr@@XZ 100146b0 f i CurPost.obj
 0001:000136e0       ?GetFaceList@CDrMesh3D@@QAEPAVCDListMgr@@XZ 100146e0 f i CurPost.obj
 0001:00013710       ?GetGenObj@CDrMesh3D@@QAEPAVCDrSolid@@XZ 10014710 f i CurPost.obj
 0001:00013740       ?SetGenObj@CDrMesh3D@@QAEXPAVCDrSolid@@@Z 10014740 f i CurPost.obj
 0001:00013770       ??1CDlg_FE0I@@UAE@XZ       10014770 f i CurPost.obj
 0001:000137f0       ?Parse_drPipe@CDrPipe@@UAEXPAVCString@@@Z 100147f0 f i CurPost.obj
 0001:00013810       ?GetMaxCorners@CDrPipe@@UAEHXZ 10014810 f i CurPost.obj
 0001:00013830       ?GetSIid@CDrPipe@@QAEAAVCString@@H@Z 10014830 f i CurPost.obj
 0001:00013860       ?SetSIid@CDrPipe@@QAEXVCString@@H@Z 10014860 f i CurPost.obj
 0001:000138e0       ?IsValve@CDrPipe@@QAEHXZ   100148e0 f i CurPost.obj
 0001:00013910       ?SetValve@CDrPipe@@QAEXH@Z 10014910 f i CurPost.obj
 0001:00013940       ?Parse_drPipe@CDrBeam@@UAEXPAVCString@@@Z 10014940 f i CurPost.obj
 0001:00013960       ?GetMaxCorners@CDrBeam@@UAEHXZ 10014960 f i CurPost.obj
 0001:00013980       ?GetKNodeID@CDrBeam@@UAEAAVCString@@XZ 10014980 f i CurPost.obj
 0001:000139b0       ?SetKNodeID@CDrBeam@@UAEXAAVCString@@@Z 100149b0 f i CurPost.obj
 0001:000139e0       ?Parse_drPipe@CDrTruss@@UAEXPAVCString@@@Z 100149e0 f i CurPost.obj
 0001:00013a00       ?GetMaxCorners@CDrTruss@@UAEHXZ 10014a00 f i CurPost.obj
 0001:00013a20       ?Parse_drPipe@CDrElbow@@UAEXPAVCString@@@Z 10014a20 f i CurPost.obj
 0001:00013a40       ?GetMaxCorners@CDrElbow@@UAEHXZ 10014a40 f i CurPost.obj
 0001:00013a60       ?GetSIid@CDrElbow@@QAEAAVCString@@H@Z 10014a60 f i CurPost.obj
 0001:00013a90       ?SetSIid@CDrElbow@@QAEXVCString@@H@Z 10014a90 f i CurPost.obj
 0001:00013b10       ?GetCCID@CDrElbow@@QAEAAVCString@@H@Z 10014b10 f i CurPost.obj
 0001:00013b40       ?SetCCID@CDrElbow@@QAEXVCString@@@Z 10014b40 f i CurPost.obj
 0001:00013bc0       ?GetTIID@CDrElbow@@QAEAAVCString@@H@Z 10014bc0 f i CurPost.obj
 0001:00013bf0       ?SetTIID@CDrElbow@@QAEXVCString@@@Z 10014bf0 f i CurPost.obj
 0001:00013c70       ?GetCAID@CDrElbow@@QAEAAVCString@@H@Z 10014c70 f i CurPost.obj
 0001:00013ca0       ?SetCAID@CDrElbow@@QAEXVCString@@@Z 10014ca0 f i CurPost.obj
 0001:00013d20       ?GetCBID@CDrElbow@@QAEAAVCString@@H@Z 10014d20 f i CurPost.obj
 0001:00013d50       ?SetCBID@CDrElbow@@QAEXVCString@@@Z 10014d50 f i CurPost.obj
 0001:00013dd0       ??1CDlg_FE1I@@UAE@XZ       10014dd0 f i CurPost.obj
 0001:00013eb0       ?GetDrFace@CFaceInfo@@QAEPAVCObject@@XZ 10014eb0 f i CurPost.obj
 0001:00013ed0       ?SetDrFace@CFaceInfo@@QAEXPAVCObject@@@Z 10014ed0 f i CurPost.obj
 0001:00013f00       ?GetFaceType@CFaceInfo@@QAEIXZ 10014f00 f i CurPost.obj
 0001:00013f20       ?SetFaceType@CFaceInfo@@QAEXI@Z 10014f20 f i CurPost.obj
 0001:00013f50       ?GetGenObj@CFaceInfo@@QAEPAVCObject@@XZ 10014f50 f i CurPost.obj
 0001:00013f70       ?SetGenObj@CFaceInfo@@QAEXPAVCObject@@@Z 10014f70 f i CurPost.obj
 0001:00013fa0       ?GetGenType@CFaceInfo@@QAEIXZ 10014fa0 f i CurPost.obj
 0001:00013fc0       ?SetGenType@CFaceInfo@@QAEXI@Z 10014fc0 f i CurPost.obj
 0001:00013ff0       ?GetFaceDim@CFaceInfo@@QAEIXZ 10014ff0 f i CurPost.obj
 0001:00014010       ?SetFaceDim@CFaceInfo@@QAEXI@Z 10015010 f i CurPost.obj
 0001:00014040       ?GetObjectID@CDrEdge@@QAEAAVCString@@XZ 10015040 f i CurPost.obj
 0001:00014060       ?SetObjectID@CDrEdge@@QAEXAAVCString@@@Z 10015060 f i CurPost.obj
 0001:00014090       ?GetVrtxIndex@CDrEdge@@QAEHH@Z 10015090 f i CurPost.obj
 0001:000140c0       ?SetVrtxIndex@CDrEdge@@QAEXHH@Z 100150c0 f i CurPost.obj
 0001:000140f0       ?GetFaceInfoList@CDrEdge@@QAEPAVCDListMgr@@XZ 100150f0 f i CurPost.obj
 0001:00014110       ?GetHist_RCH@CDrEdge@@QAEHXZ 10015110 f i CurPost.obj
 0001:00014130       ?SetHist_RCH@CDrEdge@@QAEXH@Z 10015130 f i CurPost.obj
 0001:00014160       ?GetHistType@CDrEdge@@QAEHXZ 10015160 f i CurPost.obj
 0001:00014180       ?SetHistType@CDrEdge@@QAEXH@Z 10015180 f i CurPost.obj
 0001:000141b0       ?GetMesh@CDrEdge@@QAEPAVCDrObject@@XZ 100151b0 f i CurPost.obj
 0001:000141d0       ?SetMesh@CDrEdge@@QAEXPAVCDrObject@@@Z 100151d0 f i CurPost.obj
 0001:00014200       ?GetMeshType@CDrEdge@@QAEIXZ 10015200 f i CurPost.obj
 0001:00014220       ?SetMeshType@CDrEdge@@QAEXI@Z 10015220 f i CurPost.obj
 0001:00014250       ?IsOnBndry@CDrEdge@@QAEHXZ 10015250 f i CurPost.obj
 0001:00014270       ?SetOnBndry@CDrEdge@@QAEXH@Z 10015270 f i CurPost.obj
 0001:000142a0       ??1CDlg_FE2I@@UAE@XZ       100152a0 f i CurPost.obj
 0001:00014380       ?GetMesh1DList@CDrProf_1@@UAEPAVCDListMgr@@XZ 10015380 f i CurPost.obj
 0001:000143b0       ?GetLMList@CDrProf_1@@UAEPAVCDListMgr@@XZ 100153b0 f i CurPost.obj
 0001:000143e0       ?GetMesh1D@CDrProf_1@@UAEPAVCDrMesh1D@@XZ 100153e0 f i CurPost.obj
 0001:00014410       ?SetMesh1D@CDrProf_1@@UAEXPAVCDrMesh1D@@@Z 10015410 f i CurPost.obj
 0001:00014440       ?GetObjectType@CBooleans@@UAEHXZ 10015440 f i CurPost.obj
 0001:00014470       ?SetObjectType@CBooleans@@UAEXH@Z 10015470 f i CurPost.obj
 0001:000144a0       ?GetElemType@CBooleans@@UAEHXZ 100154a0 f i CurPost.obj
 0001:000144d0       ?SetElemType@CBooleans@@UAEXH@Z 100154d0 f i CurPost.obj
 0001:00014500       ?GetObjectNo@CBooleans@@UAEJXZ 10015500 f i CurPost.obj
 0001:00014530       ?SetObjectNo@CBooleans@@UAEXJ@Z 10015530 f i CurPost.obj
 0001:00014560       ?IsSoundOn@CBooleans@@UAEHXZ 10015560 f i CurPost.obj
 0001:00014590       ?ToggleSoundOn@CBooleans@@UAEXXZ 10015590 f i CurPost.obj
 0001:000145d0       ?IsCoonSocksOff@CBooleans@@UAEHXZ 100155d0 f i CurPost.obj
 0001:00014600       ?ToggleCoonSocksOff@CBooleans@@UAEXXZ 10015600 f i CurPost.obj
 0001:00014640       ?IsSnapOn@CBooleans@@UAEHXZ 10015640 f i CurPost.obj
 0001:00014670       ?ToggleSnapOn@CBooleans@@UAEXXZ 10015670 f i CurPost.obj
 0001:000146b0       ?IsHorSnapOn@CBooleans@@UAEHXZ 100156b0 f i CurPost.obj
 0001:000146e0       ?ToggleHorSnapOn@CBooleans@@UAEXXZ 100156e0 f i CurPost.obj
 0001:00014720       ?IsVerSnapOn@CBooleans@@UAEHXZ 10015720 f i CurPost.obj
 0001:00014750       ?ToggleVerSnapOn@CBooleans@@UAEXXZ 10015750 f i CurPost.obj
 0001:00014790       ?IsSpawnOn@CBooleans@@UAEHXZ 10015790 f i CurPost.obj
 0001:000147c0       ?ToggleSpawnOn@CBooleans@@UAEXXZ 100157c0 f i CurPost.obj
 0001:00014800       ?IsBLineOn@CBooleans@@UAEHXZ 10015800 f i CurPost.obj
 0001:00014830       ?ToggleBLineOn@CBooleans@@UAEXXZ 10015830 f i CurPost.obj
 0001:00014870       ?IsSingleSegOn@CBooleans@@UAEHXZ 10015870 f i CurPost.obj
 0001:000148a0       ?ToggleSingleSegOn@CBooleans@@UAEXXZ 100158a0 f i CurPost.obj
 0001:000148e0       ?IsAutoAcceptOn@CBooleans@@UAEHXZ 100158e0 f i CurPost.obj
 0001:00014910       ?ToggleAutoAcceptOn@CBooleans@@UAEXXZ 10015910 f i CurPost.obj
 0001:00014950       ?IsDialogOn@CBooleans@@UAEHXZ 10015950 f i CurPost.obj
 0001:00014980       ?ToggleDialogOn@CBooleans@@UAEXXZ 10015980 f i CurPost.obj
 0001:000149c0       ?IsElementOn@CBooleans@@UAEHXZ 100159c0 f i CurPost.obj
 0001:000149f0       ?ToggleElementOn@CBooleans@@UAEXXZ 100159f0 f i CurPost.obj
 0001:00014a30       ?IsDragOn@CBooleans@@UAEHXZ 10015a30 f i CurPost.obj
 0001:00014a60       ?ToggleDragOn@CBooleans@@UAEXXZ 10015a60 f i CurPost.obj
 0001:00014aa0       ?IsRefreshOn@CBooleans@@UAEHXZ 10015aa0 f i CurPost.obj
 0001:00014ad0       ?ToggleRefreshOn@CBooleans@@UAEXXZ 10015ad0 f i CurPost.obj
 0001:00014b10       ?IsRubberBandOn@CBooleans@@UAEHXZ 10015b10 f i CurPost.obj
 0001:00014b40       ?ToggleRubberBandOn@CBooleans@@UAEXXZ 10015b40 f i CurPost.obj
 0001:00014b80       ?IsStViewActive@CBooleans@@UAEHXZ 10015b80 f i CurPost.obj
 0001:00014bb0       ?ToggleStViewActive@CBooleans@@UAEXXZ 10015bb0 f i CurPost.obj
 0001:00014bf0       ?IsSpViewActive@CBooleans@@UAEHXZ 10015bf0 f i CurPost.obj
 0001:00014c20       ?ToggleSpViewActive@CBooleans@@UAEXXZ 10015c20 f i CurPost.obj
 0001:00014c60       ?IsHsViewActive@CBooleans@@UAEHXZ 10015c60 f i CurPost.obj
 0001:00014c90       ?ToggleHsViewActive@CBooleans@@UAEXXZ 10015c90 f i CurPost.obj
 0001:00014cd0       ?Is12ViewActive@CBooleans@@UAEHXZ 10015cd0 f i CurPost.obj
 0001:00014d00       ?Toggle12ViewActive@CBooleans@@UAEXXZ 10015d00 f i CurPost.obj
 0001:00014d40       ?Is23ViewActive@CBooleans@@UAEHXZ 10015d40 f i CurPost.obj
 0001:00014d70       ?Toggle23ViewActive@CBooleans@@UAEXXZ 10015d70 f i CurPost.obj
 0001:00014db0       ?Is31ViewActive@CBooleans@@UAEHXZ 10015db0 f i CurPost.obj
 0001:00014de0       ?Toggle31ViewActive@CBooleans@@UAEXXZ 10015de0 f i CurPost.obj
 0001:00014e20       ?IsIsoViewActive@CBooleans@@UAEHXZ 10015e20 f i CurPost.obj
 0001:00014e50       ?ToggleIsoViewActive@CBooleans@@UAEXXZ 10015e50 f i CurPost.obj
 0001:00014e90       ?IsDataViewActive@CBooleans@@UAEHXZ 10015e90 f i CurPost.obj
 0001:00014ec0       ?ToggleDataViewActive@CBooleans@@UAEXXZ 10015ec0 f i CurPost.obj
 0001:00014f00       ?IsMeshDataViewActive@CBooleans@@UAEHXZ 10015f00 f i CurPost.obj
 0001:00014f30       ?ToggleMeshDataViewActive@CBooleans@@UAEXXZ 10015f30 f i CurPost.obj
 0001:00014f70       ?IsDeckViewActive@CBooleans@@UAEHXZ 10015f70 f i CurPost.obj
 0001:00014fa0       ?ToggleDeckViewActive@CBooleans@@UAEXXZ 10015fa0 f i CurPost.obj
 0001:00014fe0       ?IsFormDataViewActive@CBooleans@@UAEHXZ 10015fe0 f i CurPost.obj
 0001:00015010       ?ToggleFormDataViewActive@CBooleans@@UAEXXZ 10016010 f i CurPost.obj
 0001:00015050       ?IsInputMode@CBooleans@@UAEHXZ 10016050 f i CurPost.obj
 0001:00015080       ?SetInputMode@CBooleans@@UAEXH@Z 10016080 f i CurPost.obj
 0001:000150b0       ?IsOutputMode@CBooleans@@UAEHXZ 100160b0 f i CurPost.obj
 0001:000150e0       ?SetOutputMode@CBooleans@@UAEXH@Z 100160e0 f i CurPost.obj
 0001:00015110       ??1CBooleans@@UAE@XZ       10016110 f i CurPost.obj
 0001:00015140       ??_GCBooleans@@UAEPAXI@Z   10016140 f i CurPost.obj
 0001:00015180       ??_ECBooleans@@UAEPAXI@Z   10016180 f i CurPost.obj
 0001:00015220       ?GetObjectType@CDataWindow@@UAEHXZ 10016220 f i CurPost.obj
 0001:00015250       ?SetObjectType@CDataWindow@@UAEXH@Z 10016250 f i CurPost.obj
 0001:00015280       ?GetElemType@CDataWindow@@UAEHXZ 10016280 f i CurPost.obj
 0001:000152b0       ?SetElemType@CDataWindow@@UAEXH@Z 100162b0 f i CurPost.obj
 0001:000152e0       ?GetObjectNo@CDataWindow@@UAEJXZ 100162e0 f i CurPost.obj
 0001:00015310       ?SetObjectNo@CDataWindow@@UAEXJ@Z 10016310 f i CurPost.obj
 0001:00015340       ?GetWinOrgWIC@CDataWindow@@UAE?AULPOINT3@@XZ 10016340 f i CurPost.obj
 0001:00015380       ?GetWinMinWIC@CDataWindow@@UAE?AULPOINT3@@XZ 10016380 f i CurPost.obj
 0001:000153c0       ?GetWinMaxWIC@CDataWindow@@UAE?AULPOINT3@@XZ 100163c0 f i CurPost.obj
 0001:00015400       ?GetWinExtWIC@CDataWindow@@UAE?AULPOINT3@@XZ 10016400 f i CurPost.obj
 0001:00015440       ??1CDataWindow@@UAE@XZ     10016440 f i CurPost.obj
 0001:00015470       ??_GCDataWindow@@UAEPAXI@Z 10016470 f i CurPost.obj
 0001:000154b0       ??_ECDataWindow@@UAEPAXI@Z 100164b0 f i CurPost.obj
 0001:00015550       ?GetObjectType@CDrFont@@UAEHXZ 10016550 f i CurPost.obj
 0001:00015580       ?SetObjectType@CDrFont@@UAEXH@Z 10016580 f i CurPost.obj
 0001:000155b0       ?GetElemType@CDrFont@@UAEHXZ 100165b0 f i CurPost.obj
 0001:000155e0       ?SetElemType@CDrFont@@UAEXH@Z 100165e0 f i CurPost.obj
 0001:00015610       ?GetObjectNo@CDrFont@@UAEJXZ 10016610 f i CurPost.obj
 0001:00015640       ?SetObjectNo@CDrFont@@UAEXJ@Z 10016640 f i CurPost.obj
 0001:00015670       ?IsFontSelected@CDrFont@@UAEHXZ 10016670 f i CurPost.obj
 0001:000156a0       ?GetTextColor@CDrFont@@UAEKXZ 100166a0 f i CurPost.obj
 0001:000156d0       ?SetTextColor@CDrFont@@UAEXK@Z 100166d0 f i CurPost.obj
 0001:00015700       ?GetCurrentLogFont@CDrFont@@UAE?AUtagLOGFONTA@@XZ 10016700 f i CurPost.obj
 0001:00015740       ?SetCurrentLogFont@CDrFont@@UAEXUtagLOGFONTA@@@Z 10016740 f i CurPost.obj
 0001:00015780       ??1CDrFont@@UAE@XZ         10016780 f i CurPost.obj
 0001:000157b0       ??_GCDrFont@@UAEPAXI@Z     100167b0 f i CurPost.obj
 0001:000157f0       ??_ECDrFont@@UAEPAXI@Z     100167f0 f i CurPost.obj
 0001:00015890       ?GetObjectType@CDrPen@@UAEHXZ 10016890 f i CurPost.obj
 0001:000158c0       ?SetObjectType@CDrPen@@UAEXH@Z 100168c0 f i CurPost.obj
 0001:000158f0       ?GetElemType@CDrPen@@UAEHXZ 100168f0 f i CurPost.obj
 0001:00015920       ?SetElemType@CDrPen@@UAEXH@Z 10016920 f i CurPost.obj
 0001:00015950       ?GetObjectNo@CDrPen@@UAEJXZ 10016950 f i CurPost.obj
 0001:00015980       ?SetObjectNo@CDrPen@@UAEXJ@Z 10016980 f i CurPost.obj
 0001:000159b0       ?GetCurrentPen@CDrPen@@UAEPAVCPen@@XZ 100169b0 f i CurPost.obj
 0001:000159e0       ?GetStyle@CDrPen@@UAEHXZ   100169e0 f i CurPost.obj
 0001:00015a10       ?SetStyle@CDrPen@@UAEXH@Z  10016a10 f i CurPost.obj
 0001:00015a40       ?GetStyleOld@CDrPen@@UAEHXZ 10016a40 f i CurPost.obj
 0001:00015a70       ?SetStyleOld@CDrPen@@UAEXH@Z 10016a70 f i CurPost.obj
 0001:00015aa0       ?GetStyleDefault@CDrPen@@UAEHXZ 10016aa0 f i CurPost.obj
 0001:00015ad0       ?SetStyleDefault@CDrPen@@UAEXH@Z 10016ad0 f i CurPost.obj
 0001:00015b00       ?GetWidth@CDrPen@@UAEHXZ   10016b00 f i CurPost.obj
 0001:00015b30       ?SetWidth@CDrPen@@UAEXH@Z  10016b30 f i CurPost.obj
 0001:00015b60       ?GetWidthOld@CDrPen@@UAEHXZ 10016b60 f i CurPost.obj
 0001:00015b90       ?SetWidthOld@CDrPen@@UAEXH@Z 10016b90 f i CurPost.obj
 0001:00015bc0       ?GetWidthDefault@CDrPen@@UAEHXZ 10016bc0 f i CurPost.obj
 0001:00015bf0       ?SetWidthDefault@CDrPen@@UAEXH@Z 10016bf0 f i CurPost.obj
 0001:00015c20       ?GetColor@CDrPen@@UAEKXZ   10016c20 f i CurPost.obj
 0001:00015c50       ?SetColor@CDrPen@@UAEXK@Z  10016c50 f i CurPost.obj
 0001:00015c80       ?GetColorOld@CDrPen@@UAEKXZ 10016c80 f i CurPost.obj
 0001:00015cb0       ?SetColorOld@CDrPen@@UAEXK@Z 10016cb0 f i CurPost.obj
 0001:00015ce0       ?GetColorDefault@CDrPen@@UAEKXZ 10016ce0 f i CurPost.obj
 0001:00015d10       ?SetColorDefault@CDrPen@@UAEXK@Z 10016d10 f i CurPost.obj
 0001:00015d40       ?GetIndex@CDrPen@@UAEIXZ   10016d40 f i CurPost.obj
 0001:00015d70       ?SetIndex@CDrPen@@UAEXI@Z  10016d70 f i CurPost.obj
 0001:00015da0       ?GetIndexOld@CDrPen@@UAEIXZ 10016da0 f i CurPost.obj
 0001:00015dd0       ?SetIndexOld@CDrPen@@UAEXI@Z 10016dd0 f i CurPost.obj
 0001:00015e00       ?GetIndexDefault@CDrPen@@UAEIXZ 10016e00 f i CurPost.obj
 0001:00015e30       ?SetIndexDefault@CDrPen@@UAEXI@Z 10016e30 f i CurPost.obj
 0001:00015e60       ?GetStyleNameCount@CDrPen@@UAEIXZ 10016e60 f i CurPost.obj
 0001:00015e90       ?SetStyleNameCount@CDrPen@@UAEXI@Z 10016e90 f i CurPost.obj
 0001:00015ec0       ?GetStyleName@CDrPen@@UAE?AVCString@@I@Z 10016ec0 f i CurPost.obj
 0001:00015f10       ?GetStyleConstant@CDrPen@@UAEII@Z 10016f10 f i CurPost.obj
 0001:00015f40       ??1CDrPen@@UAE@XZ          10016f40 f i CurPost.obj
 0001:00015fe0       ??_GCDrPen@@UAEPAXI@Z      10016fe0 f i CurPost.obj
 0001:00016020       ??_ECDrPen@@UAEPAXI@Z      10017020 f i CurPost.obj
 0001:000160c0       ?GetObjectType@CHitNet@@UAEHXZ 100170c0 f i CurPost.obj
 0001:000160f0       ?SetObjectType@CHitNet@@UAEXH@Z 100170f0 f i CurPost.obj
 0001:00016120       ?GetElemType@CHitNet@@UAEHXZ 10017120 f i CurPost.obj
 0001:00016150       ?SetElemType@CHitNet@@UAEXH@Z 10017150 f i CurPost.obj
 0001:00016180       ?GetObjectNo@CHitNet@@UAEJXZ 10017180 f i CurPost.obj
 0001:000161b0       ?SetObjectNo@CHitNet@@UAEXJ@Z 100171b0 f i CurPost.obj
 0001:000161e0       ?GetSearchNet@CHitNet@@QAEHXZ 100171e0 f i CurPost.obj
 0001:00016210       ?SetSearchNet@CHitNet@@QAEXH@Z 10017210 f i CurPost.obj
 0001:00016240       ?GetSearchNetOld@CHitNet@@QAEHXZ 10017240 f i CurPost.obj
 0001:00016270       ?SetSearchNetOld@CHitNet@@QAEXH@Z 10017270 f i CurPost.obj
 0001:000162a0       ?GetSearchNetDefault@CHitNet@@QAEHXZ 100172a0 f i CurPost.obj
 0001:000162d0       ?SetSearchNetDefault@CHitNet@@QAEXH@Z 100172d0 f i CurPost.obj
 0001:00016300       ?GetSearchDet@CHitNet@@QAENXZ 10017300 f i CurPost.obj
 0001:00016330       ?SetSearchDet@CHitNet@@QAEXN@Z 10017330 f i CurPost.obj
 0001:00016370       ?GetSearchDetOld@CHitNet@@QAENXZ 10017370 f i CurPost.obj
 0001:000163a0       ?SetSearchDetOld@CHitNet@@QAEXN@Z 100173a0 f i CurPost.obj
 0001:000163e0       ?GetSearchDetDefault@CHitNet@@QAENXZ 100173e0 f i CurPost.obj
 0001:00016410       ?SetSearchDetDefault@CHitNet@@QAEXN@Z 10017410 f i CurPost.obj
 0001:00016450       ?GetDblRatio@CHitNet@@QAENXZ 10017450 f i CurPost.obj
 0001:00016480       ?SetDblRatio@CHitNet@@QAEXN@Z 10017480 f i CurPost.obj
 0001:000164c0       ?GetDblRatioOld@CHitNet@@QAENXZ 100174c0 f i CurPost.obj
 0001:000164f0       ?SetDblRatioOld@CHitNet@@QAEXN@Z 100174f0 f i CurPost.obj
 0001:00016530       ?GetDblRatioDefault@CHitNet@@QAENXZ 10017530 f i CurPost.obj
 0001:00016560       ?SetDblRatioDefault@CHitNet@@QAEXN@Z 10017560 f i CurPost.obj
 0001:000165a0       ?GetCoLinear@CHitNet@@QAENXZ 100175a0 f i CurPost.obj
 0001:000165d0       ?SetCoLinear@CHitNet@@QAEXN@Z 100175d0 f i CurPost.obj
 0001:00016610       ?GetCoLinearOld@CHitNet@@QAENXZ 10017610 f i CurPost.obj
 0001:00016640       ?SetCoLinearOld@CHitNet@@QAEXN@Z 10017640 f i CurPost.obj
 0001:00016680       ?GetCoLinearDefault@CHitNet@@QAENXZ 10017680 f i CurPost.obj
 0001:000166b0       ?SetCoLinearDefault@CHitNet@@QAEXN@Z 100176b0 f i CurPost.obj
 0001:000166f0       ?GetCoPlanar@CHitNet@@QAENXZ 100176f0 f i CurPost.obj
 0001:00016720       ?SetCoPlanar@CHitNet@@QAEXN@Z 10017720 f i CurPost.obj
 0001:00016760       ?GetCoPlanarOld@CHitNet@@QAENXZ 10017760 f i CurPost.obj
 0001:00016790       ?SetCoPlanarOld@CHitNet@@QAEXN@Z 10017790 f i CurPost.obj
 0001:000167d0       ?GetCoPlanarDefault@CHitNet@@QAENXZ 100177d0 f i CurPost.obj
 0001:00016800       ?SetCoPlanarDefault@CHitNet@@QAEXN@Z 10017800 f i CurPost.obj
 0001:00016840       ?GetMergeNode_X@CHitNet@@QAENXZ 10017840 f i CurPost.obj
 0001:00016870       ?SetMergeNode_X@CHitNet@@QAEXN@Z 10017870 f i CurPost.obj
 0001:000168b0       ?GetMergeNode_XOld@CHitNet@@QAENXZ 100178b0 f i CurPost.obj
 0001:000168e0       ?SetMergeNode_XOld@CHitNet@@QAEXN@Z 100178e0 f i CurPost.obj
 0001:00016920       ?GetMergeNode_XDefault@CHitNet@@QAENXZ 10017920 f i CurPost.obj
 0001:00016950       ?SetMergeNode_XDefault@CHitNet@@QAEXN@Z 10017950 f i CurPost.obj
 0001:00016990       ?GetMergeNode_Y@CHitNet@@QAENXZ 10017990 f i CurPost.obj
 0001:000169c0       ?SetMergeNode_Y@CHitNet@@QAEXN@Z 100179c0 f i CurPost.obj
 0001:00016a00       ?GetMergeNode_YOld@CHitNet@@QAENXZ 10017a00 f i CurPost.obj
 0001:00016a30       ?SetMergeNode_YOld@CHitNet@@QAEXN@Z 10017a30 f i CurPost.obj
 0001:00016a70       ?GetMergeNode_YDefault@CHitNet@@QAENXZ 10017a70 f i CurPost.obj
 0001:00016aa0       ?SetMergeNode_YDefault@CHitNet@@QAEXN@Z 10017aa0 f i CurPost.obj
 0001:00016ae0       ?GetMergeNode_Z@CHitNet@@QAENXZ 10017ae0 f i CurPost.obj
 0001:00016b10       ?SetMergeNode_Z@CHitNet@@QAEXN@Z 10017b10 f i CurPost.obj
 0001:00016b50       ?GetMergeNode_ZOld@CHitNet@@QAENXZ 10017b50 f i CurPost.obj
 0001:00016b80       ?SetMergeNode_ZOld@CHitNet@@QAEXN@Z 10017b80 f i CurPost.obj
 0001:00016bc0       ?GetMergeNode_ZDefault@CHitNet@@QAENXZ 10017bc0 f i CurPost.obj
 0001:00016bf0       ?SetMergeNode_ZDefault@CHitNet@@QAEXN@Z 10017bf0 f i CurPost.obj
 0001:00016c30       ??1CHitNet@@UAE@XZ         10017c30 f i CurPost.obj
 0001:00016c60       ??_GCHitNet@@UAEPAXI@Z     10017c60 f i CurPost.obj
 0001:00016ca0       ??_ECHitNet@@UAEPAXI@Z     10017ca0 f i CurPost.obj
 0001:00016d40       ?GetObjectType@CLayer@@UAEHXZ 10017d40 f i CurPost.obj
 0001:00016d70       ?SetObjectType@CLayer@@UAEXH@Z 10017d70 f i CurPost.obj
 0001:00016da0       ?GetElemType@CLayer@@UAEHXZ 10017da0 f i CurPost.obj
 0001:00016dd0       ?SetElemType@CLayer@@UAEXH@Z 10017dd0 f i CurPost.obj
 0001:00016e00       ?GetObjectNo@CLayer@@UAEJXZ 10017e00 f i CurPost.obj
 0001:00016e30       ?SetObjectNo@CLayer@@UAEXJ@Z 10017e30 f i CurPost.obj
 0001:00016e60       ?GetCurrentLayer@CLayer@@UAEIXZ 10017e60 f i CurPost.obj
 0001:00016e90       ?SetCurrentLayer@CLayer@@UAEXI@Z 10017e90 f i CurPost.obj
 0001:00016ec0       ?GetCurrentLayerOld@CLayer@@UAEIXZ 10017ec0 f i CurPost.obj
 0001:00016ef0       ?SetCurrentLayerOld@CLayer@@UAEXI@Z 10017ef0 f i CurPost.obj
 0001:00016f20       ?GetCurrentLayerDefault@CLayer@@UAEIXZ 10017f20 f i CurPost.obj
 0001:00016f50       ?SetCurrentLayerDefault@CLayer@@UAEXI@Z 10017f50 f i CurPost.obj
 0001:00016f80       ??1CLayer@@UAE@XZ          10017f80 f i CurPost.obj
 0001:00016fb0       ??_GCLayer@@UAEPAXI@Z      10017fb0 f i CurPost.obj
 0001:00016ff0       ??_ECLayer@@UAEPAXI@Z      10017ff0 f i CurPost.obj
 0001:00017090       ?GetObjectType@CPatchMnu@@UAEHXZ 10018090 f i CurPost.obj
 0001:000170c0       ?SetObjectType@CPatchMnu@@UAEXH@Z 100180c0 f i CurPost.obj
 0001:000170f0       ?GetElemType@CPatchMnu@@UAEHXZ 100180f0 f i CurPost.obj
 0001:00017120       ?SetElemType@CPatchMnu@@UAEXH@Z 10018120 f i CurPost.obj
 0001:00017150       ?GetObjectNo@CPatchMnu@@UAEJXZ 10018150 f i CurPost.obj
 0001:00017180       ?SetObjectNo@CPatchMnu@@UAEXJ@Z 10018180 f i CurPost.obj
 0001:000171b0       ?GetCurrentPatchMnu@CPatchMnu@@UAEIXZ 100181b0 f i CurPost.obj
 0001:000171e0       ?SetCurrentPatchMnu@CPatchMnu@@UAEXI@Z 100181e0 f i CurPost.obj
 0001:00017210       ?GetCurrentPatchMnuOld@CPatchMnu@@UAEIXZ 10018210 f i CurPost.obj
 0001:00017240       ?SetCurrentPatchMnuOld@CPatchMnu@@UAEXI@Z 10018240 f i CurPost.obj
 0001:00017270       ?GetCurrentPatchMnuDefault@CPatchMnu@@UAEIXZ 10018270 f i CurPost.obj
 0001:000172a0       ?SetCurrentPatchMnuDefault@CPatchMnu@@UAEXI@Z 100182a0 f i CurPost.obj
 0001:000172d0       ?GetPatchMnuID@CPatchMnu@@UAE?AVCString@@I@Z 100182d0 f i CurPost.obj
 0001:00017320       ?SetPatchMnuID@CPatchMnu@@UAEXVCString@@I@Z 10018320 f i CurPost.obj
 0001:000173a0       ?GetCurrentID@CPatchMnu@@UAE?AVCString@@XZ 100183a0 f i CurPost.obj
 0001:000173f0       ?SetCurrentID@CPatchMnu@@UAEXVCString@@@Z 100183f0 f i CurPost.obj
 0001:00017470       ??1CPatchMnu@@UAE@XZ       10018470 f i CurPost.obj
 0001:00017530       ??_GCPatchMnu@@UAEPAXI@Z   10018530 f i CurPost.obj
 0001:00017570       ??_ECPatchMnu@@UAEPAXI@Z   10018570 f i CurPost.obj
 0001:00017610       ?GetObjectType@CObj3DMnu@@UAEHXZ 10018610 f i CurPost.obj
 0001:00017640       ?SetObjectType@CObj3DMnu@@UAEXH@Z 10018640 f i CurPost.obj
 0001:00017670       ?GetElemType@CObj3DMnu@@UAEHXZ 10018670 f i CurPost.obj
 0001:000176a0       ?SetElemType@CObj3DMnu@@UAEXH@Z 100186a0 f i CurPost.obj
 0001:000176d0       ?GetObjectNo@CObj3DMnu@@UAEJXZ 100186d0 f i CurPost.obj
 0001:00017700       ?SetObjectNo@CObj3DMnu@@UAEXJ@Z 10018700 f i CurPost.obj
 0001:00017730       ?GetCurrentObj3DMnu@CObj3DMnu@@UAEIXZ 10018730 f i CurPost.obj
 0001:00017760       ?SetCurrentObj3DMnu@CObj3DMnu@@UAEXI@Z 10018760 f i CurPost.obj
 0001:00017790       ?GetCurrentObj3DMnuOld@CObj3DMnu@@UAEIXZ 10018790 f i CurPost.obj
 0001:000177c0       ?SetCurrentObj3DMnuOld@CObj3DMnu@@UAEXI@Z 100187c0 f i CurPost.obj
 0001:000177f0       ?GetCurrentObj3DMnuDefault@CObj3DMnu@@UAEIXZ 100187f0 f i CurPost.obj
 0001:00017820       ?SetCurrentObj3DMnuDefault@CObj3DMnu@@UAEXI@Z 10018820 f i CurPost.obj
 0001:00017850       ?GetObj3DMnuID@CObj3DMnu@@UAE?AVCString@@I@Z 10018850 f i CurPost.obj
 0001:000178a0       ?SetObj3DMnuID@CObj3DMnu@@UAEXVCString@@I@Z 100188a0 f i CurPost.obj
 0001:00017920       ?GetCurrentID@CObj3DMnu@@UAE?AVCString@@XZ 10018920 f i CurPost.obj
 0001:00017970       ?SetCurrentID@CObj3DMnu@@UAEXVCString@@@Z 10018970 f i CurPost.obj
 0001:000179f0       ??1CObj3DMnu@@UAE@XZ       100189f0 f i CurPost.obj
 0001:00017ab0       ??_GCObj3DMnu@@UAEPAXI@Z   10018ab0 f i CurPost.obj
 0001:00017af0       ??_ECObj3DMnu@@UAEPAXI@Z   10018af0 f i CurPost.obj
 0001:00017b90       ?GetObjectType@CMapFactor@@UAEHXZ 10018b90 f i CurPost.obj
 0001:00017bc0       ?SetObjectType@CMapFactor@@UAEXH@Z 10018bc0 f i CurPost.obj
 0001:00017bf0       ?GetElemType@CMapFactor@@UAEHXZ 10018bf0 f i CurPost.obj
 0001:00017c20       ?SetElemType@CMapFactor@@UAEXH@Z 10018c20 f i CurPost.obj
 0001:00017c50       ?GetObjectNo@CMapFactor@@UAEJXZ 10018c50 f i CurPost.obj
 0001:00017c80       ?SetObjectNo@CMapFactor@@UAEXJ@Z 10018c80 f i CurPost.obj
 0001:00017cb0       ?GetMapFactor@CMapFactor@@UAENXZ 10018cb0 f i CurPost.obj
 0001:00017ce0       ?SetMapFactor@CMapFactor@@UAEXN@Z 10018ce0 f i CurPost.obj
 0001:00017d20       ?GetMapModeIndex@CMapFactor@@UAEHXZ 10018d20 f i CurPost.obj
 0001:00017d50       ?SetMapModeIndex@CMapFactor@@UAEXH@Z 10018d50 f i CurPost.obj
 0001:00017d80       ??1CMapFactor@@UAE@XZ      10018d80 f i CurPost.obj
 0001:00017db0       ??_GCMapFactor@@UAEPAXI@Z  10018db0 f i CurPost.obj
 0001:00017df0       ??_ECMapFactor@@UAEPAXI@Z  10018df0 f i CurPost.obj
 0001:00017e90       ?GetObjectType@CPrecision@@UAEHXZ 10018e90 f i CurPost.obj
 0001:00017ec0       ?SetObjectType@CPrecision@@UAEXH@Z 10018ec0 f i CurPost.obj
 0001:00017ef0       ?GetElemType@CPrecision@@UAEHXZ 10018ef0 f i CurPost.obj
 0001:00017f20       ?SetElemType@CPrecision@@UAEXH@Z 10018f20 f i CurPost.obj
 0001:00017f50       ?GetObjectNo@CPrecision@@UAEJXZ 10018f50 f i CurPost.obj
 0001:00017f80       ?SetObjectNo@CPrecision@@UAEXJ@Z 10018f80 f i CurPost.obj
 0001:00017fb0       ?GetPrecision@CPrecision@@UAEIXZ 10018fb0 f i CurPost.obj
 0001:00017fe0       ?SetPrecision@CPrecision@@UAEXI@Z 10018fe0 f i CurPost.obj
 0001:00018010       ?GetPrecisionOld@CPrecision@@UAEIXZ 10019010 f i CurPost.obj
 0001:00018040       ?SetPrecisionOld@CPrecision@@UAEXI@Z 10019040 f i CurPost.obj
 0001:00018070       ?GetPrecisionDefault@CPrecision@@UAEIXZ 10019070 f i CurPost.obj
 0001:000180a0       ?SetPrecisionDefault@CPrecision@@UAEXI@Z 100190a0 f i CurPost.obj
 0001:000180d0       ?GetWorldBase@CPrecision@@UAEJXZ 100190d0 f i CurPost.obj
 0001:00018100       ?SetWorldBase@CPrecision@@UAEXJ@Z 10019100 f i CurPost.obj
 0001:00018130       ?GetWorldBaseOld@CPrecision@@UAEJXZ 10019130 f i CurPost.obj
 0001:00018160       ?SetWorldBaseOld@CPrecision@@UAEXJ@Z 10019160 f i CurPost.obj
 0001:00018190       ?GetWorldBaseDefault@CPrecision@@UAEJXZ 10019190 f i CurPost.obj
 0001:000181c0       ?SetWorldBaseDefault@CPrecision@@UAEXJ@Z 100191c0 f i CurPost.obj
 0001:000181f0       ??1CPrecision@@UAE@XZ      100191f0 f i CurPost.obj
 0001:00018220       ??_GCPrecision@@UAEPAXI@Z  10019220 f i CurPost.obj
 0001:00018260       ??_ECPrecision@@UAEPAXI@Z  10019260 f i CurPost.obj
 0001:00018300       ?GetObjectType@CScaleFactor@@UAEHXZ 10019300 f i CurPost.obj
 0001:00018330       ?SetObjectType@CScaleFactor@@UAEXH@Z 10019330 f i CurPost.obj
 0001:00018360       ?GetElemType@CScaleFactor@@UAEHXZ 10019360 f i CurPost.obj
 0001:00018390       ?SetElemType@CScaleFactor@@UAEXH@Z 10019390 f i CurPost.obj
 0001:000183c0       ?GetObjectNo@CScaleFactor@@UAEJXZ 100193c0 f i CurPost.obj
 0001:000183f0       ?SetObjectNo@CScaleFactor@@UAEXJ@Z 100193f0 f i CurPost.obj
 0001:00018420       ?GetScaleFactor@CScaleFactor@@UAENXZ 10019420 f i CurPost.obj
 0001:00018450       ?SetScaleFactor@CScaleFactor@@UAEXN@Z 10019450 f i CurPost.obj
 0001:00018490       ?GetScaleFactorOld@CScaleFactor@@UAENXZ 10019490 f i CurPost.obj
 0001:000184c0       ?SetScaleFactorOld@CScaleFactor@@UAEXN@Z 100194c0 f i CurPost.obj
 0001:00018500       ?GetScaleFactorDefault@CScaleFactor@@UAENXZ 10019500 f i CurPost.obj
 0001:00018530       ?SetScaleFactorDefault@CScaleFactor@@UAEXN@Z 10019530 f i CurPost.obj
 0001:00018570       ??1CScaleFactor@@UAE@XZ    10019570 f i CurPost.obj
 0001:000185a0       ??_GCScaleFactor@@UAEPAXI@Z 100195a0 f i CurPost.obj
 0001:000185e0       ??_ECScaleFactor@@UAEPAXI@Z 100195e0 f i CurPost.obj
 0001:00018680       ?GetObjectType@CUnit@@UAEHXZ 10019680 f i CurPost.obj
 0001:000186b0       ?SetObjectType@CUnit@@UAEXH@Z 100196b0 f i CurPost.obj
 0001:000186e0       ?GetElemType@CUnit@@UAEHXZ 100196e0 f i CurPost.obj
 0001:00018710       ?SetElemType@CUnit@@UAEXH@Z 10019710 f i CurPost.obj
 0001:00018740       ?GetObjectNo@CUnit@@UAEJXZ 10019740 f i CurPost.obj
 0001:00018770       ?SetObjectNo@CUnit@@UAEXJ@Z 10019770 f i CurPost.obj
 0001:000187a0       ?GetUnitName@CUnit@@UAE?AVCString@@I@Z 100197a0 f i CurPost.obj
 0001:000187f0       ?GetUnitIndex@CUnit@@UAEIXZ 100197f0 f i CurPost.obj
 0001:00018820       ?SetUnitIndex@CUnit@@UAEXI@Z 10019820 f i CurPost.obj
 0001:00018850       ?GetUnitIndexOld@CUnit@@UAEIXZ 10019850 f i CurPost.obj
 0001:00018880       ?SetUnitIndexOld@CUnit@@UAEXI@Z 10019880 f i CurPost.obj
 0001:000188b0       ?GetUnitIndexDefault@CUnit@@UAEIXZ 100198b0 f i CurPost.obj
 0001:000188e0       ?SetUnitIndexDefault@CUnit@@UAEXI@Z 100198e0 f i CurPost.obj
 0001:00018910       ?GetUnitNameCount@CUnit@@UAEIXZ 10019910 f i CurPost.obj
 0001:00018940       ?SetUnitNameCount@CUnit@@UAEXI@Z 10019940 f i CurPost.obj
 0001:00018970       ??1CUnit@@UAE@XZ           10019970 f i CurPost.obj
 0001:00018a00       ??_GCUnit@@UAEPAXI@Z       10019a00 f i CurPost.obj
 0001:00018a40       ??_ECUnit@@UAEPAXI@Z       10019a40 f i CurPost.obj
 0001:00018ae0       ??1CDataRowHint@@UAE@XZ    10019ae0 f i CurPost.obj
 0001:00018b10       ?GetMapFactor@CObjectMgr@@UAEPAVCMapFactor@@XZ 10019b10 f i CurPost.obj
 0001:00018b40       ?GetPrecision@CObjectMgr@@UAEPAVCPrecision@@XZ 10019b40 f i CurPost.obj
 0001:00018b70       ?GetScaleFactor@CObjectMgr@@UAEPAVCScaleFactor@@XZ 10019b70 f i CurPost.obj
 0001:00018ba0       ?GetUnit@CObjectMgr@@UAEPAVCUnit@@XZ 10019ba0 f i CurPost.obj
 0001:00018bd0       ?GetObjectListFromIndex@CObjectMgr@@UAEPAVCDListMgr@@H@Z 10019bd0 f i CurPost.obj
 0001:00018c20       ?IsSceneChanged@CObjectMgr@@UAEHXZ 10019c20 f i CurPost.obj
 0001:00018c50       ?SetSceneChanged@CObjectMgr@@UAEXH@Z 10019c50 f i CurPost.obj
 0001:00018c80       ?IsViewChanged@CObjectMgr@@UAEHXZ 10019c80 f i CurPost.obj
 0001:00018cb0       ?SetViewChanged@CObjectMgr@@UAEXH@Z 10019cb0 f i CurPost.obj
 0001:00018ce0       ?GetMasterLastObjectNo@CObjectMgr@@UAEIXZ 10019ce0 f i CurPost.obj
 0001:00018d10       ?SetMasterLastObjectNo@CObjectMgr@@UAEXI@Z 10019d10 f i CurPost.obj
 0001:00018d40       ?GetActiveObjectNo@CObjectMgr@@UAEIXZ 10019d40 f i CurPost.obj
 0001:00018d70       ?SetActiveObjectNo@CObjectMgr@@UAEXI@Z 10019d70 f i CurPost.obj
 0001:00018da0       ?GetActiveListIndex@CObjectMgr@@UAEHXZ 10019da0 f i CurPost.obj
 0001:00018dd0       ?SetActiveListIndex@CObjectMgr@@UAEXH@Z 10019dd0 f i CurPost.obj
 0001:00018e00       ?GetActiveObjectIndex@CObjectMgr@@UAEHXZ 10019e00 f i CurPost.obj
 0001:00018e30       ?SetActiveObjectIndex@CObjectMgr@@UAEXH@Z 10019e30 f i CurPost.obj
 0001:00018e60       ?GetActiveObjectType@CObjectMgr@@UAEHXZ 10019e60 f i CurPost.obj
 0001:00018e90       ?SetActiveObjectType@CObjectMgr@@UAEXH@Z 10019e90 f i CurPost.obj
 0001:00018ec0       ?GetRowList@CObjectMgr@@QAEPAV?$CList@JJ@@XZ 10019ec0 f i CurPost.obj
 0001:00018ef0       ?GetRowCount@CObjectMgr@@QAEHXZ 10019ef0 f i CurPost.obj
 0001:00018f20       ?GetActiveRowIndex@CObjectMgr@@QAEHXZ 10019f20 f i CurPost.obj
 0001:00018f50       ?SetActiveRowIndex@CObjectMgr@@QAEXH@Z 10019f50 f i CurPost.obj
 0001:00018f80       ?GetFormat@CObjectMgr@@UAE?AVCString@@XZ 10019f80 f i CurPost.obj
 0001:00018fd0       ?IsMeshGenOn@CObjectMgr@@UAEHXZ 10019fd0 f i CurPost.obj
 0001:00019000       ?SetMeshGenOn@CObjectMgr@@UAEXH@Z 1001a000 f i CurPost.obj
 0001:00019030       ?GetMeshType@CObjectMgr@@UAEIXZ 1001a030 f i CurPost.obj
 0001:00019060       ?SetMeshType@CObjectMgr@@UAEXI@Z 1001a060 f i CurPost.obj
 0001:00019090       ?GetCurrentTopLevel@CObjectMgr@@UAEHXZ 1001a090 f i CurPost.obj
 0001:000190c0       ?SetCurrentTopLevel@CObjectMgr@@UAEXH@Z 1001a0c0 f i CurPost.obj
 0001:000190f0       ?GetObjectType@CElemInfo@@UAEHXZ 1001a0f0 f i CurPost.obj
 0001:00019120       ?SetObjectType@CElemInfo@@UAEXH@Z 1001a120 f i CurPost.obj
 0001:00019150       ?GetElemType@CElemInfo@@UAEHXZ 1001a150 f i CurPost.obj
 0001:00019180       ?SetElemType@CElemInfo@@UAEXH@Z 1001a180 f i CurPost.obj
 0001:000191b0       ?GetObjectNo@CElemInfo@@UAEJXZ 1001a1b0 f i CurPost.obj
 0001:000191e0       ?SetObjectNo@CElemInfo@@UAEXJ@Z 1001a1e0 f i CurPost.obj
 0001:00019210       ?GetInfoList@CElemInfo@@UAEPAVCDListMgr@@H@Z 1001a210 f i CurPost.obj
 0001:00019240       ??1CElemInfo@@UAE@XZ       1001a240 f i CurPost.obj
 0001:000192d0       ??_GCElemInfo@@UAEPAXI@Z   1001a2d0 f i CurPost.obj
 0001:00019310       ??_ECElemInfo@@UAEPAXI@Z   1001a310 f i CurPost.obj
 0001:000193b0       ??1CMeshRowHint@@UAE@XZ    1001a3b0 f i CurPost.obj
 0001:000193e0       ?GetRowList@CMsObjMgr@@QAEPAV?$CList@JJ@@XZ 1001a3e0 f i CurPost.obj
 0001:00019410       ?GetRowCount@CMsObjMgr@@QAEHXZ 1001a410 f i CurPost.obj
 0001:00019440       ?GetActiveRowIndex@CMsObjMgr@@QAEHXZ 1001a440 f i CurPost.obj
 0001:00019470       ?SetActiveRowIndex@CMsObjMgr@@QAEXH@Z 1001a470 f i CurPost.obj
 0001:000194a0       ??1CBaseRowHint@@UAE@XZ    1001a4a0 f i CurPost.obj
 0001:000194d0       ?GetCurrentItem@CDbObjMgr@@QAEAAVCString@@XZ 1001a4d0 f i CurPost.obj
 0001:000194f0       ?SetCurrentItem@CDbObjMgr@@QAEXAAVCString@@@Z 1001a4f0 f i CurPost.obj
 0001:00019520       ?GetCurrentParent@CDbObjMgr@@QAEAAVCString@@XZ 1001a520 f i CurPost.obj
 0001:00019540       ?SetCurrentParent@CDbObjMgr@@QAEXAAVCString@@@Z 1001a540 f i CurPost.obj
 0001:00019570       ??1CAxDataRowHint@@UAE@XZ  1001a570 f i CurPost.obj
 0001:000195a0       ?GetMapFactor@CAxObjMgr@@UAEPAVCMapFactor@@XZ 1001a5a0 f i CurPost.obj
 0001:000195d0       ?GetPrecision@CAxObjMgr@@UAEPAVCPrecision@@XZ 1001a5d0 f i CurPost.obj
 0001:00019600       ?GetScaleFactor@CAxObjMgr@@UAEPAVCScaleFactor@@XZ 1001a600 f i CurPost.obj
 0001:00019630       ?GetUnit@CAxObjMgr@@UAEPAVCUnit@@XZ 1001a630 f i CurPost.obj
 0001:00019660       ?GetObjectListFromIndex@CAxObjMgr@@UAEPAVCDListMgr@@H@Z 1001a660 f i CurPost.obj
 0001:000196b0       ?IsSceneChanged@CAxObjMgr@@UAEHXZ 1001a6b0 f i CurPost.obj
 0001:000196e0       ?SetSceneChanged@CAxObjMgr@@UAEXH@Z 1001a6e0 f i CurPost.obj
 0001:00019710       ?IsViewChanged@CAxObjMgr@@UAEHXZ 1001a710 f i CurPost.obj
 0001:00019740       ?SetViewChanged@CAxObjMgr@@UAEXH@Z 1001a740 f i CurPost.obj
 0001:00019770       ?GetMasterLastObjectNo@CAxObjMgr@@UAEIXZ 1001a770 f i CurPost.obj
 0001:000197a0       ?SetMasterLastObjectNo@CAxObjMgr@@UAEXI@Z 1001a7a0 f i CurPost.obj
 0001:000197d0       ?GetActiveObjectNo@CAxObjMgr@@UAEIXZ 1001a7d0 f i CurPost.obj
 0001:00019800       ?SetActiveObjectNo@CAxObjMgr@@UAEXI@Z 1001a800 f i CurPost.obj
 0001:00019830       ?GetActiveListIndex@CAxObjMgr@@UAEHXZ 1001a830 f i CurPost.obj
 0001:00019860       ?SetActiveListIndex@CAxObjMgr@@UAEXH@Z 1001a860 f i CurPost.obj
 0001:00019890       ?GetActiveObjectIndex@CAxObjMgr@@UAEHXZ 1001a890 f i CurPost.obj
 0001:000198c0       ?SetActiveObjectIndex@CAxObjMgr@@UAEXH@Z 1001a8c0 f i CurPost.obj
 0001:000198f0       ?GetActiveObjectType@CAxObjMgr@@UAEHXZ 1001a8f0 f i CurPost.obj
 0001:00019920       ?SetActiveObjectType@CAxObjMgr@@UAEXH@Z 1001a920 f i CurPost.obj
 0001:00019950       ?GetRowList@CAxObjMgr@@QAEPAV?$CList@JJ@@XZ 1001a950 f i CurPost.obj
 0001:00019980       ?GetRowCount@CAxObjMgr@@QAEHXZ 1001a980 f i CurPost.obj
 0001:000199b0       ?GetActiveRowIndex@CAxObjMgr@@QAEHXZ 1001a9b0 f i CurPost.obj
 0001:000199e0       ?SetActiveRowIndex@CAxObjMgr@@QAEXH@Z 1001a9e0 f i CurPost.obj
 0001:00019a10       ?GetFormat@CAxObjMgr@@UAE?AVCString@@XZ 1001aa10 f i CurPost.obj
 0001:00019a60       ?IsMeshGenOn@CAxObjMgr@@UAEHXZ 1001aa60 f i CurPost.obj
 0001:00019a90       ?SetMeshGenOn@CAxObjMgr@@UAEXH@Z 1001aa90 f i CurPost.obj
 0001:00019ac0       ?GetMeshType@CAxObjMgr@@UAEIXZ 1001aac0 f i CurPost.obj
 0001:00019af0       ?SetMeshType@CAxObjMgr@@UAEXI@Z 1001aaf0 f i CurPost.obj
 0001:00019b20       ?GetCurrentTopLevel@CAxObjMgr@@UAEHXZ 1001ab20 f i CurPost.obj
 0001:00019b50       ?SetCurrentTopLevel@CAxObjMgr@@UAEXH@Z 1001ab50 f i CurPost.obj
 0001:00019b80       ?Setid@CMI_GangN@@QAEXVCString@@@Z 1001ab80 f i CurPost.obj
 0001:00019bf0       ?FixMemD@CMI_GangN@@QAEPANJ@Z 1001abf0 f i CurPost.obj
 0001:00019c40       ?FreeMemD@CMI_GangN@@QAEXPAN@Z 1001ac40 f i CurPost.obj
 0001:00019c70       ?FixMem@CMI_GangN@@QAEPAUWORLD@@J@Z 1001ac70 f i CurPost.obj
 0001:00019cc0       ?FreeMem@CMI_GangN@@QAEXPAUWORLD@@@Z 1001acc0 f i CurPost.obj
 0001:00019d00       ?IsNoDefault@CMI_GangC@@QAEHXZ 1001ad00 f i CurPost.obj
 0001:00019d20       ?SetNoDefault@CMI_GangC@@QAEXH@Z 1001ad20 f i CurPost.obj
 0001:00019d50       ?IsAxisInput@CMI_GangC@@QAEHXZ 1001ad50 f i CurPost.obj
 0001:00019d80       ?SetAxisInput@CMI_GangC@@QAEXH@Z 1001ad80 f i CurPost.obj
 0001:00019db0       ?GetAxis@CMI_GangC@@QAEHXZ 1001adb0 f i CurPost.obj
 0001:00019de0       ?SetAxis@CMI_GangC@@QAEXH@Z 1001ade0 f i CurPost.obj
 0001:00019e10       ?IsNegative@CMI_GangC@@QAEHXZ 1001ae10 f i CurPost.obj
 0001:00019e40       ?SetNegative@CMI_GangC@@QAEXH@Z 1001ae40 f i CurPost.obj
 0001:00019e70       ?GetbBack@CMI_GangC@@QAEHXZ 1001ae70 f i CurPost.obj
 0001:00019ea0       ?SetbBack@CMI_GangC@@QAEXH@Z 1001aea0 f i CurPost.obj
 0001:00019ed0       ?GetBezierType@CMI_GangC@@QAE?AW4BEZIERTYPE@@XZ 1001aed0 f i CurPost.obj
 0001:00019ef0       ?SetBezierType@CMI_GangC@@QAEXW4BEZIERTYPE@@@Z 1001aef0 f i CurPost.obj
 0001:00019f20       ?Setid@CMI_Gang0@@QAEXVCString@@@Z 1001af20 f i CurPost.obj
 0001:00019f90       ?FixMemD@CMI_Gang0@@QAEPANJ@Z 1001af90 f i CurPost.obj
 0001:00019fe0       ?FreeMemD@CMI_Gang0@@QAEXPAN@Z 1001afe0 f i CurPost.obj
 0001:0001a010       ?FixMem@CMI_Gang0@@QAEPAUWORLD@@J@Z 1001b010 f i CurPost.obj
 0001:0001a060       ?FreeMem@CMI_Gang0@@QAEXPAUWORLD@@@Z 1001b060 f i CurPost.obj
 0001:0001a0a0       ?GetElNumID@CMI_Gang0@@QAEAAVCString@@XZ 1001b0a0 f i CurPost.obj
 0001:0001a0c0       ?SetElNumID@CMI_Gang0@@QAEXVCString@@@Z 1001b0c0 f i CurPost.obj
 0001:0001a130       ?GetElTypeID@CMI_Gang0@@QAEAAVCString@@XZ 1001b130 f i CurPost.obj
 0001:0001a150       ?SetElTypeID@CMI_Gang0@@QAEXVCString@@@Z 1001b150 f i CurPost.obj
 0001:0001a1c0       ?Getrid@CMI_Gang0@@QAEAAVCString@@XZ 1001b1c0 f i CurPost.obj
 0001:0001a1e0       ?Setrid@CMI_Gang0@@QAEXVCString@@@Z 1001b1e0 f i CurPost.obj
 0001:0001a250       ?Getpid@CMI_Gang0@@QAEAAVCString@@XZ 1001b250 f i CurPost.obj
 0001:0001a270       ?Setpid@CMI_Gang0@@QAEXVCString@@@Z 1001b270 f i CurPost.obj
 0001:0001a2e0       ?Getmid@CMI_Gang0@@QAEAAVCString@@XZ 1001b2e0 f i CurPost.obj
 0001:0001a300       ?Setmid@CMI_Gang0@@QAEXVCString@@@Z 1001b300 f i CurPost.obj
 0001:0001a370       ?GetElNum@CMI_Gang0@@QAEIXZ 1001b370 f i CurPost.obj
 0001:0001a390       ?SetElNum@CMI_Gang0@@QAEXI@Z 1001b390 f i CurPost.obj
 0001:0001a3c0       ?GetElTypeNum@CMI_Gang0@@QAEIXZ 1001b3c0 f i CurPost.obj
 0001:0001a3e0       ?SetElTypeNum@CMI_Gang0@@QAEXI@Z 1001b3e0 f i CurPost.obj
 0001:0001a410       ?Getrel@CMI_Gang0@@QAEIXZ  1001b410 f i CurPost.obj
 0001:0001a430       ?Setrel@CMI_Gang0@@QAEXI@Z 1001b430 f i CurPost.obj
 0001:0001a460       ?Getprop@CMI_Gang0@@QAEIXZ 1001b460 f i CurPost.obj
 0001:0001a490       ?Setprop@CMI_Gang0@@QAEXI@Z 1001b490 f i CurPost.obj
 0001:0001a4c0       ?Getmat@CMI_Gang0@@QAEIXZ  1001b4c0 f i CurPost.obj
 0001:0001a4f0       ?Setmat@CMI_Gang0@@QAEXI@Z 1001b4f0 f i CurPost.obj
 0001:0001a520       ?GetRefTemp@CMI_Gang0@@QAENXZ 1001b520 f i CurPost.obj
 0001:0001a550       ?SetRefTemp@CMI_Gang0@@QAEXN@Z 1001b550 f i CurPost.obj
 0001:0001a590       ?GetCardNo@CMI_Gang0@@QAEIXZ 1001b590 f i CurPost.obj
 0001:0001a5c0       ?SetCardNo@CMI_Gang0@@QAEXI@Z 1001b5c0 f i CurPost.obj
 0001:0001a5f0       ?Getline_id@CMI_Gang1@@QAEAAVCString@@XZ 1001b5f0 f i CurPost.obj
 0001:0001a620       ?Setline_id@CMI_Gang1@@QAEXVCString@@@Z 1001b620 f i CurPost.obj
 0001:0001a6a0       ?Getrid@CMI_Gang1@@QAEAAVCString@@H@Z 1001b6a0 f i CurPost.obj
 0001:0001a6d0       ?Setrid@CMI_Gang1@@QAEXVCString@@H@Z 1001b6d0 f i CurPost.obj
 0001:0001a750       ?Getline_no@CMI_Gang1@@QAEIXZ 1001b750 f i CurPost.obj
 0001:0001a780       ?Setline_no@CMI_Gang1@@QAEXI@Z 1001b780 f i CurPost.obj
 0001:0001a7b0       ?Getrel@CMI_Gang1@@QAEIH@Z 1001b7b0 f i CurPost.obj
 0001:0001a7e0       ?Setrel@CMI_Gang1@@QAEXIH@Z 1001b7e0 f i CurPost.obj
 0001:0001a810       ?Getnumseg@CMI_Gang1@@QAEIXZ 1001b810 f i CurPost.obj
 0001:0001a840       ?Setnumseg@CMI_Gang1@@QAEXI@Z 1001b840 f i CurPost.obj
 0001:0001a870       ?GetCenter@CMI_Gang1@@QAE?AUtagPOINT@@XZ 1001b870 f i CurPost.obj
 0001:0001a8b0       ?SetCenter@CMI_Gang1@@QAEXUtagPOINT@@@Z 1001b8b0 f i CurPost.obj
 0001:0001a8f0       ?IsOnBndry@CMI_Gang1@@QAEHXZ 1001b8f0 f i CurPost.obj
 0001:0001a920       ?SetOnBndry@CMI_Gang1@@QAEXH@Z 1001b920 f i CurPost.obj
 0001:0001a950       ?CreateObject@CCurPost@@SGPAVCObject@@XZ 1001b950 f   CurPost.obj
 0001:0001a9f0       ?_GetBaseClass@CCurPost@@KGPAUCRuntimeClass@@XZ 1001b9f0 f   CurPost.obj
 0001:0001aa10       ?GetRuntimeClass@CCurPost@@UBEPAUCRuntimeClass@@XZ 1001ba10 f   CurPost.obj
 0001:0001aa80       ??0AFX_CLASSINIT@@QAE@PAUCRuntimeClass@@@Z 1001ba80 f i CurPost.obj
 0001:0001aab0       ??5@YGAAVCArchive@@AAV0@AAPAVCCurPost@@@Z 1001bab0 f   CurPost.obj
 0001:0001aae0       ??0CCurPost@@QAE@XZ        1001bae0 f   CurPost.obj
 0001:0001ac80       ??_ECCurPost@@UAEPAXI@Z    1001bc80 f i CurPost.obj
 0001:0001ac80       ??_GCCurPost@@UAEPAXI@Z    1001bc80 f i CurPost.obj
 0001:0001acc0       ??1CCurPost@@UAE@XZ        1001bcc0 f   CurPost.obj
 0001:0001aea0       ?InitDlgIn_CUR@CCurPost@@QAEXXZ 1001bea0 f   CurPost.obj
 0001:0001af60       ?Init_CUR@CCurPost@@IAEXXZ 1001bf60 f   CurPost.obj
 0001:0001b0e0       ?GetDocument@CDrGrafApp@@QAEPAVCDrGrafDoc@@XZ 1001c0e0 f i CurPost.obj
 0001:0001b110       ?GetObjectMgr@CDrGrafDoc@@QAEPAVCObjectMgr@@XZ 1001c110 f i CurPost.obj
 0001:0001b140       ?GetMsObjMgr@CDrGrafDoc@@QAEPAVCMsObjMgr@@XZ 1001c140 f i CurPost.obj
 0001:0001b170       ?Terminate_CUR@CCurPost@@IAEXH@Z 1001c170 f   CurPost.obj
 0001:0001b1f0       ?ElementLeftDown_CUR@CCurPost@@IAEXXZ 1001c1f0 f   CurPost.obj
 0001:0001b250       ?ShowCurveToPost@CCurPost@@IAEHPAVCDrCurve@@H@Z 1001c250 f   CurPost.obj
 0001:0001b350       ?MarkCurve_Post@CCurPost@@IAEHPAVCDrCurve@@@Z 1001c350 f   CurPost.obj
 0001:0001b3c0       ?OnEBoxLButtonDown_CUR@CCurPost@@QAEXPAVCClientDC@@PAVCView@@W4GENERATE@@IVCPoint@@@Z 1001c3c0 f   CurPost.obj
 0001:0001b540       ?GetActiveObjectType@CDrGrafFrame@@QAEHXZ 1001c540 f i CurPost.obj
 0001:0001b570       ?GetActiveToolType@CDrGrafFrame@@QAEHXZ 1001c570 f i CurPost.obj
 0001:0001b5a0       ?UpdateDlg_TRUE_CUR@CCurPost@@IAEXXZ 1001c5a0 f   CurPost.obj
 0001:0001b720       ?GetPost1DDlg@CCurPost@@QAEPAVCDlg_FE1I@@XZ 1001c720 f i CurPost.obj
 0001:0001b750       ?UpdateDlg_FALSE_CUR@CCurPost@@IAEXXZ 1001c750 f   CurPost.obj
 0001:0001bae0       ?UpdateDlg_FALSE_CUR_0@CCurPost@@IAEXXZ 1001cae0 f   CurPost.obj
 0001:0001be30       ?SetText@CStatCntl@@QAEXAAVCString@@@Z 1001ce30 f i CurPost.obj
 0001:0001be60       ?GetCurrStat@CDrGrafFrame@@QAEPAVCStatCntl@@XZ 1001ce60 f i CurPost.obj
 0001:0001be90       ?UpdateDlg_FALSE_INODE@CCurPost@@IAEXXZ 1001ce90 f   CurPost.obj
 0001:0001bf60       ?UpdateDlg_FALSE_CNODE@CCurPost@@IAEXXZ 1001cf60 f   CurPost.obj
 0001:0001bfd0       ?UpdateDlg_FALSE_1D@CCurPost@@IAEXXZ 1001cfd0 f   CurPost.obj
 0001:0001c110       ?UpdateDlg_FALSE_TRUSS@CCurPost@@IAEXXZ 1001d110 f   CurPost.obj
 0001:0001c2f0       ?UpdateDlg_FALSE_BEAM@CCurPost@@IAEXXZ 1001d2f0 f   CurPost.obj
 0001:0001c590       ?UpdateDlg_FALSE_PIPE@CCurPost@@IAEXXZ 1001d590 f   CurPost.obj
 0001:0001c870       ?UpdateDlg_FALSE_ELBOW@CCurPost@@IAEXXZ 1001d870 f   CurPost.obj
 0001:0001cb30       ?LeftUp_CURVE@CCurPost@@IAEHVCPoint@@@Z 1001db30 f   CurPost.obj
 0001:0001d070       ?ElementLeftUp_CUR@CCurPost@@IAEXVCPoint@@@Z 1001e070 f   CurPost.obj
 0001:0001d730       ?GetCurrentIGenID@CDrGrafFrame@@QAEIXZ 1001e730 f i CurPost.obj
 0001:0001d760       ?OnEBoxLButtonUp_CUR@CCurPost@@QAEXPAVCClientDC@@PAVCView@@W4GENERATE@@IVCPoint@@@Z 1001e760 f   CurPost.obj
 0001:0001d820       ?Post_IorCNODE@CCurPost@@IAEHPAVCDrCurve@@H@Z 1001e820 f   CurPost.obj
 0001:0001d9f0       ?PrePost_Curve@CCurPost@@IAEHPAVCDrCurve@@PAVCObject@@H@Z 1001e9f0 f   CurPost.obj
 0001:0001da70       ?GenPost_Mesh_Vertices@CCurPost@@IAEHPAVCDrCurve@@HH@Z 1001ea70 f   CurPost.obj
 0001:0001db80       ?Pre_Common_1D@CCurPost@@IAEHPAVCDrCurve@@AAH@Z 1001eb80 f   CurPost.obj
 0001:0001dd20       ?Post_Common_1D@CCurPost@@IAEHPAVCDrCurve@@HH@Z 1001ed20 f   CurPost.obj
 0001:0001de60       ?FillData_Curve_0D@CCurPost@@IAEHPAVCObject@@@Z 1001ee60 f   CurPost.obj
 0001:0001de90       ?FillData_Curve_1D@CCurPost@@IAEHPAVCObject@@@Z 1001ee90 f   CurPost.obj
 0001:0001e0c0       ?OnEBoxMouseMove_CUR@CCurPost@@QAEXPAVCClientDC@@PAVCView@@W4GENERATE@@IVCPoint@@@Z 1001f0c0 f   CurPost.obj
 0001:0001e2b0       ?GetMouseMgr@CDrGrafFrame@@QAEPAVCMouseMgr@@XZ 1001f2b0 f i CurPost.obj
 0001:0001e2e0       ?OnEBoxRButtonDown_CUR@CCurPost@@QAEXPAVCClientDC@@PAVCView@@W4GENERATE@@IVCPoint@@@Z 1001f2e0 f   CurPost.obj
 0001:0001e400       ?OnEBoxRButtonUp_CUR@CCurPost@@QAEXPAVCClientDC@@PAVCView@@W4GENERATE@@IVCPoint@@@Z 1001f400 f   CurPost.obj
 0001:0001e820       ?RightUp_Premature_CUR@CCurPost@@IAEHXZ 1001f820 f   CurPost.obj
 0001:0001ea00       ?RightUp_NotAutoAccept_CUR@CCurPost@@IAEHXZ 1001fa00 f   CurPost.obj
 0001:0001ecd0       ??_GCString@@QAEPAXI@Z     1001fcd0 f i CurPost.obj
 0001:0001ed20       ?ShowInputInfo_INODE@CCurPost@@IAEHXZ 1001fd20 f   CurPost.obj
 0001:0001ee90       ?ShowInputInfo_CNODE@CCurPost@@IAEHXZ 1001fe90 f   CurPost.obj
 0001:0001f000       ?ShowInputInfo_TRUSS@CCurPost@@IAEHXZ 10020000 f   CurPost.obj
 0001:0001f200       ?ShowInputInfo_BEAM@CCurPost@@IAEHXZ 10020200 f   CurPost.obj
 0001:0001f4a0       ?ShowInputInfo_PIPE@CCurPost@@IAEHXZ 100204a0 f   CurPost.obj
 0001:0001f7a0       ?ShowInputInfo_ELBOW@CCurPost@@IAEHXZ 100207a0 f   CurPost.obj
 0001:0001fa70       ?ModeLessOff_CUR@CCurPost@@QAEXXZ 10020a70 f   CurPost.obj
 0001:0001fac0       ?ModeLessOn_CUR@CCurPost@@QAEXXZ 10020ac0 f   CurPost.obj
 0001:0001fb30       ?CreateorActivatePost_CUR@CCurPost@@QAEJIJ@Z 10020b30 f   CurPost.obj
 0001:0001fdb0       ?GoodByePost_CUR@CCurPost@@QAEJIJ@Z 10020db0 f   CurPost.obj
 0001:0001fe00       ?CancelPost_CUR@CCurPost@@QAEJIJ@Z 10020e00 f   CurPost.obj
 0001:0001fe50       ?UpdatePost_CUR@CCurPost@@QAEJIJ@Z 10020e50 f   CurPost.obj
 0001:0001ffb0       ?ReSetToolID_CUR@CCurPost@@QAEIIII@Z 10020fb0 f   CurPost.obj
 0001:000204e0       ?GetCurrentPostID@CDrGrafFrame@@QAEIXZ 100214e0 f i CurPost.obj
 0001:00020510       ?SetIGenBoxStatus@CDrGrafFrame@@QAEXH@Z 10021510 f i CurPost.obj
 0001:00020540       ?SetCntlBoxStatus@CDrGrafFrame@@QAEXH@Z 10021540 f i CurPost.obj
 0001:00020570       ?SetDrawBoxStatus@CDrGrafFrame@@QAEXH@Z 10021570 f i CurPost.obj
 0001:000205a0       ?SetstrCntlID@CDrGrafFrame@@QAEXAAVCString@@@Z 100215a0 f i CurPost.obj
 0001:000205d0       ?SetstrIGenID@CDrGrafFrame@@QAEXAAVCString@@@Z 100215d0 f i CurPost.obj
 0001:00020600       ?SetstrOperID@CDrGrafFrame@@QAEXAAVCString@@@Z 10021600 f i CurPost.obj
 0001:00020630       ?SetstrCurrID@CDrGrafFrame@@QAEXAAVCString@@@Z 10021630 f i CurPost.obj
 0001:00020660       ?Serialize@CCurPost@@UAEXAAVCArchive@@@Z 10021660 f   CurPost.obj
 0001:000206c0       ??1?$CList@HH@@UAE@XZ      100216c0 f i CurPost.obj
 0001:00020760       ?Serialize@?$CList@HH@@UAEXAAVCArchive@@@Z 10021760 f i CurPost.obj
 0001:00020880       ?Dump@?$CList@HH@@UBEXAAVCDumpContext@@@Z 10021880 f i CurPost.obj
 0001:00020940       ?AssertValid@?$CList@HH@@UBEXXZ 10021940 f i CurPost.obj
 0001:00020a40       ?GetCount@?$CList@JJ@@QBEHXZ 10021a40 f i CurPost.obj
 0001:00020a60       ??_E?$CList@HH@@UAEPAXI@Z  10021a60 f i CurPost.obj
 0001:00020a60       ??_G?$CList@HH@@UAEPAXI@Z  10021a60 f i CurPost.obj
 0001:00020aa0       ?AddTail@?$CList@HH@@QAEPAU__POSITION@@H@Z 10021aa0 f i CurPost.obj
 0001:00020b30       ?RemoveAll@?$CList@HH@@QAEXXZ 10021b30 f i CurPost.obj
 0001:00020be0       ?GetHeadPosition@?$CList@HH@@QBEPAU__POSITION@@XZ 10021be0 f i CurPost.obj
 0001:00020c00       ?GetNext@?$CList@HH@@QAEAAHAAPAU__POSITION@@@Z 10021c00 f i CurPost.obj
 0001:00020c70       ?SerializeElements@@YGXAAVCArchive@@PAHH@Z 10021c70 f i CurPost.obj
 0001:00020d10       ?DumpElements@@YGXAAVCDumpContext@@PBHH@Z 10021d10 f i CurPost.obj
 0001:00020d70       ?NewNode@?$CList@HH@@IAEPAUCNode@1@PAU21@0@Z 10021d70 f i CurPost.obj
 0001:00020ee0       ?DestructElements@@YGXPAHH@Z 10021ee0 f i CurPost.obj
 0001:00020f60       ?ConstructElements@@YGXPAHH@Z 10021f60 f i CurPost.obj
 0001:00021010       ??2@YAPAXIPAX@Z            10022010 f i CurPost.obj
 0001:00021030       ?CreateObject@CNodPost@@SGPAVCObject@@XZ 10022030 f   NodPost.obj
 0001:000210d0       ?_GetBaseClass@CNodPost@@KGPAUCRuntimeClass@@XZ 100220d0 f   NodPost.obj
 0001:000210f0       ?GetRuntimeClass@CNodPost@@UBEPAUCRuntimeClass@@XZ 100220f0 f   NodPost.obj
 0001:00021160       ??5@YGAAVCArchive@@AAV0@AAPAVCNodPost@@@Z 10022160 f   NodPost.obj
 0001:00021190       ??0CNodPost@@QAE@XZ        10022190 f   NodPost.obj
 0001:00021370       ??_GCNodPost@@UAEPAXI@Z    10022370 f i NodPost.obj
 0001:00021370       ??_ECNodPost@@UAEPAXI@Z    10022370 f i NodPost.obj
 0001:000213b0       ??1CNodPost@@UAE@XZ        100223b0 f   NodPost.obj
 0001:00021540       ?UpdateSceneView@CNodPost@@IAEHAAVCString@@I@Z 10022540 f   NodPost.obj
 0001:00021620       ?SizeRectDlgIn@CNodPost@@IAEXAAVCRect@@@Z 10022620 f   NodPost.obj
 0001:00021730       ?InitDlgIn_NOD@CNodPost@@QAEXXZ 10022730 f   NodPost.obj
 0001:000217f0       ?Init_NOD@CNodPost@@IAEXXZ 100227f0 f   NodPost.obj
 0001:00021920       ?Terminate_NOD@CNodPost@@IAEXH@Z 10022920 f   NodPost.obj
 0001:000219a0       ?ElementLeftDown_NOD@CNodPost@@IAEXXZ 100229a0 f   NodPost.obj
 0001:00021a00       ?ShowNodeToPost@CNodPost@@IAEHPAVCDrNode@@H@Z 10022a00 f   NodPost.obj
 0001:00021b00       ?Post_BALLJOINT@CNodPost@@IAEHPAVCDrNode@@@Z 10022b00 f   NodPost.obj
 0001:00021b40       ?OnEBoxLButtonDown_NOD@CNodPost@@QAEXPAVCClientDC@@PAVCView@@W4GENERATE@@IVCPoint@@@Z 10022b40 f   NodPost.obj
 0001:00021cc0       ?UpdateDlg_TRUE_NOD@CNodPost@@IAEXXZ 10022cc0 f   NodPost.obj
 0001:00021ce0       ?UpdateDlg_FALSE_NOD@CNodPost@@IAEXXZ 10022ce0 f   NodPost.obj
 0001:00021d20       ?UpdateDlg_FALSE_NOD_0@CNodPost@@IAEXXZ 10022d20 f   NodPost.obj
 0001:00021e70       ?UpdateDlg_FALSE_BALLJOINT@CNodPost@@IAEXXZ 10022e70 f   NodPost.obj
 0001:00021ed0       ?LeftUp_NODE@CNodPost@@IAEHVCPoint@@HH@Z 10022ed0 f   NodPost.obj
 0001:00022870       ?ElementLeftUp_NOD@CNodPost@@IAEXVCPoint@@@Z 10023870 f   NodPost.obj
 0001:000229f0       ?OnEBoxLButtonUp_NOD@CNodPost@@QAEXPAVCClientDC@@PAVCView@@W4GENERATE@@IVCPoint@@@Z 100239f0 f   NodPost.obj
 0001:00022ab0       ?OnEBoxMouseMove_NOD@CNodPost@@QAEXPAVCClientDC@@PAVCView@@W4GENERATE@@IVCPoint@@@Z 10023ab0 f   NodPost.obj
 0001:00022ca0       ?OnEBoxRButtonDown_NOD@CNodPost@@QAEXPAVCClientDC@@PAVCView@@W4GENERATE@@IVCPoint@@@Z 10023ca0 f   NodPost.obj
 0001:00022dc0       ?OnEBoxRButtonUp_NOD@CNodPost@@QAEXPAVCClientDC@@PAVCView@@W4GENERATE@@IVCPoint@@@Z 10023dc0 f   NodPost.obj
 0001:00023020       ?RightUp_Premature_NOD@CNodPost@@IAEHXZ 10024020 f   NodPost.obj
 0001:00023130       ?RightUp_NotAutoAccept_NOD@CNodPost@@IAEHXZ 10024130 f   NodPost.obj
 0001:00023300       ?ShowInputInfo_BALLJOINT@CNodPost@@IAEHXZ 10024300 f   NodPost.obj
 0001:00023470       ?ModeLessOff_NOD@CNodPost@@QAEXXZ 10024470 f   NodPost.obj
 0001:000234c0       ?GetPost0DDlg@CNodPost@@QAEPAVCDlg_FE0I@@XZ 100244c0 f i NodPost.obj
 0001:000234f0       ?ModeLessOn_NOD@CNodPost@@QAEXXZ 100244f0 f   NodPost.obj
 0001:00023560       ?CreateorActivatePost_NOD@CNodPost@@QAEJIJ@Z 10024560 f   NodPost.obj
 0001:00023720       ?GoodByePost_NOD@CNodPost@@QAEJIJ@Z 10024720 f   NodPost.obj
 0001:00023770       ?CancelPost_NOD@CNodPost@@QAEJIJ@Z 10024770 f   NodPost.obj
 0001:000237c0       ?UpdatePost_NOD@CNodPost@@QAEJIJ@Z 100247c0 f   NodPost.obj
 0001:00023830       ?ReSetToolID_NOD@CNodPost@@QAEIIII@Z 10024830 f   NodPost.obj
 0001:00023b90       ?Serialize@CNodPost@@UAEXAAVCArchive@@@Z 10024b90 f   NodPost.obj
 0001:00023bf0       ?Getrid@CMI_Gang2@@QAEAAVCString@@H@Z 10024bf0 f i PatPost.obj
 0001:00023c20       ?Setrid@CMI_Gang2@@QAEXVCString@@H@Z 10024c20 f i PatPost.obj
 0001:00023ca0       ?GetElDegree@CMI_Gang2@@QAE?AW4ELEM_DEGREE@@XZ 10024ca0 f i PatPost.obj
 0001:00023cd0       ?SetElDegree@CMI_Gang2@@QAEXAAW4ELEM_DEGREE@@@Z 10024cd0 f i PatPost.obj
 0001:00023d00       ?GetOrient@CMI_Gang2@@QAE?AW4ORIENT@@XZ 10024d00 f i PatPost.obj
 0001:00023d30       ?SetOrient@CMI_Gang2@@QAEXW4ORIENT@@@Z 10024d30 f i PatPost.obj
 0001:00023d60       ?GetThick@CMI_Gang2@@QAENXZ 10024d60 f i PatPost.obj
 0001:00023d90       ?SetThick@CMI_Gang2@@QAEXN@Z 10024d90 f i PatPost.obj
 0001:00023dd0       ?CreateObject@CPatPost@@SGPAVCObject@@XZ 10024dd0 f   PatPost.obj
 0001:00023e70       ?_GetBaseClass@CPatPost@@KGPAUCRuntimeClass@@XZ 10024e70 f   PatPost.obj
 0001:00023e90       ?GetRuntimeClass@CPatPost@@UBEPAUCRuntimeClass@@XZ 10024e90 f   PatPost.obj
 0001:00023f00       ??5@YGAAVCArchive@@AAV0@AAPAVCPatPost@@@Z 10024f00 f   PatPost.obj
 0001:00023f30       ??0CPatPost@@QAE@XZ        10024f30 f   PatPost.obj
 0001:00024030       ??_ECPatPost@@UAEPAXI@Z    10025030 f i PatPost.obj
 0001:00024030       ??_GCPatPost@@UAEPAXI@Z    10025030 f i PatPost.obj
 0001:00024070       ??1CPatPost@@UAE@XZ        10025070 f   PatPost.obj
 0001:00024240       ?GetCurrentCntlID@CDrGrafFrame@@QAEIXZ 10025240 f i PatPost.obj
 0001:00024270       ?InitDlgIn_PAT@CPatPost@@QAEXXZ 10025270 f   PatPost.obj
 0001:00024330       ?Init_PAT@CPatPost@@IAEXXZ 10025330 f   PatPost.obj
 0001:00024430       ?Terminate_PAT@CPatPost@@IAEXH@Z 10025430 f   PatPost.obj
 0001:000244b0       ?ElementLeftDown_PAT@CPatPost@@IAEXXZ 100254b0 f   PatPost.obj
 0001:00024510       ?ShowPatchToPost@CPatPost@@IAEHPAVCDrPatch@@H@Z 10025510 f   PatPost.obj
 0001:00024590       ?MarkPatch_Post@CPatPost@@IAEHPAVCDrPatch@@@Z 10025590 f   PatPost.obj
 0001:00024600       ?OnEBoxLButtonDown_PAT@CPatPost@@QAEXPAVCClientDC@@PAVCView@@W4GENERATE@@IVCPoint@@@Z 10025600 f   PatPost.obj
 0001:00024780       ?UpdateDlg_TRUE_PAT@CPatPost@@IAEXXZ 10025780 f   PatPost.obj
 0001:00024c80       ?GetPost2DDlg@CPatPost@@QAEPAVCDlg_FE2I@@XZ 10025c80 f i PatPost.obj
 0001:00024d10       ?UpdateDlg_FALSE_PAT@CPatPost@@IAEXXZ 10025d10 f   PatPost.obj
 0001:00025080       ?UpdateDlg_FALSE_PAT_0@CPatPost@@IAEXXZ 10026080 f   PatPost.obj
 0001:00025840       ?UpdateDlg_FALSE_TRI@CPatPost@@IAEXXZ 10026840 f   PatPost.obj
 0001:00025ae0       ?UpdateDlg_FALSE_QUAD@CPatPost@@IAEXXZ 10026ae0 f   PatPost.obj
 0001:00025de0       ?LeftUp_PATCH@CPatPost@@IAEHVCPoint@@@Z 10026de0 f   PatPost.obj
 0001:00026260       ?ElementLeftUp_PAT@CPatPost@@IAEXVCPoint@@@Z 10027260 f   PatPost.obj
 0001:00026bc0       ?FillDlgRefinementRules@CPatPost@@IAEXXZ 10027bc0 f   PatPost.obj
 0001:00026c60       ?OnEBoxLButtonUp_PAT@CPatPost@@QAEXPAVCClientDC@@PAVCView@@W4GENERATE@@IVCPoint@@@Z 10027c60 f   PatPost.obj
 0001:00026d20       ?Post_IorCNODE@CPatPost@@IAEHPAVCDrPatch@@H@Z 10027d20 f   PatPost.obj
 0001:00026f70       ?Post_CURVE@CPatPost@@IAEHPAVCDrPatch@@@Z 10027f70 f   PatPost.obj
 0001:00026fc0       ?GenPost_PatchEdges@CPatPost@@IAEHXZ 10027fc0 f   PatPost.obj
 0001:00027130       ?GenPost_PatchNodes@CPatPost@@IAEHPAVCDrPatch@@HH@Z 10028130 f   PatPost.obj
 0001:00027440       ?Pre_Common_2D@CPatPost@@IAEHPAVCDrPatch@@AAH@Z 10028440 f   PatPost.obj
 0001:000276b0       ?Post_Common_2D@CPatPost@@IAEHPAVCDrPatch@@HH@Z 100286b0 f   PatPost.obj
 0001:000277f0       ?PrePost_Patch@CPatPost@@IAEHPAVCDrPatch@@PAVCObject@@H@Z 100287f0 f   PatPost.obj
 0001:00027870       ?GenPost_Mesh_Vertices@CPatPost@@IAEHPAVCDrPatch@@HH@Z 10028870 f   PatPost.obj
 0001:00027a70       ??1CCalcTime@@UAE@XZ       10028a70 f i PatPost.obj
 0001:00027aa0       ??_GCCalcTime@@UAEPAXI@Z   10028aa0 f i PatPost.obj
 0001:00027aa0       ??_ECCalcTime@@UAEPAXI@Z   10028aa0 f i PatPost.obj
 0001:00027ae0       ?FillData_Patch_1D@CPatPost@@IAEHPAVCObject@@@Z 10028ae0 f   PatPost.obj
 0001:00027d10       ?FillData_Patch_2D@CPatPost@@IAEHPAVCObject@@@Z 10028d10 f   PatPost.obj
 0001:00027ff0       ?OnEBoxMouseMove_PAT@CPatPost@@QAEXPAVCClientDC@@PAVCView@@W4GENERATE@@IVCPoint@@@Z 10028ff0 f   PatPost.obj
 0001:000281e0       ?OnEBoxRButtonDown_PAT@CPatPost@@QAEXPAVCClientDC@@PAVCView@@W4GENERATE@@IVCPoint@@@Z 100291e0 f   PatPost.obj
 0001:00028300       ?OnEBoxRButtonUp_PAT@CPatPost@@QAEXPAVCClientDC@@PAVCView@@W4GENERATE@@IVCPoint@@@Z 10029300 f   PatPost.obj
 0001:00029050       ?RightUp_Premature_PAT@CPatPost@@IAEHXZ 1002a050 f   PatPost.obj
 0001:00029320       ?RightUp_NotAutoAccept_PAT@CPatPost@@IAEHXZ 1002a320 f   PatPost.obj
 0001:00029620       ?ShowInputInfo_QUADorTRI@CPatPost@@IAEHH@Z 1002a620 f   PatPost.obj
 0001:000299c0       ?ModeLessOff_PAT@CPatPost@@QAEXXZ 1002a9c0 f   PatPost.obj
 0001:00029a80       ?ModeLessOn_PAT@CPatPost@@QAEXXZ 1002aa80 f   PatPost.obj
 0001:00029af0       ?CreateorActivatePost_PAT@CPatPost@@QAEJIJ@Z 1002aaf0 f   PatPost.obj
 0001:00029f90       ?GoodByePost_PAT@CPatPost@@QAEJIJ@Z 1002af90 f   PatPost.obj
 0001:0002a030       ?CancelPost_PAT@CPatPost@@QAEJIJ@Z 1002b030 f   PatPost.obj
 0001:0002a0d0       ?UpdatePost_PAT@CPatPost@@QAEJIJ@Z 1002b0d0 f   PatPost.obj
 0001:0002a290       ?ReSetToolID_PAT@CPatPost@@QAEIIII@Z 1002b290 f   PatPost.obj
 0001:0002aa10       ?Serialize@CPatPost@@UAEXAAVCArchive@@@Z 1002ba10 f   PatPost.obj
 0001:0002aa70       _ExtRawDllMain@12          1002ba70 f   PmgrDll.obj
 0001:0002aaf0       _InitPMgrDLL@0             1002baf0 f   PmgrDll.obj
 0001:0002ab50       _DllMain@12                1002bb50 f   PmgrDll.obj
 0001:0002abd0       ??B?$CTypedSimpleList@PAUCRuntimeClass@@@@QAEPAUCRuntimeClass@@XZ 1002bbd0 f i PmgrDll.obj
 0001:0002ac00       ??B?$CTypedSimpleList@PAVCOleObjectFactory@@@@QAEPAVCOleObjectFactory@@XZ 1002bc00 f i PmgrDll.obj
 0001:0002ac30       ?GetHead@CSimpleList@@QBEPAXXZ 1002bc30 f i PmgrDll.obj
 0001:0002ac50       ?CreateObject@CPostMgr@@SGPAVCObject@@XZ 1002bc50 f   PostMgr.obj
 0001:0002ace0       ?_GetBaseClass@CPostMgr@@KGPAUCRuntimeClass@@XZ 1002bce0 f   PostMgr.obj
 0001:0002ad00       ?GetRuntimeClass@CPostMgr@@UBEPAUCRuntimeClass@@XZ 1002bd00 f   PostMgr.obj
 0001:0002ad70       ??5@YGAAVCArchive@@AAV0@AAPAVCPostMgr@@@Z 1002bd70 f   PostMgr.obj
 0001:0002ada0       ??0CPostMgr@@QAE@XZ        1002bda0 f   PostMgr.obj
 0001:0002afa0       ??_GCPostMgr@@UAEPAXI@Z    1002bfa0 f i PostMgr.obj
 0001:0002afa0       ??_ECPostMgr@@UAEPAXI@Z    1002bfa0 f i PostMgr.obj
 0001:0002afe0       ??1CPostMgr@@UAE@XZ        1002bfe0 f   PostMgr.obj
 0001:0002b0e0       ?InitDlgIn@CPostMgr@@QAEXXZ 1002c0e0 f   PostMgr.obj
 0001:0002b140       ?GetDLDMouse@CPostMgr@@QAEPAVCPatPost@@XZ 1002c140 f i PostMgr.obj
 0001:0002b160       ?SizeRectDlgIn@CPostMgr@@QAEXAAVCRect@@@Z 1002c160 f   PostMgr.obj
 0001:0002b270       ?ReSetToolID@CPostMgr@@QAEIIII@Z 1002c270 f   PostMgr.obj
 0001:0002b3f0       ?GetStatusMouseWIC@CPostMgr@@QAE?AULPOINT3@@XZ 1002c3f0 f   PostMgr.obj
 0001:0002b430       ?SetStatusMouseWIC@CPostMgr@@QAEXULPOINT3@@@Z 1002c430 f   PostMgr.obj
 0001:0002b480       ?SetViewCursor@CPostMgr@@QAEXH@Z 1002c480 f   PostMgr.obj
 0001:0002b5d0       ?Serialize@CPostMgr@@UAEXAAVCArchive@@@Z 1002c5d0 f   PostMgr.obj
 0001:0002b67e       ?SetElemInfoID@CMsObjMgr@@QAEHAAVCString@@I@Z 1002c67e f   OMgr_D32:OMgr_D32.dll
 0001:0002b684       ?GetSpecObject@CObjectMgr@@QAEPAVCDrObject@@H@Z 1002c684 f   OMgr_D32:OMgr_D32.dll
 0001:0002b68a       ?UpdateAllViewsWithActiveIndex@CObjectMgr@@QAEXPAVCView@@IH@Z 1002c68a f   OMgr_D32:OMgr_D32.dll
 0001:0002b690       ?UpdateAllViewsWithActiveIndex@CMsObjMgr@@QAEXPAVCView@@IH@Z 1002c690 f   OMgr_D32:OMgr_D32.dll
 0001:0002b696       ?ShowObject_On_Off@CObjectMgr@@QAEHPAVCDrObject@@IH@Z 1002c696 f   OMgr_D32:OMgr_D32.dll
 0001:0002b69c       ?GetRuntimeClass@CMatObj@@UBEPAUCRuntimeClass@@XZ 1002c69c f   Spec_d32:Spec_D32.dll
 0001:0002b6a2       ?SetScreen3DCorner@CDrObject@@UAEXPAUWORLD@@H@Z 1002c6a2 f   Spec_d32:Spec_D32.dll
 0001:0002b6a8       ?GetScreen3DCorner@CDrObject@@UAEXPAUWORLD@@H@Z 1002c6a8 f   Spec_d32:Spec_D32.dll
 0001:0002b6ae       ?SetEyeCorner@CDrObject@@UAEXPAUWORLD@@H@Z 1002c6ae f   Spec_d32:Spec_D32.dll
 0001:0002b6b4       ?GetEyeCorner@CDrObject@@UAEXPAUWORLD@@H@Z 1002c6b4 f   Spec_d32:Spec_D32.dll
 0001:0002b6ba       ?SetWorldCorner@CDrObject@@UAEXPAUWORLD@@H@Z 1002c6ba f   Spec_d32:Spec_D32.dll
 0001:0002b6c0       ?GetWorldCorner@CDrObject@@UAEXPAUWORLD@@H@Z 1002c6c0 f   Spec_d32:Spec_D32.dll
 0001:0002b6c6       ?SetLocalCorner@CDrObject@@UAEXPAUWORLD@@H@Z 1002c6c6 f   Spec_d32:Spec_D32.dll
 0001:0002b6cc       ?GetLocalCorner@CDrObject@@UAEXPAUWORLD@@H@Z 1002c6cc f   Spec_d32:Spec_D32.dll
 0001:0002b6d2       ??1CDrObject@@UAE@XZ       1002c6d2 f   Spec_d32:Spec_D32.dll
 0001:0002b6d8       ?InitBooleans@CBooleans@@UAEXXZ 1002c6d8 f   Spec_d32:Spec_D32.dll
 0001:0002b6de       ?ReadDefaultBooleans@CBooleans@@UAEXXZ 1002c6de f   Spec_d32:Spec_D32.dll
 0001:0002b6e4       ?ToggleZoom@CBooleans@@UAEHHH@Z 1002c6e4 f   Spec_d32:Spec_D32.dll
 0001:0002b6ea       ?IsZoomOn@CBooleans@@UAEHHH@Z 1002c6ea f   Spec_d32:Spec_D32.dll
 0001:0002b6f0       ?SetZoomEnabled@CBooleans@@UAEXHH@Z 1002c6f0 f   Spec_d32:Spec_D32.dll
 0001:0002b6f6       ?IsZoomEnabled@CBooleans@@UAEHH@Z 1002c6f6 f   Spec_d32:Spec_D32.dll
 0001:0002b6fc       ?SetObjectInfo@CBooleans@@UAEXPAVCDrObject@@@Z 1002c6fc f   Spec_d32:Spec_D32.dll
 0001:0002b702       ?GetObjectInfo@CBooleans@@UAEXPAVCDrObject@@@Z 1002c702 f   Spec_d32:Spec_D32.dll
 0001:0002b708       ?Pack_drPipe@CBooleans@@UAEXPAVCString@@@Z 1002c708 f   Spec_d32:Spec_D32.dll
 0001:0002b70e       ?DoDataView@CBooleans@@UAEXPAVCDC@@H@Z 1002c70e f   Spec_d32:Spec_D32.dll
 0001:0002b714       ?Serialize@CBooleans@@UAEXAAVCArchive@@@Z 1002c714 f   Spec_d32:Spec_D32.dll
 0001:0002b71a       ?GetRuntimeClass@CBooleans@@UBEPAUCRuntimeClass@@XZ 1002c71a f   Spec_d32:Spec_D32.dll
 0001:0002b720       ?InitDataWindow@CDataWindow@@UAEXXZ 1002c720 f   Spec_d32:Spec_D32.dll
 0001:0002b726       ?ReadDefaultDataWindow@CDataWindow@@UAEXXZ 1002c726 f   Spec_d32:Spec_D32.dll
 0001:0002b72c       ?SetWinExtWIC@CDataWindow@@UAEXXZ 1002c72c f   Spec_d32:Spec_D32.dll
 0001:0002b732       ?SetWinMinMaxWIC@CDataWindow@@UAEXULPOINT3@@@Z 1002c732 f   Spec_d32:Spec_D32.dll
 0001:0002b738       ?SetObjectInfo@CDataWindow@@UAEXPAVCDrObject@@@Z 1002c738 f   Spec_d32:Spec_D32.dll
 0001:0002b73e       ?GetObjectInfo@CDataWindow@@UAEXPAVCDrObject@@@Z 1002c73e f   Spec_d32:Spec_D32.dll
 0001:0002b744       ?Pack_drPipe@CDataWindow@@UAEXPAVCString@@@Z 1002c744 f   Spec_d32:Spec_D32.dll
 0001:0002b74a       ?DoDataView@CDataWindow@@UAEXPAVCDC@@H@Z 1002c74a f   Spec_d32:Spec_D32.dll
 0001:0002b750       ?Serialize@CDataWindow@@UAEXAAVCArchive@@@Z 1002c750 f   Spec_d32:Spec_D32.dll
 0001:0002b756       ?GetRuntimeClass@CDataWindow@@UBEPAUCRuntimeClass@@XZ 1002c756 f   Spec_d32:Spec_D32.dll
 0001:0002b75c       ?InitDrFont@CDrFont@@UAEXXZ 1002c75c f   Spec_d32:Spec_D32.dll
 0001:0002b762       ?ReadDefaultDrFont@CDrFont@@UAEXXZ 1002c762 f   Spec_d32:Spec_D32.dll
 0001:0002b768       ?DoTextFont@CDrFont@@UAEXXZ 1002c768 f   Spec_d32:Spec_D32.dll
 0001:0002b76e       ?SetObjectInfo@CDrFont@@UAEXPAVCDrObject@@@Z 1002c76e f   Spec_d32:Spec_D32.dll
 0001:0002b774       ?GetObjectInfo@CDrFont@@UAEXPAVCDrObject@@@Z 1002c774 f   Spec_d32:Spec_D32.dll
 0001:0002b77a       ?Pack_drPipe@CDrFont@@UAEXPAVCString@@@Z 1002c77a f   Spec_d32:Spec_D32.dll
 0001:0002b780       ?DoDataView@CDrFont@@UAEXPAVCDC@@H@Z 1002c780 f   Spec_d32:Spec_D32.dll
 0001:0002b786       ?Serialize@CDrFont@@UAEXAAVCArchive@@@Z 1002c786 f   Spec_d32:Spec_D32.dll
 0001:0002b78c       ?GetRuntimeClass@CDrFont@@UBEPAUCRuntimeClass@@XZ 1002c78c f   Spec_d32:Spec_D32.dll
 0001:0002b792       ?InitDrPen@CDrPen@@UAEXXZ  1002c792 f   Spec_d32:Spec_D32.dll
 0001:0002b798       ?ReadDefaultDrPen@CDrPen@@UAEXXZ 1002c798 f   Spec_d32:Spec_D32.dll
 0001:0002b79e       ?ReplacePen@CDrPen@@UAEXXZ 1002c79e f   Spec_d32:Spec_D32.dll
 0001:0002b7a4       ?SetObjectInfo@CDrPen@@UAEXPAVCDrObject@@@Z 1002c7a4 f   Spec_d32:Spec_D32.dll
 0001:0002b7aa       ?GetObjectInfo@CDrPen@@UAEXPAVCDrObject@@@Z 1002c7aa f   Spec_d32:Spec_D32.dll
 0001:0002b7b0       ?Pack_drPipe@CDrPen@@UAEXPAVCString@@@Z 1002c7b0 f   Spec_d32:Spec_D32.dll
 0001:0002b7b6       ?DoDataView@CDrPen@@UAEXPAVCDC@@H@Z 1002c7b6 f   Spec_d32:Spec_D32.dll
 0001:0002b7bc       ?Serialize@CDrPen@@UAEXAAVCArchive@@@Z 1002c7bc f   Spec_d32:Spec_D32.dll
 0001:0002b7c2       ?GetRuntimeClass@CDrPen@@UBEPAUCRuntimeClass@@XZ 1002c7c2 f   Spec_d32:Spec_D32.dll
 0001:0002b7c8       ?SetObjectInfo@CHitNet@@UAEXPAVCDrObject@@@Z 1002c7c8 f   Spec_d32:Spec_D32.dll
 0001:0002b7ce       ?GetObjectInfo@CHitNet@@UAEXPAVCDrObject@@@Z 1002c7ce f   Spec_d32:Spec_D32.dll
 0001:0002b7d4       ?Pack_drPipe@CHitNet@@UAEXPAVCString@@@Z 1002c7d4 f   Spec_d32:Spec_D32.dll
 0001:0002b7da       ?DoDataView@CHitNet@@UAEXPAVCDC@@H@Z 1002c7da f   Spec_d32:Spec_D32.dll
 0001:0002b7e0       ?Serialize@CHitNet@@UAEXAAVCArchive@@@Z 1002c7e0 f   Spec_d32:Spec_D32.dll
 0001:0002b7e6       ?GetRuntimeClass@CHitNet@@UBEPAUCRuntimeClass@@XZ 1002c7e6 f   Spec_d32:Spec_D32.dll
 0001:0002b7ec       ?InitLayer@CLayer@@UAEXXZ  1002c7ec f   Spec_d32:Spec_D32.dll
 0001:0002b7f2       ?ReadDefaultLayer@CLayer@@UAEXXZ 1002c7f2 f   Spec_d32:Spec_D32.dll
 0001:0002b7f8       ?SetLayerDefaultArray@CLayer@@UAEXQAY01I@Z 1002c7f8 f   Spec_d32:Spec_D32.dll
 0001:0002b7fe       ?GetLayerDefaultArray@CLayer@@UAEXQAY01I@Z 1002c7fe f   Spec_d32:Spec_D32.dll
 0001:0002b804       ?SetLayerOldArray@CLayer@@UAEXQAY01I@Z 1002c804 f   Spec_d32:Spec_D32.dll
 0001:0002b80a       ?GetLayerOldArray@CLayer@@UAEXQAY01I@Z 1002c80a f   Spec_d32:Spec_D32.dll
 0001:0002b810       ?SetLayerArray@CLayer@@UAEXQAY01I@Z 1002c810 f   Spec_d32:Spec_D32.dll
 0001:0002b816       ?GetLayerArray@CLayer@@UAEXQAY01I@Z 1002c816 f   Spec_d32:Spec_D32.dll
 0001:0002b81c       ?SetLayerInfo@CLayer@@UAEXII@Z 1002c81c f   Spec_d32:Spec_D32.dll
 0001:0002b822       ?GetLayerInfo@CLayer@@UAE?AVCString@@I@Z 1002c822 f   Spec_d32:Spec_D32.dll
 0001:0002b828       ?SetObjectInfo@CLayer@@UAEXPAVCDrObject@@@Z 1002c828 f   Spec_d32:Spec_D32.dll
 0001:0002b82e       ?GetObjectInfo@CLayer@@UAEXPAVCDrObject@@@Z 1002c82e f   Spec_d32:Spec_D32.dll
 0001:0002b834       ?Pack_drPipe@CLayer@@UAEXPAVCString@@@Z 1002c834 f   Spec_d32:Spec_D32.dll
 0001:0002b83a       ?DoDataView@CLayer@@UAEXPAVCDC@@H@Z 1002c83a f   Spec_d32:Spec_D32.dll
 0001:0002b840       ?Serialize@CLayer@@UAEXAAVCArchive@@@Z 1002c840 f   Spec_d32:Spec_D32.dll
 0001:0002b846       ?GetRuntimeClass@CLayer@@UBEPAUCRuntimeClass@@XZ 1002c846 f   Spec_d32:Spec_D32.dll
 0001:0002b84c       ?InitPatchMnu@CPatchMnu@@UAEXXZ 1002c84c f   Spec_d32:Spec_D32.dll
 0001:0002b852       ?ReadDefaultPatchMnu@CPatchMnu@@UAEXXZ 1002c852 f   Spec_d32:Spec_D32.dll
 0001:0002b858       ?SetPatchMnuDefaultArray@CPatchMnu@@UAEXQAY01I@Z 1002c858 f   Spec_d32:Spec_D32.dll
 0001:0002b85e       ?GetPatchMnuDefaultArray@CPatchMnu@@UAEXQAY01I@Z 1002c85e f   Spec_d32:Spec_D32.dll
 0001:0002b864       ?SetPatchMnuOldArray@CPatchMnu@@UAEXQAY01I@Z 1002c864 f   Spec_d32:Spec_D32.dll
 0001:0002b86a       ?GetPatchMnuOldArray@CPatchMnu@@UAEXQAY01I@Z 1002c86a f   Spec_d32:Spec_D32.dll
 0001:0002b870       ?SetPatchMnuArray@CPatchMnu@@UAEXQAY01I@Z 1002c870 f   Spec_d32:Spec_D32.dll
 0001:0002b876       ?GetPatchMnuArray@CPatchMnu@@UAEXQAY01I@Z 1002c876 f   Spec_d32:Spec_D32.dll
 0001:0002b87c       ?SetPatchMnuIDArray@CPatchMnu@@UAEXQAVCString@@@Z 1002c87c f   Spec_d32:Spec_D32.dll
 0001:0002b882       ?GetPatchMnuIDArray@CPatchMnu@@UAEXQAVCString@@@Z 1002c882 f   Spec_d32:Spec_D32.dll
 0001:0002b888       ?SetPatchMnuInfo@CPatchMnu@@UAEXII@Z 1002c888 f   Spec_d32:Spec_D32.dll
 0001:0002b88e       ?GetPatchMnuInfo@CPatchMnu@@UAE?AVCString@@I@Z 1002c88e f   Spec_d32:Spec_D32.dll
 0001:0002b894       ?SetObjectInfo@CPatchMnu@@UAEXPAVCDrObject@@@Z 1002c894 f   Spec_d32:Spec_D32.dll
 0001:0002b89a       ?GetObjectInfo@CPatchMnu@@UAEXPAVCDrObject@@@Z 1002c89a f   Spec_d32:Spec_D32.dll
 0001:0002b8a0       ?Pack_drPipe@CPatchMnu@@UAEXPAVCString@@@Z 1002c8a0 f   Spec_d32:Spec_D32.dll
 0001:0002b8a6       ?DoDataView@CPatchMnu@@UAEXPAVCDC@@H@Z 1002c8a6 f   Spec_d32:Spec_D32.dll
 0001:0002b8ac       ?Serialize@CPatchMnu@@UAEXAAVCArchive@@@Z 1002c8ac f   Spec_d32:Spec_D32.dll
 0001:0002b8b2       ?GetRuntimeClass@CPatchMnu@@UBEPAUCRuntimeClass@@XZ 1002c8b2 f   Spec_d32:Spec_D32.dll
 0001:0002b8b8       ?InitObj3DMnu@CObj3DMnu@@UAEXXZ 1002c8b8 f   Spec_d32:Spec_D32.dll
 0001:0002b8be       ?ReadDefaultObj3DMnu@CObj3DMnu@@UAEXXZ 1002c8be f   Spec_d32:Spec_D32.dll
 0001:0002b8c4       ?SetObj3DMnuDefaultArray@CObj3DMnu@@UAEXQAY01I@Z 1002c8c4 f   Spec_d32:Spec_D32.dll
 0001:0002b8ca       ?GetObj3DMnuDefaultArray@CObj3DMnu@@UAEXQAY01I@Z 1002c8ca f   Spec_d32:Spec_D32.dll
 0001:0002b8d0       ?SetObj3DMnuOldArray@CObj3DMnu@@UAEXQAY01I@Z 1002c8d0 f   Spec_d32:Spec_D32.dll
 0001:0002b8d6       ?GetObj3DMnuOldArray@CObj3DMnu@@UAEXQAY01I@Z 1002c8d6 f   Spec_d32:Spec_D32.dll
 0001:0002b8dc       ?SetObj3DMnuArray@CObj3DMnu@@UAEXQAY01I@Z 1002c8dc f   Spec_d32:Spec_D32.dll
 0001:0002b8e2       ?GetObj3DMnuArray@CObj3DMnu@@UAEXQAY01I@Z 1002c8e2 f   Spec_d32:Spec_D32.dll
 0001:0002b8e8       ?SetObj3DMnuIDArray@CObj3DMnu@@UAEXQAVCString@@@Z 1002c8e8 f   Spec_d32:Spec_D32.dll
 0001:0002b8ee       ?GetObj3DMnuIDArray@CObj3DMnu@@UAEXQAVCString@@@Z 1002c8ee f   Spec_d32:Spec_D32.dll
 0001:0002b8f4       ?SetObj3DMnuInfo@CObj3DMnu@@UAEXII@Z 1002c8f4 f   Spec_d32:Spec_D32.dll
 0001:0002b8fa       ?GetObj3DMnuInfo@CObj3DMnu@@UAE?AVCString@@I@Z 1002c8fa f   Spec_d32:Spec_D32.dll
 0001:0002b900       ?SetObjectInfo@CObj3DMnu@@UAEXPAVCDrObject@@@Z 1002c900 f   Spec_d32:Spec_D32.dll
 0001:0002b906       ?GetObjectInfo@CObj3DMnu@@UAEXPAVCDrObject@@@Z 1002c906 f   Spec_d32:Spec_D32.dll
 0001:0002b90c       ?Pack_drPipe@CObj3DMnu@@UAEXPAVCString@@@Z 1002c90c f   Spec_d32:Spec_D32.dll
 0001:0002b912       ?DoDataView@CObj3DMnu@@UAEXPAVCDC@@H@Z 1002c912 f   Spec_d32:Spec_D32.dll
 0001:0002b918       ?Serialize@CObj3DMnu@@UAEXAAVCArchive@@@Z 1002c918 f   Spec_d32:Spec_D32.dll
 0001:0002b91e       ?GetRuntimeClass@CObj3DMnu@@UBEPAUCRuntimeClass@@XZ 1002c91e f   Spec_d32:Spec_D32.dll
 0001:0002b924       ?InitMapFactor@CMapFactor@@UAEXXZ 1002c924 f   Spec_d32:Spec_D32.dll
 0001:0002b92a       ?ReadDefaultMapFactor@CMapFactor@@UAEXXZ 1002c92a f   Spec_d32:Spec_D32.dll
 0001:0002b930       ?SetObjectInfo@CMapFactor@@UAEXPAVCDrObject@@@Z 1002c930 f   Spec_d32:Spec_D32.dll
 0001:0002b936       ?GetObjectInfo@CMapFactor@@UAEXPAVCDrObject@@@Z 1002c936 f   Spec_d32:Spec_D32.dll
 0001:0002b93c       ?Pack_drPipe@CMapFactor@@UAEXPAVCString@@@Z 1002c93c f   Spec_d32:Spec_D32.dll
 0001:0002b942       ?DoDataView@CMapFactor@@UAEXPAVCDC@@H@Z 1002c942 f   Spec_d32:Spec_D32.dll
 0001:0002b948       ?Serialize@CMapFactor@@UAEXAAVCArchive@@@Z 1002c948 f   Spec_d32:Spec_D32.dll
 0001:0002b94e       ?GetRuntimeClass@CMapFactor@@UBEPAUCRuntimeClass@@XZ 1002c94e f   Spec_d32:Spec_D32.dll
 0001:0002b954       ?InitPrecision@CPrecision@@UAEXXZ 1002c954 f   Spec_d32:Spec_D32.dll
 0001:0002b95a       ?ReadDefaultPrecision@CPrecision@@UAEXXZ 1002c95a f   Spec_d32:Spec_D32.dll
 0001:0002b960       ?SetObjectInfo@CPrecision@@UAEXPAVCDrObject@@@Z 1002c960 f   Spec_d32:Spec_D32.dll
 0001:0002b966       ?GetObjectInfo@CPrecision@@UAEXPAVCDrObject@@@Z 1002c966 f   Spec_d32:Spec_D32.dll
 0001:0002b96c       ?Pack_drPipe@CPrecision@@UAEXPAVCString@@@Z 1002c96c f   Spec_d32:Spec_D32.dll
 0001:0002b972       ?DoDataView@CPrecision@@UAEXPAVCDC@@H@Z 1002c972 f   Spec_d32:Spec_D32.dll
 0001:0002b978       ?Serialize@CPrecision@@UAEXAAVCArchive@@@Z 1002c978 f   Spec_d32:Spec_D32.dll
 0001:0002b97e       ?GetRuntimeClass@CPrecision@@UBEPAUCRuntimeClass@@XZ 1002c97e f   Spec_d32:Spec_D32.dll
 0001:0002b984       ?InitScaleFactor@CScaleFactor@@UAEXXZ 1002c984 f   Spec_d32:Spec_D32.dll
 0001:0002b98a       ?ReadDefaultScaleFactor@CScaleFactor@@UAEXXZ 1002c98a f   Spec_d32:Spec_D32.dll
 0001:0002b990       ?SetObjectInfo@CScaleFactor@@UAEXPAVCDrObject@@@Z 1002c990 f   Spec_d32:Spec_D32.dll
 0001:0002b996       ?GetObjectInfo@CScaleFactor@@UAEXPAVCDrObject@@@Z 1002c996 f   Spec_d32:Spec_D32.dll
 0001:0002b99c       ?Pack_drPipe@CScaleFactor@@UAEXPAVCString@@@Z 1002c99c f   Spec_d32:Spec_D32.dll
 0001:0002b9a2       ?DoDataView@CScaleFactor@@UAEXPAVCDC@@H@Z 1002c9a2 f   Spec_d32:Spec_D32.dll
 0001:0002b9a8       ?Serialize@CScaleFactor@@UAEXAAVCArchive@@@Z 1002c9a8 f   Spec_d32:Spec_D32.dll
 0001:0002b9ae       ?GetRuntimeClass@CScaleFactor@@UBEPAUCRuntimeClass@@XZ 1002c9ae f   Spec_d32:Spec_D32.dll
 0001:0002b9b4       ?InitUnit@CUnit@@UAEXXZ    1002c9b4 f   Spec_d32:Spec_D32.dll
 0001:0002b9ba       ?ReadDefaultUnit@CUnit@@UAEXXZ 1002c9ba f   Spec_d32:Spec_D32.dll
 0001:0002b9c0       ?SetObjectInfo@CUnit@@UAEXPAVCDrObject@@@Z 1002c9c0 f   Spec_d32:Spec_D32.dll
 0001:0002b9c6       ?GetObjectInfo@CUnit@@UAEXPAVCDrObject@@@Z 1002c9c6 f   Spec_d32:Spec_D32.dll
 0001:0002b9cc       ?Pack_drPipe@CUnit@@UAEXPAVCString@@@Z 1002c9cc f   Spec_d32:Spec_D32.dll
 0001:0002b9d2       ?DoDataView@CUnit@@UAEXPAVCDC@@H@Z 1002c9d2 f   Spec_d32:Spec_D32.dll
 0001:0002b9d8       ?Serialize@CUnit@@UAEXAAVCArchive@@@Z 1002c9d8 f   Spec_d32:Spec_D32.dll
 0001:0002b9de       ?GetRuntimeClass@CUnit@@UBEPAUCRuntimeClass@@XZ 1002c9de f   Spec_d32:Spec_D32.dll
 0001:0002b9e4       ??1CDListMgr@@UAE@XZ       1002c9e4 f   Spec_d32:Spec_D32.dll
 0001:0002b9ea       ?GetObjectIndex@CDListMgr@@QAEHIVCString@@@Z 1002c9ea f   Spec_d32:Spec_D32.dll
 0001:0002b9f0       ?GetObjectA@CDListMgr@@QAEPAVCObject@@H@Z 1002c9f0 f   Spec_d32:Spec_D32.dll
 0001:0002b9f6       ?InsertObject@CDListMgr@@QAEHPAVCObject@@@Z 1002c9f6 f   Spec_d32:Spec_D32.dll
 0001:0002b9fc       ?SetCorner@CDrLabel@@UAEXUtagPOINT@@H@Z 1002c9fc f   Draw_D32:Draw_D32.dll
 0001:0002ba02       ?GetCorner@CDrLabel@@UAE?AUtagPOINT@@H@Z 1002ca02 f   Draw_D32:Draw_D32.dll
 0001:0002ba08       ?GetObjectInfo@CDrLabel@@UAEXPAVCDrObject@@@Z 1002ca08 f   Draw_D32:Draw_D32.dll
 0001:0002ba0e       ?SetObjectInfo@CDrLabel@@UAEXPAVCDrObject@@@Z 1002ca0e f   Draw_D32:Draw_D32.dll
 0001:0002ba14       ?Pack_drPipe@CDrLabel@@UAEXPAVCString@@@Z 1002ca14 f   Draw_D32:Draw_D32.dll
 0001:0002ba1a       ?IsKeyMatch@CDrLabel@@UAEHPAVCDrObject@@VCString@@I@Z 1002ca1a f   Draw_D32:Draw_D32.dll
 0001:0002ba20       ?IsObjectHit@CDrLabel@@UAEHPAVCClientDC@@HUtagPOINT@@PAVCRect@@H@Z 1002ca20 f   Draw_D32:Draw_D32.dll
 0001:0002ba26       ?GetRawCoords@CDrLabel@@UAEXPAJPAHH@Z 1002ca26 f   Draw_D32:Draw_D32.dll
 0001:0002ba2c       ?FinishObject@CDrLabel@@UAEXPAVCClientDC@@H@Z 1002ca2c f   Draw_D32:Draw_D32.dll
 0001:0002ba32       ?DealObjectDialog@CDrLabel@@UAEHXZ 1002ca32 f   Draw_D32:Draw_D32.dll
 0001:0002ba38       ?DoDrawView@CDrLabel@@UAEXPAVCDC@@HH@Z 1002ca38 f   Draw_D32:Draw_D32.dll
 0001:0002ba3e       ?Corner_3Dto2D@CDrLabel@@UAEXXZ 1002ca3e f   Draw_D32:Draw_D32.dll
 0001:0002ba44       ?InitDraw@CDrLabel@@UAEXPAVCDC@@HHPAUMATRIX@@1NNN@Z 1002ca44 f   Draw_D32:Draw_D32.dll
 0001:0002ba4a       ?DoDataView@CDrLabel@@UAEXPAVCDC@@H@Z 1002ca4a f   Draw_D32:Draw_D32.dll
 0001:0002ba50       ?Serialize@CDrLabel@@UAEXAAVCArchive@@@Z 1002ca50 f   Draw_D32:Draw_D32.dll
 0001:0002ba56       ?GetRuntimeClass@CDrLabel@@UBEPAUCRuntimeClass@@XZ 1002ca56 f   Draw_D32:Draw_D32.dll
 0001:0002ba5c       ?Init@CElemInfo@@UAEXXZ    1002ca5c f   Elem_D32:Elem_D32.dll
 0001:0002ba62       ?ReadDefault@CElemInfo@@UAEXXZ 1002ca62 f   Elem_D32:Elem_D32.dll
 0001:0002ba68       ?SetObjectInfo@CElemInfo@@UAEXPAVCDrObject@@@Z 1002ca68 f   Elem_D32:Elem_D32.dll
 0001:0002ba6e       ?GetObjectInfo@CElemInfo@@UAEXPAVCDrObject@@@Z 1002ca6e f   Elem_D32:Elem_D32.dll
 0001:0002ba74       ?Pack_drPipe@CElemInfo@@UAEXPAVCString@@@Z 1002ca74 f   Elem_D32:Elem_D32.dll
 0001:0002ba7a       ?DoDataView@CElemInfo@@UAEXPAVCDC@@H@Z 1002ca7a f   Elem_D32:Elem_D32.dll
 0001:0002ba80       ?Serialize@CElemInfo@@UAEXAAVCArchive@@@Z 1002ca80 f   Elem_D32:Elem_D32.dll
 0001:0002ba86       ?GetRuntimeClass@CElemInfo@@UBEPAUCRuntimeClass@@XZ 1002ca86 f   Elem_D32:Elem_D32.dll
 0001:0002ba8c       ?GetRuntimeClass@CTriangle@@UBEPAUCRuntimeClass@@XZ 1002ca8c f   OGen_D32:OGEN_D32.dll
 0001:0002ba92       ??0CDlg_FE1I@@QAE@PAVCWnd@@@Z 1002ca92 f   EDlg_D32:EDlg_D32.dll
 0001:0002ba98       ?Create@CDlg_FE1I@@QAEHXZ  1002ca98 f   EDlg_D32:EDlg_D32.dll
 0001:0002ba9e       ??0CDlg_FE0I@@QAE@PAVCWnd@@@Z 1002ca9e f   EDlg_D32:EDlg_D32.dll
 0001:0002baa4       ?Create@CDlg_FE0I@@QAEHXZ  1002caa4 f   EDlg_D32:EDlg_D32.dll
 0001:0002baaa       ??0CDlg_FE2I@@QAE@PAVCWnd@@@Z 1002caaa f   EDlg_D32:EDlg_D32.dll
 0001:0002bab0       ?FillRefRule@CDlg_FE2I@@QAEXXZ 1002cab0 f   EDlg_D32:EDlg_D32.dll
 0001:0002bab6       ?Create@CDlg_FE2I@@QAEHXZ  1002cab6 f   EDlg_D32:EDlg_D32.dll
 0001:0002babc       ?Serialize@C3DMath@@UAEXAAVCArchive@@@Z 1002cabc f   Dr3D_D32:Dr3D_D32.dll
 0001:0002bac2       ?GetRuntimeClass@C3DMath@@UBEPAUCRuntimeClass@@XZ 1002cac2 f   Dr3D_D32:Dr3D_D32.dll
 0001:0002bac8       ?BlockCopy@C3DMath@@QAEXPAD0K@Z 1002cac8 f   Dr3D_D32:Dr3D_D32.dll
 0001:0002bace       ??0C3DMath@@QAE@XZ         1002cace f   Dr3D_D32:Dr3D_D32.dll
 0001:0002bad4       ??1CMI_GangC@@UAE@XZ       1002cad4 f   MCur_D32:MCur_D32.dll
 0001:0002bada       ?FillMeshNodesCurve@CMI_GangC@@QAEHPAVCDrCurve@@PAUWORLD@@PANH@Z 1002cada f   MCur_D32:MCur_D32.dll
 0001:0002bae0       ??0CMI_GangC@@QAE@XZ       1002cae0 f   MCur_D32:MCur_D32.dll
 0001:0002bae6       ??1CMI_GangP@@UAE@XZ       1002cae6 f   MPat_D32:MPat_D32.dll
 0001:0002baec       ?FillMeshNodesPatch@CMI_GangP@@QAEHPAVCDrPatch@@PAUWORLD@@PAN@Z 1002caec f   MPat_D32:MPat_D32.dll
 0001:0002baf2       ??0CMI_GangP@@QAE@XZ       1002caf2 f   MPat_D32:MPat_D32.dll
 0001:0002baf8       ?IsObjectHit@CMouse@@IAEHHUtagPOINT@@H@Z 1002caf8 f   MMgr_D32:MMgr_D32.dll
 0001:0002bafe       ?WORtoWOP@CMouse@@QAEXPAN0@Z 1002cafe f   MMgr_D32:MMgr_D32.dll
 0001:0002bb04       ?SetStatusMouseWIC@CMouseMgr@@QAEXULPOINT3@@@Z 1002cb04 f   MMgr_D32:MMgr_D32.dll
 0001:0002bb0a       ?SetMouseWIC@CMouse@@QAEXULPOINT3@@@Z 1002cb0a f   MMgr_D32:MMgr_D32.dll
 0001:0002bb10       ?LOGtoWIC2@CMouse@@IAEXPAULPOINT3@@PAULPOINT@@0@Z 1002cb10 f   MMgr_D32:MMgr_D32.dll
 0001:0002bb16       ?SetMouseOldWIC@CMouse@@QAEXULPOINT3@@@Z 1002cb16 f   MMgr_D32:MMgr_D32.dll
 0001:0002bb1c       ?classCMouse@CMouse@@2UCRuntimeClass@@A 1002cb1c f   MMgr_D32:MMgr_D32.dll
 0001:0002bb22       ??1CMouse@@UAE@XZ          1002cb22 f   MMgr_D32:MMgr_D32.dll
 0001:0002bb28       ??0CMouse@@QAE@XZ          1002cb28 f   MMgr_D32:MMgr_D32.dll
 0001:0002bb2e       ?WORtoWOP@CMouse@@QAEXPAUWORLD@@0@Z 1002cb2e f   MMgr_D32:MMgr_D32.dll
 0001:0002bb34       ?Serialize@CMouse@@UAEXAAVCArchive@@@Z 1002cb34 f   MMgr_D32:MMgr_D32.dll
 0001:0002bb3a       ?OutDuration@CCalcTime@@QAEXAAVCString@@@Z 1002cb3a f   MMgr_D32:MMgr_D32.dll
 0001:0002bb40       ?OutComment@CCalcTime@@QAEXAAVCString@@@Z 1002cb40 f   MMgr_D32:MMgr_D32.dll
 0001:0002bb46       ?StopClock@CCalcTime@@QAEXXZ 1002cb46 f   MMgr_D32:MMgr_D32.dll
 0001:0002bb4c       ?StartClock@CCalcTime@@QAEXXZ 1002cb4c f   MMgr_D32:MMgr_D32.dll
 0001:0002bb52       ??0CCalcTime@@QAE@XZ       1002cb52 f   MMgr_D32:MMgr_D32.dll
 0001:0002bb58       ?GetRuntimeClass@CCalcTime@@UBEPAUCRuntimeClass@@XZ 1002cb58 f   MMgr_D32:MMgr_D32.dll
 0001:0002bb5e       ??1CMI_Gang1@@UAE@XZ       1002cb5e f   MMs1_D32:MMs1_D32.dll
 0001:0002bb64       ?ShowCurveInfo@CMI_Gang1@@QAEHPAVCDrCurve@@@Z 1002cb64 f   MMs1_D32:MMs1_D32.dll
 0001:0002bb6a       ??0CMI_Gang1@@QAE@XZ       1002cb6a f   MMs1_D32:MMs1_D32.dll
 0001:0002bb70       ?Post_CurveNodes_IorC@CMI_Gang1@@QAEHPAVCDrCurve@@PAUWORLD@@HH@Z 1002cb70 f   MMs1_D32:MMs1_D32.dll
 0001:0002bb76       ?GenPost_CurveNodes@CMI_Gang1@@QAEHPAVCDrMesh1D@@PAVCDrCurve@@HH@Z 1002cb76 f   MMs1_D32:MMs1_D32.dll
 0001:0002bb7c       ?Post_Curve_Elements@CMI_Gang1@@QAEHPAVCDrObject@@0II@Z 1002cb7c f   MMs1_D32:MMs1_D32.dll
 0001:0002bb82       ??1CMI_Tang2@@UAE@XZ       1002cb82 f   MMs2_D32:MMs2_D32.dll
 0001:0002bb88       ?ShowPatchInfo@CMI_Gang2@@QAEHPAVCDrPatch@@@Z 1002cb88 f   MMs2_D32:MMs2_D32.dll
 0001:0002bb8e       ??0CMI_Tang2@@QAE@XZ       1002cb8e f   MMs2_D32:MMs2_D32.dll
 0001:0002bb94       ??1CMI_Qang2@@UAE@XZ       1002cb94 f   MMs2_D32:MMs2_D32.dll
 0001:0002bb9a       ?Post_PatchNodes_IorC_3@CMI_Tang2@@QAEHPAVCDrPatch@@PAUWORLD@@HH@Z 1002cb9a f   MMs2_D32:MMs2_D32.dll
 0001:0002bba0       ?Post_PatchNodes_IorC_4@CMI_Qang2@@QAEHPAVCDrPatch@@PAUWORLD@@HH@Z 1002cba0 f   MMs2_D32:MMs2_D32.dll
 0001:0002bba6       ??0CMI_Qang2@@QAE@XZ       1002cba6 f   MMs2_D32:MMs2_D32.dll
 0001:0002bbac       ?Post_PatchEdges_FE1D_3@CMI_Tang2@@QAEHPAVCDrMesh2D@@@Z 1002cbac f   MMs2_D32:MMs2_D32.dll
 0001:0002bbb2       ?Post_PatchEdges_FE1D_4@CMI_Qang2@@QAEHPAVCDrMesh2D@@@Z 1002cbb2 f   MMs2_D32:MMs2_D32.dll
 0001:0002bbb8       ?Post_PatchNodes_FE0D_3@CMI_Tang2@@QAEHPAVCDrObject@@IPAVCDrPatch@@PAUWORLD@@HHH@Z 1002cbb8 f   MMs2_D32:MMs2_D32.dll
 0001:0002bbbe       ?Post_PatchNodes_FE0D_4@CMI_Qang2@@QAEHPAVCDrObject@@IPAUWORLD@@HHHHHH@Z 1002cbbe f   MMs2_D32:MMs2_D32.dll
 0001:0002bbc4       ?Post_Patch_QUADRILATS@CMI_Qang2@@QAEHPAVCDrObject@@0II@Z 1002cbc4 f   MMs2_D32:MMs2_D32.dll
 0001:0002bbca       ?Post_Patch_TRIANGLES@CMI_Tang2@@QAEHPAVCDrObject@@0II@Z 1002cbca f   MMs2_D32:MMs2_D32.dll
 0001:0002bbd0       ??1CDialog@@UAE@XZ         1002cbd0 f   mfc42d:MFC42D.DLL
 0001:0002bbd6       ??1CString@@QAE@XZ         1002cbd6 f   mfc42d:MFC42D.DLL
 0001:0002bbdc       ?Dump@CObject@@UBEXAAVCDumpContext@@@Z 1002cbdc f   mfc42d:MFC42D.DLL
 0001:0002bbe2       ?AssertValid@CObject@@UBEXXZ 1002cbe2 f   mfc42d:MFC42D.DLL
 0001:0002bbe8       ??1CObject@@UAE@XZ         1002cbe8 f   mfc42d:MFC42D.DLL
 0001:0002bbee       ??3CObject@@SGXPAX@Z       1002cbee f   mfc42d:MFC42D.DLL
 0001:0002bbf4       ??3@YAXPAX@Z               1002cbf4 f   mfc42d:MFC42D.DLL
 0001:0002bbfa       ??0CString@@QAE@ABV0@@Z    1002cbfa f   mfc42d:MFC42D.DLL
 0001:0002bc00       ??4CString@@QAEABV0@ABV0@@Z 1002cc00 f   mfc42d:MFC42D.DLL
 0001:0002bc06       ?Serialize@CObject@@UAEXAAVCArchive@@@Z 1002cc06 f   mfc42d:MFC42D.DLL
 0001:0002bc0c       ??2@YAPAXI@Z               1002cc0c f   mfc42d:MFC42D.DLL
 0001:0002bc12       ??1CPen@@UAE@XZ            1002cc12 f   mfc42d:MFC42D.DLL
 0001:0002bc18       ??3CObject@@SGXPAXPBDH@Z   1002cc18 f   mfc42d:MFC42D.DLL
 0001:0002bc1e       ??2CObject@@SGPAXIPBDH@Z   1002cc1e f   mfc42d:MFC42D.DLL
 0001:0002bc24       ?AfxClassInit@@YGXPAUCRuntimeClass@@@Z 1002cc24 f   mfc42d:MFC42D.DLL
 0001:0002bc2a       ?ReadObject@CArchive@@QAEPAVCObject@@PBUCRuntimeClass@@@Z 1002cc2a f   mfc42d:MFC42D.DLL
 0001:0002bc30       ??0CString@@QAE@XZ         1002cc30 f   mfc42d:MFC42D.DLL
 0001:0002bc36       ?AfxGetMainWnd@@YGPAVCWnd@@XZ 1002cc36 f   mfc42d:MFC42D.DLL
 0001:0002bc3c       ??4CString@@QAEABV0@PBD@Z  1002cc3c f   mfc42d:MFC42D.DLL
 0001:0002bc42       ?AfxGetApp@@YGPAVCWinApp@@XZ 1002cc42 f   mfc42d:MFC42D.DLL
 0001:0002bc48       ?GetCount@CObList@@QBEHXZ  1002cc48 f   mfc42d:MFC42D.DLL
 0001:0002bc4e       ?DPtoLP@CDC@@QBEXPAUtagPOINT@@H@Z 1002cc4e f   mfc42d:MFC42D.DLL
 0001:0002bc54       ?UpdateData@CWnd@@QAEHH@Z  1002cc54 f   mfc42d:MFC42D.DLL
 0001:0002bc5a       ?EnableWindow@CWnd@@QAEHH@Z 1002cc5a f   mfc42d:MFC42D.DLL
 0001:0002bc60       ?SetWindowTextA@CWnd@@QAEXPBD@Z 1002cc60 f   mfc42d:MFC42D.DLL
 0001:0002bc66       ?GetDlgItem@CWnd@@QBEPAV1@H@Z 1002cc66 f   mfc42d:MFC42D.DLL
 0001:0002bc6c       ?UpdateWindow@CWnd@@QAEXXZ 1002cc6c f   mfc42d:MFC42D.DLL
 0001:0002bc72       ?Invalidate@CWnd@@QAEXH@Z  1002cc72 f   mfc42d:MFC42D.DLL
 0001:0002bc78       ??H@YG?AVCString@@PBDABV0@@Z 1002cc78 f   mfc42d:MFC42D.DLL
 0001:0002bc7e       ?AfxMessageBox@@YGHPBDII@Z 1002cc7e f   mfc42d:MFC42D.DLL
 0001:0002bc84       ??0CPoint@@QAE@UtagPOINT@@@Z 1002cc84 f   mfc42d:MFC42D.DLL
 0001:0002bc8a       ?LPtoDP@CDC@@QBEXPAUtagPOINT@@H@Z 1002cc8a f   mfc42d:MFC42D.DLL
 0001:0002bc90       ??3@YAXPAXPBDH@Z           1002cc90 f   mfc42d:MFC42D.DLL
 0001:0002bc96       ??BCString@@QBEPBDXZ       1002cc96 f   mfc42d:MFC42D.DLL
 0001:0002bc9c       ?GetBuffer@CString@@QAEPADH@Z 1002cc9c f   mfc42d:MFC42D.DLL
 0001:0002bca2       ??2@YAPAXIPBDH@Z           1002cca2 f   mfc42d:MFC42D.DLL
 0001:0002bca8       ?SendMessageA@CWnd@@QAEJIIJ@Z 1002cca8 f   mfc42d:MFC42D.DLL
 0001:0002bcae       ?SetActiveWindow@CWnd@@QAEPAV1@XZ 1002ccae f   mfc42d:MFC42D.DLL
 0001:0002bcb4       ??1CWnd@@UAE@XZ            1002ccb4 f   mfc42d:MFC42D.DLL
 0001:0002bcba       ?SetWindowPos@CWnd@@QAEHPBV1@HHHHI@Z 1002ccba f   mfc42d:MFC42D.DLL
 0001:0002bcc0       ?Width@CRect@@QBEHXZ       1002ccc0 f   mfc42d:MFC42D.DLL
 0001:0002bcc6       ?Height@CRect@@QBEHXZ      1002ccc6 f   mfc42d:MFC42D.DLL
 0001:0002bccc       ?GetWindowRect@CWnd@@QBEXPAUtagRECT@@@Z 1002cccc f   mfc42d:MFC42D.DLL
 0001:0002bcd2       ??0CWnd@@QAE@XZ            1002ccd2 f   mfc42d:MFC42D.DLL
 0001:0002bcd8       ??0CRect@@QAE@XZ           1002ccd8 f   mfc42d:MFC42D.DLL
 0001:0002bcde       ?GetSafeHwnd@CWnd@@QBEPAUHWND__@@XZ 1002ccde f   mfc42d:MFC42D.DLL
 0001:0002bce4       ??YCString@@QAEABV0@PBD@Z  1002cce4 f   mfc42d:MFC42D.DLL
 0001:0002bcea       ?AfxTrace@@YAXPBDZZ        1002ccea f   mfc42d:MFC42D.DLL
 0001:0002bcf0       ?IsStoring@CArchive@@QBEHXZ 1002ccf0 f   mfc42d:MFC42D.DLL
 0001:0002bcf6       ?GetRuntimeClass@CObject@@UBEPAUCRuntimeClass@@XZ 1002ccf6 f   mfc42d:MFC42D.DLL
 0001:0002bcfc       ?AfxAssertFailedLine@@YGHPBDH@Z 1002ccfc f   mfc42d:MFC42D.DLL
 0001:0002bd02       ?ReadCount@CArchive@@QAEKXZ 1002cd02 f   mfc42d:MFC42D.DLL
 0001:0002bd08       ?AfxIsValidAddress@@YGHPBXIH@Z 1002cd08 f   mfc42d:MFC42D.DLL
 0001:0002bd0e       ?WriteCount@CArchive@@QAEXK@Z 1002cd0e f   mfc42d:MFC42D.DLL
 0001:0002bd14       ?AfxAssertValidObject@@YGXPBVCObject@@PBDH@Z 1002cd14 f   mfc42d:MFC42D.DLL
 0001:0002bd1a       ?GetDepth@CDumpContext@@QBEHXZ 1002cd1a f   mfc42d:MFC42D.DLL
 0001:0002bd20       ??6CDumpContext@@QAEAAV0@H@Z 1002cd20 f   mfc42d:MFC42D.DLL
 0001:0002bd26       ??6CDumpContext@@QAEAAV0@PBD@Z 1002cd26 f   mfc42d:MFC42D.DLL
 0001:0002bd2c       ?FreeDataChain@CPlex@@QAEXXZ 1002cd2c f   mfc42d:MFC42D.DLL
 0001:0002bd32       ?Read@CArchive@@QAEIPAXI@Z 1002cd32 f   mfc42d:MFC42D.DLL
 0001:0002bd38       ?Write@CArchive@@QAEXPBXI@Z 1002cd38 f   mfc42d:MFC42D.DLL
 0001:0002bd3e       ?Create@CPlex@@SGPAU1@AAPAU1@II@Z 1002cd3e f   mfc42d:MFC42D.DLL
 0001:0002bd44       ??8@YG_NABVCString@@PBD@Z  1002cd44 f   mfc42d:MFC42D.DLL
 0001:0002bd4a       ??0CString@@QAE@PBD@Z      1002cd4a f   mfc42d:MFC42D.DLL
 0001:0002bd50       ?ReleaseBuffer@CString@@QAEXH@Z 1002cd50 f   mfc42d:MFC42D.DLL
 0001:0002bd56       ?AfxGetModuleState@@YGPAVAFX_MODULE_STATE@@XZ 1002cd56 f   mfc42d:MFC42D.DLL
 0001:0002bd5c       ??0CDynLinkLibrary@@QAE@AAUAFX_EXTENSION_MODULE@@H@Z 1002cd5c f   mfc42d:MFC42D.DLL
 0001:0002bd62       ??2CObject@@SGPAXI@Z       1002cd62 f   mfc42d:MFC42D.DLL
 0001:0002bd68       ?AfxInitExtensionModule@@YGHAAUAFX_EXTENSION_MODULE@@PAUHINSTANCE__@@@Z 1002cd68 f   mfc42d:MFC42D.DLL
 0001:0002bd6e       ?LoadCursorA@CWinApp@@QBEPAUHICON__@@I@Z 1002cd6e f   mfc42d:MFC42D.DLL
 0001:0002bd74       ?LoadStandardCursor@CWinApp@@QBEPAUHICON__@@PBD@Z 1002cd74 f   mfc42d:MFC42D.DLL
 0001:0002bd7a       ?LoadStringA@CString@@QAEHI@Z 1002cd7a f   mfc42d:MFC42D.DLL
 0001:0002bd80       ?AfxSetResourceHandle@@YGXPAUHINSTANCE__@@@Z 1002cd80 f   mfc42d:MFC42D.DLL
 0001:0002bd86       ?AfxGetResourceHandle@@YGPAUHINSTANCE__@@XZ 1002cd86 f   mfc42d:MFC42D.DLL
 0001:0002bd8c       ??0CObject@@IAE@XZ         1002cd8c f   mfc42d:MFC42D.DLL
 0001:0002bda0       ___CxxFrameHandler         1002cda0 f   msvcrtd:MSVCRTD.dll
 0001:0002bda6       _sqrt                      1002cda6 f   msvcrtd:MSVCRTD.dll
 0001:0002bdb0       ??0type_info@@AAE@ABV0@@Z  1002cdb0 f   msvcrtd:ti_inst.obj
 0001:0002bdd0       ??_Gtype_info@@UAEPAXI@Z   1002cdd0 f i msvcrtd:ti_inst.obj
 0001:0002bdd0       ??_Etype_info@@UAEPAXI@Z   1002cdd0 f i msvcrtd:ti_inst.obj
 0001:0002be00       ??4type_info@@AAEAAV0@ABV0@@Z 1002ce00 f   msvcrtd:ti_inst.obj
 0001:0002be10       ??_M@YGXPAXIHP6EX0@Z@Z     1002ce10 f   msvcrtd:ehvecdtr.obj
 0001:0002bec0       ?__ArrayUnwind@@YGXPAXIHP6EX0@Z@Z 1002cec0 f   msvcrtd:ehvecdtr.obj
 0001:0002bf6c       _sprintf                   1002cf6c f   msvcrtd:MSVCRTD.dll
 0001:0002bf72       _memset                    1002cf72 f   msvcrtd:MSVCRTD.dll
 0001:0002bf80       __onexit                   1002cf80 f   msvcrtd:atonexit.obj
 0001:0002bfc0       _atexit                    1002cfc0 f   msvcrtd:atonexit.obj
 0001:0002bfe0       __CRT_INIT@12              1002cfe0 f   msvcrtd:crtdll.obj
 0001:0002c0f0       __DllMainCRTStartup@12     1002d0f0 f   msvcrtd:crtdll.obj
 0001:0002c1e4       ??1type_info@@UAE@XZ       1002d1e4 f   msvcrtd:MSVCRTD.dll
 0001:0002c1ea       __except_handler3          1002d1ea f   msvcrtd:MSVCRTD.dll
 0001:0002c1f0       ?terminate@@YAXXZ          1002d1f0 f   msvcrtd:MSVCRTD.dll
 0001:0002c1f6       ___dllonexit               1002d1f6 f   msvcrtd:MSVCRTD.dll
 0001:0002c1fc       __free_dbg                 1002d1fc f   msvcrtd:MSVCRTD.dll
 0001:0002c202       __initterm                 1002d202 f   msvcrtd:MSVCRTD.dll
 0001:0002c208       __malloc_dbg               1002d208 f   msvcrtd:MSVCRTD.dll
 0001:0002c20e       _GetSystemMetrics@4        1002d20e f   user32:USER32.dll
 0001:0002c214       _DestroyCursor@4           1002d214 f   user32:USER32.dll
 0001:0002c21a       _SetCursor@4               1002d21a f   user32:USER32.dll
 0001:0002cd40       ?data@CPlex@@QAEPAXXZ      1002dd40 f i CurPost.obj
 0001:00030900       __enc$textbss$begin        10031900     <linker-defined>
 0001:0005ea00       __enc$textbss$end          1005fa00     <linker-defined>
 0002:0000001c       ??_C@_08DNGM@CCurPost?$AA@ 1006001c     CurPost.obj
 0002:0000002c       ??_7C3DMath@@6B@           1006002c     CurPost.obj
 0002:00000048       ??_7CMatObj@@6B@           10060048     CurPost.obj
 0002:00000154       ??_7CDrLabel@@6B@          10060154     CurPost.obj
 0002:00000344       ??_7CTriangle@@6B@         10060344     CurPost.obj
 0002:000003e0       ??_7CBooleans@@6B@         100603e0     CurPost.obj
 0002:00000698       ??_7CDataWindow@@6B@       10060698     CurPost.obj
 0002:00000858       ??_7CDrFont@@6B@           10060858     CurPost.obj
 0002:00000a18       ??_7CDrPen@@6B@            10060a18     CurPost.obj
 0002:00000c4c       ??_7CHitNet@@6B@           10060c4c     CurPost.obj
 0002:00000de4       ??_7CLayer@@6B@            10060de4     CurPost.obj
 0002:00000fc8       ??_7CPatchMnu@@6B@         10060fc8     CurPost.obj
 0002:000011cc       ??_7CObj3DMnu@@6B@         100611cc     CurPost.obj
 0002:000013d0       ??_7CMapFactor@@6B@        100613d0     CurPost.obj
 0002:00001584       ??_7CPrecision@@6B@        10061584     CurPost.obj
 0002:00001760       ??_7CScaleFactor@@6B@      10061760     CurPost.obj
 0002:00001920       ??_7CUnit@@6B@             10061920     CurPost.obj
 0002:00001aec       ??_7CElemInfo@@6B@         10061aec     CurPost.obj
 0002:00001c94       ??_7CCurPost@@6B@          10061c94     CurPost.obj
 0002:00001cac       ??_C@_00A@?$AA@            10061cac     CurPost.obj
 0002:00001cb0       ??_C@_0CG@FGND@Generating?5ELBOW?5Elements?$EAClick?5@ 10061cb0     CurPost.obj
 0002:00001ce0       ??_C@_0CF@PHMP@Generating?5PIPE?5Elements?$EAClick?5O@ 10061ce0     CurPost.obj
 0002:00001d0c       ??_C@_0CF@HFKE@Generating?5BEAM?5Elements?$EAClick?5O@ 10061d0c     CurPost.obj
 0002:00001d38       ??_C@_0CG@PAHD@Generating?5TRUSS?5Elements?$EAClick?5@ 10061d38     CurPost.obj
 0002:00001d68       ??_C@_0CF@FEDC@Generating?5CONTROL?5NODEs?$EAClick?5O@ 10061d68     CurPost.obj
 0002:00001d94       ??_C@_0CD@IBAN@Generating?5INPUT?5NODEs?$EAClick?5ON?5@ 10061d94     CurPost.obj
 0002:00001dc0       ??_C@_0BK@HPM@CONTROL?5NODE?5Posting?5Info?$AA@ 10061dc0     CurPost.obj
 0002:00001de0       ??_C@_0DE@EIID@If?5Ready?5with?5Other?5Info?4?0?$EAClick@ 10061de0     CurPost.obj
 0002:00001e20       ??_C@_0BD@MMKD@TRUSS?5Posting?5Info?$AA@ 10061e20     CurPost.obj
 0002:00001e38       ??_C@_07IAIL@Release?$AA@  10061e38     CurPost.obj
 0002:00001e44       ??_C@_06OFKG@K?5Node?$AA@  10061e44     CurPost.obj
 0002:00001e4c       ??_C@_0BC@IODA@BEAM?5Posting?5Info?$AA@ 10061e4c     CurPost.obj
 0002:00001e64       ??_C@_0N@BOJ@Stress?5Index?$AA@ 10061e64     CurPost.obj
 0002:00001e74       ??_C@_0BC@EHFO@PIPE?5Posting?5Info?$AA@ 10061e74     CurPost.obj
 0002:00001e8c       ??_C@_0BD@BAGH@ELBOW?5Posting?5Info?$AA@ 10061e8c     CurPost.obj
 0002:00001ea4       ??_C@_0DG@KNJA@ERROR?3?6CCurPost?3?3LeftUp_Curve?6Sh@ 10061ea4     CurPost.obj
 0002:00001ee4       ??_C@_0DJ@BPBD@Internal?5ERROR?3?6CurPost?3?3Pre_Com@ 10061ee4     CurPost.obj
 0002:00001f28       ??_C@_0DJ@PKKI@Do?5You?5Want?5to?5Delete?6Current?5Po@ 10061f28     CurPost.obj
 0002:00001f6c       ??_C@_0CG@POKD@Internal?5Error?3?6Increase?5buffer?5@ 10061f6c     CurPost.obj
 0002:00001f9c       ??_C@_0BN@DAIL@?$CK?$CK?$CK?$CK?$CK?5INPUT?5NODE?5Info?5?$CK?$CK?$CK?$CK?$CK?$CK?$AA@ 10061f9c     CurPost.obj
 0002:00001fc0       ??_C@_0BP@ELJK@?$CK?$CK?$CK?$CK?$CK?5CONTROL?5NODE?5Info?5?$CK?$CK?$CK?$CK?$CK?$CK?$AA@ 10061fc0     CurPost.obj
 0002:00001fe8       ??_C@_0BF@GHAN@Ambient?5Temp?4?5?$DN?5?7?$CFf?6?$AA@ 10061fe8     CurPost.obj
 0002:00002004       ??_C@_0BD@OBFA@Material?5ID?5?$DN?5?7?$CFs?6?$AA@ 10062004     CurPost.obj
 0002:0000201c       ??_C@_0BD@HJLG@Property?5ID?5?$DN?5?7?$CFs?6?$AA@ 1006201c     CurPost.obj
 0002:00002034       ??_C@_0BK@COBE@?$CK?$CK?$CK?$CK?$CK?5TRUSS?5Info?5?$CK?$CK?$CK?$CK?$CK?$CK?6?6?$AA@ 10062034     CurPost.obj
 0002:00002054       ??_C@_0BE@NNEG@Release?5ID_J?5?$DN?5?7?$CFs?6?$AA@ 10062054     CurPost.obj
 0002:0000206c       ??_C@_0BE@FDF@Release?5ID_I?5?$DN?5?7?$CFs?6?$AA@ 1006206c     CurPost.obj
 0002:00002084       ??_C@_0BB@HEKM@K?9Node?5ID?5?$DN?5?7?$CFs?6?$AA@ 10062084     CurPost.obj
 0002:00002098       ??_C@_0BJ@IBAK@?$CK?$CK?$CK?$CK?$CK?5BEAM?5Info?5?$CK?$CK?$CK?$CK?$CK?$CK?6?6?$AA@ 10062098     CurPost.obj
 0002:000020b8       ??_C@_0BO@PJML@?6?6A?5Valve?5is?5Modeled?5as?5PIPE?6?$AA@ 100620b8     CurPost.obj
 0002:000020dc       ??_C@_0BF@BJKO@StressIndex_J?5?$DN?5?7?$CFs?6?$AA@ 100620dc     CurPost.obj
 0002:000020f8       ??_C@_0BF@MBNN@StressIndex_I?5?$DN?5?7?$CFs?6?$AA@ 100620f8     CurPost.obj
 0002:00002114       ??_C@_0BJ@KMMD@?$CK?$CK?$CK?$CK?$CK?5PIPE?5Info?5?$CK?$CK?$CK?$CK?$CK?$CK?6?6?$AA@ 10062114     CurPost.obj
 0002:00002134       ??_C@_0BK@KMMI@?$CK?$CK?$CK?$CK?$CK?5ELBOW?5Info?5?$CK?$CK?$CK?$CK?$CK?$CK?6?6?$AA@ 10062134     CurPost.obj
 0002:00002154       ??_C@_05CFLF@Curve?$AA@    10062154     CurPost.obj
 0002:0000215c       ??_C@_0BH@LKLJ@UNKNOWN?5Posting?5Option?$AA@ 1006215c     CurPost.obj
 0002:00002178       ??_C@_0L@EOBI@DON?8T?5KNOW?$AA@ 10062178     CurPost.obj
 0002:00002188       ??_C@_0BP@KKIL@ELBOW?5Posting?$EACLICK?5ON?5a?5Curve?$AA@ 10062188     CurPost.obj
 0002:000021b0       ??_C@_05MEMP@ELBOW?$AA@    100621b0     CurPost.obj
 0002:000021b8       ??_C@_0BO@DJCF@PIPE?5Posting?$EACLICK?5ON?5a?5Curve?$AA@ 100621b8     CurPost.obj
 0002:000021dc       ??_C@_04CDKK@PIPE?$AA@     100621dc     CurPost.obj
 0002:000021e4       ??_C@_0BO@BKAO@BEAM?5Posting?$EACLICK?5ON?5a?5Curve?$AA@ 100621e4     CurPost.obj
 0002:00002208       ??_C@_04MMHL@BEAM?$AA@     10062208     CurPost.obj
 0002:00002210       ??_C@_0BP@ECEN@TRUSS?5Posting?$EACLICK?5ON?5a?5Curve?$AA@ 10062210     CurPost.obj
 0002:00002238       ??_C@_05HGOC@TRUSS?$AA@    10062238     CurPost.obj
 0002:00002240       ??_C@_0CE@EIFL@BALL?5JOINT?5Posting?$EACLICK?5ON?5a?5Cu@ 10062240     CurPost.obj
 0002:0000226c       ??_C@_0L@JDNA@BALL?$EAJOINT?$AA@ 1006226c     CurPost.obj
 0002:0000227c       ??_C@_0CG@FFJA@Control?5NODE?5Posting?$EACLICK?5ON?5a?5@ 1006227c     CurPost.obj
 0002:000022ac       ??_C@_0N@PIKM@Control?$EANODE?$AA@ 100622ac     CurPost.obj
 0002:000022bc       ??_C@_0CE@DIG@Input?5NODE?5Posting?$EACLICK?5ON?5a?5Cu@ 100622bc     CurPost.obj
 0002:000022e8       ??_C@_0L@EFDO@Input?$EANODE?$AA@ 100622e8     CurPost.obj
 0002:000022f8       ??_C@_05EKJA@CURVE?$AA@    100622f8     CurPost.obj
 0002:00002300       ??_C@_04PHMF@POST?$AA@     10062300     CurPost.obj
 0002:00002308       ??_C@_0L@JAOI@Ready?5for?5?$AA@ 10062308     CurPost.obj
 0002:00002318       ??_C@_07CNPM@UNKNOWN?$AA@  10062318     CurPost.obj
 0002:00002324       ??_C@_0BG@LIJM@?5CurPost?3?5?5?5?5Loading?6?$AA@ 10062324     CurPost.obj
 0002:00002340       ??_C@_0BG@HPMK@?5CurPost?3?5?5?5?5Storing?6?$AA@ 10062340     CurPost.obj
 0002:00002360       ??_7?$CList@HH@@6B@        10062360     CurPost.obj
 0002:00002378       ??_C@_01BJG@?6?$AA@        10062378     CurPost.obj
 0002:0000237c       ??_C@_05KIFI@with?5?$AA@   1006237c     CurPost.obj
 0002:00002384       ??_C@_09LOPF@?5elements?$AA@ 10062384     CurPost.obj
 0002:00002390       ??_C@_08MDML@CNodPost?$AA@ 10062390     NodPost.obj
 0002:000023a0       ??_7CNodPost@@6B@          100623a0     NodPost.obj
 0002:000023b8       ??_C@_0CD@DAOL@Generating?5BALL?5Joints?$EAClick?5ON?5@ 100623b8     NodPost.obj
 0002:000023e4       ??_C@_0CD@NDGH@?6CANCEL?3?7?7Cancel?5Selection?5Proce@ 100623e4     NodPost.obj
 0002:00002410       ??_C@_0CF@LG@?6NO?3?7?7Find?5Next?5Node?5with?5same?5T@ 10062410     NodPost.obj
 0002:0000243c       ??_C@_0BP@HBIO@?6NO?3?7?7Cancel?5Selection?5Process?$AA@ 1006243c     NodPost.obj
 0002:00002464       ??_C@_0BH@DBMJ@?6?6YES?3?7?7Post?5This?5Node?$AA@ 10062464     NodPost.obj
 0002:00002480       ??_C@_0DP@OMJH@?6Existing?5NodeID?5?$DN?5?$CFs?6Coordinate@ 10062480     NodPost.obj
 0002:000024cc       ??_C@_0CM@FOOA@with?5Mouse?5Coordinates?5?$CIwith?5?$CFf?5@ 100624cc     NodPost.obj
 0002:00002500       ??_C@_0BH@PJM@?$CK?$CK?$CK?$CK?$CK?5A?5Node?5Hit?5?$CK?$CK?$CK?$CK?6?$AA@ 10062500     NodPost.obj
 0002:0000251c       ??_C@_02MECO@?$CFd?$AA@    1006251c     NodPost.obj
 0002:00002520       ??_C@_0BN@JNOD@?$CK?$CK?$CK?$CK?$CK?5BALL?5JOINT?5Info?5?$CK?$CK?$CK?$CK?$CK?$CK?$AA@ 10062520     NodPost.obj
 0002:00002544       ??_C@_04JKOE@Node?$AA@     10062544     NodPost.obj
 0002:0000254c       ??_C@_0CD@HEJK@BALL?5JOINT?5Posting?$EACLICK?5ON?5a?5No@ 1006254c     NodPost.obj
 0002:00002578       ??_C@_0DD@LMDF@A?5Control?5Node?5Can?5Not?5be?5Posted@ 10062578     NodPost.obj
 0002:000025b8       ??_C@_0CD@IJND@A?5Node?5Can?5Not?5be?5Posted?$EAas?5a?5No@ 100625b8     NodPost.obj
 0002:000025e4       ??_C@_0BC@GAGG@ILLEGAL?$EASelection?$AA@ 100625e4     NodPost.obj
 0002:000025fc       ??_C@_04FPID@NODE?$AA@     100625fc     NodPost.obj
 0002:00002604       ??_C@_0BG@CFML@?5NodPost?3?5?5?5?5Loading?6?$AA@ 10062604     NodPost.obj
 0002:00002620       ??_C@_0BG@OCJN@?5NodPost?3?5?5?5?5Storing?6?$AA@ 10062620     NodPost.obj
 0002:0000263c       ??_C@_08GLNF@CPatPost?$AA@ 1006263c     PatPost.obj
 0002:00002648       ??_C@_09NICJ@ClockWise?$AA@ 10062648     PatPost.obj
 0002:00002658       ??_7CPatPost@@6B@          10062658     PatPost.obj
 0002:00002670       ??_C@_04PBGA@AUTO?$AA@     10062670     PatPost.obj
 0002:00002678       ??_C@_08DGGL@Triangle?$AA@ 10062678     PatPost.obj
 0002:00002684       ??_C@_0O@JPHP@Quadrilateral?$AA@ 10062684     PatPost.obj
 0002:00002694       ??_C@_06PEIA@MIDCEN?$AA@   10062694     PatPost.obj
 0002:0000269c       ??_C@_0N@FNMD@MIDCEN?5SHORT?$AA@ 1006269c     PatPost.obj
 0002:000026ac       ??_C@_08DHJI@CENTROID?$AA@ 100626ac     PatPost.obj
 0002:000026b8       ??_C@_0P@INFC@INTERSECT?5DIAG?$AA@ 100626b8     PatPost.obj
 0002:000026cc       ??_C@_0L@BFHE@SHORT?5DIAG?$AA@ 100626cc     PatPost.obj
 0002:000026dc       ??_C@_0CJ@NMNF@Generating?510?9Node?5Triangles?$EACli@ 100626dc     PatPost.obj
 0002:00002710       ??_C@_0CI@IGOD@Generating?59?9Node?5Triangles?$EAClic@ 10062710     PatPost.obj
 0002:00002740       ??_C@_0CI@OKPL@Generating?56?9Node?5Triangles?$EAClic@ 10062740     PatPost.obj
 0002:00002770       ??_C@_0CI@MOPD@Generating?53?9Node?5Triangles?$EAClic@ 10062770     PatPost.obj
 0002:000027a0       ??_C@_0CF@JPMG@Generating?516?9Node?5Quads?$EAClick?5O@ 100627a0     PatPost.obj
 0002:000027cc       ??_C@_0CF@NEEJ@Generating?512?9Node?5Quads?$EAClick?5O@ 100627cc     PatPost.obj
 0002:000027f8       ??_C@_0CE@JJCP@Generating?59?9Node?5Quads?$EAClick?5ON@ 100627f8     PatPost.obj
 0002:00002824       ??_C@_0CE@LMM@Generating?58?9Node?5Quads?$EAClick?5ON@ 10062824     PatPost.obj
 0002:00002850       ??_C@_0CE@NHFN@Generating?54?9Node?5Quads?$EAClick?5ON@ 10062850     PatPost.obj
 0002:0000287c       ??_C@_0BG@HDEL@Triangle?5Posting?5Info?$AA@ 1006287c     PatPost.obj
 0002:00002898       ??_C@_0BL@LDN@Quadrilateral?5Posting?5Info?$AA@ 10062898     PatPost.obj
 0002:000028b8       ??_C@_0DG@MGBG@ERROR?3?6CPatPost?3?3LeftUp_Patch?6Sh@ 100628b8     PatPost.obj
 0002:000028f8       ??_C@_0DK@MKLJ@Internal?5ERROR?3?6CPatPost?3?3Pre_Co@ 100628f8     PatPost.obj
 0002:00002940       ??_C@_0BN@GDKN@GenPost_PatchNodes?3PostNodes?$AA@ 10062940     PatPost.obj
 0002:00002964       ??_C@_0BH@CPLA@Pre_Common_2D?3PostMesh?$AA@ 10062964     PatPost.obj
 0002:00002980       ??_C@_0CB@IBE@CPatPost?3?3GenPost_Mesh_Vertices?6@ 10062980     PatPost.obj
 0002:000029ac       ??_7CCalcTime@@6B@         100629ac     PatPost.obj
 0002:000029c4       ??_C@_0BG@GBNL@Post_Patch_QUADRILATS?$AA@ 100629c4     PatPost.obj
 0002:000029e0       ??_C@_0CK@HPIA@Post_Patch_TRIANGLES?6Takes?5?$CF8?44f@ 100629e0     PatPost.obj
 0002:00002a14       ??_C@_0BO@DD@CPatPost?3?3OnEBoxRButtonUp_PAT?$AA@ 10062a14     PatPost.obj
 0002:00002a38       ??_C@_0BH@LDM@Refinement?5Rule?5?$DN?5?7?$CFs?6?$AA@ 10062a38     PatPost.obj
 0002:00002a54       ??_C@_0BB@KBND@Thickness?5?$DN?5?7?$CFf?6?$AA@ 10062a54     PatPost.obj
 0002:00002a68       ??_C@_0BE@GNKB@Release?5ID_L?5?$DN?5?7?$CFs?6?$AA@ 10062a68     PatPost.obj
 0002:00002a80       ??_C@_0BE@JFGI@Release?5ID_K?5?$DN?5?7?$CFs?6?$AA@ 10062a80     PatPost.obj
 0002:00002a98       ??_C@_0BD@MCAM@Orientation?5?$DN?5?7?$CFs?6?$AA@ 10062a98     PatPost.obj
 0002:00002ab0       ??_C@_0BF@3Element?5Type?5?$DN?5?7?$CFs?6?6?$AA@ 10062ab0     PatPost.obj
 0002:00002acc       ??_C@_0BM@BOHM@?$CK?$CK?$CK?$CK?$CK?5Element?5Info?5?$CK?$CK?$CK?$CK?$CK?$CK?6?6?$AA@ 10062acc     PatPost.obj
 0002:00002af0       ??_C@_05JJEL@Patch?$AA@    10062af0     PatPost.obj
 0002:00002af8       ??_C@_0CP@BKKD@16?9Node?5Quadrilateral?5Posting?$EACL@ 10062af8     PatPost.obj
 0002:00002b30       ??_C@_0BC@ICPG@16?9Node?$EAQUADRILAT?$AA@ 10062b30     PatPost.obj
 0002:00002b48       ??_C@_0CP@OIM@12?9Node?5Quadrilateral?5Posting?$EACL@ 10062b48     PatPost.obj
 0002:00002b80       ??_C@_0BC@FPM@12?9Node?$EAQUADRILAT?$AA@ 10062b80     PatPost.obj
 0002:00002b98       ??_C@_0CO@JCPK@9?9Node?5Quadrilateral?5Posting?$EACLI@ 10062b98     PatPost.obj
 0002:00002bd0       ??_C@_0BB@FLKL@9?9Node?$EAQUADRILAT?$AA@ 10062bd0     PatPost.obj
 0002:00002be4       ??_C@_0CO@FHPB@8?9Node?5Quadrilateral?5Posting?$EACLI@ 10062be4     PatPost.obj
 0002:00002c1c       ??_C@_0BB@HKGJ@8?9Node?$EAQUADRILAT?$AA@ 10062c1c     PatPost.obj
 0002:00002c30       ??_C@_0CO@GLIA@4?9Node?5Quadrilateral?5Posting?$EACLI@ 10062c30     PatPost.obj
 0002:00002c68       ??_C@_0BB@PDHG@4?9Node?$EAQUADRILAT?$AA@ 10062c68     PatPost.obj
 0002:00002c7c       ??_C@_0CK@NJKP@10?9Node?5Triangle?5Posting?$EACLICK?5O@ 10062c7c     PatPost.obj
 0002:00002cb0       ??_C@_0BB@IFDD@10?9Node?$EATRIANGLE?$AA@ 10062cb0     PatPost.obj
 0002:00002cc4       ??_C@_0CJ@CKKO@9?9Node?5Triangle?5Posting?$EACLICK?5ON@ 10062cc4     PatPost.obj
 0002:00002cf8       ??_C@_0BA@FHCN@9?9Node?$EATRIANGLE?$AA@ 10062cf8     PatPost.obj
 0002:00002d0c       ??_C@_0CJ@PBBL@6?9Node?5Triangle?5Posting?$EACLICK?5ON@ 10062d0c     PatPost.obj
 0002:00002d40       ??_C@_0BA@PEO@6?9Node?$EATRIANGLE?$AA@ 10062d40     PatPost.obj
 0002:00002d54       ??_C@_0CJ@EHII@3?9Node?5Triangle?5Posting?$EACLICK?5ON@ 10062d54     PatPost.obj
 0002:00002d88       ??_C@_0BA@MHGP@3?9Node?$EATRIANGLE?$AA@ 10062d88     PatPost.obj
 0002:00002d9c       ??_C@_0BP@BGHF@ELBOW?5Posting?$EACLICK?5ON?5a?5Patch?$AA@ 10062d9c     PatPost.obj
 0002:00002dc4       ??_C@_0BO@IFNL@PIPE?5Posting?$EACLICK?5ON?5a?5Patch?$AA@ 10062dc4     PatPost.obj
 0002:00002de8       ??_C@_0BO@KGPA@BEAM?5Posting?$EACLICK?5ON?5a?5Patch?$AA@ 10062de8     PatPost.obj
 0002:00002e0c       ??_C@_0BP@POLD@TRUSS?5Posting?$EACLICK?5ON?5a?5Patch?$AA@ 10062e0c     PatPost.obj
 0002:00002e34       ??_C@_0BP@OMKM@CURVE?5Posting?$EACLICK?5ON?5a?5Patch?$AA@ 10062e34     PatPost.obj
 0002:00002e5c       ??_C@_0CE@PEKF@BALL?5JOINT?5Posting?$EACLICK?5ON?5a?5Pa@ 10062e5c     PatPost.obj
 0002:00002e88       ??_C@_0CG@OJGO@Control?5NODE?5Posting?$EACLICK?5ON?5a?5@ 10062e88     PatPost.obj
 0002:00002eb8       ??_C@_0CE@LPHI@Input?5NODE?5Posting?$EACLICK?5ON?5a?5Pa@ 10062eb8     PatPost.obj
 0002:00002ee4       ??_C@_05PGGO@PATCH?$AA@    10062ee4     PatPost.obj
 0002:00002eec       ??_C@_0BG@CGEP@?5PatPost?3?5?5?5?5Loading?6?$AA@ 10062eec     PatPost.obj
 0002:00002f08       ??_C@_0BG@OBBJ@?5PatPost?3?5?5?5?5Storing?6?$AA@ 10062f08     PatPost.obj
 0002:00002f24       ??_C@_0BH@JDAC@PMgr?4DLL?5Terminating?$CB?6?$AA@ 10062f24     PmgrDll.obj
 0002:00002f40       ??_C@_02DILL@?$CFs?$AA@    10062f40     PmgrDll.obj
 0002:00002f44       ??_C@_0BI@DFAI@PMgr?4DLL?5Initializing?$CB?6?$AA@ 10062f44     PmgrDll.obj
 0002:00002f60       ??_C@_08MNGN@CPostMgr?$AA@ 10062f60     PostMgr.obj
 0002:00002f6c       ??_C@_0BG@LFDF@resource?5string?5?$DN?5?$CFs?6?$AA@ 10062f6c     PostMgr.obj
 0002:00002f8c       ??_7CPostMgr@@6B@          10062f8c     PostMgr.obj
 0002:00002fa4       ??_C@_0BC@GMGA@?5DelMgr?7?3Loading?6?$AA@ 10062fa4     PostMgr.obj
 0002:00002fbc       ??_C@_0BC@KLDG@?5DelMgr?7?3Storing?6?$AA@ 10062fbc     PostMgr.obj
 0002:00002fd8       _IID_IDocHostUIHandlerDispatch 10062fd8     mfcs42d:stdafx.obj
 0002:00002fe8       _IID_IInternalConnection   10062fe8     mfcs42d:stdafx.obj
 0002:00002ff8       _IID_IAxWinAmbientDispatch 10062ff8     mfcs42d:stdafx.obj
 0002:00003008       _IID_IAxWinHostWindow      10063008     mfcs42d:stdafx.obj
 0002:00003018       _IID_IRegistrar            10063018     mfcs42d:stdafx.obj
 0002:00003028       _CLSID_Registrar           10063028     mfcs42d:stdafx.obj
 0002:00003038       _LIBID_ATLLib              10063038     mfcs42d:stdafx.obj
 0002:0000304c       ??_7type_info@@6B@         1006304c     msvcrtd:ti_inst.obj
 0002:0000306c       ??_C@_08JKC@crtdll?4c?$AA@ 1006306c     msvcrtd:crtdll.obj
 0002:00003218       ??_R1A@?0A@A@CObject@@8    10063218     CurPost.obj
 0002:00003238       ??_R1A@?0A@A@C3DMath@@8    10063238     CurPost.obj
 0002:00003258       ??_R2C3DMath@@8            10063258     CurPost.obj
 0002:00003268       ??_R3C3DMath@@8            10063268     CurPost.obj
 0002:00003280       ??_R4C3DMath@@6B@          10063280     CurPost.obj
 0002:00003298       ??_R1A@?0A@A@CMatObj@@8    10063298     CurPost.obj
 0002:000032b8       ??_R2CMatObj@@8            100632b8     CurPost.obj
 0002:000032c8       ??_R3CMatObj@@8            100632c8     CurPost.obj
 0002:000032e0       ??_R4CMatObj@@6B@          100632e0     CurPost.obj
 0002:000032f8       ??_R1A@?0A@A@CDrObject@@8  100632f8     CurPost.obj
 0002:00003318       ??_R1A@?0A@A@CDrLabel@@8   10063318     CurPost.obj
 0002:00003338       ??_R2CDrLabel@@8           10063338     CurPost.obj
 0002:00003348       ??_R3CDrLabel@@8           10063348     CurPost.obj
 0002:00003360       ??_R4CDrLabel@@6B@         10063360     CurPost.obj
 0002:00003378       ??_R1A@?0A@A@CTriangle@@8  10063378     CurPost.obj
 0002:00003398       ??_R2CTriangle@@8          10063398     CurPost.obj
 0002:000033a8       ??_R3CTriangle@@8          100633a8     CurPost.obj
 0002:000033c0       ??_R4CTriangle@@6B@        100633c0     CurPost.obj
 0002:000033d8       ??_R1A@?0A@A@CBooleans@@8  100633d8     CurPost.obj
 0002:000033f8       ??_R2CBooleans@@8          100633f8     CurPost.obj
 0002:00003408       ??_R3CBooleans@@8          10063408     CurPost.obj
 0002:00003420       ??_R4CBooleans@@6B@        10063420     CurPost.obj
 0002:00003438       ??_R1A@?0A@A@CDataWindow@@8 10063438     CurPost.obj
 0002:00003458       ??_R2CDataWindow@@8        10063458     CurPost.obj
 0002:00003468       ??_R3CDataWindow@@8        10063468     CurPost.obj
 0002:00003480       ??_R4CDataWindow@@6B@      10063480     CurPost.obj
 0002:00003498       ??_R1A@?0A@A@CDrFont@@8    10063498     CurPost.obj
 0002:000034b8       ??_R2CDrFont@@8            100634b8     CurPost.obj
 0002:000034c8       ??_R3CDrFont@@8            100634c8     CurPost.obj
 0002:000034e0       ??_R4CDrFont@@6B@          100634e0     CurPost.obj
 0002:000034f8       ??_R1A@?0A@A@CDrPen@@8     100634f8     CurPost.obj
 0002:00003518       ??_R2CDrPen@@8             10063518     CurPost.obj
 0002:00003528       ??_R3CDrPen@@8             10063528     CurPost.obj
 0002:00003540       ??_R4CDrPen@@6B@           10063540     CurPost.obj
 0002:00003558       ??_R1A@?0A@A@CHitNet@@8    10063558     CurPost.obj
 0002:00003578       ??_R2CHitNet@@8            10063578     CurPost.obj
 0002:00003588       ??_R3CHitNet@@8            10063588     CurPost.obj
 0002:000035a0       ??_R4CHitNet@@6B@          100635a0     CurPost.obj
 0002:000035b8       ??_R1A@?0A@A@CLayer@@8     100635b8     CurPost.obj
 0002:000035d8       ??_R2CLayer@@8             100635d8     CurPost.obj
 0002:000035e8       ??_R3CLayer@@8             100635e8     CurPost.obj
 0002:00003600       ??_R4CLayer@@6B@           10063600     CurPost.obj
 0002:00003618       ??_R1A@?0A@A@CPatchMnu@@8  10063618     CurPost.obj
 0002:00003638       ??_R2CPatchMnu@@8          10063638     CurPost.obj
 0002:00003648       ??_R3CPatchMnu@@8          10063648     CurPost.obj
 0002:00003660       ??_R4CPatchMnu@@6B@        10063660     CurPost.obj
 0002:00003678       ??_R1A@?0A@A@CObj3DMnu@@8  10063678     CurPost.obj
 0002:00003698       ??_R2CObj3DMnu@@8          10063698     CurPost.obj
 0002:000036a8       ??_R3CObj3DMnu@@8          100636a8     CurPost.obj
 0002:000036c0       ??_R4CObj3DMnu@@6B@        100636c0     CurPost.obj
 0002:000036d8       ??_R1A@?0A@A@CMapFactor@@8 100636d8     CurPost.obj
 0002:000036f8       ??_R2CMapFactor@@8         100636f8     CurPost.obj
 0002:00003708       ??_R3CMapFactor@@8         10063708     CurPost.obj
 0002:00003720       ??_R4CMapFactor@@6B@       10063720     CurPost.obj
 0002:00003738       ??_R1A@?0A@A@CPrecision@@8 10063738     CurPost.obj
 0002:00003758       ??_R2CPrecision@@8         10063758     CurPost.obj
 0002:00003768       ??_R3CPrecision@@8         10063768     CurPost.obj
 0002:00003780       ??_R4CPrecision@@6B@       10063780     CurPost.obj
 0002:00003798       ??_R1A@?0A@A@CScaleFactor@@8 10063798     CurPost.obj
 0002:000037b8       ??_R2CScaleFactor@@8       100637b8     CurPost.obj
 0002:000037c8       ??_R3CScaleFactor@@8       100637c8     CurPost.obj
 0002:000037e0       ??_R4CScaleFactor@@6B@     100637e0     CurPost.obj
 0002:000037f8       ??_R1A@?0A@A@CUnit@@8      100637f8     CurPost.obj
 0002:00003818       ??_R2CUnit@@8              10063818     CurPost.obj
 0002:00003828       ??_R3CUnit@@8              10063828     CurPost.obj
 0002:00003840       ??_R4CUnit@@6B@            10063840     CurPost.obj
 0002:00003858       ??_R1A@?0A@A@CElemInfo@@8  10063858     CurPost.obj
 0002:00003878       ??_R2CElemInfo@@8          10063878     CurPost.obj
 0002:00003888       ??_R3CElemInfo@@8          10063888     CurPost.obj
 0002:000038a0       ??_R4CElemInfo@@6B@        100638a0     CurPost.obj
 0002:000038b8       ??_R1A@?0A@A@CMouse@@8     100638b8     CurPost.obj
 0002:000038d8       ??_R1A@?0A@A@CNodPost@@8   100638d8     CurPost.obj
 0002:000038f8       ??_R1A@?0A@A@CCurPost@@8   100638f8     CurPost.obj
 0002:00003918       ??_R2CCurPost@@8           10063918     CurPost.obj
 0002:00003930       ??_R3CCurPost@@8           10063930     CurPost.obj
 0002:00003948       ??_R4CCurPost@@6B@         10063948     CurPost.obj
 0002:00003960       ??_R1A@?0A@A@?$CList@HH@@8 10063960     CurPost.obj
 0002:00003980       ??_R2?$CList@HH@@8         10063980     CurPost.obj
 0002:00003990       ??_R3?$CList@HH@@8         10063990     CurPost.obj
 0002:000039a8       ??_R4?$CList@HH@@6B@       100639a8     CurPost.obj
 0002:000039c0       ??_R2CNodPost@@8           100639c0     NodPost.obj
 0002:000039d0       ??_R3CNodPost@@8           100639d0     NodPost.obj
 0002:000039e8       ??_R4CNodPost@@6B@         100639e8     NodPost.obj
 0002:00003a00       ??_R1A@?0A@A@CPatPost@@8   10063a00     PatPost.obj
 0002:00003a20       ??_R2CPatPost@@8           10063a20     PatPost.obj
 0002:00003a40       ??_R3CPatPost@@8           10063a40     PatPost.obj
 0002:00003a58       ??_R4CPatPost@@6B@         10063a58     PatPost.obj
 0002:00003a70       ??_R1A@?0A@A@CCalcTime@@8  10063a70     PatPost.obj
 0002:00003a90       ??_R2CCalcTime@@8          10063a90     PatPost.obj
 0002:00003aa0       ??_R3CCalcTime@@8          10063aa0     PatPost.obj
 0002:00003ab8       ??_R4CCalcTime@@6B@        10063ab8     PatPost.obj
 0002:00003ad0       ??_R1A@?0A@A@CPostMgr@@8   10063ad0     PostMgr.obj
 0002:00003af0       ??_R2CPostMgr@@8           10063af0     PostMgr.obj
 0002:00003b00       ??_R3CPostMgr@@8           10063b00     PostMgr.obj
 0002:00003b18       ??_R4CPostMgr@@6B@         10063b18     PostMgr.obj
 0002:00003b30       ??_R1A@?0A@A@type_info@@8  10063b30     msvcrtd:ti_inst.obj
 0002:00003b48       ??_R2type_info@@8          10063b48     msvcrtd:ti_inst.obj
 0002:00003b50       ??_R3type_info@@8          10063b50     msvcrtd:ti_inst.obj
 0002:00003b60       ??_R4type_info@@6B@        10063b60     msvcrtd:ti_inst.obj
 0003:00000000       ___xc_a                    1007d000     msvcrtd:cinitexe.obj
 0003:00000218       ___xc_z                    1007d218     msvcrtd:cinitexe.obj
 0003:0000031c       ___xi_a                    1007d31c     msvcrtd:cinitexe.obj
 0003:00000420       ___xi_z                    1007d420     msvcrtd:cinitexe.obj
 0003:00000560       ?classCCurPost@CCurPost@@2UCRuntimeClass@@A 1007d560     CurPost.obj
 0003:00000588       ??_R0?AVCObject@@@8        1007d588     CurPost.obj
 0003:000005a8       ??_R0?AVC3DMath@@@8        1007d5a8     CurPost.obj
 0003:000005c8       ??_R0?AVCMatObj@@@8        1007d5c8     CurPost.obj
 0003:000005e8       ??_R0?AVCDrObject@@@8      1007d5e8     CurPost.obj
 0003:00000608       ??_R0?AVCDrLabel@@@8       1007d608     CurPost.obj
 0003:00000628       ??_R0?AVCTriangle@@@8      1007d628     CurPost.obj
 0003:00000648       ??_R0?AVCBooleans@@@8      1007d648     CurPost.obj
 0003:00000668       ??_R0?AVCDataWindow@@@8    1007d668     CurPost.obj
 0003:00000688       ??_R0?AVCDrFont@@@8        1007d688     CurPost.obj
 0003:000006a8       ??_R0?AVCDrPen@@@8         1007d6a8     CurPost.obj
 0003:000006c8       ??_R0?AVCHitNet@@@8        1007d6c8     CurPost.obj
 0003:000006e8       ??_R0?AVCLayer@@@8         1007d6e8     CurPost.obj
 0003:00000708       ??_R0?AVCPatchMnu@@@8      1007d708     CurPost.obj
 0003:00000728       ??_R0?AVCObj3DMnu@@@8      1007d728     CurPost.obj
 0003:00000748       ??_R0?AVCMapFactor@@@8     1007d748     CurPost.obj
 0003:00000768       ??_R0?AVCPrecision@@@8     1007d768     CurPost.obj
 0003:00000788       ??_R0?AVCScaleFactor@@@8   1007d788     CurPost.obj
 0003:000007a8       ??_R0?AVCUnit@@@8          1007d7a8     CurPost.obj
 0003:000007c0       ??_R0?AVCElemInfo@@@8      1007d7c0     CurPost.obj
 0003:000007e0       ??_R0?AVCMouse@@@8         1007d7e0     CurPost.obj
 0003:00000800       ??_R0?AVCNodPost@@@8       1007d800     CurPost.obj
 0003:00000820       ??_R0?AVCCurPost@@@8       1007d820     CurPost.obj
 0003:0000083c       ?__LINE__Var@?1??InitDlgIn_CUR@CCurPost@@QAEXXZ@4FA 1007d83c     CurPost.obj
 0003:00000840       ?__LINE__Var@?1??RightUp_NotAutoAccept_CUR@CCurPost@@IAEHXZ@4FA 1007d840     CurPost.obj
 0003:00000844       ?__LINE__Var@?1??ShowInputInfo_INODE@CCurPost@@IAEHXZ@4FA 1007d844     CurPost.obj
 0003:00000848       ?__LINE__Var@?1??ShowInputInfo_CNODE@CCurPost@@IAEHXZ@4FA 1007d848     CurPost.obj
 0003:0000084c       ?__LINE__Var@?1??ShowInputInfo_TRUSS@CCurPost@@IAEHXZ@4FA 1007d84c     CurPost.obj
 0003:00000850       ?__LINE__Var@?1??ShowInputInfo_BEAM@CCurPost@@IAEHXZ@4FA 1007d850     CurPost.obj
 0003:00000854       ?__LINE__Var@?1??ShowInputInfo_PIPE@CCurPost@@IAEHXZ@4FA 1007d854     CurPost.obj
 0003:00000858       ?__LINE__Var@?1??ShowInputInfo_ELBOW@CCurPost@@IAEHXZ@4FA 1007d858     CurPost.obj
 0003:00000860       ??_R0?AV?$CList@HH@@@8     1007d860     CurPost.obj
 0003:000008b0       ?classCNodPost@CNodPost@@2UCRuntimeClass@@A 1007d8b0     NodPost.obj
 0003:000008d8       ?__LINE__Var@?1??InitDlgIn_NOD@CNodPost@@QAEXXZ@4FA 1007d8d8     NodPost.obj
 0003:000008dc       ?__LINE__Var@?1??LeftUp_NODE@CNodPost@@IAEHVCPoint@@HH@Z@4FA 1007d8dc     NodPost.obj
 0003:000008e0       ?__LINE__Var@?1??RightUp_NotAutoAccept_NOD@CNodPost@@IAEHXZ@4FA 1007d8e0     NodPost.obj
 0003:000008e4       ?__LINE__Var@?1??ShowInputInfo_BALLJOINT@CNodPost@@IAEHXZ@4FA 1007d8e4     NodPost.obj
 0003:00000918       ?classCPatPost@CPatPost@@2UCRuntimeClass@@A 1007d918     PatPost.obj
 0003:00000940       ??_R0?AVCPatPost@@@8       1007d940     PatPost.obj
 0003:0000095c       ?__LINE__Var@?1??InitDlgIn_PAT@CPatPost@@QAEXXZ@4FA 1007d95c     PatPost.obj
 0003:00000960       ??_R0?AVCCalcTime@@@8      1007d960     PatPost.obj
 0003:0000097c       ?__LINE__Var@?1??RightUp_NotAutoAccept_PAT@CPatPost@@IAEHXZ@4FA 1007d97c     PatPost.obj
 0003:00000980       ?__LINE__Var@?1??ShowInputInfo_QUADorTRI@CPatPost@@IAEHH@Z@4FA 1007d980     PatPost.obj
 0003:000009a8       __pRawDllMain              1007d9a8     PmgrDll.obj
 0003:000009e8       ?classCPostMgr@CPostMgr@@2UCRuntimeClass@@A 1007d9e8     PostMgr.obj
 0003:00000a10       ??_R0?AVCPostMgr@@@8       1007da10     PostMgr.obj
 0003:00000a30       ?GUID_ATLVer30@ATL@@3U_GUID@@A 1007da30     mfcs42d:stdafx.obj
 0003:00000a40       ??_R0?AVtype_info@@@8      1007da40     msvcrtd:ti_inst.obj
 0003:00000b90       ?_init_CCurPost@@3UAFX_CLASSINIT@@A 1007db90     CurPost.obj
 0003:00000b94       ?_init_CNodPost@@3UAFX_CLASSINIT@@A 1007db94     NodPost.obj
 0003:00000b98       ?_init_CPatPost@@3UAFX_CLASSINIT@@A 1007db98     PatPost.obj
 0003:00000bc8       __afxForceEXTDLL           1007dbc8     PmgrDll.obj
 0003:00000bd0       ?extensionPMgr_DLL@@3UAFX_EXTENSION_MODULE@@A 1007dbd0     PmgrDll.obj
 0003:00000bec       ?_init_CPostMgr@@3UAFX_CLASSINIT@@A 1007dbec     PostMgr.obj
 0003:00000bf0       __afxForceEXCLUDE          1007dbf0     mfcs42d:nolib.obj
 0003:00000bf4       ?ATL_CREATE_OBJECT@CComApartment@ATL@@2IA 1007dbf4     mfcs42d:stdafx.obj
 0003:00000bf8       ?m_libid@CComModule@ATL@@2U_GUID@@A 1007dbf8     mfcs42d:stdafx.obj
 0003:00000c08       ?_pModule@ATL@@3PAVCComModule@1@A 1007dc08     mfcs42d:stdafx.obj
 0003:00000c0c       __afxForceSTDAFX           1007dc0c     mfcs42d:stdafx.obj
 0003:00000c14       __adjust_fdiv              1007dc14     <common>
 0003:00000c20       ___onexitend               1007dc20     <common>
 0003:00000c30       ___onexitbegin             1007dc30     <common>
 0004:00000000       __IMPORT_DESCRIPTOR_OMgr_D32 1007e000     OMgr_D32:OMgr_D32.dll
 0004:00000014       __IMPORT_DESCRIPTOR_Spec_D32 1007e014     Spec_d32:Spec_D32.dll
 0004:00000028       __IMPORT_DESCRIPTOR_Draw_D32 1007e028     Draw_D32:Draw_D32.dll
 0004:0000003c       __IMPORT_DESCRIPTOR_Elem_D32 1007e03c     Elem_D32:Elem_D32.dll
 0004:00000050       __IMPORT_DESCRIPTOR_OGEN_D32 1007e050     OGen_D32:OGEN_D32.dll
 0004:00000064       __IMPORT_DESCRIPTOR_EDlg_D32 1007e064     EDlg_D32:EDlg_D32.dll
 0004:00000078       __IMPORT_DESCRIPTOR_Dr3D_D32 1007e078     Dr3D_D32:Dr3D_D32.dll
 0004:0000008c       __IMPORT_DESCRIPTOR_MCur_D32 1007e08c     MCur_D32:MCur_D32.dll
 0004:000000a0       __IMPORT_DESCRIPTOR_MPat_D32 1007e0a0     MPat_D32:MPat_D32.dll
 0004:000000b4       __IMPORT_DESCRIPTOR_MMgr_D32 1007e0b4     MMgr_D32:MMgr_D32.dll
 0004:000000c8       __IMPORT_DESCRIPTOR_MMs1_D32 1007e0c8     MMs1_D32:MMs1_D32.dll
 0004:000000dc       __IMPORT_DESCRIPTOR_MMs2_D32 1007e0dc     MMs2_D32:MMs2_D32.dll
 0004:000000f0       __IMPORT_DESCRIPTOR_MFC42D 1007e0f0     mfc42d:MFC42D.DLL
 0004:00000104       __IMPORT_DESCRIPTOR_MSVCRTD 1007e104     msvcrtd:MSVCRTD.dll
 0004:00000118       __IMPORT_DESCRIPTOR_USER32 1007e118     user32:USER32.dll
 0004:0000012c       __NULL_IMPORT_DESCRIPTOR   1007e12c     OMgr_D32:OMgr_D32.dll
 0004:000009b4       __imp_??0C3DMath@@QAE@XZ   1007e9b4     Dr3D_D32:Dr3D_D32.dll
 0004:000009b8       __imp_?BlockCopy@C3DMath@@QAEXPAD0K@Z 1007e9b8     Dr3D_D32:Dr3D_D32.dll
 0004:000009bc       __imp_?GetRuntimeClass@C3DMath@@UBEPAUCRuntimeClass@@XZ 1007e9bc     Dr3D_D32:Dr3D_D32.dll
 0004:000009c0       __imp_?Serialize@C3DMath@@UAEXAAVCArchive@@@Z 1007e9c0     Dr3D_D32:Dr3D_D32.dll
 0004:000009c4       \177Dr3D_D32_NULL_THUNK_DATA 1007e9c4     Dr3D_D32:Dr3D_D32.dll
 0004:000009f0       __imp_?SetCorner@CDrLabel@@UAEXUtagPOINT@@H@Z 1007e9f0     Draw_D32:Draw_D32.dll
 0004:000009f4       __imp_?GetRuntimeClass@CDrLabel@@UBEPAUCRuntimeClass@@XZ 1007e9f4     Draw_D32:Draw_D32.dll
 0004:000009f8       __imp_?Serialize@CDrLabel@@UAEXAAVCArchive@@@Z 1007e9f8     Draw_D32:Draw_D32.dll
 0004:000009fc       __imp_?DoDataView@CDrLabel@@UAEXPAVCDC@@H@Z 1007e9fc     Draw_D32:Draw_D32.dll
 0004:00000a00       __imp_?InitDraw@CDrLabel@@UAEXPAVCDC@@HHPAUMATRIX@@1NNN@Z 1007ea00     Draw_D32:Draw_D32.dll
 0004:00000a04       __imp_?Corner_3Dto2D@CDrLabel@@UAEXXZ 1007ea04     Draw_D32:Draw_D32.dll
 0004:00000a08       __imp_?DoDrawView@CDrLabel@@UAEXPAVCDC@@HH@Z 1007ea08     Draw_D32:Draw_D32.dll
 0004:00000a0c       __imp_?DealObjectDialog@CDrLabel@@UAEHXZ 1007ea0c     Draw_D32:Draw_D32.dll
 0004:00000a10       __imp_?FinishObject@CDrLabel@@UAEXPAVCClientDC@@H@Z 1007ea10     Draw_D32:Draw_D32.dll
 0004:00000a14       __imp_?GetRawCoords@CDrLabel@@UAEXPAJPAHH@Z 1007ea14     Draw_D32:Draw_D32.dll
 0004:00000a18       __imp_?IsObjectHit@CDrLabel@@UAEHPAVCClientDC@@HUtagPOINT@@PAVCRect@@H@Z 1007ea18     Draw_D32:Draw_D32.dll
 0004:00000a1c       __imp_?IsKeyMatch@CDrLabel@@UAEHPAVCDrObject@@VCString@@I@Z 1007ea1c     Draw_D32:Draw_D32.dll
 0004:00000a20       __imp_?Pack_drPipe@CDrLabel@@UAEXPAVCString@@@Z 1007ea20     Draw_D32:Draw_D32.dll
 0004:00000a24       __imp_?SetObjectInfo@CDrLabel@@UAEXPAVCDrObject@@@Z 1007ea24     Draw_D32:Draw_D32.dll
 0004:00000a28       __imp_?GetObjectInfo@CDrLabel@@UAEXPAVCDrObject@@@Z 1007ea28     Draw_D32:Draw_D32.dll
 0004:00000a2c       __imp_?GetCorner@CDrLabel@@UAE?AUtagPOINT@@H@Z 1007ea2c     Draw_D32:Draw_D32.dll
 0004:00000a30       \177Draw_D32_NULL_THUNK_DATA 1007ea30     Draw_D32:Draw_D32.dll
 0004:00000a68       __imp_?Create@CDlg_FE1I@@QAEHXZ 1007ea68     EDlg_D32:EDlg_D32.dll
 0004:00000a6c       __imp_??0CDlg_FE0I@@QAE@PAVCWnd@@@Z 1007ea6c     EDlg_D32:EDlg_D32.dll
 0004:00000a70       __imp_?Create@CDlg_FE0I@@QAEHXZ 1007ea70     EDlg_D32:EDlg_D32.dll
 0004:00000a74       __imp_??0CDlg_FE2I@@QAE@PAVCWnd@@@Z 1007ea74     EDlg_D32:EDlg_D32.dll
 0004:00000a78       __imp_?Create@CDlg_FE2I@@QAEHXZ 1007ea78     EDlg_D32:EDlg_D32.dll
 0004:00000a7c       __imp_??0CDlg_FE1I@@QAE@PAVCWnd@@@Z 1007ea7c     EDlg_D32:EDlg_D32.dll
 0004:00000a80       __imp_?FillRefRule@CDlg_FE2I@@QAEXXZ 1007ea80     EDlg_D32:EDlg_D32.dll
 0004:00000a84       \177EDlg_D32_NULL_THUNK_DATA 1007ea84     EDlg_D32:EDlg_D32.dll
 0004:00000ab4       __imp_?GetObjectInfo@CElemInfo@@UAEXPAVCDrObject@@@Z 1007eab4     Elem_D32:Elem_D32.dll
 0004:00000ab8       __imp_?GetRuntimeClass@CElemInfo@@UBEPAUCRuntimeClass@@XZ 1007eab8     Elem_D32:Elem_D32.dll
 0004:00000abc       __imp_?Serialize@CElemInfo@@UAEXAAVCArchive@@@Z 1007eabc     Elem_D32:Elem_D32.dll
 0004:00000ac0       __imp_?Init@CElemInfo@@UAEXXZ 1007eac0     Elem_D32:Elem_D32.dll
 0004:00000ac4       __imp_?ReadDefault@CElemInfo@@UAEXXZ 1007eac4     Elem_D32:Elem_D32.dll
 0004:00000ac8       __imp_?SetObjectInfo@CElemInfo@@UAEXPAVCDrObject@@@Z 1007eac8     Elem_D32:Elem_D32.dll
 0004:00000acc       __imp_?Pack_drPipe@CElemInfo@@UAEXPAVCString@@@Z 1007eacc     Elem_D32:Elem_D32.dll
 0004:00000ad0       __imp_?DoDataView@CElemInfo@@UAEXPAVCDC@@H@Z 1007ead0     Elem_D32:Elem_D32.dll
 0004:00000ad4       \177Elem_D32_NULL_THUNK_DATA 1007ead4     Elem_D32:Elem_D32.dll
 0004:00000b04       __imp_?FillMeshNodesCurve@CMI_GangC@@QAEHPAVCDrCurve@@PAUWORLD@@PANH@Z 1007eb04     MCur_D32:MCur_D32.dll
 0004:00000b08       __imp_??1CMI_GangC@@UAE@XZ 1007eb08     MCur_D32:MCur_D32.dll
 0004:00000b0c       __imp_??0CMI_GangC@@QAE@XZ 1007eb0c     MCur_D32:MCur_D32.dll
 0004:00000b10       \177MCur_D32_NULL_THUNK_DATA 1007eb10     MCur_D32:MCur_D32.dll
 0004:00000b3c       __imp_?WriteCount@CArchive@@QAEXK@Z 1007eb3c     mfc42d:MFC42D.DLL
 0004:00000b40       __imp_?AfxIsValidAddress@@YGHPBXIH@Z 1007eb40     mfc42d:MFC42D.DLL
 0004:00000b44       __imp_?ReadCount@CArchive@@QAEKXZ 1007eb44     mfc42d:MFC42D.DLL
 0004:00000b48       __imp_?AfxAssertFailedLine@@YGHPBDH@Z 1007eb48     mfc42d:MFC42D.DLL
 0004:00000b4c       __imp_?GetRuntimeClass@CObject@@UBEPAUCRuntimeClass@@XZ 1007eb4c     mfc42d:MFC42D.DLL
 0004:00000b50       __imp_?IsStoring@CArchive@@QBEHXZ 1007eb50     mfc42d:MFC42D.DLL
 0004:00000b54       __imp_?AfxTrace@@YAXPBDZZ  1007eb54     mfc42d:MFC42D.DLL
 0004:00000b58       __imp_??YCString@@QAEABV0@PBD@Z 1007eb58     mfc42d:MFC42D.DLL
 0004:00000b5c       __imp_?GetSafeHwnd@CWnd@@QBEPAUHWND__@@XZ 1007eb5c     mfc42d:MFC42D.DLL
 0004:00000b60       __imp_??0CRect@@QAE@XZ     1007eb60     mfc42d:MFC42D.DLL
 0004:00000b64       __imp_??0CWnd@@QAE@XZ      1007eb64     mfc42d:MFC42D.DLL
 0004:00000b68       __imp_?GetWindowRect@CWnd@@QBEXPAUtagRECT@@@Z 1007eb68     mfc42d:MFC42D.DLL
 0004:00000b6c       __imp_?Height@CRect@@QBEHXZ 1007eb6c     mfc42d:MFC42D.DLL
 0004:00000b70       __imp_?Width@CRect@@QBEHXZ 1007eb70     mfc42d:MFC42D.DLL
 0004:00000b74       __imp_?SetWindowPos@CWnd@@QAEHPBV1@HHHHI@Z 1007eb74     mfc42d:MFC42D.DLL
 0004:00000b78       __imp_??1CWnd@@UAE@XZ      1007eb78     mfc42d:MFC42D.DLL
 0004:00000b7c       __imp_?SetActiveWindow@CWnd@@QAEPAV1@XZ 1007eb7c     mfc42d:MFC42D.DLL
 0004:00000b80       __imp_?SendMessageA@CWnd@@QAEJIIJ@Z 1007eb80     mfc42d:MFC42D.DLL
 0004:00000b84       __imp_??2@YAPAXIPBDH@Z     1007eb84     mfc42d:MFC42D.DLL
 0004:00000b88       __imp_?GetBuffer@CString@@QAEPADH@Z 1007eb88     mfc42d:MFC42D.DLL
 0004:00000b8c       __imp_??BCString@@QBEPBDXZ 1007eb8c     mfc42d:MFC42D.DLL
 0004:00000b90       __imp_??3@YAXPAXPBDH@Z     1007eb90     mfc42d:MFC42D.DLL
 0004:00000b94       __imp_?LPtoDP@CDC@@QBEXPAUtagPOINT@@H@Z 1007eb94     mfc42d:MFC42D.DLL
 0004:00000b98       __imp_??0CPoint@@QAE@UtagPOINT@@@Z 1007eb98     mfc42d:MFC42D.DLL
 0004:00000b9c       __imp_?AfxMessageBox@@YGHPBDII@Z 1007eb9c     mfc42d:MFC42D.DLL
 0004:00000ba0       __imp_??H@YG?AVCString@@PBDABV0@@Z 1007eba0     mfc42d:MFC42D.DLL
 0004:00000ba4       __imp_?Invalidate@CWnd@@QAEXH@Z 1007eba4     mfc42d:MFC42D.DLL
 0004:00000ba8       __imp_?UpdateWindow@CWnd@@QAEXXZ 1007eba8     mfc42d:MFC42D.DLL
 0004:00000bac       __imp_?GetDlgItem@CWnd@@QBEPAV1@H@Z 1007ebac     mfc42d:MFC42D.DLL
 0004:00000bb0       __imp_?SetWindowTextA@CWnd@@QAEXPBD@Z 1007ebb0     mfc42d:MFC42D.DLL
 0004:00000bb4       __imp_?EnableWindow@CWnd@@QAEHH@Z 1007ebb4     mfc42d:MFC42D.DLL
 0004:00000bb8       __imp_?AfxAssertValidObject@@YGXPBVCObject@@PBDH@Z 1007ebb8     mfc42d:MFC42D.DLL
 0004:00000bbc       __imp_?DPtoLP@CDC@@QBEXPAUtagPOINT@@H@Z 1007ebbc     mfc42d:MFC42D.DLL
 0004:00000bc0       __imp_?GetCount@CObList@@QBEHXZ 1007ebc0     mfc42d:MFC42D.DLL
 0004:00000bc4       __imp_?AfxGetApp@@YGPAVCWinApp@@XZ 1007ebc4     mfc42d:MFC42D.DLL
 0004:00000bc8       __imp_??4CString@@QAEABV0@PBD@Z 1007ebc8     mfc42d:MFC42D.DLL
 0004:00000bcc       __imp_?AfxGetMainWnd@@YGPAVCWnd@@XZ 1007ebcc     mfc42d:MFC42D.DLL
 0004:00000bd0       __imp_??0CString@@QAE@XZ   1007ebd0     mfc42d:MFC42D.DLL
 0004:00000bd4       __imp_?ReadObject@CArchive@@QAEPAVCObject@@PBUCRuntimeClass@@@Z 1007ebd4     mfc42d:MFC42D.DLL
 0004:00000bd8       __imp_?AfxClassInit@@YGXPAUCRuntimeClass@@@Z 1007ebd8     mfc42d:MFC42D.DLL
 0004:00000bdc       __imp_??2CObject@@SGPAXIPBDH@Z 1007ebdc     mfc42d:MFC42D.DLL
 0004:00000be0       __imp_??3CObject@@SGXPAXPBDH@Z 1007ebe0     mfc42d:MFC42D.DLL
 0004:00000be4       __imp_??1CPen@@UAE@XZ      1007ebe4     mfc42d:MFC42D.DLL
 0004:00000be8       __imp_??2@YAPAXI@Z         1007ebe8     mfc42d:MFC42D.DLL
 0004:00000bec       __imp_?Serialize@CObject@@UAEXAAVCArchive@@@Z 1007ebec     mfc42d:MFC42D.DLL
 0004:00000bf0       __imp_??4CString@@QAEABV0@ABV0@@Z 1007ebf0     mfc42d:MFC42D.DLL
 0004:00000bf4       __imp_??0CString@@QAE@ABV0@@Z 1007ebf4     mfc42d:MFC42D.DLL
 0004:00000bf8       __imp_??3@YAXPAX@Z         1007ebf8     mfc42d:MFC42D.DLL
 0004:00000bfc       __imp_??3CObject@@SGXPAX@Z 1007ebfc     mfc42d:MFC42D.DLL
 0004:00000c00       __imp_??2CObject@@SGPAXI@Z 1007ec00     mfc42d:MFC42D.DLL
 0004:00000c04       __imp_?AssertValid@CObject@@UBEXXZ 1007ec04     mfc42d:MFC42D.DLL
 0004:00000c08       __imp_?Dump@CObject@@UBEXAAVCDumpContext@@@Z 1007ec08     mfc42d:MFC42D.DLL
 0004:00000c0c       __imp_??1CString@@QAE@XZ   1007ec0c     mfc42d:MFC42D.DLL
 0004:00000c10       __imp_??1CDialog@@UAE@XZ   1007ec10     mfc42d:MFC42D.DLL
 0004:00000c14       __imp_?GetDepth@CDumpContext@@QBEHXZ 1007ec14     mfc42d:MFC42D.DLL
 0004:00000c18       __imp_??6CDumpContext@@QAEAAV0@H@Z 1007ec18     mfc42d:MFC42D.DLL
 0004:00000c1c       __imp_??6CDumpContext@@QAEAAV0@PBD@Z 1007ec1c     mfc42d:MFC42D.DLL
 0004:00000c20       __imp_?FreeDataChain@CPlex@@QAEXXZ 1007ec20     mfc42d:MFC42D.DLL
 0004:00000c24       __imp_?Read@CArchive@@QAEIPAXI@Z 1007ec24     mfc42d:MFC42D.DLL
 0004:00000c28       __imp_?Write@CArchive@@QAEXPBXI@Z 1007ec28     mfc42d:MFC42D.DLL
 0004:00000c2c       __imp_?Create@CPlex@@SGPAU1@AAPAU1@II@Z 1007ec2c     mfc42d:MFC42D.DLL
 0004:00000c30       __imp_??8@YG_NABVCString@@PBD@Z 1007ec30     mfc42d:MFC42D.DLL
 0004:00000c34       __imp_??0CString@@QAE@PBD@Z 1007ec34     mfc42d:MFC42D.DLL
 0004:00000c38       __imp_??1CObject@@UAE@XZ   1007ec38     mfc42d:MFC42D.DLL
 0004:00000c3c       __imp_??0CObject@@IAE@XZ   1007ec3c     mfc42d:MFC42D.DLL
 0004:00000c40       __imp_?AfxGetResourceHandle@@YGPAUHINSTANCE__@@XZ 1007ec40     mfc42d:MFC42D.DLL
 0004:00000c44       __imp_?AfxSetResourceHandle@@YGXPAUHINSTANCE__@@@Z 1007ec44     mfc42d:MFC42D.DLL
 0004:00000c48       __imp_?LoadStringA@CString@@QAEHI@Z 1007ec48     mfc42d:MFC42D.DLL
 0004:00000c4c       __imp_?LoadStandardCursor@CWinApp@@QBEPAUHICON__@@PBD@Z 1007ec4c     mfc42d:MFC42D.DLL
 0004:00000c50       __imp_?LoadCursorA@CWinApp@@QBEPAUHICON__@@I@Z 1007ec50     mfc42d:MFC42D.DLL
 0004:00000c54       __imp_?classCObject@CObject@@2UCRuntimeClass@@B 1007ec54     mfc42d:MFC42D.DLL
 0004:00000c58       __imp_?AfxInitExtensionModule@@YGHAAUAFX_EXTENSION_MODULE@@PAUHINSTANCE__@@@Z 1007ec58     mfc42d:MFC42D.DLL
 0004:00000c5c       __imp_?ReleaseBuffer@CString@@QAEXH@Z 1007ec5c     mfc42d:MFC42D.DLL
 0004:00000c60       __imp_?AfxGetModuleState@@YGPAVAFX_MODULE_STATE@@XZ 1007ec60     mfc42d:MFC42D.DLL
 0004:00000c64       __imp_?UpdateData@CWnd@@QAEHH@Z 1007ec64     mfc42d:MFC42D.DLL
 0004:00000c68       __imp_??0CDynLinkLibrary@@QAE@AAUAFX_EXTENSION_MODULE@@H@Z 1007ec68     mfc42d:MFC42D.DLL
 0004:00000c6c       \177MFC42D_NULL_THUNK_DATA 1007ec6c     mfc42d:MFC42D.DLL
 0004:00000cd4       __imp_??0CCalcTime@@QAE@XZ 1007ecd4     MMgr_D32:MMgr_D32.dll
 0004:00000cd8       __imp_?StartClock@CCalcTime@@QAEXXZ 1007ecd8     MMgr_D32:MMgr_D32.dll
 0004:00000cdc       __imp_?StopClock@CCalcTime@@QAEXXZ 1007ecdc     MMgr_D32:MMgr_D32.dll
 0004:00000ce0       __imp_?OutComment@CCalcTime@@QAEXAAVCString@@@Z 1007ece0     MMgr_D32:MMgr_D32.dll
 0004:00000ce4       __imp_?OutDuration@CCalcTime@@QAEXAAVCString@@@Z 1007ece4     MMgr_D32:MMgr_D32.dll
 0004:00000ce8       __imp_?Serialize@CMouse@@UAEXAAVCArchive@@@Z 1007ece8     MMgr_D32:MMgr_D32.dll
 0004:00000cec       __imp_?WORtoWOP@CMouse@@QAEXPAUWORLD@@0@Z 1007ecec     MMgr_D32:MMgr_D32.dll
 0004:00000cf0       __imp_??0CMouse@@QAE@XZ    1007ecf0     MMgr_D32:MMgr_D32.dll
 0004:00000cf4       __imp_??1CMouse@@UAE@XZ    1007ecf4     MMgr_D32:MMgr_D32.dll
 0004:00000cf8       __imp_?classCMouse@CMouse@@2UCRuntimeClass@@A 1007ecf8     MMgr_D32:MMgr_D32.dll
 0004:00000cfc       __imp_?SetMouseOldWIC@CMouse@@QAEXULPOINT3@@@Z 1007ecfc     MMgr_D32:MMgr_D32.dll
 0004:00000d00       __imp_?LOGtoWIC2@CMouse@@IAEXPAULPOINT3@@PAULPOINT@@0@Z 1007ed00     MMgr_D32:MMgr_D32.dll
 0004:00000d04       __imp_?SetMouseWIC@CMouse@@QAEXULPOINT3@@@Z 1007ed04     MMgr_D32:MMgr_D32.dll
 0004:00000d08       __imp_?SetStatusMouseWIC@CMouseMgr@@QAEXULPOINT3@@@Z 1007ed08     MMgr_D32:MMgr_D32.dll
 0004:00000d0c       __imp_?WORtoWOP@CMouse@@QAEXPAN0@Z 1007ed0c     MMgr_D32:MMgr_D32.dll
 0004:00000d10       __imp_?IsObjectHit@CMouse@@IAEHHUtagPOINT@@H@Z 1007ed10     MMgr_D32:MMgr_D32.dll
 0004:00000d14       __imp_?GetRuntimeClass@CCalcTime@@UBEPAUCRuntimeClass@@XZ 1007ed14     MMgr_D32:MMgr_D32.dll
 0004:00000d18       \177MMgr_D32_NULL_THUNK_DATA 1007ed18     MMgr_D32:MMgr_D32.dll
 0004:00000d50       __imp_?ShowCurveInfo@CMI_Gang1@@QAEHPAVCDrCurve@@@Z 1007ed50     MMs1_D32:MMs1_D32.dll
 0004:00000d54       __imp_?Post_Curve_Elements@CMI_Gang1@@QAEHPAVCDrObject@@0II@Z 1007ed54     MMs1_D32:MMs1_D32.dll
 0004:00000d58       __imp_?GenPost_CurveNodes@CMI_Gang1@@QAEHPAVCDrMesh1D@@PAVCDrCurve@@HH@Z 1007ed58     MMs1_D32:MMs1_D32.dll
 0004:00000d5c       __imp_?Post_CurveNodes_IorC@CMI_Gang1@@QAEHPAVCDrCurve@@PAUWORLD@@HH@Z 1007ed5c     MMs1_D32:MMs1_D32.dll
 0004:00000d60       __imp_??1CMI_Gang1@@UAE@XZ 1007ed60     MMs1_D32:MMs1_D32.dll
 0004:00000d64       __imp_??0CMI_Gang1@@QAE@XZ 1007ed64     MMs1_D32:MMs1_D32.dll
 0004:00000d68       \177MMs1_D32_NULL_THUNK_DATA 1007ed68     MMs1_D32:MMs1_D32.dll
 0004:00000d98       __imp_?Post_Patch_TRIANGLES@CMI_Tang2@@QAEHPAVCDrObject@@0II@Z 1007ed98     MMs2_D32:MMs2_D32.dll
 0004:00000d9c       __imp_?Post_PatchNodes_FE0D_4@CMI_Qang2@@QAEHPAVCDrObject@@IPAUWORLD@@HHHHHH@Z 1007ed9c     MMs2_D32:MMs2_D32.dll
 0004:00000da0       __imp_?Post_Patch_QUADRILATS@CMI_Qang2@@QAEHPAVCDrObject@@0II@Z 1007eda0     MMs2_D32:MMs2_D32.dll
 0004:00000da4       __imp_??1CMI_Tang2@@UAE@XZ 1007eda4     MMs2_D32:MMs2_D32.dll
 0004:00000da8       __imp_?ShowPatchInfo@CMI_Gang2@@QAEHPAVCDrPatch@@@Z 1007eda8     MMs2_D32:MMs2_D32.dll
 0004:00000dac       __imp_??0CMI_Tang2@@QAE@XZ 1007edac     MMs2_D32:MMs2_D32.dll
 0004:00000db0       __imp_?Post_PatchNodes_IorC_3@CMI_Tang2@@QAEHPAVCDrPatch@@PAUWORLD@@HH@Z 1007edb0     MMs2_D32:MMs2_D32.dll
 0004:00000db4       __imp_?Post_PatchNodes_FE0D_3@CMI_Tang2@@QAEHPAVCDrObject@@IPAVCDrPatch@@PAUWORLD@@HHH@Z 1007edb4     MMs2_D32:MMs2_D32.dll
 0004:00000db8       __imp_?Post_PatchEdges_FE1D_4@CMI_Qang2@@QAEHPAVCDrMesh2D@@@Z 1007edb8     MMs2_D32:MMs2_D32.dll
 0004:00000dbc       __imp_?Post_PatchEdges_FE1D_3@CMI_Tang2@@QAEHPAVCDrMesh2D@@@Z 1007edbc     MMs2_D32:MMs2_D32.dll
 0004:00000dc0       __imp_??0CMI_Qang2@@QAE@XZ 1007edc0     MMs2_D32:MMs2_D32.dll
 0004:00000dc4       __imp_?Post_PatchNodes_IorC_4@CMI_Qang2@@QAEHPAVCDrPatch@@PAUWORLD@@HH@Z 1007edc4     MMs2_D32:MMs2_D32.dll
 0004:00000dc8       __imp_??1CMI_Qang2@@UAE@XZ 1007edc8     MMs2_D32:MMs2_D32.dll
 0004:00000dcc       \177MMs2_D32_NULL_THUNK_DATA 1007edcc     MMs2_D32:MMs2_D32.dll
 0004:00000e00       __imp_?FillMeshNodesPatch@CMI_GangP@@QAEHPAVCDrPatch@@PAUWORLD@@PAN@Z 1007ee00     MPat_D32:MPat_D32.dll
 0004:00000e04       __imp_??1CMI_GangP@@UAE@XZ 1007ee04     MPat_D32:MPat_D32.dll
 0004:00000e08       __imp_??0CMI_GangP@@QAE@XZ 1007ee08     MPat_D32:MPat_D32.dll
 0004:00000e0c       \177MPat_D32_NULL_THUNK_DATA 1007ee0c     MPat_D32:MPat_D32.dll
 0004:00000e38       __imp___initterm           1007ee38     msvcrtd:MSVCRTD.dll
 0004:00000e3c       __imp___malloc_dbg         1007ee3c     msvcrtd:MSVCRTD.dll
 0004:00000e40       __imp___adjust_fdiv        1007ee40     msvcrtd:MSVCRTD.dll
 0004:00000e44       __imp___onexit             1007ee44     msvcrtd:MSVCRTD.dll
 0004:00000e48       __imp_??1type_info@@UAE@XZ 1007ee48     msvcrtd:MSVCRTD.dll
 0004:00000e4c       __imp__memset              1007ee4c     msvcrtd:MSVCRTD.dll
 0004:00000e50       __imp__sprintf             1007ee50     msvcrtd:MSVCRTD.dll
 0004:00000e54       __imp__sqrt                1007ee54     msvcrtd:MSVCRTD.dll
 0004:00000e58       __imp____CxxFrameHandler   1007ee58     msvcrtd:MSVCRTD.dll
 0004:00000e5c       __imp____dllonexit         1007ee5c     msvcrtd:MSVCRTD.dll
 0004:00000e60       __imp_?terminate@@YAXXZ    1007ee60     msvcrtd:MSVCRTD.dll
 0004:00000e64       __imp___free_dbg           1007ee64     msvcrtd:MSVCRTD.dll
 0004:00000e68       __imp___except_handler3    1007ee68     msvcrtd:MSVCRTD.dll
 0004:00000e6c       \177MSVCRTD_NULL_THUNK_DATA 1007ee6c     msvcrtd:MSVCRTD.dll
 0004:00000ea0       __imp_?GetRuntimeClass@CTriangle@@UBEPAUCRuntimeClass@@XZ 1007eea0     OGen_D32:OGEN_D32.dll
 0004:00000ea4       \177OGEN_D32_NULL_THUNK_DATA 1007eea4     OGen_D32:OGEN_D32.dll
 0004:00000ed0       __imp_?ShowObject_On_Off@CObjectMgr@@QAEHPAVCDrObject@@IH@Z 1007eed0     OMgr_D32:OMgr_D32.dll
 0004:00000ed4       __imp_?UpdateAllViewsWithActiveIndex@CMsObjMgr@@QAEXPAVCView@@IH@Z 1007eed4     OMgr_D32:OMgr_D32.dll
 0004:00000ed8       __imp_?UpdateAllViewsWithActiveIndex@CObjectMgr@@QAEXPAVCView@@IH@Z 1007eed8     OMgr_D32:OMgr_D32.dll
 0004:00000edc       __imp_?GetSpecObject@CObjectMgr@@QAEPAVCDrObject@@H@Z 1007eedc     OMgr_D32:OMgr_D32.dll
 0004:00000ee0       __imp_?SetElemInfoID@CMsObjMgr@@QAEHAAVCString@@I@Z 1007eee0     OMgr_D32:OMgr_D32.dll
 0004:00000ee4       \177OMgr_D32_NULL_THUNK_DATA 1007eee4     OMgr_D32:OMgr_D32.dll
 0004:00000f14       __imp_?InsertObject@CDListMgr@@QAEHPAVCObject@@@Z 1007ef14     Spec_d32:Spec_D32.dll
 0004:00000f18       __imp_?GetObjectA@CDListMgr@@QAEPAVCObject@@H@Z 1007ef18     Spec_d32:Spec_D32.dll
 0004:00000f1c       __imp_?GetObjectIndex@CDListMgr@@QAEHIVCString@@@Z 1007ef1c     Spec_d32:Spec_D32.dll
 0004:00000f20       __imp_??1CDListMgr@@UAE@XZ 1007ef20     Spec_d32:Spec_D32.dll
 0004:00000f24       __imp_?GetRuntimeClass@CUnit@@UBEPAUCRuntimeClass@@XZ 1007ef24     Spec_d32:Spec_D32.dll
 0004:00000f28       __imp_?Serialize@CUnit@@UAEXAAVCArchive@@@Z 1007ef28     Spec_d32:Spec_D32.dll
 0004:00000f2c       __imp_?DoDataView@CUnit@@UAEXPAVCDC@@H@Z 1007ef2c     Spec_d32:Spec_D32.dll
 0004:00000f30       __imp_?Pack_drPipe@CUnit@@UAEXPAVCString@@@Z 1007ef30     Spec_d32:Spec_D32.dll
 0004:00000f34       __imp_?GetObjectInfo@CUnit@@UAEXPAVCDrObject@@@Z 1007ef34     Spec_d32:Spec_D32.dll
 0004:00000f38       __imp_?SetObjectInfo@CUnit@@UAEXPAVCDrObject@@@Z 1007ef38     Spec_d32:Spec_D32.dll
 0004:00000f3c       __imp_?ReadDefaultUnit@CUnit@@UAEXXZ 1007ef3c     Spec_d32:Spec_D32.dll
 0004:00000f40       __imp_?InitUnit@CUnit@@UAEXXZ 1007ef40     Spec_d32:Spec_D32.dll
 0004:00000f44       __imp_?GetRuntimeClass@CScaleFactor@@UBEPAUCRuntimeClass@@XZ 1007ef44     Spec_d32:Spec_D32.dll
 0004:00000f48       __imp_?Serialize@CScaleFactor@@UAEXAAVCArchive@@@Z 1007ef48     Spec_d32:Spec_D32.dll
 0004:00000f4c       __imp_?DoDataView@CScaleFactor@@UAEXPAVCDC@@H@Z 1007ef4c     Spec_d32:Spec_D32.dll
 0004:00000f50       __imp_?Pack_drPipe@CScaleFactor@@UAEXPAVCString@@@Z 1007ef50     Spec_d32:Spec_D32.dll
 0004:00000f54       __imp_?GetObjectInfo@CScaleFactor@@UAEXPAVCDrObject@@@Z 1007ef54     Spec_d32:Spec_D32.dll
 0004:00000f58       __imp_?SetObjectInfo@CScaleFactor@@UAEXPAVCDrObject@@@Z 1007ef58     Spec_d32:Spec_D32.dll
 0004:00000f5c       __imp_?ReadDefaultScaleFactor@CScaleFactor@@UAEXXZ 1007ef5c     Spec_d32:Spec_D32.dll
 0004:00000f60       __imp_?InitScaleFactor@CScaleFactor@@UAEXXZ 1007ef60     Spec_d32:Spec_D32.dll
 0004:00000f64       __imp_?GetRuntimeClass@CPrecision@@UBEPAUCRuntimeClass@@XZ 1007ef64     Spec_d32:Spec_D32.dll
 0004:00000f68       __imp_?Serialize@CPrecision@@UAEXAAVCArchive@@@Z 1007ef68     Spec_d32:Spec_D32.dll
 0004:00000f6c       __imp_?DoDataView@CPrecision@@UAEXPAVCDC@@H@Z 1007ef6c     Spec_d32:Spec_D32.dll
 0004:00000f70       __imp_?Pack_drPipe@CPrecision@@UAEXPAVCString@@@Z 1007ef70     Spec_d32:Spec_D32.dll
 0004:00000f74       __imp_?GetObjectInfo@CPrecision@@UAEXPAVCDrObject@@@Z 1007ef74     Spec_d32:Spec_D32.dll
 0004:00000f78       __imp_?SetObjectInfo@CPrecision@@UAEXPAVCDrObject@@@Z 1007ef78     Spec_d32:Spec_D32.dll
 0004:00000f7c       __imp_?ReadDefaultPrecision@CPrecision@@UAEXXZ 1007ef7c     Spec_d32:Spec_D32.dll
 0004:00000f80       __imp_?InitPrecision@CPrecision@@UAEXXZ 1007ef80     Spec_d32:Spec_D32.dll
 0004:00000f84       __imp_?GetRuntimeClass@CMapFactor@@UBEPAUCRuntimeClass@@XZ 1007ef84     Spec_d32:Spec_D32.dll
 0004:00000f88       __imp_?Serialize@CMapFactor@@UAEXAAVCArchive@@@Z 1007ef88     Spec_d32:Spec_D32.dll
 0004:00000f8c       __imp_?DoDataView@CMapFactor@@UAEXPAVCDC@@H@Z 1007ef8c     Spec_d32:Spec_D32.dll
 0004:00000f90       __imp_?Pack_drPipe@CMapFactor@@UAEXPAVCString@@@Z 1007ef90     Spec_d32:Spec_D32.dll
 0004:00000f94       __imp_?GetObjectInfo@CMapFactor@@UAEXPAVCDrObject@@@Z 1007ef94     Spec_d32:Spec_D32.dll
 0004:00000f98       __imp_?SetObjectInfo@CMapFactor@@UAEXPAVCDrObject@@@Z 1007ef98     Spec_d32:Spec_D32.dll
 0004:00000f9c       __imp_?ReadDefaultMapFactor@CMapFactor@@UAEXXZ 1007ef9c     Spec_d32:Spec_D32.dll
 0004:00000fa0       __imp_?InitMapFactor@CMapFactor@@UAEXXZ 1007efa0     Spec_d32:Spec_D32.dll
 0004:00000fa4       __imp_?GetRuntimeClass@CObj3DMnu@@UBEPAUCRuntimeClass@@XZ 1007efa4     Spec_d32:Spec_D32.dll
 0004:00000fa8       __imp_?Serialize@CObj3DMnu@@UAEXAAVCArchive@@@Z 1007efa8     Spec_d32:Spec_D32.dll
 0004:00000fac       __imp_?DoDataView@CObj3DMnu@@UAEXPAVCDC@@H@Z 1007efac     Spec_d32:Spec_D32.dll
 0004:00000fb0       __imp_?Pack_drPipe@CObj3DMnu@@UAEXPAVCString@@@Z 1007efb0     Spec_d32:Spec_D32.dll
 0004:00000fb4       __imp_?GetObjectInfo@CObj3DMnu@@UAEXPAVCDrObject@@@Z 1007efb4     Spec_d32:Spec_D32.dll
 0004:00000fb8       __imp_?SetObjectInfo@CObj3DMnu@@UAEXPAVCDrObject@@@Z 1007efb8     Spec_d32:Spec_D32.dll
 0004:00000fbc       __imp_?GetObj3DMnuInfo@CObj3DMnu@@UAE?AVCString@@I@Z 1007efbc     Spec_d32:Spec_D32.dll
 0004:00000fc0       __imp_?SetObj3DMnuInfo@CObj3DMnu@@UAEXII@Z 1007efc0     Spec_d32:Spec_D32.dll
 0004:00000fc4       __imp_?GetObj3DMnuIDArray@CObj3DMnu@@UAEXQAVCString@@@Z 1007efc4     Spec_d32:Spec_D32.dll
 0004:00000fc8       __imp_?SetObj3DMnuIDArray@CObj3DMnu@@UAEXQAVCString@@@Z 1007efc8     Spec_d32:Spec_D32.dll
 0004:00000fcc       __imp_?GetObj3DMnuArray@CObj3DMnu@@UAEXQAY01I@Z 1007efcc     Spec_d32:Spec_D32.dll
 0004:00000fd0       __imp_?SetObj3DMnuArray@CObj3DMnu@@UAEXQAY01I@Z 1007efd0     Spec_d32:Spec_D32.dll
 0004:00000fd4       __imp_?GetObj3DMnuOldArray@CObj3DMnu@@UAEXQAY01I@Z 1007efd4     Spec_d32:Spec_D32.dll
 0004:00000fd8       __imp_?SetObj3DMnuOldArray@CObj3DMnu@@UAEXQAY01I@Z 1007efd8     Spec_d32:Spec_D32.dll
 0004:00000fdc       __imp_?GetObj3DMnuDefaultArray@CObj3DMnu@@UAEXQAY01I@Z 1007efdc     Spec_d32:Spec_D32.dll
 0004:00000fe0       __imp_?SetObj3DMnuDefaultArray@CObj3DMnu@@UAEXQAY01I@Z 1007efe0     Spec_d32:Spec_D32.dll
 0004:00000fe4       __imp_?ReadDefaultObj3DMnu@CObj3DMnu@@UAEXXZ 1007efe4     Spec_d32:Spec_D32.dll
 0004:00000fe8       __imp_?InitObj3DMnu@CObj3DMnu@@UAEXXZ 1007efe8     Spec_d32:Spec_D32.dll
 0004:00000fec       __imp_?GetRuntimeClass@CPatchMnu@@UBEPAUCRuntimeClass@@XZ 1007efec     Spec_d32:Spec_D32.dll
 0004:00000ff0       __imp_?Serialize@CPatchMnu@@UAEXAAVCArchive@@@Z 1007eff0     Spec_d32:Spec_D32.dll
 0004:00000ff4       __imp_?DoDataView@CPatchMnu@@UAEXPAVCDC@@H@Z 1007eff4     Spec_d32:Spec_D32.dll
 0004:00000ff8       __imp_?Pack_drPipe@CPatchMnu@@UAEXPAVCString@@@Z 1007eff8     Spec_d32:Spec_D32.dll
 0004:00000ffc       __imp_?GetObjectInfo@CPatchMnu@@UAEXPAVCDrObject@@@Z 1007effc     Spec_d32:Spec_D32.dll
 0004:00001000       __imp_?SetObjectInfo@CPatchMnu@@UAEXPAVCDrObject@@@Z 1007f000     Spec_d32:Spec_D32.dll
 0004:00001004       __imp_?GetPatchMnuInfo@CPatchMnu@@UAE?AVCString@@I@Z 1007f004     Spec_d32:Spec_D32.dll
 0004:00001008       __imp_?SetPatchMnuInfo@CPatchMnu@@UAEXII@Z 1007f008     Spec_d32:Spec_D32.dll
 0004:0000100c       __imp_?GetPatchMnuIDArray@CPatchMnu@@UAEXQAVCString@@@Z 1007f00c     Spec_d32:Spec_D32.dll
 0004:00001010       __imp_?SetPatchMnuIDArray@CPatchMnu@@UAEXQAVCString@@@Z 1007f010     Spec_d32:Spec_D32.dll
 0004:00001014       __imp_?GetPatchMnuArray@CPatchMnu@@UAEXQAY01I@Z 1007f014     Spec_d32:Spec_D32.dll
 0004:00001018       __imp_?SetPatchMnuArray@CPatchMnu@@UAEXQAY01I@Z 1007f018     Spec_d32:Spec_D32.dll
 0004:0000101c       __imp_?GetPatchMnuOldArray@CPatchMnu@@UAEXQAY01I@Z 1007f01c     Spec_d32:Spec_D32.dll
 0004:00001020       __imp_?SetPatchMnuOldArray@CPatchMnu@@UAEXQAY01I@Z 1007f020     Spec_d32:Spec_D32.dll
 0004:00001024       __imp_?GetPatchMnuDefaultArray@CPatchMnu@@UAEXQAY01I@Z 1007f024     Spec_d32:Spec_D32.dll
 0004:00001028       __imp_?SetPatchMnuDefaultArray@CPatchMnu@@UAEXQAY01I@Z 1007f028     Spec_d32:Spec_D32.dll
 0004:0000102c       __imp_?ReadDefaultPatchMnu@CPatchMnu@@UAEXXZ 1007f02c     Spec_d32:Spec_D32.dll
 0004:00001030       __imp_?InitPatchMnu@CPatchMnu@@UAEXXZ 1007f030     Spec_d32:Spec_D32.dll
 0004:00001034       __imp_?GetRuntimeClass@CLayer@@UBEPAUCRuntimeClass@@XZ 1007f034     Spec_d32:Spec_D32.dll
 0004:00001038       __imp_?Serialize@CLayer@@UAEXAAVCArchive@@@Z 1007f038     Spec_d32:Spec_D32.dll
 0004:0000103c       __imp_?DoDataView@CLayer@@UAEXPAVCDC@@H@Z 1007f03c     Spec_d32:Spec_D32.dll
 0004:00001040       __imp_?Pack_drPipe@CLayer@@UAEXPAVCString@@@Z 1007f040     Spec_d32:Spec_D32.dll
 0004:00001044       __imp_?GetObjectInfo@CLayer@@UAEXPAVCDrObject@@@Z 1007f044     Spec_d32:Spec_D32.dll
 0004:00001048       __imp_?SetObjectInfo@CLayer@@UAEXPAVCDrObject@@@Z 1007f048     Spec_d32:Spec_D32.dll
 0004:0000104c       __imp_?GetLayerInfo@CLayer@@UAE?AVCString@@I@Z 1007f04c     Spec_d32:Spec_D32.dll
 0004:00001050       __imp_?SetLayerInfo@CLayer@@UAEXII@Z 1007f050     Spec_d32:Spec_D32.dll
 0004:00001054       __imp_?GetLayerArray@CLayer@@UAEXQAY01I@Z 1007f054     Spec_d32:Spec_D32.dll
 0004:00001058       __imp_?SetLayerArray@CLayer@@UAEXQAY01I@Z 1007f058     Spec_d32:Spec_D32.dll
 0004:0000105c       __imp_?GetLayerOldArray@CLayer@@UAEXQAY01I@Z 1007f05c     Spec_d32:Spec_D32.dll
 0004:00001060       __imp_?SetLayerOldArray@CLayer@@UAEXQAY01I@Z 1007f060     Spec_d32:Spec_D32.dll
 0004:00001064       __imp_?GetLayerDefaultArray@CLayer@@UAEXQAY01I@Z 1007f064     Spec_d32:Spec_D32.dll
 0004:00001068       __imp_?SetLayerDefaultArray@CLayer@@UAEXQAY01I@Z 1007f068     Spec_d32:Spec_D32.dll
 0004:0000106c       __imp_?ReadDefaultLayer@CLayer@@UAEXXZ 1007f06c     Spec_d32:Spec_D32.dll
 0004:00001070       __imp_?InitLayer@CLayer@@UAEXXZ 1007f070     Spec_d32:Spec_D32.dll
 0004:00001074       __imp_?GetRuntimeClass@CHitNet@@UBEPAUCRuntimeClass@@XZ 1007f074     Spec_d32:Spec_D32.dll
 0004:00001078       __imp_?Serialize@CHitNet@@UAEXAAVCArchive@@@Z 1007f078     Spec_d32:Spec_D32.dll
 0004:0000107c       __imp_?DoDataView@CHitNet@@UAEXPAVCDC@@H@Z 1007f07c     Spec_d32:Spec_D32.dll
 0004:00001080       __imp_?Pack_drPipe@CHitNet@@UAEXPAVCString@@@Z 1007f080     Spec_d32:Spec_D32.dll
 0004:00001084       __imp_?GetObjectInfo@CHitNet@@UAEXPAVCDrObject@@@Z 1007f084     Spec_d32:Spec_D32.dll
 0004:00001088       __imp_?SetObjectInfo@CHitNet@@UAEXPAVCDrObject@@@Z 1007f088     Spec_d32:Spec_D32.dll
 0004:0000108c       __imp_?GetRuntimeClass@CDrPen@@UBEPAUCRuntimeClass@@XZ 1007f08c     Spec_d32:Spec_D32.dll
 0004:00001090       __imp_?Serialize@CDrPen@@UAEXAAVCArchive@@@Z 1007f090     Spec_d32:Spec_D32.dll
 0004:00001094       __imp_?DoDataView@CDrPen@@UAEXPAVCDC@@H@Z 1007f094     Spec_d32:Spec_D32.dll
 0004:00001098       __imp_?Pack_drPipe@CDrPen@@UAEXPAVCString@@@Z 1007f098     Spec_d32:Spec_D32.dll
 0004:0000109c       __imp_?GetObjectInfo@CDrPen@@UAEXPAVCDrObject@@@Z 1007f09c     Spec_d32:Spec_D32.dll
 0004:000010a0       __imp_?SetObjectInfo@CDrPen@@UAEXPAVCDrObject@@@Z 1007f0a0     Spec_d32:Spec_D32.dll
 0004:000010a4       __imp_?ReplacePen@CDrPen@@UAEXXZ 1007f0a4     Spec_d32:Spec_D32.dll
 0004:000010a8       __imp_?ReadDefaultDrPen@CDrPen@@UAEXXZ 1007f0a8     Spec_d32:Spec_D32.dll
 0004:000010ac       __imp_?InitDrPen@CDrPen@@UAEXXZ 1007f0ac     Spec_d32:Spec_D32.dll
 0004:000010b0       __imp_?GetRuntimeClass@CDrFont@@UBEPAUCRuntimeClass@@XZ 1007f0b0     Spec_d32:Spec_D32.dll
 0004:000010b4       __imp_?Serialize@CDrFont@@UAEXAAVCArchive@@@Z 1007f0b4     Spec_d32:Spec_D32.dll
 0004:000010b8       __imp_?DoDataView@CDrFont@@UAEXPAVCDC@@H@Z 1007f0b8     Spec_d32:Spec_D32.dll
 0004:000010bc       __imp_?Pack_drPipe@CDrFont@@UAEXPAVCString@@@Z 1007f0bc     Spec_d32:Spec_D32.dll
 0004:000010c0       __imp_?GetObjectInfo@CDrFont@@UAEXPAVCDrObject@@@Z 1007f0c0     Spec_d32:Spec_D32.dll
 0004:000010c4       __imp_?SetObjectInfo@CDrFont@@UAEXPAVCDrObject@@@Z 1007f0c4     Spec_d32:Spec_D32.dll
 0004:000010c8       __imp_?DoTextFont@CDrFont@@UAEXXZ 1007f0c8     Spec_d32:Spec_D32.dll
 0004:000010cc       __imp_?ReadDefaultDrFont@CDrFont@@UAEXXZ 1007f0cc     Spec_d32:Spec_D32.dll
 0004:000010d0       __imp_?InitDrFont@CDrFont@@UAEXXZ 1007f0d0     Spec_d32:Spec_D32.dll
 0004:000010d4       __imp_?GetRuntimeClass@CDataWindow@@UBEPAUCRuntimeClass@@XZ 1007f0d4     Spec_d32:Spec_D32.dll
 0004:000010d8       __imp_?Serialize@CDataWindow@@UAEXAAVCArchive@@@Z 1007f0d8     Spec_d32:Spec_D32.dll
 0004:000010dc       __imp_?DoDataView@CDataWindow@@UAEXPAVCDC@@H@Z 1007f0dc     Spec_d32:Spec_D32.dll
 0004:000010e0       __imp_?Pack_drPipe@CDataWindow@@UAEXPAVCString@@@Z 1007f0e0     Spec_d32:Spec_D32.dll
 0004:000010e4       __imp_?GetObjectInfo@CDataWindow@@UAEXPAVCDrObject@@@Z 1007f0e4     Spec_d32:Spec_D32.dll
 0004:000010e8       __imp_?SetObjectInfo@CDataWindow@@UAEXPAVCDrObject@@@Z 1007f0e8     Spec_d32:Spec_D32.dll
 0004:000010ec       __imp_?SetWinMinMaxWIC@CDataWindow@@UAEXULPOINT3@@@Z 1007f0ec     Spec_d32:Spec_D32.dll
 0004:000010f0       __imp_?SetWinExtWIC@CDataWindow@@UAEXXZ 1007f0f0     Spec_d32:Spec_D32.dll
 0004:000010f4       __imp_?ReadDefaultDataWindow@CDataWindow@@UAEXXZ 1007f0f4     Spec_d32:Spec_D32.dll
 0004:000010f8       __imp_?InitDataWindow@CDataWindow@@UAEXXZ 1007f0f8     Spec_d32:Spec_D32.dll
 0004:000010fc       __imp_?GetRuntimeClass@CBooleans@@UBEPAUCRuntimeClass@@XZ 1007f0fc     Spec_d32:Spec_D32.dll
 0004:00001100       __imp_?Serialize@CBooleans@@UAEXAAVCArchive@@@Z 1007f100     Spec_d32:Spec_D32.dll
 0004:00001104       __imp_?DoDataView@CBooleans@@UAEXPAVCDC@@H@Z 1007f104     Spec_d32:Spec_D32.dll
 0004:00001108       __imp_?Pack_drPipe@CBooleans@@UAEXPAVCString@@@Z 1007f108     Spec_d32:Spec_D32.dll
 0004:0000110c       __imp_?GetObjectInfo@CBooleans@@UAEXPAVCDrObject@@@Z 1007f10c     Spec_d32:Spec_D32.dll
 0004:00001110       __imp_?SetObjectInfo@CBooleans@@UAEXPAVCDrObject@@@Z 1007f110     Spec_d32:Spec_D32.dll
 0004:00001114       __imp_?IsZoomEnabled@CBooleans@@UAEHH@Z 1007f114     Spec_d32:Spec_D32.dll
 0004:00001118       __imp_?SetZoomEnabled@CBooleans@@UAEXHH@Z 1007f118     Spec_d32:Spec_D32.dll
 0004:0000111c       __imp_?IsZoomOn@CBooleans@@UAEHHH@Z 1007f11c     Spec_d32:Spec_D32.dll
 0004:00001120       __imp_?ToggleZoom@CBooleans@@UAEHHH@Z 1007f120     Spec_d32:Spec_D32.dll
 0004:00001124       __imp_?ReadDefaultBooleans@CBooleans@@UAEXXZ 1007f124     Spec_d32:Spec_D32.dll
 0004:00001128       __imp_?InitBooleans@CBooleans@@UAEXXZ 1007f128     Spec_d32:Spec_D32.dll
 0004:0000112c       __imp_??1CDrObject@@UAE@XZ 1007f12c     Spec_d32:Spec_D32.dll
 0004:00001130       __imp_?GetLocalCorner@CDrObject@@UAEXPAUWORLD@@H@Z 1007f130     Spec_d32:Spec_D32.dll
 0004:00001134       __imp_?SetLocalCorner@CDrObject@@UAEXPAUWORLD@@H@Z 1007f134     Spec_d32:Spec_D32.dll
 0004:00001138       __imp_?GetWorldCorner@CDrObject@@UAEXPAUWORLD@@H@Z 1007f138     Spec_d32:Spec_D32.dll
 0004:0000113c       __imp_?SetWorldCorner@CDrObject@@UAEXPAUWORLD@@H@Z 1007f13c     Spec_d32:Spec_D32.dll
 0004:00001140       __imp_?GetEyeCorner@CDrObject@@UAEXPAUWORLD@@H@Z 1007f140     Spec_d32:Spec_D32.dll
 0004:00001144       __imp_?SetEyeCorner@CDrObject@@UAEXPAUWORLD@@H@Z 1007f144     Spec_d32:Spec_D32.dll
 0004:00001148       __imp_?GetScreen3DCorner@CDrObject@@UAEXPAUWORLD@@H@Z 1007f148     Spec_d32:Spec_D32.dll
 0004:0000114c       __imp_?SetScreen3DCorner@CDrObject@@UAEXPAUWORLD@@H@Z 1007f14c     Spec_d32:Spec_D32.dll
 0004:00001150       __imp_?GetRuntimeClass@CMatObj@@UBEPAUCRuntimeClass@@XZ 1007f150     Spec_d32:Spec_D32.dll
 0004:00001154       \177Spec_D32_NULL_THUNK_DATA 1007f154     Spec_d32:Spec_D32.dll
 0004:000011f0       __imp__DestroyCursor@4     1007f1f0     user32:USER32.dll
 0004:000011f4       __imp__SetCursor@4         1007f1f4     user32:USER32.dll
 0004:000011f8       __imp__GetSystemMetrics@4  1007f1f8     user32:USER32.dll
 0004:000011fc       \177USER32_NULL_THUNK_DATA 1007f1fc     user32:USER32.dll

 entry point at        0001:0002c0f0

